ARM GAS  /tmp/ccrsTBIG.s 			page 1


   1              		.syntax unified
   2              		.cpu cortex-m4
   3              		.fpu softvfp
   4              		.eabi_attribute 20, 1
   5              		.eabi_attribute 21, 1
   6              		.eabi_attribute 23, 3
   7              		.eabi_attribute 24, 1
   8              		.eabi_attribute 25, 1
   9              		.eabi_attribute 26, 1
  10              		.eabi_attribute 30, 6
  11              		.eabi_attribute 34, 1
  12              		.eabi_attribute 18, 4
  13              		.thumb
  14              		.file	"stm32l4xx_hal_adc.c"
  15              		.text
  16              	.Ltext0:
  17              		.cfi_sections	.debug_frame
  18              		.align	2
  19              		.p2align 4,,15
  20              		.global	HAL_ADC_Init
  21              		.thumb
  22              		.thumb_func
  23              		.type	HAL_ADC_Init, %function
  24              	HAL_ADC_Init:
  25              	.LFB125:
  26              		.file 1 "../../../../../Drivers/STM32L4xx_HAL_Driver/Src/stm32l4xx_hal_adc.c"
  27              		.loc 1 276 0
  28              		.cfi_startproc
  29              		@ args = 0, pretend = 0, frame = 64
  30              		@ frame_needed = 0, uses_anonymous_args = 0
  31 0000 00B5     		push	{lr}
  32              		.cfi_def_cfa_offset 4
  33              		.cfi_offset 14, -4
  34 0002 91B0     		sub	sp, sp, #68
  35              		.cfi_def_cfa_offset 72
  36 0004 0190     		str	r0, [sp, #4]
  37              		.loc 1 277 0
  38 0006 0023     		movs	r3, #0
  39 0008 8DF83F30 		strb	r3, [sp, #63]
  40              		.loc 1 280 0
  41 000c 0023     		movs	r3, #0
  42 000e 0E93     		str	r3, [sp, #56]
  43              		.loc 1 281 0
  44 0010 0023     		movs	r3, #0
  45 0012 0293     		str	r3, [sp, #8]
  46              		.loc 1 284 0
  47 0014 019B     		ldr	r3, [sp, #4]
  48 0016 002B     		cmp	r3, #0
  49 0018 01D1     		bne	.L2
  50              		.loc 1 286 0
  51 001a 0123     		movs	r3, #1
  52 001c E1E1     		b	.L3
  53              	.L2:
  54              		.loc 1 305 0
  55 001e 019B     		ldr	r3, [sp, #4]
  56 0020 1B69     		ldr	r3, [r3, #16]
  57 0022 002B     		cmp	r3, #0
ARM GAS  /tmp/ccrsTBIG.s 			page 2


  58              		.loc 1 323 0
  59 0024 019B     		ldr	r3, [sp, #4]
  60 0026 9B6D     		ldr	r3, [r3, #88]
  61 0028 002B     		cmp	r3, #0
  62 002a 09D1     		bne	.L5
  63              		.loc 1 326 0
  64 002c 0198     		ldr	r0, [sp, #4]
  65 002e FFF7FEFF 		bl	HAL_ADC_MspInit
  66              		.loc 1 329 0
  67 0032 019B     		ldr	r3, [sp, #4]
  68 0034 0022     		movs	r2, #0
  69 0036 DA65     		str	r2, [r3, #92]
  70              		.loc 1 332 0
  71 0038 019B     		ldr	r3, [sp, #4]
  72 003a 0022     		movs	r2, #0
  73 003c 83F85420 		strb	r2, [r3, #84]
  74              	.L5:
  75              		.loc 1 338 0
  76 0040 019B     		ldr	r3, [sp, #4]
  77 0042 1B68     		ldr	r3, [r3]
  78 0044 9B68     		ldr	r3, [r3, #8]
  79 0046 03F00053 		and	r3, r3, #536870912
  80 004a 002B     		cmp	r3, #0
  81 004c 07D0     		beq	.L6
  82              		.loc 1 341 0
  83 004e 019B     		ldr	r3, [sp, #4]
  84 0050 1B68     		ldr	r3, [r3]
  85 0052 019A     		ldr	r2, [sp, #4]
  86 0054 1268     		ldr	r2, [r2]
  87 0056 9268     		ldr	r2, [r2, #8]
  88 0058 22F00052 		bic	r2, r2, #536870912
  89 005c 9A60     		str	r2, [r3, #8]
  90              	.L6:
  91              		.loc 1 349 0
  92 005e 019B     		ldr	r3, [sp, #4]
  93 0060 1B68     		ldr	r3, [r3]
  94 0062 9B68     		ldr	r3, [r3, #8]
  95 0064 03F08053 		and	r3, r3, #268435456
  96 0068 002B     		cmp	r3, #0
  97 006a 19D1     		bne	.L7
  98              		.loc 1 352 0
  99 006c 019B     		ldr	r3, [sp, #4]
 100 006e 1B68     		ldr	r3, [r3]
 101 0070 019A     		ldr	r2, [sp, #4]
 102 0072 1268     		ldr	r2, [r2]
 103 0074 9268     		ldr	r2, [r2, #8]
 104 0076 42F08052 		orr	r2, r2, #268435456
 105 007a 9A60     		str	r2, [r3, #8]
 106              		.loc 1 358 0
 107 007c 604B     		ldr	r3, .L44
 108 007e 1A68     		ldr	r2, [r3]
 109 0080 604B     		ldr	r3, .L44+4
 110 0082 A3FB0213 		umull	r1, r3, r3, r2
 111 0086 DA0C     		lsrs	r2, r3, #19
 112 0088 1346     		mov	r3, r2
 113 008a 9B00     		lsls	r3, r3, #2
 114 008c 1344     		add	r3, r3, r2
ARM GAS  /tmp/ccrsTBIG.s 			page 3


 115 008e 5B00     		lsls	r3, r3, #1
 116 0090 0293     		str	r3, [sp, #8]
 117              		.loc 1 359 0
 118 0092 02E0     		b	.L8
 119              	.L9:
 120              		.loc 1 361 0
 121 0094 029B     		ldr	r3, [sp, #8]
 122 0096 013B     		subs	r3, r3, #1
 123 0098 0293     		str	r3, [sp, #8]
 124              	.L8:
 125              		.loc 1 359 0 discriminator 1
 126 009a 029B     		ldr	r3, [sp, #8]
 127 009c 002B     		cmp	r3, #0
 128 009e F9D1     		bne	.L9
 129              	.L7:
 130              		.loc 1 371 0
 131 00a0 019B     		ldr	r3, [sp, #4]
 132 00a2 1B68     		ldr	r3, [r3]
 133 00a4 9B68     		ldr	r3, [r3, #8]
 134 00a6 03F08053 		and	r3, r3, #268435456
 135 00aa 002B     		cmp	r3, #0
 136 00ac 0ED1     		bne	.L10
 137              		.loc 1 374 0
 138 00ae 019B     		ldr	r3, [sp, #4]
 139 00b0 9B6D     		ldr	r3, [r3, #88]
 140 00b2 43F01002 		orr	r2, r3, #16
 141 00b6 019B     		ldr	r3, [sp, #4]
 142 00b8 9A65     		str	r2, [r3, #88]
 143              		.loc 1 377 0
 144 00ba 019B     		ldr	r3, [sp, #4]
 145 00bc DB6D     		ldr	r3, [r3, #92]
 146 00be 43F00102 		orr	r2, r3, #1
 147 00c2 019B     		ldr	r3, [sp, #4]
 148 00c4 DA65     		str	r2, [r3, #92]
 149              		.loc 1 379 0
 150 00c6 0123     		movs	r3, #1
 151 00c8 8DF83F30 		strb	r3, [sp, #63]
 152              	.L10:
 153              		.loc 1 387 0
 154 00cc 019B     		ldr	r3, [sp, #4]
 155 00ce 9B6D     		ldr	r3, [r3, #88]
 156 00d0 03F01003 		and	r3, r3, #16
 157 00d4 002B     		cmp	r3, #0
 158 00d6 40F07981 		bne	.L11
 159              		.loc 1 388 0 discriminator 1
 160 00da 019B     		ldr	r3, [sp, #4]
 161 00dc 1B68     		ldr	r3, [r3]
 162 00de 9B68     		ldr	r3, [r3, #8]
 163 00e0 03F00403 		and	r3, r3, #4
 164              		.loc 1 387 0 discriminator 1
 165 00e4 002B     		cmp	r3, #0
 166 00e6 40F07181 		bne	.L11
 167              		.loc 1 392 0
 168 00ea 019B     		ldr	r3, [sp, #4]
 169 00ec 9B6D     		ldr	r3, [r3, #88]
 170 00ee 43F00202 		orr	r2, r3, #2
 171 00f2 019B     		ldr	r3, [sp, #4]
ARM GAS  /tmp/ccrsTBIG.s 			page 4


 172 00f4 9A65     		str	r2, [r3, #88]
 173              		.loc 1 397 0
 174 00f6 444B     		ldr	r3, .L44+8
 175 00f8 0D93     		str	r3, [sp, #52]
 176              		.loc 1 403 0
 177 00fa 019B     		ldr	r3, [sp, #4]
 178 00fc 1B68     		ldr	r3, [r3]
 179 00fe 9B68     		ldr	r3, [r3, #8]
 180 0100 03F00303 		and	r3, r3, #3
 181 0104 012B     		cmp	r3, #1
 182 0106 08D1     		bne	.L12
 183              		.loc 1 403 0 is_stmt 0 discriminator 1
 184 0108 019B     		ldr	r3, [sp, #4]
 185 010a 1B68     		ldr	r3, [r3]
 186 010c 1B68     		ldr	r3, [r3]
 187 010e 03F00103 		and	r3, r3, #1
 188 0112 002B     		cmp	r3, #0
 189 0114 01D0     		beq	.L12
 190              		.loc 1 403 0 discriminator 3
 191 0116 0123     		movs	r3, #1
 192 0118 00E0     		b	.L13
 193              	.L12:
 194              		.loc 1 403 0 discriminator 2
 195 011a 0023     		movs	r3, #0
 196              	.L13:
 197              		.loc 1 403 0 discriminator 4
 198 011c 002B     		cmp	r3, #0
 199 011e 40F08C80 		bne	.L14
 200              		.loc 1 404 0 is_stmt 1
 201 0122 019B     		ldr	r3, [sp, #4]
 202 0124 1A68     		ldr	r2, [r3]
 203 0126 394B     		ldr	r3, .L44+12
 204 0128 9A42     		cmp	r2, r3
 205 012a 20D1     		bne	.L15
 206              		.loc 1 404 0 is_stmt 0 discriminator 1
 207 012c 384B     		ldr	r3, .L44+16
 208 012e 9B68     		ldr	r3, [r3, #8]
 209 0130 03F00303 		and	r3, r3, #3
 210 0134 012B     		cmp	r3, #1
 211 0136 05D1     		bne	.L16
 212 0138 354B     		ldr	r3, .L44+16
 213 013a 1B68     		ldr	r3, [r3]
 214 013c 03F00103 		and	r3, r3, #1
 215 0140 002B     		cmp	r3, #0
 216 0142 0BD1     		bne	.L17
 217              	.L16:
 218              		.loc 1 404 0 discriminator 2
 219 0144 334B     		ldr	r3, .L44+20
 220 0146 9B68     		ldr	r3, [r3, #8]
 221 0148 03F00303 		and	r3, r3, #3
 222 014c 012B     		cmp	r3, #1
 223 014e 07D1     		bne	.L18
 224              		.loc 1 404 0 discriminator 4
 225 0150 304B     		ldr	r3, .L44+20
 226 0152 1B68     		ldr	r3, [r3]
 227 0154 03F00103 		and	r3, r3, #1
 228 0158 002B     		cmp	r3, #0
ARM GAS  /tmp/ccrsTBIG.s 			page 5


 229 015a 01D0     		beq	.L18
 230              	.L17:
 231              		.loc 1 404 0 discriminator 3
 232 015c 0123     		movs	r3, #1
 233 015e 00E0     		b	.L19
 234              	.L18:
 235              		.loc 1 404 0 discriminator 5
 236 0160 0023     		movs	r3, #0
 237              	.L19:
 238              		.loc 1 404 0 discriminator 6
 239 0162 002B     		cmp	r3, #0
 240 0164 14BF     		ite	ne
 241 0166 0023     		movne	r3, #0
 242 0168 0123     		moveq	r3, #1
 243 016a DBB2     		uxtb	r3, r3
 244 016c 5AE0     		b	.L20
 245              	.L15:
 246              		.loc 1 404 0 discriminator 2
 247 016e 019B     		ldr	r3, [sp, #4]
 248 0170 1A68     		ldr	r2, [r3]
 249 0172 274B     		ldr	r3, .L44+16
 250 0174 9A42     		cmp	r2, r3
 251 0176 20D1     		bne	.L21
 252              		.loc 1 404 0 discriminator 1
 253 0178 244B     		ldr	r3, .L44+12
 254 017a 9B68     		ldr	r3, [r3, #8]
 255 017c 03F00303 		and	r3, r3, #3
 256 0180 012B     		cmp	r3, #1
 257 0182 05D1     		bne	.L22
 258 0184 214B     		ldr	r3, .L44+12
 259 0186 1B68     		ldr	r3, [r3]
 260 0188 03F00103 		and	r3, r3, #1
 261 018c 002B     		cmp	r3, #0
 262 018e 0BD1     		bne	.L23
 263              	.L22:
 264              		.loc 1 404 0 discriminator 2
 265 0190 204B     		ldr	r3, .L44+20
 266 0192 9B68     		ldr	r3, [r3, #8]
 267 0194 03F00303 		and	r3, r3, #3
 268 0198 012B     		cmp	r3, #1
 269 019a 07D1     		bne	.L24
 270              		.loc 1 404 0 discriminator 4
 271 019c 1D4B     		ldr	r3, .L44+20
 272 019e 1B68     		ldr	r3, [r3]
 273 01a0 03F00103 		and	r3, r3, #1
 274 01a4 002B     		cmp	r3, #0
 275 01a6 01D0     		beq	.L24
 276              	.L23:
 277              		.loc 1 404 0 discriminator 3
 278 01a8 0123     		movs	r3, #1
 279 01aa 00E0     		b	.L25
 280              	.L24:
 281              		.loc 1 404 0 discriminator 5
 282 01ac 0023     		movs	r3, #0
 283              	.L25:
 284              		.loc 1 404 0 discriminator 6
 285 01ae 03F00103 		and	r3, r3, #1
ARM GAS  /tmp/ccrsTBIG.s 			page 6


 286 01b2 DBB2     		uxtb	r3, r3
 287 01b4 002B     		cmp	r3, #0
 288 01b6 20D1     		bne	.L26
 289 01b8 13E0     		b	.L27
 290              	.L21:
 291              		.loc 1 404 0 discriminator 2
 292 01ba 144B     		ldr	r3, .L44+12
 293 01bc 9B68     		ldr	r3, [r3, #8]
 294 01be 03F00303 		and	r3, r3, #3
 295 01c2 012B     		cmp	r3, #1
 296 01c4 07D1     		bne	.L28
 297              		.loc 1 404 0 discriminator 4
 298 01c6 114B     		ldr	r3, .L44+12
 299 01c8 1B68     		ldr	r3, [r3]
 300 01ca 03F00103 		and	r3, r3, #1
 301 01ce 002B     		cmp	r3, #0
 302 01d0 01D0     		beq	.L28
 303              		.loc 1 404 0 discriminator 6
 304 01d2 0123     		movs	r3, #1
 305 01d4 00E0     		b	.L29
 306              	.L28:
 307              		.loc 1 404 0 discriminator 5
 308 01d6 0023     		movs	r3, #0
 309              	.L29:
 310              		.loc 1 404 0 discriminator 7
 311 01d8 03F00103 		and	r3, r3, #1
 312 01dc DBB2     		uxtb	r3, r3
 313 01de 002B     		cmp	r3, #0
 314 01e0 0BD1     		bne	.L26
 315              	.L27:
 316              		.loc 1 404 0 discriminator 8
 317 01e2 0B4B     		ldr	r3, .L44+16
 318 01e4 9B68     		ldr	r3, [r3, #8]
 319 01e6 03F00303 		and	r3, r3, #3
 320 01ea 012B     		cmp	r3, #1
 321 01ec 14D1     		bne	.L30
 322              		.loc 1 404 0 discriminator 9
 323 01ee 084B     		ldr	r3, .L44+16
 324 01f0 1B68     		ldr	r3, [r3]
 325 01f2 03F00103 		and	r3, r3, #1
 326 01f6 002B     		cmp	r3, #0
 327 01f8 0ED0     		beq	.L30
 328              	.L26:
 329              		.loc 1 404 0 discriminator 3
 330 01fa 0123     		movs	r3, #1
 331 01fc 0DE0     		b	.L31
 332              	.L45:
 333 01fe 00BF     		.align	2
 334              	.L44:
 335 0200 00000000 		.word	SystemCoreClock
 336 0204 83DE1B43 		.word	1125899907
 337 0208 00030450 		.word	1342440192
 338 020c 00000450 		.word	1342439424
 339 0210 00010450 		.word	1342439680
 340 0214 00020450 		.word	1342439936
 341              	.L30:
 342              		.loc 1 404 0 discriminator 10
ARM GAS  /tmp/ccrsTBIG.s 			page 7


 343 0218 0023     		movs	r3, #0
 344              	.L31:
 345              		.loc 1 404 0 discriminator 11
 346 021a 002B     		cmp	r3, #0
 347 021c 14BF     		ite	ne
 348 021e 0023     		movne	r3, #0
 349 0220 0123     		moveq	r3, #1
 350 0222 DBB2     		uxtb	r3, r3
 351              	.L20:
 352              		.loc 1 403 0 is_stmt 1
 353 0224 002B     		cmp	r3, #0
 354 0226 08D0     		beq	.L14
 355              		.loc 1 424 0
 356 0228 0D9B     		ldr	r3, [sp, #52]
 357 022a 9B68     		ldr	r3, [r3, #8]
 358 022c 23F47C12 		bic	r2, r3, #4128768
 359 0230 019B     		ldr	r3, [sp, #4]
 360 0232 5B68     		ldr	r3, [r3, #4]
 361 0234 1A43     		orrs	r2, r2, r3
 362 0236 0D9B     		ldr	r3, [sp, #52]
 363 0238 9A60     		str	r2, [r3, #8]
 364              	.L14:
 365              		.loc 1 437 0
 366 023a 019B     		ldr	r3, [sp, #4]
 367 023c DA69     		ldr	r2, [r3, #28]
 368 023e 4FF40053 		mov	r3, #8192
 369 0242 0C93     		str	r3, [sp, #48]
 370              	.LBB62:
 371              	.LBB63:
 372              		.file 2 "../../../../../../ChibiOS/os/ext/CMSIS/include/core_cmInstr.h"
 373              		.loc 2 586 0
 374 0244 0C9B     		ldr	r3, [sp, #48]
 375              	@ 586 "../../../../../../ChibiOS/os/ext/CMSIS/include/core_cmInstr.h" 1
 376 0246 93FAA3F3 		rbit r3, r3
 377              	@ 0 "" 2
 378              		.thumb
 379 024a 0B93     		str	r3, [sp, #44]
 380              		.loc 2 599 0
 381 024c 0B9B     		ldr	r3, [sp, #44]
 382              	.LBE63:
 383              	.LBE62:
 384              		.loc 1 437 0
 385 024e B3FA83F3 		clz	r3, r3
 386 0252 9A40     		lsls	r2, r2, r3
 387              		.loc 1 438 0
 388 0254 019B     		ldr	r3, [sp, #4]
 389 0256 9B6B     		ldr	r3, [r3, #56]
 390              		.loc 1 437 0
 391 0258 1A43     		orrs	r2, r2, r3
 392              		.loc 1 439 0
 393 025a 019B     		ldr	r3, [sp, #4]
 394 025c DB68     		ldr	r3, [r3, #12]
 395              		.loc 1 438 0
 396 025e 1A43     		orrs	r2, r2, r3
 397              		.loc 1 440 0
 398 0260 019B     		ldr	r3, [sp, #4]
 399 0262 9B68     		ldr	r3, [r3, #8]
ARM GAS  /tmp/ccrsTBIG.s 			page 8


 400              		.loc 1 439 0
 401 0264 1A43     		orrs	r2, r2, r3
 402              		.loc 1 441 0
 403 0266 019B     		ldr	r3, [sp, #4]
 404 0268 596A     		ldr	r1, [r3, #36]
 405 026a 4FF48033 		mov	r3, #65536
 406 026e 0A93     		str	r3, [sp, #40]
 407              	.LBB64:
 408              	.LBB65:
 409              		.loc 2 586 0
 410 0270 0A9B     		ldr	r3, [sp, #40]
 411              	@ 586 "../../../../../../ChibiOS/os/ext/CMSIS/include/core_cmInstr.h" 1
 412 0272 93FAA3F3 		rbit r3, r3
 413              	@ 0 "" 2
 414              		.thumb
 415 0276 0993     		str	r3, [sp, #36]
 416              		.loc 2 599 0
 417 0278 099B     		ldr	r3, [sp, #36]
 418              	.LBE65:
 419              	.LBE64:
 420              		.loc 1 441 0
 421 027a B3FA83F3 		clz	r3, r3
 422 027e 01FA03F3 		lsl	r3, r1, r3
 423              		.loc 1 440 0
 424 0282 1A43     		orrs	r2, r2, r3
 425              		.loc 1 442 0
 426 0284 019B     		ldr	r3, [sp, #4]
 427 0286 9B6A     		ldr	r3, [r3, #40]
 428 0288 591E     		subs	r1, r3, #1
 429 028a 4FF46023 		mov	r3, #917504
 430 028e 0893     		str	r3, [sp, #32]
 431              	.LBB66:
 432              	.LBB67:
 433              		.loc 2 586 0
 434 0290 089B     		ldr	r3, [sp, #32]
 435              	@ 586 "../../../../../../ChibiOS/os/ext/CMSIS/include/core_cmInstr.h" 1
 436 0292 93FAA3F3 		rbit r3, r3
 437              	@ 0 "" 2
 438              		.thumb
 439 0296 0793     		str	r3, [sp, #28]
 440              		.loc 2 599 0
 441 0298 079B     		ldr	r3, [sp, #28]
 442              	.LBE67:
 443              	.LBE66:
 444              		.loc 1 442 0
 445 029a B3FA83F3 		clz	r3, r3
 446 029e 01FA03F3 		lsl	r3, r1, r3
 447              		.loc 1 437 0
 448 02a2 1343     		orrs	r3, r3, r2
 449 02a4 0E93     		str	r3, [sp, #56]
 450              		.loc 1 450 0
 451 02a6 019B     		ldr	r3, [sp, #4]
 452 02a8 DB6A     		ldr	r3, [r3, #44]
 453 02aa 012B     		cmp	r3, #1
 454 02ac 0BD0     		beq	.L35
 455              		.loc 1 451 0
 456 02ae 019B     		ldr	r3, [sp, #4]
ARM GAS  /tmp/ccrsTBIG.s 			page 9


 457 02b0 1B6B     		ldr	r3, [r3, #48]
 458 02b2 002B     		cmp	r3, #0
 459 02b4 07D0     		beq	.L35
 460              		.loc 1 453 0
 461 02b6 019B     		ldr	r3, [sp, #4]
 462 02b8 DA6A     		ldr	r2, [r3, #44]
 463 02ba 019B     		ldr	r3, [sp, #4]
 464 02bc 1B6B     		ldr	r3, [r3, #48]
 465 02be 1343     		orrs	r3, r3, r2
 466 02c0 0E9A     		ldr	r2, [sp, #56]
 467 02c2 1343     		orrs	r3, r3, r2
 468 02c4 0E93     		str	r3, [sp, #56]
 469              	.L35:
 470              		.loc 1 457 0
 471 02c6 019B     		ldr	r3, [sp, #4]
 472 02c8 1A68     		ldr	r2, [r3]
 473 02ca 019B     		ldr	r3, [sp, #4]
 474 02cc 1B68     		ldr	r3, [r3]
 475 02ce D968     		ldr	r1, [r3, #12]
 476 02d0 464B     		ldr	r3, .L46
 477 02d2 0B40     		ands	r3, r3, r1
 478 02d4 0E99     		ldr	r1, [sp, #56]
 479 02d6 0B43     		orrs	r3, r3, r1
 480 02d8 D360     		str	r3, [r2, #12]
 481              		.loc 1 466 0
 482 02da 019B     		ldr	r3, [sp, #4]
 483 02dc 1B68     		ldr	r3, [r3]
 484 02de 9B68     		ldr	r3, [r3, #8]
 485 02e0 03F00C03 		and	r3, r3, #12
 486 02e4 002B     		cmp	r3, #0
 487 02e6 4FD1     		bne	.L36
 488              		.loc 1 469 0
 489 02e8 019B     		ldr	r3, [sp, #4]
 490 02ea 9A69     		ldr	r2, [r3, #24]
 491 02ec 4FF48043 		mov	r3, #16384
 492 02f0 0693     		str	r3, [sp, #24]
 493              	.LBB68:
 494              	.LBB69:
 495              		.loc 2 586 0
 496 02f2 069B     		ldr	r3, [sp, #24]
 497              	@ 586 "../../../../../../ChibiOS/os/ext/CMSIS/include/core_cmInstr.h" 1
 498 02f4 93FAA3F3 		rbit r3, r3
 499              	@ 0 "" 2
 500              		.thumb
 501 02f8 0593     		str	r3, [sp, #20]
 502              		.loc 2 599 0
 503 02fa 059B     		ldr	r3, [sp, #20]
 504              	.LBE69:
 505              	.LBE68:
 506              		.loc 1 469 0
 507 02fc B3FA83F3 		clz	r3, r3
 508 0300 9A40     		lsls	r2, r2, r3
 509              		.loc 1 470 0
 510 0302 019B     		ldr	r3, [sp, #4]
 511 0304 596B     		ldr	r1, [r3, #52]
 512 0306 0223     		movs	r3, #2
 513 0308 0493     		str	r3, [sp, #16]
ARM GAS  /tmp/ccrsTBIG.s 			page 10


 514              	.LBB70:
 515              	.LBB71:
 516              		.loc 2 586 0
 517 030a 049B     		ldr	r3, [sp, #16]
 518              	@ 586 "../../../../../../ChibiOS/os/ext/CMSIS/include/core_cmInstr.h" 1
 519 030c 93FAA3F3 		rbit r3, r3
 520              	@ 0 "" 2
 521              		.thumb
 522 0310 0393     		str	r3, [sp, #12]
 523              		.loc 2 599 0
 524 0312 039B     		ldr	r3, [sp, #12]
 525              	.LBE71:
 526              	.LBE70:
 527              		.loc 1 470 0
 528 0314 B3FA83F3 		clz	r3, r3
 529 0318 01FA03F3 		lsl	r3, r1, r3
 530              		.loc 1 468 0
 531 031c 1343     		orrs	r3, r3, r2
 532 031e 0E93     		str	r3, [sp, #56]
 533              		.loc 1 472 0
 534 0320 019B     		ldr	r3, [sp, #4]
 535 0322 1A68     		ldr	r2, [r3]
 536 0324 019B     		ldr	r3, [sp, #4]
 537 0326 1B68     		ldr	r3, [r3]
 538 0328 DB68     		ldr	r3, [r3, #12]
 539 032a 23F48043 		bic	r3, r3, #16384
 540 032e 23F00203 		bic	r3, r3, #2
 541 0332 0E99     		ldr	r1, [sp, #56]
 542 0334 0B43     		orrs	r3, r3, r1
 543 0336 D360     		str	r3, [r2, #12]
 544              		.loc 1 475 0
 545 0338 019B     		ldr	r3, [sp, #4]
 546 033a DB6B     		ldr	r3, [r3, #60]
 547 033c 012B     		cmp	r3, #1
 548 033e 1BD1     		bne	.L39
 549              		.loc 1 482 0
 550 0340 019B     		ldr	r3, [sp, #4]
 551 0342 DB6A     		ldr	r3, [r3, #44]
 552 0344 012B     		cmp	r3, #1
 553              		.loc 1 495 0
 554 0346 019B     		ldr	r3, [sp, #4]
 555 0348 1A68     		ldr	r2, [r3]
 556 034a 019B     		ldr	r3, [sp, #4]
 557 034c 1B68     		ldr	r3, [r3]
 558 034e 1B69     		ldr	r3, [r3, #16]
 559 0350 23F4FF63 		bic	r3, r3, #2040
 560 0354 23F00503 		bic	r3, r3, #5
 561 0358 0199     		ldr	r1, [sp, #4]
 562 035a 086C     		ldr	r0, [r1, #64]
 563 035c 0199     		ldr	r1, [sp, #4]
 564 035e 496C     		ldr	r1, [r1, #68]
 565 0360 0843     		orrs	r0, r0, r1
 566 0362 0199     		ldr	r1, [sp, #4]
 567 0364 896C     		ldr	r1, [r1, #72]
 568 0366 0843     		orrs	r0, r0, r1
 569 0368 0199     		ldr	r1, [sp, #4]
 570 036a C96C     		ldr	r1, [r1, #76]
ARM GAS  /tmp/ccrsTBIG.s 			page 11


 571 036c 0143     		orrs	r1, r1, r0
 572 036e 0B43     		orrs	r3, r3, r1
 573 0370 43F00103 		orr	r3, r3, #1
 574 0374 1361     		str	r3, [r2, #16]
 575 0376 07E0     		b	.L36
 576              	.L39:
 577              		.loc 1 505 0
 578 0378 019B     		ldr	r3, [sp, #4]
 579 037a 1B68     		ldr	r3, [r3]
 580 037c 019A     		ldr	r2, [sp, #4]
 581 037e 1268     		ldr	r2, [r2]
 582 0380 1269     		ldr	r2, [r2, #16]
 583 0382 22F00102 		bic	r2, r2, #1
 584 0386 1A61     		str	r2, [r3, #16]
 585              	.L36:
 586              		.loc 1 523 0
 587 0388 019B     		ldr	r3, [sp, #4]
 588 038a 1B69     		ldr	r3, [r3, #16]
 589 038c 012B     		cmp	r3, #1
 590 038e 0CD1     		bne	.L41
 591              		.loc 1 526 0
 592 0390 019B     		ldr	r3, [sp, #4]
 593 0392 1B68     		ldr	r3, [r3]
 594 0394 019A     		ldr	r2, [sp, #4]
 595 0396 1268     		ldr	r2, [r2]
 596 0398 126B     		ldr	r2, [r2, #48]
 597 039a 22F00F01 		bic	r1, r2, #15
 598 039e 019A     		ldr	r2, [sp, #4]
 599 03a0 126A     		ldr	r2, [r2, #32]
 600 03a2 013A     		subs	r2, r2, #1
 601 03a4 0A43     		orrs	r2, r2, r1
 602 03a6 1A63     		str	r2, [r3, #48]
 603 03a8 07E0     		b	.L42
 604              	.L41:
 605              		.loc 1 530 0
 606 03aa 019B     		ldr	r3, [sp, #4]
 607 03ac 1B68     		ldr	r3, [r3]
 608 03ae 019A     		ldr	r2, [sp, #4]
 609 03b0 1268     		ldr	r2, [r2]
 610 03b2 126B     		ldr	r2, [r2, #48]
 611 03b4 22F00F02 		bic	r2, r2, #15
 612 03b8 1A63     		str	r2, [r3, #48]
 613              	.L42:
 614              		.loc 1 536 0
 615 03ba 019B     		ldr	r3, [sp, #4]
 616 03bc 9B6D     		ldr	r3, [r3, #88]
 617 03be 23F00303 		bic	r3, r3, #3
 618 03c2 43F00102 		orr	r2, r3, #1
 619 03c6 019B     		ldr	r3, [sp, #4]
 620 03c8 9A65     		str	r2, [r3, #88]
 621 03ca 08E0     		b	.L43
 622              	.L11:
 623              		.loc 1 541 0
 624 03cc 019B     		ldr	r3, [sp, #4]
 625 03ce 9B6D     		ldr	r3, [r3, #88]
 626 03d0 43F01002 		orr	r2, r3, #16
 627 03d4 019B     		ldr	r3, [sp, #4]
ARM GAS  /tmp/ccrsTBIG.s 			page 12


 628 03d6 9A65     		str	r2, [r3, #88]
 629              		.loc 1 543 0
 630 03d8 0123     		movs	r3, #1
 631 03da 8DF83F30 		strb	r3, [sp, #63]
 632              	.L43:
 633              		.loc 1 548 0
 634 03de 9DF83F30 		ldrb	r3, [sp, #63]	@ zero_extendqisi2
 635              	.L3:
 636              		.loc 1 550 0
 637 03e2 1846     		mov	r0, r3
 638 03e4 11B0     		add	sp, sp, #68
 639              		@ sp needed
 640 03e6 5DF804FB 		ldr	pc, [sp], #4
 641              	.L47:
 642 03ea 00BF     		.align	2
 643              	.L46:
 644 03ec 07C0F0FF 		.word	-999417
 645              		.cfi_endproc
 646              	.LFE125:
 647              		.size	HAL_ADC_Init, .-HAL_ADC_Init
 648              		.align	2
 649              		.p2align 4,,15
 650              		.global	HAL_ADC_DeInit
 651              		.thumb
 652              		.thumb_func
 653              		.type	HAL_ADC_DeInit, %function
 654              	HAL_ADC_DeInit:
 655              	.LFB126:
 656              		.loc 1 564 0
 657              		.cfi_startproc
 658              		@ args = 0, pretend = 0, frame = 8
 659              		@ frame_needed = 0, uses_anonymous_args = 0
 660 03f0 00B5     		push	{lr}
 661              		.cfi_def_cfa_offset 4
 662              		.cfi_offset 14, -4
 663 03f2 83B0     		sub	sp, sp, #12
 664              		.cfi_def_cfa_offset 16
 665 03f4 0190     		str	r0, [sp, #4]
 666              		.loc 1 566 0
 667 03f6 019B     		ldr	r3, [sp, #4]
 668 03f8 002B     		cmp	r3, #0
 669 03fa 01D1     		bne	.L49
 670              		.loc 1 568 0
 671 03fc 0123     		movs	r3, #1
 672 03fe 91E1     		b	.L50
 673              	.L49:
 674              		.loc 1 575 0
 675 0400 019B     		ldr	r3, [sp, #4]
 676 0402 9B6D     		ldr	r3, [r3, #88]
 677 0404 43F00202 		orr	r2, r3, #2
 678 0408 019B     		ldr	r3, [sp, #4]
 679 040a 9A65     		str	r2, [r3, #88]
 680              		.loc 1 580 0
 681 040c 0198     		ldr	r0, [sp, #4]
 682 040e 6C21     		movs	r1, #108
 683 0410 FFF7FEFF 		bl	ADC_ConversionStop
 684              		.loc 1 589 0
ARM GAS  /tmp/ccrsTBIG.s 			page 13


 685 0414 019B     		ldr	r3, [sp, #4]
 686 0416 1B68     		ldr	r3, [r3]
 687 0418 019A     		ldr	r2, [sp, #4]
 688 041a 1268     		ldr	r2, [r2]
 689 041c D268     		ldr	r2, [r2, #12]
 690 041e 42F40012 		orr	r2, r2, #2097152
 691 0422 DA60     		str	r2, [r3, #12]
 692              		.loc 1 594 0
 693 0424 0198     		ldr	r0, [sp, #4]
 694 0426 FFF7FEFF 		bl	ADC_Disable
 695              		.loc 1 599 0
 696 042a 019B     		ldr	r3, [sp, #4]
 697 042c 1A68     		ldr	r2, [r3]
 698 042e 019B     		ldr	r3, [sp, #4]
 699 0430 1B68     		ldr	r3, [r3]
 700 0432 5B68     		ldr	r3, [r3, #4]
 701 0434 23F4FF63 		bic	r3, r3, #2040
 702 0438 23F00703 		bic	r3, r3, #7
 703 043c 5360     		str	r3, [r2, #4]
 704              		.loc 1 606 0
 705 043e 019B     		ldr	r3, [sp, #4]
 706 0440 1B68     		ldr	r3, [r3]
 707 0442 40F2FF72 		movw	r2, #2047
 708 0446 1A60     		str	r2, [r3]
 709              		.loc 1 617 0
 710 0448 019B     		ldr	r3, [sp, #4]
 711 044a 1B68     		ldr	r3, [r3]
 712 044c 019A     		ldr	r2, [sp, #4]
 713 044e 1268     		ldr	r2, [r2]
 714 0450 9268     		ldr	r2, [r2, #8]
 715 0452 22F0A042 		bic	r2, r2, #1342177280
 716 0456 9A60     		str	r2, [r3, #8]
 717              		.loc 1 618 0
 718 0458 019B     		ldr	r3, [sp, #4]
 719 045a 1B68     		ldr	r3, [r3]
 720 045c 019A     		ldr	r2, [sp, #4]
 721 045e 1268     		ldr	r2, [r2]
 722 0460 9268     		ldr	r2, [r2, #8]
 723 0462 42F00052 		orr	r2, r2, #536870912
 724 0466 9A60     		str	r2, [r3, #8]
 725              		.loc 1 621 0
 726 0468 019B     		ldr	r3, [sp, #4]
 727 046a 1A68     		ldr	r2, [r3]
 728 046c 019B     		ldr	r3, [sp, #4]
 729 046e 1B68     		ldr	r3, [r3]
 730 0470 D968     		ldr	r1, [r3, #12]
 731 0472 944B     		ldr	r3, .L71
 732 0474 0B40     		ands	r3, r3, r1
 733 0476 D360     		str	r3, [r2, #12]
 734              		.loc 1 622 0
 735 0478 019B     		ldr	r3, [sp, #4]
 736 047a 1B68     		ldr	r3, [r3]
 737 047c 019A     		ldr	r2, [sp, #4]
 738 047e 1268     		ldr	r2, [r2]
 739 0480 D268     		ldr	r2, [r2, #12]
 740 0482 42F00042 		orr	r2, r2, #-2147483648
 741 0486 DA60     		str	r2, [r3, #12]
ARM GAS  /tmp/ccrsTBIG.s 			page 14


 742              		.loc 1 625 0
 743 0488 019B     		ldr	r3, [sp, #4]
 744 048a 1A68     		ldr	r2, [r3]
 745 048c 019B     		ldr	r3, [sp, #4]
 746 048e 1B68     		ldr	r3, [r3]
 747 0490 1B69     		ldr	r3, [r3, #16]
 748 0492 23F4FF63 		bic	r3, r3, #2040
 749 0496 23F00703 		bic	r3, r3, #7
 750 049a 1361     		str	r3, [r2, #16]
 751              		.loc 1 629 0
 752 049c 019B     		ldr	r3, [sp, #4]
 753 049e 1B68     		ldr	r3, [r3]
 754 04a0 019A     		ldr	r2, [sp, #4]
 755 04a2 1268     		ldr	r2, [r2]
 756 04a4 5269     		ldr	r2, [r2, #20]
 757 04a6 02F04042 		and	r2, r2, #-1073741824
 758 04aa 5A61     		str	r2, [r3, #20]
 759              		.loc 1 632 0
 760 04ac 019B     		ldr	r3, [sp, #4]
 761 04ae 1B68     		ldr	r3, [r3]
 762 04b0 019A     		ldr	r2, [sp, #4]
 763 04b2 1268     		ldr	r2, [r2]
 764 04b4 9269     		ldr	r2, [r2, #24]
 765 04b6 02F07842 		and	r2, r2, #-134217728
 766 04ba 9A61     		str	r2, [r3, #24]
 767              		.loc 1 637 0
 768 04bc 019B     		ldr	r3, [sp, #4]
 769 04be 1B68     		ldr	r3, [r3]
 770 04c0 019A     		ldr	r2, [sp, #4]
 771 04c2 1268     		ldr	r2, [r2]
 772 04c4 126A     		ldr	r2, [r2, #32]
 773 04c6 02F0F022 		and	r2, r2, #-268374016
 774 04ca 1A62     		str	r2, [r3, #32]
 775              		.loc 1 640 0
 776 04cc 019B     		ldr	r3, [sp, #4]
 777 04ce 1B68     		ldr	r3, [r3]
 778 04d0 019A     		ldr	r2, [sp, #4]
 779 04d2 1268     		ldr	r2, [r2]
 780 04d4 526A     		ldr	r2, [r2, #36]
 781 04d6 02F0FF22 		and	r2, r2, #-16711936
 782 04da 5A62     		str	r2, [r3, #36]
 783              		.loc 1 643 0
 784 04dc 019B     		ldr	r3, [sp, #4]
 785 04de 1B68     		ldr	r3, [r3]
 786 04e0 019A     		ldr	r2, [sp, #4]
 787 04e2 1268     		ldr	r2, [r2]
 788 04e4 926A     		ldr	r2, [r2, #40]
 789 04e6 02F0FF22 		and	r2, r2, #-16711936
 790 04ea 9A62     		str	r2, [r3, #40]
 791              		.loc 1 646 0
 792 04ec 019B     		ldr	r3, [sp, #4]
 793 04ee 1A68     		ldr	r2, [r3]
 794 04f0 019B     		ldr	r3, [sp, #4]
 795 04f2 1B68     		ldr	r3, [r3]
 796 04f4 196B     		ldr	r1, [r3, #48]
 797 04f6 744B     		ldr	r3, .L71+4
 798 04f8 0B40     		ands	r3, r3, r1
ARM GAS  /tmp/ccrsTBIG.s 			page 15


 799 04fa 1363     		str	r3, [r2, #48]
 800              		.loc 1 650 0
 801 04fc 019B     		ldr	r3, [sp, #4]
 802 04fe 1A68     		ldr	r2, [r3]
 803 0500 019B     		ldr	r3, [sp, #4]
 804 0502 1B68     		ldr	r3, [r3]
 805 0504 596B     		ldr	r1, [r3, #52]
 806 0506 714B     		ldr	r3, .L71+8
 807 0508 0B40     		ands	r3, r3, r1
 808 050a 5363     		str	r3, [r2, #52]
 809              		.loc 1 654 0
 810 050c 019B     		ldr	r3, [sp, #4]
 811 050e 1A68     		ldr	r2, [r3]
 812 0510 019B     		ldr	r3, [sp, #4]
 813 0512 1B68     		ldr	r3, [r3]
 814 0514 996B     		ldr	r1, [r3, #56]
 815 0516 6D4B     		ldr	r3, .L71+8
 816 0518 0B40     		ands	r3, r3, r1
 817 051a 9363     		str	r3, [r2, #56]
 818              		.loc 1 658 0
 819 051c 019B     		ldr	r3, [sp, #4]
 820 051e 1A68     		ldr	r2, [r3]
 821 0520 019B     		ldr	r3, [sp, #4]
 822 0522 1B68     		ldr	r3, [r3]
 823 0524 DB6B     		ldr	r3, [r3, #60]
 824 0526 23F4FB63 		bic	r3, r3, #2008
 825 052a 23F00703 		bic	r3, r3, #7
 826 052e D363     		str	r3, [r2, #60]
 827              		.loc 1 666 0
 828 0530 019B     		ldr	r3, [sp, #4]
 829 0532 1A68     		ldr	r2, [r3]
 830 0534 019B     		ldr	r3, [sp, #4]
 831 0536 1B68     		ldr	r3, [r3]
 832 0538 196E     		ldr	r1, [r3, #96]
 833 053a 654B     		ldr	r3, .L71+12
 834 053c 0B40     		ands	r3, r3, r1
 835 053e 1366     		str	r3, [r2, #96]
 836              		.loc 1 668 0
 837 0540 019B     		ldr	r3, [sp, #4]
 838 0542 1A68     		ldr	r2, [r3]
 839 0544 019B     		ldr	r3, [sp, #4]
 840 0546 1B68     		ldr	r3, [r3]
 841 0548 596E     		ldr	r1, [r3, #100]
 842 054a 614B     		ldr	r3, .L71+12
 843 054c 0B40     		ands	r3, r3, r1
 844 054e 5366     		str	r3, [r2, #100]
 845              		.loc 1 670 0
 846 0550 019B     		ldr	r3, [sp, #4]
 847 0552 1A68     		ldr	r2, [r3]
 848 0554 019B     		ldr	r3, [sp, #4]
 849 0556 1B68     		ldr	r3, [r3]
 850 0558 996E     		ldr	r1, [r3, #104]
 851 055a 5D4B     		ldr	r3, .L71+12
 852 055c 0B40     		ands	r3, r3, r1
 853 055e 9366     		str	r3, [r2, #104]
 854              		.loc 1 672 0
 855 0560 019B     		ldr	r3, [sp, #4]
ARM GAS  /tmp/ccrsTBIG.s 			page 16


 856 0562 1A68     		ldr	r2, [r3]
 857 0564 019B     		ldr	r3, [sp, #4]
 858 0566 1B68     		ldr	r3, [r3]
 859 0568 D96E     		ldr	r1, [r3, #108]
 860 056a 594B     		ldr	r3, .L71+12
 861 056c 0B40     		ands	r3, r3, r1
 862 056e D366     		str	r3, [r2, #108]
 863              		.loc 1 678 0
 864 0570 019B     		ldr	r3, [sp, #4]
 865 0572 1A68     		ldr	r2, [r3]
 866 0574 019B     		ldr	r3, [sp, #4]
 867 0576 1B68     		ldr	r3, [r3]
 868 0578 D3F8A030 		ldr	r3, [r3, #160]
 869 057c DB0C     		lsrs	r3, r3, #19
 870 057e DB04     		lsls	r3, r3, #19
 871 0580 C2F8A030 		str	r3, [r2, #160]
 872              		.loc 1 681 0
 873 0584 019B     		ldr	r3, [sp, #4]
 874 0586 1A68     		ldr	r2, [r3]
 875 0588 019B     		ldr	r3, [sp, #4]
 876 058a 1B68     		ldr	r3, [r3]
 877 058c D3F8A430 		ldr	r3, [r3, #164]
 878 0590 DB0C     		lsrs	r3, r3, #19
 879 0592 DB04     		lsls	r3, r3, #19
 880 0594 C2F8A430 		str	r3, [r2, #164]
 881              		.loc 1 684 0
 882 0598 019B     		ldr	r3, [sp, #4]
 883 059a 1A68     		ldr	r2, [r3]
 884 059c 019B     		ldr	r3, [sp, #4]
 885 059e 1B68     		ldr	r3, [r3]
 886 05a0 D3F8B030 		ldr	r3, [r3, #176]
 887 05a4 DB0C     		lsrs	r3, r3, #19
 888 05a6 DB04     		lsls	r3, r3, #19
 889 05a8 C2F8B030 		str	r3, [r2, #176]
 890              		.loc 1 687 0
 891 05ac 019B     		ldr	r3, [sp, #4]
 892 05ae 1B68     		ldr	r3, [r3]
 893 05b0 019A     		ldr	r2, [sp, #4]
 894 05b2 1268     		ldr	r2, [r2]
 895 05b4 D2F8B420 		ldr	r2, [r2, #180]
 896 05b8 22F07F12 		bic	r2, r2, #8323199
 897 05bc C3F8B420 		str	r2, [r3, #180]
 898              		.loc 1 698 0
 899 05c0 019B     		ldr	r3, [sp, #4]
 900 05c2 1B68     		ldr	r3, [r3]
 901 05c4 9B68     		ldr	r3, [r3, #8]
 902 05c6 03F00303 		and	r3, r3, #3
 903 05ca 012B     		cmp	r3, #1
 904 05cc 08D1     		bne	.L51
 905              		.loc 1 698 0 is_stmt 0 discriminator 1
 906 05ce 019B     		ldr	r3, [sp, #4]
 907 05d0 1B68     		ldr	r3, [r3]
 908 05d2 1B68     		ldr	r3, [r3]
 909 05d4 03F00103 		and	r3, r3, #1
 910 05d8 002B     		cmp	r3, #0
 911 05da 01D0     		beq	.L51
 912              		.loc 1 698 0 discriminator 3
ARM GAS  /tmp/ccrsTBIG.s 			page 17


 913 05dc 0123     		movs	r3, #1
 914 05de 00E0     		b	.L52
 915              	.L51:
 916              		.loc 1 698 0 discriminator 2
 917 05e0 0023     		movs	r3, #0
 918              	.L52:
 919              		.loc 1 698 0 discriminator 4
 920 05e2 002B     		cmp	r3, #0
 921 05e4 40F08A80 		bne	.L53
 922              		.loc 1 699 0 is_stmt 1
 923 05e8 019B     		ldr	r3, [sp, #4]
 924 05ea 1A68     		ldr	r2, [r3]
 925 05ec 394B     		ldr	r3, .L71+16
 926 05ee 9A42     		cmp	r2, r3
 927 05f0 20D1     		bne	.L54
 928              		.loc 1 699 0 is_stmt 0 discriminator 1
 929 05f2 394B     		ldr	r3, .L71+20
 930 05f4 9B68     		ldr	r3, [r3, #8]
 931 05f6 03F00303 		and	r3, r3, #3
 932 05fa 012B     		cmp	r3, #1
 933 05fc 05D1     		bne	.L55
 934 05fe 364B     		ldr	r3, .L71+20
 935 0600 1B68     		ldr	r3, [r3]
 936 0602 03F00103 		and	r3, r3, #1
 937 0606 002B     		cmp	r3, #0
 938 0608 0BD1     		bne	.L56
 939              	.L55:
 940              		.loc 1 699 0 discriminator 2
 941 060a 344B     		ldr	r3, .L71+24
 942 060c 9B68     		ldr	r3, [r3, #8]
 943 060e 03F00303 		and	r3, r3, #3
 944 0612 012B     		cmp	r3, #1
 945 0614 07D1     		bne	.L57
 946              		.loc 1 699 0 discriminator 4
 947 0616 314B     		ldr	r3, .L71+24
 948 0618 1B68     		ldr	r3, [r3]
 949 061a 03F00103 		and	r3, r3, #1
 950 061e 002B     		cmp	r3, #0
 951 0620 01D0     		beq	.L57
 952              	.L56:
 953              		.loc 1 699 0 discriminator 3
 954 0622 0123     		movs	r3, #1
 955 0624 00E0     		b	.L58
 956              	.L57:
 957              		.loc 1 699 0 discriminator 5
 958 0626 0023     		movs	r3, #0
 959              	.L58:
 960              		.loc 1 699 0 discriminator 6
 961 0628 002B     		cmp	r3, #0
 962 062a 14BF     		ite	ne
 963 062c 0023     		movne	r3, #0
 964 062e 0123     		moveq	r3, #1
 965 0630 DBB2     		uxtb	r3, r3
 966 0632 5BE0     		b	.L59
 967              	.L54:
 968              		.loc 1 699 0 discriminator 2
 969 0634 019B     		ldr	r3, [sp, #4]
ARM GAS  /tmp/ccrsTBIG.s 			page 18


 970 0636 1A68     		ldr	r2, [r3]
 971 0638 274B     		ldr	r3, .L71+20
 972 063a 9A42     		cmp	r2, r3
 973 063c 20D1     		bne	.L60
 974              		.loc 1 699 0 discriminator 1
 975 063e 254B     		ldr	r3, .L71+16
 976 0640 9B68     		ldr	r3, [r3, #8]
 977 0642 03F00303 		and	r3, r3, #3
 978 0646 012B     		cmp	r3, #1
 979 0648 05D1     		bne	.L61
 980 064a 224B     		ldr	r3, .L71+16
 981 064c 1B68     		ldr	r3, [r3]
 982 064e 03F00103 		and	r3, r3, #1
 983 0652 002B     		cmp	r3, #0
 984 0654 0BD1     		bne	.L62
 985              	.L61:
 986              		.loc 1 699 0 discriminator 2
 987 0656 214B     		ldr	r3, .L71+24
 988 0658 9B68     		ldr	r3, [r3, #8]
 989 065a 03F00303 		and	r3, r3, #3
 990 065e 012B     		cmp	r3, #1
 991 0660 07D1     		bne	.L63
 992              		.loc 1 699 0 discriminator 4
 993 0662 1E4B     		ldr	r3, .L71+24
 994 0664 1B68     		ldr	r3, [r3]
 995 0666 03F00103 		and	r3, r3, #1
 996 066a 002B     		cmp	r3, #0
 997 066c 01D0     		beq	.L63
 998              	.L62:
 999              		.loc 1 699 0 discriminator 3
 1000 066e 0123     		movs	r3, #1
 1001 0670 00E0     		b	.L64
 1002              	.L63:
 1003              		.loc 1 699 0 discriminator 5
 1004 0672 0023     		movs	r3, #0
 1005              	.L64:
 1006              		.loc 1 699 0 discriminator 6
 1007 0674 03F00103 		and	r3, r3, #1
 1008 0678 DBB2     		uxtb	r3, r3
 1009 067a 002B     		cmp	r3, #0
 1010 067c 20D1     		bne	.L65
 1011 067e 13E0     		b	.L66
 1012              	.L60:
 1013              		.loc 1 699 0 discriminator 2
 1014 0680 144B     		ldr	r3, .L71+16
 1015 0682 9B68     		ldr	r3, [r3, #8]
 1016 0684 03F00303 		and	r3, r3, #3
 1017 0688 012B     		cmp	r3, #1
 1018 068a 07D1     		bne	.L67
 1019              		.loc 1 699 0 discriminator 4
 1020 068c 114B     		ldr	r3, .L71+16
 1021 068e 1B68     		ldr	r3, [r3]
 1022 0690 03F00103 		and	r3, r3, #1
 1023 0694 002B     		cmp	r3, #0
 1024 0696 01D0     		beq	.L67
 1025              		.loc 1 699 0 discriminator 6
 1026 0698 0123     		movs	r3, #1
ARM GAS  /tmp/ccrsTBIG.s 			page 19


 1027 069a 00E0     		b	.L68
 1028              	.L67:
 1029              		.loc 1 699 0 discriminator 5
 1030 069c 0023     		movs	r3, #0
 1031              	.L68:
 1032              		.loc 1 699 0 discriminator 7
 1033 069e 03F00103 		and	r3, r3, #1
 1034 06a2 DBB2     		uxtb	r3, r3
 1035 06a4 002B     		cmp	r3, #0
 1036 06a6 0BD1     		bne	.L65
 1037              	.L66:
 1038              		.loc 1 699 0 discriminator 8
 1039 06a8 0B4B     		ldr	r3, .L71+20
 1040 06aa 9B68     		ldr	r3, [r3, #8]
 1041 06ac 03F00303 		and	r3, r3, #3
 1042 06b0 012B     		cmp	r3, #1
 1043 06b2 15D1     		bne	.L69
 1044              		.loc 1 699 0 discriminator 9
 1045 06b4 084B     		ldr	r3, .L71+20
 1046 06b6 1B68     		ldr	r3, [r3]
 1047 06b8 03F00103 		and	r3, r3, #1
 1048 06bc 002B     		cmp	r3, #0
 1049 06be 0FD0     		beq	.L69
 1050              	.L65:
 1051              		.loc 1 699 0 discriminator 3
 1052 06c0 0123     		movs	r3, #1
 1053 06c2 0EE0     		b	.L70
 1054              	.L72:
 1055              		.align	2
 1056              	.L71:
 1057 06c4 04800080 		.word	-2147450876
 1058 06c8 300882E0 		.word	-528349136
 1059 06cc 200882E0 		.word	-528349152
 1060 06d0 00F0FF03 		.word	67104768
 1061 06d4 00000450 		.word	1342439424
 1062 06d8 00010450 		.word	1342439680
 1063 06dc 00020450 		.word	1342439936
 1064              	.L69:
 1065              		.loc 1 699 0 discriminator 10
 1066 06e0 0023     		movs	r3, #0
 1067              	.L70:
 1068              		.loc 1 699 0 discriminator 11
 1069 06e2 002B     		cmp	r3, #0
 1070 06e4 14BF     		ite	ne
 1071 06e6 0023     		movne	r3, #0
 1072 06e8 0123     		moveq	r3, #1
 1073 06ea DBB2     		uxtb	r3, r3
 1074              	.L59:
 1075              		.loc 1 698 0 is_stmt 1
 1076 06ec 002B     		cmp	r3, #0
 1077 06ee 05D0     		beq	.L53
 1078              		.loc 1 708 0
 1079 06f0 0E4A     		ldr	r2, .L73
 1080 06f2 0E4B     		ldr	r3, .L73
 1081 06f4 9968     		ldr	r1, [r3, #8]
 1082 06f6 0E4B     		ldr	r3, .L73+4
 1083 06f8 0B40     		ands	r3, r3, r1
ARM GAS  /tmp/ccrsTBIG.s 			page 20


 1084 06fa 9360     		str	r3, [r2, #8]
 1085              	.L53:
 1086              		.loc 1 722 0
 1087 06fc 0198     		ldr	r0, [sp, #4]
 1088 06fe FFF7FEFF 		bl	HAL_ADC_MspDeInit
 1089              		.loc 1 725 0
 1090 0702 019B     		ldr	r3, [sp, #4]
 1091 0704 0022     		movs	r2, #0
 1092 0706 DA65     		str	r2, [r3, #92]
 1093              		.loc 1 728 0
 1094 0708 019B     		ldr	r3, [sp, #4]
 1095 070a 0022     		movs	r2, #0
 1096 070c 1A66     		str	r2, [r3, #96]
 1097              		.loc 1 729 0
 1098 070e 019B     		ldr	r3, [sp, #4]
 1099 0710 0022     		movs	r2, #0
 1100 0712 5A66     		str	r2, [r3, #100]
 1101              		.loc 1 732 0
 1102 0714 019B     		ldr	r3, [sp, #4]
 1103 0716 0022     		movs	r2, #0
 1104 0718 9A65     		str	r2, [r3, #88]
 1105              		.loc 1 735 0
 1106 071a 019B     		ldr	r3, [sp, #4]
 1107 071c 0022     		movs	r2, #0
 1108 071e 83F85420 		strb	r2, [r3, #84]
 1109              		.loc 1 739 0
 1110 0722 0023     		movs	r3, #0
 1111              	.L50:
 1112              		.loc 1 741 0
 1113 0724 1846     		mov	r0, r3
 1114 0726 03B0     		add	sp, sp, #12
 1115              		@ sp needed
 1116 0728 5DF804FB 		ldr	pc, [sp], #4
 1117              	.L74:
 1118              		.align	2
 1119              	.L73:
 1120 072c 00030450 		.word	1342440192
 1121 0730 E01000FE 		.word	-33550112
 1122              		.cfi_endproc
 1123              	.LFE126:
 1124              		.size	HAL_ADC_DeInit, .-HAL_ADC_DeInit
 1125              		.align	2
 1126 0734 AFF30080 		.p2align 4,,15
 1126      AFF30080 
 1126      AFF30080 
 1127              		.weak	HAL_ADC_MspInit
 1128              		.thumb
 1129              		.thumb_func
 1130              		.type	HAL_ADC_MspInit, %function
 1131              	HAL_ADC_MspInit:
 1132              	.LFB127:
 1133              		.loc 1 749 0
 1134              		.cfi_startproc
 1135              		@ args = 0, pretend = 0, frame = 8
 1136              		@ frame_needed = 0, uses_anonymous_args = 0
 1137              		@ link register save eliminated.
 1138 0740 82B0     		sub	sp, sp, #8
ARM GAS  /tmp/ccrsTBIG.s 			page 21


 1139              		.cfi_def_cfa_offset 8
 1140 0742 0190     		str	r0, [sp, #4]
 1141              		.loc 1 756 0
 1142 0744 02B0     		add	sp, sp, #8
 1143              		@ sp needed
 1144 0746 7047     		bx	lr
 1145              		.cfi_endproc
 1146              	.LFE127:
 1147              		.size	HAL_ADC_MspInit, .-HAL_ADC_MspInit
 1148              		.align	2
 1149 0748 AFF30080 		.p2align 4,,15
 1149      AFF30080 
 1150              		.weak	HAL_ADC_MspDeInit
 1151              		.thumb
 1152              		.thumb_func
 1153              		.type	HAL_ADC_MspDeInit, %function
 1154              	HAL_ADC_MspDeInit:
 1155              	.LFB128:
 1156              		.loc 1 765 0
 1157              		.cfi_startproc
 1158              		@ args = 0, pretend = 0, frame = 8
 1159              		@ frame_needed = 0, uses_anonymous_args = 0
 1160              		@ link register save eliminated.
 1161 0750 82B0     		sub	sp, sp, #8
 1162              		.cfi_def_cfa_offset 8
 1163 0752 0190     		str	r0, [sp, #4]
 1164              		.loc 1 772 0
 1165 0754 02B0     		add	sp, sp, #8
 1166              		@ sp needed
 1167 0756 7047     		bx	lr
 1168              		.cfi_endproc
 1169              	.LFE128:
 1170              		.size	HAL_ADC_MspDeInit, .-HAL_ADC_MspDeInit
 1171              		.align	2
 1172 0758 AFF30080 		.p2align 4,,15
 1172      AFF30080 
 1173              		.global	HAL_ADC_Start
 1174              		.thumb
 1175              		.thumb_func
 1176              		.type	HAL_ADC_Start, %function
 1177              	HAL_ADC_Start:
 1178              	.LFB129:
 1179              		.loc 1 811 0
 1180              		.cfi_startproc
 1181              		@ args = 0, pretend = 0, frame = 16
 1182              		@ frame_needed = 0, uses_anonymous_args = 0
 1183 0760 00B5     		push	{lr}
 1184              		.cfi_def_cfa_offset 4
 1185              		.cfi_offset 14, -4
 1186 0762 85B0     		sub	sp, sp, #20
 1187              		.cfi_def_cfa_offset 24
 1188 0764 0190     		str	r0, [sp, #4]
 1189              		.loc 1 813 0
 1190 0766 0023     		movs	r3, #0
 1191 0768 8DF80F30 		strb	r3, [sp, #15]
 1192              		.loc 1 821 0
 1193 076c 019B     		ldr	r3, [sp, #4]
ARM GAS  /tmp/ccrsTBIG.s 			page 22


 1194 076e 1B68     		ldr	r3, [r3]
 1195 0770 9B68     		ldr	r3, [r3, #8]
 1196 0772 03F00403 		and	r3, r3, #4
 1197 0776 002B     		cmp	r3, #0
 1198 0778 01D0     		beq	.L78
 1199              		.loc 1 823 0
 1200 077a 0223     		movs	r3, #2
 1201 077c AFE0     		b	.L79
 1202              	.L78:
 1203              		.loc 1 828 0
 1204 077e 019B     		ldr	r3, [sp, #4]
 1205 0780 93F85430 		ldrb	r3, [r3, #84]	@ zero_extendqisi2
 1206 0784 012B     		cmp	r3, #1
 1207 0786 01D1     		bne	.L80
 1208              		.loc 1 828 0 is_stmt 0 discriminator 1
 1209 0788 0223     		movs	r3, #2
 1210 078a A8E0     		b	.L79
 1211              	.L80:
 1212              		.loc 1 828 0 discriminator 2
 1213 078c 019B     		ldr	r3, [sp, #4]
 1214 078e 0122     		movs	r2, #1
 1215 0790 83F85420 		strb	r2, [r3, #84]
 1216              		.loc 1 831 0 is_stmt 1 discriminator 2
 1217 0794 0198     		ldr	r0, [sp, #4]
 1218 0796 FFF7FEFF 		bl	ADC_Enable
 1219 079a 0346     		mov	r3, r0
 1220 079c 8DF80F30 		strb	r3, [sp, #15]
 1221              		.loc 1 834 0 discriminator 2
 1222 07a0 9DF80F30 		ldrb	r3, [sp, #15]	@ zero_extendqisi2
 1223 07a4 002B     		cmp	r3, #0
 1224 07a6 40F09480 		bne	.L81
 1225              		.loc 1 837 0
 1226 07aa 019B     		ldr	r3, [sp, #4]
 1227 07ac 9B6D     		ldr	r3, [r3, #88]
 1228 07ae 03F48053 		and	r3, r3, #4096
 1229 07b2 002B     		cmp	r3, #0
 1230 07b4 06D0     		beq	.L82
 1231              		.loc 1 840 0
 1232 07b6 019B     		ldr	r3, [sp, #4]
 1233 07b8 DB6D     		ldr	r3, [r3, #92]
 1234 07ba 23F00602 		bic	r2, r3, #6
 1235 07be 019B     		ldr	r3, [sp, #4]
 1236 07c0 DA65     		str	r2, [r3, #92]
 1237 07c2 02E0     		b	.L83
 1238              	.L82:
 1239              		.loc 1 845 0
 1240 07c4 019B     		ldr	r3, [sp, #4]
 1241 07c6 0022     		movs	r2, #0
 1242 07c8 DA65     		str	r2, [r3, #92]
 1243              	.L83:
 1244              		.loc 1 848 0
 1245 07ca 019B     		ldr	r3, [sp, #4]
 1246 07cc 9B6D     		ldr	r3, [r3, #88]
 1247 07ce 23F47063 		bic	r3, r3, #3840
 1248 07d2 23F00103 		bic	r3, r3, #1
 1249 07d6 43F48072 		orr	r2, r3, #256
 1250 07da 019B     		ldr	r3, [sp, #4]
ARM GAS  /tmp/ccrsTBIG.s 			page 23


 1251 07dc 9A65     		str	r2, [r3, #88]
 1252              		.loc 1 853 0
 1253 07de 019B     		ldr	r3, [sp, #4]
 1254 07e0 1A68     		ldr	r2, [r3]
 1255 07e2 414B     		ldr	r3, .L95
 1256 07e4 9A42     		cmp	r2, r3
 1257 07e6 0AD0     		beq	.L84
 1258              		.loc 1 853 0 is_stmt 0 discriminator 1
 1259 07e8 019B     		ldr	r3, [sp, #4]
 1260 07ea 1A68     		ldr	r2, [r3]
 1261 07ec 3F4B     		ldr	r3, .L95+4
 1262 07ee 9A42     		cmp	r2, r3
 1263 07f0 05D0     		beq	.L84
 1264 07f2 3F4B     		ldr	r3, .L95+8
 1265 07f4 9B68     		ldr	r3, [r3, #8]
 1266 07f6 03F01F03 		and	r3, r3, #31
 1267 07fa 002B     		cmp	r3, #0
 1268 07fc 05D1     		bne	.L85
 1269              	.L84:
 1270              		.loc 1 855 0 is_stmt 1
 1271 07fe 019B     		ldr	r3, [sp, #4]
 1272 0800 9B6D     		ldr	r3, [r3, #88]
 1273 0802 23F48012 		bic	r2, r3, #1048576
 1274 0806 019B     		ldr	r3, [sp, #4]
 1275 0808 9A65     		str	r2, [r3, #88]
 1276              	.L85:
 1277              		.loc 1 860 0
 1278 080a 019B     		ldr	r3, [sp, #4]
 1279 080c 1B68     		ldr	r3, [r3]
 1280 080e 1C22     		movs	r2, #28
 1281 0810 1A60     		str	r2, [r3]
 1282              		.loc 1 870 0
 1283 0812 019B     		ldr	r3, [sp, #4]
 1284 0814 1A68     		ldr	r2, [r3]
 1285 0816 344B     		ldr	r3, .L95
 1286 0818 9A42     		cmp	r2, r3
 1287 081a 16D0     		beq	.L86
 1288              		.loc 1 870 0 is_stmt 0 discriminator 1
 1289 081c 019B     		ldr	r3, [sp, #4]
 1290 081e 1A68     		ldr	r2, [r3]
 1291 0820 324B     		ldr	r3, .L95+4
 1292 0822 9A42     		cmp	r2, r3
 1293 0824 11D0     		beq	.L86
 1294 0826 324B     		ldr	r3, .L95+8
 1295 0828 9B68     		ldr	r3, [r3, #8]
 1296 082a 03F01F03 		and	r3, r3, #31
 1297 082e 002B     		cmp	r3, #0
 1298 0830 0BD0     		beq	.L86
 1299 0832 2F4B     		ldr	r3, .L95+8
 1300 0834 9B68     		ldr	r3, [r3, #8]
 1301 0836 03F01F03 		and	r3, r3, #31
 1302 083a 052B     		cmp	r3, #5
 1303 083c 05D0     		beq	.L86
 1304 083e 2C4B     		ldr	r3, .L95+8
 1305 0840 9B68     		ldr	r3, [r3, #8]
 1306 0842 03F01F03 		and	r3, r3, #31
 1307 0846 092B     		cmp	r3, #9
ARM GAS  /tmp/ccrsTBIG.s 			page 24


 1308 0848 1BD1     		bne	.L87
 1309              	.L86:
 1310              		.loc 1 875 0 is_stmt 1
 1311 084a 019B     		ldr	r3, [sp, #4]
 1312 084c 1B68     		ldr	r3, [r3]
 1313 084e DB68     		ldr	r3, [r3, #12]
 1314 0850 03F00073 		and	r3, r3, #33554432
 1315 0854 002B     		cmp	r3, #0
 1316 0856 07D0     		beq	.L88
 1317              		.loc 1 877 0
 1318 0858 019B     		ldr	r3, [sp, #4]
 1319 085a 9B6D     		ldr	r3, [r3, #88]
 1320 085c 23F44053 		bic	r3, r3, #12288
 1321 0860 43F48052 		orr	r2, r3, #4096
 1322 0864 019B     		ldr	r3, [sp, #4]
 1323 0866 9A65     		str	r2, [r3, #88]
 1324              	.L88:
 1325              		.loc 1 880 0
 1326 0868 019B     		ldr	r3, [sp, #4]
 1327 086a 0022     		movs	r2, #0
 1328 086c 83F85420 		strb	r2, [r3, #84]
 1329              		.loc 1 882 0
 1330 0870 019B     		ldr	r3, [sp, #4]
 1331 0872 1B68     		ldr	r3, [r3]
 1332 0874 019A     		ldr	r2, [sp, #4]
 1333 0876 1268     		ldr	r2, [r2]
 1334 0878 9268     		ldr	r2, [r2, #8]
 1335 087a 42F00402 		orr	r2, r2, #4
 1336 087e 9A60     		str	r2, [r3, #8]
 1337 0880 2BE0     		b	.L94
 1338              	.L87:
 1339              		.loc 1 886 0
 1340 0882 019B     		ldr	r3, [sp, #4]
 1341 0884 9B6D     		ldr	r3, [r3, #88]
 1342 0886 43F48012 		orr	r2, r3, #1048576
 1343 088a 019B     		ldr	r3, [sp, #4]
 1344 088c 9A65     		str	r2, [r3, #88]
 1345              		.loc 1 889 0
 1346 088e 019B     		ldr	r3, [sp, #4]
 1347 0890 1A68     		ldr	r2, [r3]
 1348 0892 154B     		ldr	r3, .L95
 1349 0894 9A42     		cmp	r2, r3
 1350 0896 04D0     		beq	.L90
 1351              		.loc 1 889 0 is_stmt 0 discriminator 2
 1352 0898 019B     		ldr	r3, [sp, #4]
 1353 089a 1A68     		ldr	r2, [r3]
 1354 089c 134B     		ldr	r3, .L95+4
 1355 089e 9A42     		cmp	r2, r3
 1356 08a0 02D1     		bne	.L91
 1357              	.L90:
 1358              		.loc 1 889 0 discriminator 1
 1359 08a2 019B     		ldr	r3, [sp, #4]
 1360 08a4 1B68     		ldr	r3, [r3]
 1361 08a6 00E0     		b	.L92
 1362              	.L91:
 1363 08a8 0F4B     		ldr	r3, .L95
 1364              	.L92:
ARM GAS  /tmp/ccrsTBIG.s 			page 25


 1365              		.loc 1 889 0 discriminator 3
 1366 08aa 0293     		str	r3, [sp, #8]
 1367              		.loc 1 890 0 is_stmt 1 discriminator 3
 1368 08ac 029B     		ldr	r3, [sp, #8]
 1369 08ae DB68     		ldr	r3, [r3, #12]
 1370 08b0 03F00073 		and	r3, r3, #33554432
 1371 08b4 002B     		cmp	r3, #0
 1372 08b6 07D0     		beq	.L93
 1373              		.loc 1 892 0
 1374 08b8 019B     		ldr	r3, [sp, #4]
 1375 08ba 9B6D     		ldr	r3, [r3, #88]
 1376 08bc 23F44053 		bic	r3, r3, #12288
 1377 08c0 43F48052 		orr	r2, r3, #4096
 1378 08c4 019B     		ldr	r3, [sp, #4]
 1379 08c6 9A65     		str	r2, [r3, #88]
 1380              	.L93:
 1381              		.loc 1 896 0
 1382 08c8 019B     		ldr	r3, [sp, #4]
 1383 08ca 0022     		movs	r2, #0
 1384 08cc 83F85420 		strb	r2, [r3, #84]
 1385 08d0 03E0     		b	.L94
 1386              	.L81:
 1387              		.loc 1 902 0
 1388 08d2 019B     		ldr	r3, [sp, #4]
 1389 08d4 0022     		movs	r2, #0
 1390 08d6 83F85420 		strb	r2, [r3, #84]
 1391              	.L94:
 1392              		.loc 1 906 0
 1393 08da 9DF80F30 		ldrb	r3, [sp, #15]	@ zero_extendqisi2
 1394              	.L79:
 1395              		.loc 1 908 0
 1396 08de 1846     		mov	r0, r3
 1397 08e0 05B0     		add	sp, sp, #20
 1398              		@ sp needed
 1399 08e2 5DF804FB 		ldr	pc, [sp], #4
 1400              	.L96:
 1401 08e6 00BF     		.align	2
 1402              	.L95:
 1403 08e8 00000450 		.word	1342439424
 1404 08ec 00020450 		.word	1342439936
 1405 08f0 00030450 		.word	1342440192
 1406              		.cfi_endproc
 1407              	.LFE129:
 1408              		.size	HAL_ADC_Start, .-HAL_ADC_Start
 1409              		.align	2
 1410 08f4 AFF30080 		.p2align 4,,15
 1410      AFF30080 
 1410      AFF30080 
 1411              		.global	HAL_ADC_Stop
 1412              		.thumb
 1413              		.thumb_func
 1414              		.type	HAL_ADC_Stop, %function
 1415              	HAL_ADC_Stop:
 1416              	.LFB130:
 1417              		.loc 1 916 0
 1418              		.cfi_startproc
 1419              		@ args = 0, pretend = 0, frame = 16
ARM GAS  /tmp/ccrsTBIG.s 			page 26


 1420              		@ frame_needed = 0, uses_anonymous_args = 0
 1421 0900 00B5     		push	{lr}
 1422              		.cfi_def_cfa_offset 4
 1423              		.cfi_offset 14, -4
 1424 0902 85B0     		sub	sp, sp, #20
 1425              		.cfi_def_cfa_offset 24
 1426 0904 0190     		str	r0, [sp, #4]
 1427              		.loc 1 917 0
 1428 0906 0023     		movs	r3, #0
 1429 0908 8DF80F30 		strb	r3, [sp, #15]
 1430              		.loc 1 923 0
 1431 090c 019B     		ldr	r3, [sp, #4]
 1432 090e 93F85430 		ldrb	r3, [r3, #84]	@ zero_extendqisi2
 1433 0912 012B     		cmp	r3, #1
 1434 0914 01D1     		bne	.L98
 1435              		.loc 1 923 0 is_stmt 0 discriminator 1
 1436 0916 0223     		movs	r3, #2
 1437 0918 28E0     		b	.L99
 1438              	.L98:
 1439              		.loc 1 923 0 discriminator 2
 1440 091a 019B     		ldr	r3, [sp, #4]
 1441 091c 0122     		movs	r2, #1
 1442 091e 83F85420 		strb	r2, [r3, #84]
 1443              		.loc 1 926 0 is_stmt 1 discriminator 2
 1444 0922 0198     		ldr	r0, [sp, #4]
 1445 0924 6C21     		movs	r1, #108
 1446 0926 FFF7FEFF 		bl	ADC_ConversionStop
 1447 092a 0346     		mov	r3, r0
 1448 092c 8DF80F30 		strb	r3, [sp, #15]
 1449              		.loc 1 929 0 discriminator 2
 1450 0930 9DF80F30 		ldrb	r3, [sp, #15]	@ zero_extendqisi2
 1451 0934 002B     		cmp	r3, #0
 1452 0936 13D1     		bne	.L100
 1453              		.loc 1 932 0
 1454 0938 0198     		ldr	r0, [sp, #4]
 1455 093a FFF7FEFF 		bl	ADC_Disable
 1456 093e 0346     		mov	r3, r0
 1457 0940 8DF80F30 		strb	r3, [sp, #15]
 1458              		.loc 1 935 0
 1459 0944 9DF80F30 		ldrb	r3, [sp, #15]	@ zero_extendqisi2
 1460 0948 002B     		cmp	r3, #0
 1461 094a 09D1     		bne	.L100
 1462              		.loc 1 939 0
 1463 094c 019B     		ldr	r3, [sp, #4]
 1464 094e 9B6D     		ldr	r3, [r3, #88]
 1465 0950 23F48853 		bic	r3, r3, #4352
 1466 0954 23F00103 		bic	r3, r3, #1
 1467 0958 43F00102 		orr	r2, r3, #1
 1468 095c 019B     		ldr	r3, [sp, #4]
 1469 095e 9A65     		str	r2, [r3, #88]
 1470              	.L100:
 1471              		.loc 1 944 0
 1472 0960 019B     		ldr	r3, [sp, #4]
 1473 0962 0022     		movs	r2, #0
 1474 0964 83F85420 		strb	r2, [r3, #84]
 1475              		.loc 1 947 0
 1476 0968 9DF80F30 		ldrb	r3, [sp, #15]	@ zero_extendqisi2
ARM GAS  /tmp/ccrsTBIG.s 			page 27


 1477              	.L99:
 1478              		.loc 1 948 0
 1479 096c 1846     		mov	r0, r3
 1480 096e 05B0     		add	sp, sp, #20
 1481              		@ sp needed
 1482 0970 5DF804FB 		ldr	pc, [sp], #4
 1483              		.cfi_endproc
 1484              	.LFE130:
 1485              		.size	HAL_ADC_Stop, .-HAL_ADC_Stop
 1486              		.align	2
 1487 0974 AFF30080 		.p2align 4,,15
 1487      AFF30080 
 1487      AFF30080 
 1488              		.global	HAL_ADC_PollForConversion
 1489              		.thumb
 1490              		.thumb_func
 1491              		.type	HAL_ADC_PollForConversion, %function
 1492              	HAL_ADC_PollForConversion:
 1493              	.LFB131:
 1494              		.loc 1 966 0
 1495              		.cfi_startproc
 1496              		@ args = 0, pretend = 0, frame = 32
 1497              		@ frame_needed = 0, uses_anonymous_args = 0
 1498 0980 00B5     		push	{lr}
 1499              		.cfi_def_cfa_offset 4
 1500              		.cfi_offset 14, -4
 1501 0982 89B0     		sub	sp, sp, #36
 1502              		.cfi_def_cfa_offset 40
 1503 0984 0190     		str	r0, [sp, #4]
 1504 0986 0091     		str	r1, [sp]
 1505              		.loc 1 968 0
 1506 0988 0023     		movs	r3, #0
 1507 098a 0793     		str	r3, [sp, #28]
 1508              		.loc 1 970 0
 1509 098c 0023     		movs	r3, #0
 1510 098e 0693     		str	r3, [sp, #24]
 1511              		.loc 1 971 0
 1512 0990 0123     		movs	r3, #1
 1513 0992 0593     		str	r3, [sp, #20]
 1514              		.loc 1 979 0
 1515 0994 019B     		ldr	r3, [sp, #4]
 1516 0996 5B69     		ldr	r3, [r3, #20]
 1517 0998 082B     		cmp	r3, #8
 1518 099a 02D1     		bne	.L102
 1519              		.loc 1 981 0
 1520 099c 0823     		movs	r3, #8
 1521 099e 0793     		str	r3, [sp, #28]
 1522 09a0 47E0     		b	.L103
 1523              	.L102:
 1524              		.loc 1 989 0
 1525 09a2 019B     		ldr	r3, [sp, #4]
 1526 09a4 1A68     		ldr	r2, [r3]
 1527 09a6 704B     		ldr	r3, .L124
 1528 09a8 9A42     		cmp	r2, r3
 1529 09aa 04D0     		beq	.L104
 1530              		.loc 1 989 0 is_stmt 0 discriminator 2
 1531 09ac 019B     		ldr	r3, [sp, #4]
ARM GAS  /tmp/ccrsTBIG.s 			page 28


 1532 09ae 1A68     		ldr	r2, [r3]
 1533 09b0 6E4B     		ldr	r3, .L124+4
 1534 09b2 9A42     		cmp	r2, r3
 1535 09b4 13D1     		bne	.L105
 1536              	.L104:
 1537              		.loc 1 989 0 discriminator 1
 1538 09b6 6E4B     		ldr	r3, .L124+8
 1539 09b8 9B68     		ldr	r3, [r3, #8]
 1540 09ba 03F01F03 		and	r3, r3, #31
 1541 09be 002B     		cmp	r3, #0
 1542 09c0 0DD0     		beq	.L105
 1543              		.loc 1 989 0 discriminator 3
 1544 09c2 6B4B     		ldr	r3, .L124+8
 1545 09c4 9B68     		ldr	r3, [r3, #8]
 1546 09c6 03F01F03 		and	r3, r3, #31
 1547 09ca 052B     		cmp	r3, #5
 1548 09cc 07D0     		beq	.L105
 1549              		.loc 1 989 0 discriminator 1
 1550 09ce 684B     		ldr	r3, .L124+8
 1551 09d0 9B68     		ldr	r3, [r3, #8]
 1552 09d2 03F01F03 		and	r3, r3, #31
 1553 09d6 092B     		cmp	r3, #9
 1554 09d8 01D0     		beq	.L105
 1555 09da 0123     		movs	r3, #1
 1556 09dc 00E0     		b	.L106
 1557              	.L105:
 1558 09de 0023     		movs	r3, #0
 1559              	.L106:
 1560              		.loc 1 989 0 discriminator 4
 1561 09e0 002B     		cmp	r3, #0
 1562 09e2 0ED1     		bne	.L107
 1563              		.loc 1 992 0 is_stmt 1
 1564 09e4 019B     		ldr	r3, [sp, #4]
 1565 09e6 1B68     		ldr	r3, [r3]
 1566 09e8 DB68     		ldr	r3, [r3, #12]
 1567 09ea 03F00103 		and	r3, r3, #1
 1568 09ee 002B     		cmp	r3, #0
 1569 09f0 1DD0     		beq	.L108
 1570              		.loc 1 994 0
 1571 09f2 019B     		ldr	r3, [sp, #4]
 1572 09f4 9B6D     		ldr	r3, [r3, #88]
 1573 09f6 43F02002 		orr	r2, r3, #32
 1574 09fa 019B     		ldr	r3, [sp, #4]
 1575 09fc 9A65     		str	r2, [r3, #88]
 1576              		.loc 1 995 0
 1577 09fe 0123     		movs	r3, #1
 1578 0a00 AEE0     		b	.L109
 1579              	.L107:
 1580              		.loc 1 1001 0
 1581 0a02 5B4B     		ldr	r3, .L124+8
 1582 0a04 9B68     		ldr	r3, [r3, #8]
 1583 0a06 03F44043 		and	r3, r3, #49152
 1584 0a0a B3F5004F 		cmp	r3, #32768
 1585 0a0e 06D0     		beq	.L110
 1586              		.loc 1 1001 0 is_stmt 0 discriminator 1
 1587 0a10 574B     		ldr	r3, .L124+8
 1588 0a12 9B68     		ldr	r3, [r3, #8]
ARM GAS  /tmp/ccrsTBIG.s 			page 29


 1589 0a14 03F44043 		and	r3, r3, #49152
 1590 0a18 B3F5404F 		cmp	r3, #49152
 1591 0a1c 07D1     		bne	.L108
 1592              	.L110:
 1593              		.loc 1 1003 0 is_stmt 1
 1594 0a1e 019B     		ldr	r3, [sp, #4]
 1595 0a20 9B6D     		ldr	r3, [r3, #88]
 1596 0a22 43F02002 		orr	r2, r3, #32
 1597 0a26 019B     		ldr	r3, [sp, #4]
 1598 0a28 9A65     		str	r2, [r3, #88]
 1599              		.loc 1 1004 0
 1600 0a2a 0123     		movs	r3, #1
 1601 0a2c 98E0     		b	.L109
 1602              	.L108:
 1603              		.loc 1 1009 0
 1604 0a2e 0423     		movs	r3, #4
 1605 0a30 0793     		str	r3, [sp, #28]
 1606              	.L103:
 1607              		.loc 1 1013 0
 1608 0a32 FFF7FEFF 		bl	HAL_GetTick
 1609 0a36 0490     		str	r0, [sp, #16]
 1610              		.loc 1 1016 0
 1611 0a38 16E0     		b	.L111
 1612              	.L113:
 1613              		.loc 1 1019 0
 1614 0a3a 009B     		ldr	r3, [sp]
 1615 0a3c B3F1FF3F 		cmp	r3, #-1
 1616 0a40 12D0     		beq	.L111
 1617              		.loc 1 1021 0
 1618 0a42 009B     		ldr	r3, [sp]
 1619 0a44 002B     		cmp	r3, #0
 1620 0a46 07D0     		beq	.L112
 1621              		.loc 1 1021 0 is_stmt 0 discriminator 1
 1622 0a48 FFF7FEFF 		bl	HAL_GetTick
 1623 0a4c 0246     		mov	r2, r0
 1624 0a4e 049B     		ldr	r3, [sp, #16]
 1625 0a50 D21A     		subs	r2, r2, r3
 1626 0a52 009B     		ldr	r3, [sp]
 1627 0a54 9A42     		cmp	r2, r3
 1628 0a56 07D9     		bls	.L111
 1629              	.L112:
 1630              		.loc 1 1023 0 is_stmt 1
 1631 0a58 019B     		ldr	r3, [sp, #4]
 1632 0a5a 9B6D     		ldr	r3, [r3, #88]
 1633 0a5c 43F00402 		orr	r2, r3, #4
 1634 0a60 019B     		ldr	r3, [sp, #4]
 1635 0a62 9A65     		str	r2, [r3, #88]
 1636              		.loc 1 1024 0
 1637 0a64 0323     		movs	r3, #3
 1638 0a66 7BE0     		b	.L109
 1639              	.L111:
 1640              		.loc 1 1016 0 discriminator 1
 1641 0a68 019B     		ldr	r3, [sp, #4]
 1642 0a6a 1B68     		ldr	r3, [r3]
 1643 0a6c 1A68     		ldr	r2, [r3]
 1644 0a6e 079B     		ldr	r3, [sp, #28]
 1645 0a70 1340     		ands	r3, r3, r2
ARM GAS  /tmp/ccrsTBIG.s 			page 30


 1646 0a72 002B     		cmp	r3, #0
 1647 0a74 E1D0     		beq	.L113
 1648              		.loc 1 1032 0
 1649 0a76 019B     		ldr	r3, [sp, #4]
 1650 0a78 1B68     		ldr	r3, [r3]
 1651 0a7a 1B68     		ldr	r3, [r3]
 1652 0a7c 03F00803 		and	r3, r3, #8
 1653 0a80 002B     		cmp	r3, #0
 1654 0a82 01D1     		bne	.L114
 1655              		.loc 1 1034 0
 1656 0a84 0023     		movs	r3, #0
 1657 0a86 0593     		str	r3, [sp, #20]
 1658              	.L114:
 1659              		.loc 1 1038 0
 1660 0a88 019B     		ldr	r3, [sp, #4]
 1661 0a8a 1A68     		ldr	r2, [r3]
 1662 0a8c 364B     		ldr	r3, .L124
 1663 0a8e 9A42     		cmp	r2, r3
 1664 0a90 16D0     		beq	.L115
 1665              		.loc 1 1038 0 is_stmt 0 discriminator 1
 1666 0a92 019B     		ldr	r3, [sp, #4]
 1667 0a94 1A68     		ldr	r2, [r3]
 1668 0a96 374B     		ldr	r3, .L124+12
 1669 0a98 9A42     		cmp	r2, r3
 1670 0a9a 11D0     		beq	.L115
 1671 0a9c 344B     		ldr	r3, .L124+8
 1672 0a9e 9B68     		ldr	r3, [r3, #8]
 1673 0aa0 03F01F03 		and	r3, r3, #31
 1674 0aa4 002B     		cmp	r3, #0
 1675 0aa6 0BD0     		beq	.L115
 1676 0aa8 314B     		ldr	r3, .L124+8
 1677 0aaa 9B68     		ldr	r3, [r3, #8]
 1678 0aac 03F01F03 		and	r3, r3, #31
 1679 0ab0 052B     		cmp	r3, #5
 1680 0ab2 05D0     		beq	.L115
 1681 0ab4 2E4B     		ldr	r3, .L124+8
 1682 0ab6 9B68     		ldr	r3, [r3, #8]
 1683 0ab8 03F01F03 		and	r3, r3, #31
 1684 0abc 092B     		cmp	r3, #9
 1685 0abe 04D1     		bne	.L116
 1686              	.L115:
 1687              		.loc 1 1041 0 is_stmt 1
 1688 0ac0 019B     		ldr	r3, [sp, #4]
 1689 0ac2 1B68     		ldr	r3, [r3]
 1690 0ac4 DB68     		ldr	r3, [r3, #12]
 1691 0ac6 0693     		str	r3, [sp, #24]
 1692 0ac8 11E0     		b	.L117
 1693              	.L116:
 1694              		.loc 1 1046 0
 1695 0aca 019B     		ldr	r3, [sp, #4]
 1696 0acc 1A68     		ldr	r2, [r3]
 1697 0ace 264B     		ldr	r3, .L124
 1698 0ad0 9A42     		cmp	r2, r3
 1699 0ad2 04D0     		beq	.L118
 1700              		.loc 1 1046 0 is_stmt 0 discriminator 2
 1701 0ad4 019B     		ldr	r3, [sp, #4]
 1702 0ad6 1A68     		ldr	r2, [r3]
ARM GAS  /tmp/ccrsTBIG.s 			page 31


 1703 0ad8 264B     		ldr	r3, .L124+12
 1704 0ada 9A42     		cmp	r2, r3
 1705 0adc 02D1     		bne	.L119
 1706              	.L118:
 1707              		.loc 1 1046 0 discriminator 1
 1708 0ade 019B     		ldr	r3, [sp, #4]
 1709 0ae0 1B68     		ldr	r3, [r3]
 1710 0ae2 00E0     		b	.L120
 1711              	.L119:
 1712 0ae4 204B     		ldr	r3, .L124
 1713              	.L120:
 1714              		.loc 1 1046 0 discriminator 3
 1715 0ae6 0393     		str	r3, [sp, #12]
 1716              		.loc 1 1047 0 is_stmt 1 discriminator 3
 1717 0ae8 039B     		ldr	r3, [sp, #12]
 1718 0aea DB68     		ldr	r3, [r3, #12]
 1719 0aec 0693     		str	r3, [sp, #24]
 1720              	.L117:
 1721              		.loc 1 1051 0
 1722 0aee 079B     		ldr	r3, [sp, #28]
 1723 0af0 082B     		cmp	r3, #8
 1724 0af2 04D1     		bne	.L121
 1725              		.loc 1 1053 0
 1726 0af4 019B     		ldr	r3, [sp, #4]
 1727 0af6 1B68     		ldr	r3, [r3]
 1728 0af8 0822     		movs	r2, #8
 1729 0afa 1A60     		str	r2, [r3]
 1730 0afc 08E0     		b	.L122
 1731              	.L121:
 1732              		.loc 1 1066 0
 1733 0afe 069B     		ldr	r3, [sp, #24]
 1734 0b00 03F48043 		and	r3, r3, #16384
 1735 0b04 002B     		cmp	r3, #0
 1736 0b06 03D1     		bne	.L122
 1737              		.loc 1 1068 0
 1738 0b08 019B     		ldr	r3, [sp, #4]
 1739 0b0a 1B68     		ldr	r3, [r3]
 1740 0b0c 0422     		movs	r2, #4
 1741 0b0e 1A60     		str	r2, [r3]
 1742              	.L122:
 1743              		.loc 1 1074 0
 1744 0b10 019B     		ldr	r3, [sp, #4]
 1745 0b12 9B6D     		ldr	r3, [r3, #88]
 1746 0b14 43F40072 		orr	r2, r3, #512
 1747 0b18 019B     		ldr	r3, [sp, #4]
 1748 0b1a 9A65     		str	r2, [r3, #88]
 1749              		.loc 1 1081 0
 1750 0b1c 059B     		ldr	r3, [sp, #20]
 1751 0b1e 002B     		cmp	r3, #0
 1752 0b20 1DD0     		beq	.L123
 1753              		.loc 1 1082 0
 1754 0b22 019B     		ldr	r3, [sp, #4]
 1755 0b24 1B68     		ldr	r3, [r3]
 1756 0b26 DB68     		ldr	r3, [r3, #12]
 1757 0b28 03F44063 		and	r3, r3, #3072
 1758 0b2c 002B     		cmp	r3, #0
 1759 0b2e 16D1     		bne	.L123
ARM GAS  /tmp/ccrsTBIG.s 			page 32


 1760              		.loc 1 1083 0
 1761 0b30 069B     		ldr	r3, [sp, #24]
 1762 0b32 03F40053 		and	r3, r3, #8192
 1763 0b36 002B     		cmp	r3, #0
 1764 0b38 11D1     		bne	.L123
 1765              		.loc 1 1085 0
 1766 0b3a 019B     		ldr	r3, [sp, #4]
 1767 0b3c 9B6D     		ldr	r3, [r3, #88]
 1768 0b3e 23F48072 		bic	r2, r3, #256
 1769 0b42 019B     		ldr	r3, [sp, #4]
 1770 0b44 9A65     		str	r2, [r3, #88]
 1771              		.loc 1 1087 0
 1772 0b46 019B     		ldr	r3, [sp, #4]
 1773 0b48 9B6D     		ldr	r3, [r3, #88]
 1774 0b4a 03F48053 		and	r3, r3, #4096
 1775 0b4e 002B     		cmp	r3, #0
 1776 0b50 05D1     		bne	.L123
 1777              		.loc 1 1089 0
 1778 0b52 019B     		ldr	r3, [sp, #4]
 1779 0b54 9B6D     		ldr	r3, [r3, #88]
 1780 0b56 43F00102 		orr	r2, r3, #1
 1781 0b5a 019B     		ldr	r3, [sp, #4]
 1782 0b5c 9A65     		str	r2, [r3, #88]
 1783              	.L123:
 1784              		.loc 1 1095 0
 1785 0b5e 0023     		movs	r3, #0
 1786              	.L109:
 1787              		.loc 1 1096 0
 1788 0b60 1846     		mov	r0, r3
 1789 0b62 09B0     		add	sp, sp, #36
 1790              		@ sp needed
 1791 0b64 5DF804FB 		ldr	pc, [sp], #4
 1792              	.L125:
 1793              		.align	2
 1794              	.L124:
 1795 0b68 00000450 		.word	1342439424
 1796 0b6c 00010450 		.word	1342439680
 1797 0b70 00030450 		.word	1342440192
 1798 0b74 00020450 		.word	1342439936
 1799              		.cfi_endproc
 1800              	.LFE131:
 1801              		.size	HAL_ADC_PollForConversion, .-HAL_ADC_PollForConversion
 1802              		.align	2
 1803 0b78 AFF30080 		.p2align 4,,15
 1803      AFF30080 
 1804              		.global	HAL_ADC_PollForEvent
 1805              		.thumb
 1806              		.thumb_func
 1807              		.type	HAL_ADC_PollForEvent, %function
 1808              	HAL_ADC_PollForEvent:
 1809              	.LFB132:
 1810              		.loc 1 1119 0
 1811              		.cfi_startproc
 1812              		@ args = 0, pretend = 0, frame = 24
 1813              		@ frame_needed = 0, uses_anonymous_args = 0
 1814 0b80 00B5     		push	{lr}
 1815              		.cfi_def_cfa_offset 4
ARM GAS  /tmp/ccrsTBIG.s 			page 33


 1816              		.cfi_offset 14, -4
 1817 0b82 87B0     		sub	sp, sp, #28
 1818              		.cfi_def_cfa_offset 32
 1819 0b84 0390     		str	r0, [sp, #12]
 1820 0b86 0291     		str	r1, [sp, #8]
 1821 0b88 0192     		str	r2, [sp, #4]
 1822              		.loc 1 1126 0
 1823 0b8a FFF7FEFF 		bl	HAL_GetTick
 1824 0b8e 0590     		str	r0, [sp, #20]
 1825              		.loc 1 1129 0
 1826 0b90 1AE0     		b	.L127
 1827              	.L130:
 1828              		.loc 1 1132 0
 1829 0b92 019B     		ldr	r3, [sp, #4]
 1830 0b94 B3F1FF3F 		cmp	r3, #-1
 1831 0b98 16D0     		beq	.L127
 1832              		.loc 1 1134 0
 1833 0b9a 019B     		ldr	r3, [sp, #4]
 1834 0b9c 002B     		cmp	r3, #0
 1835 0b9e 07D0     		beq	.L128
 1836              		.loc 1 1134 0 is_stmt 0 discriminator 1
 1837 0ba0 FFF7FEFF 		bl	HAL_GetTick
 1838 0ba4 0246     		mov	r2, r0
 1839 0ba6 059B     		ldr	r3, [sp, #20]
 1840 0ba8 D21A     		subs	r2, r2, r3
 1841 0baa 019B     		ldr	r3, [sp, #4]
 1842 0bac 9A42     		cmp	r2, r3
 1843 0bae 0BD9     		bls	.L127
 1844              	.L128:
 1845              		.loc 1 1137 0 is_stmt 1
 1846 0bb0 039B     		ldr	r3, [sp, #12]
 1847 0bb2 9B6D     		ldr	r3, [r3, #88]
 1848 0bb4 43F00402 		orr	r2, r3, #4
 1849 0bb8 039B     		ldr	r3, [sp, #12]
 1850 0bba 9A65     		str	r2, [r3, #88]
 1851              		.loc 1 1140 0
 1852 0bbc 039B     		ldr	r3, [sp, #12]
 1853 0bbe 0022     		movs	r2, #0
 1854 0bc0 83F85420 		strb	r2, [r3, #84]
 1855              		.loc 1 1142 0
 1856 0bc4 0323     		movs	r3, #3
 1857 0bc6 71E0     		b	.L129
 1858              	.L127:
 1859              		.loc 1 1129 0 discriminator 1
 1860 0bc8 039B     		ldr	r3, [sp, #12]
 1861 0bca 1B68     		ldr	r3, [r3]
 1862 0bcc 1A68     		ldr	r2, [r3]
 1863 0bce 029B     		ldr	r3, [sp, #8]
 1864 0bd0 1A40     		ands	r2, r2, r3
 1865 0bd2 029B     		ldr	r3, [sp, #8]
 1866 0bd4 9A42     		cmp	r2, r3
 1867 0bd6 DCD1     		bne	.L130
 1868              		.loc 1 1148 0
 1869 0bd8 029B     		ldr	r3, [sp, #8]
 1870 0bda B3F5807F 		cmp	r3, #256
 1871 0bde 24D0     		beq	.L132
 1872 0be0 B3F5807F 		cmp	r3, #256
ARM GAS  /tmp/ccrsTBIG.s 			page 34


 1873 0be4 04D8     		bhi	.L133
 1874 0be6 022B     		cmp	r3, #2
 1875 0be8 09D0     		beq	.L134
 1876 0bea 802B     		cmp	r3, #128
 1877 0bec 12D0     		beq	.L135
 1878 0bee 46E0     		b	.L131
 1879              	.L133:
 1880 0bf0 B3F5007F 		cmp	r3, #512
 1881 0bf4 25D0     		beq	.L136
 1882 0bf6 B3F5806F 		cmp	r3, #1024
 1883 0bfa 2ED0     		beq	.L137
 1884 0bfc 3FE0     		b	.L131
 1885              	.L134:
 1886              		.loc 1 1153 0
 1887 0bfe 039B     		ldr	r3, [sp, #12]
 1888 0c00 9B6D     		ldr	r3, [r3, #88]
 1889 0c02 43F40062 		orr	r2, r3, #2048
 1890 0c06 039B     		ldr	r3, [sp, #12]
 1891 0c08 9A65     		str	r2, [r3, #88]
 1892              		.loc 1 1156 0
 1893 0c0a 039B     		ldr	r3, [sp, #12]
 1894 0c0c 1B68     		ldr	r3, [r3]
 1895 0c0e 0222     		movs	r2, #2
 1896 0c10 1A60     		str	r2, [r3]
 1897              		.loc 1 1158 0
 1898 0c12 4AE0     		b	.L138
 1899              	.L135:
 1900              		.loc 1 1169 0
 1901 0c14 039B     		ldr	r3, [sp, #12]
 1902 0c16 9B6D     		ldr	r3, [r3, #88]
 1903 0c18 43F48032 		orr	r2, r3, #65536
 1904 0c1c 039B     		ldr	r3, [sp, #12]
 1905 0c1e 9A65     		str	r2, [r3, #88]
 1906              		.loc 1 1172 0
 1907 0c20 039B     		ldr	r3, [sp, #12]
 1908 0c22 1B68     		ldr	r3, [r3]
 1909 0c24 8022     		movs	r2, #128
 1910 0c26 1A60     		str	r2, [r3]
 1911              		.loc 1 1174 0
 1912 0c28 3FE0     		b	.L138
 1913              	.L132:
 1914              		.loc 1 1179 0
 1915 0c2a 039B     		ldr	r3, [sp, #12]
 1916 0c2c 9B6D     		ldr	r3, [r3, #88]
 1917 0c2e 43F40032 		orr	r2, r3, #131072
 1918 0c32 039B     		ldr	r3, [sp, #12]
 1919 0c34 9A65     		str	r2, [r3, #88]
 1920              		.loc 1 1182 0
 1921 0c36 039B     		ldr	r3, [sp, #12]
 1922 0c38 1B68     		ldr	r3, [r3]
 1923 0c3a 4FF48072 		mov	r2, #256
 1924 0c3e 1A60     		str	r2, [r3]
 1925              		.loc 1 1184 0
 1926 0c40 33E0     		b	.L138
 1927              	.L136:
 1928              		.loc 1 1189 0
 1929 0c42 039B     		ldr	r3, [sp, #12]
ARM GAS  /tmp/ccrsTBIG.s 			page 35


 1930 0c44 9B6D     		ldr	r3, [r3, #88]
 1931 0c46 43F48022 		orr	r2, r3, #262144
 1932 0c4a 039B     		ldr	r3, [sp, #12]
 1933 0c4c 9A65     		str	r2, [r3, #88]
 1934              		.loc 1 1192 0
 1935 0c4e 039B     		ldr	r3, [sp, #12]
 1936 0c50 1B68     		ldr	r3, [r3]
 1937 0c52 4FF40072 		mov	r2, #512
 1938 0c56 1A60     		str	r2, [r3]
 1939              		.loc 1 1194 0
 1940 0c58 27E0     		b	.L138
 1941              	.L137:
 1942              		.loc 1 1199 0
 1943 0c5a 039B     		ldr	r3, [sp, #12]
 1944 0c5c 9B6D     		ldr	r3, [r3, #88]
 1945 0c5e 43F48042 		orr	r2, r3, #16384
 1946 0c62 039B     		ldr	r3, [sp, #12]
 1947 0c64 9A65     		str	r2, [r3, #88]
 1948              		.loc 1 1202 0
 1949 0c66 039B     		ldr	r3, [sp, #12]
 1950 0c68 DB6D     		ldr	r3, [r3, #92]
 1951 0c6a 43F00802 		orr	r2, r3, #8
 1952 0c6e 039B     		ldr	r3, [sp, #12]
 1953 0c70 DA65     		str	r2, [r3, #92]
 1954              		.loc 1 1205 0
 1955 0c72 039B     		ldr	r3, [sp, #12]
 1956 0c74 1B68     		ldr	r3, [r3]
 1957 0c76 4FF48062 		mov	r2, #1024
 1958 0c7a 1A60     		str	r2, [r3]
 1959              		.loc 1 1207 0
 1960 0c7c 15E0     		b	.L138
 1961              	.L131:
 1962              		.loc 1 1215 0
 1963 0c7e 039B     		ldr	r3, [sp, #12]
 1964 0c80 9B6B     		ldr	r3, [r3, #56]
 1965 0c82 002B     		cmp	r3, #0
 1966 0c84 0CD1     		bne	.L139
 1967              		.loc 1 1218 0
 1968 0c86 039B     		ldr	r3, [sp, #12]
 1969 0c88 9B6D     		ldr	r3, [r3, #88]
 1970 0c8a 43F48062 		orr	r2, r3, #1024
 1971 0c8e 039B     		ldr	r3, [sp, #12]
 1972 0c90 9A65     		str	r2, [r3, #88]
 1973              		.loc 1 1221 0
 1974 0c92 039B     		ldr	r3, [sp, #12]
 1975 0c94 DB6D     		ldr	r3, [r3, #92]
 1976 0c96 43F00202 		orr	r2, r3, #2
 1977 0c9a 039B     		ldr	r3, [sp, #12]
 1978 0c9c DA65     		str	r2, [r3, #92]
 1979              		.loc 1 1230 0
 1980 0c9e 03E0     		b	.L141
 1981              	.L139:
 1982              		.loc 1 1228 0
 1983 0ca0 039B     		ldr	r3, [sp, #12]
 1984 0ca2 1B68     		ldr	r3, [r3]
 1985 0ca4 1022     		movs	r2, #16
 1986 0ca6 1A60     		str	r2, [r3]
ARM GAS  /tmp/ccrsTBIG.s 			page 36


 1987              	.L141:
 1988              		.loc 1 1230 0
 1989 0ca8 00BF     		nop
 1990              	.L138:
 1991              		.loc 1 1234 0
 1992 0caa 0023     		movs	r3, #0
 1993              	.L129:
 1994              		.loc 1 1235 0
 1995 0cac 1846     		mov	r0, r3
 1996 0cae 07B0     		add	sp, sp, #28
 1997              		@ sp needed
 1998 0cb0 5DF804FB 		ldr	pc, [sp], #4
 1999              		.cfi_endproc
 2000              	.LFE132:
 2001              		.size	HAL_ADC_PollForEvent, .-HAL_ADC_PollForEvent
 2002              		.align	2
 2003 0cb4 AFF30080 		.p2align 4,,15
 2003      AFF30080 
 2003      AFF30080 
 2004              		.global	HAL_ADC_Start_IT
 2005              		.thumb
 2006              		.thumb_func
 2007              		.type	HAL_ADC_Start_IT, %function
 2008              	HAL_ADC_Start_IT:
 2009              	.LFB133:
 2010              		.loc 1 1262 0
 2011              		.cfi_startproc
 2012              		@ args = 0, pretend = 0, frame = 16
 2013              		@ frame_needed = 0, uses_anonymous_args = 0
 2014 0cc0 00B5     		push	{lr}
 2015              		.cfi_def_cfa_offset 4
 2016              		.cfi_offset 14, -4
 2017 0cc2 85B0     		sub	sp, sp, #20
 2018              		.cfi_def_cfa_offset 24
 2019 0cc4 0190     		str	r0, [sp, #4]
 2020              		.loc 1 1263 0
 2021 0cc6 0023     		movs	r3, #0
 2022 0cc8 8DF80F30 		strb	r3, [sp, #15]
 2023              		.loc 1 1271 0
 2024 0ccc 019B     		ldr	r3, [sp, #4]
 2025 0cce 1B68     		ldr	r3, [r3]
 2026 0cd0 9B68     		ldr	r3, [r3, #8]
 2027 0cd2 03F00403 		and	r3, r3, #4
 2028 0cd6 002B     		cmp	r3, #0
 2029 0cd8 01D0     		beq	.L143
 2030              		.loc 1 1273 0
 2031 0cda 0223     		movs	r3, #2
 2032 0cdc 25E1     		b	.L144
 2033              	.L143:
 2034              		.loc 1 1278 0
 2035 0cde 019B     		ldr	r3, [sp, #4]
 2036 0ce0 93F85430 		ldrb	r3, [r3, #84]	@ zero_extendqisi2
 2037 0ce4 012B     		cmp	r3, #1
 2038 0ce6 01D1     		bne	.L145
 2039              		.loc 1 1278 0 is_stmt 0 discriminator 1
 2040 0ce8 0223     		movs	r3, #2
 2041 0cea 1EE1     		b	.L144
ARM GAS  /tmp/ccrsTBIG.s 			page 37


 2042              	.L145:
 2043              		.loc 1 1278 0 discriminator 2
 2044 0cec 019B     		ldr	r3, [sp, #4]
 2045 0cee 0122     		movs	r2, #1
 2046 0cf0 83F85420 		strb	r2, [r3, #84]
 2047              		.loc 1 1281 0 is_stmt 1 discriminator 2
 2048 0cf4 0198     		ldr	r0, [sp, #4]
 2049 0cf6 FFF7FEFF 		bl	ADC_Enable
 2050 0cfa 0346     		mov	r3, r0
 2051 0cfc 8DF80F30 		strb	r3, [sp, #15]
 2052              		.loc 1 1284 0 discriminator 2
 2053 0d00 9DF80F30 		ldrb	r3, [sp, #15]	@ zero_extendqisi2
 2054 0d04 002B     		cmp	r3, #0
 2055 0d06 40F00A81 		bne	.L146
 2056              		.loc 1 1287 0
 2057 0d0a 019B     		ldr	r3, [sp, #4]
 2058 0d0c 9B6D     		ldr	r3, [r3, #88]
 2059 0d0e 03F48053 		and	r3, r3, #4096
 2060 0d12 002B     		cmp	r3, #0
 2061 0d14 06D0     		beq	.L147
 2062              		.loc 1 1290 0
 2063 0d16 019B     		ldr	r3, [sp, #4]
 2064 0d18 DB6D     		ldr	r3, [r3, #92]
 2065 0d1a 23F00602 		bic	r2, r3, #6
 2066 0d1e 019B     		ldr	r3, [sp, #4]
 2067 0d20 DA65     		str	r2, [r3, #92]
 2068 0d22 02E0     		b	.L148
 2069              	.L147:
 2070              		.loc 1 1295 0
 2071 0d24 019B     		ldr	r3, [sp, #4]
 2072 0d26 0022     		movs	r2, #0
 2073 0d28 DA65     		str	r2, [r3, #92]
 2074              	.L148:
 2075              		.loc 1 1298 0
 2076 0d2a 019B     		ldr	r3, [sp, #4]
 2077 0d2c 9B6D     		ldr	r3, [r3, #88]
 2078 0d2e 23F47063 		bic	r3, r3, #3840
 2079 0d32 23F00103 		bic	r3, r3, #1
 2080 0d36 43F48072 		orr	r2, r3, #256
 2081 0d3a 019B     		ldr	r3, [sp, #4]
 2082 0d3c 9A65     		str	r2, [r3, #88]
 2083              		.loc 1 1303 0
 2084 0d3e 019B     		ldr	r3, [sp, #4]
 2085 0d40 1A68     		ldr	r2, [r3]
 2086 0d42 7C4B     		ldr	r3, .L171
 2087 0d44 9A42     		cmp	r2, r3
 2088 0d46 0AD0     		beq	.L149
 2089              		.loc 1 1303 0 is_stmt 0 discriminator 1
 2090 0d48 019B     		ldr	r3, [sp, #4]
 2091 0d4a 1A68     		ldr	r2, [r3]
 2092 0d4c 7A4B     		ldr	r3, .L171+4
 2093 0d4e 9A42     		cmp	r2, r3
 2094 0d50 05D0     		beq	.L149
 2095 0d52 7A4B     		ldr	r3, .L171+8
 2096 0d54 9B68     		ldr	r3, [r3, #8]
 2097 0d56 03F01F03 		and	r3, r3, #31
 2098 0d5a 002B     		cmp	r3, #0
ARM GAS  /tmp/ccrsTBIG.s 			page 38


 2099 0d5c 05D1     		bne	.L150
 2100              	.L149:
 2101              		.loc 1 1305 0 is_stmt 1
 2102 0d5e 019B     		ldr	r3, [sp, #4]
 2103 0d60 9B6D     		ldr	r3, [r3, #88]
 2104 0d62 23F48012 		bic	r2, r3, #1048576
 2105 0d66 019B     		ldr	r3, [sp, #4]
 2106 0d68 9A65     		str	r2, [r3, #88]
 2107              	.L150:
 2108              		.loc 1 1310 0
 2109 0d6a 019B     		ldr	r3, [sp, #4]
 2110 0d6c 1B68     		ldr	r3, [r3]
 2111 0d6e 1C22     		movs	r2, #28
 2112 0d70 1A60     		str	r2, [r3]
 2113              		.loc 1 1313 0
 2114 0d72 019B     		ldr	r3, [sp, #4]
 2115 0d74 1B68     		ldr	r3, [r3]
 2116 0d76 019A     		ldr	r2, [sp, #4]
 2117 0d78 1268     		ldr	r2, [r2]
 2118 0d7a 5268     		ldr	r2, [r2, #4]
 2119 0d7c 22F01C02 		bic	r2, r2, #28
 2120 0d80 5A60     		str	r2, [r3, #4]
 2121              		.loc 1 1316 0
 2122 0d82 019B     		ldr	r3, [sp, #4]
 2123 0d84 5B69     		ldr	r3, [r3, #20]
 2124 0d86 082B     		cmp	r3, #8
 2125 0d88 08D1     		bne	.L168
 2126              		.loc 1 1319 0
 2127 0d8a 019B     		ldr	r3, [sp, #4]
 2128 0d8c 1B68     		ldr	r3, [r3]
 2129 0d8e 019A     		ldr	r2, [sp, #4]
 2130 0d90 1268     		ldr	r2, [r2]
 2131 0d92 5268     		ldr	r2, [r2, #4]
 2132 0d94 42F00802 		orr	r2, r2, #8
 2133 0d98 5A60     		str	r2, [r3, #4]
 2134              		.loc 1 1320 0
 2135 0d9a 08E0     		b	.L153
 2136              	.L168:
 2137              		.loc 1 1323 0
 2138 0d9c 019B     		ldr	r3, [sp, #4]
 2139 0d9e 1B68     		ldr	r3, [r3]
 2140 0da0 019A     		ldr	r2, [sp, #4]
 2141 0da2 1268     		ldr	r2, [r2]
 2142 0da4 5268     		ldr	r2, [r2, #4]
 2143 0da6 42F00402 		orr	r2, r2, #4
 2144 0daa 5A60     		str	r2, [r3, #4]
 2145              		.loc 1 1324 0
 2146 0dac 00BF     		nop
 2147              	.L153:
 2148              		.loc 1 1330 0
 2149 0dae 019B     		ldr	r3, [sp, #4]
 2150 0db0 9B6B     		ldr	r3, [r3, #56]
 2151 0db2 002B     		cmp	r3, #0
 2152 0db4 07D1     		bne	.L154
 2153              		.loc 1 1332 0
 2154 0db6 019B     		ldr	r3, [sp, #4]
 2155 0db8 1B68     		ldr	r3, [r3]
ARM GAS  /tmp/ccrsTBIG.s 			page 39


 2156 0dba 019A     		ldr	r2, [sp, #4]
 2157 0dbc 1268     		ldr	r2, [r2]
 2158 0dbe 5268     		ldr	r2, [r2, #4]
 2159 0dc0 42F01002 		orr	r2, r2, #16
 2160 0dc4 5A60     		str	r2, [r3, #4]
 2161              	.L154:
 2162              		.loc 1 1343 0
 2163 0dc6 019B     		ldr	r3, [sp, #4]
 2164 0dc8 1A68     		ldr	r2, [r3]
 2165 0dca 5A4B     		ldr	r3, .L171
 2166 0dcc 9A42     		cmp	r2, r3
 2167 0dce 16D0     		beq	.L155
 2168              		.loc 1 1343 0 is_stmt 0 discriminator 1
 2169 0dd0 019B     		ldr	r3, [sp, #4]
 2170 0dd2 1A68     		ldr	r2, [r3]
 2171 0dd4 584B     		ldr	r3, .L171+4
 2172 0dd6 9A42     		cmp	r2, r3
 2173 0dd8 11D0     		beq	.L155
 2174 0dda 584B     		ldr	r3, .L171+8
 2175 0ddc 9B68     		ldr	r3, [r3, #8]
 2176 0dde 03F01F03 		and	r3, r3, #31
 2177 0de2 002B     		cmp	r3, #0
 2178 0de4 0BD0     		beq	.L155
 2179 0de6 554B     		ldr	r3, .L171+8
 2180 0de8 9B68     		ldr	r3, [r3, #8]
 2181 0dea 03F01F03 		and	r3, r3, #31
 2182 0dee 052B     		cmp	r3, #5
 2183 0df0 05D0     		beq	.L155
 2184 0df2 524B     		ldr	r3, .L171+8
 2185 0df4 9B68     		ldr	r3, [r3, #8]
 2186 0df6 03F01F03 		and	r3, r3, #31
 2187 0dfa 092B     		cmp	r3, #9
 2188 0dfc 41D1     		bne	.L156
 2189              	.L155:
 2190              		.loc 1 1348 0 is_stmt 1
 2191 0dfe 019B     		ldr	r3, [sp, #4]
 2192 0e00 1B68     		ldr	r3, [r3]
 2193 0e02 DB68     		ldr	r3, [r3, #12]
 2194 0e04 03F00073 		and	r3, r3, #33554432
 2195 0e08 002B     		cmp	r3, #0
 2196 0e0a 2DD0     		beq	.L157
 2197              		.loc 1 1350 0
 2198 0e0c 019B     		ldr	r3, [sp, #4]
 2199 0e0e 9B6D     		ldr	r3, [r3, #88]
 2200 0e10 23F44053 		bic	r3, r3, #12288
 2201 0e14 43F48052 		orr	r2, r3, #4096
 2202 0e18 019B     		ldr	r3, [sp, #4]
 2203 0e1a 9A65     		str	r2, [r3, #88]
 2204              		.loc 1 1356 0
 2205 0e1c 019B     		ldr	r3, [sp, #4]
 2206 0e1e 5B69     		ldr	r3, [r3, #20]
 2207 0e20 082B     		cmp	r3, #8
 2208 0e22 10D1     		bne	.L169
 2209              		.loc 1 1359 0
 2210 0e24 019B     		ldr	r3, [sp, #4]
 2211 0e26 1B68     		ldr	r3, [r3]
 2212 0e28 019A     		ldr	r2, [sp, #4]
ARM GAS  /tmp/ccrsTBIG.s 			page 40


 2213 0e2a 1268     		ldr	r2, [r2]
 2214 0e2c 5268     		ldr	r2, [r2, #4]
 2215 0e2e 22F02002 		bic	r2, r2, #32
 2216 0e32 5A60     		str	r2, [r3, #4]
 2217              		.loc 1 1360 0
 2218 0e34 019B     		ldr	r3, [sp, #4]
 2219 0e36 1B68     		ldr	r3, [r3]
 2220 0e38 019A     		ldr	r2, [sp, #4]
 2221 0e3a 1268     		ldr	r2, [r2]
 2222 0e3c 5268     		ldr	r2, [r2, #4]
 2223 0e3e 42F04002 		orr	r2, r2, #64
 2224 0e42 5A60     		str	r2, [r3, #4]
 2225              		.loc 1 1361 0
 2226 0e44 10E0     		b	.L157
 2227              	.L169:
 2228              		.loc 1 1364 0
 2229 0e46 019B     		ldr	r3, [sp, #4]
 2230 0e48 1B68     		ldr	r3, [r3]
 2231 0e4a 019A     		ldr	r2, [sp, #4]
 2232 0e4c 1268     		ldr	r2, [r2]
 2233 0e4e 5268     		ldr	r2, [r2, #4]
 2234 0e50 22F04002 		bic	r2, r2, #64
 2235 0e54 5A60     		str	r2, [r3, #4]
 2236              		.loc 1 1365 0
 2237 0e56 019B     		ldr	r3, [sp, #4]
 2238 0e58 1B68     		ldr	r3, [r3]
 2239 0e5a 019A     		ldr	r2, [sp, #4]
 2240 0e5c 1268     		ldr	r2, [r2]
 2241 0e5e 5268     		ldr	r2, [r2, #4]
 2242 0e60 42F02002 		orr	r2, r2, #32
 2243 0e64 5A60     		str	r2, [r3, #4]
 2244              		.loc 1 1366 0
 2245 0e66 00BF     		nop
 2246              	.L157:
 2247              		.loc 1 1370 0
 2248 0e68 019B     		ldr	r3, [sp, #4]
 2249 0e6a 0022     		movs	r2, #0
 2250 0e6c 83F85420 		strb	r2, [r3, #84]
 2251              		.loc 1 1372 0
 2252 0e70 019B     		ldr	r3, [sp, #4]
 2253 0e72 1B68     		ldr	r3, [r3]
 2254 0e74 019A     		ldr	r2, [sp, #4]
 2255 0e76 1268     		ldr	r2, [r2]
 2256 0e78 9268     		ldr	r2, [r2, #8]
 2257 0e7a 42F00402 		orr	r2, r2, #4
 2258 0e7e 9A60     		str	r2, [r3, #8]
 2259 0e80 51E0     		b	.L167
 2260              	.L156:
 2261              		.loc 1 1378 0
 2262 0e82 019B     		ldr	r3, [sp, #4]
 2263 0e84 9B6D     		ldr	r3, [r3, #88]
 2264 0e86 43F48012 		orr	r2, r3, #1048576
 2265 0e8a 019B     		ldr	r3, [sp, #4]
 2266 0e8c 9A65     		str	r2, [r3, #88]
 2267              		.loc 1 1381 0
 2268 0e8e 019B     		ldr	r3, [sp, #4]
 2269 0e90 1A68     		ldr	r2, [r3]
ARM GAS  /tmp/ccrsTBIG.s 			page 41


 2270 0e92 284B     		ldr	r3, .L171
 2271 0e94 9A42     		cmp	r2, r3
 2272 0e96 04D0     		beq	.L161
 2273              		.loc 1 1381 0 is_stmt 0 discriminator 2
 2274 0e98 019B     		ldr	r3, [sp, #4]
 2275 0e9a 1A68     		ldr	r2, [r3]
 2276 0e9c 264B     		ldr	r3, .L171+4
 2277 0e9e 9A42     		cmp	r2, r3
 2278 0ea0 02D1     		bne	.L162
 2279              	.L161:
 2280              		.loc 1 1381 0 discriminator 1
 2281 0ea2 019B     		ldr	r3, [sp, #4]
 2282 0ea4 1B68     		ldr	r3, [r3]
 2283 0ea6 00E0     		b	.L163
 2284              	.L162:
 2285 0ea8 224B     		ldr	r3, .L171
 2286              	.L163:
 2287              		.loc 1 1381 0 discriminator 3
 2288 0eaa 0293     		str	r3, [sp, #8]
 2289              		.loc 1 1382 0 is_stmt 1 discriminator 3
 2290 0eac 029B     		ldr	r3, [sp, #8]
 2291 0eae DB68     		ldr	r3, [r3, #12]
 2292 0eb0 03F00073 		and	r3, r3, #33554432
 2293 0eb4 002B     		cmp	r3, #0
 2294 0eb6 2DD0     		beq	.L164
 2295              		.loc 1 1386 0
 2296 0eb8 019B     		ldr	r3, [sp, #4]
 2297 0eba 9B6D     		ldr	r3, [r3, #88]
 2298 0ebc 23F44053 		bic	r3, r3, #12288
 2299 0ec0 43F48052 		orr	r2, r3, #4096
 2300 0ec4 019B     		ldr	r3, [sp, #4]
 2301 0ec6 9A65     		str	r2, [r3, #88]
 2302              		.loc 1 1388 0
 2303 0ec8 019B     		ldr	r3, [sp, #4]
 2304 0eca 5B69     		ldr	r3, [r3, #20]
 2305 0ecc 082B     		cmp	r3, #8
 2306 0ece 10D1     		bne	.L170
 2307              		.loc 1 1391 0
 2308 0ed0 019B     		ldr	r3, [sp, #4]
 2309 0ed2 1B68     		ldr	r3, [r3]
 2310 0ed4 019A     		ldr	r2, [sp, #4]
 2311 0ed6 1268     		ldr	r2, [r2]
 2312 0ed8 5268     		ldr	r2, [r2, #4]
 2313 0eda 22F02002 		bic	r2, r2, #32
 2314 0ede 5A60     		str	r2, [r3, #4]
 2315              		.loc 1 1392 0
 2316 0ee0 019B     		ldr	r3, [sp, #4]
 2317 0ee2 1B68     		ldr	r3, [r3]
 2318 0ee4 019A     		ldr	r2, [sp, #4]
 2319 0ee6 1268     		ldr	r2, [r2]
 2320 0ee8 5268     		ldr	r2, [r2, #4]
 2321 0eea 42F04002 		orr	r2, r2, #64
 2322 0eee 5A60     		str	r2, [r3, #4]
 2323              		.loc 1 1393 0
 2324 0ef0 10E0     		b	.L164
 2325              	.L170:
 2326              		.loc 1 1396 0
ARM GAS  /tmp/ccrsTBIG.s 			page 42


 2327 0ef2 019B     		ldr	r3, [sp, #4]
 2328 0ef4 1B68     		ldr	r3, [r3]
 2329 0ef6 019A     		ldr	r2, [sp, #4]
 2330 0ef8 1268     		ldr	r2, [r2]
 2331 0efa 5268     		ldr	r2, [r2, #4]
 2332 0efc 22F04002 		bic	r2, r2, #64
 2333 0f00 5A60     		str	r2, [r3, #4]
 2334              		.loc 1 1397 0
 2335 0f02 019B     		ldr	r3, [sp, #4]
 2336 0f04 1B68     		ldr	r3, [r3]
 2337 0f06 019A     		ldr	r2, [sp, #4]
 2338 0f08 1268     		ldr	r2, [r2]
 2339 0f0a 5268     		ldr	r2, [r2, #4]
 2340 0f0c 42F02002 		orr	r2, r2, #32
 2341 0f10 5A60     		str	r2, [r3, #4]
 2342              		.loc 1 1398 0
 2343 0f12 00BF     		nop
 2344              	.L164:
 2345              		.loc 1 1402 0
 2346 0f14 019B     		ldr	r3, [sp, #4]
 2347 0f16 0022     		movs	r2, #0
 2348 0f18 83F85420 		strb	r2, [r3, #84]
 2349 0f1c 03E0     		b	.L167
 2350              	.L146:
 2351              		.loc 1 1408 0
 2352 0f1e 019B     		ldr	r3, [sp, #4]
 2353 0f20 0022     		movs	r2, #0
 2354 0f22 83F85420 		strb	r2, [r3, #84]
 2355              	.L167:
 2356              		.loc 1 1412 0
 2357 0f26 9DF80F30 		ldrb	r3, [sp, #15]	@ zero_extendqisi2
 2358              	.L144:
 2359              		.loc 1 1415 0
 2360 0f2a 1846     		mov	r0, r3
 2361 0f2c 05B0     		add	sp, sp, #20
 2362              		@ sp needed
 2363 0f2e 5DF804FB 		ldr	pc, [sp], #4
 2364              	.L172:
 2365 0f32 00BF     		.align	2
 2366              	.L171:
 2367 0f34 00000450 		.word	1342439424
 2368 0f38 00020450 		.word	1342439936
 2369 0f3c 00030450 		.word	1342440192
 2370              		.cfi_endproc
 2371              	.LFE133:
 2372              		.size	HAL_ADC_Start_IT, .-HAL_ADC_Start_IT
 2373              		.align	2
 2374              		.p2align 4,,15
 2375              		.global	HAL_ADC_Stop_IT
 2376              		.thumb
 2377              		.thumb_func
 2378              		.type	HAL_ADC_Stop_IT, %function
 2379              	HAL_ADC_Stop_IT:
 2380              	.LFB134:
 2381              		.loc 1 1426 0
 2382              		.cfi_startproc
 2383              		@ args = 0, pretend = 0, frame = 16
ARM GAS  /tmp/ccrsTBIG.s 			page 43


 2384              		@ frame_needed = 0, uses_anonymous_args = 0
 2385 0f40 00B5     		push	{lr}
 2386              		.cfi_def_cfa_offset 4
 2387              		.cfi_offset 14, -4
 2388 0f42 85B0     		sub	sp, sp, #20
 2389              		.cfi_def_cfa_offset 24
 2390 0f44 0190     		str	r0, [sp, #4]
 2391              		.loc 1 1427 0
 2392 0f46 0023     		movs	r3, #0
 2393 0f48 8DF80F30 		strb	r3, [sp, #15]
 2394              		.loc 1 1433 0
 2395 0f4c 019B     		ldr	r3, [sp, #4]
 2396 0f4e 93F85430 		ldrb	r3, [r3, #84]	@ zero_extendqisi2
 2397 0f52 012B     		cmp	r3, #1
 2398 0f54 01D1     		bne	.L174
 2399              		.loc 1 1433 0 is_stmt 0 discriminator 1
 2400 0f56 0223     		movs	r3, #2
 2401 0f58 30E0     		b	.L175
 2402              	.L174:
 2403              		.loc 1 1433 0 discriminator 2
 2404 0f5a 019B     		ldr	r3, [sp, #4]
 2405 0f5c 0122     		movs	r2, #1
 2406 0f5e 83F85420 		strb	r2, [r3, #84]
 2407              		.loc 1 1436 0 is_stmt 1 discriminator 2
 2408 0f62 0198     		ldr	r0, [sp, #4]
 2409 0f64 6C21     		movs	r1, #108
 2410 0f66 FFF7FEFF 		bl	ADC_ConversionStop
 2411 0f6a 0346     		mov	r3, r0
 2412 0f6c 8DF80F30 		strb	r3, [sp, #15]
 2413              		.loc 1 1439 0 discriminator 2
 2414 0f70 9DF80F30 		ldrb	r3, [sp, #15]	@ zero_extendqisi2
 2415 0f74 002B     		cmp	r3, #0
 2416 0f76 1BD1     		bne	.L176
 2417              		.loc 1 1442 0
 2418 0f78 019B     		ldr	r3, [sp, #4]
 2419 0f7a 1B68     		ldr	r3, [r3]
 2420 0f7c 019A     		ldr	r2, [sp, #4]
 2421 0f7e 1268     		ldr	r2, [r2]
 2422 0f80 5268     		ldr	r2, [r2, #4]
 2423 0f82 22F01C02 		bic	r2, r2, #28
 2424 0f86 5A60     		str	r2, [r3, #4]
 2425              		.loc 1 1445 0
 2426 0f88 0198     		ldr	r0, [sp, #4]
 2427 0f8a FFF7FEFF 		bl	ADC_Disable
 2428 0f8e 0346     		mov	r3, r0
 2429 0f90 8DF80F30 		strb	r3, [sp, #15]
 2430              		.loc 1 1448 0
 2431 0f94 9DF80F30 		ldrb	r3, [sp, #15]	@ zero_extendqisi2
 2432 0f98 002B     		cmp	r3, #0
 2433 0f9a 09D1     		bne	.L176
 2434              		.loc 1 1452 0
 2435 0f9c 019B     		ldr	r3, [sp, #4]
 2436 0f9e 9B6D     		ldr	r3, [r3, #88]
 2437 0fa0 23F48853 		bic	r3, r3, #4352
 2438 0fa4 23F00103 		bic	r3, r3, #1
 2439 0fa8 43F00102 		orr	r2, r3, #1
 2440 0fac 019B     		ldr	r3, [sp, #4]
ARM GAS  /tmp/ccrsTBIG.s 			page 44


 2441 0fae 9A65     		str	r2, [r3, #88]
 2442              	.L176:
 2443              		.loc 1 1457 0
 2444 0fb0 019B     		ldr	r3, [sp, #4]
 2445 0fb2 0022     		movs	r2, #0
 2446 0fb4 83F85420 		strb	r2, [r3, #84]
 2447              		.loc 1 1460 0
 2448 0fb8 9DF80F30 		ldrb	r3, [sp, #15]	@ zero_extendqisi2
 2449              	.L175:
 2450              		.loc 1 1461 0
 2451 0fbc 1846     		mov	r0, r3
 2452 0fbe 05B0     		add	sp, sp, #20
 2453              		@ sp needed
 2454 0fc0 5DF804FB 		ldr	pc, [sp], #4
 2455              		.cfi_endproc
 2456              	.LFE134:
 2457              		.size	HAL_ADC_Stop_IT, .-HAL_ADC_Stop_IT
 2458              		.align	2
 2459 0fc4 AFF30080 		.p2align 4,,15
 2459      AFF30080 
 2459      AFF30080 
 2460              		.global	HAL_ADC_Start_DMA
 2461              		.thumb
 2462              		.thumb_func
 2463              		.type	HAL_ADC_Start_DMA, %function
 2464              	HAL_ADC_Start_DMA:
 2465              	.LFB135:
 2466              		.loc 1 1478 0
 2467              		.cfi_startproc
 2468              		@ args = 0, pretend = 0, frame = 24
 2469              		@ frame_needed = 0, uses_anonymous_args = 0
 2470 0fd0 00B5     		push	{lr}
 2471              		.cfi_def_cfa_offset 4
 2472              		.cfi_offset 14, -4
 2473 0fd2 87B0     		sub	sp, sp, #28
 2474              		.cfi_def_cfa_offset 32
 2475 0fd4 0390     		str	r0, [sp, #12]
 2476 0fd6 0291     		str	r1, [sp, #8]
 2477 0fd8 0192     		str	r2, [sp, #4]
 2478              		.loc 1 1479 0
 2479 0fda 0023     		movs	r3, #0
 2480 0fdc 8DF81730 		strb	r3, [sp, #23]
 2481              		.loc 1 1484 0
 2482 0fe0 039B     		ldr	r3, [sp, #12]
 2483 0fe2 1B68     		ldr	r3, [r3]
 2484 0fe4 9B68     		ldr	r3, [r3, #8]
 2485 0fe6 03F00403 		and	r3, r3, #4
 2486 0fea 002B     		cmp	r3, #0
 2487 0fec 01D0     		beq	.L178
 2488              		.loc 1 1486 0
 2489 0fee 0223     		movs	r3, #2
 2490 0ff0 ADE0     		b	.L179
 2491              	.L178:
 2492              		.loc 1 1492 0
 2493 0ff2 039B     		ldr	r3, [sp, #12]
 2494 0ff4 93F85430 		ldrb	r3, [r3, #84]	@ zero_extendqisi2
 2495 0ff8 012B     		cmp	r3, #1
ARM GAS  /tmp/ccrsTBIG.s 			page 45


 2496 0ffa 01D1     		bne	.L180
 2497              		.loc 1 1492 0 is_stmt 0 discriminator 1
 2498 0ffc 0223     		movs	r3, #2
 2499 0ffe A6E0     		b	.L179
 2500              	.L180:
 2501              		.loc 1 1492 0 discriminator 2
 2502 1000 039B     		ldr	r3, [sp, #12]
 2503 1002 0122     		movs	r2, #1
 2504 1004 83F85420 		strb	r2, [r3, #84]
 2505              		.loc 1 1496 0 is_stmt 1 discriminator 2
 2506 1008 039B     		ldr	r3, [sp, #12]
 2507 100a 1A68     		ldr	r2, [r3]
 2508 100c 524B     		ldr	r3, .L192
 2509 100e 9A42     		cmp	r2, r3
 2510 1010 04D0     		beq	.L181
 2511 1012 039B     		ldr	r3, [sp, #12]
 2512 1014 1A68     		ldr	r2, [r3]
 2513 1016 514B     		ldr	r3, .L192+4
 2514 1018 9A42     		cmp	r2, r3
 2515 101a 13D1     		bne	.L182
 2516              	.L181:
 2517              		.loc 1 1496 0 is_stmt 0 discriminator 1
 2518 101c 504B     		ldr	r3, .L192+8
 2519 101e 9B68     		ldr	r3, [r3, #8]
 2520 1020 03F01F03 		and	r3, r3, #31
 2521 1024 002B     		cmp	r3, #0
 2522 1026 0DD0     		beq	.L182
 2523              		.loc 1 1496 0 discriminator 3
 2524 1028 4D4B     		ldr	r3, .L192+8
 2525 102a 9B68     		ldr	r3, [r3, #8]
 2526 102c 03F01F03 		and	r3, r3, #31
 2527 1030 052B     		cmp	r3, #5
 2528 1032 07D0     		beq	.L182
 2529              		.loc 1 1496 0 discriminator 1
 2530 1034 4A4B     		ldr	r3, .L192+8
 2531 1036 9B68     		ldr	r3, [r3, #8]
 2532 1038 03F01F03 		and	r3, r3, #31
 2533 103c 092B     		cmp	r3, #9
 2534 103e 01D0     		beq	.L182
 2535 1040 0123     		movs	r3, #1
 2536 1042 00E0     		b	.L183
 2537              	.L182:
 2538 1044 0023     		movs	r3, #0
 2539              	.L183:
 2540              		.loc 1 1496 0 discriminator 4
 2541 1046 002B     		cmp	r3, #0
 2542 1048 78D1     		bne	.L184
 2543              		.loc 1 1499 0 is_stmt 1
 2544 104a 0398     		ldr	r0, [sp, #12]
 2545 104c FFF7FEFF 		bl	ADC_Enable
 2546 1050 0346     		mov	r3, r0
 2547 1052 8DF81730 		strb	r3, [sp, #23]
 2548              		.loc 1 1502 0
 2549 1056 9DF81730 		ldrb	r3, [sp, #23]	@ zero_extendqisi2
 2550 105a 002B     		cmp	r3, #0
 2551 105c 69D1     		bne	.L185
 2552              		.loc 1 1505 0
ARM GAS  /tmp/ccrsTBIG.s 			page 46


 2553 105e 039B     		ldr	r3, [sp, #12]
 2554 1060 9B6D     		ldr	r3, [r3, #88]
 2555 1062 03F48053 		and	r3, r3, #4096
 2556 1066 002B     		cmp	r3, #0
 2557 1068 06D0     		beq	.L186
 2558              		.loc 1 1508 0
 2559 106a 039B     		ldr	r3, [sp, #12]
 2560 106c DB6D     		ldr	r3, [r3, #92]
 2561 106e 23F00602 		bic	r2, r3, #6
 2562 1072 039B     		ldr	r3, [sp, #12]
 2563 1074 DA65     		str	r2, [r3, #92]
 2564 1076 02E0     		b	.L187
 2565              	.L186:
 2566              		.loc 1 1513 0
 2567 1078 039B     		ldr	r3, [sp, #12]
 2568 107a 0022     		movs	r2, #0
 2569 107c DA65     		str	r2, [r3, #92]
 2570              	.L187:
 2571              		.loc 1 1516 0
 2572 107e 039B     		ldr	r3, [sp, #12]
 2573 1080 9B6D     		ldr	r3, [r3, #88]
 2574 1082 23F47063 		bic	r3, r3, #3840
 2575 1086 23F00103 		bic	r3, r3, #1
 2576 108a 43F48072 		orr	r2, r3, #256
 2577 108e 039B     		ldr	r3, [sp, #12]
 2578 1090 9A65     		str	r2, [r3, #88]
 2579              		.loc 1 1521 0
 2580 1092 039B     		ldr	r3, [sp, #12]
 2581 1094 1A68     		ldr	r2, [r3]
 2582 1096 304B     		ldr	r3, .L192
 2583 1098 9A42     		cmp	r2, r3
 2584 109a 0AD0     		beq	.L188
 2585              		.loc 1 1521 0 is_stmt 0 discriminator 1
 2586 109c 039B     		ldr	r3, [sp, #12]
 2587 109e 1A68     		ldr	r2, [r3]
 2588 10a0 304B     		ldr	r3, .L192+12
 2589 10a2 9A42     		cmp	r2, r3
 2590 10a4 05D0     		beq	.L188
 2591 10a6 2E4B     		ldr	r3, .L192+8
 2592 10a8 9B68     		ldr	r3, [r3, #8]
 2593 10aa 03F01F03 		and	r3, r3, #31
 2594 10ae 002B     		cmp	r3, #0
 2595 10b0 05D1     		bne	.L189
 2596              	.L188:
 2597              		.loc 1 1523 0 is_stmt 1
 2598 10b2 039B     		ldr	r3, [sp, #12]
 2599 10b4 9B6D     		ldr	r3, [r3, #88]
 2600 10b6 23F48012 		bic	r2, r3, #1048576
 2601 10ba 039B     		ldr	r3, [sp, #12]
 2602 10bc 9A65     		str	r2, [r3, #88]
 2603              	.L189:
 2604              		.loc 1 1527 0
 2605 10be 039B     		ldr	r3, [sp, #12]
 2606 10c0 1B6D     		ldr	r3, [r3, #80]
 2607 10c2 294A     		ldr	r2, .L192+16
 2608 10c4 DA62     		str	r2, [r3, #44]
 2609              		.loc 1 1530 0
ARM GAS  /tmp/ccrsTBIG.s 			page 47


 2610 10c6 039B     		ldr	r3, [sp, #12]
 2611 10c8 1B6D     		ldr	r3, [r3, #80]
 2612 10ca 284A     		ldr	r2, .L192+20
 2613 10cc 1A63     		str	r2, [r3, #48]
 2614              		.loc 1 1533 0
 2615 10ce 039B     		ldr	r3, [sp, #12]
 2616 10d0 1B6D     		ldr	r3, [r3, #80]
 2617 10d2 274A     		ldr	r2, .L192+24
 2618 10d4 5A63     		str	r2, [r3, #52]
 2619              		.loc 1 1542 0
 2620 10d6 039B     		ldr	r3, [sp, #12]
 2621 10d8 1B68     		ldr	r3, [r3]
 2622 10da 1C22     		movs	r2, #28
 2623 10dc 1A60     		str	r2, [r3]
 2624              		.loc 1 1547 0
 2625 10de 039B     		ldr	r3, [sp, #12]
 2626 10e0 1B68     		ldr	r3, [r3]
 2627 10e2 039A     		ldr	r2, [sp, #12]
 2628 10e4 1268     		ldr	r2, [r2]
 2629 10e6 5268     		ldr	r2, [r2, #4]
 2630 10e8 42F01002 		orr	r2, r2, #16
 2631 10ec 5A60     		str	r2, [r3, #4]
 2632              		.loc 1 1551 0
 2633 10ee 039B     		ldr	r3, [sp, #12]
 2634 10f0 1B68     		ldr	r3, [r3]
 2635 10f2 039A     		ldr	r2, [sp, #12]
 2636 10f4 1268     		ldr	r2, [r2]
 2637 10f6 D268     		ldr	r2, [r2, #12]
 2638 10f8 42F00102 		orr	r2, r2, #1
 2639 10fc DA60     		str	r2, [r3, #12]
 2640              		.loc 1 1554 0
 2641 10fe 039B     		ldr	r3, [sp, #12]
 2642 1100 196D     		ldr	r1, [r3, #80]
 2643 1102 039B     		ldr	r3, [sp, #12]
 2644 1104 1B68     		ldr	r3, [r3]
 2645 1106 4033     		adds	r3, r3, #64
 2646 1108 1A46     		mov	r2, r3
 2647 110a 029B     		ldr	r3, [sp, #8]
 2648 110c 0846     		mov	r0, r1
 2649 110e 1146     		mov	r1, r2
 2650 1110 1A46     		mov	r2, r3
 2651 1112 019B     		ldr	r3, [sp, #4]
 2652 1114 FFF7FEFF 		bl	HAL_DMA_Start_IT
 2653              		.loc 1 1558 0
 2654 1118 039B     		ldr	r3, [sp, #12]
 2655 111a 0022     		movs	r2, #0
 2656 111c 83F85420 		strb	r2, [r3, #84]
 2657              		.loc 1 1562 0
 2658 1120 039B     		ldr	r3, [sp, #12]
 2659 1122 1B68     		ldr	r3, [r3]
 2660 1124 039A     		ldr	r2, [sp, #12]
 2661 1126 1268     		ldr	r2, [r2]
 2662 1128 9268     		ldr	r2, [r2, #8]
 2663 112a 42F00402 		orr	r2, r2, #4
 2664 112e 9A60     		str	r2, [r3, #8]
 2665 1130 0BE0     		b	.L191
 2666              	.L185:
ARM GAS  /tmp/ccrsTBIG.s 			page 48


 2667              		.loc 1 1568 0
 2668 1132 039B     		ldr	r3, [sp, #12]
 2669 1134 0022     		movs	r2, #0
 2670 1136 83F85420 		strb	r2, [r3, #84]
 2671 113a 06E0     		b	.L191
 2672              	.L184:
 2673              		.loc 1 1573 0
 2674 113c 0123     		movs	r3, #1
 2675 113e 8DF81730 		strb	r3, [sp, #23]
 2676              		.loc 1 1575 0
 2677 1142 039B     		ldr	r3, [sp, #12]
 2678 1144 0022     		movs	r2, #0
 2679 1146 83F85420 		strb	r2, [r3, #84]
 2680              	.L191:
 2681              		.loc 1 1581 0
 2682 114a 9DF81730 		ldrb	r3, [sp, #23]	@ zero_extendqisi2
 2683              	.L179:
 2684              		.loc 1 1583 0
 2685 114e 1846     		mov	r0, r3
 2686 1150 07B0     		add	sp, sp, #28
 2687              		@ sp needed
 2688 1152 5DF804FB 		ldr	pc, [sp], #4
 2689              	.L193:
 2690 1156 00BF     		.align	2
 2691              	.L192:
 2692 1158 00000450 		.word	1342439424
 2693 115c 00010450 		.word	1342439680
 2694 1160 00030450 		.word	1342440192
 2695 1164 00020450 		.word	1342439936
 2696 1168 00000000 		.word	ADC_DMAConvCplt
 2697 116c 00000000 		.word	ADC_DMAHalfConvCplt
 2698 1170 00000000 		.word	ADC_DMAError
 2699              		.cfi_endproc
 2700              	.LFE135:
 2701              		.size	HAL_ADC_Start_DMA, .-HAL_ADC_Start_DMA
 2702              		.align	2
 2703 1174 AFF30080 		.p2align 4,,15
 2703      AFF30080 
 2703      AFF30080 
 2704              		.global	HAL_ADC_Stop_DMA
 2705              		.thumb
 2706              		.thumb_func
 2707              		.type	HAL_ADC_Stop_DMA, %function
 2708              	HAL_ADC_Stop_DMA:
 2709              	.LFB136:
 2710              		.loc 1 1596 0
 2711              		.cfi_startproc
 2712              		@ args = 0, pretend = 0, frame = 16
 2713              		@ frame_needed = 0, uses_anonymous_args = 0
 2714 1180 00B5     		push	{lr}
 2715              		.cfi_def_cfa_offset 4
 2716              		.cfi_offset 14, -4
 2717 1182 85B0     		sub	sp, sp, #20
 2718              		.cfi_def_cfa_offset 24
 2719 1184 0190     		str	r0, [sp, #4]
 2720              		.loc 1 1597 0
 2721 1186 0023     		movs	r3, #0
ARM GAS  /tmp/ccrsTBIG.s 			page 49


 2722 1188 8DF80F30 		strb	r3, [sp, #15]
 2723              		.loc 1 1603 0
 2724 118c 019B     		ldr	r3, [sp, #4]
 2725 118e 93F85430 		ldrb	r3, [r3, #84]	@ zero_extendqisi2
 2726 1192 012B     		cmp	r3, #1
 2727 1194 01D1     		bne	.L195
 2728              		.loc 1 1603 0 is_stmt 0 discriminator 1
 2729 1196 0223     		movs	r3, #2
 2730 1198 52E0     		b	.L196
 2731              	.L195:
 2732              		.loc 1 1603 0 discriminator 2
 2733 119a 019B     		ldr	r3, [sp, #4]
 2734 119c 0122     		movs	r2, #1
 2735 119e 83F85420 		strb	r2, [r3, #84]
 2736              		.loc 1 1606 0 is_stmt 1 discriminator 2
 2737 11a2 0198     		ldr	r0, [sp, #4]
 2738 11a4 6C21     		movs	r1, #108
 2739 11a6 FFF7FEFF 		bl	ADC_ConversionStop
 2740 11aa 0346     		mov	r3, r0
 2741 11ac 8DF80F30 		strb	r3, [sp, #15]
 2742              		.loc 1 1609 0 discriminator 2
 2743 11b0 9DF80F30 		ldrb	r3, [sp, #15]	@ zero_extendqisi2
 2744 11b4 002B     		cmp	r3, #0
 2745 11b6 3DD1     		bne	.L197
 2746              		.loc 1 1612 0
 2747 11b8 019B     		ldr	r3, [sp, #4]
 2748 11ba 1B68     		ldr	r3, [r3]
 2749 11bc 019A     		ldr	r2, [sp, #4]
 2750 11be 1268     		ldr	r2, [r2]
 2751 11c0 D268     		ldr	r2, [r2, #12]
 2752 11c2 22F00102 		bic	r2, r2, #1
 2753 11c6 DA60     		str	r2, [r3, #12]
 2754              		.loc 1 1616 0
 2755 11c8 019B     		ldr	r3, [sp, #4]
 2756 11ca 1B6D     		ldr	r3, [r3, #80]
 2757 11cc 1846     		mov	r0, r3
 2758 11ce FFF7FEFF 		bl	HAL_DMA_Abort
 2759 11d2 0346     		mov	r3, r0
 2760 11d4 8DF80F30 		strb	r3, [sp, #15]
 2761              		.loc 1 1619 0
 2762 11d8 9DF80F30 		ldrb	r3, [sp, #15]	@ zero_extendqisi2
 2763 11dc 002B     		cmp	r3, #0
 2764 11de 05D0     		beq	.L198
 2765              		.loc 1 1622 0
 2766 11e0 019B     		ldr	r3, [sp, #4]
 2767 11e2 9B6D     		ldr	r3, [r3, #88]
 2768 11e4 43F01002 		orr	r2, r3, #16
 2769 11e8 019B     		ldr	r3, [sp, #4]
 2770 11ea 9A65     		str	r2, [r3, #88]
 2771              	.L198:
 2772              		.loc 1 1626 0
 2773 11ec 019B     		ldr	r3, [sp, #4]
 2774 11ee 1B68     		ldr	r3, [r3]
 2775 11f0 019A     		ldr	r2, [sp, #4]
 2776 11f2 1268     		ldr	r2, [r2]
 2777 11f4 5268     		ldr	r2, [r2, #4]
 2778 11f6 22F01002 		bic	r2, r2, #16
ARM GAS  /tmp/ccrsTBIG.s 			page 50


 2779 11fa 5A60     		str	r2, [r3, #4]
 2780              		.loc 1 1631 0
 2781 11fc 9DF80F30 		ldrb	r3, [sp, #15]	@ zero_extendqisi2
 2782 1200 002B     		cmp	r3, #0
 2783 1202 06D1     		bne	.L199
 2784              		.loc 1 1633 0
 2785 1204 0198     		ldr	r0, [sp, #4]
 2786 1206 FFF7FEFF 		bl	ADC_Disable
 2787 120a 0346     		mov	r3, r0
 2788 120c 8DF80F30 		strb	r3, [sp, #15]
 2789 1210 02E0     		b	.L200
 2790              	.L199:
 2791              		.loc 1 1637 0
 2792 1212 0198     		ldr	r0, [sp, #4]
 2793 1214 FFF7FEFF 		bl	ADC_Disable
 2794              	.L200:
 2795              		.loc 1 1641 0
 2796 1218 9DF80F30 		ldrb	r3, [sp, #15]	@ zero_extendqisi2
 2797 121c 002B     		cmp	r3, #0
 2798 121e 09D1     		bne	.L197
 2799              		.loc 1 1645 0
 2800 1220 019B     		ldr	r3, [sp, #4]
 2801 1222 9B6D     		ldr	r3, [r3, #88]
 2802 1224 23F48853 		bic	r3, r3, #4352
 2803 1228 23F00103 		bic	r3, r3, #1
 2804 122c 43F00102 		orr	r2, r3, #1
 2805 1230 019B     		ldr	r3, [sp, #4]
 2806 1232 9A65     		str	r2, [r3, #88]
 2807              	.L197:
 2808              		.loc 1 1651 0
 2809 1234 019B     		ldr	r3, [sp, #4]
 2810 1236 0022     		movs	r2, #0
 2811 1238 83F85420 		strb	r2, [r3, #84]
 2812              		.loc 1 1654 0
 2813 123c 9DF80F30 		ldrb	r3, [sp, #15]	@ zero_extendqisi2
 2814              	.L196:
 2815              		.loc 1 1655 0
 2816 1240 1846     		mov	r0, r3
 2817 1242 05B0     		add	sp, sp, #20
 2818              		@ sp needed
 2819 1244 5DF804FB 		ldr	pc, [sp], #4
 2820              		.cfi_endproc
 2821              	.LFE136:
 2822              		.size	HAL_ADC_Stop_DMA, .-HAL_ADC_Stop_DMA
 2823              		.align	2
 2824 1248 AFF30080 		.p2align 4,,15
 2824      AFF30080 
 2825              		.global	HAL_ADC_GetValue
 2826              		.thumb
 2827              		.thumb_func
 2828              		.type	HAL_ADC_GetValue, %function
 2829              	HAL_ADC_GetValue:
 2830              	.LFB137:
 2831              		.loc 1 1667 0
 2832              		.cfi_startproc
 2833              		@ args = 0, pretend = 0, frame = 8
 2834              		@ frame_needed = 0, uses_anonymous_args = 0
ARM GAS  /tmp/ccrsTBIG.s 			page 51


 2835              		@ link register save eliminated.
 2836 1250 82B0     		sub	sp, sp, #8
 2837              		.cfi_def_cfa_offset 8
 2838 1252 0190     		str	r0, [sp, #4]
 2839              		.loc 1 1672 0
 2840 1254 019B     		ldr	r3, [sp, #4]
 2841 1256 1B68     		ldr	r3, [r3]
 2842 1258 1B6C     		ldr	r3, [r3, #64]
 2843              		.loc 1 1673 0
 2844 125a 1846     		mov	r0, r3
 2845 125c 02B0     		add	sp, sp, #8
 2846              		@ sp needed
 2847 125e 7047     		bx	lr
 2848              		.cfi_endproc
 2849              	.LFE137:
 2850              		.size	HAL_ADC_GetValue, .-HAL_ADC_GetValue
 2851              		.align	2
 2852              		.p2align 4,,15
 2853              		.global	HAL_ADC_IRQHandler
 2854              		.thumb
 2855              		.thumb_func
 2856              		.type	HAL_ADC_IRQHandler, %function
 2857              	HAL_ADC_IRQHandler:
 2858              	.LFB138:
 2859              		.loc 1 1682 0
 2860              		.cfi_startproc
 2861              		@ args = 0, pretend = 0, frame = 32
 2862              		@ frame_needed = 0, uses_anonymous_args = 0
 2863 1260 00B5     		push	{lr}
 2864              		.cfi_def_cfa_offset 4
 2865              		.cfi_offset 14, -4
 2866 1262 89B0     		sub	sp, sp, #36
 2867              		.cfi_def_cfa_offset 40
 2868 1264 0190     		str	r0, [sp, #4]
 2869              		.loc 1 1683 0
 2870 1266 0023     		movs	r3, #0
 2871 1268 0793     		str	r3, [sp, #28]
 2872              		.loc 1 1685 0
 2873 126a 019B     		ldr	r3, [sp, #4]
 2874 126c 1B68     		ldr	r3, [r3]
 2875 126e 1B68     		ldr	r3, [r3]
 2876 1270 0493     		str	r3, [sp, #16]
 2877              		.loc 1 1686 0
 2878 1272 019B     		ldr	r3, [sp, #4]
 2879 1274 1B68     		ldr	r3, [r3]
 2880 1276 5B68     		ldr	r3, [r3, #4]
 2881 1278 0393     		str	r3, [sp, #12]
 2882              		.loc 1 1687 0
 2883 127a 0023     		movs	r3, #0
 2884 127c 0693     		str	r3, [sp, #24]
 2885              		.loc 1 1688 0
 2886 127e 0023     		movs	r3, #0
 2887 1280 0593     		str	r3, [sp, #20]
 2888              		.loc 1 1697 0
 2889 1282 049B     		ldr	r3, [sp, #16]
 2890 1284 03F00203 		and	r3, r3, #2
 2891 1288 002B     		cmp	r3, #0
ARM GAS  /tmp/ccrsTBIG.s 			page 52


 2892 128a 17D0     		beq	.L204
 2893              		.loc 1 1697 0 is_stmt 0 discriminator 1
 2894 128c 039B     		ldr	r3, [sp, #12]
 2895 128e 03F00203 		and	r3, r3, #2
 2896 1292 002B     		cmp	r3, #0
 2897 1294 12D0     		beq	.L204
 2898              		.loc 1 1700 0 is_stmt 1
 2899 1296 019B     		ldr	r3, [sp, #4]
 2900 1298 9B6D     		ldr	r3, [r3, #88]
 2901 129a 03F01003 		and	r3, r3, #16
 2902 129e 002B     		cmp	r3, #0
 2903 12a0 05D1     		bne	.L205
 2904              		.loc 1 1703 0
 2905 12a2 019B     		ldr	r3, [sp, #4]
 2906 12a4 9B6D     		ldr	r3, [r3, #88]
 2907 12a6 43F40062 		orr	r2, r3, #2048
 2908 12aa 019B     		ldr	r3, [sp, #4]
 2909 12ac 9A65     		str	r2, [r3, #88]
 2910              	.L205:
 2911              		.loc 1 1707 0
 2912 12ae 0198     		ldr	r0, [sp, #4]
 2913 12b0 FFF7FEFF 		bl	HAL_ADCEx_EndOfSamplingCallback
 2914              		.loc 1 1710 0
 2915 12b4 019B     		ldr	r3, [sp, #4]
 2916 12b6 1B68     		ldr	r3, [r3]
 2917 12b8 0222     		movs	r2, #2
 2918 12ba 1A60     		str	r2, [r3]
 2919              	.L204:
 2920              		.loc 1 1714 0
 2921 12bc 049B     		ldr	r3, [sp, #16]
 2922 12be 03F00403 		and	r3, r3, #4
 2923 12c2 002B     		cmp	r3, #0
 2924 12c4 04D0     		beq	.L206
 2925              		.loc 1 1714 0 is_stmt 0 discriminator 1
 2926 12c6 039B     		ldr	r3, [sp, #12]
 2927 12c8 03F00403 		and	r3, r3, #4
 2928 12cc 002B     		cmp	r3, #0
 2929 12ce 0BD1     		bne	.L207
 2930              	.L206:
 2931              		.loc 1 1715 0 is_stmt 1 discriminator 2
 2932 12d0 049B     		ldr	r3, [sp, #16]
 2933 12d2 03F00803 		and	r3, r3, #8
 2934              		.loc 1 1714 0 discriminator 2
 2935 12d6 002B     		cmp	r3, #0
 2936 12d8 00F08D80 		beq	.L208
 2937              		.loc 1 1715 0
 2938 12dc 039B     		ldr	r3, [sp, #12]
 2939 12de 03F00803 		and	r3, r3, #8
 2940 12e2 002B     		cmp	r3, #0
 2941 12e4 00F08780 		beq	.L208
 2942              	.L207:
 2943              		.loc 1 1718 0
 2944 12e8 019B     		ldr	r3, [sp, #4]
 2945 12ea 9B6D     		ldr	r3, [r3, #88]
 2946 12ec 03F01003 		and	r3, r3, #16
 2947 12f0 002B     		cmp	r3, #0
 2948 12f2 05D1     		bne	.L209
ARM GAS  /tmp/ccrsTBIG.s 			page 53


 2949              		.loc 1 1721 0
 2950 12f4 019B     		ldr	r3, [sp, #4]
 2951 12f6 9B6D     		ldr	r3, [r3, #88]
 2952 12f8 43F40072 		orr	r2, r3, #512
 2953 12fc 019B     		ldr	r3, [sp, #4]
 2954 12fe 9A65     		str	r2, [r3, #88]
 2955              	.L209:
 2956              		.loc 1 1727 0
 2957 1300 019B     		ldr	r3, [sp, #4]
 2958 1302 1B68     		ldr	r3, [r3]
 2959 1304 DB68     		ldr	r3, [r3, #12]
 2960 1306 03F44063 		and	r3, r3, #3072
 2961 130a 002B     		cmp	r3, #0
 2962 130c 6CD1     		bne	.L210
 2963              		.loc 1 1729 0
 2964 130e 019B     		ldr	r3, [sp, #4]
 2965 1310 1A68     		ldr	r2, [r3]
 2966 1312 7E4B     		ldr	r3, .L253
 2967 1314 9A42     		cmp	r2, r3
 2968 1316 16D0     		beq	.L211
 2969              		.loc 1 1729 0 is_stmt 0 discriminator 1
 2970 1318 019B     		ldr	r3, [sp, #4]
 2971 131a 1A68     		ldr	r2, [r3]
 2972 131c 7C4B     		ldr	r3, .L253+4
 2973 131e 9A42     		cmp	r2, r3
 2974 1320 11D0     		beq	.L211
 2975 1322 7C4B     		ldr	r3, .L253+8
 2976 1324 9B68     		ldr	r3, [r3, #8]
 2977 1326 03F01F03 		and	r3, r3, #31
 2978 132a 002B     		cmp	r3, #0
 2979 132c 0BD0     		beq	.L211
 2980 132e 794B     		ldr	r3, .L253+8
 2981 1330 9B68     		ldr	r3, [r3, #8]
 2982 1332 03F01F03 		and	r3, r3, #31
 2983 1336 052B     		cmp	r3, #5
 2984 1338 05D0     		beq	.L211
 2985 133a 764B     		ldr	r3, .L253+8
 2986 133c 9B68     		ldr	r3, [r3, #8]
 2987 133e 03F01F03 		and	r3, r3, #31
 2988 1342 092B     		cmp	r3, #9
 2989 1344 04D1     		bne	.L212
 2990              	.L211:
 2991              		.loc 1 1732 0 is_stmt 1
 2992 1346 019B     		ldr	r3, [sp, #4]
 2993 1348 1B68     		ldr	r3, [r3]
 2994 134a DB68     		ldr	r3, [r3, #12]
 2995 134c 0693     		str	r3, [sp, #24]
 2996 134e 11E0     		b	.L213
 2997              	.L212:
 2998              		.loc 1 1737 0
 2999 1350 019B     		ldr	r3, [sp, #4]
 3000 1352 1A68     		ldr	r2, [r3]
 3001 1354 6D4B     		ldr	r3, .L253
 3002 1356 9A42     		cmp	r2, r3
 3003 1358 04D0     		beq	.L214
 3004              		.loc 1 1737 0 is_stmt 0 discriminator 2
 3005 135a 019B     		ldr	r3, [sp, #4]
ARM GAS  /tmp/ccrsTBIG.s 			page 54


 3006 135c 1A68     		ldr	r2, [r3]
 3007 135e 6C4B     		ldr	r3, .L253+4
 3008 1360 9A42     		cmp	r2, r3
 3009 1362 02D1     		bne	.L215
 3010              	.L214:
 3011              		.loc 1 1737 0 discriminator 1
 3012 1364 019B     		ldr	r3, [sp, #4]
 3013 1366 1B68     		ldr	r3, [r3]
 3014 1368 00E0     		b	.L216
 3015              	.L215:
 3016 136a 684B     		ldr	r3, .L253
 3017              	.L216:
 3018              		.loc 1 1737 0 discriminator 3
 3019 136c 0293     		str	r3, [sp, #8]
 3020              		.loc 1 1738 0 is_stmt 1 discriminator 3
 3021 136e 029B     		ldr	r3, [sp, #8]
 3022 1370 DB68     		ldr	r3, [r3, #12]
 3023 1372 0693     		str	r3, [sp, #24]
 3024              	.L213:
 3025              		.loc 1 1742 0
 3026 1374 069B     		ldr	r3, [sp, #24]
 3027 1376 03F40053 		and	r3, r3, #8192
 3028 137a 002B     		cmp	r3, #0
 3029 137c 34D1     		bne	.L210
 3030              		.loc 1 1745 0
 3031 137e 019B     		ldr	r3, [sp, #4]
 3032 1380 1B68     		ldr	r3, [r3]
 3033 1382 1B68     		ldr	r3, [r3]
 3034 1384 03F00803 		and	r3, r3, #8
 3035 1388 002B     		cmp	r3, #0
 3036 138a 2DD0     		beq	.L210
 3037              		.loc 1 1749 0
 3038 138c 019B     		ldr	r3, [sp, #4]
 3039 138e 1B68     		ldr	r3, [r3]
 3040 1390 9B68     		ldr	r3, [r3, #8]
 3041 1392 03F00403 		and	r3, r3, #4
 3042 1396 002B     		cmp	r3, #0
 3043 1398 1AD1     		bne	.L217
 3044              		.loc 1 1755 0
 3045 139a 019B     		ldr	r3, [sp, #4]
 3046 139c 1B68     		ldr	r3, [r3]
 3047 139e 019A     		ldr	r2, [sp, #4]
 3048 13a0 1268     		ldr	r2, [r2]
 3049 13a2 5268     		ldr	r2, [r2, #4]
 3050 13a4 22F00C02 		bic	r2, r2, #12
 3051 13a8 5A60     		str	r2, [r3, #4]
 3052              		.loc 1 1757 0
 3053 13aa 019B     		ldr	r3, [sp, #4]
 3054 13ac 9B6D     		ldr	r3, [r3, #88]
 3055 13ae 23F48072 		bic	r2, r3, #256
 3056 13b2 019B     		ldr	r3, [sp, #4]
 3057 13b4 9A65     		str	r2, [r3, #88]
 3058              		.loc 1 1759 0
 3059 13b6 019B     		ldr	r3, [sp, #4]
 3060 13b8 9B6D     		ldr	r3, [r3, #88]
 3061 13ba 03F48053 		and	r3, r3, #4096
 3062 13be 002B     		cmp	r3, #0
ARM GAS  /tmp/ccrsTBIG.s 			page 55


 3063 13c0 12D1     		bne	.L210
 3064              		.loc 1 1761 0
 3065 13c2 019B     		ldr	r3, [sp, #4]
 3066 13c4 9B6D     		ldr	r3, [r3, #88]
 3067 13c6 43F00102 		orr	r2, r3, #1
 3068 13ca 019B     		ldr	r3, [sp, #4]
 3069 13cc 9A65     		str	r2, [r3, #88]
 3070 13ce 0BE0     		b	.L210
 3071              	.L217:
 3072              		.loc 1 1767 0
 3073 13d0 019B     		ldr	r3, [sp, #4]
 3074 13d2 9B6D     		ldr	r3, [r3, #88]
 3075 13d4 43F01002 		orr	r2, r3, #16
 3076 13d8 019B     		ldr	r3, [sp, #4]
 3077 13da 9A65     		str	r2, [r3, #88]
 3078              		.loc 1 1770 0
 3079 13dc 019B     		ldr	r3, [sp, #4]
 3080 13de DB6D     		ldr	r3, [r3, #92]
 3081 13e0 43F00102 		orr	r2, r3, #1
 3082 13e4 019B     		ldr	r3, [sp, #4]
 3083 13e6 DA65     		str	r2, [r3, #92]
 3084              	.L210:
 3085              		.loc 1 1782 0
 3086 13e8 0198     		ldr	r0, [sp, #4]
 3087 13ea FFF7FEFF 		bl	HAL_ADC_ConvCpltCallback
 3088              		.loc 1 1786 0
 3089 13ee 019B     		ldr	r3, [sp, #4]
 3090 13f0 1B68     		ldr	r3, [r3]
 3091 13f2 0C22     		movs	r2, #12
 3092 13f4 1A60     		str	r2, [r3]
 3093              	.L208:
 3094              		.loc 1 1791 0
 3095 13f6 049B     		ldr	r3, [sp, #16]
 3096 13f8 03F02003 		and	r3, r3, #32
 3097 13fc 002B     		cmp	r3, #0
 3098 13fe 04D0     		beq	.L219
 3099              		.loc 1 1791 0 is_stmt 0 discriminator 1
 3100 1400 039B     		ldr	r3, [sp, #12]
 3101 1402 03F02003 		and	r3, r3, #32
 3102 1406 002B     		cmp	r3, #0
 3103 1408 0BD1     		bne	.L220
 3104              	.L219:
 3105              		.loc 1 1792 0 is_stmt 1 discriminator 2
 3106 140a 049B     		ldr	r3, [sp, #16]
 3107 140c 03F04003 		and	r3, r3, #64
 3108              		.loc 1 1791 0 discriminator 2
 3109 1410 002B     		cmp	r3, #0
 3110 1412 00F0D480 		beq	.L221
 3111              		.loc 1 1792 0
 3112 1416 039B     		ldr	r3, [sp, #12]
 3113 1418 03F04003 		and	r3, r3, #64
 3114 141c 002B     		cmp	r3, #0
 3115 141e 00F0CE80 		beq	.L221
 3116              	.L220:
 3117              		.loc 1 1795 0
 3118 1422 019B     		ldr	r3, [sp, #4]
 3119 1424 9B6D     		ldr	r3, [r3, #88]
ARM GAS  /tmp/ccrsTBIG.s 			page 56


 3120 1426 03F01003 		and	r3, r3, #16
 3121 142a 002B     		cmp	r3, #0
 3122 142c 05D1     		bne	.L222
 3123              		.loc 1 1798 0
 3124 142e 019B     		ldr	r3, [sp, #4]
 3125 1430 9B6D     		ldr	r3, [r3, #88]
 3126 1432 43F40052 		orr	r2, r3, #8192
 3127 1436 019B     		ldr	r3, [sp, #4]
 3128 1438 9A65     		str	r2, [r3, #88]
 3129              	.L222:
 3130              		.loc 1 1808 0
 3131 143a 019B     		ldr	r3, [sp, #4]
 3132 143c 1B68     		ldr	r3, [r3]
 3133 143e 1B68     		ldr	r3, [r3]
 3134 1440 03F04003 		and	r3, r3, #64
 3135 1444 002B     		cmp	r3, #0
 3136 1446 00F0B380 		beq	.L223
 3137              		.loc 1 1813 0
 3138 144a 019B     		ldr	r3, [sp, #4]
 3139 144c 1A68     		ldr	r2, [r3]
 3140 144e 2F4B     		ldr	r3, .L253
 3141 1450 9A42     		cmp	r2, r3
 3142 1452 16D0     		beq	.L224
 3143              		.loc 1 1813 0 is_stmt 0 discriminator 1
 3144 1454 019B     		ldr	r3, [sp, #4]
 3145 1456 1A68     		ldr	r2, [r3]
 3146 1458 2D4B     		ldr	r3, .L253+4
 3147 145a 9A42     		cmp	r2, r3
 3148 145c 11D0     		beq	.L224
 3149 145e 2D4B     		ldr	r3, .L253+8
 3150 1460 9B68     		ldr	r3, [r3, #8]
 3151 1462 03F01F03 		and	r3, r3, #31
 3152 1466 002B     		cmp	r3, #0
 3153 1468 0BD0     		beq	.L224
 3154 146a 2A4B     		ldr	r3, .L253+8
 3155 146c 9B68     		ldr	r3, [r3, #8]
 3156 146e 03F01F03 		and	r3, r3, #31
 3157 1472 062B     		cmp	r3, #6
 3158 1474 05D0     		beq	.L224
 3159 1476 274B     		ldr	r3, .L253+8
 3160 1478 9B68     		ldr	r3, [r3, #8]
 3161 147a 03F01F03 		and	r3, r3, #31
 3162 147e 072B     		cmp	r3, #7
 3163 1480 04D1     		bne	.L225
 3164              	.L224:
 3165              		.loc 1 1817 0 is_stmt 1
 3166 1482 019B     		ldr	r3, [sp, #4]
 3167 1484 1B68     		ldr	r3, [r3]
 3168 1486 DB68     		ldr	r3, [r3, #12]
 3169 1488 0593     		str	r3, [sp, #20]
 3170 148a 11E0     		b	.L226
 3171              	.L225:
 3172              		.loc 1 1823 0
 3173 148c 019B     		ldr	r3, [sp, #4]
 3174 148e 1A68     		ldr	r2, [r3]
 3175 1490 1E4B     		ldr	r3, .L253
 3176 1492 9A42     		cmp	r2, r3
ARM GAS  /tmp/ccrsTBIG.s 			page 57


 3177 1494 04D0     		beq	.L227
 3178              		.loc 1 1823 0 is_stmt 0 discriminator 2
 3179 1496 019B     		ldr	r3, [sp, #4]
 3180 1498 1A68     		ldr	r2, [r3]
 3181 149a 1D4B     		ldr	r3, .L253+4
 3182 149c 9A42     		cmp	r2, r3
 3183 149e 02D1     		bne	.L228
 3184              	.L227:
 3185              		.loc 1 1823 0 discriminator 1
 3186 14a0 019B     		ldr	r3, [sp, #4]
 3187 14a2 1B68     		ldr	r3, [r3]
 3188 14a4 00E0     		b	.L229
 3189              	.L228:
 3190 14a6 194B     		ldr	r3, .L253
 3191              	.L229:
 3192              		.loc 1 1823 0 discriminator 3
 3193 14a8 0293     		str	r3, [sp, #8]
 3194              		.loc 1 1824 0 is_stmt 1 discriminator 3
 3195 14aa 029B     		ldr	r3, [sp, #8]
 3196 14ac DB68     		ldr	r3, [r3, #12]
 3197 14ae 0593     		str	r3, [sp, #20]
 3198              	.L226:
 3199              		.loc 1 1827 0
 3200 14b0 019B     		ldr	r3, [sp, #4]
 3201 14b2 1A68     		ldr	r2, [r3]
 3202 14b4 154B     		ldr	r3, .L253
 3203 14b6 9A42     		cmp	r2, r3
 3204 14b8 16D0     		beq	.L230
 3205              		.loc 1 1827 0 is_stmt 0 discriminator 1
 3206 14ba 019B     		ldr	r3, [sp, #4]
 3207 14bc 1A68     		ldr	r2, [r3]
 3208 14be 144B     		ldr	r3, .L253+4
 3209 14c0 9A42     		cmp	r2, r3
 3210 14c2 11D0     		beq	.L230
 3211 14c4 134B     		ldr	r3, .L253+8
 3212 14c6 9B68     		ldr	r3, [r3, #8]
 3213 14c8 03F01F03 		and	r3, r3, #31
 3214 14cc 002B     		cmp	r3, #0
 3215 14ce 0BD0     		beq	.L230
 3216 14d0 104B     		ldr	r3, .L253+8
 3217 14d2 9B68     		ldr	r3, [r3, #8]
 3218 14d4 03F01F03 		and	r3, r3, #31
 3219 14d8 052B     		cmp	r3, #5
 3220 14da 05D0     		beq	.L230
 3221 14dc 0D4B     		ldr	r3, .L253+8
 3222 14de 9B68     		ldr	r3, [r3, #8]
 3223 14e0 03F01F03 		and	r3, r3, #31
 3224 14e4 092B     		cmp	r3, #9
 3225 14e6 04D1     		bne	.L231
 3226              	.L230:
 3227              		.loc 1 1831 0 is_stmt 1
 3228 14e8 019B     		ldr	r3, [sp, #4]
 3229 14ea 1B68     		ldr	r3, [r3]
 3230 14ec DB68     		ldr	r3, [r3, #12]
 3231 14ee 0693     		str	r3, [sp, #24]
 3232 14f0 17E0     		b	.L232
 3233              	.L231:
ARM GAS  /tmp/ccrsTBIG.s 			page 58


 3234              		.loc 1 1837 0
 3235 14f2 019B     		ldr	r3, [sp, #4]
 3236 14f4 1A68     		ldr	r2, [r3]
 3237 14f6 054B     		ldr	r3, .L253
 3238 14f8 9A42     		cmp	r2, r3
 3239 14fa 04D0     		beq	.L233
 3240              		.loc 1 1837 0 is_stmt 0 discriminator 2
 3241 14fc 019B     		ldr	r3, [sp, #4]
 3242 14fe 1A68     		ldr	r2, [r3]
 3243 1500 034B     		ldr	r3, .L253+4
 3244 1502 9A42     		cmp	r2, r3
 3245 1504 08D1     		bne	.L234
 3246              	.L233:
 3247              		.loc 1 1837 0 discriminator 1
 3248 1506 019B     		ldr	r3, [sp, #4]
 3249 1508 1B68     		ldr	r3, [r3]
 3250 150a 06E0     		b	.L235
 3251              	.L254:
 3252              		.align	2
 3253              	.L253:
 3254 150c 00000450 		.word	1342439424
 3255 1510 00020450 		.word	1342439936
 3256 1514 00030450 		.word	1342440192
 3257              	.L234:
 3258 1518 884B     		ldr	r3, .L255
 3259              	.L235:
 3260              		.loc 1 1837 0 discriminator 3
 3261 151a 0293     		str	r3, [sp, #8]
 3262              		.loc 1 1838 0 is_stmt 1 discriminator 3
 3263 151c 029B     		ldr	r3, [sp, #8]
 3264 151e DB68     		ldr	r3, [r3, #12]
 3265 1520 0693     		str	r3, [sp, #24]
 3266              	.L232:
 3267              		.loc 1 1842 0
 3268 1522 019B     		ldr	r3, [sp, #4]
 3269 1524 1B68     		ldr	r3, [r3]
 3270 1526 DB6C     		ldr	r3, [r3, #76]
 3271 1528 03F0C003 		and	r3, r3, #192
 3272 152c 002B     		cmp	r3, #0
 3273 152e 3FD1     		bne	.L223
 3274              		.loc 1 1842 0 is_stmt 0 discriminator 1
 3275 1530 059B     		ldr	r3, [sp, #20]
 3276 1532 03F40013 		and	r3, r3, #2097152
 3277 1536 002B     		cmp	r3, #0
 3278 1538 3AD1     		bne	.L223
 3279              		.loc 1 1843 0 is_stmt 1
 3280 153a 069A     		ldr	r2, [sp, #24]
 3281 153c 804B     		ldr	r3, .L255+4
 3282 153e 1340     		ands	r3, r3, r2
 3283 1540 7F4A     		ldr	r2, .L255+4
 3284 1542 9342     		cmp	r3, r2
 3285 1544 06D1     		bne	.L236
 3286              		.loc 1 1844 0 discriminator 1
 3287 1546 019B     		ldr	r3, [sp, #4]
 3288 1548 1B68     		ldr	r3, [r3]
 3289 154a DB68     		ldr	r3, [r3, #12]
 3290 154c 03F44063 		and	r3, r3, #3072
ARM GAS  /tmp/ccrsTBIG.s 			page 59


 3291              		.loc 1 1843 0 discriminator 1
 3292 1550 002B     		cmp	r3, #0
 3293 1552 2DD0     		beq	.L223
 3294              	.L236:
 3295              		.loc 1 1848 0
 3296 1554 019B     		ldr	r3, [sp, #4]
 3297 1556 1B68     		ldr	r3, [r3]
 3298 1558 9B68     		ldr	r3, [r3, #8]
 3299 155a 03F00803 		and	r3, r3, #8
 3300 155e 002B     		cmp	r3, #0
 3301 1560 1AD1     		bne	.L237
 3302              		.loc 1 1851 0
 3303 1562 019B     		ldr	r3, [sp, #4]
 3304 1564 1B68     		ldr	r3, [r3]
 3305 1566 019A     		ldr	r2, [sp, #4]
 3306 1568 1268     		ldr	r2, [r2]
 3307 156a 5268     		ldr	r2, [r2, #4]
 3308 156c 22F06002 		bic	r2, r2, #96
 3309 1570 5A60     		str	r2, [r3, #4]
 3310              		.loc 1 1853 0
 3311 1572 019B     		ldr	r3, [sp, #4]
 3312 1574 9B6D     		ldr	r3, [r3, #88]
 3313 1576 23F48052 		bic	r2, r3, #4096
 3314 157a 019B     		ldr	r3, [sp, #4]
 3315 157c 9A65     		str	r2, [r3, #88]
 3316              		.loc 1 1855 0
 3317 157e 019B     		ldr	r3, [sp, #4]
 3318 1580 9B6D     		ldr	r3, [r3, #88]
 3319 1582 03F48073 		and	r3, r3, #256
 3320 1586 002B     		cmp	r3, #0
 3321 1588 12D1     		bne	.L223
 3322              		.loc 1 1857 0
 3323 158a 019B     		ldr	r3, [sp, #4]
 3324 158c 9B6D     		ldr	r3, [r3, #88]
 3325 158e 43F00102 		orr	r2, r3, #1
 3326 1592 019B     		ldr	r3, [sp, #4]
 3327 1594 9A65     		str	r2, [r3, #88]
 3328 1596 0BE0     		b	.L223
 3329              	.L237:
 3330              		.loc 1 1863 0
 3331 1598 019B     		ldr	r3, [sp, #4]
 3332 159a 9B6D     		ldr	r3, [r3, #88]
 3333 159c 43F01002 		orr	r2, r3, #16
 3334 15a0 019B     		ldr	r3, [sp, #4]
 3335 15a2 9A65     		str	r2, [r3, #88]
 3336              		.loc 1 1866 0
 3337 15a4 019B     		ldr	r3, [sp, #4]
 3338 15a6 DB6D     		ldr	r3, [r3, #92]
 3339 15a8 43F00102 		orr	r2, r3, #1
 3340 15ac 019B     		ldr	r3, [sp, #4]
 3341 15ae DA65     		str	r2, [r3, #92]
 3342              	.L223:
 3343              		.loc 1 1877 0
 3344 15b0 0198     		ldr	r0, [sp, #4]
 3345 15b2 FFF7FEFF 		bl	HAL_ADCEx_InjectedConvCpltCallback
 3346              		.loc 1 1880 0
 3347 15b6 019B     		ldr	r3, [sp, #4]
ARM GAS  /tmp/ccrsTBIG.s 			page 60


 3348 15b8 1B68     		ldr	r3, [r3]
 3349 15ba 6022     		movs	r2, #96
 3350 15bc 1A60     		str	r2, [r3]
 3351              	.L221:
 3352              		.loc 1 1887 0
 3353 15be 049B     		ldr	r3, [sp, #16]
 3354 15c0 03F08003 		and	r3, r3, #128
 3355 15c4 002B     		cmp	r3, #0
 3356 15c6 11D0     		beq	.L239
 3357              		.loc 1 1887 0 is_stmt 0 discriminator 1
 3358 15c8 039B     		ldr	r3, [sp, #12]
 3359 15ca 03F08003 		and	r3, r3, #128
 3360 15ce 002B     		cmp	r3, #0
 3361 15d0 0CD0     		beq	.L239
 3362              		.loc 1 1890 0 is_stmt 1
 3363 15d2 019B     		ldr	r3, [sp, #4]
 3364 15d4 9B6D     		ldr	r3, [r3, #88]
 3365 15d6 43F48032 		orr	r2, r3, #65536
 3366 15da 019B     		ldr	r3, [sp, #4]
 3367 15dc 9A65     		str	r2, [r3, #88]
 3368              		.loc 1 1893 0
 3369 15de 0198     		ldr	r0, [sp, #4]
 3370 15e0 FFF7FEFF 		bl	HAL_ADC_LevelOutOfWindowCallback
 3371              		.loc 1 1895 0
 3372 15e4 019B     		ldr	r3, [sp, #4]
 3373 15e6 1B68     		ldr	r3, [r3]
 3374 15e8 8022     		movs	r2, #128
 3375 15ea 1A60     		str	r2, [r3]
 3376              	.L239:
 3377              		.loc 1 1899 0
 3378 15ec 049B     		ldr	r3, [sp, #16]
 3379 15ee 03F48073 		and	r3, r3, #256
 3380 15f2 002B     		cmp	r3, #0
 3381 15f4 12D0     		beq	.L240
 3382              		.loc 1 1899 0 is_stmt 0 discriminator 1
 3383 15f6 039B     		ldr	r3, [sp, #12]
 3384 15f8 03F48073 		and	r3, r3, #256
 3385 15fc 002B     		cmp	r3, #0
 3386 15fe 0DD0     		beq	.L240
 3387              		.loc 1 1902 0 is_stmt 1
 3388 1600 019B     		ldr	r3, [sp, #4]
 3389 1602 9B6D     		ldr	r3, [r3, #88]
 3390 1604 43F40032 		orr	r2, r3, #131072
 3391 1608 019B     		ldr	r3, [sp, #4]
 3392 160a 9A65     		str	r2, [r3, #88]
 3393              		.loc 1 1905 0
 3394 160c 0198     		ldr	r0, [sp, #4]
 3395 160e FFF7FEFF 		bl	HAL_ADCEx_LevelOutOfWindow2Callback
 3396              		.loc 1 1907 0
 3397 1612 019B     		ldr	r3, [sp, #4]
 3398 1614 1B68     		ldr	r3, [r3]
 3399 1616 4FF48072 		mov	r2, #256
 3400 161a 1A60     		str	r2, [r3]
 3401              	.L240:
 3402              		.loc 1 1911 0
 3403 161c 049B     		ldr	r3, [sp, #16]
 3404 161e 03F40073 		and	r3, r3, #512
ARM GAS  /tmp/ccrsTBIG.s 			page 61


 3405 1622 002B     		cmp	r3, #0
 3406 1624 12D0     		beq	.L241
 3407              		.loc 1 1911 0 is_stmt 0 discriminator 1
 3408 1626 039B     		ldr	r3, [sp, #12]
 3409 1628 03F40073 		and	r3, r3, #512
 3410 162c 002B     		cmp	r3, #0
 3411 162e 0DD0     		beq	.L241
 3412              		.loc 1 1914 0 is_stmt 1
 3413 1630 019B     		ldr	r3, [sp, #4]
 3414 1632 9B6D     		ldr	r3, [r3, #88]
 3415 1634 43F48022 		orr	r2, r3, #262144
 3416 1638 019B     		ldr	r3, [sp, #4]
 3417 163a 9A65     		str	r2, [r3, #88]
 3418              		.loc 1 1917 0
 3419 163c 0198     		ldr	r0, [sp, #4]
 3420 163e FFF7FEFF 		bl	HAL_ADCEx_LevelOutOfWindow3Callback
 3421              		.loc 1 1919 0
 3422 1642 019B     		ldr	r3, [sp, #4]
 3423 1644 1B68     		ldr	r3, [r3]
 3424 1646 4FF40072 		mov	r2, #512
 3425 164a 1A60     		str	r2, [r3]
 3426              	.L241:
 3427              		.loc 1 1924 0
 3428 164c 049B     		ldr	r3, [sp, #16]
 3429 164e 03F01003 		and	r3, r3, #16
 3430 1652 002B     		cmp	r3, #0
 3431 1654 50D0     		beq	.L242
 3432              		.loc 1 1924 0 is_stmt 0 discriminator 1
 3433 1656 039B     		ldr	r3, [sp, #12]
 3434 1658 03F01003 		and	r3, r3, #16
 3435 165c 002B     		cmp	r3, #0
 3436 165e 4BD0     		beq	.L242
 3437              		.loc 1 1933 0 is_stmt 1
 3438 1660 019B     		ldr	r3, [sp, #4]
 3439 1662 9B6B     		ldr	r3, [r3, #56]
 3440 1664 002B     		cmp	r3, #0
 3441 1666 02D1     		bne	.L243
 3442              		.loc 1 1935 0
 3443 1668 0123     		movs	r3, #1
 3444 166a 0793     		str	r3, [sp, #28]
 3445 166c 2EE0     		b	.L244
 3446              	.L243:
 3447              		.loc 1 1941 0
 3448 166e 019B     		ldr	r3, [sp, #4]
 3449 1670 1A68     		ldr	r2, [r3]
 3450 1672 324B     		ldr	r3, .L255
 3451 1674 9A42     		cmp	r2, r3
 3452 1676 04D0     		beq	.L245
 3453              		.loc 1 1941 0 is_stmt 0 discriminator 2
 3454 1678 019B     		ldr	r3, [sp, #4]
 3455 167a 1A68     		ldr	r2, [r3]
 3456 167c 314B     		ldr	r3, .L255+8
 3457 167e 9A42     		cmp	r2, r3
 3458 1680 07D1     		bne	.L246
 3459              	.L245:
 3460              		.loc 1 1941 0 discriminator 1
 3461 1682 314B     		ldr	r3, .L255+12
ARM GAS  /tmp/ccrsTBIG.s 			page 62


 3462 1684 9B68     		ldr	r3, [r3, #8]
 3463 1686 03F01F03 		and	r3, r3, #31
 3464 168a 002B     		cmp	r3, #0
 3465 168c 01D0     		beq	.L246
 3466              		.loc 1 1941 0 discriminator 3
 3467 168e 0123     		movs	r3, #1
 3468 1690 00E0     		b	.L247
 3469              	.L246:
 3470              		.loc 1 1941 0 discriminator 1
 3471 1692 0023     		movs	r3, #0
 3472              	.L247:
 3473              		.loc 1 1941 0 discriminator 4
 3474 1694 002B     		cmp	r3, #0
 3475 1696 09D1     		bne	.L248
 3476              		.loc 1 1944 0 is_stmt 1
 3477 1698 019B     		ldr	r3, [sp, #4]
 3478 169a 1B68     		ldr	r3, [r3]
 3479 169c DB68     		ldr	r3, [r3, #12]
 3480 169e 03F00103 		and	r3, r3, #1
 3481 16a2 002B     		cmp	r3, #0
 3482 16a4 12D0     		beq	.L244
 3483              		.loc 1 1946 0
 3484 16a6 0123     		movs	r3, #1
 3485 16a8 0793     		str	r3, [sp, #28]
 3486 16aa 0FE0     		b	.L244
 3487              	.L248:
 3488              		.loc 1 1953 0
 3489 16ac 264B     		ldr	r3, .L255+12
 3490 16ae 9B68     		ldr	r3, [r3, #8]
 3491 16b0 03F44043 		and	r3, r3, #49152
 3492 16b4 B3F5004F 		cmp	r3, #32768
 3493 16b8 06D0     		beq	.L250
 3494              		.loc 1 1953 0 is_stmt 0 discriminator 1
 3495 16ba 234B     		ldr	r3, .L255+12
 3496 16bc 9B68     		ldr	r3, [r3, #8]
 3497 16be 03F44043 		and	r3, r3, #49152
 3498 16c2 B3F5404F 		cmp	r3, #49152
 3499 16c6 01D1     		bne	.L244
 3500              	.L250:
 3501              		.loc 1 1955 0 is_stmt 1
 3502 16c8 0123     		movs	r3, #1
 3503 16ca 0793     		str	r3, [sp, #28]
 3504              	.L244:
 3505              		.loc 1 1960 0
 3506 16cc 079B     		ldr	r3, [sp, #28]
 3507 16ce 012B     		cmp	r3, #1
 3508 16d0 0ED1     		bne	.L251
 3509              		.loc 1 1963 0
 3510 16d2 019B     		ldr	r3, [sp, #4]
 3511 16d4 9B6D     		ldr	r3, [r3, #88]
 3512 16d6 43F48062 		orr	r2, r3, #1024
 3513 16da 019B     		ldr	r3, [sp, #4]
 3514 16dc 9A65     		str	r2, [r3, #88]
 3515              		.loc 1 1966 0
 3516 16de 019B     		ldr	r3, [sp, #4]
 3517 16e0 DB6D     		ldr	r3, [r3, #92]
 3518 16e2 43F00202 		orr	r2, r3, #2
ARM GAS  /tmp/ccrsTBIG.s 			page 63


 3519 16e6 019B     		ldr	r3, [sp, #4]
 3520 16e8 DA65     		str	r2, [r3, #92]
 3521              		.loc 1 1969 0
 3522 16ea 0198     		ldr	r0, [sp, #4]
 3523 16ec FFF7FEFF 		bl	HAL_ADC_ErrorCallback
 3524              	.L251:
 3525              		.loc 1 1974 0
 3526 16f0 019B     		ldr	r3, [sp, #4]
 3527 16f2 1B68     		ldr	r3, [r3]
 3528 16f4 1022     		movs	r2, #16
 3529 16f6 1A60     		str	r2, [r3]
 3530              	.L242:
 3531              		.loc 1 1980 0
 3532 16f8 049B     		ldr	r3, [sp, #16]
 3533 16fa 03F48063 		and	r3, r3, #1024
 3534 16fe 002B     		cmp	r3, #0
 3535 1700 18D0     		beq	.L203
 3536              		.loc 1 1980 0 is_stmt 0 discriminator 1
 3537 1702 039B     		ldr	r3, [sp, #12]
 3538 1704 03F48063 		and	r3, r3, #1024
 3539 1708 002B     		cmp	r3, #0
 3540 170a 13D0     		beq	.L203
 3541              		.loc 1 1983 0 is_stmt 1
 3542 170c 019B     		ldr	r3, [sp, #4]
 3543 170e 9B6D     		ldr	r3, [r3, #88]
 3544 1710 43F48042 		orr	r2, r3, #16384
 3545 1714 019B     		ldr	r3, [sp, #4]
 3546 1716 9A65     		str	r2, [r3, #88]
 3547              		.loc 1 1986 0
 3548 1718 019B     		ldr	r3, [sp, #4]
 3549 171a DB6D     		ldr	r3, [r3, #92]
 3550 171c 43F00802 		orr	r2, r3, #8
 3551 1720 019B     		ldr	r3, [sp, #4]
 3552 1722 DA65     		str	r2, [r3, #92]
 3553              		.loc 1 1989 0
 3554 1724 019B     		ldr	r3, [sp, #4]
 3555 1726 1B68     		ldr	r3, [r3]
 3556 1728 4FF48062 		mov	r2, #1024
 3557 172c 1A60     		str	r2, [r3]
 3558              		.loc 1 1992 0
 3559 172e 0198     		ldr	r0, [sp, #4]
 3560 1730 FFF7FEFF 		bl	HAL_ADCEx_InjectedQueueOverflowCallback
 3561              	.L203:
 3562              		.loc 1 1995 0
 3563 1734 09B0     		add	sp, sp, #36
 3564              		@ sp needed
 3565 1736 5DF804FB 		ldr	pc, [sp], #4
 3566              	.L256:
 3567 173a 00BF     		.align	2
 3568              	.L255:
 3569 173c 00000450 		.word	1342439424
 3570 1740 00200002 		.word	33562624
 3571 1744 00010450 		.word	1342439680
 3572 1748 00030450 		.word	1342440192
 3573              		.cfi_endproc
 3574              	.LFE138:
 3575              		.size	HAL_ADC_IRQHandler, .-HAL_ADC_IRQHandler
ARM GAS  /tmp/ccrsTBIG.s 			page 64


 3576              		.align	2
 3577 174c AFF30080 		.p2align 4,,15
 3578              		.weak	HAL_ADC_ConvCpltCallback
 3579              		.thumb
 3580              		.thumb_func
 3581              		.type	HAL_ADC_ConvCpltCallback, %function
 3582              	HAL_ADC_ConvCpltCallback:
 3583              	.LFB139:
 3584              		.loc 1 2003 0
 3585              		.cfi_startproc
 3586              		@ args = 0, pretend = 0, frame = 8
 3587              		@ frame_needed = 0, uses_anonymous_args = 0
 3588              		@ link register save eliminated.
 3589 1750 82B0     		sub	sp, sp, #8
 3590              		.cfi_def_cfa_offset 8
 3591 1752 0190     		str	r0, [sp, #4]
 3592              		.loc 1 2010 0
 3593 1754 02B0     		add	sp, sp, #8
 3594              		@ sp needed
 3595 1756 7047     		bx	lr
 3596              		.cfi_endproc
 3597              	.LFE139:
 3598              		.size	HAL_ADC_ConvCpltCallback, .-HAL_ADC_ConvCpltCallback
 3599              		.align	2
 3600 1758 AFF30080 		.p2align 4,,15
 3600      AFF30080 
 3601              		.weak	HAL_ADC_ConvHalfCpltCallback
 3602              		.thumb
 3603              		.thumb_func
 3604              		.type	HAL_ADC_ConvHalfCpltCallback, %function
 3605              	HAL_ADC_ConvHalfCpltCallback:
 3606              	.LFB140:
 3607              		.loc 1 2018 0
 3608              		.cfi_startproc
 3609              		@ args = 0, pretend = 0, frame = 8
 3610              		@ frame_needed = 0, uses_anonymous_args = 0
 3611              		@ link register save eliminated.
 3612 1760 82B0     		sub	sp, sp, #8
 3613              		.cfi_def_cfa_offset 8
 3614 1762 0190     		str	r0, [sp, #4]
 3615              		.loc 1 2025 0
 3616 1764 02B0     		add	sp, sp, #8
 3617              		@ sp needed
 3618 1766 7047     		bx	lr
 3619              		.cfi_endproc
 3620              	.LFE140:
 3621              		.size	HAL_ADC_ConvHalfCpltCallback, .-HAL_ADC_ConvHalfCpltCallback
 3622              		.align	2
 3623 1768 AFF30080 		.p2align 4,,15
 3623      AFF30080 
 3624              		.weak	HAL_ADC_LevelOutOfWindowCallback
 3625              		.thumb
 3626              		.thumb_func
 3627              		.type	HAL_ADC_LevelOutOfWindowCallback, %function
 3628              	HAL_ADC_LevelOutOfWindowCallback:
 3629              	.LFB141:
 3630              		.loc 1 2033 0
ARM GAS  /tmp/ccrsTBIG.s 			page 65


 3631              		.cfi_startproc
 3632              		@ args = 0, pretend = 0, frame = 8
 3633              		@ frame_needed = 0, uses_anonymous_args = 0
 3634              		@ link register save eliminated.
 3635 1770 82B0     		sub	sp, sp, #8
 3636              		.cfi_def_cfa_offset 8
 3637 1772 0190     		str	r0, [sp, #4]
 3638              		.loc 1 2040 0
 3639 1774 02B0     		add	sp, sp, #8
 3640              		@ sp needed
 3641 1776 7047     		bx	lr
 3642              		.cfi_endproc
 3643              	.LFE141:
 3644              		.size	HAL_ADC_LevelOutOfWindowCallback, .-HAL_ADC_LevelOutOfWindowCallback
 3645              		.align	2
 3646 1778 AFF30080 		.p2align 4,,15
 3646      AFF30080 
 3647              		.weak	HAL_ADC_ErrorCallback
 3648              		.thumb
 3649              		.thumb_func
 3650              		.type	HAL_ADC_ErrorCallback, %function
 3651              	HAL_ADC_ErrorCallback:
 3652              	.LFB142:
 3653              		.loc 1 2049 0
 3654              		.cfi_startproc
 3655              		@ args = 0, pretend = 0, frame = 8
 3656              		@ frame_needed = 0, uses_anonymous_args = 0
 3657              		@ link register save eliminated.
 3658 1780 82B0     		sub	sp, sp, #8
 3659              		.cfi_def_cfa_offset 8
 3660 1782 0190     		str	r0, [sp, #4]
 3661              		.loc 1 2056 0
 3662 1784 02B0     		add	sp, sp, #8
 3663              		@ sp needed
 3664 1786 7047     		bx	lr
 3665              		.cfi_endproc
 3666              	.LFE142:
 3667              		.size	HAL_ADC_ErrorCallback, .-HAL_ADC_ErrorCallback
 3668              		.align	2
 3669 1788 AFF30080 		.p2align 4,,15
 3669      AFF30080 
 3670              		.global	HAL_ADC_ConfigChannel
 3671              		.thumb
 3672              		.thumb_func
 3673              		.type	HAL_ADC_ConfigChannel, %function
 3674              	HAL_ADC_ConfigChannel:
 3675              	.LFB143:
 3676              		.loc 1 2098 0
 3677              		.cfi_startproc
 3678              		@ args = 0, pretend = 0, frame = 216
 3679              		@ frame_needed = 0, uses_anonymous_args = 0
 3680              		@ link register save eliminated.
 3681 1790 10B4     		push	{r4}
 3682              		.cfi_def_cfa_offset 4
 3683              		.cfi_offset 4, -4
 3684 1792 B7B0     		sub	sp, sp, #220
 3685              		.cfi_def_cfa_offset 224
ARM GAS  /tmp/ccrsTBIG.s 			page 66


 3686 1794 0190     		str	r0, [sp, #4]
 3687 1796 0091     		str	r1, [sp]
 3688              		.loc 1 2099 0
 3689 1798 0023     		movs	r3, #0
 3690 179a 8DF8D730 		strb	r3, [sp, #215]
 3691              		.loc 1 2103 0
 3692 179e 0023     		movs	r3, #0
 3693 17a0 0293     		str	r3, [sp, #8]
 3694              		.loc 1 2128 0
 3695 17a2 019B     		ldr	r3, [sp, #4]
 3696 17a4 93F85430 		ldrb	r3, [r3, #84]	@ zero_extendqisi2
 3697 17a8 012B     		cmp	r3, #1
 3698 17aa 01D1     		bne	.L262
 3699              		.loc 1 2128 0 is_stmt 0 discriminator 1
 3700 17ac 0223     		movs	r3, #2
 3701 17ae D2E3     		b	.L263
 3702              	.L262:
 3703              		.loc 1 2128 0 discriminator 2
 3704 17b0 019B     		ldr	r3, [sp, #4]
 3705 17b2 0122     		movs	r2, #1
 3706 17b4 83F85420 		strb	r2, [r3, #84]
 3707              		.loc 1 2136 0 is_stmt 1 discriminator 2
 3708 17b8 019B     		ldr	r3, [sp, #4]
 3709 17ba 1B68     		ldr	r3, [r3]
 3710 17bc 9B68     		ldr	r3, [r3, #8]
 3711 17be 03F00403 		and	r3, r3, #4
 3712 17c2 002B     		cmp	r3, #0
 3713 17c4 40F0B883 		bne	.L264
 3714              		.loc 1 2142 0
 3715 17c8 009B     		ldr	r3, [sp]
 3716 17ca 5B68     		ldr	r3, [r3, #4]
 3717 17cc 042B     		cmp	r3, #4
 3718 17ce 2CD8     		bhi	.L265
 3719              		.loc 1 2144 0
 3720 17d0 019B     		ldr	r3, [sp, #4]
 3721 17d2 1B68     		ldr	r3, [r3]
 3722 17d4 019A     		ldr	r2, [sp, #4]
 3723 17d6 1268     		ldr	r2, [r2]
 3724 17d8 116B     		ldr	r1, [r2, #48]
 3725 17da 4FF4F862 		mov	r2, #1984
 3726 17de 3292     		str	r2, [sp, #200]
 3727              	.LBB72:
 3728              	.LBB73:
 3729              		.loc 2 586 0
 3730 17e0 329A     		ldr	r2, [sp, #200]
 3731              	@ 586 "../../../../../../ChibiOS/os/ext/CMSIS/include/core_cmInstr.h" 1
 3732 17e2 92FAA2F2 		rbit r2, r2
 3733              	@ 0 "" 2
 3734              		.thumb
 3735 17e6 3192     		str	r2, [sp, #196]
 3736              		.loc 2 599 0
 3737 17e8 319A     		ldr	r2, [sp, #196]
 3738              	.LBE73:
 3739              	.LBE72:
 3740              		.loc 1 2144 0
 3741 17ea B2FA82F2 		clz	r2, r2
 3742 17ee 0098     		ldr	r0, [sp]
ARM GAS  /tmp/ccrsTBIG.s 			page 67


 3743 17f0 4068     		ldr	r0, [r0, #4]
 3744 17f2 00FB02F2 		mul	r2, r0, r2
 3745 17f6 1F20     		movs	r0, #31
 3746 17f8 00FA02F2 		lsl	r2, r0, r2
 3747 17fc D243     		mvns	r2, r2
 3748 17fe 1140     		ands	r1, r1, r2
 3749 1800 009A     		ldr	r2, [sp]
 3750 1802 1068     		ldr	r0, [r2]
 3751 1804 4FF4F862 		mov	r2, #1984
 3752 1808 3092     		str	r2, [sp, #192]
 3753              	.LBB74:
 3754              	.LBB75:
 3755              		.loc 2 586 0
 3756 180a 309A     		ldr	r2, [sp, #192]
 3757              	@ 586 "../../../../../../ChibiOS/os/ext/CMSIS/include/core_cmInstr.h" 1
 3758 180c 92FAA2F2 		rbit r2, r2
 3759              	@ 0 "" 2
 3760              		.thumb
 3761 1810 2F92     		str	r2, [sp, #188]
 3762              		.loc 2 599 0
 3763 1812 2F9A     		ldr	r2, [sp, #188]
 3764              	.LBE75:
 3765              	.LBE74:
 3766              		.loc 1 2144 0
 3767 1814 B2FA82F2 		clz	r2, r2
 3768 1818 009C     		ldr	r4, [sp]
 3769 181a 6468     		ldr	r4, [r4, #4]
 3770 181c 04FB02F2 		mul	r2, r4, r2
 3771 1820 00FA02F2 		lsl	r2, r0, r2
 3772 1824 0A43     		orrs	r2, r2, r1
 3773 1826 1A63     		str	r2, [r3, #48]
 3774 1828 93E0     		b	.L268
 3775              	.L265:
 3776              		.loc 1 2149 0
 3777 182a 009B     		ldr	r3, [sp]
 3778 182c 5B68     		ldr	r3, [r3, #4]
 3779 182e 092B     		cmp	r3, #9
 3780 1830 2ED8     		bhi	.L269
 3781              		.loc 1 2151 0
 3782 1832 019B     		ldr	r3, [sp, #4]
 3783 1834 1B68     		ldr	r3, [r3]
 3784 1836 019A     		ldr	r2, [sp, #4]
 3785 1838 1268     		ldr	r2, [r2]
 3786 183a 516B     		ldr	r1, [r2, #52]
 3787 183c 4FF4F862 		mov	r2, #1984
 3788 1840 2E92     		str	r2, [sp, #184]
 3789              	.LBB76:
 3790              	.LBB77:
 3791              		.loc 2 586 0
 3792 1842 2E9A     		ldr	r2, [sp, #184]
 3793              	@ 586 "../../../../../../ChibiOS/os/ext/CMSIS/include/core_cmInstr.h" 1
 3794 1844 92FAA2F2 		rbit r2, r2
 3795              	@ 0 "" 2
 3796              		.thumb
 3797 1848 2D92     		str	r2, [sp, #180]
 3798              		.loc 2 599 0
 3799 184a 2D9A     		ldr	r2, [sp, #180]
ARM GAS  /tmp/ccrsTBIG.s 			page 68


 3800              	.LBE77:
 3801              	.LBE76:
 3802              		.loc 1 2151 0
 3803 184c B2FA82F2 		clz	r2, r2
 3804 1850 0098     		ldr	r0, [sp]
 3805 1852 4068     		ldr	r0, [r0, #4]
 3806 1854 0538     		subs	r0, r0, #5
 3807 1856 00FB02F2 		mul	r2, r0, r2
 3808 185a 1F20     		movs	r0, #31
 3809 185c 00FA02F2 		lsl	r2, r0, r2
 3810 1860 D243     		mvns	r2, r2
 3811 1862 1140     		ands	r1, r1, r2
 3812 1864 009A     		ldr	r2, [sp]
 3813 1866 1068     		ldr	r0, [r2]
 3814 1868 4FF4F862 		mov	r2, #1984
 3815 186c 2C92     		str	r2, [sp, #176]
 3816              	.LBB78:
 3817              	.LBB79:
 3818              		.loc 2 586 0
 3819 186e 2C9A     		ldr	r2, [sp, #176]
 3820              	@ 586 "../../../../../../ChibiOS/os/ext/CMSIS/include/core_cmInstr.h" 1
 3821 1870 92FAA2F2 		rbit r2, r2
 3822              	@ 0 "" 2
 3823              		.thumb
 3824 1874 2B92     		str	r2, [sp, #172]
 3825              		.loc 2 599 0
 3826 1876 2B9A     		ldr	r2, [sp, #172]
 3827              	.LBE79:
 3828              	.LBE78:
 3829              		.loc 1 2151 0
 3830 1878 B2FA82F2 		clz	r2, r2
 3831 187c 009C     		ldr	r4, [sp]
 3832 187e 6468     		ldr	r4, [r4, #4]
 3833 1880 053C     		subs	r4, r4, #5
 3834 1882 04FB02F2 		mul	r2, r4, r2
 3835 1886 00FA02F2 		lsl	r2, r0, r2
 3836 188a 0A43     		orrs	r2, r2, r1
 3837 188c 5A63     		str	r2, [r3, #52]
 3838 188e 60E0     		b	.L268
 3839              	.L269:
 3840              		.loc 1 2156 0
 3841 1890 009B     		ldr	r3, [sp]
 3842 1892 5B68     		ldr	r3, [r3, #4]
 3843 1894 0E2B     		cmp	r3, #14
 3844 1896 2ED8     		bhi	.L272
 3845              		.loc 1 2158 0
 3846 1898 019B     		ldr	r3, [sp, #4]
 3847 189a 1B68     		ldr	r3, [r3]
 3848 189c 019A     		ldr	r2, [sp, #4]
 3849 189e 1268     		ldr	r2, [r2]
 3850 18a0 916B     		ldr	r1, [r2, #56]
 3851 18a2 4FF4F862 		mov	r2, #1984
 3852 18a6 2A92     		str	r2, [sp, #168]
 3853              	.LBB80:
 3854              	.LBB81:
 3855              		.loc 2 586 0
 3856 18a8 2A9A     		ldr	r2, [sp, #168]
ARM GAS  /tmp/ccrsTBIG.s 			page 69


 3857              	@ 586 "../../../../../../ChibiOS/os/ext/CMSIS/include/core_cmInstr.h" 1
 3858 18aa 92FAA2F2 		rbit r2, r2
 3859              	@ 0 "" 2
 3860              		.thumb
 3861 18ae 2992     		str	r2, [sp, #164]
 3862              		.loc 2 599 0
 3863 18b0 299A     		ldr	r2, [sp, #164]
 3864              	.LBE81:
 3865              	.LBE80:
 3866              		.loc 1 2158 0
 3867 18b2 B2FA82F2 		clz	r2, r2
 3868 18b6 0098     		ldr	r0, [sp]
 3869 18b8 4068     		ldr	r0, [r0, #4]
 3870 18ba 0A38     		subs	r0, r0, #10
 3871 18bc 00FB02F2 		mul	r2, r0, r2
 3872 18c0 1F20     		movs	r0, #31
 3873 18c2 00FA02F2 		lsl	r2, r0, r2
 3874 18c6 D243     		mvns	r2, r2
 3875 18c8 1140     		ands	r1, r1, r2
 3876 18ca 009A     		ldr	r2, [sp]
 3877 18cc 1068     		ldr	r0, [r2]
 3878 18ce 4FF4F862 		mov	r2, #1984
 3879 18d2 2892     		str	r2, [sp, #160]
 3880              	.LBB82:
 3881              	.LBB83:
 3882              		.loc 2 586 0
 3883 18d4 289A     		ldr	r2, [sp, #160]
 3884              	@ 586 "../../../../../../ChibiOS/os/ext/CMSIS/include/core_cmInstr.h" 1
 3885 18d6 92FAA2F2 		rbit r2, r2
 3886              	@ 0 "" 2
 3887              		.thumb
 3888 18da 2792     		str	r2, [sp, #156]
 3889              		.loc 2 599 0
 3890 18dc 279A     		ldr	r2, [sp, #156]
 3891              	.LBE83:
 3892              	.LBE82:
 3893              		.loc 1 2158 0
 3894 18de B2FA82F2 		clz	r2, r2
 3895 18e2 009C     		ldr	r4, [sp]
 3896 18e4 6468     		ldr	r4, [r4, #4]
 3897 18e6 0A3C     		subs	r4, r4, #10
 3898 18e8 04FB02F2 		mul	r2, r4, r2
 3899 18ec 00FA02F2 		lsl	r2, r0, r2
 3900 18f0 0A43     		orrs	r2, r2, r1
 3901 18f2 9A63     		str	r2, [r3, #56]
 3902 18f4 2DE0     		b	.L268
 3903              	.L272:
 3904              		.loc 1 2165 0
 3905 18f6 019B     		ldr	r3, [sp, #4]
 3906 18f8 1B68     		ldr	r3, [r3]
 3907 18fa 019A     		ldr	r2, [sp, #4]
 3908 18fc 1268     		ldr	r2, [r2]
 3909 18fe D16B     		ldr	r1, [r2, #60]
 3910 1900 4FF4F862 		mov	r2, #1984
 3911 1904 2692     		str	r2, [sp, #152]
 3912              	.LBB84:
 3913              	.LBB85:
ARM GAS  /tmp/ccrsTBIG.s 			page 70


 3914              		.loc 2 586 0
 3915 1906 269A     		ldr	r2, [sp, #152]
 3916              	@ 586 "../../../../../../ChibiOS/os/ext/CMSIS/include/core_cmInstr.h" 1
 3917 1908 92FAA2F2 		rbit r2, r2
 3918              	@ 0 "" 2
 3919              		.thumb
 3920 190c 2592     		str	r2, [sp, #148]
 3921              		.loc 2 599 0
 3922 190e 259A     		ldr	r2, [sp, #148]
 3923              	.LBE85:
 3924              	.LBE84:
 3925              		.loc 1 2165 0
 3926 1910 B2FA82F2 		clz	r2, r2
 3927 1914 0098     		ldr	r0, [sp]
 3928 1916 4068     		ldr	r0, [r0, #4]
 3929 1918 0F38     		subs	r0, r0, #15
 3930 191a 00FB02F2 		mul	r2, r0, r2
 3931 191e 1F20     		movs	r0, #31
 3932 1920 00FA02F2 		lsl	r2, r0, r2
 3933 1924 D243     		mvns	r2, r2
 3934 1926 1140     		ands	r1, r1, r2
 3935 1928 009A     		ldr	r2, [sp]
 3936 192a 1068     		ldr	r0, [r2]
 3937 192c 4FF4F862 		mov	r2, #1984
 3938 1930 2492     		str	r2, [sp, #144]
 3939              	.LBB86:
 3940              	.LBB87:
 3941              		.loc 2 586 0
 3942 1932 249A     		ldr	r2, [sp, #144]
 3943              	@ 586 "../../../../../../ChibiOS/os/ext/CMSIS/include/core_cmInstr.h" 1
 3944 1934 92FAA2F2 		rbit r2, r2
 3945              	@ 0 "" 2
 3946              		.thumb
 3947 1938 2392     		str	r2, [sp, #140]
 3948              		.loc 2 599 0
 3949 193a 239A     		ldr	r2, [sp, #140]
 3950              	.LBE87:
 3951              	.LBE86:
 3952              		.loc 1 2165 0
 3953 193c B2FA82F2 		clz	r2, r2
 3954 1940 009C     		ldr	r4, [sp]
 3955 1942 6468     		ldr	r4, [r4, #4]
 3956 1944 0F3C     		subs	r4, r4, #15
 3957 1946 04FB02F2 		mul	r2, r4, r2
 3958 194a 00FA02F2 		lsl	r2, r0, r2
 3959 194e 0A43     		orrs	r2, r2, r1
 3960 1950 DA63     		str	r2, [r3, #60]
 3961              	.L268:
 3962              		.loc 1 2176 0
 3963 1952 019B     		ldr	r3, [sp, #4]
 3964 1954 1B68     		ldr	r3, [r3]
 3965 1956 9B68     		ldr	r3, [r3, #8]
 3966 1958 03F00C03 		and	r3, r3, #12
 3967 195c 002B     		cmp	r3, #0
 3968 195e 40F05981 		bne	.L277
 3969              		.loc 1 2182 0
 3970 1962 009B     		ldr	r3, [sp]
ARM GAS  /tmp/ccrsTBIG.s 			page 71


 3971 1964 1B68     		ldr	r3, [r3]
 3972 1966 092B     		cmp	r3, #9
 3973 1968 2CD9     		bls	.L278
 3974              		.loc 1 2184 0
 3975 196a 019B     		ldr	r3, [sp, #4]
 3976 196c 1B68     		ldr	r3, [r3]
 3977 196e 019A     		ldr	r2, [sp, #4]
 3978 1970 1268     		ldr	r2, [r2]
 3979 1972 9169     		ldr	r1, [r2, #24]
 3980 1974 3822     		movs	r2, #56
 3981 1976 2292     		str	r2, [sp, #136]
 3982              	.LBB88:
 3983              	.LBB89:
 3984              		.loc 2 586 0
 3985 1978 229A     		ldr	r2, [sp, #136]
 3986              	@ 586 "../../../../../../ChibiOS/os/ext/CMSIS/include/core_cmInstr.h" 1
 3987 197a 92FAA2F2 		rbit r2, r2
 3988              	@ 0 "" 2
 3989              		.thumb
 3990 197e 2192     		str	r2, [sp, #132]
 3991              		.loc 2 599 0
 3992 1980 219A     		ldr	r2, [sp, #132]
 3993              	.LBE89:
 3994              	.LBE88:
 3995              		.loc 1 2184 0
 3996 1982 B2FA82F2 		clz	r2, r2
 3997 1986 0098     		ldr	r0, [sp]
 3998 1988 0068     		ldr	r0, [r0]
 3999 198a 0A38     		subs	r0, r0, #10
 4000 198c 00FB02F2 		mul	r2, r0, r2
 4001 1990 0720     		movs	r0, #7
 4002 1992 00FA02F2 		lsl	r2, r0, r2
 4003 1996 D243     		mvns	r2, r2
 4004 1998 1140     		ands	r1, r1, r2
 4005 199a 009A     		ldr	r2, [sp]
 4006 199c 9068     		ldr	r0, [r2, #8]
 4007 199e 3822     		movs	r2, #56
 4008 19a0 2092     		str	r2, [sp, #128]
 4009              	.LBB90:
 4010              	.LBB91:
 4011              		.loc 2 586 0
 4012 19a2 209A     		ldr	r2, [sp, #128]
 4013              	@ 586 "../../../../../../ChibiOS/os/ext/CMSIS/include/core_cmInstr.h" 1
 4014 19a4 92FAA2F2 		rbit r2, r2
 4015              	@ 0 "" 2
 4016              		.thumb
 4017 19a8 1F92     		str	r2, [sp, #124]
 4018              		.loc 2 599 0
 4019 19aa 1F9A     		ldr	r2, [sp, #124]
 4020              	.LBE91:
 4021              	.LBE90:
 4022              		.loc 1 2184 0
 4023 19ac B2FA82F2 		clz	r2, r2
 4024 19b0 009C     		ldr	r4, [sp]
 4025 19b2 2468     		ldr	r4, [r4]
 4026 19b4 0A3C     		subs	r4, r4, #10
 4027 19b6 04FB02F2 		mul	r2, r4, r2
ARM GAS  /tmp/ccrsTBIG.s 			page 72


 4028 19ba 00FA02F2 		lsl	r2, r0, r2
 4029 19be 0A43     		orrs	r2, r2, r1
 4030 19c0 9A61     		str	r2, [r3, #24]
 4031 19c2 29E0     		b	.L281
 4032              	.L278:
 4033              		.loc 1 2188 0
 4034 19c4 019B     		ldr	r3, [sp, #4]
 4035 19c6 1B68     		ldr	r3, [r3]
 4036 19c8 019A     		ldr	r2, [sp, #4]
 4037 19ca 1268     		ldr	r2, [r2]
 4038 19cc 5169     		ldr	r1, [r2, #20]
 4039 19ce 3822     		movs	r2, #56
 4040 19d0 1E92     		str	r2, [sp, #120]
 4041              	.LBB92:
 4042              	.LBB93:
 4043              		.loc 2 586 0
 4044 19d2 1E9A     		ldr	r2, [sp, #120]
 4045              	@ 586 "../../../../../../ChibiOS/os/ext/CMSIS/include/core_cmInstr.h" 1
 4046 19d4 92FAA2F2 		rbit r2, r2
 4047              	@ 0 "" 2
 4048              		.thumb
 4049 19d8 1D92     		str	r2, [sp, #116]
 4050              		.loc 2 599 0
 4051 19da 1D9A     		ldr	r2, [sp, #116]
 4052              	.LBE93:
 4053              	.LBE92:
 4054              		.loc 1 2188 0
 4055 19dc B2FA82F2 		clz	r2, r2
 4056 19e0 0098     		ldr	r0, [sp]
 4057 19e2 0068     		ldr	r0, [r0]
 4058 19e4 00FB02F2 		mul	r2, r0, r2
 4059 19e8 0720     		movs	r0, #7
 4060 19ea 00FA02F2 		lsl	r2, r0, r2
 4061 19ee D243     		mvns	r2, r2
 4062 19f0 1140     		ands	r1, r1, r2
 4063 19f2 009A     		ldr	r2, [sp]
 4064 19f4 9068     		ldr	r0, [r2, #8]
 4065 19f6 3822     		movs	r2, #56
 4066 19f8 1C92     		str	r2, [sp, #112]
 4067              	.LBB94:
 4068              	.LBB95:
 4069              		.loc 2 586 0
 4070 19fa 1C9A     		ldr	r2, [sp, #112]
 4071              	@ 586 "../../../../../../ChibiOS/os/ext/CMSIS/include/core_cmInstr.h" 1
 4072 19fc 92FAA2F2 		rbit r2, r2
 4073              	@ 0 "" 2
 4074              		.thumb
 4075 1a00 1B92     		str	r2, [sp, #108]
 4076              		.loc 2 599 0
 4077 1a02 1B9A     		ldr	r2, [sp, #108]
 4078              	.LBE95:
 4079              	.LBE94:
 4080              		.loc 1 2188 0
 4081 1a04 B2FA82F2 		clz	r2, r2
 4082 1a08 009C     		ldr	r4, [sp]
 4083 1a0a 2468     		ldr	r4, [r4]
 4084 1a0c 04FB02F2 		mul	r2, r4, r2
ARM GAS  /tmp/ccrsTBIG.s 			page 73


 4085 1a10 00FA02F2 		lsl	r2, r0, r2
 4086 1a14 0A43     		orrs	r2, r2, r1
 4087 1a16 5A61     		str	r2, [r3, #20]
 4088              	.L281:
 4089              		.loc 1 2196 0
 4090 1a18 009B     		ldr	r3, [sp]
 4091 1a1a 5A69     		ldr	r2, [r3, #20]
 4092 1a1c 019B     		ldr	r3, [sp, #4]
 4093 1a1e 1B68     		ldr	r3, [r3]
 4094 1a20 DB68     		ldr	r3, [r3, #12]
 4095 1a22 03F01803 		and	r3, r3, #24
 4096 1a26 DB08     		lsrs	r3, r3, #3
 4097 1a28 5B00     		lsls	r3, r3, #1
 4098 1a2a 02FA03F3 		lsl	r3, r2, r3
 4099 1a2e 3493     		str	r3, [sp, #208]
 4100              		.loc 1 2198 0
 4101 1a30 009B     		ldr	r3, [sp]
 4102 1a32 1B69     		ldr	r3, [r3, #16]
 4103 1a34 013B     		subs	r3, r3, #1
 4104 1a36 032B     		cmp	r3, #3
 4105 1a38 76D8     		bhi	.L284
 4106 1a3a 01A1     		adr	r1, .L286
 4107 1a3c 51F823F0 		ldr	pc, [r1, r3, lsl #2]
 4108              		.p2align 2
 4109              	.L286:
 4110 1a40 511A0000 		.word	.L285+1
 4111 1a44 871A0000 		.word	.L287+1
 4112 1a48 BD1A0000 		.word	.L288+1
 4113 1a4c F31A0000 		.word	.L289+1
 4114              		.p2align 1
 4115              	.L285:
 4116              		.loc 1 2205 0
 4117 1a50 019B     		ldr	r3, [sp, #4]
 4118 1a52 1A68     		ldr	r2, [r3]
 4119 1a54 019B     		ldr	r3, [sp, #4]
 4120 1a56 1B68     		ldr	r3, [r3]
 4121 1a58 196E     		ldr	r1, [r3, #96]
 4122 1a5a A24B     		ldr	r3, .L345
 4123 1a5c 0B40     		ands	r3, r3, r1
 4124 1a5e 0099     		ldr	r1, [sp]
 4125 1a60 0868     		ldr	r0, [r1]
 4126 1a62 4FF0F841 		mov	r1, #2080374784
 4127 1a66 1A91     		str	r1, [sp, #104]
 4128              	.LBB96:
 4129              	.LBB97:
 4130              		.loc 2 586 0
 4131 1a68 1A99     		ldr	r1, [sp, #104]
 4132              	@ 586 "../../../../../../ChibiOS/os/ext/CMSIS/include/core_cmInstr.h" 1
 4133 1a6a 91FAA1F1 		rbit r1, r1
 4134              	@ 0 "" 2
 4135              		.thumb
 4136 1a6e 1991     		str	r1, [sp, #100]
 4137              		.loc 2 599 0
 4138 1a70 1999     		ldr	r1, [sp, #100]
 4139              	.LBE97:
 4140              	.LBE96:
 4141              		.loc 1 2205 0
ARM GAS  /tmp/ccrsTBIG.s 			page 74


 4142 1a72 B1FA81F1 		clz	r1, r1
 4143 1a76 8840     		lsls	r0, r0, r1
 4144 1a78 3499     		ldr	r1, [sp, #208]
 4145 1a7a 0143     		orrs	r1, r1, r0
 4146 1a7c 0B43     		orrs	r3, r3, r1
 4147 1a7e 43F00043 		orr	r3, r3, #-2147483648
 4148 1a82 1366     		str	r3, [r2, #96]
 4149              		.loc 1 2208 0
 4150 1a84 C6E0     		b	.L277
 4151              	.L287:
 4152              		.loc 1 2211 0
 4153 1a86 019B     		ldr	r3, [sp, #4]
 4154 1a88 1A68     		ldr	r2, [r3]
 4155 1a8a 019B     		ldr	r3, [sp, #4]
 4156 1a8c 1B68     		ldr	r3, [r3]
 4157 1a8e 596E     		ldr	r1, [r3, #100]
 4158 1a90 944B     		ldr	r3, .L345
 4159 1a92 0B40     		ands	r3, r3, r1
 4160 1a94 0099     		ldr	r1, [sp]
 4161 1a96 0868     		ldr	r0, [r1]
 4162 1a98 4FF0F841 		mov	r1, #2080374784
 4163 1a9c 1891     		str	r1, [sp, #96]
 4164              	.LBB98:
 4165              	.LBB99:
 4166              		.loc 2 586 0
 4167 1a9e 1899     		ldr	r1, [sp, #96]
 4168              	@ 586 "../../../../../../ChibiOS/os/ext/CMSIS/include/core_cmInstr.h" 1
 4169 1aa0 91FAA1F1 		rbit r1, r1
 4170              	@ 0 "" 2
 4171              		.thumb
 4172 1aa4 1791     		str	r1, [sp, #92]
 4173              		.loc 2 599 0
 4174 1aa6 1799     		ldr	r1, [sp, #92]
 4175              	.LBE99:
 4176              	.LBE98:
 4177              		.loc 1 2211 0
 4178 1aa8 B1FA81F1 		clz	r1, r1
 4179 1aac 8840     		lsls	r0, r0, r1
 4180 1aae 3499     		ldr	r1, [sp, #208]
 4181 1ab0 0143     		orrs	r1, r1, r0
 4182 1ab2 0B43     		orrs	r3, r3, r1
 4183 1ab4 43F00043 		orr	r3, r3, #-2147483648
 4184 1ab8 5366     		str	r3, [r2, #100]
 4185              		.loc 1 2214 0
 4186 1aba ABE0     		b	.L277
 4187              	.L288:
 4188              		.loc 1 2217 0
 4189 1abc 019B     		ldr	r3, [sp, #4]
 4190 1abe 1A68     		ldr	r2, [r3]
 4191 1ac0 019B     		ldr	r3, [sp, #4]
 4192 1ac2 1B68     		ldr	r3, [r3]
 4193 1ac4 996E     		ldr	r1, [r3, #104]
 4194 1ac6 874B     		ldr	r3, .L345
 4195 1ac8 0B40     		ands	r3, r3, r1
 4196 1aca 0099     		ldr	r1, [sp]
 4197 1acc 0868     		ldr	r0, [r1]
 4198 1ace 4FF0F841 		mov	r1, #2080374784
ARM GAS  /tmp/ccrsTBIG.s 			page 75


 4199 1ad2 1691     		str	r1, [sp, #88]
 4200              	.LBB100:
 4201              	.LBB101:
 4202              		.loc 2 586 0
 4203 1ad4 1699     		ldr	r1, [sp, #88]
 4204              	@ 586 "../../../../../../ChibiOS/os/ext/CMSIS/include/core_cmInstr.h" 1
 4205 1ad6 91FAA1F1 		rbit r1, r1
 4206              	@ 0 "" 2
 4207              		.thumb
 4208 1ada 1591     		str	r1, [sp, #84]
 4209              		.loc 2 599 0
 4210 1adc 1599     		ldr	r1, [sp, #84]
 4211              	.LBE101:
 4212              	.LBE100:
 4213              		.loc 1 2217 0
 4214 1ade B1FA81F1 		clz	r1, r1
 4215 1ae2 8840     		lsls	r0, r0, r1
 4216 1ae4 3499     		ldr	r1, [sp, #208]
 4217 1ae6 0143     		orrs	r1, r1, r0
 4218 1ae8 0B43     		orrs	r3, r3, r1
 4219 1aea 43F00043 		orr	r3, r3, #-2147483648
 4220 1aee 9366     		str	r3, [r2, #104]
 4221              		.loc 1 2220 0
 4222 1af0 90E0     		b	.L277
 4223              	.L289:
 4224              		.loc 1 2223 0
 4225 1af2 019B     		ldr	r3, [sp, #4]
 4226 1af4 1A68     		ldr	r2, [r3]
 4227 1af6 019B     		ldr	r3, [sp, #4]
 4228 1af8 1B68     		ldr	r3, [r3]
 4229 1afa D96E     		ldr	r1, [r3, #108]
 4230 1afc 794B     		ldr	r3, .L345
 4231 1afe 0B40     		ands	r3, r3, r1
 4232 1b00 0099     		ldr	r1, [sp]
 4233 1b02 0868     		ldr	r0, [r1]
 4234 1b04 4FF0F841 		mov	r1, #2080374784
 4235 1b08 1491     		str	r1, [sp, #80]
 4236              	.LBB102:
 4237              	.LBB103:
 4238              		.loc 2 586 0
 4239 1b0a 1499     		ldr	r1, [sp, #80]
 4240              	@ 586 "../../../../../../ChibiOS/os/ext/CMSIS/include/core_cmInstr.h" 1
 4241 1b0c 91FAA1F1 		rbit r1, r1
 4242              	@ 0 "" 2
 4243              		.thumb
 4244 1b10 1391     		str	r1, [sp, #76]
 4245              		.loc 2 599 0
 4246 1b12 1399     		ldr	r1, [sp, #76]
 4247              	.LBE103:
 4248              	.LBE102:
 4249              		.loc 1 2223 0
 4250 1b14 B1FA81F1 		clz	r1, r1
 4251 1b18 8840     		lsls	r0, r0, r1
 4252 1b1a 3499     		ldr	r1, [sp, #208]
 4253 1b1c 0143     		orrs	r1, r1, r0
 4254 1b1e 0B43     		orrs	r3, r3, r1
 4255 1b20 43F00043 		orr	r3, r3, #-2147483648
ARM GAS  /tmp/ccrsTBIG.s 			page 76


 4256 1b24 D366     		str	r3, [r2, #108]
 4257              		.loc 1 2226 0
 4258 1b26 75E0     		b	.L277
 4259              	.L284:
 4260              		.loc 1 2233 0
 4261 1b28 019B     		ldr	r3, [sp, #4]
 4262 1b2a 1B68     		ldr	r3, [r3]
 4263 1b2c 1B6E     		ldr	r3, [r3, #96]
 4264 1b2e 03F0F842 		and	r2, r3, #2080374784
 4265 1b32 009B     		ldr	r3, [sp]
 4266 1b34 1968     		ldr	r1, [r3]
 4267 1b36 4FF0F843 		mov	r3, #2080374784
 4268 1b3a 1293     		str	r3, [sp, #72]
 4269              	.LBB104:
 4270              	.LBB105:
 4271              		.loc 2 586 0
 4272 1b3c 129B     		ldr	r3, [sp, #72]
 4273              	@ 586 "../../../../../../ChibiOS/os/ext/CMSIS/include/core_cmInstr.h" 1
 4274 1b3e 93FAA3F3 		rbit r3, r3
 4275              	@ 0 "" 2
 4276              		.thumb
 4277 1b42 1193     		str	r3, [sp, #68]
 4278              		.loc 2 599 0
 4279 1b44 119B     		ldr	r3, [sp, #68]
 4280              	.LBE105:
 4281              	.LBE104:
 4282              		.loc 1 2233 0
 4283 1b46 B3FA83F3 		clz	r3, r3
 4284 1b4a 01FA03F3 		lsl	r3, r1, r3
 4285 1b4e 9A42     		cmp	r2, r3
 4286 1b50 07D1     		bne	.L295
 4287              		.loc 1 2235 0
 4288 1b52 019B     		ldr	r3, [sp, #4]
 4289 1b54 1B68     		ldr	r3, [r3]
 4290 1b56 019A     		ldr	r2, [sp, #4]
 4291 1b58 1268     		ldr	r2, [r2]
 4292 1b5a 126E     		ldr	r2, [r2, #96]
 4293 1b5c 22F00042 		bic	r2, r2, #-2147483648
 4294 1b60 1A66     		str	r2, [r3, #96]
 4295              	.L295:
 4296              		.loc 1 2237 0
 4297 1b62 019B     		ldr	r3, [sp, #4]
 4298 1b64 1B68     		ldr	r3, [r3]
 4299 1b66 5B6E     		ldr	r3, [r3, #100]
 4300 1b68 03F0F842 		and	r2, r3, #2080374784
 4301 1b6c 009B     		ldr	r3, [sp]
 4302 1b6e 1968     		ldr	r1, [r3]
 4303 1b70 4FF0F843 		mov	r3, #2080374784
 4304 1b74 1093     		str	r3, [sp, #64]
 4305              	.LBB106:
 4306              	.LBB107:
 4307              		.loc 2 586 0
 4308 1b76 109B     		ldr	r3, [sp, #64]
 4309              	@ 586 "../../../../../../ChibiOS/os/ext/CMSIS/include/core_cmInstr.h" 1
 4310 1b78 93FAA3F3 		rbit r3, r3
 4311              	@ 0 "" 2
 4312              		.thumb
ARM GAS  /tmp/ccrsTBIG.s 			page 77


 4313 1b7c 0F93     		str	r3, [sp, #60]
 4314              		.loc 2 599 0
 4315 1b7e 0F9B     		ldr	r3, [sp, #60]
 4316              	.LBE107:
 4317              	.LBE106:
 4318              		.loc 1 2237 0
 4319 1b80 B3FA83F3 		clz	r3, r3
 4320 1b84 01FA03F3 		lsl	r3, r1, r3
 4321 1b88 9A42     		cmp	r2, r3
 4322 1b8a 07D1     		bne	.L297
 4323              		.loc 1 2239 0
 4324 1b8c 019B     		ldr	r3, [sp, #4]
 4325 1b8e 1B68     		ldr	r3, [r3]
 4326 1b90 019A     		ldr	r2, [sp, #4]
 4327 1b92 1268     		ldr	r2, [r2]
 4328 1b94 526E     		ldr	r2, [r2, #100]
 4329 1b96 22F00042 		bic	r2, r2, #-2147483648
 4330 1b9a 5A66     		str	r2, [r3, #100]
 4331              	.L297:
 4332              		.loc 1 2241 0
 4333 1b9c 019B     		ldr	r3, [sp, #4]
 4334 1b9e 1B68     		ldr	r3, [r3]
 4335 1ba0 9B6E     		ldr	r3, [r3, #104]
 4336 1ba2 03F0F842 		and	r2, r3, #2080374784
 4337 1ba6 009B     		ldr	r3, [sp]
 4338 1ba8 1968     		ldr	r1, [r3]
 4339 1baa 4FF0F843 		mov	r3, #2080374784
 4340 1bae 0E93     		str	r3, [sp, #56]
 4341              	.LBB108:
 4342              	.LBB109:
 4343              		.loc 2 586 0
 4344 1bb0 0E9B     		ldr	r3, [sp, #56]
 4345              	@ 586 "../../../../../../ChibiOS/os/ext/CMSIS/include/core_cmInstr.h" 1
 4346 1bb2 93FAA3F3 		rbit r3, r3
 4347              	@ 0 "" 2
 4348              		.thumb
 4349 1bb6 0D93     		str	r3, [sp, #52]
 4350              		.loc 2 599 0
 4351 1bb8 0D9B     		ldr	r3, [sp, #52]
 4352              	.LBE109:
 4353              	.LBE108:
 4354              		.loc 1 2241 0
 4355 1bba B3FA83F3 		clz	r3, r3
 4356 1bbe 01FA03F3 		lsl	r3, r1, r3
 4357 1bc2 9A42     		cmp	r2, r3
 4358 1bc4 07D1     		bne	.L299
 4359              		.loc 1 2243 0
 4360 1bc6 019B     		ldr	r3, [sp, #4]
 4361 1bc8 1B68     		ldr	r3, [r3]
 4362 1bca 019A     		ldr	r2, [sp, #4]
 4363 1bcc 1268     		ldr	r2, [r2]
 4364 1bce 926E     		ldr	r2, [r2, #104]
 4365 1bd0 22F00042 		bic	r2, r2, #-2147483648
 4366 1bd4 9A66     		str	r2, [r3, #104]
 4367              	.L299:
 4368              		.loc 1 2245 0
 4369 1bd6 019B     		ldr	r3, [sp, #4]
ARM GAS  /tmp/ccrsTBIG.s 			page 78


 4370 1bd8 1B68     		ldr	r3, [r3]
 4371 1bda DB6E     		ldr	r3, [r3, #108]
 4372 1bdc 03F0F842 		and	r2, r3, #2080374784
 4373 1be0 009B     		ldr	r3, [sp]
 4374 1be2 1968     		ldr	r1, [r3]
 4375 1be4 4FF0F843 		mov	r3, #2080374784
 4376 1be8 0C93     		str	r3, [sp, #48]
 4377              	.LBB110:
 4378              	.LBB111:
 4379              		.loc 2 586 0
 4380 1bea 0C9B     		ldr	r3, [sp, #48]
 4381              	@ 586 "../../../../../../ChibiOS/os/ext/CMSIS/include/core_cmInstr.h" 1
 4382 1bec 93FAA3F3 		rbit r3, r3
 4383              	@ 0 "" 2
 4384              		.thumb
 4385 1bf0 0B93     		str	r3, [sp, #44]
 4386              		.loc 2 599 0
 4387 1bf2 0B9B     		ldr	r3, [sp, #44]
 4388              	.LBE111:
 4389              	.LBE110:
 4390              		.loc 1 2245 0
 4391 1bf4 B3FA83F3 		clz	r3, r3
 4392 1bf8 01FA03F3 		lsl	r3, r1, r3
 4393 1bfc 9A42     		cmp	r2, r3
 4394 1bfe 08D1     		bne	.L301
 4395              		.loc 1 2247 0
 4396 1c00 019B     		ldr	r3, [sp, #4]
 4397 1c02 1B68     		ldr	r3, [r3]
 4398 1c04 019A     		ldr	r2, [sp, #4]
 4399 1c06 1268     		ldr	r2, [r2]
 4400 1c08 D26E     		ldr	r2, [r2, #108]
 4401 1c0a 22F00042 		bic	r2, r2, #-2147483648
 4402 1c0e DA66     		str	r2, [r3, #108]
 4403              		.loc 1 2249 0
 4404 1c10 FFE7     		b	.L344
 4405              	.L301:
 4406              	.L344:
 4407 1c12 00BF     		nop
 4408              	.L277:
 4409              		.loc 1 2260 0
 4410 1c14 019B     		ldr	r3, [sp, #4]
 4411 1c16 1B68     		ldr	r3, [r3]
 4412 1c18 9B68     		ldr	r3, [r3, #8]
 4413 1c1a 03F00303 		and	r3, r3, #3
 4414 1c1e 012B     		cmp	r3, #1
 4415 1c20 08D1     		bne	.L302
 4416              		.loc 1 2260 0 is_stmt 0 discriminator 1
 4417 1c22 019B     		ldr	r3, [sp, #4]
 4418 1c24 1B68     		ldr	r3, [r3]
 4419 1c26 1B68     		ldr	r3, [r3]
 4420 1c28 03F00103 		and	r3, r3, #1
 4421 1c2c 002B     		cmp	r3, #0
 4422 1c2e 01D0     		beq	.L302
 4423              		.loc 1 2260 0 discriminator 3
 4424 1c30 0123     		movs	r3, #1
 4425 1c32 00E0     		b	.L303
 4426              	.L302:
ARM GAS  /tmp/ccrsTBIG.s 			page 79


 4427              		.loc 1 2260 0 discriminator 2
 4428 1c34 0023     		movs	r3, #0
 4429              	.L303:
 4430              		.loc 1 2260 0 discriminator 4
 4431 1c36 002B     		cmp	r3, #0
 4432 1c38 40F08781 		bne	.L343
 4433              		.loc 1 2263 0 is_stmt 1
 4434 1c3c 009B     		ldr	r3, [sp]
 4435 1c3e DB68     		ldr	r3, [r3, #12]
 4436 1c40 B3F1804F 		cmp	r3, #1073741824
 4437 1c44 0FD0     		beq	.L305
 4438              		.loc 1 2266 0
 4439 1c46 019B     		ldr	r3, [sp, #4]
 4440 1c48 1B68     		ldr	r3, [r3]
 4441 1c4a 019A     		ldr	r2, [sp, #4]
 4442 1c4c 1268     		ldr	r2, [r2]
 4443 1c4e D2F8B010 		ldr	r1, [r2, #176]
 4444 1c52 009A     		ldr	r2, [sp]
 4445 1c54 1268     		ldr	r2, [r2]
 4446 1c56 0120     		movs	r0, #1
 4447 1c58 00FA02F2 		lsl	r2, r0, r2
 4448 1c5c D243     		mvns	r2, r2
 4449 1c5e 0A40     		ands	r2, r2, r1
 4450 1c60 C3F8B020 		str	r2, [r3, #176]
 4451 1c64 6CE0     		b	.L306
 4452              	.L305:
 4453              		.loc 1 2271 0
 4454 1c66 019B     		ldr	r3, [sp, #4]
 4455 1c68 1B68     		ldr	r3, [r3]
 4456 1c6a 019A     		ldr	r2, [sp, #4]
 4457 1c6c 1268     		ldr	r2, [r2]
 4458 1c6e D2F8B010 		ldr	r1, [r2, #176]
 4459 1c72 009A     		ldr	r2, [sp]
 4460 1c74 1268     		ldr	r2, [r2]
 4461 1c76 0120     		movs	r0, #1
 4462 1c78 00FA02F2 		lsl	r2, r0, r2
 4463 1c7c 0A43     		orrs	r2, r2, r1
 4464 1c7e C3F8B020 		str	r2, [r3, #176]
 4465              		.loc 1 2277 0
 4466 1c82 009B     		ldr	r3, [sp]
 4467 1c84 1B68     		ldr	r3, [r3]
 4468 1c86 082B     		cmp	r3, #8
 4469 1c88 2ED9     		bls	.L307
 4470              		.loc 1 2279 0
 4471 1c8a 019B     		ldr	r3, [sp, #4]
 4472 1c8c 1B68     		ldr	r3, [r3]
 4473 1c8e 019A     		ldr	r2, [sp, #4]
 4474 1c90 1268     		ldr	r2, [r2]
 4475 1c92 9169     		ldr	r1, [r2, #24]
 4476 1c94 3822     		movs	r2, #56
 4477 1c96 0A92     		str	r2, [sp, #40]
 4478              	.LBB112:
 4479              	.LBB113:
 4480              		.loc 2 586 0
 4481 1c98 0A9A     		ldr	r2, [sp, #40]
 4482              	@ 586 "../../../../../../ChibiOS/os/ext/CMSIS/include/core_cmInstr.h" 1
 4483 1c9a 92FAA2F2 		rbit r2, r2
ARM GAS  /tmp/ccrsTBIG.s 			page 80


 4484              	@ 0 "" 2
 4485              		.thumb
 4486 1c9e 0992     		str	r2, [sp, #36]
 4487              		.loc 2 599 0
 4488 1ca0 099A     		ldr	r2, [sp, #36]
 4489              	.LBE113:
 4490              	.LBE112:
 4491              		.loc 1 2279 0
 4492 1ca2 B2FA82F2 		clz	r2, r2
 4493 1ca6 0098     		ldr	r0, [sp]
 4494 1ca8 0068     		ldr	r0, [r0]
 4495 1caa 0938     		subs	r0, r0, #9
 4496 1cac 00FB02F2 		mul	r2, r0, r2
 4497 1cb0 0720     		movs	r0, #7
 4498 1cb2 00FA02F2 		lsl	r2, r0, r2
 4499 1cb6 D243     		mvns	r2, r2
 4500 1cb8 1140     		ands	r1, r1, r2
 4501 1cba 009A     		ldr	r2, [sp]
 4502 1cbc 9068     		ldr	r0, [r2, #8]
 4503 1cbe 3822     		movs	r2, #56
 4504 1cc0 0892     		str	r2, [sp, #32]
 4505              	.LBB114:
 4506              	.LBB115:
 4507              		.loc 2 586 0
 4508 1cc2 089A     		ldr	r2, [sp, #32]
 4509              	@ 586 "../../../../../../ChibiOS/os/ext/CMSIS/include/core_cmInstr.h" 1
 4510 1cc4 92FAA2F2 		rbit r2, r2
 4511              	@ 0 "" 2
 4512              		.thumb
 4513 1cc8 0792     		str	r2, [sp, #28]
 4514              		.loc 2 599 0
 4515 1cca 079A     		ldr	r2, [sp, #28]
 4516              	.LBE115:
 4517              	.LBE114:
 4518              		.loc 1 2279 0
 4519 1ccc B2FA82F2 		clz	r2, r2
 4520 1cd0 009C     		ldr	r4, [sp]
 4521 1cd2 2468     		ldr	r4, [r4]
 4522 1cd4 093C     		subs	r4, r4, #9
 4523 1cd6 04FB02F2 		mul	r2, r4, r2
 4524 1cda 00FA02F2 		lsl	r2, r0, r2
 4525 1cde 0A43     		orrs	r2, r2, r1
 4526 1ce0 9A61     		str	r2, [r3, #24]
 4527 1ce2 2DE0     		b	.L306
 4528              	.L346:
 4529              		.align	2
 4530              	.L345:
 4531 1ce4 00F0FF03 		.word	67104768
 4532              	.L307:
 4533              		.loc 1 2283 0
 4534 1ce8 019B     		ldr	r3, [sp, #4]
 4535 1cea 1B68     		ldr	r3, [r3]
 4536 1cec 019A     		ldr	r2, [sp, #4]
 4537 1cee 1268     		ldr	r2, [r2]
 4538 1cf0 5169     		ldr	r1, [r2, #20]
 4539 1cf2 3822     		movs	r2, #56
 4540 1cf4 0692     		str	r2, [sp, #24]
ARM GAS  /tmp/ccrsTBIG.s 			page 81


 4541              	.LBB116:
 4542              	.LBB117:
 4543              		.loc 2 586 0
 4544 1cf6 069A     		ldr	r2, [sp, #24]
 4545              	@ 586 "../../../../../../ChibiOS/os/ext/CMSIS/include/core_cmInstr.h" 1
 4546 1cf8 92FAA2F2 		rbit r2, r2
 4547              	@ 0 "" 2
 4548              		.thumb
 4549 1cfc 0592     		str	r2, [sp, #20]
 4550              		.loc 2 599 0
 4551 1cfe 059A     		ldr	r2, [sp, #20]
 4552              	.LBE117:
 4553              	.LBE116:
 4554              		.loc 1 2283 0
 4555 1d00 B2FA82F2 		clz	r2, r2
 4556 1d04 0098     		ldr	r0, [sp]
 4557 1d06 0068     		ldr	r0, [r0]
 4558 1d08 0130     		adds	r0, r0, #1
 4559 1d0a 00FB02F2 		mul	r2, r0, r2
 4560 1d0e 0720     		movs	r0, #7
 4561 1d10 00FA02F2 		lsl	r2, r0, r2
 4562 1d14 D243     		mvns	r2, r2
 4563 1d16 1140     		ands	r1, r1, r2
 4564 1d18 009A     		ldr	r2, [sp]
 4565 1d1a 9068     		ldr	r0, [r2, #8]
 4566 1d1c 3822     		movs	r2, #56
 4567 1d1e 0492     		str	r2, [sp, #16]
 4568              	.LBB118:
 4569              	.LBB119:
 4570              		.loc 2 586 0
 4571 1d20 049A     		ldr	r2, [sp, #16]
 4572              	@ 586 "../../../../../../ChibiOS/os/ext/CMSIS/include/core_cmInstr.h" 1
 4573 1d22 92FAA2F2 		rbit r2, r2
 4574              	@ 0 "" 2
 4575              		.thumb
 4576 1d26 0392     		str	r2, [sp, #12]
 4577              		.loc 2 599 0
 4578 1d28 039A     		ldr	r2, [sp, #12]
 4579              	.LBE119:
 4580              	.LBE118:
 4581              		.loc 1 2283 0
 4582 1d2a B2FA82F2 		clz	r2, r2
 4583 1d2e 009C     		ldr	r4, [sp]
 4584 1d30 2468     		ldr	r4, [r4]
 4585 1d32 0134     		adds	r4, r4, #1
 4586 1d34 04FB02F2 		mul	r2, r4, r2
 4587 1d38 00FA02F2 		lsl	r2, r0, r2
 4588 1d3c 0A43     		orrs	r2, r2, r1
 4589 1d3e 5A61     		str	r2, [r3, #20]
 4590              	.L306:
 4591              		.loc 1 2296 0
 4592 1d40 874B     		ldr	r3, .L347
 4593 1d42 3393     		str	r3, [sp, #204]
 4594              		.loc 1 2301 0
 4595 1d44 009B     		ldr	r3, [sp]
 4596 1d46 1B68     		ldr	r3, [r3]
 4597 1d48 112B     		cmp	r3, #17
ARM GAS  /tmp/ccrsTBIG.s 			page 82


 4598 1d4a 05D1     		bne	.L312
 4599              		.loc 1 2302 0 discriminator 1
 4600 1d4c 339B     		ldr	r3, [sp, #204]
 4601 1d4e 9B68     		ldr	r3, [r3, #8]
 4602 1d50 03F40003 		and	r3, r3, #8388608
 4603              		.loc 1 2301 0 discriminator 1
 4604 1d54 002B     		cmp	r3, #0
 4605 1d56 15D0     		beq	.L313
 4606              	.L312:
 4607              		.loc 1 2303 0
 4608 1d58 009B     		ldr	r3, [sp]
 4609 1d5a 1B68     		ldr	r3, [r3]
 4610              		.loc 1 2302 0
 4611 1d5c 122B     		cmp	r3, #18
 4612 1d5e 05D1     		bne	.L314
 4613              		.loc 1 2304 0
 4614 1d60 339B     		ldr	r3, [sp, #204]
 4615 1d62 9B68     		ldr	r3, [r3, #8]
 4616 1d64 03F08073 		and	r3, r3, #16777216
 4617              		.loc 1 2303 0
 4618 1d68 002B     		cmp	r3, #0
 4619 1d6a 0BD0     		beq	.L313
 4620              	.L314:
 4621              		.loc 1 2305 0
 4622 1d6c 009B     		ldr	r3, [sp]
 4623 1d6e 1B68     		ldr	r3, [r3]
 4624              		.loc 1 2304 0
 4625 1d70 002B     		cmp	r3, #0
 4626 1d72 40F0EA80 		bne	.L343
 4627              		.loc 1 2306 0
 4628 1d76 339B     		ldr	r3, [sp, #204]
 4629 1d78 9B68     		ldr	r3, [r3, #8]
 4630 1d7a 03F48003 		and	r3, r3, #4194304
 4631              		.loc 1 2305 0
 4632 1d7e 002B     		cmp	r3, #0
 4633 1d80 40F0E380 		bne	.L343
 4634              	.L313:
 4635              		.loc 1 2313 0
 4636 1d84 019B     		ldr	r3, [sp, #4]
 4637 1d86 1B68     		ldr	r3, [r3]
 4638 1d88 9B68     		ldr	r3, [r3, #8]
 4639 1d8a 03F00303 		and	r3, r3, #3
 4640 1d8e 012B     		cmp	r3, #1
 4641 1d90 08D1     		bne	.L315
 4642              		.loc 1 2313 0 is_stmt 0 discriminator 1
 4643 1d92 019B     		ldr	r3, [sp, #4]
 4644 1d94 1B68     		ldr	r3, [r3]
 4645 1d96 1B68     		ldr	r3, [r3]
 4646 1d98 03F00103 		and	r3, r3, #1
 4647 1d9c 002B     		cmp	r3, #0
 4648 1d9e 01D0     		beq	.L315
 4649              		.loc 1 2313 0 discriminator 3
 4650 1da0 0123     		movs	r3, #1
 4651 1da2 00E0     		b	.L316
 4652              	.L315:
 4653              		.loc 1 2313 0 discriminator 2
 4654 1da4 0023     		movs	r3, #0
ARM GAS  /tmp/ccrsTBIG.s 			page 83


 4655              	.L316:
 4656              		.loc 1 2313 0 discriminator 4
 4657 1da6 002B     		cmp	r3, #0
 4658 1da8 40F0BB80 		bne	.L317
 4659              		.loc 1 2314 0 is_stmt 1 discriminator 1
 4660 1dac 019B     		ldr	r3, [sp, #4]
 4661 1dae 1A68     		ldr	r2, [r3]
 4662              		.loc 1 2313 0 discriminator 1
 4663 1db0 6C4B     		ldr	r3, .L347+4
 4664 1db2 9A42     		cmp	r2, r3
 4665 1db4 1DD1     		bne	.L318
 4666              		.loc 1 2314 0
 4667 1db6 6C4B     		ldr	r3, .L347+8
 4668 1db8 9B68     		ldr	r3, [r3, #8]
 4669 1dba 03F00303 		and	r3, r3, #3
 4670 1dbe 012B     		cmp	r3, #1
 4671 1dc0 05D1     		bne	.L319
 4672              		.loc 1 2314 0 is_stmt 0 discriminator 1
 4673 1dc2 694B     		ldr	r3, .L347+8
 4674 1dc4 1B68     		ldr	r3, [r3]
 4675 1dc6 03F00103 		and	r3, r3, #1
 4676 1dca 002B     		cmp	r3, #0
 4677 1dcc 0BD1     		bne	.L320
 4678              	.L319:
 4679              		.loc 1 2314 0 discriminator 2
 4680 1dce 674B     		ldr	r3, .L347+12
 4681 1dd0 9B68     		ldr	r3, [r3, #8]
 4682 1dd2 03F00303 		and	r3, r3, #3
 4683 1dd6 012B     		cmp	r3, #1
 4684 1dd8 07D1     		bne	.L321
 4685              		.loc 1 2314 0 discriminator 4
 4686 1dda 644B     		ldr	r3, .L347+12
 4687 1ddc 1B68     		ldr	r3, [r3]
 4688 1dde 03F00103 		and	r3, r3, #1
 4689 1de2 002B     		cmp	r3, #0
 4690 1de4 01D0     		beq	.L321
 4691              	.L320:
 4692              		.loc 1 2314 0 discriminator 3
 4693 1de6 0123     		movs	r3, #1
 4694 1de8 00E0     		b	.L322
 4695              	.L321:
 4696              		.loc 1 2314 0 discriminator 5
 4697 1dea 0023     		movs	r3, #0
 4698              	.L322:
 4699              		.loc 1 2313 0 is_stmt 1
 4700 1dec 002B     		cmp	r3, #0
 4701 1dee 4BD0     		beq	.L323
 4702 1df0 97E0     		b	.L317
 4703              	.L318:
 4704              		.loc 1 2314 0
 4705 1df2 019B     		ldr	r3, [sp, #4]
 4706 1df4 1A68     		ldr	r2, [r3]
 4707 1df6 5C4B     		ldr	r3, .L347+8
 4708 1df8 9A42     		cmp	r2, r3
 4709 1dfa 20D1     		bne	.L324
 4710              		.loc 1 2314 0 is_stmt 0 discriminator 1
 4711 1dfc 594B     		ldr	r3, .L347+4
ARM GAS  /tmp/ccrsTBIG.s 			page 84


 4712 1dfe 9B68     		ldr	r3, [r3, #8]
 4713 1e00 03F00303 		and	r3, r3, #3
 4714 1e04 012B     		cmp	r3, #1
 4715 1e06 05D1     		bne	.L325
 4716 1e08 564B     		ldr	r3, .L347+4
 4717 1e0a 1B68     		ldr	r3, [r3]
 4718 1e0c 03F00103 		and	r3, r3, #1
 4719 1e10 002B     		cmp	r3, #0
 4720 1e12 0BD1     		bne	.L326
 4721              	.L325:
 4722              		.loc 1 2314 0 discriminator 2
 4723 1e14 554B     		ldr	r3, .L347+12
 4724 1e16 9B68     		ldr	r3, [r3, #8]
 4725 1e18 03F00303 		and	r3, r3, #3
 4726 1e1c 012B     		cmp	r3, #1
 4727 1e1e 07D1     		bne	.L327
 4728              		.loc 1 2314 0 discriminator 4
 4729 1e20 524B     		ldr	r3, .L347+12
 4730 1e22 1B68     		ldr	r3, [r3]
 4731 1e24 03F00103 		and	r3, r3, #1
 4732 1e28 002B     		cmp	r3, #0
 4733 1e2a 01D0     		beq	.L327
 4734              	.L326:
 4735              		.loc 1 2314 0 discriminator 3
 4736 1e2c 0123     		movs	r3, #1
 4737 1e2e 00E0     		b	.L328
 4738              	.L327:
 4739              		.loc 1 2314 0 discriminator 5
 4740 1e30 0023     		movs	r3, #0
 4741              	.L328:
 4742              		.loc 1 2314 0 discriminator 6
 4743 1e32 03F00103 		and	r3, r3, #1
 4744 1e36 DBB2     		uxtb	r3, r3
 4745 1e38 002B     		cmp	r3, #0
 4746 1e3a 20D1     		bne	.L329
 4747 1e3c 13E0     		b	.L330
 4748              	.L324:
 4749              		.loc 1 2314 0 discriminator 2
 4750 1e3e 494B     		ldr	r3, .L347+4
 4751 1e40 9B68     		ldr	r3, [r3, #8]
 4752 1e42 03F00303 		and	r3, r3, #3
 4753 1e46 012B     		cmp	r3, #1
 4754 1e48 07D1     		bne	.L331
 4755              		.loc 1 2314 0 discriminator 4
 4756 1e4a 464B     		ldr	r3, .L347+4
 4757 1e4c 1B68     		ldr	r3, [r3]
 4758 1e4e 03F00103 		and	r3, r3, #1
 4759 1e52 002B     		cmp	r3, #0
 4760 1e54 01D0     		beq	.L331
 4761              		.loc 1 2314 0 discriminator 6
 4762 1e56 0123     		movs	r3, #1
 4763 1e58 00E0     		b	.L332
 4764              	.L331:
 4765              		.loc 1 2314 0 discriminator 5
 4766 1e5a 0023     		movs	r3, #0
 4767              	.L332:
 4768              		.loc 1 2314 0 discriminator 7
ARM GAS  /tmp/ccrsTBIG.s 			page 85


 4769 1e5c 03F00103 		and	r3, r3, #1
 4770 1e60 DBB2     		uxtb	r3, r3
 4771 1e62 002B     		cmp	r3, #0
 4772 1e64 0BD1     		bne	.L329
 4773              	.L330:
 4774              		.loc 1 2314 0 discriminator 8
 4775 1e66 404B     		ldr	r3, .L347+8
 4776 1e68 9B68     		ldr	r3, [r3, #8]
 4777 1e6a 03F00303 		and	r3, r3, #3
 4778 1e6e 012B     		cmp	r3, #1
 4779 1e70 07D1     		bne	.L333
 4780              		.loc 1 2314 0 discriminator 9
 4781 1e72 3D4B     		ldr	r3, .L347+8
 4782 1e74 1B68     		ldr	r3, [r3]
 4783 1e76 03F00103 		and	r3, r3, #1
 4784 1e7a 002B     		cmp	r3, #0
 4785 1e7c 01D0     		beq	.L333
 4786              	.L329:
 4787              		.loc 1 2314 0 discriminator 3
 4788 1e7e 0123     		movs	r3, #1
 4789 1e80 00E0     		b	.L334
 4790              	.L333:
 4791              		.loc 1 2314 0 discriminator 10
 4792 1e82 0023     		movs	r3, #0
 4793              	.L334:
 4794              		.loc 1 2314 0 discriminator 11
 4795 1e84 002B     		cmp	r3, #0
 4796 1e86 4CD1     		bne	.L317
 4797              	.L323:
 4798              		.loc 1 2316 0 is_stmt 1
 4799 1e88 009B     		ldr	r3, [sp]
 4800 1e8a 1B68     		ldr	r3, [r3]
 4801 1e8c 112B     		cmp	r3, #17
 4802 1e8e 22D1     		bne	.L335
 4803              		.loc 1 2318 0
 4804 1e90 019B     		ldr	r3, [sp, #4]
 4805 1e92 1A68     		ldr	r2, [r3]
 4806 1e94 334B     		ldr	r3, .L347+4
 4807 1e96 9A42     		cmp	r2, r3
 4808 1e98 04D0     		beq	.L336
 4809              		.loc 1 2318 0 is_stmt 0 discriminator 1
 4810 1e9a 019B     		ldr	r3, [sp, #4]
 4811 1e9c 1A68     		ldr	r2, [r3]
 4812 1e9e 334B     		ldr	r3, .L347+12
 4813 1ea0 9A42     		cmp	r2, r3
 4814 1ea2 3DD1     		bne	.L337
 4815              	.L336:
 4816              		.loc 1 2320 0 is_stmt 1
 4817 1ea4 339B     		ldr	r3, [sp, #204]
 4818 1ea6 9B68     		ldr	r3, [r3, #8]
 4819 1ea8 43F40002 		orr	r2, r3, #8388608
 4820 1eac 339B     		ldr	r3, [sp, #204]
 4821 1eae 9A60     		str	r2, [r3, #8]
 4822              		.loc 1 2326 0
 4823 1eb0 2F4B     		ldr	r3, .L347+16
 4824 1eb2 1A68     		ldr	r2, [r3]
 4825 1eb4 2F4B     		ldr	r3, .L347+20
ARM GAS  /tmp/ccrsTBIG.s 			page 86


 4826 1eb6 A3FB0213 		umull	r1, r3, r3, r2
 4827 1eba DA0C     		lsrs	r2, r3, #19
 4828 1ebc 1346     		mov	r3, r2
 4829 1ebe 1B01     		lsls	r3, r3, #4
 4830 1ec0 9B1A     		subs	r3, r3, r2
 4831 1ec2 DB00     		lsls	r3, r3, #3
 4832 1ec4 0293     		str	r3, [sp, #8]
 4833              		.loc 1 2327 0
 4834 1ec6 02E0     		b	.L338
 4835              	.L339:
 4836              		.loc 1 2329 0
 4837 1ec8 029B     		ldr	r3, [sp, #8]
 4838 1eca 013B     		subs	r3, r3, #1
 4839 1ecc 0293     		str	r3, [sp, #8]
 4840              	.L338:
 4841              		.loc 1 2327 0 discriminator 1
 4842 1ece 029B     		ldr	r3, [sp, #8]
 4843 1ed0 002B     		cmp	r3, #0
 4844 1ed2 F9D1     		bne	.L339
 4845              		.loc 1 2316 0
 4846 1ed4 2FE0     		b	.L304
 4847              	.L335:
 4848              		.loc 1 2333 0
 4849 1ed6 009B     		ldr	r3, [sp]
 4850 1ed8 1B68     		ldr	r3, [r3]
 4851 1eda 122B     		cmp	r3, #18
 4852 1edc 10D1     		bne	.L340
 4853              		.loc 1 2335 0
 4854 1ede 019B     		ldr	r3, [sp, #4]
 4855 1ee0 1A68     		ldr	r2, [r3]
 4856 1ee2 204B     		ldr	r3, .L347+4
 4857 1ee4 9A42     		cmp	r2, r3
 4858 1ee6 04D0     		beq	.L341
 4859              		.loc 1 2335 0 is_stmt 0 discriminator 1
 4860 1ee8 019B     		ldr	r3, [sp, #4]
 4861 1eea 1A68     		ldr	r2, [r3]
 4862 1eec 1F4B     		ldr	r3, .L347+12
 4863 1eee 9A42     		cmp	r2, r3
 4864 1ef0 16D1     		bne	.L337
 4865              	.L341:
 4866              		.loc 1 2337 0 is_stmt 1
 4867 1ef2 339B     		ldr	r3, [sp, #204]
 4868 1ef4 9B68     		ldr	r3, [r3, #8]
 4869 1ef6 43F08072 		orr	r2, r3, #16777216
 4870 1efa 339B     		ldr	r3, [sp, #204]
 4871 1efc 9A60     		str	r2, [r3, #8]
 4872              		.loc 1 2316 0
 4873 1efe 1AE0     		b	.L304
 4874              	.L340:
 4875              		.loc 1 2340 0
 4876 1f00 009B     		ldr	r3, [sp]
 4877 1f02 1B68     		ldr	r3, [r3]
 4878 1f04 002B     		cmp	r3, #0
 4879 1f06 0BD1     		bne	.L337
 4880              		.loc 1 2342 0
 4881 1f08 019B     		ldr	r3, [sp, #4]
 4882 1f0a 1A68     		ldr	r2, [r3]
ARM GAS  /tmp/ccrsTBIG.s 			page 87


 4883 1f0c 154B     		ldr	r3, .L347+4
 4884 1f0e 9A42     		cmp	r2, r3
 4885 1f10 06D1     		bne	.L337
 4886              		.loc 1 2344 0
 4887 1f12 339B     		ldr	r3, [sp, #204]
 4888 1f14 9B68     		ldr	r3, [r3, #8]
 4889 1f16 43F48002 		orr	r2, r3, #4194304
 4890 1f1a 339B     		ldr	r3, [sp, #204]
 4891 1f1c 9A60     		str	r2, [r3, #8]
 4892              		.loc 1 2316 0
 4893 1f1e 0AE0     		b	.L304
 4894              	.L337:
 4895 1f20 09E0     		b	.L304
 4896              	.L317:
 4897              		.loc 1 2354 0
 4898 1f22 019B     		ldr	r3, [sp, #4]
 4899 1f24 9B6D     		ldr	r3, [r3, #88]
 4900 1f26 43F02002 		orr	r2, r3, #32
 4901 1f2a 019B     		ldr	r3, [sp, #4]
 4902 1f2c 9A65     		str	r2, [r3, #88]
 4903              		.loc 1 2356 0
 4904 1f2e 0123     		movs	r3, #1
 4905 1f30 8DF8D730 		strb	r3, [sp, #215]
 4906 1f34 09E0     		b	.L343
 4907              	.L304:
 4908 1f36 08E0     		b	.L343
 4909              	.L264:
 4910              		.loc 1 2370 0
 4911 1f38 019B     		ldr	r3, [sp, #4]
 4912 1f3a 9B6D     		ldr	r3, [r3, #88]
 4913 1f3c 43F02002 		orr	r2, r3, #32
 4914 1f40 019B     		ldr	r3, [sp, #4]
 4915 1f42 9A65     		str	r2, [r3, #88]
 4916              		.loc 1 2372 0
 4917 1f44 0123     		movs	r3, #1
 4918 1f46 8DF8D730 		strb	r3, [sp, #215]
 4919              	.L343:
 4920              		.loc 1 2376 0
 4921 1f4a 019B     		ldr	r3, [sp, #4]
 4922 1f4c 0022     		movs	r2, #0
 4923 1f4e 83F85420 		strb	r2, [r3, #84]
 4924              		.loc 1 2379 0
 4925 1f52 9DF8D730 		ldrb	r3, [sp, #215]	@ zero_extendqisi2
 4926              	.L263:
 4927              		.loc 1 2380 0
 4928 1f56 1846     		mov	r0, r3
 4929 1f58 37B0     		add	sp, sp, #220
 4930              		@ sp needed
 4931 1f5a 5DF8044B 		ldr	r4, [sp], #4
 4932 1f5e 7047     		bx	lr
 4933              	.L348:
 4934              		.align	2
 4935              	.L347:
 4936 1f60 00030450 		.word	1342440192
 4937 1f64 00000450 		.word	1342439424
 4938 1f68 00010450 		.word	1342439680
 4939 1f6c 00020450 		.word	1342439936
ARM GAS  /tmp/ccrsTBIG.s 			page 88


 4940 1f70 00000000 		.word	SystemCoreClock
 4941 1f74 83DE1B43 		.word	1125899907
 4942              		.cfi_endproc
 4943              	.LFE143:
 4944              		.size	HAL_ADC_ConfigChannel, .-HAL_ADC_ConfigChannel
 4945              		.align	2
 4946 1f78 AFF30080 		.p2align 4,,15
 4946      AFF30080 
 4947              		.global	HAL_ADC_AnalogWDGConfig
 4948              		.thumb
 4949              		.thumb_func
 4950              		.type	HAL_ADC_AnalogWDGConfig, %function
 4951              	HAL_ADC_AnalogWDGConfig:
 4952              	.LFB144:
 4953              		.loc 1 2399 0
 4954              		.cfi_startproc
 4955              		@ args = 0, pretend = 0, frame = 40
 4956              		@ frame_needed = 0, uses_anonymous_args = 0
 4957              		@ link register save eliminated.
 4958 1f80 10B4     		push	{r4}
 4959              		.cfi_def_cfa_offset 4
 4960              		.cfi_offset 4, -4
 4961 1f82 8BB0     		sub	sp, sp, #44
 4962              		.cfi_def_cfa_offset 48
 4963 1f84 0190     		str	r0, [sp, #4]
 4964 1f86 0091     		str	r1, [sp]
 4965              		.loc 1 2400 0
 4966 1f88 0023     		movs	r3, #0
 4967 1f8a 8DF82730 		strb	r3, [sp, #39]
 4968              		.loc 1 2415 0
 4969 1f8e 009B     		ldr	r3, [sp]
 4970 1f90 5B68     		ldr	r3, [r3, #4]
 4971 1f92 B3F5400F 		cmp	r3, #12582912
 4972 1f96 03D0     		beq	.L350
 4973              		.loc 1 2416 0 discriminator 1
 4974 1f98 009B     		ldr	r3, [sp]
 4975 1f9a 5B68     		ldr	r3, [r3, #4]
 4976              		.loc 1 2415 0 discriminator 1
 4977 1f9c B3F1A07F 		cmp	r3, #20971520
 4978              	.L350:
 4979              		.loc 1 2428 0
 4980 1fa0 019B     		ldr	r3, [sp, #4]
 4981 1fa2 93F85430 		ldrb	r3, [r3, #84]	@ zero_extendqisi2
 4982 1fa6 012B     		cmp	r3, #1
 4983 1fa8 01D1     		bne	.L351
 4984              		.loc 1 2428 0 is_stmt 0 discriminator 1
 4985 1faa 0223     		movs	r3, #2
 4986 1fac 41E1     		b	.L352
 4987              	.L351:
 4988              		.loc 1 2428 0 discriminator 2
 4989 1fae 019B     		ldr	r3, [sp, #4]
 4990 1fb0 0122     		movs	r2, #1
 4991 1fb2 83F85420 		strb	r2, [r3, #84]
 4992              		.loc 1 2435 0 is_stmt 1 discriminator 2
 4993 1fb6 019B     		ldr	r3, [sp, #4]
 4994 1fb8 1B68     		ldr	r3, [r3]
 4995 1fba 9B68     		ldr	r3, [r3, #8]
ARM GAS  /tmp/ccrsTBIG.s 			page 89


 4996 1fbc 03F00C03 		and	r3, r3, #12
 4997 1fc0 002B     		cmp	r3, #0
 4998 1fc2 40F02781 		bne	.L353
 4999              		.loc 1 2439 0
 5000 1fc6 009B     		ldr	r3, [sp]
 5001 1fc8 1B68     		ldr	r3, [r3]
 5002 1fca 012B     		cmp	r3, #1
 5003 1fcc 60D1     		bne	.L354
 5004              		.loc 1 2447 0
 5005 1fce 019B     		ldr	r3, [sp, #4]
 5006 1fd0 1A68     		ldr	r2, [r3]
 5007 1fd2 019B     		ldr	r3, [sp, #4]
 5008 1fd4 1B68     		ldr	r3, [r3]
 5009 1fd6 DB68     		ldr	r3, [r3, #12]
 5010 1fd8 23F0FB43 		bic	r3, r3, #2105540608
 5011 1fdc 23F48003 		bic	r3, r3, #4194304
 5012 1fe0 0099     		ldr	r1, [sp]
 5013 1fe2 4868     		ldr	r0, [r1, #4]
 5014 1fe4 0099     		ldr	r1, [sp]
 5015 1fe6 8C68     		ldr	r4, [r1, #8]
 5016 1fe8 4FF0F841 		mov	r1, #2080374784
 5017 1fec 0491     		str	r1, [sp, #16]
 5018              	.LBB120:
 5019              	.LBB121:
 5020              		.loc 2 586 0
 5021 1fee 0499     		ldr	r1, [sp, #16]
 5022              	@ 586 "../../../../../../ChibiOS/os/ext/CMSIS/include/core_cmInstr.h" 1
 5023 1ff0 91FAA1F1 		rbit r1, r1
 5024              	@ 0 "" 2
 5025              		.thumb
 5026 1ff4 0391     		str	r1, [sp, #12]
 5027              		.loc 2 599 0
 5028 1ff6 0399     		ldr	r1, [sp, #12]
 5029              	.LBE121:
 5030              	.LBE120:
 5031              		.loc 1 2447 0
 5032 1ff8 B1FA81F1 		clz	r1, r1
 5033 1ffc 04FA01F1 		lsl	r1, r4, r1
 5034 2000 0143     		orrs	r1, r1, r0
 5035 2002 0B43     		orrs	r3, r3, r1
 5036 2004 D360     		str	r3, [r2, #12]
 5037              		.loc 1 2453 0
 5038 2006 009B     		ldr	r3, [sp]
 5039 2008 1A69     		ldr	r2, [r3, #16]
 5040 200a 019B     		ldr	r3, [sp, #4]
 5041 200c 1B68     		ldr	r3, [r3]
 5042 200e DB68     		ldr	r3, [r3, #12]
 5043 2010 03F01803 		and	r3, r3, #24
 5044 2014 DB08     		lsrs	r3, r3, #3
 5045 2016 5B00     		lsls	r3, r3, #1
 5046 2018 02FA03F3 		lsl	r3, r2, r3
 5047 201c 0693     		str	r3, [sp, #24]
 5048              		.loc 1 2454 0
 5049 201e 009B     		ldr	r3, [sp]
 5050 2020 5A69     		ldr	r2, [r3, #20]
 5051 2022 019B     		ldr	r3, [sp, #4]
 5052 2024 1B68     		ldr	r3, [r3]
ARM GAS  /tmp/ccrsTBIG.s 			page 90


 5053 2026 DB68     		ldr	r3, [r3, #12]
 5054 2028 03F01803 		and	r3, r3, #24
 5055 202c DB08     		lsrs	r3, r3, #3
 5056 202e 5B00     		lsls	r3, r3, #1
 5057 2030 02FA03F3 		lsl	r3, r2, r3
 5058 2034 0593     		str	r3, [sp, #20]
 5059              		.loc 1 2457 0
 5060 2036 019B     		ldr	r3, [sp, #4]
 5061 2038 1B68     		ldr	r3, [r3]
 5062 203a 019A     		ldr	r2, [sp, #4]
 5063 203c 1268     		ldr	r2, [r2]
 5064 203e 126A     		ldr	r2, [r2, #32]
 5065 2040 02F0F021 		and	r1, r2, #-268374016
 5066 2044 069A     		ldr	r2, [sp, #24]
 5067 2046 1004     		lsls	r0, r2, #16
 5068 2048 059A     		ldr	r2, [sp, #20]
 5069 204a 0243     		orrs	r2, r2, r0
 5070 204c 0A43     		orrs	r2, r2, r1
 5071 204e 1A62     		str	r2, [r3, #32]
 5072              		.loc 1 2463 0
 5073 2050 019B     		ldr	r3, [sp, #4]
 5074 2052 1B68     		ldr	r3, [r3]
 5075 2054 8022     		movs	r2, #128
 5076 2056 1A60     		str	r2, [r3]
 5077              		.loc 1 2466 0
 5078 2058 009B     		ldr	r3, [sp]
 5079 205a DB68     		ldr	r3, [r3, #12]
 5080 205c 012B     		cmp	r3, #1
 5081 205e 08D1     		bne	.L356
 5082              		.loc 1 2469 0
 5083 2060 019B     		ldr	r3, [sp, #4]
 5084 2062 1B68     		ldr	r3, [r3]
 5085 2064 019A     		ldr	r2, [sp, #4]
 5086 2066 1268     		ldr	r2, [r2]
 5087 2068 5268     		ldr	r2, [r2, #4]
 5088 206a 42F08002 		orr	r2, r2, #128
 5089 206e 5A60     		str	r2, [r3, #4]
 5090 2070 07E0     		b	.L357
 5091              	.L356:
 5092              		.loc 1 2474 0
 5093 2072 019B     		ldr	r3, [sp, #4]
 5094 2074 1B68     		ldr	r3, [r3]
 5095 2076 019A     		ldr	r2, [sp, #4]
 5096 2078 1268     		ldr	r2, [r2]
 5097 207a 5268     		ldr	r2, [r2, #4]
 5098 207c 22F08002 		bic	r2, r2, #128
 5099 2080 5A60     		str	r2, [r3, #4]
 5100              	.L357:
 5101              		.loc 1 2478 0 discriminator 1
 5102 2082 019B     		ldr	r3, [sp, #4]
 5103 2084 9B6D     		ldr	r3, [r3, #88]
 5104 2086 23F48032 		bic	r2, r3, #65536
 5105 208a 019B     		ldr	r3, [sp, #4]
 5106 208c 9A65     		str	r2, [r3, #88]
 5107 208e CAE0     		b	.L370
 5108              	.L354:
 5109              		.loc 1 2485 0
ARM GAS  /tmp/ccrsTBIG.s 			page 91


 5110 2090 019B     		ldr	r3, [sp, #4]
 5111 2092 1B68     		ldr	r3, [r3]
 5112 2094 DB68     		ldr	r3, [r3, #12]
 5113 2096 03F01803 		and	r3, r3, #24
 5114 209a 182B     		cmp	r3, #24
 5115 209c 0FD0     		beq	.L359
 5116              		.loc 1 2485 0 is_stmt 0 discriminator 1
 5117 209e 009B     		ldr	r3, [sp]
 5118 20a0 1969     		ldr	r1, [r3, #16]
 5119 20a2 019B     		ldr	r3, [sp, #4]
 5120 20a4 1B68     		ldr	r3, [r3]
 5121 20a6 DB68     		ldr	r3, [r3, #12]
 5122 20a8 03F01803 		and	r3, r3, #24
 5123 20ac DA08     		lsrs	r2, r3, #3
 5124 20ae 1346     		mov	r3, r2
 5125 20b0 DB07     		lsls	r3, r3, #31
 5126 20b2 9B1A     		subs	r3, r3, r2
 5127 20b4 5B00     		lsls	r3, r3, #1
 5128 20b6 0433     		adds	r3, r3, #4
 5129 20b8 21FA03F3 		lsr	r3, r1, r3
 5130 20bc 02E0     		b	.L360
 5131              	.L359:
 5132              		.loc 1 2485 0 discriminator 2
 5133 20be 009B     		ldr	r3, [sp]
 5134 20c0 1B69     		ldr	r3, [r3, #16]
 5135 20c2 9B00     		lsls	r3, r3, #2
 5136              	.L360:
 5137              		.loc 1 2485 0 discriminator 3
 5138 20c4 0693     		str	r3, [sp, #24]
 5139              		.loc 1 2486 0 is_stmt 1 discriminator 3
 5140 20c6 019B     		ldr	r3, [sp, #4]
 5141 20c8 1B68     		ldr	r3, [r3]
 5142 20ca DB68     		ldr	r3, [r3, #12]
 5143 20cc 03F01803 		and	r3, r3, #24
 5144 20d0 182B     		cmp	r3, #24
 5145 20d2 0FD0     		beq	.L361
 5146              		.loc 1 2486 0 is_stmt 0 discriminator 1
 5147 20d4 009B     		ldr	r3, [sp]
 5148 20d6 5969     		ldr	r1, [r3, #20]
 5149 20d8 019B     		ldr	r3, [sp, #4]
 5150 20da 1B68     		ldr	r3, [r3]
 5151 20dc DB68     		ldr	r3, [r3, #12]
 5152 20de 03F01803 		and	r3, r3, #24
 5153 20e2 DA08     		lsrs	r2, r3, #3
 5154 20e4 1346     		mov	r3, r2
 5155 20e6 DB07     		lsls	r3, r3, #31
 5156 20e8 9B1A     		subs	r3, r3, r2
 5157 20ea 5B00     		lsls	r3, r3, #1
 5158 20ec 0433     		adds	r3, r3, #4
 5159 20ee 21FA03F3 		lsr	r3, r1, r3
 5160 20f2 02E0     		b	.L362
 5161              	.L361:
 5162              		.loc 1 2486 0 discriminator 2
 5163 20f4 009B     		ldr	r3, [sp]
 5164 20f6 5B69     		ldr	r3, [r3, #20]
 5165 20f8 9B00     		lsls	r3, r3, #2
 5166              	.L362:
ARM GAS  /tmp/ccrsTBIG.s 			page 92


 5167              		.loc 1 2486 0 discriminator 3
 5168 20fa 0593     		str	r3, [sp, #20]
 5169              		.loc 1 2488 0 is_stmt 1 discriminator 3
 5170 20fc 009B     		ldr	r3, [sp]
 5171 20fe 1B68     		ldr	r3, [r3]
 5172 2100 022B     		cmp	r3, #2
 5173 2102 36D1     		bne	.L363
 5174              		.loc 1 2494 0
 5175 2104 009B     		ldr	r3, [sp]
 5176 2106 5B68     		ldr	r3, [r3, #4]
 5177 2108 002B     		cmp	r3, #0
 5178 210a 0ED0     		beq	.L364
 5179              		.loc 1 2496 0
 5180 210c 019B     		ldr	r3, [sp, #4]
 5181 210e 1B68     		ldr	r3, [r3]
 5182 2110 019A     		ldr	r2, [sp, #4]
 5183 2112 1268     		ldr	r2, [r2]
 5184 2114 D2F8A010 		ldr	r1, [r2, #160]
 5185 2118 009A     		ldr	r2, [sp]
 5186 211a 9268     		ldr	r2, [r2, #8]
 5187 211c 0120     		movs	r0, #1
 5188 211e 00FA02F2 		lsl	r2, r0, r2
 5189 2122 0A43     		orrs	r2, r2, r1
 5190 2124 C3F8A020 		str	r2, [r3, #160]
 5191 2128 09E0     		b	.L365
 5192              	.L364:
 5193              		.loc 1 2500 0
 5194 212a 019B     		ldr	r3, [sp, #4]
 5195 212c 1A68     		ldr	r2, [r3]
 5196 212e 019B     		ldr	r3, [sp, #4]
 5197 2130 1B68     		ldr	r3, [r3]
 5198 2132 D3F8A030 		ldr	r3, [r3, #160]
 5199 2136 DB0C     		lsrs	r3, r3, #19
 5200 2138 DB04     		lsls	r3, r3, #19
 5201 213a C2F8A030 		str	r3, [r2, #160]
 5202              	.L365:
 5203              		.loc 1 2504 0 discriminator 3
 5204 213e 019B     		ldr	r3, [sp, #4]
 5205 2140 1B68     		ldr	r3, [r3]
 5206 2142 019A     		ldr	r2, [sp, #4]
 5207 2144 1268     		ldr	r2, [r2]
 5208 2146 526A     		ldr	r2, [r2, #36]
 5209 2148 02F0FF21 		and	r1, r2, #-16711936
 5210 214c 069A     		ldr	r2, [sp, #24]
 5211 214e 1004     		lsls	r0, r2, #16
 5212 2150 059A     		ldr	r2, [sp, #20]
 5213 2152 0243     		orrs	r2, r2, r0
 5214 2154 0A43     		orrs	r2, r2, r1
 5215 2156 5A62     		str	r2, [r3, #36]
 5216              		.loc 1 2509 0 discriminator 3
 5217 2158 4FF48073 		mov	r3, #256
 5218 215c 0893     		str	r3, [sp, #32]
 5219              		.loc 1 2510 0 discriminator 3
 5220 215e 4FF48073 		mov	r3, #256
 5221 2162 0793     		str	r3, [sp, #28]
 5222              		.loc 1 2513 0 discriminator 3
 5223 2164 019B     		ldr	r3, [sp, #4]
ARM GAS  /tmp/ccrsTBIG.s 			page 93


 5224 2166 9B6D     		ldr	r3, [r3, #88]
 5225 2168 23F40032 		bic	r2, r3, #131072
 5226 216c 019B     		ldr	r3, [sp, #4]
 5227 216e 9A65     		str	r2, [r3, #88]
 5228 2170 35E0     		b	.L366
 5229              	.L363:
 5230              		.loc 1 2522 0
 5231 2172 009B     		ldr	r3, [sp]
 5232 2174 5B68     		ldr	r3, [r3, #4]
 5233 2176 002B     		cmp	r3, #0
 5234 2178 0ED0     		beq	.L367
 5235              		.loc 1 2524 0
 5236 217a 019B     		ldr	r3, [sp, #4]
 5237 217c 1B68     		ldr	r3, [r3]
 5238 217e 019A     		ldr	r2, [sp, #4]
 5239 2180 1268     		ldr	r2, [r2]
 5240 2182 D2F8A410 		ldr	r1, [r2, #164]
 5241 2186 009A     		ldr	r2, [sp]
 5242 2188 9268     		ldr	r2, [r2, #8]
 5243 218a 0120     		movs	r0, #1
 5244 218c 00FA02F2 		lsl	r2, r0, r2
 5245 2190 0A43     		orrs	r2, r2, r1
 5246 2192 C3F8A420 		str	r2, [r3, #164]
 5247 2196 09E0     		b	.L368
 5248              	.L367:
 5249              		.loc 1 2528 0
 5250 2198 019B     		ldr	r3, [sp, #4]
 5251 219a 1A68     		ldr	r2, [r3]
 5252 219c 019B     		ldr	r3, [sp, #4]
 5253 219e 1B68     		ldr	r3, [r3]
 5254 21a0 D3F8A430 		ldr	r3, [r3, #164]
 5255 21a4 DB0C     		lsrs	r3, r3, #19
 5256 21a6 DB04     		lsls	r3, r3, #19
 5257 21a8 C2F8A430 		str	r3, [r2, #164]
 5258              	.L368:
 5259              		.loc 1 2532 0
 5260 21ac 019B     		ldr	r3, [sp, #4]
 5261 21ae 1B68     		ldr	r3, [r3]
 5262 21b0 019A     		ldr	r2, [sp, #4]
 5263 21b2 1268     		ldr	r2, [r2]
 5264 21b4 926A     		ldr	r2, [r2, #40]
 5265 21b6 02F0FF21 		and	r1, r2, #-16711936
 5266 21ba 069A     		ldr	r2, [sp, #24]
 5267 21bc 1004     		lsls	r0, r2, #16
 5268 21be 059A     		ldr	r2, [sp, #20]
 5269 21c0 0243     		orrs	r2, r2, r0
 5270 21c2 0A43     		orrs	r2, r2, r1
 5271 21c4 9A62     		str	r2, [r3, #40]
 5272              		.loc 1 2537 0
 5273 21c6 4FF40073 		mov	r3, #512
 5274 21ca 0893     		str	r3, [sp, #32]
 5275              		.loc 1 2538 0
 5276 21cc 4FF40073 		mov	r3, #512
 5277 21d0 0793     		str	r3, [sp, #28]
 5278              		.loc 1 2541 0
 5279 21d2 019B     		ldr	r3, [sp, #4]
 5280 21d4 9B6D     		ldr	r3, [r3, #88]
ARM GAS  /tmp/ccrsTBIG.s 			page 94


 5281 21d6 23F48022 		bic	r2, r3, #262144
 5282 21da 019B     		ldr	r3, [sp, #4]
 5283 21dc 9A65     		str	r2, [r3, #88]
 5284              	.L366:
 5285              		.loc 1 2547 0
 5286 21de 019B     		ldr	r3, [sp, #4]
 5287 21e0 1B68     		ldr	r3, [r3]
 5288 21e2 089A     		ldr	r2, [sp, #32]
 5289 21e4 1A60     		str	r2, [r3]
 5290              		.loc 1 2550 0
 5291 21e6 009B     		ldr	r3, [sp]
 5292 21e8 DB68     		ldr	r3, [r3, #12]
 5293 21ea 012B     		cmp	r3, #1
 5294 21ec 08D1     		bne	.L369
 5295              		.loc 1 2552 0
 5296 21ee 019B     		ldr	r3, [sp, #4]
 5297 21f0 1B68     		ldr	r3, [r3]
 5298 21f2 019A     		ldr	r2, [sp, #4]
 5299 21f4 1268     		ldr	r2, [r2]
 5300 21f6 5168     		ldr	r1, [r2, #4]
 5301 21f8 079A     		ldr	r2, [sp, #28]
 5302 21fa 0A43     		orrs	r2, r2, r1
 5303 21fc 5A60     		str	r2, [r3, #4]
 5304 21fe 12E0     		b	.L370
 5305              	.L369:
 5306              		.loc 1 2556 0
 5307 2200 019B     		ldr	r3, [sp, #4]
 5308 2202 1B68     		ldr	r3, [r3]
 5309 2204 019A     		ldr	r2, [sp, #4]
 5310 2206 1268     		ldr	r2, [r2]
 5311 2208 5168     		ldr	r1, [r2, #4]
 5312 220a 079A     		ldr	r2, [sp, #28]
 5313 220c D243     		mvns	r2, r2
 5314 220e 0A40     		ands	r2, r2, r1
 5315 2210 5A60     		str	r2, [r3, #4]
 5316 2212 08E0     		b	.L370
 5317              	.L353:
 5318              		.loc 1 2566 0
 5319 2214 019B     		ldr	r3, [sp, #4]
 5320 2216 9B6D     		ldr	r3, [r3, #88]
 5321 2218 43F02002 		orr	r2, r3, #32
 5322 221c 019B     		ldr	r3, [sp, #4]
 5323 221e 9A65     		str	r2, [r3, #88]
 5324              		.loc 1 2568 0
 5325 2220 0123     		movs	r3, #1
 5326 2222 8DF82730 		strb	r3, [sp, #39]
 5327              	.L370:
 5328              		.loc 1 2573 0
 5329 2226 019B     		ldr	r3, [sp, #4]
 5330 2228 0022     		movs	r2, #0
 5331 222a 83F85420 		strb	r2, [r3, #84]
 5332              		.loc 1 2577 0
 5333 222e 9DF82730 		ldrb	r3, [sp, #39]	@ zero_extendqisi2
 5334              	.L352:
 5335              		.loc 1 2578 0
 5336 2232 1846     		mov	r0, r3
 5337 2234 0BB0     		add	sp, sp, #44
ARM GAS  /tmp/ccrsTBIG.s 			page 95


 5338              		@ sp needed
 5339 2236 5DF8044B 		ldr	r4, [sp], #4
 5340 223a 7047     		bx	lr
 5341              		.cfi_endproc
 5342              	.LFE144:
 5343              		.size	HAL_ADC_AnalogWDGConfig, .-HAL_ADC_AnalogWDGConfig
 5344              		.align	2
 5345 223c AFF30080 		.p2align 4,,15
 5346              		.global	HAL_ADC_GetState
 5347              		.thumb
 5348              		.thumb_func
 5349              		.type	HAL_ADC_GetState, %function
 5350              	HAL_ADC_GetState:
 5351              	.LFB145:
 5352              		.loc 1 2608 0
 5353              		.cfi_startproc
 5354              		@ args = 0, pretend = 0, frame = 8
 5355              		@ frame_needed = 0, uses_anonymous_args = 0
 5356              		@ link register save eliminated.
 5357 2240 82B0     		sub	sp, sp, #8
 5358              		.cfi_def_cfa_offset 8
 5359 2242 0190     		str	r0, [sp, #4]
 5360              		.loc 1 2613 0
 5361 2244 019B     		ldr	r3, [sp, #4]
 5362 2246 9B6D     		ldr	r3, [r3, #88]
 5363              		.loc 1 2614 0
 5364 2248 1846     		mov	r0, r3
 5365 224a 02B0     		add	sp, sp, #8
 5366              		@ sp needed
 5367 224c 7047     		bx	lr
 5368              		.cfi_endproc
 5369              	.LFE145:
 5370              		.size	HAL_ADC_GetState, .-HAL_ADC_GetState
 5371 224e 00BF     		.align	2
 5372              		.p2align 4,,15
 5373              		.global	HAL_ADC_GetError
 5374              		.thumb
 5375              		.thumb_func
 5376              		.type	HAL_ADC_GetError, %function
 5377              	HAL_ADC_GetError:
 5378              	.LFB146:
 5379              		.loc 1 2623 0
 5380              		.cfi_startproc
 5381              		@ args = 0, pretend = 0, frame = 8
 5382              		@ frame_needed = 0, uses_anonymous_args = 0
 5383              		@ link register save eliminated.
 5384 2250 82B0     		sub	sp, sp, #8
 5385              		.cfi_def_cfa_offset 8
 5386 2252 0190     		str	r0, [sp, #4]
 5387              		.loc 1 2627 0
 5388 2254 019B     		ldr	r3, [sp, #4]
 5389 2256 DB6D     		ldr	r3, [r3, #92]
 5390              		.loc 1 2628 0
 5391 2258 1846     		mov	r0, r3
 5392 225a 02B0     		add	sp, sp, #8
 5393              		@ sp needed
 5394 225c 7047     		bx	lr
ARM GAS  /tmp/ccrsTBIG.s 			page 96


 5395              		.cfi_endproc
 5396              	.LFE146:
 5397              		.size	HAL_ADC_GetError, .-HAL_ADC_GetError
 5398 225e 00BF     		.align	2
 5399              		.p2align 4,,15
 5400              		.global	ADC_ConversionStop
 5401              		.thumb
 5402              		.thumb_func
 5403              		.type	ADC_ConversionStop, %function
 5404              	ADC_ConversionStop:
 5405              	.LFB147:
 5406              		.loc 1 2655 0
 5407              		.cfi_startproc
 5408              		@ args = 0, pretend = 0, frame = 24
 5409              		@ frame_needed = 0, uses_anonymous_args = 0
 5410 2260 00B5     		push	{lr}
 5411              		.cfi_def_cfa_offset 4
 5412              		.cfi_offset 14, -4
 5413 2262 87B0     		sub	sp, sp, #28
 5414              		.cfi_def_cfa_offset 32
 5415 2264 0190     		str	r0, [sp, #4]
 5416 2266 0091     		str	r1, [sp]
 5417              		.loc 1 2656 0
 5418 2268 0023     		movs	r3, #0
 5419 226a 0593     		str	r3, [sp, #20]
 5420              		.loc 1 2657 0
 5421 226c 0023     		movs	r3, #0
 5422 226e 0393     		str	r3, [sp, #12]
 5423              		.loc 1 2658 0
 5424 2270 0023     		movs	r3, #0
 5425 2272 0493     		str	r3, [sp, #16]
 5426              		.loc 1 2666 0
 5427 2274 019B     		ldr	r3, [sp, #4]
 5428 2276 1B68     		ldr	r3, [r3]
 5429 2278 9B68     		ldr	r3, [r3, #8]
 5430 227a 03F00C03 		and	r3, r3, #12
 5431 227e 002B     		cmp	r3, #0
 5432 2280 00F09280 		beq	.L376
 5433              		.loc 1 2674 0
 5434 2284 019B     		ldr	r3, [sp, #4]
 5435 2286 1B68     		ldr	r3, [r3]
 5436 2288 DB68     		ldr	r3, [r3, #12]
 5437 228a 03F00073 		and	r3, r3, #33554432
 5438 228e 002B     		cmp	r3, #0
 5439 2290 2AD0     		beq	.L377
 5440              		.loc 1 2675 0
 5441 2292 019B     		ldr	r3, [sp, #4]
 5442 2294 DB69     		ldr	r3, [r3, #28]
 5443 2296 012B     		cmp	r3, #1
 5444 2298 26D1     		bne	.L377
 5445              		.loc 1 2676 0
 5446 229a 019B     		ldr	r3, [sp, #4]
 5447 229c 9B69     		ldr	r3, [r3, #24]
 5448 229e 012B     		cmp	r3, #1
 5449 22a0 22D1     		bne	.L377
 5450              		.loc 1 2679 0
 5451 22a2 0C23     		movs	r3, #12
ARM GAS  /tmp/ccrsTBIG.s 			page 97


 5452 22a4 0093     		str	r3, [sp]
 5453              		.loc 1 2682 0
 5454 22a6 14E0     		b	.L378
 5455              	.L381:
 5456              		.loc 1 2684 0
 5457 22a8 049A     		ldr	r2, [sp, #16]
 5458 22aa 424B     		ldr	r3, .L391
 5459 22ac 9A42     		cmp	r2, r3
 5460 22ae 0DD9     		bls	.L379
 5461              		.loc 1 2687 0
 5462 22b0 019B     		ldr	r3, [sp, #4]
 5463 22b2 9B6D     		ldr	r3, [r3, #88]
 5464 22b4 43F01002 		orr	r2, r3, #16
 5465 22b8 019B     		ldr	r3, [sp, #4]
 5466 22ba 9A65     		str	r2, [r3, #88]
 5467              		.loc 1 2690 0
 5468 22bc 019B     		ldr	r3, [sp, #4]
 5469 22be DB6D     		ldr	r3, [r3, #92]
 5470 22c0 43F00102 		orr	r2, r3, #1
 5471 22c4 019B     		ldr	r3, [sp, #4]
 5472 22c6 DA65     		str	r2, [r3, #92]
 5473              		.loc 1 2692 0
 5474 22c8 0123     		movs	r3, #1
 5475 22ca 6EE0     		b	.L380
 5476              	.L379:
 5477              		.loc 1 2694 0
 5478 22cc 049B     		ldr	r3, [sp, #16]
 5479 22ce 0133     		adds	r3, r3, #1
 5480 22d0 0493     		str	r3, [sp, #16]
 5481              	.L378:
 5482              		.loc 1 2682 0 discriminator 1
 5483 22d2 019B     		ldr	r3, [sp, #4]
 5484 22d4 1B68     		ldr	r3, [r3]
 5485 22d6 1B68     		ldr	r3, [r3]
 5486 22d8 03F04003 		and	r3, r3, #64
 5487 22dc 002B     		cmp	r3, #0
 5488 22de E3D0     		beq	.L381
 5489              		.loc 1 2698 0
 5490 22e0 019B     		ldr	r3, [sp, #4]
 5491 22e2 1B68     		ldr	r3, [r3]
 5492 22e4 4022     		movs	r2, #64
 5493 22e6 1A60     		str	r2, [r3]
 5494              	.L377:
 5495              		.loc 1 2702 0
 5496 22e8 009B     		ldr	r3, [sp]
 5497 22ea 602B     		cmp	r3, #96
 5498 22ec 15D0     		beq	.L382
 5499              		.loc 1 2705 0
 5500 22ee 019B     		ldr	r3, [sp, #4]
 5501 22f0 1B68     		ldr	r3, [r3]
 5502 22f2 9B68     		ldr	r3, [r3, #8]
 5503 22f4 03F00403 		and	r3, r3, #4
 5504 22f8 002B     		cmp	r3, #0
 5505 22fa 0ED0     		beq	.L382
 5506              		.loc 1 2706 0 discriminator 1
 5507 22fc 019B     		ldr	r3, [sp, #4]
 5508 22fe 1B68     		ldr	r3, [r3]
ARM GAS  /tmp/ccrsTBIG.s 			page 98


 5509 2300 9B68     		ldr	r3, [r3, #8]
 5510 2302 03F00203 		and	r3, r3, #2
 5511              		.loc 1 2705 0 discriminator 1
 5512 2306 002B     		cmp	r3, #0
 5513 2308 07D1     		bne	.L382
 5514              		.loc 1 2709 0
 5515 230a 019B     		ldr	r3, [sp, #4]
 5516 230c 1B68     		ldr	r3, [r3]
 5517 230e 019A     		ldr	r2, [sp, #4]
 5518 2310 1268     		ldr	r2, [r2]
 5519 2312 9268     		ldr	r2, [r2, #8]
 5520 2314 42F01002 		orr	r2, r2, #16
 5521 2318 9A60     		str	r2, [r3, #8]
 5522              	.L382:
 5523              		.loc 1 2714 0
 5524 231a 009B     		ldr	r3, [sp]
 5525 231c 0C2B     		cmp	r3, #12
 5526 231e 15D0     		beq	.L383
 5527              		.loc 1 2717 0
 5528 2320 019B     		ldr	r3, [sp, #4]
 5529 2322 1B68     		ldr	r3, [r3]
 5530 2324 9B68     		ldr	r3, [r3, #8]
 5531 2326 03F00803 		and	r3, r3, #8
 5532 232a 002B     		cmp	r3, #0
 5533 232c 0ED0     		beq	.L383
 5534              		.loc 1 2718 0 discriminator 1
 5535 232e 019B     		ldr	r3, [sp, #4]
 5536 2330 1B68     		ldr	r3, [r3]
 5537 2332 9B68     		ldr	r3, [r3, #8]
 5538 2334 03F00203 		and	r3, r3, #2
 5539              		.loc 1 2717 0 discriminator 1
 5540 2338 002B     		cmp	r3, #0
 5541 233a 07D1     		bne	.L383
 5542              		.loc 1 2721 0
 5543 233c 019B     		ldr	r3, [sp, #4]
 5544 233e 1B68     		ldr	r3, [r3]
 5545 2340 019A     		ldr	r2, [sp, #4]
 5546 2342 1268     		ldr	r2, [r2]
 5547 2344 9268     		ldr	r2, [r2, #8]
 5548 2346 42F02002 		orr	r2, r2, #32
 5549 234a 9A60     		str	r2, [r3, #8]
 5550              	.L383:
 5551              		.loc 1 2726 0
 5552 234c 009B     		ldr	r3, [sp]
 5553 234e 602B     		cmp	r3, #96
 5554 2350 04D0     		beq	.L385
 5555 2352 6C2B     		cmp	r3, #108
 5556 2354 05D1     		bne	.L390
 5557              		.loc 1 2729 0
 5558 2356 0C23     		movs	r3, #12
 5559 2358 0593     		str	r3, [sp, #20]
 5560              		.loc 1 2730 0
 5561 235a 05E0     		b	.L387
 5562              	.L385:
 5563              		.loc 1 2732 0
 5564 235c 0823     		movs	r3, #8
 5565 235e 0593     		str	r3, [sp, #20]
ARM GAS  /tmp/ccrsTBIG.s 			page 99


 5566              		.loc 1 2733 0
 5567 2360 02E0     		b	.L387
 5568              	.L390:
 5569              		.loc 1 2736 0
 5570 2362 0423     		movs	r3, #4
 5571 2364 0593     		str	r3, [sp, #20]
 5572              		.loc 1 2737 0
 5573 2366 00BF     		nop
 5574              	.L387:
 5575              		.loc 1 2743 0
 5576 2368 FFF7FEFF 		bl	HAL_GetTick
 5577 236c 0390     		str	r0, [sp, #12]
 5578              		.loc 1 2745 0
 5579 236e 14E0     		b	.L388
 5580              	.L389:
 5581              		.loc 1 2747 0
 5582 2370 FFF7FEFF 		bl	HAL_GetTick
 5583 2374 0246     		mov	r2, r0
 5584 2376 039B     		ldr	r3, [sp, #12]
 5585 2378 D31A     		subs	r3, r2, r3
 5586 237a 052B     		cmp	r3, #5
 5587 237c 0DD9     		bls	.L388
 5588              		.loc 1 2750 0
 5589 237e 019B     		ldr	r3, [sp, #4]
 5590 2380 9B6D     		ldr	r3, [r3, #88]
 5591 2382 43F01002 		orr	r2, r3, #16
 5592 2386 019B     		ldr	r3, [sp, #4]
 5593 2388 9A65     		str	r2, [r3, #88]
 5594              		.loc 1 2753 0
 5595 238a 019B     		ldr	r3, [sp, #4]
 5596 238c DB6D     		ldr	r3, [r3, #92]
 5597 238e 43F00102 		orr	r2, r3, #1
 5598 2392 019B     		ldr	r3, [sp, #4]
 5599 2394 DA65     		str	r2, [r3, #92]
 5600              		.loc 1 2755 0
 5601 2396 0123     		movs	r3, #1
 5602 2398 07E0     		b	.L380
 5603              	.L388:
 5604              		.loc 1 2745 0 discriminator 1
 5605 239a 019B     		ldr	r3, [sp, #4]
 5606 239c 1B68     		ldr	r3, [r3]
 5607 239e 9A68     		ldr	r2, [r3, #8]
 5608 23a0 059B     		ldr	r3, [sp, #20]
 5609 23a2 1340     		ands	r3, r3, r2
 5610 23a4 002B     		cmp	r3, #0
 5611 23a6 E3D1     		bne	.L389
 5612              	.L376:
 5613              		.loc 1 2762 0
 5614 23a8 0023     		movs	r3, #0
 5615              	.L380:
 5616              		.loc 1 2763 0
 5617 23aa 1846     		mov	r0, r3
 5618 23ac 07B0     		add	sp, sp, #28
 5619              		@ sp needed
 5620 23ae 5DF804FB 		ldr	pc, [sp], #4
 5621              	.L392:
 5622 23b2 00BF     		.align	2
ARM GAS  /tmp/ccrsTBIG.s 			page 100


 5623              	.L391:
 5624 23b4 FF330A00 		.word	668671
 5625              		.cfi_endproc
 5626              	.LFE147:
 5627              		.size	ADC_ConversionStop, .-ADC_ConversionStop
 5628              		.align	2
 5629 23b8 AFF30080 		.p2align 4,,15
 5629      AFF30080 
 5630              		.global	ADC_Enable
 5631              		.thumb
 5632              		.thumb_func
 5633              		.type	ADC_Enable, %function
 5634              	ADC_Enable:
 5635              	.LFB148:
 5636              		.loc 1 2775 0
 5637              		.cfi_startproc
 5638              		@ args = 0, pretend = 0, frame = 16
 5639              		@ frame_needed = 0, uses_anonymous_args = 0
 5640 23c0 00B5     		push	{lr}
 5641              		.cfi_def_cfa_offset 4
 5642              		.cfi_offset 14, -4
 5643 23c2 85B0     		sub	sp, sp, #20
 5644              		.cfi_def_cfa_offset 24
 5645 23c4 0190     		str	r0, [sp, #4]
 5646              		.loc 1 2776 0
 5647 23c6 0023     		movs	r3, #0
 5648 23c8 0393     		str	r3, [sp, #12]
 5649              		.loc 1 2782 0
 5650 23ca 019B     		ldr	r3, [sp, #4]
 5651 23cc 1B68     		ldr	r3, [r3]
 5652 23ce 9B68     		ldr	r3, [r3, #8]
 5653 23d0 03F00303 		and	r3, r3, #3
 5654 23d4 012B     		cmp	r3, #1
 5655 23d6 08D1     		bne	.L394
 5656              		.loc 1 2782 0 is_stmt 0 discriminator 1
 5657 23d8 019B     		ldr	r3, [sp, #4]
 5658 23da 1B68     		ldr	r3, [r3]
 5659 23dc 1B68     		ldr	r3, [r3]
 5660 23de 03F00103 		and	r3, r3, #1
 5661 23e2 002B     		cmp	r3, #0
 5662 23e4 01D0     		beq	.L394
 5663              		.loc 1 2782 0 discriminator 3
 5664 23e6 0123     		movs	r3, #1
 5665 23e8 00E0     		b	.L395
 5666              	.L394:
 5667              		.loc 1 2782 0 discriminator 2
 5668 23ea 0023     		movs	r3, #0
 5669              	.L395:
 5670              		.loc 1 2782 0 discriminator 4
 5671 23ec 002B     		cmp	r3, #0
 5672 23ee 44D1     		bne	.L396
 5673              		.loc 1 2785 0 is_stmt 1
 5674 23f0 019B     		ldr	r3, [sp, #4]
 5675 23f2 1B68     		ldr	r3, [r3]
 5676 23f4 9A68     		ldr	r2, [r3, #8]
 5677 23f6 234B     		ldr	r3, .L401
 5678 23f8 1340     		ands	r3, r3, r2
ARM GAS  /tmp/ccrsTBIG.s 			page 101


 5679 23fa 002B     		cmp	r3, #0
 5680 23fc 0DD0     		beq	.L397
 5681              		.loc 1 2788 0
 5682 23fe 019B     		ldr	r3, [sp, #4]
 5683 2400 9B6D     		ldr	r3, [r3, #88]
 5684 2402 43F01002 		orr	r2, r3, #16
 5685 2406 019B     		ldr	r3, [sp, #4]
 5686 2408 9A65     		str	r2, [r3, #88]
 5687              		.loc 1 2791 0
 5688 240a 019B     		ldr	r3, [sp, #4]
 5689 240c DB6D     		ldr	r3, [r3, #92]
 5690 240e 43F00102 		orr	r2, r3, #1
 5691 2412 019B     		ldr	r3, [sp, #4]
 5692 2414 DA65     		str	r2, [r3, #92]
 5693              		.loc 1 2793 0
 5694 2416 0123     		movs	r3, #1
 5695 2418 30E0     		b	.L398
 5696              	.L397:
 5697              		.loc 1 2797 0
 5698 241a 019B     		ldr	r3, [sp, #4]
 5699 241c 1B68     		ldr	r3, [r3]
 5700 241e 019A     		ldr	r2, [sp, #4]
 5701 2420 1268     		ldr	r2, [r2]
 5702 2422 9268     		ldr	r2, [r2, #8]
 5703 2424 42F00102 		orr	r2, r2, #1
 5704 2428 9A60     		str	r2, [r3, #8]
 5705              		.loc 1 2801 0
 5706 242a FFF7FEFF 		bl	HAL_GetTick
 5707 242e 0390     		str	r0, [sp, #12]
 5708              		.loc 1 2803 0
 5709 2430 1CE0     		b	.L399
 5710              	.L400:
 5711              		.loc 1 2811 0
 5712 2432 019B     		ldr	r3, [sp, #4]
 5713 2434 1B68     		ldr	r3, [r3]
 5714 2436 019A     		ldr	r2, [sp, #4]
 5715 2438 1268     		ldr	r2, [r2]
 5716 243a 9268     		ldr	r2, [r2, #8]
 5717 243c 42F00102 		orr	r2, r2, #1
 5718 2440 9A60     		str	r2, [r3, #8]
 5719              		.loc 1 2813 0
 5720 2442 FFF7FEFF 		bl	HAL_GetTick
 5721 2446 0246     		mov	r2, r0
 5722 2448 039B     		ldr	r3, [sp, #12]
 5723 244a D31A     		subs	r3, r2, r3
 5724 244c 022B     		cmp	r3, #2
 5725 244e 0DD9     		bls	.L399
 5726              		.loc 1 2816 0
 5727 2450 019B     		ldr	r3, [sp, #4]
 5728 2452 9B6D     		ldr	r3, [r3, #88]
 5729 2454 43F01002 		orr	r2, r3, #16
 5730 2458 019B     		ldr	r3, [sp, #4]
 5731 245a 9A65     		str	r2, [r3, #88]
 5732              		.loc 1 2819 0
 5733 245c 019B     		ldr	r3, [sp, #4]
 5734 245e DB6D     		ldr	r3, [r3, #92]
 5735 2460 43F00102 		orr	r2, r3, #1
ARM GAS  /tmp/ccrsTBIG.s 			page 102


 5736 2464 019B     		ldr	r3, [sp, #4]
 5737 2466 DA65     		str	r2, [r3, #92]
 5738              		.loc 1 2821 0
 5739 2468 0123     		movs	r3, #1
 5740 246a 07E0     		b	.L398
 5741              	.L399:
 5742              		.loc 1 2803 0 discriminator 1
 5743 246c 019B     		ldr	r3, [sp, #4]
 5744 246e 1B68     		ldr	r3, [r3]
 5745 2470 1B68     		ldr	r3, [r3]
 5746 2472 03F00103 		and	r3, r3, #1
 5747 2476 002B     		cmp	r3, #0
 5748 2478 DBD0     		beq	.L400
 5749              	.L396:
 5750              		.loc 1 2827 0
 5751 247a 0023     		movs	r3, #0
 5752              	.L398:
 5753              		.loc 1 2828 0
 5754 247c 1846     		mov	r0, r3
 5755 247e 05B0     		add	sp, sp, #20
 5756              		@ sp needed
 5757 2480 5DF804FB 		ldr	pc, [sp], #4
 5758              	.L402:
 5759              		.align	2
 5760              	.L401:
 5761 2484 3F000080 		.word	-2147483585
 5762              		.cfi_endproc
 5763              	.LFE148:
 5764              		.size	ADC_Enable, .-ADC_Enable
 5765              		.align	2
 5766 2488 AFF30080 		.p2align 4,,15
 5766      AFF30080 
 5767              		.global	ADC_Disable
 5768              		.thumb
 5769              		.thumb_func
 5770              		.type	ADC_Disable, %function
 5771              	ADC_Disable:
 5772              	.LFB149:
 5773              		.loc 1 2838 0
 5774              		.cfi_startproc
 5775              		@ args = 0, pretend = 0, frame = 16
 5776              		@ frame_needed = 0, uses_anonymous_args = 0
 5777 2490 00B5     		push	{lr}
 5778              		.cfi_def_cfa_offset 4
 5779              		.cfi_offset 14, -4
 5780 2492 85B0     		sub	sp, sp, #20
 5781              		.cfi_def_cfa_offset 24
 5782 2494 0190     		str	r0, [sp, #4]
 5783              		.loc 1 2839 0
 5784 2496 0023     		movs	r3, #0
 5785 2498 0393     		str	r3, [sp, #12]
 5786              		.loc 1 2844 0
 5787 249a 019B     		ldr	r3, [sp, #4]
 5788 249c 1B68     		ldr	r3, [r3]
 5789 249e 9B68     		ldr	r3, [r3, #8]
 5790 24a0 03F00303 		and	r3, r3, #3
 5791 24a4 012B     		cmp	r3, #1
ARM GAS  /tmp/ccrsTBIG.s 			page 103


 5792 24a6 08D1     		bne	.L404
 5793              		.loc 1 2844 0 is_stmt 0 discriminator 1
 5794 24a8 019B     		ldr	r3, [sp, #4]
 5795 24aa 1B68     		ldr	r3, [r3]
 5796 24ac 1B68     		ldr	r3, [r3]
 5797 24ae 03F00103 		and	r3, r3, #1
 5798 24b2 002B     		cmp	r3, #0
 5799 24b4 01D0     		beq	.L404
 5800              		.loc 1 2844 0 discriminator 3
 5801 24b6 0123     		movs	r3, #1
 5802 24b8 00E0     		b	.L405
 5803              	.L404:
 5804              		.loc 1 2844 0 discriminator 2
 5805 24ba 0023     		movs	r3, #0
 5806              	.L405:
 5807              		.loc 1 2844 0 discriminator 4
 5808 24bc 002B     		cmp	r3, #0
 5809 24be 40D0     		beq	.L406
 5810              		.loc 1 2847 0 is_stmt 1
 5811 24c0 019B     		ldr	r3, [sp, #4]
 5812 24c2 1B68     		ldr	r3, [r3]
 5813 24c4 9B68     		ldr	r3, [r3, #8]
 5814 24c6 03F00D03 		and	r3, r3, #13
 5815 24ca 012B     		cmp	r3, #1
 5816 24cc 0FD1     		bne	.L407
 5817              		.loc 1 2850 0
 5818 24ce 019B     		ldr	r3, [sp, #4]
 5819 24d0 1B68     		ldr	r3, [r3]
 5820 24d2 019A     		ldr	r2, [sp, #4]
 5821 24d4 1268     		ldr	r2, [r2]
 5822 24d6 9268     		ldr	r2, [r2, #8]
 5823 24d8 42F00202 		orr	r2, r2, #2
 5824 24dc 9A60     		str	r2, [r3, #8]
 5825 24de 019B     		ldr	r3, [sp, #4]
 5826 24e0 1B68     		ldr	r3, [r3]
 5827 24e2 0322     		movs	r2, #3
 5828 24e4 1A60     		str	r2, [r3]
 5829              		.loc 1 2864 0
 5830 24e6 FFF7FEFF 		bl	HAL_GetTick
 5831 24ea 0390     		str	r0, [sp, #12]
 5832              		.loc 1 2866 0
 5833 24ec 22E0     		b	.L410
 5834              	.L407:
 5835              		.loc 1 2855 0
 5836 24ee 019B     		ldr	r3, [sp, #4]
 5837 24f0 9B6D     		ldr	r3, [r3, #88]
 5838 24f2 43F01002 		orr	r2, r3, #16
 5839 24f6 019B     		ldr	r3, [sp, #4]
 5840 24f8 9A65     		str	r2, [r3, #88]
 5841              		.loc 1 2858 0
 5842 24fa 019B     		ldr	r3, [sp, #4]
 5843 24fc DB6D     		ldr	r3, [r3, #92]
 5844 24fe 43F00102 		orr	r2, r3, #1
 5845 2502 019B     		ldr	r3, [sp, #4]
 5846 2504 DA65     		str	r2, [r3, #92]
 5847              		.loc 1 2860 0
 5848 2506 0123     		movs	r3, #1
ARM GAS  /tmp/ccrsTBIG.s 			page 104


 5849 2508 1CE0     		b	.L409
 5850              	.L411:
 5851              		.loc 1 2868 0
 5852 250a FFF7FEFF 		bl	HAL_GetTick
 5853 250e 0246     		mov	r2, r0
 5854 2510 039B     		ldr	r3, [sp, #12]
 5855 2512 D31A     		subs	r3, r2, r3
 5856 2514 022B     		cmp	r3, #2
 5857 2516 0DD9     		bls	.L410
 5858              		.loc 1 2871 0
 5859 2518 019B     		ldr	r3, [sp, #4]
 5860 251a 9B6D     		ldr	r3, [r3, #88]
 5861 251c 43F01002 		orr	r2, r3, #16
 5862 2520 019B     		ldr	r3, [sp, #4]
 5863 2522 9A65     		str	r2, [r3, #88]
 5864              		.loc 1 2874 0
 5865 2524 019B     		ldr	r3, [sp, #4]
 5866 2526 DB6D     		ldr	r3, [r3, #92]
 5867 2528 43F00102 		orr	r2, r3, #1
 5868 252c 019B     		ldr	r3, [sp, #4]
 5869 252e DA65     		str	r2, [r3, #92]
 5870              		.loc 1 2876 0
 5871 2530 0123     		movs	r3, #1
 5872 2532 07E0     		b	.L409
 5873              	.L410:
 5874              		.loc 1 2866 0 discriminator 1
 5875 2534 019B     		ldr	r3, [sp, #4]
 5876 2536 1B68     		ldr	r3, [r3]
 5877 2538 9B68     		ldr	r3, [r3, #8]
 5878 253a 03F00103 		and	r3, r3, #1
 5879 253e 002B     		cmp	r3, #0
 5880 2540 E3D1     		bne	.L411
 5881              	.L406:
 5882              		.loc 1 2882 0
 5883 2542 0023     		movs	r3, #0
 5884              	.L409:
 5885              		.loc 1 2883 0
 5886 2544 1846     		mov	r0, r3
 5887 2546 05B0     		add	sp, sp, #20
 5888              		@ sp needed
 5889 2548 5DF804FB 		ldr	pc, [sp], #4
 5890              		.cfi_endproc
 5891              	.LFE149:
 5892              		.size	ADC_Disable, .-ADC_Disable
 5893              		.align	2
 5894 254c AFF30080 		.p2align 4,,15
 5895              		.global	ADC_DMAConvCplt
 5896              		.thumb
 5897              		.thumb_func
 5898              		.type	ADC_DMAConvCplt, %function
 5899              	ADC_DMAConvCplt:
 5900              	.LFB150:
 5901              		.loc 1 2892 0
 5902              		.cfi_startproc
 5903              		@ args = 0, pretend = 0, frame = 16
 5904              		@ frame_needed = 0, uses_anonymous_args = 0
 5905 2550 00B5     		push	{lr}
ARM GAS  /tmp/ccrsTBIG.s 			page 105


 5906              		.cfi_def_cfa_offset 4
 5907              		.cfi_offset 14, -4
 5908 2552 85B0     		sub	sp, sp, #20
 5909              		.cfi_def_cfa_offset 24
 5910 2554 0190     		str	r0, [sp, #4]
 5911              		.loc 1 2894 0
 5912 2556 019B     		ldr	r3, [sp, #4]
 5913 2558 9B6A     		ldr	r3, [r3, #40]
 5914 255a 0393     		str	r3, [sp, #12]
 5915              		.loc 1 2897 0
 5916 255c 039B     		ldr	r3, [sp, #12]
 5917 255e 9B6D     		ldr	r3, [r3, #88]
 5918 2560 03F05003 		and	r3, r3, #80
 5919 2564 002B     		cmp	r3, #0
 5920 2566 4AD1     		bne	.L413
 5921              		.loc 1 2900 0
 5922 2568 039B     		ldr	r3, [sp, #12]
 5923 256a 9B6D     		ldr	r3, [r3, #88]
 5924 256c 43F40072 		orr	r2, r3, #512
 5925 2570 039B     		ldr	r3, [sp, #12]
 5926 2572 9A65     		str	r2, [r3, #88]
 5927              		.loc 1 2902 0
 5928 2574 039B     		ldr	r3, [sp, #12]
 5929 2576 1B68     		ldr	r3, [r3]
 5930 2578 1B68     		ldr	r3, [r3]
 5931 257a 03F00803 		and	r3, r3, #8
 5932 257e 002B     		cmp	r3, #0
 5933 2580 20D0     		beq	.L414
 5934              		.loc 1 2905 0
 5935 2582 039B     		ldr	r3, [sp, #12]
 5936 2584 1B68     		ldr	r3, [r3]
 5937 2586 DB68     		ldr	r3, [r3, #12]
 5938 2588 03F44063 		and	r3, r3, #3072
 5939 258c 002B     		cmp	r3, #0
 5940 258e 32D1     		bne	.L416
 5941              		.loc 1 2908 0
 5942 2590 039B     		ldr	r3, [sp, #12]
 5943 2592 1B68     		ldr	r3, [r3]
 5944 2594 DB68     		ldr	r3, [r3, #12]
 5945 2596 03F40053 		and	r3, r3, #8192
 5946 259a 002B     		cmp	r3, #0
 5947 259c 2BD1     		bne	.L416
 5948              		.loc 1 2911 0
 5949 259e 039B     		ldr	r3, [sp, #12]
 5950 25a0 9B6D     		ldr	r3, [r3, #88]
 5951 25a2 23F48072 		bic	r2, r3, #256
 5952 25a6 039B     		ldr	r3, [sp, #12]
 5953 25a8 9A65     		str	r2, [r3, #88]
 5954              		.loc 1 2912 0
 5955 25aa 039B     		ldr	r3, [sp, #12]
 5956 25ac 9B6D     		ldr	r3, [r3, #88]
 5957 25ae 03F48053 		and	r3, r3, #4096
 5958 25b2 002B     		cmp	r3, #0
 5959 25b4 1FD1     		bne	.L416
 5960              		.loc 1 2914 0
 5961 25b6 039B     		ldr	r3, [sp, #12]
 5962 25b8 9B6D     		ldr	r3, [r3, #88]
ARM GAS  /tmp/ccrsTBIG.s 			page 106


 5963 25ba 43F00102 		orr	r2, r3, #1
 5964 25be 039B     		ldr	r3, [sp, #12]
 5965 25c0 9A65     		str	r2, [r3, #88]
 5966 25c2 18E0     		b	.L416
 5967              	.L414:
 5968              		.loc 1 2923 0
 5969 25c4 039B     		ldr	r3, [sp, #12]
 5970 25c6 1B68     		ldr	r3, [r3]
 5971 25c8 DB68     		ldr	r3, [r3, #12]
 5972 25ca 03F00203 		and	r3, r3, #2
 5973 25ce 002B     		cmp	r3, #0
 5974 25d0 11D1     		bne	.L416
 5975              		.loc 1 2926 0
 5976 25d2 039B     		ldr	r3, [sp, #12]
 5977 25d4 9B6D     		ldr	r3, [r3, #88]
 5978 25d6 23F48072 		bic	r2, r3, #256
 5979 25da 039B     		ldr	r3, [sp, #12]
 5980 25dc 9A65     		str	r2, [r3, #88]
 5981              		.loc 1 2927 0
 5982 25de 039B     		ldr	r3, [sp, #12]
 5983 25e0 9B6D     		ldr	r3, [r3, #88]
 5984 25e2 03F48053 		and	r3, r3, #4096
 5985 25e6 002B     		cmp	r3, #0
 5986 25e8 05D1     		bne	.L416
 5987              		.loc 1 2929 0
 5988 25ea 039B     		ldr	r3, [sp, #12]
 5989 25ec 9B6D     		ldr	r3, [r3, #88]
 5990 25ee 43F00102 		orr	r2, r3, #1
 5991 25f2 039B     		ldr	r3, [sp, #12]
 5992 25f4 9A65     		str	r2, [r3, #88]
 5993              	.L416:
 5994              		.loc 1 2935 0 discriminator 1
 5995 25f6 0398     		ldr	r0, [sp, #12]
 5996 25f8 FFF7FEFF 		bl	HAL_ADC_ConvCpltCallback
 5997 25fc 08E0     		b	.L412
 5998              	.L413:
 5999              		.loc 1 2940 0
 6000 25fe 039B     		ldr	r3, [sp, #12]
 6001 2600 9B6D     		ldr	r3, [r3, #88]
 6002 2602 03F01003 		and	r3, r3, #16
 6003 2606 002B     		cmp	r3, #0
 6004 2608 02D0     		beq	.L412
 6005              		.loc 1 2943 0
 6006 260a 0398     		ldr	r0, [sp, #12]
 6007 260c FFF7FEFF 		bl	HAL_ADC_ErrorCallback
 6008              	.L412:
 6009              		.loc 1 2949 0
 6010 2610 05B0     		add	sp, sp, #20
 6011              		@ sp needed
 6012 2612 5DF804FB 		ldr	pc, [sp], #4
 6013              		.cfi_endproc
 6014              	.LFE150:
 6015              		.size	ADC_DMAConvCplt, .-ADC_DMAConvCplt
 6016 2616 00BF     		.align	2
 6017 2618 AFF30080 		.p2align 4,,15
 6017      AFF30080 
 6018              		.global	ADC_DMAHalfConvCplt
ARM GAS  /tmp/ccrsTBIG.s 			page 107


 6019              		.thumb
 6020              		.thumb_func
 6021              		.type	ADC_DMAHalfConvCplt, %function
 6022              	ADC_DMAHalfConvCplt:
 6023              	.LFB151:
 6024              		.loc 1 2957 0
 6025              		.cfi_startproc
 6026              		@ args = 0, pretend = 0, frame = 16
 6027              		@ frame_needed = 0, uses_anonymous_args = 0
 6028 2620 00B5     		push	{lr}
 6029              		.cfi_def_cfa_offset 4
 6030              		.cfi_offset 14, -4
 6031 2622 85B0     		sub	sp, sp, #20
 6032              		.cfi_def_cfa_offset 24
 6033 2624 0190     		str	r0, [sp, #4]
 6034              		.loc 1 2959 0
 6035 2626 019B     		ldr	r3, [sp, #4]
 6036 2628 9B6A     		ldr	r3, [r3, #40]
 6037 262a 0393     		str	r3, [sp, #12]
 6038              		.loc 1 2962 0
 6039 262c 0398     		ldr	r0, [sp, #12]
 6040 262e FFF7FEFF 		bl	HAL_ADC_ConvHalfCpltCallback
 6041              		.loc 1 2963 0
 6042 2632 05B0     		add	sp, sp, #20
 6043              		@ sp needed
 6044 2634 5DF804FB 		ldr	pc, [sp], #4
 6045              		.cfi_endproc
 6046              	.LFE151:
 6047              		.size	ADC_DMAHalfConvCplt, .-ADC_DMAHalfConvCplt
 6048              		.align	2
 6049 2638 AFF30080 		.p2align 4,,15
 6049      AFF30080 
 6050              		.global	ADC_DMAError
 6051              		.thumb
 6052              		.thumb_func
 6053              		.type	ADC_DMAError, %function
 6054              	ADC_DMAError:
 6055              	.LFB152:
 6056              		.loc 1 2971 0
 6057              		.cfi_startproc
 6058              		@ args = 0, pretend = 0, frame = 16
 6059              		@ frame_needed = 0, uses_anonymous_args = 0
 6060 2640 00B5     		push	{lr}
 6061              		.cfi_def_cfa_offset 4
 6062              		.cfi_offset 14, -4
 6063 2642 85B0     		sub	sp, sp, #20
 6064              		.cfi_def_cfa_offset 24
 6065 2644 0190     		str	r0, [sp, #4]
 6066              		.loc 1 2973 0
 6067 2646 019B     		ldr	r3, [sp, #4]
 6068 2648 9B6A     		ldr	r3, [r3, #40]
 6069 264a 0393     		str	r3, [sp, #12]
 6070              		.loc 1 2976 0
 6071 264c 039B     		ldr	r3, [sp, #12]
 6072 264e 9B6D     		ldr	r3, [r3, #88]
 6073 2650 43F04002 		orr	r2, r3, #64
 6074 2654 039B     		ldr	r3, [sp, #12]
ARM GAS  /tmp/ccrsTBIG.s 			page 108


 6075 2656 9A65     		str	r2, [r3, #88]
 6076              		.loc 1 2979 0
 6077 2658 039B     		ldr	r3, [sp, #12]
 6078 265a DB6D     		ldr	r3, [r3, #92]
 6079 265c 43F00402 		orr	r2, r3, #4
 6080 2660 039B     		ldr	r3, [sp, #12]
 6081 2662 DA65     		str	r2, [r3, #92]
 6082              		.loc 1 2982 0
 6083 2664 0398     		ldr	r0, [sp, #12]
 6084 2666 FFF7FEFF 		bl	HAL_ADC_ErrorCallback
 6085              		.loc 1 2983 0
 6086 266a 05B0     		add	sp, sp, #20
 6087              		@ sp needed
 6088 266c 5DF804FB 		ldr	pc, [sp], #4
 6089              		.cfi_endproc
 6090              	.LFE152:
 6091              		.size	ADC_DMAError, .-ADC_DMAError
 6092              	.Letext0:
 6093              		.file 3 "/nfs/nfs5/home/research/hardware/arm2/gcc-arm-embedded/gcc-arm-none-eabi-4_8-2014q2/arm-n
 6094              		.file 4 "/nfs/nfs5/home/research/hardware/arm2/gcc-arm-embedded/gcc-arm-none-eabi-4_8-2014q2/arm-n
 6095              		.file 5 "../../../../../../ChibiOS/os/ext/CMSIS/ST/STM32L4xx/stm32l476xx.h"
 6096              		.file 6 "../../../../../../ChibiOS/os/ext/CMSIS/ST/STM32L4xx/stm32l4xx.h"
 6097              		.file 7 "../../../../../Drivers/STM32L4xx_HAL_Driver/Inc/stm32l4xx_hal_def.h"
 6098              		.file 8 "../../../../../Drivers/STM32L4xx_HAL_Driver/Inc/stm32l4xx_hal_dma.h"
 6099              		.file 9 "../../../../../Drivers/STM32L4xx_HAL_Driver/Inc/stm32l4xx_hal_adc.h"
 6100              		.file 10 "../../../../../Drivers/STM32L4xx_HAL_Driver/Inc/stm32l4xx_hal_adc_ex.h"
 6101              		.file 11 "../../../../../../ChibiOS/os/ext/CMSIS/include/core_cm4.h"
 6102              		.file 12 "../../../../../../ChibiOS/os/ext/CMSIS/ST/STM32L4xx/system_stm32l4xx.h"
 6103              		.section	.debug_info,"",%progbits
 6104              	.Ldebug_info0:
 6105 0000 03150000 		.4byte	0x1503
 6106 0004 0400     		.2byte	0x4
 6107 0006 00000000 		.4byte	.Ldebug_abbrev0
 6108 000a 04       		.byte	0x4
 6109 000b 01       		.uleb128 0x1
 6110 000c 48000000 		.4byte	.LASF194
 6111 0010 01       		.byte	0x1
 6112 0011 C5020000 		.4byte	.LASF195
 6113 0015 490A0000 		.4byte	.LASF196
 6114 0019 00000000 		.4byte	.Ltext0
 6115 001d 70260000 		.4byte	.Letext0-.Ltext0
 6116 0021 00000000 		.4byte	.Ldebug_line0
 6117 0025 02       		.uleb128 0x2
 6118 0026 01       		.byte	0x1
 6119 0027 06       		.byte	0x6
 6120 0028 0B010000 		.4byte	.LASF0
 6121 002c 03       		.uleb128 0x3
 6122 002d 17010000 		.4byte	.LASF4
 6123 0031 03       		.byte	0x3
 6124 0032 1C       		.byte	0x1c
 6125 0033 37000000 		.4byte	0x37
 6126 0037 02       		.uleb128 0x2
 6127 0038 01       		.byte	0x1
 6128 0039 08       		.byte	0x8
 6129 003a E9070000 		.4byte	.LASF1
 6130 003e 02       		.uleb128 0x2
 6131 003f 02       		.byte	0x2
ARM GAS  /tmp/ccrsTBIG.s 			page 109


 6132 0040 05       		.byte	0x5
 6133 0041 19080000 		.4byte	.LASF2
 6134 0045 02       		.uleb128 0x2
 6135 0046 02       		.byte	0x2
 6136 0047 07       		.byte	0x7
 6137 0048 7D040000 		.4byte	.LASF3
 6138 004c 03       		.uleb128 0x3
 6139 004d A4090000 		.4byte	.LASF5
 6140 0051 03       		.byte	0x3
 6141 0052 37       		.byte	0x37
 6142 0053 57000000 		.4byte	0x57
 6143 0057 02       		.uleb128 0x2
 6144 0058 04       		.byte	0x4
 6145 0059 05       		.byte	0x5
 6146 005a 80020000 		.4byte	.LASF6
 6147 005e 03       		.uleb128 0x3
 6148 005f AB030000 		.4byte	.LASF7
 6149 0063 03       		.byte	0x3
 6150 0064 38       		.byte	0x38
 6151 0065 69000000 		.4byte	0x69
 6152 0069 02       		.uleb128 0x2
 6153 006a 04       		.byte	0x4
 6154 006b 07       		.byte	0x7
 6155 006c 47040000 		.4byte	.LASF8
 6156 0070 02       		.uleb128 0x2
 6157 0071 08       		.byte	0x8
 6158 0072 05       		.byte	0x5
 6159 0073 03020000 		.4byte	.LASF9
 6160 0077 02       		.uleb128 0x2
 6161 0078 08       		.byte	0x8
 6162 0079 07       		.byte	0x7
 6163 007a 62010000 		.4byte	.LASF10
 6164 007e 04       		.uleb128 0x4
 6165 007f 04       		.byte	0x4
 6166 0080 05       		.byte	0x5
 6167 0081 696E7400 		.ascii	"int\000"
 6168 0085 02       		.uleb128 0x2
 6169 0086 04       		.byte	0x4
 6170 0087 07       		.byte	0x7
 6171 0088 0E040000 		.4byte	.LASF11
 6172 008c 03       		.uleb128 0x3
 6173 008d 210B0000 		.4byte	.LASF12
 6174 0091 04       		.byte	0x4
 6175 0092 2A       		.byte	0x2a
 6176 0093 2C000000 		.4byte	0x2c
 6177 0097 03       		.uleb128 0x3
 6178 0098 E1070000 		.4byte	.LASF13
 6179 009c 04       		.byte	0x4
 6180 009d 41       		.byte	0x41
 6181 009e 4C000000 		.4byte	0x4c
 6182 00a2 03       		.uleb128 0x3
 6183 00a3 330A0000 		.4byte	.LASF14
 6184 00a7 04       		.byte	0x4
 6185 00a8 42       		.byte	0x42
 6186 00a9 5E000000 		.4byte	0x5e
 6187 00ad 02       		.uleb128 0x2
 6188 00ae 04       		.byte	0x4
ARM GAS  /tmp/ccrsTBIG.s 			page 110


 6189 00af 07       		.byte	0x7
 6190 00b0 27060000 		.4byte	.LASF15
 6191 00b4 05       		.uleb128 0x5
 6192 00b5 A2000000 		.4byte	0xa2
 6193 00b9 06       		.uleb128 0x6
 6194 00ba A2000000 		.4byte	0xa2
 6195 00be C9000000 		.4byte	0xc9
 6196 00c2 07       		.uleb128 0x7
 6197 00c3 AD000000 		.4byte	0xad
 6198 00c7 03       		.byte	0x3
 6199 00c8 00       		.byte	0
 6200 00c9 08       		.uleb128 0x8
 6201 00ca B8       		.byte	0xb8
 6202 00cb 05       		.byte	0x5
 6203 00cc C4       		.byte	0xc4
 6204 00cd 8C020000 		.4byte	0x28c
 6205 00d1 09       		.uleb128 0x9
 6206 00d2 49535200 		.ascii	"ISR\000"
 6207 00d6 05       		.byte	0x5
 6208 00d7 C6       		.byte	0xc6
 6209 00d8 B4000000 		.4byte	0xb4
 6210 00dc 00       		.byte	0
 6211 00dd 09       		.uleb128 0x9
 6212 00de 49455200 		.ascii	"IER\000"
 6213 00e2 05       		.byte	0x5
 6214 00e3 C7       		.byte	0xc7
 6215 00e4 B4000000 		.4byte	0xb4
 6216 00e8 04       		.byte	0x4
 6217 00e9 09       		.uleb128 0x9
 6218 00ea 435200   		.ascii	"CR\000"
 6219 00ed 05       		.byte	0x5
 6220 00ee C8       		.byte	0xc8
 6221 00ef B4000000 		.4byte	0xb4
 6222 00f3 08       		.byte	0x8
 6223 00f4 0A       		.uleb128 0xa
 6224 00f5 3E0B0000 		.4byte	.LASF16
 6225 00f9 05       		.byte	0x5
 6226 00fa C9       		.byte	0xc9
 6227 00fb B4000000 		.4byte	0xb4
 6228 00ff 0C       		.byte	0xc
 6229 0100 0A       		.uleb128 0xa
 6230 0101 59040000 		.4byte	.LASF17
 6231 0105 05       		.byte	0x5
 6232 0106 CA       		.byte	0xca
 6233 0107 B4000000 		.4byte	0xb4
 6234 010b 10       		.byte	0x10
 6235 010c 0A       		.uleb128 0xa
 6236 010d 92060000 		.4byte	.LASF18
 6237 0111 05       		.byte	0x5
 6238 0112 CB       		.byte	0xcb
 6239 0113 B4000000 		.4byte	0xb4
 6240 0117 14       		.byte	0x14
 6241 0118 0A       		.uleb128 0xa
 6242 0119 98060000 		.4byte	.LASF19
 6243 011d 05       		.byte	0x5
 6244 011e CC       		.byte	0xcc
 6245 011f B4000000 		.4byte	0xb4
ARM GAS  /tmp/ccrsTBIG.s 			page 111


 6246 0123 18       		.byte	0x18
 6247 0124 0A       		.uleb128 0xa
 6248 0125 99080000 		.4byte	.LASF20
 6249 0129 05       		.byte	0x5
 6250 012a CD       		.byte	0xcd
 6251 012b A2000000 		.4byte	0xa2
 6252 012f 1C       		.byte	0x1c
 6253 0130 09       		.uleb128 0x9
 6254 0131 54523100 		.ascii	"TR1\000"
 6255 0135 05       		.byte	0x5
 6256 0136 CE       		.byte	0xce
 6257 0137 B4000000 		.4byte	0xb4
 6258 013b 20       		.byte	0x20
 6259 013c 09       		.uleb128 0x9
 6260 013d 54523200 		.ascii	"TR2\000"
 6261 0141 05       		.byte	0x5
 6262 0142 CF       		.byte	0xcf
 6263 0143 B4000000 		.4byte	0xb4
 6264 0147 24       		.byte	0x24
 6265 0148 09       		.uleb128 0x9
 6266 0149 54523300 		.ascii	"TR3\000"
 6267 014d 05       		.byte	0x5
 6268 014e D0       		.byte	0xd0
 6269 014f B4000000 		.4byte	0xb4
 6270 0153 28       		.byte	0x28
 6271 0154 0A       		.uleb128 0xa
 6272 0155 BC080000 		.4byte	.LASF21
 6273 0159 05       		.byte	0x5
 6274 015a D1       		.byte	0xd1
 6275 015b A2000000 		.4byte	0xa2
 6276 015f 2C       		.byte	0x2c
 6277 0160 0A       		.uleb128 0xa
 6278 0161 F7060000 		.4byte	.LASF22
 6279 0165 05       		.byte	0x5
 6280 0166 D2       		.byte	0xd2
 6281 0167 B4000000 		.4byte	0xb4
 6282 016b 30       		.byte	0x30
 6283 016c 0A       		.uleb128 0xa
 6284 016d FC060000 		.4byte	.LASF23
 6285 0171 05       		.byte	0x5
 6286 0172 D3       		.byte	0xd3
 6287 0173 B4000000 		.4byte	0xb4
 6288 0177 34       		.byte	0x34
 6289 0178 0A       		.uleb128 0xa
 6290 0179 01070000 		.4byte	.LASF24
 6291 017d 05       		.byte	0x5
 6292 017e D4       		.byte	0xd4
 6293 017f B4000000 		.4byte	0xb4
 6294 0183 38       		.byte	0x38
 6295 0184 0A       		.uleb128 0xa
 6296 0185 06070000 		.4byte	.LASF25
 6297 0189 05       		.byte	0x5
 6298 018a D5       		.byte	0xd5
 6299 018b B4000000 		.4byte	0xb4
 6300 018f 3C       		.byte	0x3c
 6301 0190 09       		.uleb128 0x9
 6302 0191 445200   		.ascii	"DR\000"
ARM GAS  /tmp/ccrsTBIG.s 			page 112


 6303 0194 05       		.byte	0x5
 6304 0195 D6       		.byte	0xd6
 6305 0196 B4000000 		.4byte	0xb4
 6306 019a 40       		.byte	0x40
 6307 019b 0A       		.uleb128 0xa
 6308 019c 83070000 		.4byte	.LASF26
 6309 01a0 05       		.byte	0x5
 6310 01a1 D7       		.byte	0xd7
 6311 01a2 A2000000 		.4byte	0xa2
 6312 01a6 44       		.byte	0x44
 6313 01a7 0A       		.uleb128 0xa
 6314 01a8 8D070000 		.4byte	.LASF27
 6315 01ac 05       		.byte	0x5
 6316 01ad D8       		.byte	0xd8
 6317 01ae A2000000 		.4byte	0xa2
 6318 01b2 48       		.byte	0x48
 6319 01b3 0A       		.uleb128 0xa
 6320 01b4 E4010000 		.4byte	.LASF28
 6321 01b8 05       		.byte	0x5
 6322 01b9 D9       		.byte	0xd9
 6323 01ba B4000000 		.4byte	0xb4
 6324 01be 4C       		.byte	0x4c
 6325 01bf 0A       		.uleb128 0xa
 6326 01c0 97070000 		.4byte	.LASF29
 6327 01c4 05       		.byte	0x5
 6328 01c5 DA       		.byte	0xda
 6329 01c6 B9000000 		.4byte	0xb9
 6330 01ca 50       		.byte	0x50
 6331 01cb 0A       		.uleb128 0xa
 6332 01cc 00000000 		.4byte	.LASF30
 6333 01d0 05       		.byte	0x5
 6334 01d1 DB       		.byte	0xdb
 6335 01d2 B4000000 		.4byte	0xb4
 6336 01d6 60       		.byte	0x60
 6337 01d7 0A       		.uleb128 0xa
 6338 01d8 05000000 		.4byte	.LASF31
 6339 01dc 05       		.byte	0x5
 6340 01dd DC       		.byte	0xdc
 6341 01de B4000000 		.4byte	0xb4
 6342 01e2 64       		.byte	0x64
 6343 01e3 0A       		.uleb128 0xa
 6344 01e4 5E050000 		.4byte	.LASF32
 6345 01e8 05       		.byte	0x5
 6346 01e9 DD       		.byte	0xdd
 6347 01ea B4000000 		.4byte	0xb4
 6348 01ee 68       		.byte	0x68
 6349 01ef 0A       		.uleb128 0xa
 6350 01f0 11000000 		.4byte	.LASF33
 6351 01f4 05       		.byte	0x5
 6352 01f5 DE       		.byte	0xde
 6353 01f6 B4000000 		.4byte	0xb4
 6354 01fa 6C       		.byte	0x6c
 6355 01fb 0A       		.uleb128 0xa
 6356 01fc A1070000 		.4byte	.LASF34
 6357 0200 05       		.byte	0x5
 6358 0201 DF       		.byte	0xdf
 6359 0202 B9000000 		.4byte	0xb9
ARM GAS  /tmp/ccrsTBIG.s 			page 113


 6360 0206 70       		.byte	0x70
 6361 0207 0A       		.uleb128 0xa
 6362 0208 290B0000 		.4byte	.LASF35
 6363 020c 05       		.byte	0x5
 6364 020d E0       		.byte	0xe0
 6365 020e B4000000 		.4byte	0xb4
 6366 0212 80       		.byte	0x80
 6367 0213 0A       		.uleb128 0xa
 6368 0214 5D060000 		.4byte	.LASF36
 6369 0218 05       		.byte	0x5
 6370 0219 E1       		.byte	0xe1
 6371 021a B4000000 		.4byte	0xb4
 6372 021e 84       		.byte	0x84
 6373 021f 0A       		.uleb128 0xa
 6374 0220 62060000 		.4byte	.LASF37
 6375 0224 05       		.byte	0x5
 6376 0225 E2       		.byte	0xe2
 6377 0226 B4000000 		.4byte	0xb4
 6378 022a 88       		.byte	0x88
 6379 022b 0A       		.uleb128 0xa
 6380 022c 390B0000 		.4byte	.LASF38
 6381 0230 05       		.byte	0x5
 6382 0231 E3       		.byte	0xe3
 6383 0232 B4000000 		.4byte	0xb4
 6384 0236 8C       		.byte	0x8c
 6385 0237 0A       		.uleb128 0xa
 6386 0238 500B0000 		.4byte	.LASF39
 6387 023c 05       		.byte	0x5
 6388 023d E4       		.byte	0xe4
 6389 023e B9000000 		.4byte	0xb9
 6390 0242 90       		.byte	0x90
 6391 0243 0A       		.uleb128 0xa
 6392 0244 6B020000 		.4byte	.LASF40
 6393 0248 05       		.byte	0x5
 6394 0249 E5       		.byte	0xe5
 6395 024a B4000000 		.4byte	0xb4
 6396 024e A0       		.byte	0xa0
 6397 024f 0A       		.uleb128 0xa
 6398 0250 0A000000 		.4byte	.LASF41
 6399 0254 05       		.byte	0x5
 6400 0255 E6       		.byte	0xe6
 6401 0256 B4000000 		.4byte	0xb4
 6402 025a A4       		.byte	0xa4
 6403 025b 0A       		.uleb128 0xa
 6404 025c B1070000 		.4byte	.LASF42
 6405 0260 05       		.byte	0x5
 6406 0261 E7       		.byte	0xe7
 6407 0262 A2000000 		.4byte	0xa2
 6408 0266 A8       		.byte	0xa8
 6409 0267 0A       		.uleb128 0xa
 6410 0268 BB070000 		.4byte	.LASF43
 6411 026c 05       		.byte	0x5
 6412 026d E8       		.byte	0xe8
 6413 026e A2000000 		.4byte	0xa2
 6414 0272 AC       		.byte	0xac
 6415 0273 0A       		.uleb128 0xa
 6416 0274 CA010000 		.4byte	.LASF44
ARM GAS  /tmp/ccrsTBIG.s 			page 114


 6417 0278 05       		.byte	0x5
 6418 0279 E9       		.byte	0xe9
 6419 027a B4000000 		.4byte	0xb4
 6420 027e B0       		.byte	0xb0
 6421 027f 0A       		.uleb128 0xa
 6422 0280 8F030000 		.4byte	.LASF45
 6423 0284 05       		.byte	0x5
 6424 0285 EA       		.byte	0xea
 6425 0286 B4000000 		.4byte	0xb4
 6426 028a B4       		.byte	0xb4
 6427 028b 00       		.byte	0
 6428 028c 03       		.uleb128 0x3
 6429 028d 3D030000 		.4byte	.LASF46
 6430 0291 05       		.byte	0x5
 6431 0292 EC       		.byte	0xec
 6432 0293 C9000000 		.4byte	0xc9
 6433 0297 08       		.uleb128 0x8
 6434 0298 10       		.byte	0x10
 6435 0299 05       		.byte	0x5
 6436 029a EE       		.byte	0xee
 6437 029b D0020000 		.4byte	0x2d0
 6438 029f 09       		.uleb128 0x9
 6439 02a0 43535200 		.ascii	"CSR\000"
 6440 02a4 05       		.byte	0x5
 6441 02a5 F0       		.byte	0xf0
 6442 02a6 B4000000 		.4byte	0xb4
 6443 02aa 00       		.byte	0
 6444 02ab 0A       		.uleb128 0xa
 6445 02ac 9B090000 		.4byte	.LASF47
 6446 02b0 05       		.byte	0x5
 6447 02b1 F1       		.byte	0xf1
 6448 02b2 A2000000 		.4byte	0xa2
 6449 02b6 04       		.byte	0x4
 6450 02b7 09       		.uleb128 0x9
 6451 02b8 43435200 		.ascii	"CCR\000"
 6452 02bc 05       		.byte	0x5
 6453 02bd F2       		.byte	0xf2
 6454 02be B4000000 		.4byte	0xb4
 6455 02c2 08       		.byte	0x8
 6456 02c3 09       		.uleb128 0x9
 6457 02c4 43445200 		.ascii	"CDR\000"
 6458 02c8 05       		.byte	0x5
 6459 02c9 F3       		.byte	0xf3
 6460 02ca B4000000 		.4byte	0xb4
 6461 02ce 0C       		.byte	0xc
 6462 02cf 00       		.byte	0
 6463 02d0 03       		.uleb128 0x3
 6464 02d1 D1010000 		.4byte	.LASF48
 6465 02d5 05       		.byte	0x5
 6466 02d6 F4       		.byte	0xf4
 6467 02d7 97020000 		.4byte	0x297
 6468 02db 0B       		.uleb128 0xb
 6469 02dc 10       		.byte	0x10
 6470 02dd 05       		.byte	0x5
 6471 02de A701     		.2byte	0x1a7
 6472 02e0 19030000 		.4byte	0x319
 6473 02e4 0C       		.uleb128 0xc
ARM GAS  /tmp/ccrsTBIG.s 			page 115


 6474 02e5 43435200 		.ascii	"CCR\000"
 6475 02e9 05       		.byte	0x5
 6476 02ea A901     		.2byte	0x1a9
 6477 02ec B4000000 		.4byte	0xb4
 6478 02f0 00       		.byte	0
 6479 02f1 0D       		.uleb128 0xd
 6480 02f2 F90A0000 		.4byte	.LASF49
 6481 02f6 05       		.byte	0x5
 6482 02f7 AA01     		.2byte	0x1aa
 6483 02f9 B4000000 		.4byte	0xb4
 6484 02fd 04       		.byte	0x4
 6485 02fe 0D       		.uleb128 0xd
 6486 02ff 42040000 		.4byte	.LASF50
 6487 0303 05       		.byte	0x5
 6488 0304 AB01     		.2byte	0x1ab
 6489 0306 B4000000 		.4byte	0xb4
 6490 030a 08       		.byte	0x8
 6491 030b 0D       		.uleb128 0xd
 6492 030c FF0A0000 		.4byte	.LASF51
 6493 0310 05       		.byte	0x5
 6494 0311 AC01     		.2byte	0x1ac
 6495 0313 B4000000 		.4byte	0xb4
 6496 0317 0C       		.byte	0xc
 6497 0318 00       		.byte	0
 6498 0319 0E       		.uleb128 0xe
 6499 031a 36070000 		.4byte	.LASF52
 6500 031e 05       		.byte	0x5
 6501 031f AD01     		.2byte	0x1ad
 6502 0321 DB020000 		.4byte	0x2db
 6503 0325 0B       		.uleb128 0xb
 6504 0326 08       		.byte	0x8
 6505 0327 05       		.byte	0x5
 6506 0328 AF01     		.2byte	0x1af
 6507 032a 49030000 		.4byte	0x349
 6508 032e 0C       		.uleb128 0xc
 6509 032f 49535200 		.ascii	"ISR\000"
 6510 0333 05       		.byte	0x5
 6511 0334 B101     		.2byte	0x1b1
 6512 0336 B4000000 		.4byte	0xb4
 6513 033a 00       		.byte	0
 6514 033b 0D       		.uleb128 0xd
 6515 033c 14090000 		.4byte	.LASF53
 6516 0340 05       		.byte	0x5
 6517 0341 B201     		.2byte	0x1b2
 6518 0343 B4000000 		.4byte	0xb4
 6519 0347 04       		.byte	0x4
 6520 0348 00       		.byte	0
 6521 0349 0E       		.uleb128 0xe
 6522 034a 02040000 		.4byte	.LASF54
 6523 034e 05       		.byte	0x5
 6524 034f B301     		.2byte	0x1b3
 6525 0351 25030000 		.4byte	0x325
 6526 0355 0F       		.uleb128 0xf
 6527 0356 01       		.byte	0x1
 6528 0357 06       		.byte	0x6
 6529 0358 AE       		.byte	0xae
 6530 0359 6A030000 		.4byte	0x36a
ARM GAS  /tmp/ccrsTBIG.s 			page 116


 6531 035d 10       		.uleb128 0x10
 6532 035e AB070000 		.4byte	.LASF55
 6533 0362 00       		.sleb128 0
 6534 0363 11       		.uleb128 0x11
 6535 0364 53455400 		.ascii	"SET\000"
 6536 0368 01       		.sleb128 1
 6537 0369 00       		.byte	0
 6538 036a 0F       		.uleb128 0xf
 6539 036b 01       		.byte	0x1
 6540 036c 06       		.byte	0x6
 6541 036d B4       		.byte	0xb4
 6542 036e 7F030000 		.4byte	0x37f
 6543 0372 10       		.uleb128 0x10
 6544 0373 5A010000 		.4byte	.LASF56
 6545 0377 00       		.sleb128 0
 6546 0378 10       		.uleb128 0x10
 6547 0379 96020000 		.4byte	.LASF57
 6548 037d 01       		.sleb128 1
 6549 037e 00       		.byte	0
 6550 037f 12       		.uleb128 0x12
 6551 0380 04       		.byte	0x4
 6552 0381 02       		.uleb128 0x2
 6553 0382 01       		.byte	0x1
 6554 0383 08       		.byte	0x8
 6555 0384 2D090000 		.4byte	.LASF58
 6556 0388 0F       		.uleb128 0xf
 6557 0389 01       		.byte	0x1
 6558 038a 07       		.byte	0x7
 6559 038b 3A       		.byte	0x3a
 6560 038c A9030000 		.4byte	0x3a9
 6561 0390 10       		.uleb128 0x10
 6562 0391 5F040000 		.4byte	.LASF59
 6563 0395 00       		.sleb128 0
 6564 0396 10       		.uleb128 0x10
 6565 0397 F7080000 		.4byte	.LASF60
 6566 039b 01       		.sleb128 1
 6567 039c 10       		.uleb128 0x10
 6568 039d 34010000 		.4byte	.LASF61
 6569 03a1 02       		.sleb128 2
 6570 03a2 10       		.uleb128 0x10
 6571 03a3 F6030000 		.4byte	.LASF62
 6572 03a7 03       		.sleb128 3
 6573 03a8 00       		.byte	0
 6574 03a9 03       		.uleb128 0x3
 6575 03aa 5F080000 		.4byte	.LASF63
 6576 03ae 07       		.byte	0x7
 6577 03af 3F       		.byte	0x3f
 6578 03b0 88030000 		.4byte	0x388
 6579 03b4 0F       		.uleb128 0xf
 6580 03b5 01       		.byte	0x1
 6581 03b6 07       		.byte	0x7
 6582 03b7 45       		.byte	0x45
 6583 03b8 C9030000 		.4byte	0x3c9
 6584 03bc 10       		.uleb128 0x10
 6585 03bd 430B0000 		.4byte	.LASF64
 6586 03c1 00       		.sleb128 0
 6587 03c2 10       		.uleb128 0x10
ARM GAS  /tmp/ccrsTBIG.s 			page 117


 6588 03c3 41060000 		.4byte	.LASF65
 6589 03c7 01       		.sleb128 1
 6590 03c8 00       		.byte	0
 6591 03c9 03       		.uleb128 0x3
 6592 03ca 5B020000 		.4byte	.LASF66
 6593 03ce 07       		.byte	0x7
 6594 03cf 48       		.byte	0x48
 6595 03d0 B4030000 		.4byte	0x3b4
 6596 03d4 08       		.uleb128 0x8
 6597 03d5 20       		.byte	0x20
 6598 03d6 08       		.byte	0x8
 6599 03d7 42       		.byte	0x42
 6600 03d8 3D040000 		.4byte	0x43d
 6601 03dc 0A       		.uleb128 0xa
 6602 03dd 32090000 		.4byte	.LASF67
 6603 03e1 08       		.byte	0x8
 6604 03e2 44       		.byte	0x44
 6605 03e3 A2000000 		.4byte	0xa2
 6606 03e7 00       		.byte	0
 6607 03e8 0A       		.uleb128 0xa
 6608 03e9 CB030000 		.4byte	.LASF68
 6609 03ed 08       		.byte	0x8
 6610 03ee 47       		.byte	0x47
 6611 03ef A2000000 		.4byte	0xa2
 6612 03f3 04       		.byte	0x4
 6613 03f4 0A       		.uleb128 0xa
 6614 03f5 9D020000 		.4byte	.LASF69
 6615 03f9 08       		.byte	0x8
 6616 03fa 4B       		.byte	0x4b
 6617 03fb A2000000 		.4byte	0xa2
 6618 03ff 08       		.byte	0x8
 6619 0400 0A       		.uleb128 0xa
 6620 0401 58080000 		.4byte	.LASF70
 6621 0405 08       		.byte	0x8
 6622 0406 4E       		.byte	0x4e
 6623 0407 A2000000 		.4byte	0xa2
 6624 040b 0C       		.byte	0xc
 6625 040c 0A       		.uleb128 0xa
 6626 040d 1F0A0000 		.4byte	.LASF71
 6627 0411 08       		.byte	0x8
 6628 0412 51       		.byte	0x51
 6629 0413 A2000000 		.4byte	0xa2
 6630 0417 10       		.byte	0x10
 6631 0418 0A       		.uleb128 0xa
 6632 0419 EC040000 		.4byte	.LASF72
 6633 041d 08       		.byte	0x8
 6634 041e 54       		.byte	0x54
 6635 041f A2000000 		.4byte	0xa2
 6636 0423 14       		.byte	0x14
 6637 0424 0A       		.uleb128 0xa
 6638 0425 40090000 		.4byte	.LASF73
 6639 0429 08       		.byte	0x8
 6640 042a 57       		.byte	0x57
 6641 042b A2000000 		.4byte	0xa2
 6642 042f 18       		.byte	0x18
 6643 0430 0A       		.uleb128 0xa
 6644 0431 90040000 		.4byte	.LASF74
ARM GAS  /tmp/ccrsTBIG.s 			page 118


 6645 0435 08       		.byte	0x8
 6646 0436 5C       		.byte	0x5c
 6647 0437 A2000000 		.4byte	0xa2
 6648 043b 1C       		.byte	0x1c
 6649 043c 00       		.byte	0
 6650 043d 03       		.uleb128 0x3
 6651 043e FB000000 		.4byte	.LASF75
 6652 0442 08       		.byte	0x8
 6653 0443 5E       		.byte	0x5e
 6654 0444 D4030000 		.4byte	0x3d4
 6655 0448 0F       		.uleb128 0xf
 6656 0449 01       		.byte	0x1
 6657 044a 08       		.byte	0x8
 6658 044b 64       		.byte	0x64
 6659 044c 69040000 		.4byte	0x469
 6660 0450 10       		.uleb128 0x10
 6661 0451 A1010000 		.4byte	.LASF76
 6662 0455 00       		.sleb128 0
 6663 0456 10       		.uleb128 0x10
 6664 0457 19090000 		.4byte	.LASF77
 6665 045b 01       		.sleb128 1
 6666 045c 10       		.uleb128 0x10
 6667 045d 23080000 		.4byte	.LASF78
 6668 0461 02       		.sleb128 2
 6669 0462 10       		.uleb128 0x10
 6670 0463 0B0B0000 		.4byte	.LASF79
 6671 0467 03       		.sleb128 3
 6672 0468 00       		.byte	0
 6673 0469 03       		.uleb128 0x3
 6674 046a 04080000 		.4byte	.LASF80
 6675 046e 08       		.byte	0x8
 6676 046f 69       		.byte	0x69
 6677 0470 48040000 		.4byte	0x448
 6678 0474 13       		.uleb128 0x13
 6679 0475 CB090000 		.4byte	.LASF197
 6680 0479 48       		.byte	0x48
 6681 047a 08       		.byte	0x8
 6682 047b 85       		.byte	0x85
 6683 047c 11050000 		.4byte	0x511
 6684 0480 0A       		.uleb128 0xa
 6685 0481 51010000 		.4byte	.LASF81
 6686 0485 08       		.byte	0x8
 6687 0486 87       		.byte	0x87
 6688 0487 11050000 		.4byte	0x511
 6689 048b 00       		.byte	0
 6690 048c 0A       		.uleb128 0xa
 6691 048d 43000000 		.4byte	.LASF82
 6692 0491 08       		.byte	0x8
 6693 0492 89       		.byte	0x89
 6694 0493 3D040000 		.4byte	0x43d
 6695 0497 04       		.byte	0x4
 6696 0498 0A       		.uleb128 0xa
 6697 0499 FD040000 		.4byte	.LASF83
 6698 049d 08       		.byte	0x8
 6699 049e 8B       		.byte	0x8b
 6700 049f C9030000 		.4byte	0x3c9
 6701 04a3 24       		.byte	0x24
ARM GAS  /tmp/ccrsTBIG.s 			page 119


 6702 04a4 0A       		.uleb128 0xa
 6703 04a5 3A090000 		.4byte	.LASF84
 6704 04a9 08       		.byte	0x8
 6705 04aa 8D       		.byte	0x8d
 6706 04ab 17050000 		.4byte	0x517
 6707 04af 25       		.byte	0x25
 6708 04b0 0A       		.uleb128 0xa
 6709 04b1 9E030000 		.4byte	.LASF85
 6710 04b5 08       		.byte	0x8
 6711 04b6 8F       		.byte	0x8f
 6712 04b7 7F030000 		.4byte	0x37f
 6713 04bb 28       		.byte	0x28
 6714 04bc 0A       		.uleb128 0xa
 6715 04bd 810B0000 		.4byte	.LASF86
 6716 04c1 08       		.byte	0x8
 6717 04c2 91       		.byte	0x91
 6718 04c3 2D050000 		.4byte	0x52d
 6719 04c7 2C       		.byte	0x2c
 6720 04c8 0A       		.uleb128 0xa
 6721 04c9 1C020000 		.4byte	.LASF87
 6722 04cd 08       		.byte	0x8
 6723 04ce 93       		.byte	0x93
 6724 04cf 2D050000 		.4byte	0x52d
 6725 04d3 30       		.byte	0x30
 6726 04d4 0A       		.uleb128 0xa
 6727 04d5 79060000 		.4byte	.LASF88
 6728 04d9 08       		.byte	0x8
 6729 04da 95       		.byte	0x95
 6730 04db 2D050000 		.4byte	0x52d
 6731 04df 34       		.byte	0x34
 6732 04e0 0A       		.uleb128 0xa
 6733 04e1 680B0000 		.4byte	.LASF89
 6734 04e5 08       		.byte	0x8
 6735 04e6 97       		.byte	0x97
 6736 04e7 2D050000 		.4byte	0x52d
 6737 04eb 38       		.byte	0x38
 6738 04ec 0A       		.uleb128 0xa
 6739 04ed C4040000 		.4byte	.LASF90
 6740 04f1 08       		.byte	0x8
 6741 04f2 99       		.byte	0x99
 6742 04f3 B4000000 		.4byte	0xb4
 6743 04f7 3C       		.byte	0x3c
 6744 04f8 0A       		.uleb128 0xa
 6745 04f9 B5040000 		.4byte	.LASF91
 6746 04fd 08       		.byte	0x8
 6747 04fe 9B       		.byte	0x9b
 6748 04ff 33050000 		.4byte	0x533
 6749 0503 40       		.byte	0x40
 6750 0504 0A       		.uleb128 0xa
 6751 0505 71030000 		.4byte	.LASF92
 6752 0509 08       		.byte	0x8
 6753 050a 9D       		.byte	0x9d
 6754 050b A2000000 		.4byte	0xa2
 6755 050f 44       		.byte	0x44
 6756 0510 00       		.byte	0
 6757 0511 14       		.uleb128 0x14
 6758 0512 04       		.byte	0x4
ARM GAS  /tmp/ccrsTBIG.s 			page 120


 6759 0513 19030000 		.4byte	0x319
 6760 0517 05       		.uleb128 0x5
 6761 0518 69040000 		.4byte	0x469
 6762 051c 15       		.uleb128 0x15
 6763 051d 27050000 		.4byte	0x527
 6764 0521 16       		.uleb128 0x16
 6765 0522 27050000 		.4byte	0x527
 6766 0526 00       		.byte	0
 6767 0527 14       		.uleb128 0x14
 6768 0528 04       		.byte	0x4
 6769 0529 74040000 		.4byte	0x474
 6770 052d 14       		.uleb128 0x14
 6771 052e 04       		.byte	0x4
 6772 052f 1C050000 		.4byte	0x51c
 6773 0533 14       		.uleb128 0x14
 6774 0534 04       		.byte	0x4
 6775 0535 49030000 		.4byte	0x349
 6776 0539 03       		.uleb128 0x3
 6777 053a 67060000 		.4byte	.LASF93
 6778 053e 08       		.byte	0x8
 6779 053f 9E       		.byte	0x9e
 6780 0540 74040000 		.4byte	0x474
 6781 0544 14       		.uleb128 0x14
 6782 0545 04       		.byte	0x4
 6783 0546 39050000 		.4byte	0x539
 6784 054a 08       		.uleb128 0x8
 6785 054b 10       		.byte	0x10
 6786 054c 09       		.byte	0x9
 6787 054d 42       		.byte	0x42
 6788 054e 83050000 		.4byte	0x583
 6789 0552 0A       		.uleb128 0xa
 6790 0553 66040000 		.4byte	.LASF94
 6791 0557 09       		.byte	0x9
 6792 0558 44       		.byte	0x44
 6793 0559 A2000000 		.4byte	0xa2
 6794 055d 00       		.byte	0
 6795 055e 0A       		.uleb128 0xa
 6796 055f 5A0B0000 		.4byte	.LASF95
 6797 0563 09       		.byte	0x9
 6798 0564 47       		.byte	0x47
 6799 0565 A2000000 		.4byte	0xa2
 6800 0569 04       		.byte	0x4
 6801 056a 0A       		.uleb128 0xa
 6802 056b B7020000 		.4byte	.LASF96
 6803 056f 09       		.byte	0x9
 6804 0570 4A       		.byte	0x4a
 6805 0571 A2000000 		.4byte	0xa2
 6806 0575 08       		.byte	0x8
 6807 0576 0A       		.uleb128 0xa
 6808 0577 F0090000 		.4byte	.LASF97
 6809 057b 09       		.byte	0x9
 6810 057c 4D       		.byte	0x4d
 6811 057d A2000000 		.4byte	0xa2
 6812 0581 0C       		.byte	0xc
 6813 0582 00       		.byte	0
 6814 0583 03       		.uleb128 0x3
 6815 0584 0F060000 		.4byte	.LASF98
ARM GAS  /tmp/ccrsTBIG.s 			page 121


 6816 0588 09       		.byte	0x9
 6817 0589 55       		.byte	0x55
 6818 058a 4A050000 		.4byte	0x54a
 6819 058e 08       		.uleb128 0x8
 6820 058f 08       		.byte	0x8
 6821 0590 09       		.byte	0x9
 6822 0591 8A       		.byte	0x8a
 6823 0592 AF050000 		.4byte	0x5af
 6824 0596 0A       		.uleb128 0xa
 6825 0597 3C0A0000 		.4byte	.LASF99
 6826 059b 09       		.byte	0x9
 6827 059c 8C       		.byte	0x8c
 6828 059d A2000000 		.4byte	0xa2
 6829 05a1 00       		.byte	0
 6830 05a2 0A       		.uleb128 0xa
 6831 05a3 C8050000 		.4byte	.LASF100
 6832 05a7 09       		.byte	0x9
 6833 05a8 90       		.byte	0x90
 6834 05a9 A2000000 		.4byte	0xa2
 6835 05ad 04       		.byte	0x4
 6836 05ae 00       		.byte	0
 6837 05af 03       		.uleb128 0x3
 6838 05b0 31020000 		.4byte	.LASF101
 6839 05b4 09       		.byte	0x9
 6840 05b5 91       		.byte	0x91
 6841 05b6 8E050000 		.4byte	0x58e
 6842 05ba 08       		.uleb128 0x8
 6843 05bb 18       		.byte	0x18
 6844 05bc 09       		.byte	0x9
 6845 05bd A1       		.byte	0xa1
 6846 05be 0B060000 		.4byte	0x60b
 6847 05c2 0A       		.uleb128 0xa
 6848 05c3 C5070000 		.4byte	.LASF102
 6849 05c7 09       		.byte	0x9
 6850 05c8 A3       		.byte	0xa3
 6851 05c9 A2000000 		.4byte	0xa2
 6852 05cd 00       		.byte	0
 6853 05ce 0A       		.uleb128 0xa
 6854 05cf 4A070000 		.4byte	.LASF103
 6855 05d3 09       		.byte	0x9
 6856 05d4 A6       		.byte	0xa6
 6857 05d5 A2000000 		.4byte	0xa2
 6858 05d9 04       		.byte	0x4
 6859 05da 0A       		.uleb128 0xa
 6860 05db 30030000 		.4byte	.LASF104
 6861 05df 09       		.byte	0x9
 6862 05e0 AA       		.byte	0xaa
 6863 05e1 A2000000 		.4byte	0xa2
 6864 05e5 08       		.byte	0x8
 6865 05e6 0A       		.uleb128 0xa
 6866 05e7 2E0B0000 		.4byte	.LASF105
 6867 05eb 09       		.byte	0x9
 6868 05ec B4       		.byte	0xb4
 6869 05ed A2000000 		.4byte	0xa2
 6870 05f1 0C       		.byte	0xc
 6871 05f2 0A       		.uleb128 0xa
 6872 05f3 E5050000 		.4byte	.LASF106
ARM GAS  /tmp/ccrsTBIG.s 			page 122


 6873 05f7 09       		.byte	0x9
 6874 05f8 BF       		.byte	0xbf
 6875 05f9 A2000000 		.4byte	0xa2
 6876 05fd 10       		.byte	0x10
 6877 05fe 0A       		.uleb128 0xa
 6878 05ff 040B0000 		.4byte	.LASF107
 6879 0603 09       		.byte	0x9
 6880 0604 C2       		.byte	0xc2
 6881 0605 A2000000 		.4byte	0xa2
 6882 0609 14       		.byte	0x14
 6883 060a 00       		.byte	0
 6884 060b 03       		.uleb128 0x3
 6885 060c 1B040000 		.4byte	.LASF108
 6886 0610 09       		.byte	0x9
 6887 0611 C8       		.byte	0xc8
 6888 0612 BA050000 		.4byte	0x5ba
 6889 0616 08       		.uleb128 0x8
 6890 0617 18       		.byte	0x18
 6891 0618 09       		.byte	0x9
 6892 0619 D0       		.byte	0xd0
 6893 061a 67060000 		.4byte	0x667
 6894 061e 0A       		.uleb128 0xa
 6895 061f 16000000 		.4byte	.LASF109
 6896 0623 09       		.byte	0x9
 6897 0624 D2       		.byte	0xd2
 6898 0625 A2000000 		.4byte	0xa2
 6899 0629 00       		.byte	0
 6900 062a 0A       		.uleb128 0xa
 6901 062b 20050000 		.4byte	.LASF110
 6902 062f 09       		.byte	0x9
 6903 0630 D6       		.byte	0xd6
 6904 0631 A2000000 		.4byte	0xa2
 6905 0635 04       		.byte	0x4
 6906 0636 0A       		.uleb128 0xa
 6907 0637 C5070000 		.4byte	.LASF102
 6908 063b 09       		.byte	0x9
 6909 063c DA       		.byte	0xda
 6910 063d A2000000 		.4byte	0xa2
 6911 0641 08       		.byte	0x8
 6912 0642 0A       		.uleb128 0xa
 6913 0643 8B060000 		.4byte	.LASF111
 6914 0647 09       		.byte	0x9
 6915 0648 DF       		.byte	0xdf
 6916 0649 A2000000 		.4byte	0xa2
 6917 064d 0C       		.byte	0xc
 6918 064e 0A       		.uleb128 0xa
 6919 064f 12050000 		.4byte	.LASF112
 6920 0653 09       		.byte	0x9
 6921 0654 E1       		.byte	0xe1
 6922 0655 A2000000 		.4byte	0xa2
 6923 0659 10       		.byte	0x10
 6924 065a 0A       		.uleb128 0xa
 6925 065b B6030000 		.4byte	.LASF113
 6926 065f 09       		.byte	0x9
 6927 0660 E6       		.byte	0xe6
 6928 0661 A2000000 		.4byte	0xa2
 6929 0665 14       		.byte	0x14
ARM GAS  /tmp/ccrsTBIG.s 			page 123


 6930 0666 00       		.byte	0
 6931 0667 03       		.uleb128 0x3
 6932 0668 63050000 		.4byte	.LASF114
 6933 066c 09       		.byte	0x9
 6934 066d EA       		.byte	0xea
 6935 066e 16060000 		.4byte	0x616
 6936 0672 08       		.uleb128 0x8
 6937 0673 4C       		.byte	0x4c
 6938 0674 0A       		.byte	0xa
 6939 0675 4E       		.byte	0x4e
 6940 0676 3B070000 		.4byte	0x73b
 6941 067a 0A       		.uleb128 0xa
 6942 067b A6040000 		.4byte	.LASF115
 6943 067f 0A       		.byte	0xa
 6944 0680 50       		.byte	0x50
 6945 0681 A2000000 		.4byte	0xa2
 6946 0685 00       		.byte	0
 6947 0686 0A       		.uleb128 0xa
 6948 0687 D5050000 		.4byte	.LASF116
 6949 068b 0A       		.byte	0xa
 6950 068c 5B       		.byte	0x5b
 6951 068d A2000000 		.4byte	0xa2
 6952 0691 04       		.byte	0x4
 6953 0692 0A       		.uleb128 0xa
 6954 0693 79010000 		.4byte	.LASF117
 6955 0697 0A       		.byte	0xa
 6956 0698 5E       		.byte	0x5e
 6957 0699 A2000000 		.4byte	0xa2
 6958 069d 08       		.byte	0x8
 6959 069e 0A       		.uleb128 0xa
 6960 069f D5030000 		.4byte	.LASF118
 6961 06a3 0A       		.byte	0xa
 6962 06a4 62       		.byte	0x62
 6963 06a5 A2000000 		.4byte	0xa2
 6964 06a9 0C       		.byte	0xc
 6965 06aa 0A       		.uleb128 0xa
 6966 06ab 64030000 		.4byte	.LASF119
 6967 06af 0A       		.byte	0xa
 6968 06b0 6A       		.byte	0x6a
 6969 06b1 A2000000 		.4byte	0xa2
 6970 06b5 10       		.byte	0x10
 6971 06b6 0A       		.uleb128 0xa
 6972 06b7 49030000 		.4byte	.LASF120
 6973 06bb 0A       		.byte	0xa
 6974 06bc 6D       		.byte	0x6d
 6975 06bd A2000000 		.4byte	0xa2
 6976 06c1 14       		.byte	0x14
 6977 06c2 0A       		.uleb128 0xa
 6978 06c3 01090000 		.4byte	.LASF121
 6979 06c7 0A       		.byte	0xa
 6980 06c8 79       		.byte	0x79
 6981 06c9 A2000000 		.4byte	0xa2
 6982 06cd 18       		.byte	0x18
 6983 06ce 0A       		.uleb128 0xa
 6984 06cf A7020000 		.4byte	.LASF122
 6985 06d3 0A       		.byte	0xa
 6986 06d4 7D       		.byte	0x7d
ARM GAS  /tmp/ccrsTBIG.s 			page 124


 6987 06d5 A2000000 		.4byte	0xa2
 6988 06d9 1C       		.byte	0x1c
 6989 06da 0A       		.uleb128 0xa
 6990 06db DB0A0000 		.4byte	.LASF123
 6991 06df 0A       		.byte	0xa
 6992 06e0 83       		.byte	0x83
 6993 06e1 A2000000 		.4byte	0xa2
 6994 06e5 20       		.byte	0x20
 6995 06e6 0A       		.uleb128 0xa
 6996 06e7 09030000 		.4byte	.LASF124
 6997 06eb 0A       		.byte	0xa
 6998 06ec 89       		.byte	0x89
 6999 06ed A2000000 		.4byte	0xa2
 7000 06f1 24       		.byte	0x24
 7001 06f2 0A       		.uleb128 0xa
 7002 06f3 83010000 		.4byte	.LASF125
 7003 06f7 0A       		.byte	0xa
 7004 06f8 8D       		.byte	0x8d
 7005 06f9 A2000000 		.4byte	0xa2
 7006 06fd 28       		.byte	0x28
 7007 06fe 0A       		.uleb128 0xa
 7008 06ff F2050000 		.4byte	.LASF126
 7009 0703 0A       		.byte	0xa
 7010 0704 92       		.byte	0x92
 7011 0705 A2000000 		.4byte	0xa2
 7012 0709 2C       		.byte	0x2c
 7013 070a 0A       		.uleb128 0xa
 7014 070b 920B0000 		.4byte	.LASF127
 7015 070f 0A       		.byte	0xa
 7016 0710 96       		.byte	0x96
 7017 0711 A2000000 		.4byte	0xa2
 7018 0715 30       		.byte	0x30
 7019 0716 0A       		.uleb128 0xa
 7020 0717 07060000 		.4byte	.LASF128
 7021 071b 0A       		.byte	0xa
 7022 071c 9D       		.byte	0x9d
 7023 071d A2000000 		.4byte	0xa2
 7024 0721 34       		.byte	0x34
 7025 0722 0A       		.uleb128 0xa
 7026 0723 DF090000 		.4byte	.LASF129
 7027 0727 0A       		.byte	0xa
 7028 0728 A8       		.byte	0xa8
 7029 0729 A2000000 		.4byte	0xa2
 7030 072d 38       		.byte	0x38
 7031 072e 0A       		.uleb128 0xa
 7032 072f F7070000 		.4byte	.LASF130
 7033 0733 0A       		.byte	0xa
 7034 0734 AC       		.byte	0xac
 7035 0735 83050000 		.4byte	0x583
 7036 0739 3C       		.byte	0x3c
 7037 073a 00       		.byte	0
 7038 073b 03       		.uleb128 0x3
 7039 073c C6080000 		.4byte	.LASF131
 7040 0740 0A       		.byte	0xa
 7041 0741 AF       		.byte	0xaf
 7042 0742 72060000 		.4byte	0x672
 7043 0746 08       		.uleb128 0x8
ARM GAS  /tmp/ccrsTBIG.s 			page 125


 7044 0747 68       		.byte	0x68
 7045 0748 0A       		.byte	0xa
 7046 0749 B5       		.byte	0xb5
 7047 074a A3070000 		.4byte	0x7a3
 7048 074e 0A       		.uleb128 0xa
 7049 074f 51010000 		.4byte	.LASF81
 7050 0753 0A       		.byte	0xa
 7051 0754 B7       		.byte	0xb7
 7052 0755 A3070000 		.4byte	0x7a3
 7053 0759 00       		.byte	0
 7054 075a 0A       		.uleb128 0xa
 7055 075b 43000000 		.4byte	.LASF82
 7056 075f 0A       		.byte	0xa
 7057 0760 B9       		.byte	0xb9
 7058 0761 3B070000 		.4byte	0x73b
 7059 0765 04       		.byte	0x4
 7060 0766 0A       		.uleb128 0xa
 7061 0767 C0090000 		.4byte	.LASF132
 7062 076b 0A       		.byte	0xa
 7063 076c BB       		.byte	0xbb
 7064 076d 44050000 		.4byte	0x544
 7065 0771 50       		.byte	0x50
 7066 0772 0A       		.uleb128 0xa
 7067 0773 FD040000 		.4byte	.LASF83
 7068 0777 0A       		.byte	0xa
 7069 0778 BD       		.byte	0xbd
 7070 0779 C9030000 		.4byte	0x3c9
 7071 077d 54       		.byte	0x54
 7072 077e 0A       		.uleb128 0xa
 7073 077f 3A090000 		.4byte	.LASF84
 7074 0783 0A       		.byte	0xa
 7075 0784 BF       		.byte	0xbf
 7076 0785 B4000000 		.4byte	0xb4
 7077 0789 58       		.byte	0x58
 7078 078a 0A       		.uleb128 0xa
 7079 078b C4040000 		.4byte	.LASF90
 7080 078f 0A       		.byte	0xa
 7081 0790 C1       		.byte	0xc1
 7082 0791 B4000000 		.4byte	0xb4
 7083 0795 5C       		.byte	0x5c
 7084 0796 0A       		.uleb128 0xa
 7085 0797 9E060000 		.4byte	.LASF133
 7086 079b 0A       		.byte	0xa
 7087 079c C3       		.byte	0xc3
 7088 079d AF050000 		.4byte	0x5af
 7089 07a1 60       		.byte	0x60
 7090 07a2 00       		.byte	0
 7091 07a3 14       		.uleb128 0x14
 7092 07a4 04       		.byte	0x4
 7093 07a5 8C020000 		.4byte	0x28c
 7094 07a9 03       		.uleb128 0x3
 7095 07aa 62090000 		.4byte	.LASF134
 7096 07ae 0A       		.byte	0xa
 7097 07af C4       		.byte	0xc4
 7098 07b0 46070000 		.4byte	0x746
 7099 07b4 17       		.uleb128 0x17
 7100 07b5 97030000 		.4byte	.LASF198
ARM GAS  /tmp/ccrsTBIG.s 			page 126


 7101 07b9 02       		.byte	0x2
 7102 07ba 4502     		.2byte	0x245
 7103 07bc A2000000 		.4byte	0xa2
 7104 07c0 03       		.byte	0x3
 7105 07c1 DE070000 		.4byte	0x7de
 7106 07c5 18       		.uleb128 0x18
 7107 07c6 F0030000 		.4byte	.LASF199
 7108 07ca 02       		.byte	0x2
 7109 07cb 4502     		.2byte	0x245
 7110 07cd A2000000 		.4byte	0xa2
 7111 07d1 19       		.uleb128 0x19
 7112 07d2 7A0B0000 		.4byte	.LASF200
 7113 07d6 02       		.byte	0x2
 7114 07d7 4702     		.2byte	0x247
 7115 07d9 A2000000 		.4byte	0xa2
 7116 07dd 00       		.byte	0
 7117 07de 1A       		.uleb128 0x1a
 7118 07df 120A0000 		.4byte	.LASF139
 7119 07e3 01       		.byte	0x1
 7120 07e4 1301     		.2byte	0x113
 7121 07e6 A9030000 		.4byte	0x3a9
 7122 07ea 00000000 		.4byte	.LFB125
 7123 07ee F0030000 		.4byte	.LFE125-.LFB125
 7124 07f2 01       		.uleb128 0x1
 7125 07f3 9C       		.byte	0x9c
 7126 07f4 2C090000 		.4byte	0x92c
 7127 07f8 1B       		.uleb128 0x1b
 7128 07f9 0D0A0000 		.4byte	.LASF141
 7129 07fd 01       		.byte	0x1
 7130 07fe 1301     		.2byte	0x113
 7131 0800 2C090000 		.4byte	0x92c
 7132 0804 03       		.uleb128 0x3
 7133 0805 91       		.byte	0x91
 7134 0806 BC7F     		.sleb128 -68
 7135 0808 1C       		.uleb128 0x1c
 7136 0809 45090000 		.4byte	.LASF135
 7137 080d 01       		.byte	0x1
 7138 080e 1501     		.2byte	0x115
 7139 0810 A9030000 		.4byte	0x3a9
 7140 0814 02       		.uleb128 0x2
 7141 0815 91       		.byte	0x91
 7142 0816 77       		.sleb128 -9
 7143 0817 1C       		.uleb128 0x1c
 7144 0818 72020000 		.4byte	.LASF136
 7145 081c 01       		.byte	0x1
 7146 081d 1701     		.2byte	0x117
 7147 081f 32090000 		.4byte	0x932
 7148 0823 02       		.uleb128 0x2
 7149 0824 91       		.byte	0x91
 7150 0825 6C       		.sleb128 -20
 7151 0826 1C       		.uleb128 0x1c
 7152 0827 49010000 		.4byte	.LASF137
 7153 082b 01       		.byte	0x1
 7154 082c 1801     		.2byte	0x118
 7155 082e A2000000 		.4byte	0xa2
 7156 0832 02       		.uleb128 0x2
 7157 0833 91       		.byte	0x91
ARM GAS  /tmp/ccrsTBIG.s 			page 127


 7158 0834 70       		.sleb128 -16
 7159 0835 1C       		.uleb128 0x1c
 7160 0836 02050000 		.4byte	.LASF138
 7161 083a 01       		.byte	0x1
 7162 083b 1901     		.2byte	0x119
 7163 083d B4000000 		.4byte	0xb4
 7164 0841 02       		.uleb128 0x2
 7165 0842 91       		.byte	0x91
 7166 0843 40       		.sleb128 -64
 7167 0844 1D       		.uleb128 0x1d
 7168 0845 B4070000 		.4byte	0x7b4
 7169 0849 44020000 		.4byte	.LBB62
 7170 084d 0A000000 		.4byte	.LBE62-.LBB62
 7171 0851 01       		.byte	0x1
 7172 0852 B501     		.2byte	0x1b5
 7173 0854 73080000 		.4byte	0x873
 7174 0858 1E       		.uleb128 0x1e
 7175 0859 C5070000 		.4byte	0x7c5
 7176 085d 02       		.uleb128 0x2
 7177 085e 91       		.byte	0x91
 7178 085f 68       		.sleb128 -24
 7179 0860 1F       		.uleb128 0x1f
 7180 0861 44020000 		.4byte	.LBB63
 7181 0865 0A000000 		.4byte	.LBE63-.LBB63
 7182 0869 20       		.uleb128 0x20
 7183 086a D1070000 		.4byte	0x7d1
 7184 086e 02       		.uleb128 0x2
 7185 086f 91       		.byte	0x91
 7186 0870 64       		.sleb128 -28
 7187 0871 00       		.byte	0
 7188 0872 00       		.byte	0
 7189 0873 1D       		.uleb128 0x1d
 7190 0874 B4070000 		.4byte	0x7b4
 7191 0878 70020000 		.4byte	.LBB64
 7192 087c 0A000000 		.4byte	.LBE64-.LBB64
 7193 0880 01       		.byte	0x1
 7194 0881 B901     		.2byte	0x1b9
 7195 0883 A2080000 		.4byte	0x8a2
 7196 0887 1E       		.uleb128 0x1e
 7197 0888 C5070000 		.4byte	0x7c5
 7198 088c 02       		.uleb128 0x2
 7199 088d 91       		.byte	0x91
 7200 088e 60       		.sleb128 -32
 7201 088f 1F       		.uleb128 0x1f
 7202 0890 70020000 		.4byte	.LBB65
 7203 0894 0A000000 		.4byte	.LBE65-.LBB65
 7204 0898 20       		.uleb128 0x20
 7205 0899 D1070000 		.4byte	0x7d1
 7206 089d 02       		.uleb128 0x2
 7207 089e 91       		.byte	0x91
 7208 089f 5C       		.sleb128 -36
 7209 08a0 00       		.byte	0
 7210 08a1 00       		.byte	0
 7211 08a2 1D       		.uleb128 0x1d
 7212 08a3 B4070000 		.4byte	0x7b4
 7213 08a7 90020000 		.4byte	.LBB66
 7214 08ab 0A000000 		.4byte	.LBE66-.LBB66
ARM GAS  /tmp/ccrsTBIG.s 			page 128


 7215 08af 01       		.byte	0x1
 7216 08b0 BA01     		.2byte	0x1ba
 7217 08b2 D1080000 		.4byte	0x8d1
 7218 08b6 1E       		.uleb128 0x1e
 7219 08b7 C5070000 		.4byte	0x7c5
 7220 08bb 02       		.uleb128 0x2
 7221 08bc 91       		.byte	0x91
 7222 08bd 58       		.sleb128 -40
 7223 08be 1F       		.uleb128 0x1f
 7224 08bf 90020000 		.4byte	.LBB67
 7225 08c3 0A000000 		.4byte	.LBE67-.LBB67
 7226 08c7 20       		.uleb128 0x20
 7227 08c8 D1070000 		.4byte	0x7d1
 7228 08cc 02       		.uleb128 0x2
 7229 08cd 91       		.byte	0x91
 7230 08ce 54       		.sleb128 -44
 7231 08cf 00       		.byte	0
 7232 08d0 00       		.byte	0
 7233 08d1 1D       		.uleb128 0x1d
 7234 08d2 B4070000 		.4byte	0x7b4
 7235 08d6 F2020000 		.4byte	.LBB68
 7236 08da 0A000000 		.4byte	.LBE68-.LBB68
 7237 08de 01       		.byte	0x1
 7238 08df D501     		.2byte	0x1d5
 7239 08e1 00090000 		.4byte	0x900
 7240 08e5 1E       		.uleb128 0x1e
 7241 08e6 C5070000 		.4byte	0x7c5
 7242 08ea 02       		.uleb128 0x2
 7243 08eb 91       		.byte	0x91
 7244 08ec 50       		.sleb128 -48
 7245 08ed 1F       		.uleb128 0x1f
 7246 08ee F2020000 		.4byte	.LBB69
 7247 08f2 0A000000 		.4byte	.LBE69-.LBB69
 7248 08f6 20       		.uleb128 0x20
 7249 08f7 D1070000 		.4byte	0x7d1
 7250 08fb 02       		.uleb128 0x2
 7251 08fc 91       		.byte	0x91
 7252 08fd 4C       		.sleb128 -52
 7253 08fe 00       		.byte	0
 7254 08ff 00       		.byte	0
 7255 0900 21       		.uleb128 0x21
 7256 0901 B4070000 		.4byte	0x7b4
 7257 0905 0A030000 		.4byte	.LBB70
 7258 0909 0A000000 		.4byte	.LBE70-.LBB70
 7259 090d 01       		.byte	0x1
 7260 090e D601     		.2byte	0x1d6
 7261 0910 1E       		.uleb128 0x1e
 7262 0911 C5070000 		.4byte	0x7c5
 7263 0915 02       		.uleb128 0x2
 7264 0916 91       		.byte	0x91
 7265 0917 48       		.sleb128 -56
 7266 0918 1F       		.uleb128 0x1f
 7267 0919 0A030000 		.4byte	.LBB71
 7268 091d 0A000000 		.4byte	.LBE71-.LBB71
 7269 0921 20       		.uleb128 0x20
 7270 0922 D1070000 		.4byte	0x7d1
 7271 0926 02       		.uleb128 0x2
ARM GAS  /tmp/ccrsTBIG.s 			page 129


 7272 0927 91       		.byte	0x91
 7273 0928 44       		.sleb128 -60
 7274 0929 00       		.byte	0
 7275 092a 00       		.byte	0
 7276 092b 00       		.byte	0
 7277 092c 14       		.uleb128 0x14
 7278 092d 04       		.byte	0x4
 7279 092e A9070000 		.4byte	0x7a9
 7280 0932 14       		.uleb128 0x14
 7281 0933 04       		.byte	0x4
 7282 0934 D0020000 		.4byte	0x2d0
 7283 0938 1A       		.uleb128 0x1a
 7284 0939 4C020000 		.4byte	.LASF140
 7285 093d 01       		.byte	0x1
 7286 093e 3302     		.2byte	0x233
 7287 0940 A9030000 		.4byte	0x3a9
 7288 0944 F0030000 		.4byte	.LFB126
 7289 0948 44030000 		.4byte	.LFE126-.LFB126
 7290 094c 01       		.uleb128 0x1
 7291 094d 9C       		.byte	0x9c
 7292 094e 62090000 		.4byte	0x962
 7293 0952 1B       		.uleb128 0x1b
 7294 0953 0D0A0000 		.4byte	.LASF141
 7295 0957 01       		.byte	0x1
 7296 0958 3302     		.2byte	0x233
 7297 095a 2C090000 		.4byte	0x92c
 7298 095e 02       		.uleb128 0x2
 7299 095f 91       		.byte	0x91
 7300 0960 74       		.sleb128 -12
 7301 0961 00       		.byte	0
 7302 0962 22       		.uleb128 0x22
 7303 0963 2D050000 		.4byte	.LASF142
 7304 0967 01       		.byte	0x1
 7305 0968 EC02     		.2byte	0x2ec
 7306 096a 40070000 		.4byte	.LFB127
 7307 096e 08000000 		.4byte	.LFE127-.LFB127
 7308 0972 01       		.uleb128 0x1
 7309 0973 9C       		.byte	0x9c
 7310 0974 88090000 		.4byte	0x988
 7311 0978 1B       		.uleb128 0x1b
 7312 0979 0D0A0000 		.4byte	.LASF141
 7313 097d 01       		.byte	0x1
 7314 097e EC02     		.2byte	0x2ec
 7315 0980 2C090000 		.4byte	0x92c
 7316 0984 02       		.uleb128 0x2
 7317 0985 91       		.byte	0x91
 7318 0986 7C       		.sleb128 -4
 7319 0987 00       		.byte	0
 7320 0988 22       		.uleb128 0x22
 7321 0989 50090000 		.4byte	.LASF143
 7322 098d 01       		.byte	0x1
 7323 098e FC02     		.2byte	0x2fc
 7324 0990 50070000 		.4byte	.LFB128
 7325 0994 08000000 		.4byte	.LFE128-.LFB128
 7326 0998 01       		.uleb128 0x1
 7327 0999 9C       		.byte	0x9c
 7328 099a AE090000 		.4byte	0x9ae
ARM GAS  /tmp/ccrsTBIG.s 			page 130


 7329 099e 1B       		.uleb128 0x1b
 7330 099f 0D0A0000 		.4byte	.LASF141
 7331 09a3 01       		.byte	0x1
 7332 09a4 FC02     		.2byte	0x2fc
 7333 09a6 2C090000 		.4byte	0x92c
 7334 09aa 02       		.uleb128 0x2
 7335 09ab 91       		.byte	0x91
 7336 09ac 7C       		.sleb128 -4
 7337 09ad 00       		.byte	0
 7338 09ae 1A       		.uleb128 0x1a
 7339 09af E2030000 		.4byte	.LASF144
 7340 09b3 01       		.byte	0x1
 7341 09b4 2A03     		.2byte	0x32a
 7342 09b6 A9030000 		.4byte	0x3a9
 7343 09ba 60070000 		.4byte	.LFB129
 7344 09be 94010000 		.4byte	.LFE129-.LFB129
 7345 09c2 01       		.uleb128 0x1
 7346 09c3 9C       		.byte	0x9c
 7347 09c4 F6090000 		.4byte	0x9f6
 7348 09c8 1B       		.uleb128 0x1b
 7349 09c9 0D0A0000 		.4byte	.LASF141
 7350 09cd 01       		.byte	0x1
 7351 09ce 2A03     		.2byte	0x32a
 7352 09d0 2C090000 		.4byte	0x92c
 7353 09d4 02       		.uleb128 0x2
 7354 09d5 91       		.byte	0x91
 7355 09d6 6C       		.sleb128 -20
 7356 09d7 1C       		.uleb128 0x1c
 7357 09d8 8B080000 		.4byte	.LASF145
 7358 09dc 01       		.byte	0x1
 7359 09dd 2C03     		.2byte	0x32c
 7360 09df A3070000 		.4byte	0x7a3
 7361 09e3 02       		.uleb128 0x2
 7362 09e4 91       		.byte	0x91
 7363 09e5 70       		.sleb128 -16
 7364 09e6 1C       		.uleb128 0x1c
 7365 09e7 45090000 		.4byte	.LASF135
 7366 09eb 01       		.byte	0x1
 7367 09ec 2D03     		.2byte	0x32d
 7368 09ee A9030000 		.4byte	0x3a9
 7369 09f2 02       		.uleb128 0x2
 7370 09f3 91       		.byte	0x91
 7371 09f4 77       		.sleb128 -9
 7372 09f5 00       		.byte	0
 7373 09f6 1A       		.uleb128 0x1a
 7374 09f7 7C050000 		.4byte	.LASF146
 7375 09fb 01       		.byte	0x1
 7376 09fc 9303     		.2byte	0x393
 7377 09fe A9030000 		.4byte	0x3a9
 7378 0a02 00090000 		.4byte	.LFB130
 7379 0a06 74000000 		.4byte	.LFE130-.LFB130
 7380 0a0a 01       		.uleb128 0x1
 7381 0a0b 9C       		.byte	0x9c
 7382 0a0c 2F0A0000 		.4byte	0xa2f
 7383 0a10 1B       		.uleb128 0x1b
 7384 0a11 0D0A0000 		.4byte	.LASF141
 7385 0a15 01       		.byte	0x1
ARM GAS  /tmp/ccrsTBIG.s 			page 131


 7386 0a16 9303     		.2byte	0x393
 7387 0a18 2C090000 		.4byte	0x92c
 7388 0a1c 02       		.uleb128 0x2
 7389 0a1d 91       		.byte	0x91
 7390 0a1e 6C       		.sleb128 -20
 7391 0a1f 1C       		.uleb128 0x1c
 7392 0a20 45090000 		.4byte	.LASF135
 7393 0a24 01       		.byte	0x1
 7394 0a25 9503     		.2byte	0x395
 7395 0a27 A9030000 		.4byte	0x3a9
 7396 0a2b 02       		.uleb128 0x2
 7397 0a2c 91       		.byte	0x91
 7398 0a2d 77       		.sleb128 -9
 7399 0a2e 00       		.byte	0
 7400 0a2f 1A       		.uleb128 0x1a
 7401 0a30 71080000 		.4byte	.LASF147
 7402 0a34 01       		.byte	0x1
 7403 0a35 C503     		.2byte	0x3c5
 7404 0a37 A9030000 		.4byte	0x3a9
 7405 0a3b 80090000 		.4byte	.LFB131
 7406 0a3f F8010000 		.4byte	.LFE131-.LFB131
 7407 0a43 01       		.uleb128 0x1
 7408 0a44 9C       		.byte	0x9c
 7409 0a45 B30A0000 		.4byte	0xab3
 7410 0a49 1B       		.uleb128 0x1b
 7411 0a4a 0D0A0000 		.4byte	.LASF141
 7412 0a4e 01       		.byte	0x1
 7413 0a4f C503     		.2byte	0x3c5
 7414 0a51 2C090000 		.4byte	0x92c
 7415 0a55 02       		.uleb128 0x2
 7416 0a56 91       		.byte	0x91
 7417 0a57 5C       		.sleb128 -36
 7418 0a58 1B       		.uleb128 0x1b
 7419 0a59 C3030000 		.4byte	.LASF148
 7420 0a5d 01       		.byte	0x1
 7421 0a5e C503     		.2byte	0x3c5
 7422 0a60 A2000000 		.4byte	0xa2
 7423 0a64 02       		.uleb128 0x2
 7424 0a65 91       		.byte	0x91
 7425 0a66 58       		.sleb128 -40
 7426 0a67 1C       		.uleb128 0x1c
 7427 0a68 3E080000 		.4byte	.LASF149
 7428 0a6c 01       		.byte	0x1
 7429 0a6d C703     		.2byte	0x3c7
 7430 0a6f A2000000 		.4byte	0xa2
 7431 0a73 02       		.uleb128 0x2
 7432 0a74 91       		.byte	0x91
 7433 0a75 68       		.sleb128 -24
 7434 0a76 1C       		.uleb128 0x1c
 7435 0a77 99040000 		.4byte	.LASF150
 7436 0a7b 01       		.byte	0x1
 7437 0a7c C803     		.2byte	0x3c8
 7438 0a7e A2000000 		.4byte	0xa2
 7439 0a82 02       		.uleb128 0x2
 7440 0a83 91       		.byte	0x91
 7441 0a84 74       		.sleb128 -12
 7442 0a85 1C       		.uleb128 0x1c
ARM GAS  /tmp/ccrsTBIG.s 			page 132


 7443 0a86 8B080000 		.4byte	.LASF145
 7444 0a8a 01       		.byte	0x1
 7445 0a8b C903     		.2byte	0x3c9
 7446 0a8d A3070000 		.4byte	0x7a3
 7447 0a91 02       		.uleb128 0x2
 7448 0a92 91       		.byte	0x91
 7449 0a93 64       		.sleb128 -28
 7450 0a94 1C       		.uleb128 0x1c
 7451 0a95 30060000 		.4byte	.LASF151
 7452 0a99 01       		.byte	0x1
 7453 0a9a CA03     		.2byte	0x3ca
 7454 0a9c A2000000 		.4byte	0xa2
 7455 0aa0 02       		.uleb128 0x2
 7456 0aa1 91       		.byte	0x91
 7457 0aa2 70       		.sleb128 -16
 7458 0aa3 1C       		.uleb128 0x1c
 7459 0aa4 A9050000 		.4byte	.LASF152
 7460 0aa8 01       		.byte	0x1
 7461 0aa9 CB03     		.2byte	0x3cb
 7462 0aab A2000000 		.4byte	0xa2
 7463 0aaf 02       		.uleb128 0x2
 7464 0ab0 91       		.byte	0x91
 7465 0ab1 6C       		.sleb128 -20
 7466 0ab2 00       		.byte	0
 7467 0ab3 1A       		.uleb128 0x1a
 7468 0ab4 B5010000 		.4byte	.LASF153
 7469 0ab8 01       		.byte	0x1
 7470 0ab9 5E04     		.2byte	0x45e
 7471 0abb A9030000 		.4byte	0x3a9
 7472 0abf 800B0000 		.4byte	.LFB132
 7473 0ac3 34010000 		.4byte	.LFE132-.LFB132
 7474 0ac7 01       		.uleb128 0x1
 7475 0ac8 9C       		.byte	0x9c
 7476 0ac9 0A0B0000 		.4byte	0xb0a
 7477 0acd 1B       		.uleb128 0x1b
 7478 0ace 0D0A0000 		.4byte	.LASF141
 7479 0ad2 01       		.byte	0x1
 7480 0ad3 5E04     		.2byte	0x45e
 7481 0ad5 2C090000 		.4byte	0x92c
 7482 0ad9 02       		.uleb128 0x2
 7483 0ada 91       		.byte	0x91
 7484 0adb 6C       		.sleb128 -20
 7485 0adc 1B       		.uleb128 0x1b
 7486 0add 5A030000 		.4byte	.LASF154
 7487 0ae1 01       		.byte	0x1
 7488 0ae2 5E04     		.2byte	0x45e
 7489 0ae4 A2000000 		.4byte	0xa2
 7490 0ae8 02       		.uleb128 0x2
 7491 0ae9 91       		.byte	0x91
 7492 0aea 68       		.sleb128 -24
 7493 0aeb 1B       		.uleb128 0x1b
 7494 0aec C3030000 		.4byte	.LASF148
 7495 0af0 01       		.byte	0x1
 7496 0af1 5E04     		.2byte	0x45e
 7497 0af3 A2000000 		.4byte	0xa2
 7498 0af7 02       		.uleb128 0x2
 7499 0af8 91       		.byte	0x91
ARM GAS  /tmp/ccrsTBIG.s 			page 133


 7500 0af9 64       		.sleb128 -28
 7501 0afa 1C       		.uleb128 0x1c
 7502 0afb 3E080000 		.4byte	.LASF149
 7503 0aff 01       		.byte	0x1
 7504 0b00 6004     		.2byte	0x460
 7505 0b02 A2000000 		.4byte	0xa2
 7506 0b06 02       		.uleb128 0x2
 7507 0b07 91       		.byte	0x91
 7508 0b08 74       		.sleb128 -12
 7509 0b09 00       		.byte	0
 7510 0b0a 1A       		.uleb128 0x1a
 7511 0b0b 6C040000 		.4byte	.LASF155
 7512 0b0f 01       		.byte	0x1
 7513 0b10 ED04     		.2byte	0x4ed
 7514 0b12 A9030000 		.4byte	0x3a9
 7515 0b16 C00C0000 		.4byte	.LFB133
 7516 0b1a 80020000 		.4byte	.LFE133-.LFB133
 7517 0b1e 01       		.uleb128 0x1
 7518 0b1f 9C       		.byte	0x9c
 7519 0b20 520B0000 		.4byte	0xb52
 7520 0b24 1B       		.uleb128 0x1b
 7521 0b25 0D0A0000 		.4byte	.LASF141
 7522 0b29 01       		.byte	0x1
 7523 0b2a ED04     		.2byte	0x4ed
 7524 0b2c 2C090000 		.4byte	0x92c
 7525 0b30 02       		.uleb128 0x2
 7526 0b31 91       		.byte	0x91
 7527 0b32 6C       		.sleb128 -20
 7528 0b33 1C       		.uleb128 0x1c
 7529 0b34 45090000 		.4byte	.LASF135
 7530 0b38 01       		.byte	0x1
 7531 0b39 EF04     		.2byte	0x4ef
 7532 0b3b A9030000 		.4byte	0x3a9
 7533 0b3f 02       		.uleb128 0x2
 7534 0b40 91       		.byte	0x91
 7535 0b41 77       		.sleb128 -9
 7536 0b42 1C       		.uleb128 0x1c
 7537 0b43 8B080000 		.4byte	.LASF145
 7538 0b47 01       		.byte	0x1
 7539 0b48 F004     		.2byte	0x4f0
 7540 0b4a A3070000 		.4byte	0x7a3
 7541 0b4e 02       		.uleb128 0x2
 7542 0b4f 91       		.byte	0x91
 7543 0b50 70       		.sleb128 -16
 7544 0b51 00       		.byte	0
 7545 0b52 1A       		.uleb128 0x1a
 7546 0b53 B8050000 		.4byte	.LASF156
 7547 0b57 01       		.byte	0x1
 7548 0b58 9105     		.2byte	0x591
 7549 0b5a A9030000 		.4byte	0x3a9
 7550 0b5e 400F0000 		.4byte	.LFB134
 7551 0b62 84000000 		.4byte	.LFE134-.LFB134
 7552 0b66 01       		.uleb128 0x1
 7553 0b67 9C       		.byte	0x9c
 7554 0b68 8B0B0000 		.4byte	0xb8b
 7555 0b6c 1B       		.uleb128 0x1b
 7556 0b6d 0D0A0000 		.4byte	.LASF141
ARM GAS  /tmp/ccrsTBIG.s 			page 134


 7557 0b71 01       		.byte	0x1
 7558 0b72 9105     		.2byte	0x591
 7559 0b74 2C090000 		.4byte	0x92c
 7560 0b78 02       		.uleb128 0x2
 7561 0b79 91       		.byte	0x91
 7562 0b7a 6C       		.sleb128 -20
 7563 0b7b 1C       		.uleb128 0x1c
 7564 0b7c 45090000 		.4byte	.LASF135
 7565 0b80 01       		.byte	0x1
 7566 0b81 9305     		.2byte	0x593
 7567 0b83 A9030000 		.4byte	0x3a9
 7568 0b87 02       		.uleb128 0x2
 7569 0b88 91       		.byte	0x91
 7570 0b89 77       		.sleb128 -9
 7571 0b8a 00       		.byte	0
 7572 0b8b 1A       		.uleb128 0x1a
 7573 0b8c AE090000 		.4byte	.LASF157
 7574 0b90 01       		.byte	0x1
 7575 0b91 C505     		.2byte	0x5c5
 7576 0b93 A9030000 		.4byte	0x3a9
 7577 0b97 D00F0000 		.4byte	.LFB135
 7578 0b9b A4010000 		.4byte	.LFE135-.LFB135
 7579 0b9f 01       		.uleb128 0x1
 7580 0ba0 9C       		.byte	0x9c
 7581 0ba1 E20B0000 		.4byte	0xbe2
 7582 0ba5 1B       		.uleb128 0x1b
 7583 0ba6 0D0A0000 		.4byte	.LASF141
 7584 0baa 01       		.byte	0x1
 7585 0bab C505     		.2byte	0x5c5
 7586 0bad 2C090000 		.4byte	0x92c
 7587 0bb1 02       		.uleb128 0x2
 7588 0bb2 91       		.byte	0x91
 7589 0bb3 6C       		.sleb128 -20
 7590 0bb4 1B       		.uleb128 0x1b
 7591 0bb5 A5030000 		.4byte	.LASF158
 7592 0bb9 01       		.byte	0x1
 7593 0bba C505     		.2byte	0x5c5
 7594 0bbc E20B0000 		.4byte	0xbe2
 7595 0bc0 02       		.uleb128 0x2
 7596 0bc1 91       		.byte	0x91
 7597 0bc2 68       		.sleb128 -24
 7598 0bc3 1B       		.uleb128 0x1b
 7599 0bc4 060A0000 		.4byte	.LASF159
 7600 0bc8 01       		.byte	0x1
 7601 0bc9 C505     		.2byte	0x5c5
 7602 0bcb A2000000 		.4byte	0xa2
 7603 0bcf 02       		.uleb128 0x2
 7604 0bd0 91       		.byte	0x91
 7605 0bd1 64       		.sleb128 -28
 7606 0bd2 1C       		.uleb128 0x1c
 7607 0bd3 45090000 		.4byte	.LASF135
 7608 0bd7 01       		.byte	0x1
 7609 0bd8 C705     		.2byte	0x5c7
 7610 0bda A9030000 		.4byte	0x3a9
 7611 0bde 02       		.uleb128 0x2
 7612 0bdf 91       		.byte	0x91
 7613 0be0 77       		.sleb128 -9
ARM GAS  /tmp/ccrsTBIG.s 			page 135


 7614 0be1 00       		.byte	0
 7615 0be2 14       		.uleb128 0x14
 7616 0be3 04       		.byte	0x4
 7617 0be4 A2000000 		.4byte	0xa2
 7618 0be8 1A       		.uleb128 0x1a
 7619 0be9 74090000 		.4byte	.LASF160
 7620 0bed 01       		.byte	0x1
 7621 0bee 3B06     		.2byte	0x63b
 7622 0bf0 A9030000 		.4byte	0x3a9
 7623 0bf4 80110000 		.4byte	.LFB136
 7624 0bf8 C8000000 		.4byte	.LFE136-.LFB136
 7625 0bfc 01       		.uleb128 0x1
 7626 0bfd 9C       		.byte	0x9c
 7627 0bfe 210C0000 		.4byte	0xc21
 7628 0c02 1B       		.uleb128 0x1b
 7629 0c03 0D0A0000 		.4byte	.LASF141
 7630 0c07 01       		.byte	0x1
 7631 0c08 3B06     		.2byte	0x63b
 7632 0c0a 2C090000 		.4byte	0x92c
 7633 0c0e 02       		.uleb128 0x2
 7634 0c0f 91       		.byte	0x91
 7635 0c10 6C       		.sleb128 -20
 7636 0c11 1C       		.uleb128 0x1c
 7637 0c12 45090000 		.4byte	.LASF135
 7638 0c16 01       		.byte	0x1
 7639 0c17 3D06     		.2byte	0x63d
 7640 0c19 A9030000 		.4byte	0x3a9
 7641 0c1d 02       		.uleb128 0x2
 7642 0c1e 91       		.byte	0x91
 7643 0c1f 77       		.sleb128 -9
 7644 0c20 00       		.byte	0
 7645 0c21 23       		.uleb128 0x23
 7646 0c22 4C060000 		.4byte	.LASF161
 7647 0c26 01       		.byte	0x1
 7648 0c27 8206     		.2byte	0x682
 7649 0c29 A2000000 		.4byte	0xa2
 7650 0c2d 50120000 		.4byte	.LFB137
 7651 0c31 10000000 		.4byte	.LFE137-.LFB137
 7652 0c35 01       		.uleb128 0x1
 7653 0c36 9C       		.byte	0x9c
 7654 0c37 4B0C0000 		.4byte	0xc4b
 7655 0c3b 1B       		.uleb128 0x1b
 7656 0c3c 0D0A0000 		.4byte	.LASF141
 7657 0c40 01       		.byte	0x1
 7658 0c41 8206     		.2byte	0x682
 7659 0c43 2C090000 		.4byte	0x92c
 7660 0c47 02       		.uleb128 0x2
 7661 0c48 91       		.byte	0x91
 7662 0c49 7C       		.sleb128 -4
 7663 0c4a 00       		.byte	0
 7664 0c4b 24       		.uleb128 0x24
 7665 0c4c 21010000 		.4byte	.LASF162
 7666 0c50 01       		.byte	0x1
 7667 0c51 9106     		.2byte	0x691
 7668 0c53 60120000 		.4byte	.LFB138
 7669 0c57 EC040000 		.4byte	.LFE138-.LFB138
 7670 0c5b 01       		.uleb128 0x1
ARM GAS  /tmp/ccrsTBIG.s 			page 136


 7671 0c5c 9C       		.byte	0x9c
 7672 0c5d CB0C0000 		.4byte	0xccb
 7673 0c61 1B       		.uleb128 0x1b
 7674 0c62 0D0A0000 		.4byte	.LASF141
 7675 0c66 01       		.byte	0x1
 7676 0c67 9106     		.2byte	0x691
 7677 0c69 2C090000 		.4byte	0x92c
 7678 0c6d 02       		.uleb128 0x2
 7679 0c6e 91       		.byte	0x91
 7680 0c6f 5C       		.sleb128 -36
 7681 0c70 1C       		.uleb128 0x1c
 7682 0c71 E9080000 		.4byte	.LASF163
 7683 0c75 01       		.byte	0x1
 7684 0c76 9306     		.2byte	0x693
 7685 0c78 A2000000 		.4byte	0xa2
 7686 0c7c 02       		.uleb128 0x2
 7687 0c7d 91       		.byte	0x91
 7688 0c7e 74       		.sleb128 -12
 7689 0c7f 1C       		.uleb128 0x1c
 7690 0c80 8B080000 		.4byte	.LASF145
 7691 0c84 01       		.byte	0x1
 7692 0c85 9406     		.2byte	0x694
 7693 0c87 A3070000 		.4byte	0x7a3
 7694 0c8b 02       		.uleb128 0x2
 7695 0c8c 91       		.byte	0x91
 7696 0c8d 60       		.sleb128 -32
 7697 0c8e 1C       		.uleb128 0x1c
 7698 0c8f 39060000 		.4byte	.LASF164
 7699 0c93 01       		.byte	0x1
 7700 0c94 9506     		.2byte	0x695
 7701 0c96 A2000000 		.4byte	0xa2
 7702 0c9a 02       		.uleb128 0x2
 7703 0c9b 91       		.byte	0x91
 7704 0c9c 68       		.sleb128 -24
 7705 0c9d 1C       		.uleb128 0x1c
 7706 0c9e 36080000 		.4byte	.LASF165
 7707 0ca2 01       		.byte	0x1
 7708 0ca3 9606     		.2byte	0x696
 7709 0ca5 A2000000 		.4byte	0xa2
 7710 0ca9 02       		.uleb128 0x2
 7711 0caa 91       		.byte	0x91
 7712 0cab 64       		.sleb128 -28
 7713 0cac 1C       		.uleb128 0x1c
 7714 0cad 30060000 		.4byte	.LASF151
 7715 0cb1 01       		.byte	0x1
 7716 0cb2 9706     		.2byte	0x697
 7717 0cb4 A2000000 		.4byte	0xa2
 7718 0cb8 02       		.uleb128 0x2
 7719 0cb9 91       		.byte	0x91
 7720 0cba 70       		.sleb128 -16
 7721 0cbb 1C       		.uleb128 0x1c
 7722 0cbc CE040000 		.4byte	.LASF166
 7723 0cc0 01       		.byte	0x1
 7724 0cc1 9806     		.2byte	0x698
 7725 0cc3 A2000000 		.4byte	0xa2
 7726 0cc7 02       		.uleb128 0x2
 7727 0cc8 91       		.byte	0x91
ARM GAS  /tmp/ccrsTBIG.s 			page 137


 7728 0cc9 6C       		.sleb128 -20
 7729 0cca 00       		.byte	0
 7730 0ccb 22       		.uleb128 0x22
 7731 0ccc A3080000 		.4byte	.LASF167
 7732 0cd0 01       		.byte	0x1
 7733 0cd1 D207     		.2byte	0x7d2
 7734 0cd3 50170000 		.4byte	.LFB139
 7735 0cd7 08000000 		.4byte	.LFE139-.LFB139
 7736 0cdb 01       		.uleb128 0x1
 7737 0cdc 9C       		.byte	0x9c
 7738 0cdd F10C0000 		.4byte	0xcf1
 7739 0ce1 1B       		.uleb128 0x1b
 7740 0ce2 0D0A0000 		.4byte	.LASF141
 7741 0ce6 01       		.byte	0x1
 7742 0ce7 D207     		.2byte	0x7d2
 7743 0ce9 2C090000 		.4byte	0x92c
 7744 0ced 02       		.uleb128 0x2
 7745 0cee 91       		.byte	0x91
 7746 0cef 7C       		.sleb128 -4
 7747 0cf0 00       		.byte	0
 7748 0cf1 22       		.uleb128 0x22
 7749 0cf2 AE060000 		.4byte	.LASF168
 7750 0cf6 01       		.byte	0x1
 7751 0cf7 E107     		.2byte	0x7e1
 7752 0cf9 60170000 		.4byte	.LFB140
 7753 0cfd 08000000 		.4byte	.LFE140-.LFB140
 7754 0d01 01       		.uleb128 0x1
 7755 0d02 9C       		.byte	0x9c
 7756 0d03 170D0000 		.4byte	0xd17
 7757 0d07 1B       		.uleb128 0x1b
 7758 0d08 0D0A0000 		.4byte	.LASF141
 7759 0d0c 01       		.byte	0x1
 7760 0d0d E107     		.2byte	0x7e1
 7761 0d0f 2C090000 		.4byte	0x92c
 7762 0d13 02       		.uleb128 0x2
 7763 0d14 91       		.byte	0x91
 7764 0d15 7C       		.sleb128 -4
 7765 0d16 00       		.byte	0
 7766 0d17 22       		.uleb128 0x22
 7767 0d18 3D050000 		.4byte	.LASF169
 7768 0d1c 01       		.byte	0x1
 7769 0d1d F007     		.2byte	0x7f0
 7770 0d1f 70170000 		.4byte	.LFB141
 7771 0d23 08000000 		.4byte	.LFE141-.LFB141
 7772 0d27 01       		.uleb128 0x1
 7773 0d28 9C       		.byte	0x9c
 7774 0d29 3D0D0000 		.4byte	0xd3d
 7775 0d2d 1B       		.uleb128 0x1b
 7776 0d2e 0D0A0000 		.4byte	.LASF141
 7777 0d32 01       		.byte	0x1
 7778 0d33 F007     		.2byte	0x7f0
 7779 0d35 2C090000 		.4byte	0x92c
 7780 0d39 02       		.uleb128 0x2
 7781 0d3a 91       		.byte	0x91
 7782 0d3b 7C       		.sleb128 -4
 7783 0d3c 00       		.byte	0
 7784 0d3d 22       		.uleb128 0x22
ARM GAS  /tmp/ccrsTBIG.s 			page 138


 7785 0d3e 85090000 		.4byte	.LASF170
 7786 0d42 01       		.byte	0x1
 7787 0d43 0008     		.2byte	0x800
 7788 0d45 80170000 		.4byte	.LFB142
 7789 0d49 08000000 		.4byte	.LFE142-.LFB142
 7790 0d4d 01       		.uleb128 0x1
 7791 0d4e 9C       		.byte	0x9c
 7792 0d4f 630D0000 		.4byte	0xd63
 7793 0d53 1B       		.uleb128 0x1b
 7794 0d54 0D0A0000 		.4byte	.LASF141
 7795 0d58 01       		.byte	0x1
 7796 0d59 0008     		.2byte	0x800
 7797 0d5b 2C090000 		.4byte	0x92c
 7798 0d5f 02       		.uleb128 0x2
 7799 0d60 91       		.byte	0x91
 7800 0d61 7C       		.sleb128 -4
 7801 0d62 00       		.byte	0
 7802 0d63 23       		.uleb128 0x23
 7803 0d64 20070000 		.4byte	.LASF171
 7804 0d68 01       		.byte	0x1
 7805 0d69 3108     		.2byte	0x831
 7806 0d6b A9030000 		.4byte	0x3a9
 7807 0d6f 90170000 		.4byte	.LFB143
 7808 0d73 E8070000 		.4byte	.LFE143-.LFB143
 7809 0d77 01       		.uleb128 0x1
 7810 0d78 9C       		.byte	0x9c
 7811 0d79 64120000 		.4byte	0x1264
 7812 0d7d 1B       		.uleb128 0x1b
 7813 0d7e 0D0A0000 		.4byte	.LASF141
 7814 0d82 01       		.byte	0x1
 7815 0d83 3108     		.2byte	0x831
 7816 0d85 2C090000 		.4byte	0x92c
 7817 0d89 03       		.uleb128 0x3
 7818 0d8a 91       		.byte	0x91
 7819 0d8b A47E     		.sleb128 -220
 7820 0d8d 1B       		.uleb128 0x1b
 7821 0d8e F10A0000 		.4byte	.LASF172
 7822 0d92 01       		.byte	0x1
 7823 0d93 3108     		.2byte	0x831
 7824 0d95 64120000 		.4byte	0x1264
 7825 0d99 03       		.uleb128 0x3
 7826 0d9a 91       		.byte	0x91
 7827 0d9b A07E     		.sleb128 -224
 7828 0d9d 1C       		.uleb128 0x1c
 7829 0d9e 45090000 		.4byte	.LASF135
 7830 0da2 01       		.byte	0x1
 7831 0da3 3308     		.2byte	0x833
 7832 0da5 A9030000 		.4byte	0x3a9
 7833 0da9 02       		.uleb128 0x2
 7834 0daa 91       		.byte	0x91
 7835 0dab 77       		.sleb128 -9
 7836 0dac 1C       		.uleb128 0x1c
 7837 0dad 72020000 		.4byte	.LASF136
 7838 0db1 01       		.byte	0x1
 7839 0db2 3508     		.2byte	0x835
 7840 0db4 32090000 		.4byte	0x932
 7841 0db8 02       		.uleb128 0x2
ARM GAS  /tmp/ccrsTBIG.s 			page 139


 7842 0db9 91       		.byte	0x91
 7843 0dba 6C       		.sleb128 -20
 7844 0dbb 1C       		.uleb128 0x1c
 7845 0dbc E6060000 		.4byte	.LASF173
 7846 0dc0 01       		.byte	0x1
 7847 0dc1 3608     		.2byte	0x836
 7848 0dc3 A2000000 		.4byte	0xa2
 7849 0dc7 02       		.uleb128 0x2
 7850 0dc8 91       		.byte	0x91
 7851 0dc9 70       		.sleb128 -16
 7852 0dca 1C       		.uleb128 0x1c
 7853 0dcb 02050000 		.4byte	.LASF138
 7854 0dcf 01       		.byte	0x1
 7855 0dd0 3708     		.2byte	0x837
 7856 0dd2 B4000000 		.4byte	0xb4
 7857 0dd6 03       		.uleb128 0x3
 7858 0dd7 91       		.byte	0x91
 7859 0dd8 A87E     		.sleb128 -216
 7860 0dda 1D       		.uleb128 0x1d
 7861 0ddb B4070000 		.4byte	0x7b4
 7862 0ddf E0170000 		.4byte	.LBB72
 7863 0de3 0A000000 		.4byte	.LBE72-.LBB72
 7864 0de7 01       		.byte	0x1
 7865 0de8 6008     		.2byte	0x860
 7866 0dea 090E0000 		.4byte	0xe09
 7867 0dee 1E       		.uleb128 0x1e
 7868 0def C5070000 		.4byte	0x7c5
 7869 0df3 02       		.uleb128 0x2
 7870 0df4 91       		.byte	0x91
 7871 0df5 68       		.sleb128 -24
 7872 0df6 1F       		.uleb128 0x1f
 7873 0df7 E0170000 		.4byte	.LBB73
 7874 0dfb 0A000000 		.4byte	.LBE73-.LBB73
 7875 0dff 20       		.uleb128 0x20
 7876 0e00 D1070000 		.4byte	0x7d1
 7877 0e04 02       		.uleb128 0x2
 7878 0e05 91       		.byte	0x91
 7879 0e06 64       		.sleb128 -28
 7880 0e07 00       		.byte	0
 7881 0e08 00       		.byte	0
 7882 0e09 1D       		.uleb128 0x1d
 7883 0e0a B4070000 		.4byte	0x7b4
 7884 0e0e 0A180000 		.4byte	.LBB74
 7885 0e12 0A000000 		.4byte	.LBE74-.LBB74
 7886 0e16 01       		.byte	0x1
 7887 0e17 6008     		.2byte	0x860
 7888 0e19 380E0000 		.4byte	0xe38
 7889 0e1d 1E       		.uleb128 0x1e
 7890 0e1e C5070000 		.4byte	0x7c5
 7891 0e22 02       		.uleb128 0x2
 7892 0e23 91       		.byte	0x91
 7893 0e24 60       		.sleb128 -32
 7894 0e25 1F       		.uleb128 0x1f
 7895 0e26 0A180000 		.4byte	.LBB75
 7896 0e2a 0A000000 		.4byte	.LBE75-.LBB75
 7897 0e2e 20       		.uleb128 0x20
 7898 0e2f D1070000 		.4byte	0x7d1
ARM GAS  /tmp/ccrsTBIG.s 			page 140


 7899 0e33 02       		.uleb128 0x2
 7900 0e34 91       		.byte	0x91
 7901 0e35 5C       		.sleb128 -36
 7902 0e36 00       		.byte	0
 7903 0e37 00       		.byte	0
 7904 0e38 1D       		.uleb128 0x1d
 7905 0e39 B4070000 		.4byte	0x7b4
 7906 0e3d 42180000 		.4byte	.LBB76
 7907 0e41 0A000000 		.4byte	.LBE76-.LBB76
 7908 0e45 01       		.byte	0x1
 7909 0e46 6708     		.2byte	0x867
 7910 0e48 670E0000 		.4byte	0xe67
 7911 0e4c 1E       		.uleb128 0x1e
 7912 0e4d C5070000 		.4byte	0x7c5
 7913 0e51 02       		.uleb128 0x2
 7914 0e52 91       		.byte	0x91
 7915 0e53 58       		.sleb128 -40
 7916 0e54 1F       		.uleb128 0x1f
 7917 0e55 42180000 		.4byte	.LBB77
 7918 0e59 0A000000 		.4byte	.LBE77-.LBB77
 7919 0e5d 20       		.uleb128 0x20
 7920 0e5e D1070000 		.4byte	0x7d1
 7921 0e62 02       		.uleb128 0x2
 7922 0e63 91       		.byte	0x91
 7923 0e64 54       		.sleb128 -44
 7924 0e65 00       		.byte	0
 7925 0e66 00       		.byte	0
 7926 0e67 1D       		.uleb128 0x1d
 7927 0e68 B4070000 		.4byte	0x7b4
 7928 0e6c 6E180000 		.4byte	.LBB78
 7929 0e70 0A000000 		.4byte	.LBE78-.LBB78
 7930 0e74 01       		.byte	0x1
 7931 0e75 6708     		.2byte	0x867
 7932 0e77 960E0000 		.4byte	0xe96
 7933 0e7b 1E       		.uleb128 0x1e
 7934 0e7c C5070000 		.4byte	0x7c5
 7935 0e80 02       		.uleb128 0x2
 7936 0e81 91       		.byte	0x91
 7937 0e82 50       		.sleb128 -48
 7938 0e83 1F       		.uleb128 0x1f
 7939 0e84 6E180000 		.4byte	.LBB79
 7940 0e88 0A000000 		.4byte	.LBE79-.LBB79
 7941 0e8c 20       		.uleb128 0x20
 7942 0e8d D1070000 		.4byte	0x7d1
 7943 0e91 02       		.uleb128 0x2
 7944 0e92 91       		.byte	0x91
 7945 0e93 4C       		.sleb128 -52
 7946 0e94 00       		.byte	0
 7947 0e95 00       		.byte	0
 7948 0e96 1D       		.uleb128 0x1d
 7949 0e97 B4070000 		.4byte	0x7b4
 7950 0e9b A8180000 		.4byte	.LBB80
 7951 0e9f 0A000000 		.4byte	.LBE80-.LBB80
 7952 0ea3 01       		.byte	0x1
 7953 0ea4 6E08     		.2byte	0x86e
 7954 0ea6 C50E0000 		.4byte	0xec5
 7955 0eaa 1E       		.uleb128 0x1e
ARM GAS  /tmp/ccrsTBIG.s 			page 141


 7956 0eab C5070000 		.4byte	0x7c5
 7957 0eaf 02       		.uleb128 0x2
 7958 0eb0 91       		.byte	0x91
 7959 0eb1 48       		.sleb128 -56
 7960 0eb2 1F       		.uleb128 0x1f
 7961 0eb3 A8180000 		.4byte	.LBB81
 7962 0eb7 0A000000 		.4byte	.LBE81-.LBB81
 7963 0ebb 20       		.uleb128 0x20
 7964 0ebc D1070000 		.4byte	0x7d1
 7965 0ec0 02       		.uleb128 0x2
 7966 0ec1 91       		.byte	0x91
 7967 0ec2 44       		.sleb128 -60
 7968 0ec3 00       		.byte	0
 7969 0ec4 00       		.byte	0
 7970 0ec5 1D       		.uleb128 0x1d
 7971 0ec6 B4070000 		.4byte	0x7b4
 7972 0eca D4180000 		.4byte	.LBB82
 7973 0ece 0A000000 		.4byte	.LBE82-.LBB82
 7974 0ed2 01       		.byte	0x1
 7975 0ed3 6E08     		.2byte	0x86e
 7976 0ed5 F50E0000 		.4byte	0xef5
 7977 0ed9 1E       		.uleb128 0x1e
 7978 0eda C5070000 		.4byte	0x7c5
 7979 0ede 02       		.uleb128 0x2
 7980 0edf 91       		.byte	0x91
 7981 0ee0 40       		.sleb128 -64
 7982 0ee1 1F       		.uleb128 0x1f
 7983 0ee2 D4180000 		.4byte	.LBB83
 7984 0ee6 0A000000 		.4byte	.LBE83-.LBB83
 7985 0eea 20       		.uleb128 0x20
 7986 0eeb D1070000 		.4byte	0x7d1
 7987 0eef 03       		.uleb128 0x3
 7988 0ef0 91       		.byte	0x91
 7989 0ef1 BC7F     		.sleb128 -68
 7990 0ef3 00       		.byte	0
 7991 0ef4 00       		.byte	0
 7992 0ef5 1D       		.uleb128 0x1d
 7993 0ef6 B4070000 		.4byte	0x7b4
 7994 0efa 06190000 		.4byte	.LBB84
 7995 0efe 0A000000 		.4byte	.LBE84-.LBB84
 7996 0f02 01       		.byte	0x1
 7997 0f03 7508     		.2byte	0x875
 7998 0f05 260F0000 		.4byte	0xf26
 7999 0f09 1E       		.uleb128 0x1e
 8000 0f0a C5070000 		.4byte	0x7c5
 8001 0f0e 03       		.uleb128 0x3
 8002 0f0f 91       		.byte	0x91
 8003 0f10 B87F     		.sleb128 -72
 8004 0f12 1F       		.uleb128 0x1f
 8005 0f13 06190000 		.4byte	.LBB85
 8006 0f17 0A000000 		.4byte	.LBE85-.LBB85
 8007 0f1b 20       		.uleb128 0x20
 8008 0f1c D1070000 		.4byte	0x7d1
 8009 0f20 03       		.uleb128 0x3
 8010 0f21 91       		.byte	0x91
 8011 0f22 B47F     		.sleb128 -76
 8012 0f24 00       		.byte	0
ARM GAS  /tmp/ccrsTBIG.s 			page 142


 8013 0f25 00       		.byte	0
 8014 0f26 1D       		.uleb128 0x1d
 8015 0f27 B4070000 		.4byte	0x7b4
 8016 0f2b 32190000 		.4byte	.LBB86
 8017 0f2f 0A000000 		.4byte	.LBE86-.LBB86
 8018 0f33 01       		.byte	0x1
 8019 0f34 7508     		.2byte	0x875
 8020 0f36 570F0000 		.4byte	0xf57
 8021 0f3a 1E       		.uleb128 0x1e
 8022 0f3b C5070000 		.4byte	0x7c5
 8023 0f3f 03       		.uleb128 0x3
 8024 0f40 91       		.byte	0x91
 8025 0f41 B07F     		.sleb128 -80
 8026 0f43 1F       		.uleb128 0x1f
 8027 0f44 32190000 		.4byte	.LBB87
 8028 0f48 0A000000 		.4byte	.LBE87-.LBB87
 8029 0f4c 20       		.uleb128 0x20
 8030 0f4d D1070000 		.4byte	0x7d1
 8031 0f51 03       		.uleb128 0x3
 8032 0f52 91       		.byte	0x91
 8033 0f53 AC7F     		.sleb128 -84
 8034 0f55 00       		.byte	0
 8035 0f56 00       		.byte	0
 8036 0f57 1D       		.uleb128 0x1d
 8037 0f58 B4070000 		.4byte	0x7b4
 8038 0f5c 78190000 		.4byte	.LBB88
 8039 0f60 0A000000 		.4byte	.LBE88-.LBB88
 8040 0f64 01       		.byte	0x1
 8041 0f65 8808     		.2byte	0x888
 8042 0f67 880F0000 		.4byte	0xf88
 8043 0f6b 1E       		.uleb128 0x1e
 8044 0f6c C5070000 		.4byte	0x7c5
 8045 0f70 03       		.uleb128 0x3
 8046 0f71 91       		.byte	0x91
 8047 0f72 A87F     		.sleb128 -88
 8048 0f74 1F       		.uleb128 0x1f
 8049 0f75 78190000 		.4byte	.LBB89
 8050 0f79 0A000000 		.4byte	.LBE89-.LBB89
 8051 0f7d 20       		.uleb128 0x20
 8052 0f7e D1070000 		.4byte	0x7d1
 8053 0f82 03       		.uleb128 0x3
 8054 0f83 91       		.byte	0x91
 8055 0f84 A47F     		.sleb128 -92
 8056 0f86 00       		.byte	0
 8057 0f87 00       		.byte	0
 8058 0f88 1D       		.uleb128 0x1d
 8059 0f89 B4070000 		.4byte	0x7b4
 8060 0f8d A2190000 		.4byte	.LBB90
 8061 0f91 0A000000 		.4byte	.LBE90-.LBB90
 8062 0f95 01       		.byte	0x1
 8063 0f96 8808     		.2byte	0x888
 8064 0f98 B90F0000 		.4byte	0xfb9
 8065 0f9c 1E       		.uleb128 0x1e
 8066 0f9d C5070000 		.4byte	0x7c5
 8067 0fa1 03       		.uleb128 0x3
 8068 0fa2 91       		.byte	0x91
 8069 0fa3 A07F     		.sleb128 -96
ARM GAS  /tmp/ccrsTBIG.s 			page 143


 8070 0fa5 1F       		.uleb128 0x1f
 8071 0fa6 A2190000 		.4byte	.LBB91
 8072 0faa 0A000000 		.4byte	.LBE91-.LBB91
 8073 0fae 20       		.uleb128 0x20
 8074 0faf D1070000 		.4byte	0x7d1
 8075 0fb3 03       		.uleb128 0x3
 8076 0fb4 91       		.byte	0x91
 8077 0fb5 9C7F     		.sleb128 -100
 8078 0fb7 00       		.byte	0
 8079 0fb8 00       		.byte	0
 8080 0fb9 1D       		.uleb128 0x1d
 8081 0fba B4070000 		.4byte	0x7b4
 8082 0fbe D2190000 		.4byte	.LBB92
 8083 0fc2 0A000000 		.4byte	.LBE92-.LBB92
 8084 0fc6 01       		.byte	0x1
 8085 0fc7 8C08     		.2byte	0x88c
 8086 0fc9 EA0F0000 		.4byte	0xfea
 8087 0fcd 1E       		.uleb128 0x1e
 8088 0fce C5070000 		.4byte	0x7c5
 8089 0fd2 03       		.uleb128 0x3
 8090 0fd3 91       		.byte	0x91
 8091 0fd4 987F     		.sleb128 -104
 8092 0fd6 1F       		.uleb128 0x1f
 8093 0fd7 D2190000 		.4byte	.LBB93
 8094 0fdb 0A000000 		.4byte	.LBE93-.LBB93
 8095 0fdf 20       		.uleb128 0x20
 8096 0fe0 D1070000 		.4byte	0x7d1
 8097 0fe4 03       		.uleb128 0x3
 8098 0fe5 91       		.byte	0x91
 8099 0fe6 947F     		.sleb128 -108
 8100 0fe8 00       		.byte	0
 8101 0fe9 00       		.byte	0
 8102 0fea 1D       		.uleb128 0x1d
 8103 0feb B4070000 		.4byte	0x7b4
 8104 0fef FA190000 		.4byte	.LBB94
 8105 0ff3 0A000000 		.4byte	.LBE94-.LBB94
 8106 0ff7 01       		.byte	0x1
 8107 0ff8 8C08     		.2byte	0x88c
 8108 0ffa 1B100000 		.4byte	0x101b
 8109 0ffe 1E       		.uleb128 0x1e
 8110 0fff C5070000 		.4byte	0x7c5
 8111 1003 03       		.uleb128 0x3
 8112 1004 91       		.byte	0x91
 8113 1005 907F     		.sleb128 -112
 8114 1007 1F       		.uleb128 0x1f
 8115 1008 FA190000 		.4byte	.LBB95
 8116 100c 0A000000 		.4byte	.LBE95-.LBB95
 8117 1010 20       		.uleb128 0x20
 8118 1011 D1070000 		.4byte	0x7d1
 8119 1015 03       		.uleb128 0x3
 8120 1016 91       		.byte	0x91
 8121 1017 8C7F     		.sleb128 -116
 8122 1019 00       		.byte	0
 8123 101a 00       		.byte	0
 8124 101b 1D       		.uleb128 0x1d
 8125 101c B4070000 		.4byte	0x7b4
 8126 1020 681A0000 		.4byte	.LBB96
ARM GAS  /tmp/ccrsTBIG.s 			page 144


 8127 1024 0A000000 		.4byte	.LBE96-.LBB96
 8128 1028 01       		.byte	0x1
 8129 1029 9D08     		.2byte	0x89d
 8130 102b 4C100000 		.4byte	0x104c
 8131 102f 1E       		.uleb128 0x1e
 8132 1030 C5070000 		.4byte	0x7c5
 8133 1034 03       		.uleb128 0x3
 8134 1035 91       		.byte	0x91
 8135 1036 887F     		.sleb128 -120
 8136 1038 1F       		.uleb128 0x1f
 8137 1039 681A0000 		.4byte	.LBB97
 8138 103d 0A000000 		.4byte	.LBE97-.LBB97
 8139 1041 20       		.uleb128 0x20
 8140 1042 D1070000 		.4byte	0x7d1
 8141 1046 03       		.uleb128 0x3
 8142 1047 91       		.byte	0x91
 8143 1048 847F     		.sleb128 -124
 8144 104a 00       		.byte	0
 8145 104b 00       		.byte	0
 8146 104c 1D       		.uleb128 0x1d
 8147 104d B4070000 		.4byte	0x7b4
 8148 1051 9E1A0000 		.4byte	.LBB98
 8149 1055 0A000000 		.4byte	.LBE98-.LBB98
 8150 1059 01       		.byte	0x1
 8151 105a A308     		.2byte	0x8a3
 8152 105c 7D100000 		.4byte	0x107d
 8153 1060 1E       		.uleb128 0x1e
 8154 1061 C5070000 		.4byte	0x7c5
 8155 1065 03       		.uleb128 0x3
 8156 1066 91       		.byte	0x91
 8157 1067 807F     		.sleb128 -128
 8158 1069 1F       		.uleb128 0x1f
 8159 106a 9E1A0000 		.4byte	.LBB99
 8160 106e 0A000000 		.4byte	.LBE99-.LBB99
 8161 1072 20       		.uleb128 0x20
 8162 1073 D1070000 		.4byte	0x7d1
 8163 1077 03       		.uleb128 0x3
 8164 1078 91       		.byte	0x91
 8165 1079 FC7E     		.sleb128 -132
 8166 107b 00       		.byte	0
 8167 107c 00       		.byte	0
 8168 107d 1D       		.uleb128 0x1d
 8169 107e B4070000 		.4byte	0x7b4
 8170 1082 D41A0000 		.4byte	.LBB100
 8171 1086 0A000000 		.4byte	.LBE100-.LBB100
 8172 108a 01       		.byte	0x1
 8173 108b A908     		.2byte	0x8a9
 8174 108d AE100000 		.4byte	0x10ae
 8175 1091 1E       		.uleb128 0x1e
 8176 1092 C5070000 		.4byte	0x7c5
 8177 1096 03       		.uleb128 0x3
 8178 1097 91       		.byte	0x91
 8179 1098 F87E     		.sleb128 -136
 8180 109a 1F       		.uleb128 0x1f
 8181 109b D41A0000 		.4byte	.LBB101
 8182 109f 0A000000 		.4byte	.LBE101-.LBB101
 8183 10a3 20       		.uleb128 0x20
ARM GAS  /tmp/ccrsTBIG.s 			page 145


 8184 10a4 D1070000 		.4byte	0x7d1
 8185 10a8 03       		.uleb128 0x3
 8186 10a9 91       		.byte	0x91
 8187 10aa F47E     		.sleb128 -140
 8188 10ac 00       		.byte	0
 8189 10ad 00       		.byte	0
 8190 10ae 1D       		.uleb128 0x1d
 8191 10af B4070000 		.4byte	0x7b4
 8192 10b3 0A1B0000 		.4byte	.LBB102
 8193 10b7 0A000000 		.4byte	.LBE102-.LBB102
 8194 10bb 01       		.byte	0x1
 8195 10bc AF08     		.2byte	0x8af
 8196 10be DF100000 		.4byte	0x10df
 8197 10c2 1E       		.uleb128 0x1e
 8198 10c3 C5070000 		.4byte	0x7c5
 8199 10c7 03       		.uleb128 0x3
 8200 10c8 91       		.byte	0x91
 8201 10c9 F07E     		.sleb128 -144
 8202 10cb 1F       		.uleb128 0x1f
 8203 10cc 0A1B0000 		.4byte	.LBB103
 8204 10d0 0A000000 		.4byte	.LBE103-.LBB103
 8205 10d4 20       		.uleb128 0x20
 8206 10d5 D1070000 		.4byte	0x7d1
 8207 10d9 03       		.uleb128 0x3
 8208 10da 91       		.byte	0x91
 8209 10db EC7E     		.sleb128 -148
 8210 10dd 00       		.byte	0
 8211 10de 00       		.byte	0
 8212 10df 1D       		.uleb128 0x1d
 8213 10e0 B4070000 		.4byte	0x7b4
 8214 10e4 3C1B0000 		.4byte	.LBB104
 8215 10e8 0A000000 		.4byte	.LBE104-.LBB104
 8216 10ec 01       		.byte	0x1
 8217 10ed B908     		.2byte	0x8b9
 8218 10ef 10110000 		.4byte	0x1110
 8219 10f3 1E       		.uleb128 0x1e
 8220 10f4 C5070000 		.4byte	0x7c5
 8221 10f8 03       		.uleb128 0x3
 8222 10f9 91       		.byte	0x91
 8223 10fa E87E     		.sleb128 -152
 8224 10fc 1F       		.uleb128 0x1f
 8225 10fd 3C1B0000 		.4byte	.LBB105
 8226 1101 0A000000 		.4byte	.LBE105-.LBB105
 8227 1105 20       		.uleb128 0x20
 8228 1106 D1070000 		.4byte	0x7d1
 8229 110a 03       		.uleb128 0x3
 8230 110b 91       		.byte	0x91
 8231 110c E47E     		.sleb128 -156
 8232 110e 00       		.byte	0
 8233 110f 00       		.byte	0
 8234 1110 1D       		.uleb128 0x1d
 8235 1111 B4070000 		.4byte	0x7b4
 8236 1115 761B0000 		.4byte	.LBB106
 8237 1119 0A000000 		.4byte	.LBE106-.LBB106
 8238 111d 01       		.byte	0x1
 8239 111e BD08     		.2byte	0x8bd
 8240 1120 41110000 		.4byte	0x1141
ARM GAS  /tmp/ccrsTBIG.s 			page 146


 8241 1124 1E       		.uleb128 0x1e
 8242 1125 C5070000 		.4byte	0x7c5
 8243 1129 03       		.uleb128 0x3
 8244 112a 91       		.byte	0x91
 8245 112b E07E     		.sleb128 -160
 8246 112d 1F       		.uleb128 0x1f
 8247 112e 761B0000 		.4byte	.LBB107
 8248 1132 0A000000 		.4byte	.LBE107-.LBB107
 8249 1136 20       		.uleb128 0x20
 8250 1137 D1070000 		.4byte	0x7d1
 8251 113b 03       		.uleb128 0x3
 8252 113c 91       		.byte	0x91
 8253 113d DC7E     		.sleb128 -164
 8254 113f 00       		.byte	0
 8255 1140 00       		.byte	0
 8256 1141 1D       		.uleb128 0x1d
 8257 1142 B4070000 		.4byte	0x7b4
 8258 1146 B01B0000 		.4byte	.LBB108
 8259 114a 0A000000 		.4byte	.LBE108-.LBB108
 8260 114e 01       		.byte	0x1
 8261 114f C108     		.2byte	0x8c1
 8262 1151 72110000 		.4byte	0x1172
 8263 1155 1E       		.uleb128 0x1e
 8264 1156 C5070000 		.4byte	0x7c5
 8265 115a 03       		.uleb128 0x3
 8266 115b 91       		.byte	0x91
 8267 115c D87E     		.sleb128 -168
 8268 115e 1F       		.uleb128 0x1f
 8269 115f B01B0000 		.4byte	.LBB109
 8270 1163 0A000000 		.4byte	.LBE109-.LBB109
 8271 1167 20       		.uleb128 0x20
 8272 1168 D1070000 		.4byte	0x7d1
 8273 116c 03       		.uleb128 0x3
 8274 116d 91       		.byte	0x91
 8275 116e D47E     		.sleb128 -172
 8276 1170 00       		.byte	0
 8277 1171 00       		.byte	0
 8278 1172 1D       		.uleb128 0x1d
 8279 1173 B4070000 		.4byte	0x7b4
 8280 1177 EA1B0000 		.4byte	.LBB110
 8281 117b 0A000000 		.4byte	.LBE110-.LBB110
 8282 117f 01       		.byte	0x1
 8283 1180 C508     		.2byte	0x8c5
 8284 1182 A3110000 		.4byte	0x11a3
 8285 1186 1E       		.uleb128 0x1e
 8286 1187 C5070000 		.4byte	0x7c5
 8287 118b 03       		.uleb128 0x3
 8288 118c 91       		.byte	0x91
 8289 118d D07E     		.sleb128 -176
 8290 118f 1F       		.uleb128 0x1f
 8291 1190 EA1B0000 		.4byte	.LBB111
 8292 1194 0A000000 		.4byte	.LBE111-.LBB111
 8293 1198 20       		.uleb128 0x20
 8294 1199 D1070000 		.4byte	0x7d1
 8295 119d 03       		.uleb128 0x3
 8296 119e 91       		.byte	0x91
 8297 119f CC7E     		.sleb128 -180
ARM GAS  /tmp/ccrsTBIG.s 			page 147


 8298 11a1 00       		.byte	0
 8299 11a2 00       		.byte	0
 8300 11a3 1D       		.uleb128 0x1d
 8301 11a4 B4070000 		.4byte	0x7b4
 8302 11a8 981C0000 		.4byte	.LBB112
 8303 11ac 0A000000 		.4byte	.LBE112-.LBB112
 8304 11b0 01       		.byte	0x1
 8305 11b1 E708     		.2byte	0x8e7
 8306 11b3 D4110000 		.4byte	0x11d4
 8307 11b7 1E       		.uleb128 0x1e
 8308 11b8 C5070000 		.4byte	0x7c5
 8309 11bc 03       		.uleb128 0x3
 8310 11bd 91       		.byte	0x91
 8311 11be C87E     		.sleb128 -184
 8312 11c0 1F       		.uleb128 0x1f
 8313 11c1 981C0000 		.4byte	.LBB113
 8314 11c5 0A000000 		.4byte	.LBE113-.LBB113
 8315 11c9 20       		.uleb128 0x20
 8316 11ca D1070000 		.4byte	0x7d1
 8317 11ce 03       		.uleb128 0x3
 8318 11cf 91       		.byte	0x91
 8319 11d0 C47E     		.sleb128 -188
 8320 11d2 00       		.byte	0
 8321 11d3 00       		.byte	0
 8322 11d4 1D       		.uleb128 0x1d
 8323 11d5 B4070000 		.4byte	0x7b4
 8324 11d9 C21C0000 		.4byte	.LBB114
 8325 11dd 0A000000 		.4byte	.LBE114-.LBB114
 8326 11e1 01       		.byte	0x1
 8327 11e2 E708     		.2byte	0x8e7
 8328 11e4 05120000 		.4byte	0x1205
 8329 11e8 1E       		.uleb128 0x1e
 8330 11e9 C5070000 		.4byte	0x7c5
 8331 11ed 03       		.uleb128 0x3
 8332 11ee 91       		.byte	0x91
 8333 11ef C07E     		.sleb128 -192
 8334 11f1 1F       		.uleb128 0x1f
 8335 11f2 C21C0000 		.4byte	.LBB115
 8336 11f6 0A000000 		.4byte	.LBE115-.LBB115
 8337 11fa 20       		.uleb128 0x20
 8338 11fb D1070000 		.4byte	0x7d1
 8339 11ff 03       		.uleb128 0x3
 8340 1200 91       		.byte	0x91
 8341 1201 BC7E     		.sleb128 -196
 8342 1203 00       		.byte	0
 8343 1204 00       		.byte	0
 8344 1205 1D       		.uleb128 0x1d
 8345 1206 B4070000 		.4byte	0x7b4
 8346 120a F61C0000 		.4byte	.LBB116
 8347 120e 0A000000 		.4byte	.LBE116-.LBB116
 8348 1212 01       		.byte	0x1
 8349 1213 EB08     		.2byte	0x8eb
 8350 1215 36120000 		.4byte	0x1236
 8351 1219 1E       		.uleb128 0x1e
 8352 121a C5070000 		.4byte	0x7c5
 8353 121e 03       		.uleb128 0x3
 8354 121f 91       		.byte	0x91
ARM GAS  /tmp/ccrsTBIG.s 			page 148


 8355 1220 B87E     		.sleb128 -200
 8356 1222 1F       		.uleb128 0x1f
 8357 1223 F61C0000 		.4byte	.LBB117
 8358 1227 0A000000 		.4byte	.LBE117-.LBB117
 8359 122b 20       		.uleb128 0x20
 8360 122c D1070000 		.4byte	0x7d1
 8361 1230 03       		.uleb128 0x3
 8362 1231 91       		.byte	0x91
 8363 1232 B47E     		.sleb128 -204
 8364 1234 00       		.byte	0
 8365 1235 00       		.byte	0
 8366 1236 21       		.uleb128 0x21
 8367 1237 B4070000 		.4byte	0x7b4
 8368 123b 201D0000 		.4byte	.LBB118
 8369 123f 0A000000 		.4byte	.LBE118-.LBB118
 8370 1243 01       		.byte	0x1
 8371 1244 EB08     		.2byte	0x8eb
 8372 1246 1E       		.uleb128 0x1e
 8373 1247 C5070000 		.4byte	0x7c5
 8374 124b 03       		.uleb128 0x3
 8375 124c 91       		.byte	0x91
 8376 124d B07E     		.sleb128 -208
 8377 124f 1F       		.uleb128 0x1f
 8378 1250 201D0000 		.4byte	.LBB119
 8379 1254 0A000000 		.4byte	.LBE119-.LBB119
 8380 1258 20       		.uleb128 0x20
 8381 1259 D1070000 		.4byte	0x7d1
 8382 125d 03       		.uleb128 0x3
 8383 125e 91       		.byte	0x91
 8384 125f AC7E     		.sleb128 -212
 8385 1261 00       		.byte	0
 8386 1262 00       		.byte	0
 8387 1263 00       		.byte	0
 8388 1264 14       		.uleb128 0x14
 8389 1265 04       		.byte	0x4
 8390 1266 0B060000 		.4byte	0x60b
 8391 126a 23       		.uleb128 0x23
 8392 126b 6B070000 		.4byte	.LASF174
 8393 126f 01       		.byte	0x1
 8394 1270 5E09     		.2byte	0x95e
 8395 1272 A9030000 		.4byte	0x3a9
 8396 1276 801F0000 		.4byte	.LFB144
 8397 127a BC020000 		.4byte	.LFE144-.LFB144
 8398 127e 01       		.uleb128 0x1
 8399 127f 9C       		.byte	0x9c
 8400 1280 19130000 		.4byte	0x1319
 8401 1284 1B       		.uleb128 0x1b
 8402 1285 0D0A0000 		.4byte	.LASF141
 8403 1289 01       		.byte	0x1
 8404 128a 5E09     		.2byte	0x95e
 8405 128c 2C090000 		.4byte	0x92c
 8406 1290 02       		.uleb128 0x2
 8407 1291 91       		.byte	0x91
 8408 1292 54       		.sleb128 -44
 8409 1293 1B       		.uleb128 0x1b
 8410 1294 99050000 		.4byte	.LASF175
 8411 1298 01       		.byte	0x1
ARM GAS  /tmp/ccrsTBIG.s 			page 149


 8412 1299 5E09     		.2byte	0x95e
 8413 129b 19130000 		.4byte	0x1319
 8414 129f 02       		.uleb128 0x2
 8415 12a0 91       		.byte	0x91
 8416 12a1 50       		.sleb128 -48
 8417 12a2 1C       		.uleb128 0x1c
 8418 12a3 45090000 		.4byte	.LASF135
 8419 12a7 01       		.byte	0x1
 8420 12a8 6009     		.2byte	0x960
 8421 12aa A9030000 		.4byte	0x3a9
 8422 12ae 02       		.uleb128 0x2
 8423 12af 91       		.byte	0x91
 8424 12b0 77       		.sleb128 -9
 8425 12b1 1C       		.uleb128 0x1c
 8426 12b2 CB060000 		.4byte	.LASF176
 8427 12b6 01       		.byte	0x1
 8428 12b7 6309     		.2byte	0x963
 8429 12b9 A2000000 		.4byte	0xa2
 8430 12bd 02       		.uleb128 0x2
 8431 12be 91       		.byte	0x91
 8432 12bf 68       		.sleb128 -24
 8433 12c0 1C       		.uleb128 0x1c
 8434 12c1 E9010000 		.4byte	.LASF177
 8435 12c5 01       		.byte	0x1
 8436 12c6 6409     		.2byte	0x964
 8437 12c8 A2000000 		.4byte	0xa2
 8438 12cc 02       		.uleb128 0x2
 8439 12cd 91       		.byte	0x91
 8440 12ce 64       		.sleb128 -28
 8441 12cf 1C       		.uleb128 0x1c
 8442 12d0 0B070000 		.4byte	.LASF178
 8443 12d4 01       		.byte	0x1
 8444 12d5 6609     		.2byte	0x966
 8445 12d7 A2000000 		.4byte	0xa2
 8446 12db 02       		.uleb128 0x2
 8447 12dc 91       		.byte	0x91
 8448 12dd 70       		.sleb128 -16
 8449 12de 1C       		.uleb128 0x1c
 8450 12df 1D030000 		.4byte	.LASF179
 8451 12e3 01       		.byte	0x1
 8452 12e4 6709     		.2byte	0x967
 8453 12e6 A2000000 		.4byte	0xa2
 8454 12ea 02       		.uleb128 0x2
 8455 12eb 91       		.byte	0x91
 8456 12ec 6C       		.sleb128 -20
 8457 12ed 21       		.uleb128 0x21
 8458 12ee B4070000 		.4byte	0x7b4
 8459 12f2 EE1F0000 		.4byte	.LBB120
 8460 12f6 0A000000 		.4byte	.LBE120-.LBB120
 8461 12fa 01       		.byte	0x1
 8462 12fb 8F09     		.2byte	0x98f
 8463 12fd 1E       		.uleb128 0x1e
 8464 12fe C5070000 		.4byte	0x7c5
 8465 1302 02       		.uleb128 0x2
 8466 1303 91       		.byte	0x91
 8467 1304 60       		.sleb128 -32
 8468 1305 1F       		.uleb128 0x1f
ARM GAS  /tmp/ccrsTBIG.s 			page 150


 8469 1306 EE1F0000 		.4byte	.LBB121
 8470 130a 0A000000 		.4byte	.LBE121-.LBB121
 8471 130e 20       		.uleb128 0x20
 8472 130f D1070000 		.4byte	0x7d1
 8473 1313 02       		.uleb128 0x2
 8474 1314 91       		.byte	0x91
 8475 1315 5C       		.sleb128 -36
 8476 1316 00       		.byte	0
 8477 1317 00       		.byte	0
 8478 1318 00       		.byte	0
 8479 1319 14       		.uleb128 0x14
 8480 131a 04       		.byte	0x4
 8481 131b 67060000 		.4byte	0x667
 8482 131f 23       		.uleb128 0x23
 8483 1320 DB040000 		.4byte	.LASF180
 8484 1324 01       		.byte	0x1
 8485 1325 2F0A     		.2byte	0xa2f
 8486 1327 A2000000 		.4byte	0xa2
 8487 132b 40220000 		.4byte	.LFB145
 8488 132f 0E000000 		.4byte	.LFE145-.LFB145
 8489 1333 01       		.uleb128 0x1
 8490 1334 9C       		.byte	0x9c
 8491 1335 49130000 		.4byte	0x1349
 8492 1339 1B       		.uleb128 0x1b
 8493 133a 0D0A0000 		.4byte	.LASF141
 8494 133e 01       		.byte	0x1
 8495 133f 2F0A     		.2byte	0xa2f
 8496 1341 2C090000 		.4byte	0x92c
 8497 1345 02       		.uleb128 0x2
 8498 1346 91       		.byte	0x91
 8499 1347 7C       		.sleb128 -4
 8500 1348 00       		.byte	0
 8501 1349 23       		.uleb128 0x23
 8502 134a 7E030000 		.4byte	.LASF181
 8503 134e 01       		.byte	0x1
 8504 134f 3E0A     		.2byte	0xa3e
 8505 1351 A2000000 		.4byte	0xa2
 8506 1355 50220000 		.4byte	.LFB146
 8507 1359 0E000000 		.4byte	.LFE146-.LFB146
 8508 135d 01       		.uleb128 0x1
 8509 135e 9C       		.byte	0x9c
 8510 135f 73130000 		.4byte	0x1373
 8511 1363 1B       		.uleb128 0x1b
 8512 1364 0D0A0000 		.4byte	.LASF141
 8513 1368 01       		.byte	0x1
 8514 1369 3E0A     		.2byte	0xa3e
 8515 136b 2C090000 		.4byte	0x92c
 8516 136f 02       		.uleb128 0x2
 8517 1370 91       		.byte	0x91
 8518 1371 7C       		.sleb128 -4
 8519 1372 00       		.byte	0
 8520 1373 1A       		.uleb128 0x1a
 8521 1374 D6080000 		.4byte	.LASF182
 8522 1378 01       		.byte	0x1
 8523 1379 5E0A     		.2byte	0xa5e
 8524 137b A9030000 		.4byte	0x3a9
 8525 137f 60220000 		.4byte	.LFB147
ARM GAS  /tmp/ccrsTBIG.s 			page 151


 8526 1383 58010000 		.4byte	.LFE147-.LFB147
 8527 1387 01       		.uleb128 0x1
 8528 1388 9C       		.byte	0x9c
 8529 1389 D9130000 		.4byte	0x13d9
 8530 138d 1B       		.uleb128 0x1b
 8531 138e 0D0A0000 		.4byte	.LASF141
 8532 1392 01       		.byte	0x1
 8533 1393 5E0A     		.2byte	0xa5e
 8534 1395 2C090000 		.4byte	0x92c
 8535 1399 02       		.uleb128 0x2
 8536 139a 91       		.byte	0x91
 8537 139b 64       		.sleb128 -28
 8538 139c 1B       		.uleb128 0x1b
 8539 139d 48080000 		.4byte	.LASF183
 8540 13a1 01       		.byte	0x1
 8541 13a2 5E0A     		.2byte	0xa5e
 8542 13a4 A2000000 		.4byte	0xa2
 8543 13a8 02       		.uleb128 0x2
 8544 13a9 91       		.byte	0x91
 8545 13aa 60       		.sleb128 -32
 8546 13ab 1C       		.uleb128 0x1c
 8547 13ac 4F070000 		.4byte	.LASF184
 8548 13b0 01       		.byte	0x1
 8549 13b1 600A     		.2byte	0xa60
 8550 13b3 A2000000 		.4byte	0xa2
 8551 13b7 02       		.uleb128 0x2
 8552 13b8 91       		.byte	0x91
 8553 13b9 74       		.sleb128 -12
 8554 13ba 1C       		.uleb128 0x1c
 8555 13bb 3E080000 		.4byte	.LASF149
 8556 13bf 01       		.byte	0x1
 8557 13c0 610A     		.2byte	0xa61
 8558 13c2 A2000000 		.4byte	0xa2
 8559 13c6 02       		.uleb128 0x2
 8560 13c7 91       		.byte	0x91
 8561 13c8 6C       		.sleb128 -20
 8562 13c9 1C       		.uleb128 0x1c
 8563 13ca 25000000 		.4byte	.LASF185
 8564 13ce 01       		.byte	0x1
 8565 13cf 620A     		.2byte	0xa62
 8566 13d1 A2000000 		.4byte	0xa2
 8567 13d5 02       		.uleb128 0x2
 8568 13d6 91       		.byte	0x91
 8569 13d7 70       		.sleb128 -16
 8570 13d8 00       		.byte	0
 8571 13d9 1A       		.uleb128 0x1a
 8572 13da 11020000 		.4byte	.LASF186
 8573 13de 01       		.byte	0x1
 8574 13df D60A     		.2byte	0xad6
 8575 13e1 A9030000 		.4byte	0x3a9
 8576 13e5 C0230000 		.4byte	.LFB148
 8577 13e9 C8000000 		.4byte	.LFE148-.LFB148
 8578 13ed 01       		.uleb128 0x1
 8579 13ee 9C       		.byte	0x9c
 8580 13ef 12140000 		.4byte	0x1412
 8581 13f3 1B       		.uleb128 0x1b
 8582 13f4 0D0A0000 		.4byte	.LASF141
ARM GAS  /tmp/ccrsTBIG.s 			page 152


 8583 13f8 01       		.byte	0x1
 8584 13f9 D60A     		.2byte	0xad6
 8585 13fb 2C090000 		.4byte	0x92c
 8586 13ff 02       		.uleb128 0x2
 8587 1400 91       		.byte	0x91
 8588 1401 6C       		.sleb128 -20
 8589 1402 1C       		.uleb128 0x1c
 8590 1403 3E080000 		.4byte	.LASF149
 8591 1407 01       		.byte	0x1
 8592 1408 D80A     		.2byte	0xad8
 8593 140a A2000000 		.4byte	0xa2
 8594 140e 02       		.uleb128 0x2
 8595 140f 91       		.byte	0x91
 8596 1410 74       		.sleb128 -12
 8597 1411 00       		.byte	0
 8598 1412 1A       		.uleb128 0x1a
 8599 1413 3D010000 		.4byte	.LASF187
 8600 1417 01       		.byte	0x1
 8601 1418 150B     		.2byte	0xb15
 8602 141a A9030000 		.4byte	0x3a9
 8603 141e 90240000 		.4byte	.LFB149
 8604 1422 BC000000 		.4byte	.LFE149-.LFB149
 8605 1426 01       		.uleb128 0x1
 8606 1427 9C       		.byte	0x9c
 8607 1428 4B140000 		.4byte	0x144b
 8608 142c 1B       		.uleb128 0x1b
 8609 142d 0D0A0000 		.4byte	.LASF141
 8610 1431 01       		.byte	0x1
 8611 1432 150B     		.2byte	0xb15
 8612 1434 2C090000 		.4byte	0x92c
 8613 1438 02       		.uleb128 0x2
 8614 1439 91       		.byte	0x91
 8615 143a 6C       		.sleb128 -20
 8616 143b 1C       		.uleb128 0x1c
 8617 143c 3E080000 		.4byte	.LASF149
 8618 1440 01       		.byte	0x1
 8619 1441 170B     		.2byte	0xb17
 8620 1443 A2000000 		.4byte	0xa2
 8621 1447 02       		.uleb128 0x2
 8622 1448 91       		.byte	0x91
 8623 1449 74       		.sleb128 -12
 8624 144a 00       		.byte	0
 8625 144b 24       		.uleb128 0x24
 8626 144c 89050000 		.4byte	.LASF188
 8627 1450 01       		.byte	0x1
 8628 1451 4B0B     		.2byte	0xb4b
 8629 1453 50250000 		.4byte	.LFB150
 8630 1457 C6000000 		.4byte	.LFE150-.LFB150
 8631 145b 01       		.uleb128 0x1
 8632 145c 9C       		.byte	0x9c
 8633 145d 80140000 		.4byte	0x1480
 8634 1461 1B       		.uleb128 0x1b
 8635 1462 E0050000 		.4byte	.LASF189
 8636 1466 01       		.byte	0x1
 8637 1467 4B0B     		.2byte	0xb4b
 8638 1469 44050000 		.4byte	0x544
 8639 146d 02       		.uleb128 0x2
ARM GAS  /tmp/ccrsTBIG.s 			page 153


 8640 146e 91       		.byte	0x91
 8641 146f 6C       		.sleb128 -20
 8642 1470 1C       		.uleb128 0x1c
 8643 1471 0D0A0000 		.4byte	.LASF141
 8644 1475 01       		.byte	0x1
 8645 1476 4E0B     		.2byte	0xb4e
 8646 1478 2C090000 		.4byte	0x92c
 8647 147c 02       		.uleb128 0x2
 8648 147d 91       		.byte	0x91
 8649 147e 74       		.sleb128 -12
 8650 147f 00       		.byte	0
 8651 1480 24       		.uleb128 0x24
 8652 1481 CD070000 		.4byte	.LASF190
 8653 1485 01       		.byte	0x1
 8654 1486 8C0B     		.2byte	0xb8c
 8655 1488 20260000 		.4byte	.LFB151
 8656 148c 18000000 		.4byte	.LFE151-.LFB151
 8657 1490 01       		.uleb128 0x1
 8658 1491 9C       		.byte	0x9c
 8659 1492 B5140000 		.4byte	0x14b5
 8660 1496 1B       		.uleb128 0x1b
 8661 1497 E0050000 		.4byte	.LASF189
 8662 149b 01       		.byte	0x1
 8663 149c 8C0B     		.2byte	0xb8c
 8664 149e 44050000 		.4byte	0x544
 8665 14a2 02       		.uleb128 0x2
 8666 14a3 91       		.byte	0x91
 8667 14a4 6C       		.sleb128 -20
 8668 14a5 1C       		.uleb128 0x1c
 8669 14a6 0D0A0000 		.4byte	.LASF141
 8670 14aa 01       		.byte	0x1
 8671 14ab 8F0B     		.2byte	0xb8f
 8672 14ad 2C090000 		.4byte	0x92c
 8673 14b1 02       		.uleb128 0x2
 8674 14b2 91       		.byte	0x91
 8675 14b3 74       		.sleb128 -12
 8676 14b4 00       		.byte	0
 8677 14b5 24       		.uleb128 0x24
 8678 14b6 89020000 		.4byte	.LASF191
 8679 14ba 01       		.byte	0x1
 8680 14bb 9A0B     		.2byte	0xb9a
 8681 14bd 40260000 		.4byte	.LFB152
 8682 14c1 30000000 		.4byte	.LFE152-.LFB152
 8683 14c5 01       		.uleb128 0x1
 8684 14c6 9C       		.byte	0x9c
 8685 14c7 EA140000 		.4byte	0x14ea
 8686 14cb 1B       		.uleb128 0x1b
 8687 14cc E0050000 		.4byte	.LASF189
 8688 14d0 01       		.byte	0x1
 8689 14d1 9A0B     		.2byte	0xb9a
 8690 14d3 44050000 		.4byte	0x544
 8691 14d7 02       		.uleb128 0x2
 8692 14d8 91       		.byte	0x91
 8693 14d9 6C       		.sleb128 -20
 8694 14da 1C       		.uleb128 0x1c
 8695 14db 0D0A0000 		.4byte	.LASF141
 8696 14df 01       		.byte	0x1
ARM GAS  /tmp/ccrsTBIG.s 			page 154


 8697 14e0 9D0B     		.2byte	0xb9d
 8698 14e2 2C090000 		.4byte	0x92c
 8699 14e6 02       		.uleb128 0x2
 8700 14e7 91       		.byte	0x91
 8701 14e8 74       		.sleb128 -12
 8702 14e9 00       		.byte	0
 8703 14ea 25       		.uleb128 0x25
 8704 14eb 94010000 		.4byte	.LASF192
 8705 14ef 0B       		.byte	0xb
 8706 14f0 FA06     		.2byte	0x6fa
 8707 14f2 F6140000 		.4byte	0x14f6
 8708 14f6 05       		.uleb128 0x5
 8709 14f7 97000000 		.4byte	0x97
 8710 14fb 26       		.uleb128 0x26
 8711 14fc 32040000 		.4byte	.LASF193
 8712 1500 0C       		.byte	0xc
 8713 1501 4C       		.byte	0x4c
 8714 1502 A2000000 		.4byte	0xa2
 8715 1506 00       		.byte	0
 8716              		.section	.debug_abbrev,"",%progbits
 8717              	.Ldebug_abbrev0:
 8718 0000 01       		.uleb128 0x1
 8719 0001 11       		.uleb128 0x11
 8720 0002 01       		.byte	0x1
 8721 0003 25       		.uleb128 0x25
 8722 0004 0E       		.uleb128 0xe
 8723 0005 13       		.uleb128 0x13
 8724 0006 0B       		.uleb128 0xb
 8725 0007 03       		.uleb128 0x3
 8726 0008 0E       		.uleb128 0xe
 8727 0009 1B       		.uleb128 0x1b
 8728 000a 0E       		.uleb128 0xe
 8729 000b 11       		.uleb128 0x11
 8730 000c 01       		.uleb128 0x1
 8731 000d 12       		.uleb128 0x12
 8732 000e 06       		.uleb128 0x6
 8733 000f 10       		.uleb128 0x10
 8734 0010 17       		.uleb128 0x17
 8735 0011 00       		.byte	0
 8736 0012 00       		.byte	0
 8737 0013 02       		.uleb128 0x2
 8738 0014 24       		.uleb128 0x24
 8739 0015 00       		.byte	0
 8740 0016 0B       		.uleb128 0xb
 8741 0017 0B       		.uleb128 0xb
 8742 0018 3E       		.uleb128 0x3e
 8743 0019 0B       		.uleb128 0xb
 8744 001a 03       		.uleb128 0x3
 8745 001b 0E       		.uleb128 0xe
 8746 001c 00       		.byte	0
 8747 001d 00       		.byte	0
 8748 001e 03       		.uleb128 0x3
 8749 001f 16       		.uleb128 0x16
 8750 0020 00       		.byte	0
 8751 0021 03       		.uleb128 0x3
 8752 0022 0E       		.uleb128 0xe
 8753 0023 3A       		.uleb128 0x3a
ARM GAS  /tmp/ccrsTBIG.s 			page 155


 8754 0024 0B       		.uleb128 0xb
 8755 0025 3B       		.uleb128 0x3b
 8756 0026 0B       		.uleb128 0xb
 8757 0027 49       		.uleb128 0x49
 8758 0028 13       		.uleb128 0x13
 8759 0029 00       		.byte	0
 8760 002a 00       		.byte	0
 8761 002b 04       		.uleb128 0x4
 8762 002c 24       		.uleb128 0x24
 8763 002d 00       		.byte	0
 8764 002e 0B       		.uleb128 0xb
 8765 002f 0B       		.uleb128 0xb
 8766 0030 3E       		.uleb128 0x3e
 8767 0031 0B       		.uleb128 0xb
 8768 0032 03       		.uleb128 0x3
 8769 0033 08       		.uleb128 0x8
 8770 0034 00       		.byte	0
 8771 0035 00       		.byte	0
 8772 0036 05       		.uleb128 0x5
 8773 0037 35       		.uleb128 0x35
 8774 0038 00       		.byte	0
 8775 0039 49       		.uleb128 0x49
 8776 003a 13       		.uleb128 0x13
 8777 003b 00       		.byte	0
 8778 003c 00       		.byte	0
 8779 003d 06       		.uleb128 0x6
 8780 003e 01       		.uleb128 0x1
 8781 003f 01       		.byte	0x1
 8782 0040 49       		.uleb128 0x49
 8783 0041 13       		.uleb128 0x13
 8784 0042 01       		.uleb128 0x1
 8785 0043 13       		.uleb128 0x13
 8786 0044 00       		.byte	0
 8787 0045 00       		.byte	0
 8788 0046 07       		.uleb128 0x7
 8789 0047 21       		.uleb128 0x21
 8790 0048 00       		.byte	0
 8791 0049 49       		.uleb128 0x49
 8792 004a 13       		.uleb128 0x13
 8793 004b 2F       		.uleb128 0x2f
 8794 004c 0B       		.uleb128 0xb
 8795 004d 00       		.byte	0
 8796 004e 00       		.byte	0
 8797 004f 08       		.uleb128 0x8
 8798 0050 13       		.uleb128 0x13
 8799 0051 01       		.byte	0x1
 8800 0052 0B       		.uleb128 0xb
 8801 0053 0B       		.uleb128 0xb
 8802 0054 3A       		.uleb128 0x3a
 8803 0055 0B       		.uleb128 0xb
 8804 0056 3B       		.uleb128 0x3b
 8805 0057 0B       		.uleb128 0xb
 8806 0058 01       		.uleb128 0x1
 8807 0059 13       		.uleb128 0x13
 8808 005a 00       		.byte	0
 8809 005b 00       		.byte	0
 8810 005c 09       		.uleb128 0x9
ARM GAS  /tmp/ccrsTBIG.s 			page 156


 8811 005d 0D       		.uleb128 0xd
 8812 005e 00       		.byte	0
 8813 005f 03       		.uleb128 0x3
 8814 0060 08       		.uleb128 0x8
 8815 0061 3A       		.uleb128 0x3a
 8816 0062 0B       		.uleb128 0xb
 8817 0063 3B       		.uleb128 0x3b
 8818 0064 0B       		.uleb128 0xb
 8819 0065 49       		.uleb128 0x49
 8820 0066 13       		.uleb128 0x13
 8821 0067 38       		.uleb128 0x38
 8822 0068 0B       		.uleb128 0xb
 8823 0069 00       		.byte	0
 8824 006a 00       		.byte	0
 8825 006b 0A       		.uleb128 0xa
 8826 006c 0D       		.uleb128 0xd
 8827 006d 00       		.byte	0
 8828 006e 03       		.uleb128 0x3
 8829 006f 0E       		.uleb128 0xe
 8830 0070 3A       		.uleb128 0x3a
 8831 0071 0B       		.uleb128 0xb
 8832 0072 3B       		.uleb128 0x3b
 8833 0073 0B       		.uleb128 0xb
 8834 0074 49       		.uleb128 0x49
 8835 0075 13       		.uleb128 0x13
 8836 0076 38       		.uleb128 0x38
 8837 0077 0B       		.uleb128 0xb
 8838 0078 00       		.byte	0
 8839 0079 00       		.byte	0
 8840 007a 0B       		.uleb128 0xb
 8841 007b 13       		.uleb128 0x13
 8842 007c 01       		.byte	0x1
 8843 007d 0B       		.uleb128 0xb
 8844 007e 0B       		.uleb128 0xb
 8845 007f 3A       		.uleb128 0x3a
 8846 0080 0B       		.uleb128 0xb
 8847 0081 3B       		.uleb128 0x3b
 8848 0082 05       		.uleb128 0x5
 8849 0083 01       		.uleb128 0x1
 8850 0084 13       		.uleb128 0x13
 8851 0085 00       		.byte	0
 8852 0086 00       		.byte	0
 8853 0087 0C       		.uleb128 0xc
 8854 0088 0D       		.uleb128 0xd
 8855 0089 00       		.byte	0
 8856 008a 03       		.uleb128 0x3
 8857 008b 08       		.uleb128 0x8
 8858 008c 3A       		.uleb128 0x3a
 8859 008d 0B       		.uleb128 0xb
 8860 008e 3B       		.uleb128 0x3b
 8861 008f 05       		.uleb128 0x5
 8862 0090 49       		.uleb128 0x49
 8863 0091 13       		.uleb128 0x13
 8864 0092 38       		.uleb128 0x38
 8865 0093 0B       		.uleb128 0xb
 8866 0094 00       		.byte	0
 8867 0095 00       		.byte	0
ARM GAS  /tmp/ccrsTBIG.s 			page 157


 8868 0096 0D       		.uleb128 0xd
 8869 0097 0D       		.uleb128 0xd
 8870 0098 00       		.byte	0
 8871 0099 03       		.uleb128 0x3
 8872 009a 0E       		.uleb128 0xe
 8873 009b 3A       		.uleb128 0x3a
 8874 009c 0B       		.uleb128 0xb
 8875 009d 3B       		.uleb128 0x3b
 8876 009e 05       		.uleb128 0x5
 8877 009f 49       		.uleb128 0x49
 8878 00a0 13       		.uleb128 0x13
 8879 00a1 38       		.uleb128 0x38
 8880 00a2 0B       		.uleb128 0xb
 8881 00a3 00       		.byte	0
 8882 00a4 00       		.byte	0
 8883 00a5 0E       		.uleb128 0xe
 8884 00a6 16       		.uleb128 0x16
 8885 00a7 00       		.byte	0
 8886 00a8 03       		.uleb128 0x3
 8887 00a9 0E       		.uleb128 0xe
 8888 00aa 3A       		.uleb128 0x3a
 8889 00ab 0B       		.uleb128 0xb
 8890 00ac 3B       		.uleb128 0x3b
 8891 00ad 05       		.uleb128 0x5
 8892 00ae 49       		.uleb128 0x49
 8893 00af 13       		.uleb128 0x13
 8894 00b0 00       		.byte	0
 8895 00b1 00       		.byte	0
 8896 00b2 0F       		.uleb128 0xf
 8897 00b3 04       		.uleb128 0x4
 8898 00b4 01       		.byte	0x1
 8899 00b5 0B       		.uleb128 0xb
 8900 00b6 0B       		.uleb128 0xb
 8901 00b7 3A       		.uleb128 0x3a
 8902 00b8 0B       		.uleb128 0xb
 8903 00b9 3B       		.uleb128 0x3b
 8904 00ba 0B       		.uleb128 0xb
 8905 00bb 01       		.uleb128 0x1
 8906 00bc 13       		.uleb128 0x13
 8907 00bd 00       		.byte	0
 8908 00be 00       		.byte	0
 8909 00bf 10       		.uleb128 0x10
 8910 00c0 28       		.uleb128 0x28
 8911 00c1 00       		.byte	0
 8912 00c2 03       		.uleb128 0x3
 8913 00c3 0E       		.uleb128 0xe
 8914 00c4 1C       		.uleb128 0x1c
 8915 00c5 0D       		.uleb128 0xd
 8916 00c6 00       		.byte	0
 8917 00c7 00       		.byte	0
 8918 00c8 11       		.uleb128 0x11
 8919 00c9 28       		.uleb128 0x28
 8920 00ca 00       		.byte	0
 8921 00cb 03       		.uleb128 0x3
 8922 00cc 08       		.uleb128 0x8
 8923 00cd 1C       		.uleb128 0x1c
 8924 00ce 0D       		.uleb128 0xd
ARM GAS  /tmp/ccrsTBIG.s 			page 158


 8925 00cf 00       		.byte	0
 8926 00d0 00       		.byte	0
 8927 00d1 12       		.uleb128 0x12
 8928 00d2 0F       		.uleb128 0xf
 8929 00d3 00       		.byte	0
 8930 00d4 0B       		.uleb128 0xb
 8931 00d5 0B       		.uleb128 0xb
 8932 00d6 00       		.byte	0
 8933 00d7 00       		.byte	0
 8934 00d8 13       		.uleb128 0x13
 8935 00d9 13       		.uleb128 0x13
 8936 00da 01       		.byte	0x1
 8937 00db 03       		.uleb128 0x3
 8938 00dc 0E       		.uleb128 0xe
 8939 00dd 0B       		.uleb128 0xb
 8940 00de 0B       		.uleb128 0xb
 8941 00df 3A       		.uleb128 0x3a
 8942 00e0 0B       		.uleb128 0xb
 8943 00e1 3B       		.uleb128 0x3b
 8944 00e2 0B       		.uleb128 0xb
 8945 00e3 01       		.uleb128 0x1
 8946 00e4 13       		.uleb128 0x13
 8947 00e5 00       		.byte	0
 8948 00e6 00       		.byte	0
 8949 00e7 14       		.uleb128 0x14
 8950 00e8 0F       		.uleb128 0xf
 8951 00e9 00       		.byte	0
 8952 00ea 0B       		.uleb128 0xb
 8953 00eb 0B       		.uleb128 0xb
 8954 00ec 49       		.uleb128 0x49
 8955 00ed 13       		.uleb128 0x13
 8956 00ee 00       		.byte	0
 8957 00ef 00       		.byte	0
 8958 00f0 15       		.uleb128 0x15
 8959 00f1 15       		.uleb128 0x15
 8960 00f2 01       		.byte	0x1
 8961 00f3 27       		.uleb128 0x27
 8962 00f4 19       		.uleb128 0x19
 8963 00f5 01       		.uleb128 0x1
 8964 00f6 13       		.uleb128 0x13
 8965 00f7 00       		.byte	0
 8966 00f8 00       		.byte	0
 8967 00f9 16       		.uleb128 0x16
 8968 00fa 05       		.uleb128 0x5
 8969 00fb 00       		.byte	0
 8970 00fc 49       		.uleb128 0x49
 8971 00fd 13       		.uleb128 0x13
 8972 00fe 00       		.byte	0
 8973 00ff 00       		.byte	0
 8974 0100 17       		.uleb128 0x17
 8975 0101 2E       		.uleb128 0x2e
 8976 0102 01       		.byte	0x1
 8977 0103 03       		.uleb128 0x3
 8978 0104 0E       		.uleb128 0xe
 8979 0105 3A       		.uleb128 0x3a
 8980 0106 0B       		.uleb128 0xb
 8981 0107 3B       		.uleb128 0x3b
ARM GAS  /tmp/ccrsTBIG.s 			page 159


 8982 0108 05       		.uleb128 0x5
 8983 0109 27       		.uleb128 0x27
 8984 010a 19       		.uleb128 0x19
 8985 010b 49       		.uleb128 0x49
 8986 010c 13       		.uleb128 0x13
 8987 010d 20       		.uleb128 0x20
 8988 010e 0B       		.uleb128 0xb
 8989 010f 01       		.uleb128 0x1
 8990 0110 13       		.uleb128 0x13
 8991 0111 00       		.byte	0
 8992 0112 00       		.byte	0
 8993 0113 18       		.uleb128 0x18
 8994 0114 05       		.uleb128 0x5
 8995 0115 00       		.byte	0
 8996 0116 03       		.uleb128 0x3
 8997 0117 0E       		.uleb128 0xe
 8998 0118 3A       		.uleb128 0x3a
 8999 0119 0B       		.uleb128 0xb
 9000 011a 3B       		.uleb128 0x3b
 9001 011b 05       		.uleb128 0x5
 9002 011c 49       		.uleb128 0x49
 9003 011d 13       		.uleb128 0x13
 9004 011e 00       		.byte	0
 9005 011f 00       		.byte	0
 9006 0120 19       		.uleb128 0x19
 9007 0121 34       		.uleb128 0x34
 9008 0122 00       		.byte	0
 9009 0123 03       		.uleb128 0x3
 9010 0124 0E       		.uleb128 0xe
 9011 0125 3A       		.uleb128 0x3a
 9012 0126 0B       		.uleb128 0xb
 9013 0127 3B       		.uleb128 0x3b
 9014 0128 05       		.uleb128 0x5
 9015 0129 49       		.uleb128 0x49
 9016 012a 13       		.uleb128 0x13
 9017 012b 00       		.byte	0
 9018 012c 00       		.byte	0
 9019 012d 1A       		.uleb128 0x1a
 9020 012e 2E       		.uleb128 0x2e
 9021 012f 01       		.byte	0x1
 9022 0130 3F       		.uleb128 0x3f
 9023 0131 19       		.uleb128 0x19
 9024 0132 03       		.uleb128 0x3
 9025 0133 0E       		.uleb128 0xe
 9026 0134 3A       		.uleb128 0x3a
 9027 0135 0B       		.uleb128 0xb
 9028 0136 3B       		.uleb128 0x3b
 9029 0137 05       		.uleb128 0x5
 9030 0138 27       		.uleb128 0x27
 9031 0139 19       		.uleb128 0x19
 9032 013a 49       		.uleb128 0x49
 9033 013b 13       		.uleb128 0x13
 9034 013c 11       		.uleb128 0x11
 9035 013d 01       		.uleb128 0x1
 9036 013e 12       		.uleb128 0x12
 9037 013f 06       		.uleb128 0x6
 9038 0140 40       		.uleb128 0x40
ARM GAS  /tmp/ccrsTBIG.s 			page 160


 9039 0141 18       		.uleb128 0x18
 9040 0142 9642     		.uleb128 0x2116
 9041 0144 19       		.uleb128 0x19
 9042 0145 01       		.uleb128 0x1
 9043 0146 13       		.uleb128 0x13
 9044 0147 00       		.byte	0
 9045 0148 00       		.byte	0
 9046 0149 1B       		.uleb128 0x1b
 9047 014a 05       		.uleb128 0x5
 9048 014b 00       		.byte	0
 9049 014c 03       		.uleb128 0x3
 9050 014d 0E       		.uleb128 0xe
 9051 014e 3A       		.uleb128 0x3a
 9052 014f 0B       		.uleb128 0xb
 9053 0150 3B       		.uleb128 0x3b
 9054 0151 05       		.uleb128 0x5
 9055 0152 49       		.uleb128 0x49
 9056 0153 13       		.uleb128 0x13
 9057 0154 02       		.uleb128 0x2
 9058 0155 18       		.uleb128 0x18
 9059 0156 00       		.byte	0
 9060 0157 00       		.byte	0
 9061 0158 1C       		.uleb128 0x1c
 9062 0159 34       		.uleb128 0x34
 9063 015a 00       		.byte	0
 9064 015b 03       		.uleb128 0x3
 9065 015c 0E       		.uleb128 0xe
 9066 015d 3A       		.uleb128 0x3a
 9067 015e 0B       		.uleb128 0xb
 9068 015f 3B       		.uleb128 0x3b
 9069 0160 05       		.uleb128 0x5
 9070 0161 49       		.uleb128 0x49
 9071 0162 13       		.uleb128 0x13
 9072 0163 02       		.uleb128 0x2
 9073 0164 18       		.uleb128 0x18
 9074 0165 00       		.byte	0
 9075 0166 00       		.byte	0
 9076 0167 1D       		.uleb128 0x1d
 9077 0168 1D       		.uleb128 0x1d
 9078 0169 01       		.byte	0x1
 9079 016a 31       		.uleb128 0x31
 9080 016b 13       		.uleb128 0x13
 9081 016c 11       		.uleb128 0x11
 9082 016d 01       		.uleb128 0x1
 9083 016e 12       		.uleb128 0x12
 9084 016f 06       		.uleb128 0x6
 9085 0170 58       		.uleb128 0x58
 9086 0171 0B       		.uleb128 0xb
 9087 0172 59       		.uleb128 0x59
 9088 0173 05       		.uleb128 0x5
 9089 0174 01       		.uleb128 0x1
 9090 0175 13       		.uleb128 0x13
 9091 0176 00       		.byte	0
 9092 0177 00       		.byte	0
 9093 0178 1E       		.uleb128 0x1e
 9094 0179 05       		.uleb128 0x5
 9095 017a 00       		.byte	0
ARM GAS  /tmp/ccrsTBIG.s 			page 161


 9096 017b 31       		.uleb128 0x31
 9097 017c 13       		.uleb128 0x13
 9098 017d 02       		.uleb128 0x2
 9099 017e 18       		.uleb128 0x18
 9100 017f 00       		.byte	0
 9101 0180 00       		.byte	0
 9102 0181 1F       		.uleb128 0x1f
 9103 0182 0B       		.uleb128 0xb
 9104 0183 01       		.byte	0x1
 9105 0184 11       		.uleb128 0x11
 9106 0185 01       		.uleb128 0x1
 9107 0186 12       		.uleb128 0x12
 9108 0187 06       		.uleb128 0x6
 9109 0188 00       		.byte	0
 9110 0189 00       		.byte	0
 9111 018a 20       		.uleb128 0x20
 9112 018b 34       		.uleb128 0x34
 9113 018c 00       		.byte	0
 9114 018d 31       		.uleb128 0x31
 9115 018e 13       		.uleb128 0x13
 9116 018f 02       		.uleb128 0x2
 9117 0190 18       		.uleb128 0x18
 9118 0191 00       		.byte	0
 9119 0192 00       		.byte	0
 9120 0193 21       		.uleb128 0x21
 9121 0194 1D       		.uleb128 0x1d
 9122 0195 01       		.byte	0x1
 9123 0196 31       		.uleb128 0x31
 9124 0197 13       		.uleb128 0x13
 9125 0198 11       		.uleb128 0x11
 9126 0199 01       		.uleb128 0x1
 9127 019a 12       		.uleb128 0x12
 9128 019b 06       		.uleb128 0x6
 9129 019c 58       		.uleb128 0x58
 9130 019d 0B       		.uleb128 0xb
 9131 019e 59       		.uleb128 0x59
 9132 019f 05       		.uleb128 0x5
 9133 01a0 00       		.byte	0
 9134 01a1 00       		.byte	0
 9135 01a2 22       		.uleb128 0x22
 9136 01a3 2E       		.uleb128 0x2e
 9137 01a4 01       		.byte	0x1
 9138 01a5 3F       		.uleb128 0x3f
 9139 01a6 19       		.uleb128 0x19
 9140 01a7 03       		.uleb128 0x3
 9141 01a8 0E       		.uleb128 0xe
 9142 01a9 3A       		.uleb128 0x3a
 9143 01aa 0B       		.uleb128 0xb
 9144 01ab 3B       		.uleb128 0x3b
 9145 01ac 05       		.uleb128 0x5
 9146 01ad 27       		.uleb128 0x27
 9147 01ae 19       		.uleb128 0x19
 9148 01af 11       		.uleb128 0x11
 9149 01b0 01       		.uleb128 0x1
 9150 01b1 12       		.uleb128 0x12
 9151 01b2 06       		.uleb128 0x6
 9152 01b3 40       		.uleb128 0x40
ARM GAS  /tmp/ccrsTBIG.s 			page 162


 9153 01b4 18       		.uleb128 0x18
 9154 01b5 9742     		.uleb128 0x2117
 9155 01b7 19       		.uleb128 0x19
 9156 01b8 01       		.uleb128 0x1
 9157 01b9 13       		.uleb128 0x13
 9158 01ba 00       		.byte	0
 9159 01bb 00       		.byte	0
 9160 01bc 23       		.uleb128 0x23
 9161 01bd 2E       		.uleb128 0x2e
 9162 01be 01       		.byte	0x1
 9163 01bf 3F       		.uleb128 0x3f
 9164 01c0 19       		.uleb128 0x19
 9165 01c1 03       		.uleb128 0x3
 9166 01c2 0E       		.uleb128 0xe
 9167 01c3 3A       		.uleb128 0x3a
 9168 01c4 0B       		.uleb128 0xb
 9169 01c5 3B       		.uleb128 0x3b
 9170 01c6 05       		.uleb128 0x5
 9171 01c7 27       		.uleb128 0x27
 9172 01c8 19       		.uleb128 0x19
 9173 01c9 49       		.uleb128 0x49
 9174 01ca 13       		.uleb128 0x13
 9175 01cb 11       		.uleb128 0x11
 9176 01cc 01       		.uleb128 0x1
 9177 01cd 12       		.uleb128 0x12
 9178 01ce 06       		.uleb128 0x6
 9179 01cf 40       		.uleb128 0x40
 9180 01d0 18       		.uleb128 0x18
 9181 01d1 9742     		.uleb128 0x2117
 9182 01d3 19       		.uleb128 0x19
 9183 01d4 01       		.uleb128 0x1
 9184 01d5 13       		.uleb128 0x13
 9185 01d6 00       		.byte	0
 9186 01d7 00       		.byte	0
 9187 01d8 24       		.uleb128 0x24
 9188 01d9 2E       		.uleb128 0x2e
 9189 01da 01       		.byte	0x1
 9190 01db 3F       		.uleb128 0x3f
 9191 01dc 19       		.uleb128 0x19
 9192 01dd 03       		.uleb128 0x3
 9193 01de 0E       		.uleb128 0xe
 9194 01df 3A       		.uleb128 0x3a
 9195 01e0 0B       		.uleb128 0xb
 9196 01e1 3B       		.uleb128 0x3b
 9197 01e2 05       		.uleb128 0x5
 9198 01e3 27       		.uleb128 0x27
 9199 01e4 19       		.uleb128 0x19
 9200 01e5 11       		.uleb128 0x11
 9201 01e6 01       		.uleb128 0x1
 9202 01e7 12       		.uleb128 0x12
 9203 01e8 06       		.uleb128 0x6
 9204 01e9 40       		.uleb128 0x40
 9205 01ea 18       		.uleb128 0x18
 9206 01eb 9642     		.uleb128 0x2116
 9207 01ed 19       		.uleb128 0x19
 9208 01ee 01       		.uleb128 0x1
 9209 01ef 13       		.uleb128 0x13
ARM GAS  /tmp/ccrsTBIG.s 			page 163


 9210 01f0 00       		.byte	0
 9211 01f1 00       		.byte	0
 9212 01f2 25       		.uleb128 0x25
 9213 01f3 34       		.uleb128 0x34
 9214 01f4 00       		.byte	0
 9215 01f5 03       		.uleb128 0x3
 9216 01f6 0E       		.uleb128 0xe
 9217 01f7 3A       		.uleb128 0x3a
 9218 01f8 0B       		.uleb128 0xb
 9219 01f9 3B       		.uleb128 0x3b
 9220 01fa 05       		.uleb128 0x5
 9221 01fb 49       		.uleb128 0x49
 9222 01fc 13       		.uleb128 0x13
 9223 01fd 3F       		.uleb128 0x3f
 9224 01fe 19       		.uleb128 0x19
 9225 01ff 3C       		.uleb128 0x3c
 9226 0200 19       		.uleb128 0x19
 9227 0201 00       		.byte	0
 9228 0202 00       		.byte	0
 9229 0203 26       		.uleb128 0x26
 9230 0204 34       		.uleb128 0x34
 9231 0205 00       		.byte	0
 9232 0206 03       		.uleb128 0x3
 9233 0207 0E       		.uleb128 0xe
 9234 0208 3A       		.uleb128 0x3a
 9235 0209 0B       		.uleb128 0xb
 9236 020a 3B       		.uleb128 0x3b
 9237 020b 0B       		.uleb128 0xb
 9238 020c 49       		.uleb128 0x49
 9239 020d 13       		.uleb128 0x13
 9240 020e 3F       		.uleb128 0x3f
 9241 020f 19       		.uleb128 0x19
 9242 0210 3C       		.uleb128 0x3c
 9243 0211 19       		.uleb128 0x19
 9244 0212 00       		.byte	0
 9245 0213 00       		.byte	0
 9246 0214 00       		.byte	0
 9247              		.section	.debug_aranges,"",%progbits
 9248 0000 1C000000 		.4byte	0x1c
 9249 0004 0200     		.2byte	0x2
 9250 0006 00000000 		.4byte	.Ldebug_info0
 9251 000a 04       		.byte	0x4
 9252 000b 00       		.byte	0
 9253 000c 0000     		.2byte	0
 9254 000e 0000     		.2byte	0
 9255 0010 00000000 		.4byte	.Ltext0
 9256 0014 70260000 		.4byte	.Letext0-.Ltext0
 9257 0018 00000000 		.4byte	0
 9258 001c 00000000 		.4byte	0
 9259              		.section	.debug_line,"",%progbits
 9260              	.Ldebug_line0:
 9261 0000 450C0000 		.section	.debug_str,"MS",%progbits,1
 9261      02009E02 
 9261      00000201 
 9261      FB0E0D00 
 9261      01010101 
 9262              	.LASF30:
ARM GAS  /tmp/ccrsTBIG.s 			page 164


 9263 0000 4F465231 		.ascii	"OFR1\000"
 9263      00
 9264              	.LASF31:
 9265 0005 4F465232 		.ascii	"OFR2\000"
 9265      00
 9266              	.LASF41:
 9267 000a 41574433 		.ascii	"AWD3CR\000"
 9267      435200
 9268              	.LASF33:
 9269 0011 4F465234 		.ascii	"OFR4\000"
 9269      00
 9270              	.LASF109:
 9271 0016 57617463 		.ascii	"WatchdogNumber\000"
 9271      68646F67 
 9271      4E756D62 
 9271      657200
 9272              	.LASF185:
 9273 0025 436F6E76 		.ascii	"Conversion_Timeout_CPU_cycles\000"
 9273      65727369 
 9273      6F6E5F54 
 9273      696D656F 
 9273      75745F43 
 9274              	.LASF82:
 9275 0043 496E6974 		.ascii	"Init\000"
 9275      00
 9276              	.LASF194:
 9277 0048 474E5520 		.ascii	"GNU C 4.8.4 20140526 (release) [ARM/embedded-4_8-br"
 9277      4320342E 
 9277      382E3420 
 9277      32303134 
 9277      30353236 
 9278 007b 616E6368 		.ascii	"anch revision 211358] -mcpu=cortex-m4 -mno-thumb-in"
 9278      20726576 
 9278      6973696F 
 9278      6E203231 
 9278      31333538 
 9279 00ae 74657277 		.ascii	"terwork -mthumb -ggdb -O0 -std=c99 -fomit-frame-poi"
 9279      6F726B20 
 9279      2D6D7468 
 9279      756D6220 
 9279      2D676764 
 9280 00e1 6E746572 		.ascii	"nter -falign-functions=16\000"
 9280      202D6661 
 9280      6C69676E 
 9280      2D66756E 
 9280      6374696F 
 9281              	.LASF75:
 9282 00fb 444D415F 		.ascii	"DMA_InitTypeDef\000"
 9282      496E6974 
 9282      54797065 
 9282      44656600 
 9283              	.LASF0:
 9284 010b 7369676E 		.ascii	"signed char\000"
 9284      65642063 
 9284      68617200 
 9285              	.LASF4:
 9286 0117 5F5F7569 		.ascii	"__uint8_t\000"
ARM GAS  /tmp/ccrsTBIG.s 			page 165


 9286      6E74385F 
 9286      7400
 9287              	.LASF162:
 9288 0121 48414C5F 		.ascii	"HAL_ADC_IRQHandler\000"
 9288      4144435F 
 9288      49525148 
 9288      616E646C 
 9288      657200
 9289              	.LASF61:
 9290 0134 48414C5F 		.ascii	"HAL_BUSY\000"
 9290      42555359 
 9290      00
 9291              	.LASF187:
 9292 013d 4144435F 		.ascii	"ADC_Disable\000"
 9292      44697361 
 9292      626C6500 
 9293              	.LASF137:
 9294 0149 746D7043 		.ascii	"tmpCFGR\000"
 9294      46475200 
 9295              	.LASF81:
 9296 0151 496E7374 		.ascii	"Instance\000"
 9296      616E6365 
 9296      00
 9297              	.LASF56:
 9298 015a 44495341 		.ascii	"DISABLE\000"
 9298      424C4500 
 9299              	.LASF10:
 9300 0162 6C6F6E67 		.ascii	"long long unsigned int\000"
 9300      206C6F6E 
 9300      6720756E 
 9300      7369676E 
 9300      65642069 
 9301              	.LASF117:
 9302 0179 44617461 		.ascii	"DataAlign\000"
 9302      416C6967 
 9302      6E00
 9303              	.LASF125:
 9304 0183 45787465 		.ascii	"ExternalTrigConv\000"
 9304      726E616C 
 9304      54726967 
 9304      436F6E76 
 9304      00
 9305              	.LASF192:
 9306 0194 49544D5F 		.ascii	"ITM_RxBuffer\000"
 9306      52784275 
 9306      66666572 
 9306      00
 9307              	.LASF76:
 9308 01a1 48414C5F 		.ascii	"HAL_DMA_STATE_RESET\000"
 9308      444D415F 
 9308      53544154 
 9308      455F5245 
 9308      53455400 
 9309              	.LASF153:
 9310 01b5 48414C5F 		.ascii	"HAL_ADC_PollForEvent\000"
 9310      4144435F 
 9310      506F6C6C 
ARM GAS  /tmp/ccrsTBIG.s 			page 166


 9310      466F7245 
 9310      76656E74 
 9311              	.LASF44:
 9312 01ca 44494653 		.ascii	"DIFSEL\000"
 9312      454C00
 9313              	.LASF48:
 9314 01d1 4144435F 		.ascii	"ADC_Common_TypeDef\000"
 9314      436F6D6D 
 9314      6F6E5F54 
 9314      79706544 
 9314      656600
 9315              	.LASF28:
 9316 01e4 4A535152 		.ascii	"JSQR\000"
 9316      00
 9317              	.LASF177:
 9318 01e9 746D7041 		.ascii	"tmpAWDLowThresholdShifted\000"
 9318      57444C6F 
 9318      77546872 
 9318      6573686F 
 9318      6C645368 
 9319              	.LASF9:
 9320 0203 6C6F6E67 		.ascii	"long long int\000"
 9320      206C6F6E 
 9320      6720696E 
 9320      7400
 9321              	.LASF186:
 9322 0211 4144435F 		.ascii	"ADC_Enable\000"
 9322      456E6162 
 9322      6C6500
 9323              	.LASF87:
 9324 021c 58666572 		.ascii	"XferHalfCpltCallback\000"
 9324      48616C66 
 9324      43706C74 
 9324      43616C6C 
 9324      6261636B 
 9325              	.LASF101:
 9326 0231 4144435F 		.ascii	"ADC_InjectionConfigTypeDef\000"
 9326      496E6A65 
 9326      6374696F 
 9326      6E436F6E 
 9326      66696754 
 9327              	.LASF140:
 9328 024c 48414C5F 		.ascii	"HAL_ADC_DeInit\000"
 9328      4144435F 
 9328      4465496E 
 9328      697400
 9329              	.LASF66:
 9330 025b 48414C5F 		.ascii	"HAL_LockTypeDef\000"
 9330      4C6F636B 
 9330      54797065 
 9330      44656600 
 9331              	.LASF40:
 9332 026b 41574432 		.ascii	"AWD2CR\000"
 9332      435200
 9333              	.LASF136:
 9334 0272 746D7041 		.ascii	"tmpADC_Common\000"
 9334      44435F43 
ARM GAS  /tmp/ccrsTBIG.s 			page 167


 9334      6F6D6D6F 
 9334      6E00
 9335              	.LASF6:
 9336 0280 6C6F6E67 		.ascii	"long int\000"
 9336      20696E74 
 9336      00
 9337              	.LASF191:
 9338 0289 4144435F 		.ascii	"ADC_DMAError\000"
 9338      444D4145 
 9338      72726F72 
 9338      00
 9339              	.LASF57:
 9340 0296 454E4142 		.ascii	"ENABLE\000"
 9340      4C4500
 9341              	.LASF69:
 9342 029d 50657269 		.ascii	"PeriphInc\000"
 9342      7068496E 
 9342      6300
 9343              	.LASF122:
 9344 02a7 4E62724F 		.ascii	"NbrOfConversion\000"
 9344      66436F6E 
 9344      76657273 
 9344      696F6E00 
 9345              	.LASF96:
 9346 02b7 54726967 		.ascii	"TriggeredMode\000"
 9346      67657265 
 9346      644D6F64 
 9346      6500
 9347              	.LASF195:
 9348 02c5 2E2E2F2E 		.ascii	"../../../../../Drivers/STM32L4xx_HAL_Driver/Src/stm"
 9348      2E2F2E2E 
 9348      2F2E2E2F 
 9348      2E2E2F44 
 9348      72697665 
 9349 02f8 33326C34 		.ascii	"32l4xx_hal_adc.c\000"
 9349      78785F68 
 9349      616C5F61 
 9349      64632E63 
 9349      00
 9350              	.LASF124:
 9351 0309 4E62724F 		.ascii	"NbrOfDiscConversion\000"
 9351      66446973 
 9351      63436F6E 
 9351      76657273 
 9351      696F6E00 
 9352              	.LASF179:
 9353 031d 746D7041 		.ascii	"tmpADCITAWD2orAWD3\000"
 9353      44434954 
 9353      41574432 
 9353      6F724157 
 9353      443300
 9354              	.LASF104:
 9355 0330 53616D70 		.ascii	"SamplingTime\000"
 9355      6C696E67 
 9355      54696D65 
 9355      00
 9356              	.LASF46:
ARM GAS  /tmp/ccrsTBIG.s 			page 168


 9357 033d 4144435F 		.ascii	"ADC_TypeDef\000"
 9357      54797065 
 9357      44656600 
 9358              	.LASF120:
 9359 0349 4C6F7750 		.ascii	"LowPowerAutoWait\000"
 9359      6F776572 
 9359      4175746F 
 9359      57616974 
 9359      00
 9360              	.LASF154:
 9361 035a 4576656E 		.ascii	"EventType\000"
 9361      74547970 
 9361      6500
 9362              	.LASF119:
 9363 0364 454F4353 		.ascii	"EOCSelection\000"
 9363      656C6563 
 9363      74696F6E 
 9363      00
 9364              	.LASF92:
 9365 0371 4368616E 		.ascii	"ChannelIndex\000"
 9365      6E656C49 
 9365      6E646578 
 9365      00
 9366              	.LASF181:
 9367 037e 48414C5F 		.ascii	"HAL_ADC_GetError\000"
 9367      4144435F 
 9367      47657445 
 9367      72726F72 
 9367      00
 9368              	.LASF45:
 9369 038f 43414C46 		.ascii	"CALFACT\000"
 9369      41435400 
 9370              	.LASF198:
 9371 0397 5F5F5242 		.ascii	"__RBIT\000"
 9371      495400
 9372              	.LASF85:
 9373 039e 50617265 		.ascii	"Parent\000"
 9373      6E7400
 9374              	.LASF158:
 9375 03a5 70446174 		.ascii	"pData\000"
 9375      6100
 9376              	.LASF7:
 9377 03ab 5F5F7569 		.ascii	"__uint32_t\000"
 9377      6E743332 
 9377      5F7400
 9378              	.LASF113:
 9379 03b6 4C6F7754 		.ascii	"LowThreshold\000"
 9379      68726573 
 9379      686F6C64 
 9379      00
 9380              	.LASF148:
 9381 03c3 54696D65 		.ascii	"Timeout\000"
 9381      6F757400 
 9382              	.LASF68:
 9383 03cb 44697265 		.ascii	"Direction\000"
 9383      6374696F 
 9383      6E00
ARM GAS  /tmp/ccrsTBIG.s 			page 169


 9384              	.LASF118:
 9385 03d5 5363616E 		.ascii	"ScanConvMode\000"
 9385      436F6E76 
 9385      4D6F6465 
 9385      00
 9386              	.LASF144:
 9387 03e2 48414C5F 		.ascii	"HAL_ADC_Start\000"
 9387      4144435F 
 9387      53746172 
 9387      7400
 9388              	.LASF199:
 9389 03f0 76616C75 		.ascii	"value\000"
 9389      6500
 9390              	.LASF62:
 9391 03f6 48414C5F 		.ascii	"HAL_TIMEOUT\000"
 9391      54494D45 
 9391      4F555400 
 9392              	.LASF54:
 9393 0402 444D415F 		.ascii	"DMA_TypeDef\000"
 9393      54797065 
 9393      44656600 
 9394              	.LASF11:
 9395 040e 756E7369 		.ascii	"unsigned int\000"
 9395      676E6564 
 9395      20696E74 
 9395      00
 9396              	.LASF108:
 9397 041b 4144435F 		.ascii	"ADC_ChannelConfTypeDef\000"
 9397      4368616E 
 9397      6E656C43 
 9397      6F6E6654 
 9397      79706544 
 9398              	.LASF193:
 9399 0432 53797374 		.ascii	"SystemCoreClock\000"
 9399      656D436F 
 9399      7265436C 
 9399      6F636B00 
 9400              	.LASF50:
 9401 0442 43504152 		.ascii	"CPAR\000"
 9401      00
 9402              	.LASF8:
 9403 0447 6C6F6E67 		.ascii	"long unsigned int\000"
 9403      20756E73 
 9403      69676E65 
 9403      6420696E 
 9403      7400
 9404              	.LASF17:
 9405 0459 43464752 		.ascii	"CFGR2\000"
 9405      3200
 9406              	.LASF59:
 9407 045f 48414C5F 		.ascii	"HAL_OK\000"
 9407      4F4B00
 9408              	.LASF94:
 9409 0466 52617469 		.ascii	"Ratio\000"
 9409      6F00
 9410              	.LASF155:
 9411 046c 48414C5F 		.ascii	"HAL_ADC_Start_IT\000"
ARM GAS  /tmp/ccrsTBIG.s 			page 170


 9411      4144435F 
 9411      53746172 
 9411      745F4954 
 9411      00
 9412              	.LASF3:
 9413 047d 73686F72 		.ascii	"short unsigned int\000"
 9413      7420756E 
 9413      7369676E 
 9413      65642069 
 9413      6E7400
 9414              	.LASF74:
 9415 0490 5072696F 		.ascii	"Priority\000"
 9415      72697479 
 9415      00
 9416              	.LASF150:
 9417 0499 746D705F 		.ascii	"tmp_Flag_End\000"
 9417      466C6167 
 9417      5F456E64 
 9417      00
 9418              	.LASF115:
 9419 04a6 436C6F63 		.ascii	"ClockPrescaler\000"
 9419      6B507265 
 9419      7363616C 
 9419      657200
 9420              	.LASF91:
 9421 04b5 446D6142 		.ascii	"DmaBaseAddress\000"
 9421      61736541 
 9421      64647265 
 9421      737300
 9422              	.LASF90:
 9423 04c4 4572726F 		.ascii	"ErrorCode\000"
 9423      72436F64 
 9423      6500
 9424              	.LASF166:
 9425 04ce 746D705F 		.ascii	"tmp_cfgr_jqm\000"
 9425      63666772 
 9425      5F6A716D 
 9425      00
 9426              	.LASF180:
 9427 04db 48414C5F 		.ascii	"HAL_ADC_GetState\000"
 9427      4144435F 
 9427      47657453 
 9427      74617465 
 9427      00
 9428              	.LASF72:
 9429 04ec 4D656D44 		.ascii	"MemDataAlignment\000"
 9429      61746141 
 9429      6C69676E 
 9429      6D656E74 
 9429      00
 9430              	.LASF83:
 9431 04fd 4C6F636B 		.ascii	"Lock\000"
 9431      00
 9432              	.LASF138:
 9433 0502 77616974 		.ascii	"wait_loop_index\000"
 9433      5F6C6F6F 
 9433      705F696E 
ARM GAS  /tmp/ccrsTBIG.s 			page 171


 9433      64657800 
 9434              	.LASF112:
 9435 0512 48696768 		.ascii	"HighThreshold\000"
 9435      54687265 
 9435      73686F6C 
 9435      6400
 9436              	.LASF110:
 9437 0520 57617463 		.ascii	"WatchdogMode\000"
 9437      68646F67 
 9437      4D6F6465 
 9437      00
 9438              	.LASF142:
 9439 052d 48414C5F 		.ascii	"HAL_ADC_MspInit\000"
 9439      4144435F 
 9439      4D737049 
 9439      6E697400 
 9440              	.LASF169:
 9441 053d 48414C5F 		.ascii	"HAL_ADC_LevelOutOfWindowCallback\000"
 9441      4144435F 
 9441      4C657665 
 9441      6C4F7574 
 9441      4F665769 
 9442              	.LASF32:
 9443 055e 4F465233 		.ascii	"OFR3\000"
 9443      00
 9444              	.LASF114:
 9445 0563 4144435F 		.ascii	"ADC_AnalogWDGConfTypeDef\000"
 9445      416E616C 
 9445      6F675744 
 9445      47436F6E 
 9445      66547970 
 9446              	.LASF146:
 9447 057c 48414C5F 		.ascii	"HAL_ADC_Stop\000"
 9447      4144435F 
 9447      53746F70 
 9447      00
 9448              	.LASF188:
 9449 0589 4144435F 		.ascii	"ADC_DMAConvCplt\000"
 9449      444D4143 
 9449      6F6E7643 
 9449      706C7400 
 9450              	.LASF175:
 9451 0599 416E616C 		.ascii	"AnalogWDGConfig\000"
 9451      6F675744 
 9451      47436F6E 
 9451      66696700 
 9452              	.LASF152:
 9453 05a9 746D705F 		.ascii	"tmp_eos_raised\000"
 9453      656F735F 
 9453      72616973 
 9453      656400
 9454              	.LASF156:
 9455 05b8 48414C5F 		.ascii	"HAL_ADC_Stop_IT\000"
 9455      4144435F 
 9455      53746F70 
 9455      5F495400 
 9456              	.LASF100:
ARM GAS  /tmp/ccrsTBIG.s 			page 172


 9457 05c8 4368616E 		.ascii	"ChannelCount\000"
 9457      6E656C43 
 9457      6F756E74 
 9457      00
 9458              	.LASF116:
 9459 05d5 5265736F 		.ascii	"Resolution\000"
 9459      6C757469 
 9459      6F6E00
 9460              	.LASF189:
 9461 05e0 68646D61 		.ascii	"hdma\000"
 9461      00
 9462              	.LASF106:
 9463 05e5 4F666673 		.ascii	"OffsetNumber\000"
 9463      65744E75 
 9463      6D626572 
 9463      00
 9464              	.LASF126:
 9465 05f2 45787465 		.ascii	"ExternalTrigConvEdge\000"
 9465      726E616C 
 9465      54726967 
 9465      436F6E76 
 9465      45646765 
 9466              	.LASF128:
 9467 0607 4F766572 		.ascii	"Overrun\000"
 9467      72756E00 
 9468              	.LASF98:
 9469 060f 4144435F 		.ascii	"ADC_OversamplingTypeDef\000"
 9469      4F766572 
 9469      73616D70 
 9469      6C696E67 
 9469      54797065 
 9470              	.LASF15:
 9471 0627 73697A65 		.ascii	"sizetype\000"
 9471      74797065 
 9471      00
 9472              	.LASF151:
 9473 0630 746D705F 		.ascii	"tmp_cfgr\000"
 9473      63666772 
 9473      00
 9474              	.LASF164:
 9475 0639 746D705F 		.ascii	"tmp_isr\000"
 9475      69737200 
 9476              	.LASF65:
 9477 0641 48414C5F 		.ascii	"HAL_LOCKED\000"
 9477      4C4F434B 
 9477      454400
 9478              	.LASF161:
 9479 064c 48414C5F 		.ascii	"HAL_ADC_GetValue\000"
 9479      4144435F 
 9479      47657456 
 9479      616C7565 
 9479      00
 9480              	.LASF36:
 9481 065d 4A445232 		.ascii	"JDR2\000"
 9481      00
 9482              	.LASF37:
 9483 0662 4A445233 		.ascii	"JDR3\000"
ARM GAS  /tmp/ccrsTBIG.s 			page 173


 9483      00
 9484              	.LASF93:
 9485 0667 444D415F 		.ascii	"DMA_HandleTypeDef\000"
 9485      48616E64 
 9485      6C655479 
 9485      70654465 
 9485      6600
 9486              	.LASF88:
 9487 0679 58666572 		.ascii	"XferErrorCallback\000"
 9487      4572726F 
 9487      7243616C 
 9487      6C626163 
 9487      6B00
 9488              	.LASF111:
 9489 068b 49544D6F 		.ascii	"ITMode\000"
 9489      646500
 9490              	.LASF18:
 9491 0692 534D5052 		.ascii	"SMPR1\000"
 9491      3100
 9492              	.LASF19:
 9493 0698 534D5052 		.ascii	"SMPR2\000"
 9493      3200
 9494              	.LASF133:
 9495 069e 496E6A65 		.ascii	"InjectionConfig\000"
 9495      6374696F 
 9495      6E436F6E 
 9495      66696700 
 9496              	.LASF168:
 9497 06ae 48414C5F 		.ascii	"HAL_ADC_ConvHalfCpltCallback\000"
 9497      4144435F 
 9497      436F6E76 
 9497      48616C66 
 9497      43706C74 
 9498              	.LASF176:
 9499 06cb 746D7041 		.ascii	"tmpAWDHighThresholdShifted\000"
 9499      57444869 
 9499      67685468 
 9499      72657368 
 9499      6F6C6453 
 9500              	.LASF173:
 9501 06e6 746D704F 		.ascii	"tmpOffsetShifted\000"
 9501      66667365 
 9501      74536869 
 9501      66746564 
 9501      00
 9502              	.LASF22:
 9503 06f7 53515231 		.ascii	"SQR1\000"
 9503      00
 9504              	.LASF23:
 9505 06fc 53515232 		.ascii	"SQR2\000"
 9505      00
 9506              	.LASF24:
 9507 0701 53515233 		.ascii	"SQR3\000"
 9507      00
 9508              	.LASF25:
 9509 0706 53515234 		.ascii	"SQR4\000"
 9509      00
ARM GAS  /tmp/ccrsTBIG.s 			page 174


 9510              	.LASF178:
 9511 070b 746D7041 		.ascii	"tmpADCFlagAWD2orAWD3\000"
 9511      4443466C 
 9511      61674157 
 9511      44326F72 
 9511      41574433 
 9512              	.LASF171:
 9513 0720 48414C5F 		.ascii	"HAL_ADC_ConfigChannel\000"
 9513      4144435F 
 9513      436F6E66 
 9513      69674368 
 9513      616E6E65 
 9514              	.LASF52:
 9515 0736 444D415F 		.ascii	"DMA_Channel_TypeDef\000"
 9515      4368616E 
 9515      6E656C5F 
 9515      54797065 
 9515      44656600 
 9516              	.LASF103:
 9517 074a 52616E6B 		.ascii	"Rank\000"
 9517      00
 9518              	.LASF184:
 9519 074f 746D705F 		.ascii	"tmp_ADC_CR_ADSTART_JADSTART\000"
 9519      4144435F 
 9519      43525F41 
 9519      44535441 
 9519      52545F4A 
 9520              	.LASF174:
 9521 076b 48414C5F 		.ascii	"HAL_ADC_AnalogWDGConfig\000"
 9521      4144435F 
 9521      416E616C 
 9521      6F675744 
 9521      47436F6E 
 9522              	.LASF26:
 9523 0783 52455345 		.ascii	"RESERVED3\000"
 9523      52564544 
 9523      3300
 9524              	.LASF27:
 9525 078d 52455345 		.ascii	"RESERVED4\000"
 9525      52564544 
 9525      3400
 9526              	.LASF29:
 9527 0797 52455345 		.ascii	"RESERVED5\000"
 9527      52564544 
 9527      3500
 9528              	.LASF34:
 9529 07a1 52455345 		.ascii	"RESERVED6\000"
 9529      52564544 
 9529      3600
 9530              	.LASF55:
 9531 07ab 52455345 		.ascii	"RESET\000"
 9531      5400
 9532              	.LASF42:
 9533 07b1 52455345 		.ascii	"RESERVED8\000"
 9533      52564544 
 9533      3800
 9534              	.LASF43:
ARM GAS  /tmp/ccrsTBIG.s 			page 175


 9535 07bb 52455345 		.ascii	"RESERVED9\000"
 9535      52564544 
 9535      3900
 9536              	.LASF102:
 9537 07c5 4368616E 		.ascii	"Channel\000"
 9537      6E656C00 
 9538              	.LASF190:
 9539 07cd 4144435F 		.ascii	"ADC_DMAHalfConvCplt\000"
 9539      444D4148 
 9539      616C6643 
 9539      6F6E7643 
 9539      706C7400 
 9540              	.LASF13:
 9541 07e1 696E7433 		.ascii	"int32_t\000"
 9541      325F7400 
 9542              	.LASF1:
 9543 07e9 756E7369 		.ascii	"unsigned char\000"
 9543      676E6564 
 9543      20636861 
 9543      7200
 9544              	.LASF130:
 9545 07f7 4F766572 		.ascii	"Oversampling\000"
 9545      73616D70 
 9545      6C696E67 
 9545      00
 9546              	.LASF80:
 9547 0804 48414C5F 		.ascii	"HAL_DMA_StateTypeDef\000"
 9547      444D415F 
 9547      53746174 
 9547      65547970 
 9547      65446566 
 9548              	.LASF2:
 9549 0819 73686F72 		.ascii	"short int\000"
 9549      7420696E 
 9549      7400
 9550              	.LASF78:
 9551 0823 48414C5F 		.ascii	"HAL_DMA_STATE_BUSY\000"
 9551      444D415F 
 9551      53544154 
 9551      455F4255 
 9551      535900
 9552              	.LASF165:
 9553 0836 746D705F 		.ascii	"tmp_ier\000"
 9553      69657200 
 9554              	.LASF149:
 9555 083e 7469636B 		.ascii	"tickstart\000"
 9555      73746172 
 9555      7400
 9556              	.LASF183:
 9557 0848 436F6E76 		.ascii	"ConversionGroup\000"
 9557      65727369 
 9557      6F6E4772 
 9557      6F757000 
 9558              	.LASF70:
 9559 0858 4D656D49 		.ascii	"MemInc\000"
 9559      6E6300
 9560              	.LASF63:
ARM GAS  /tmp/ccrsTBIG.s 			page 176


 9561 085f 48414C5F 		.ascii	"HAL_StatusTypeDef\000"
 9561      53746174 
 9561      75735479 
 9561      70654465 
 9561      6600
 9562              	.LASF147:
 9563 0871 48414C5F 		.ascii	"HAL_ADC_PollForConversion\000"
 9563      4144435F 
 9563      506F6C6C 
 9563      466F7243 
 9563      6F6E7665 
 9564              	.LASF145:
 9565 088b 746D7041 		.ascii	"tmpADC_Master\000"
 9565      44435F4D 
 9565      61737465 
 9565      7200
 9566              	.LASF20:
 9567 0899 52455345 		.ascii	"RESERVED1\000"
 9567      52564544 
 9567      3100
 9568              	.LASF167:
 9569 08a3 48414C5F 		.ascii	"HAL_ADC_ConvCpltCallback\000"
 9569      4144435F 
 9569      436F6E76 
 9569      43706C74 
 9569      43616C6C 
 9570              	.LASF21:
 9571 08bc 52455345 		.ascii	"RESERVED2\000"
 9571      52564544 
 9571      3200
 9572              	.LASF131:
 9573 08c6 4144435F 		.ascii	"ADC_InitTypeDef\000"
 9573      496E6974 
 9573      54797065 
 9573      44656600 
 9574              	.LASF182:
 9575 08d6 4144435F 		.ascii	"ADC_ConversionStop\000"
 9575      436F6E76 
 9575      65727369 
 9575      6F6E5374 
 9575      6F7000
 9576              	.LASF163:
 9577 08e9 6F766572 		.ascii	"overrun_error\000"
 9577      72756E5F 
 9577      6572726F 
 9577      7200
 9578              	.LASF60:
 9579 08f7 48414C5F 		.ascii	"HAL_ERROR\000"
 9579      4552524F 
 9579      5200
 9580              	.LASF121:
 9581 0901 436F6E74 		.ascii	"ContinuousConvMode\000"
 9581      696E756F 
 9581      7573436F 
 9581      6E764D6F 
 9581      646500
 9582              	.LASF53:
ARM GAS  /tmp/ccrsTBIG.s 			page 177


 9583 0914 49464352 		.ascii	"IFCR\000"
 9583      00
 9584              	.LASF77:
 9585 0919 48414C5F 		.ascii	"HAL_DMA_STATE_READY\000"
 9585      444D415F 
 9585      53544154 
 9585      455F5245 
 9585      41445900 
 9586              	.LASF58:
 9587 092d 63686172 		.ascii	"char\000"
 9587      00
 9588              	.LASF67:
 9589 0932 52657175 		.ascii	"Request\000"
 9589      65737400 
 9590              	.LASF84:
 9591 093a 53746174 		.ascii	"State\000"
 9591      6500
 9592              	.LASF73:
 9593 0940 4D6F6465 		.ascii	"Mode\000"
 9593      00
 9594              	.LASF135:
 9595 0945 746D705F 		.ascii	"tmp_status\000"
 9595      73746174 
 9595      757300
 9596              	.LASF143:
 9597 0950 48414C5F 		.ascii	"HAL_ADC_MspDeInit\000"
 9597      4144435F 
 9597      4D737044 
 9597      65496E69 
 9597      7400
 9598              	.LASF134:
 9599 0962 4144435F 		.ascii	"ADC_HandleTypeDef\000"
 9599      48616E64 
 9599      6C655479 
 9599      70654465 
 9599      6600
 9600              	.LASF160:
 9601 0974 48414C5F 		.ascii	"HAL_ADC_Stop_DMA\000"
 9601      4144435F 
 9601      53746F70 
 9601      5F444D41 
 9601      00
 9602              	.LASF170:
 9603 0985 48414C5F 		.ascii	"HAL_ADC_ErrorCallback\000"
 9603      4144435F 
 9603      4572726F 
 9603      7243616C 
 9603      6C626163 
 9604              	.LASF47:
 9605 099b 52455345 		.ascii	"RESERVED\000"
 9605      52564544 
 9605      00
 9606              	.LASF5:
 9607 09a4 5F5F696E 		.ascii	"__int32_t\000"
 9607      7433325F 
 9607      7400
 9608              	.LASF157:
ARM GAS  /tmp/ccrsTBIG.s 			page 178


 9609 09ae 48414C5F 		.ascii	"HAL_ADC_Start_DMA\000"
 9609      4144435F 
 9609      53746172 
 9609      745F444D 
 9609      4100
 9610              	.LASF132:
 9611 09c0 444D415F 		.ascii	"DMA_Handle\000"
 9611      48616E64 
 9611      6C6500
 9612              	.LASF197:
 9613 09cb 5F5F444D 		.ascii	"__DMA_HandleTypeDef\000"
 9613      415F4861 
 9613      6E646C65 
 9613      54797065 
 9613      44656600 
 9614              	.LASF129:
 9615 09df 4F766572 		.ascii	"OversamplingMode\000"
 9615      73616D70 
 9615      6C696E67 
 9615      4D6F6465 
 9615      00
 9616              	.LASF97:
 9617 09f0 4F766572 		.ascii	"OversamplingStopReset\000"
 9617      73616D70 
 9617      6C696E67 
 9617      53746F70 
 9617      52657365 
 9618              	.LASF159:
 9619 0a06 4C656E67 		.ascii	"Length\000"
 9619      746800
 9620              	.LASF141:
 9621 0a0d 68616463 		.ascii	"hadc\000"
 9621      00
 9622              	.LASF139:
 9623 0a12 48414C5F 		.ascii	"HAL_ADC_Init\000"
 9623      4144435F 
 9623      496E6974 
 9623      00
 9624              	.LASF71:
 9625 0a1f 50657269 		.ascii	"PeriphDataAlignment\000"
 9625      70684461 
 9625      7461416C 
 9625      69676E6D 
 9625      656E7400 
 9626              	.LASF14:
 9627 0a33 75696E74 		.ascii	"uint32_t\000"
 9627      33325F74 
 9627      00
 9628              	.LASF99:
 9629 0a3c 436F6E74 		.ascii	"ContextQueue\000"
 9629      65787451 
 9629      75657565 
 9629      00
 9630              	.LASF196:
 9631 0a49 2F752F65 		.ascii	"/u/elawton2/p442-submissions/sensortile/reference/b"
 9631      6C617774 
 9631      6F6E322F 
ARM GAS  /tmp/ccrsTBIG.s 			page 179


 9631      70343432 
 9631      2D737562 
 9632 0a7c 6C75656D 		.ascii	"luemicrosystem2/BlueMicrosystem2_V2.2.0/Projects/Mu"
 9632      6963726F 
 9632      73797374 
 9632      656D322F 
 9632      426C7565 
 9633 0aaf 6C74692F 		.ascii	"lti/Applications/BlueMicrosystem2/bluechibi\000"
 9633      4170706C 
 9633      69636174 
 9633      696F6E73 
 9633      2F426C75 
 9634              	.LASF123:
 9635 0adb 44697363 		.ascii	"DiscontinuousConvMode\000"
 9635      6F6E7469 
 9635      6E756F75 
 9635      73436F6E 
 9635      764D6F64 
 9636              	.LASF172:
 9637 0af1 73436F6E 		.ascii	"sConfig\000"
 9637      66696700 
 9638              	.LASF49:
 9639 0af9 434E4454 		.ascii	"CNDTR\000"
 9639      5200
 9640              	.LASF51:
 9641 0aff 434D4152 		.ascii	"CMAR\000"
 9641      00
 9642              	.LASF107:
 9643 0b04 4F666673 		.ascii	"Offset\000"
 9643      657400
 9644              	.LASF79:
 9645 0b0b 48414C5F 		.ascii	"HAL_DMA_STATE_TIMEOUT\000"
 9645      444D415F 
 9645      53544154 
 9645      455F5449 
 9645      4D454F55 
 9646              	.LASF12:
 9647 0b21 75696E74 		.ascii	"uint8_t\000"
 9647      385F7400 
 9648              	.LASF35:
 9649 0b29 4A445231 		.ascii	"JDR1\000"
 9649      00
 9650              	.LASF105:
 9651 0b2e 53696E67 		.ascii	"SingleDiff\000"
 9651      6C654469 
 9651      666600
 9652              	.LASF38:
 9653 0b39 4A445234 		.ascii	"JDR4\000"
 9653      00
 9654              	.LASF16:
 9655 0b3e 43464752 		.ascii	"CFGR\000"
 9655      00
 9656              	.LASF64:
 9657 0b43 48414C5F 		.ascii	"HAL_UNLOCKED\000"
 9657      554E4C4F 
 9657      434B4544 
 9657      00
ARM GAS  /tmp/ccrsTBIG.s 			page 180


 9658              	.LASF39:
 9659 0b50 52455345 		.ascii	"RESERVED7\000"
 9659      52564544 
 9659      3700
 9660              	.LASF95:
 9661 0b5a 52696768 		.ascii	"RightBitShift\000"
 9661      74426974 
 9661      53686966 
 9661      7400
 9662              	.LASF89:
 9663 0b68 58666572 		.ascii	"XferAbortCallback\000"
 9663      41626F72 
 9663      7443616C 
 9663      6C626163 
 9663      6B00
 9664              	.LASF200:
 9665 0b7a 72657375 		.ascii	"result\000"
 9665      6C7400
 9666              	.LASF86:
 9667 0b81 58666572 		.ascii	"XferCpltCallback\000"
 9667      43706C74 
 9667      43616C6C 
 9667      6261636B 
 9667      00
 9668              	.LASF127:
 9669 0b92 444D4143 		.ascii	"DMAContinuousRequests\000"
 9669      6F6E7469 
 9669      6E756F75 
 9669      73526571 
 9669      75657374 
 9670              		.ident	"GCC: (GNU Tools for ARM Embedded Processors) 4.8.4 20140526 (release) [ARM/embedded-4_8-br
ARM GAS  /tmp/ccrsTBIG.s 			page 181


DEFINED SYMBOLS
                            *ABS*:00000000 stm32l4xx_hal_adc.c
     /tmp/ccrsTBIG.s:18     .text:00000000 $t
     /tmp/ccrsTBIG.s:24     .text:00000000 HAL_ADC_Init
     /tmp/ccrsTBIG.s:1131   .text:00000740 HAL_ADC_MspInit
     /tmp/ccrsTBIG.s:335    .text:00000200 $d
     /tmp/ccrsTBIG.s:343    .text:00000218 $t
     /tmp/ccrsTBIG.s:644    .text:000003ec $d
     /tmp/ccrsTBIG.s:648    .text:000003f0 $t
     /tmp/ccrsTBIG.s:654    .text:000003f0 HAL_ADC_DeInit
     /tmp/ccrsTBIG.s:5404   .text:00002260 ADC_ConversionStop
     /tmp/ccrsTBIG.s:5771   .text:00002490 ADC_Disable
     /tmp/ccrsTBIG.s:1057   .text:000006c4 $d
     /tmp/ccrsTBIG.s:1066   .text:000006e0 $t
     /tmp/ccrsTBIG.s:1154   .text:00000750 HAL_ADC_MspDeInit
     /tmp/ccrsTBIG.s:1120   .text:0000072c $d
     /tmp/ccrsTBIG.s:1125   .text:00000734 $t
     /tmp/ccrsTBIG.s:1177   .text:00000760 HAL_ADC_Start
     /tmp/ccrsTBIG.s:5634   .text:000023c0 ADC_Enable
     /tmp/ccrsTBIG.s:1403   .text:000008e8 $d
     /tmp/ccrsTBIG.s:1409   .text:000008f4 $t
     /tmp/ccrsTBIG.s:1415   .text:00000900 HAL_ADC_Stop
     /tmp/ccrsTBIG.s:1492   .text:00000980 HAL_ADC_PollForConversion
     /tmp/ccrsTBIG.s:1795   .text:00000b68 $d
     /tmp/ccrsTBIG.s:1802   .text:00000b78 $t
     /tmp/ccrsTBIG.s:1808   .text:00000b80 HAL_ADC_PollForEvent
     /tmp/ccrsTBIG.s:2008   .text:00000cc0 HAL_ADC_Start_IT
     /tmp/ccrsTBIG.s:2367   .text:00000f34 $d
     /tmp/ccrsTBIG.s:2373   .text:00000f40 $t
     /tmp/ccrsTBIG.s:2379   .text:00000f40 HAL_ADC_Stop_IT
     /tmp/ccrsTBIG.s:2464   .text:00000fd0 HAL_ADC_Start_DMA
     /tmp/ccrsTBIG.s:2692   .text:00001158 $d
     /tmp/ccrsTBIG.s:5899   .text:00002550 ADC_DMAConvCplt
     /tmp/ccrsTBIG.s:6022   .text:00002620 ADC_DMAHalfConvCplt
     /tmp/ccrsTBIG.s:6054   .text:00002640 ADC_DMAError
     /tmp/ccrsTBIG.s:2702   .text:00001174 $t
     /tmp/ccrsTBIG.s:2708   .text:00001180 HAL_ADC_Stop_DMA
     /tmp/ccrsTBIG.s:2829   .text:00001250 HAL_ADC_GetValue
     /tmp/ccrsTBIG.s:2857   .text:00001260 HAL_ADC_IRQHandler
     /tmp/ccrsTBIG.s:3582   .text:00001750 HAL_ADC_ConvCpltCallback
     /tmp/ccrsTBIG.s:3254   .text:0000150c $d
     /tmp/ccrsTBIG.s:3258   .text:00001518 $t
     /tmp/ccrsTBIG.s:3628   .text:00001770 HAL_ADC_LevelOutOfWindowCallback
     /tmp/ccrsTBIG.s:3651   .text:00001780 HAL_ADC_ErrorCallback
     /tmp/ccrsTBIG.s:3569   .text:0000173c $d
     /tmp/ccrsTBIG.s:3576   .text:0000174c $t
     /tmp/ccrsTBIG.s:3605   .text:00001760 HAL_ADC_ConvHalfCpltCallback
     /tmp/ccrsTBIG.s:3674   .text:00001790 HAL_ADC_ConfigChannel
     /tmp/ccrsTBIG.s:4110   .text:00001a40 $d
     /tmp/ccrsTBIG.s:4114   .text:00001a50 $t
     /tmp/ccrsTBIG.s:4531   .text:00001ce4 $d
     /tmp/ccrsTBIG.s:4534   .text:00001ce8 $t
     /tmp/ccrsTBIG.s:4936   .text:00001f60 $d
     /tmp/ccrsTBIG.s:4945   .text:00001f78 $t
     /tmp/ccrsTBIG.s:4951   .text:00001f80 HAL_ADC_AnalogWDGConfig
     /tmp/ccrsTBIG.s:5350   .text:00002240 HAL_ADC_GetState
     /tmp/ccrsTBIG.s:5377   .text:00002250 HAL_ADC_GetError
ARM GAS  /tmp/ccrsTBIG.s 			page 182


     /tmp/ccrsTBIG.s:5624   .text:000023b4 $d
     /tmp/ccrsTBIG.s:5628   .text:000023b8 $t
     /tmp/ccrsTBIG.s:5761   .text:00002484 $d
     /tmp/ccrsTBIG.s:5765   .text:00002488 $t
                     .debug_frame:00000010 $d

UNDEFINED SYMBOLS
SystemCoreClock
HAL_GetTick
HAL_DMA_Start_IT
HAL_DMA_Abort
HAL_ADCEx_EndOfSamplingCallback
HAL_ADCEx_InjectedConvCpltCallback
HAL_ADCEx_LevelOutOfWindow2Callback
HAL_ADCEx_LevelOutOfWindow3Callback
HAL_ADCEx_InjectedQueueOverflowCallback
