ARM GAS  /tmp/ccUHr3Nz.s 			page 1


   1              		.syntax unified
   2              		.cpu cortex-m4
   3              		.fpu softvfp
   4              		.eabi_attribute 20, 1
   5              		.eabi_attribute 21, 1
   6              		.eabi_attribute 23, 3
   7              		.eabi_attribute 24, 1
   8              		.eabi_attribute 25, 1
   9              		.eabi_attribute 26, 1
  10              		.eabi_attribute 30, 6
  11              		.eabi_attribute 34, 1
  12              		.eabi_attribute 18, 4
  13              		.thumb
  14              		.file	"stm32l4xx_hal_gpio.c"
  15              		.text
  16              	.Ltext0:
  17              		.cfi_sections	.debug_frame
  18              		.align	2
  19              		.p2align 4,,15
  20              		.global	HAL_GPIO_Init
  21              		.thumb
  22              		.thumb_func
  23              		.type	HAL_GPIO_Init, %function
  24              	HAL_GPIO_Init:
  25              	.LFB125:
  26              		.file 1 "../../../../../Drivers/STM32L4xx_HAL_Driver/Src/stm32l4xx_hal_gpio.c"
  27              		.loc 1 192 0
  28              		.cfi_startproc
  29              		@ args = 0, pretend = 0, frame = 24
  30              		@ frame_needed = 0, uses_anonymous_args = 0
  31              		@ link register save eliminated.
  32 0000 86B0     		sub	sp, sp, #24
  33              		.cfi_def_cfa_offset 24
  34 0002 0190     		str	r0, [sp, #4]
  35 0004 0091     		str	r1, [sp]
  36              		.loc 1 193 0
  37 0006 0023     		movs	r3, #0
  38 0008 0593     		str	r3, [sp, #20]
  39              		.loc 1 194 0
  40 000a 0023     		movs	r3, #0
  41 000c 0393     		str	r3, [sp, #12]
  42              		.loc 1 195 0
  43 000e 0023     		movs	r3, #0
  44 0010 0493     		str	r3, [sp, #16]
  45              		.loc 1 204 0
  46 0012 7FE1     		b	.L2
  47              	.L27:
  48              		.loc 1 207 0
  49 0014 009B     		ldr	r3, [sp]
  50 0016 1A68     		ldr	r2, [r3]
  51 0018 059B     		ldr	r3, [sp, #20]
  52 001a 0121     		movs	r1, #1
  53 001c 01FA03F3 		lsl	r3, r1, r3
  54 0020 1340     		ands	r3, r3, r2
  55 0022 0393     		str	r3, [sp, #12]
  56              		.loc 1 209 0
  57 0024 039B     		ldr	r3, [sp, #12]
ARM GAS  /tmp/ccUHr3Nz.s 			page 2


  58 0026 002B     		cmp	r3, #0
  59 0028 00F07181 		beq	.L3
  60              		.loc 1 213 0
  61 002c 009B     		ldr	r3, [sp]
  62 002e 5B68     		ldr	r3, [r3, #4]
  63 0030 022B     		cmp	r3, #2
  64 0032 03D0     		beq	.L4
  65              		.loc 1 213 0 is_stmt 0 discriminator 1
  66 0034 009B     		ldr	r3, [sp]
  67 0036 5B68     		ldr	r3, [r3, #4]
  68 0038 122B     		cmp	r3, #18
  69 003a 23D1     		bne	.L5
  70              	.L4:
  71              		.loc 1 220 0 is_stmt 1
  72 003c 059B     		ldr	r3, [sp, #20]
  73 003e DA08     		lsrs	r2, r3, #3
  74 0040 019B     		ldr	r3, [sp, #4]
  75 0042 0832     		adds	r2, r2, #8
  76 0044 53F82230 		ldr	r3, [r3, r2, lsl #2]
  77 0048 0493     		str	r3, [sp, #16]
  78              		.loc 1 221 0
  79 004a 059B     		ldr	r3, [sp, #20]
  80 004c 03F00703 		and	r3, r3, #7
  81 0050 9B00     		lsls	r3, r3, #2
  82 0052 0F22     		movs	r2, #15
  83 0054 02FA03F3 		lsl	r3, r2, r3
  84 0058 DB43     		mvns	r3, r3
  85 005a 049A     		ldr	r2, [sp, #16]
  86 005c 1340     		ands	r3, r3, r2
  87 005e 0493     		str	r3, [sp, #16]
  88              		.loc 1 222 0
  89 0060 009B     		ldr	r3, [sp]
  90 0062 1A69     		ldr	r2, [r3, #16]
  91 0064 059B     		ldr	r3, [sp, #20]
  92 0066 03F00703 		and	r3, r3, #7
  93 006a 9B00     		lsls	r3, r3, #2
  94 006c 02FA03F3 		lsl	r3, r2, r3
  95 0070 049A     		ldr	r2, [sp, #16]
  96 0072 1343     		orrs	r3, r3, r2
  97 0074 0493     		str	r3, [sp, #16]
  98              		.loc 1 223 0
  99 0076 059B     		ldr	r3, [sp, #20]
 100 0078 DA08     		lsrs	r2, r3, #3
 101 007a 019B     		ldr	r3, [sp, #4]
 102 007c 0832     		adds	r2, r2, #8
 103 007e 0499     		ldr	r1, [sp, #16]
 104 0080 43F82210 		str	r1, [r3, r2, lsl #2]
 105              	.L5:
 106              		.loc 1 227 0
 107 0084 019B     		ldr	r3, [sp, #4]
 108 0086 1B68     		ldr	r3, [r3]
 109 0088 0493     		str	r3, [sp, #16]
 110              		.loc 1 228 0
 111 008a 059B     		ldr	r3, [sp, #20]
 112 008c 5B00     		lsls	r3, r3, #1
 113 008e 0322     		movs	r2, #3
 114 0090 02FA03F3 		lsl	r3, r2, r3
ARM GAS  /tmp/ccUHr3Nz.s 			page 3


 115 0094 DB43     		mvns	r3, r3
 116 0096 049A     		ldr	r2, [sp, #16]
 117 0098 1340     		ands	r3, r3, r2
 118 009a 0493     		str	r3, [sp, #16]
 119              		.loc 1 229 0
 120 009c 009B     		ldr	r3, [sp]
 121 009e 5B68     		ldr	r3, [r3, #4]
 122 00a0 03F00302 		and	r2, r3, #3
 123 00a4 059B     		ldr	r3, [sp, #20]
 124 00a6 5B00     		lsls	r3, r3, #1
 125 00a8 02FA03F3 		lsl	r3, r2, r3
 126 00ac 049A     		ldr	r2, [sp, #16]
 127 00ae 1343     		orrs	r3, r3, r2
 128 00b0 0493     		str	r3, [sp, #16]
 129              		.loc 1 230 0
 130 00b2 019B     		ldr	r3, [sp, #4]
 131 00b4 049A     		ldr	r2, [sp, #16]
 132 00b6 1A60     		str	r2, [r3]
 133              		.loc 1 233 0
 134 00b8 009B     		ldr	r3, [sp]
 135 00ba 5B68     		ldr	r3, [r3, #4]
 136 00bc 012B     		cmp	r3, #1
 137 00be 0BD0     		beq	.L6
 138              		.loc 1 233 0 is_stmt 0 discriminator 1
 139 00c0 009B     		ldr	r3, [sp]
 140 00c2 5B68     		ldr	r3, [r3, #4]
 141 00c4 022B     		cmp	r3, #2
 142 00c6 07D0     		beq	.L6
 143              		.loc 1 234 0 is_stmt 1 discriminator 1
 144 00c8 009B     		ldr	r3, [sp]
 145 00ca 5B68     		ldr	r3, [r3, #4]
 146              		.loc 1 233 0 discriminator 1
 147 00cc 112B     		cmp	r3, #17
 148 00ce 03D0     		beq	.L6
 149              		.loc 1 234 0
 150 00d0 009B     		ldr	r3, [sp]
 151 00d2 5B68     		ldr	r3, [r3, #4]
 152 00d4 122B     		cmp	r3, #18
 153 00d6 30D1     		bne	.L7
 154              	.L6:
 155              		.loc 1 239 0
 156 00d8 019B     		ldr	r3, [sp, #4]
 157 00da 9B68     		ldr	r3, [r3, #8]
 158 00dc 0493     		str	r3, [sp, #16]
 159              		.loc 1 240 0
 160 00de 059B     		ldr	r3, [sp, #20]
 161 00e0 5B00     		lsls	r3, r3, #1
 162 00e2 0322     		movs	r2, #3
 163 00e4 02FA03F3 		lsl	r3, r2, r3
 164 00e8 DB43     		mvns	r3, r3
 165 00ea 049A     		ldr	r2, [sp, #16]
 166 00ec 1340     		ands	r3, r3, r2
 167 00ee 0493     		str	r3, [sp, #16]
 168              		.loc 1 241 0
 169 00f0 009B     		ldr	r3, [sp]
 170 00f2 DA68     		ldr	r2, [r3, #12]
 171 00f4 059B     		ldr	r3, [sp, #20]
ARM GAS  /tmp/ccUHr3Nz.s 			page 4


 172 00f6 5B00     		lsls	r3, r3, #1
 173 00f8 02FA03F3 		lsl	r3, r2, r3
 174 00fc 049A     		ldr	r2, [sp, #16]
 175 00fe 1343     		orrs	r3, r3, r2
 176 0100 0493     		str	r3, [sp, #16]
 177              		.loc 1 242 0
 178 0102 019B     		ldr	r3, [sp, #4]
 179 0104 049A     		ldr	r2, [sp, #16]
 180 0106 9A60     		str	r2, [r3, #8]
 181              		.loc 1 245 0
 182 0108 019B     		ldr	r3, [sp, #4]
 183 010a 5B68     		ldr	r3, [r3, #4]
 184 010c 0493     		str	r3, [sp, #16]
 185              		.loc 1 246 0
 186 010e 059B     		ldr	r3, [sp, #20]
 187 0110 0122     		movs	r2, #1
 188 0112 02FA03F3 		lsl	r3, r2, r3
 189 0116 DB43     		mvns	r3, r3
 190 0118 049A     		ldr	r2, [sp, #16]
 191 011a 1340     		ands	r3, r3, r2
 192 011c 0493     		str	r3, [sp, #16]
 193              		.loc 1 247 0
 194 011e 009B     		ldr	r3, [sp]
 195 0120 5B68     		ldr	r3, [r3, #4]
 196 0122 03F01003 		and	r3, r3, #16
 197 0126 1A09     		lsrs	r2, r3, #4
 198 0128 059B     		ldr	r3, [sp, #20]
 199 012a 02FA03F3 		lsl	r3, r2, r3
 200 012e 049A     		ldr	r2, [sp, #16]
 201 0130 1343     		orrs	r3, r3, r2
 202 0132 0493     		str	r3, [sp, #16]
 203              		.loc 1 248 0
 204 0134 019B     		ldr	r3, [sp, #4]
 205 0136 049A     		ldr	r2, [sp, #16]
 206 0138 5A60     		str	r2, [r3, #4]
 207              	.L7:
 208              		.loc 1 254 0
 209 013a 009B     		ldr	r3, [sp]
 210 013c 5B68     		ldr	r3, [r3, #4]
 211 013e 03F00303 		and	r3, r3, #3
 212 0142 032B     		cmp	r3, #3
 213 0144 18D1     		bne	.L8
 214              		.loc 1 257 0
 215 0146 019B     		ldr	r3, [sp, #4]
 216 0148 DB6A     		ldr	r3, [r3, #44]
 217 014a 0493     		str	r3, [sp, #16]
 218              		.loc 1 258 0
 219 014c 059B     		ldr	r3, [sp, #20]
 220 014e 0122     		movs	r2, #1
 221 0150 02FA03F3 		lsl	r3, r2, r3
 222 0154 DB43     		mvns	r3, r3
 223 0156 049A     		ldr	r2, [sp, #16]
 224 0158 1340     		ands	r3, r3, r2
 225 015a 0493     		str	r3, [sp, #16]
 226              		.loc 1 259 0
 227 015c 009B     		ldr	r3, [sp]
 228 015e 5B68     		ldr	r3, [r3, #4]
ARM GAS  /tmp/ccUHr3Nz.s 			page 5


 229 0160 03F00803 		and	r3, r3, #8
 230 0164 DA08     		lsrs	r2, r3, #3
 231 0166 059B     		ldr	r3, [sp, #20]
 232 0168 02FA03F3 		lsl	r3, r2, r3
 233 016c 049A     		ldr	r2, [sp, #16]
 234 016e 1343     		orrs	r3, r3, r2
 235 0170 0493     		str	r3, [sp, #16]
 236              		.loc 1 260 0
 237 0172 019B     		ldr	r3, [sp, #4]
 238 0174 049A     		ldr	r2, [sp, #16]
 239 0176 DA62     		str	r2, [r3, #44]
 240              	.L8:
 241              		.loc 1 266 0
 242 0178 019B     		ldr	r3, [sp, #4]
 243 017a DB68     		ldr	r3, [r3, #12]
 244 017c 0493     		str	r3, [sp, #16]
 245              		.loc 1 267 0
 246 017e 059B     		ldr	r3, [sp, #20]
 247 0180 5B00     		lsls	r3, r3, #1
 248 0182 0322     		movs	r2, #3
 249 0184 02FA03F3 		lsl	r3, r2, r3
 250 0188 DB43     		mvns	r3, r3
 251 018a 049A     		ldr	r2, [sp, #16]
 252 018c 1340     		ands	r3, r3, r2
 253 018e 0493     		str	r3, [sp, #16]
 254              		.loc 1 268 0
 255 0190 009B     		ldr	r3, [sp]
 256 0192 9A68     		ldr	r2, [r3, #8]
 257 0194 059B     		ldr	r3, [sp, #20]
 258 0196 5B00     		lsls	r3, r3, #1
 259 0198 02FA03F3 		lsl	r3, r2, r3
 260 019c 049A     		ldr	r2, [sp, #16]
 261 019e 1343     		orrs	r3, r3, r2
 262 01a0 0493     		str	r3, [sp, #16]
 263              		.loc 1 269 0
 264 01a2 019B     		ldr	r3, [sp, #4]
 265 01a4 049A     		ldr	r2, [sp, #16]
 266 01a6 DA60     		str	r2, [r3, #12]
 267              		.loc 1 273 0
 268 01a8 009B     		ldr	r3, [sp]
 269 01aa 5B68     		ldr	r3, [r3, #4]
 270 01ac 03F08053 		and	r3, r3, #268435456
 271 01b0 002B     		cmp	r3, #0
 272 01b2 00F0AC80 		beq	.L3
 273              	.LBB2:
 274              		.loc 1 276 0
 275 01b6 5C4B     		ldr	r3, .L28
 276 01b8 5B4A     		ldr	r2, .L28
 277 01ba 126E     		ldr	r2, [r2, #96]
 278 01bc 42F00102 		orr	r2, r2, #1
 279 01c0 1A66     		str	r2, [r3, #96]
 280 01c2 594B     		ldr	r3, .L28
 281 01c4 1B6E     		ldr	r3, [r3, #96]
 282 01c6 03F00103 		and	r3, r3, #1
 283 01ca 0293     		str	r3, [sp, #8]
 284 01cc 029B     		ldr	r3, [sp, #8]
 285              	.LBE2:
ARM GAS  /tmp/ccUHr3Nz.s 			page 6


 286              		.loc 1 278 0
 287 01ce 574B     		ldr	r3, .L28+4
 288 01d0 059A     		ldr	r2, [sp, #20]
 289 01d2 9208     		lsrs	r2, r2, #2
 290 01d4 0232     		adds	r2, r2, #2
 291 01d6 53F82230 		ldr	r3, [r3, r2, lsl #2]
 292 01da 0493     		str	r3, [sp, #16]
 293              		.loc 1 279 0
 294 01dc 059B     		ldr	r3, [sp, #20]
 295 01de 03F00303 		and	r3, r3, #3
 296 01e2 9B00     		lsls	r3, r3, #2
 297 01e4 0F22     		movs	r2, #15
 298 01e6 02FA03F3 		lsl	r3, r2, r3
 299 01ea DB43     		mvns	r3, r3
 300 01ec 049A     		ldr	r2, [sp, #16]
 301 01ee 1340     		ands	r3, r3, r2
 302 01f0 0493     		str	r3, [sp, #16]
 303              		.loc 1 280 0
 304 01f2 019B     		ldr	r3, [sp, #4]
 305 01f4 B3F1904F 		cmp	r3, #1207959552
 306 01f8 25D0     		beq	.L9
 307              		.loc 1 280 0 is_stmt 0 discriminator 1
 308 01fa 019A     		ldr	r2, [sp, #4]
 309 01fc 4C4B     		ldr	r3, .L28+8
 310 01fe 9A42     		cmp	r2, r3
 311 0200 1FD0     		beq	.L10
 312 0202 019A     		ldr	r2, [sp, #4]
 313 0204 4B4B     		ldr	r3, .L28+12
 314 0206 9A42     		cmp	r2, r3
 315 0208 19D0     		beq	.L11
 316 020a 019A     		ldr	r2, [sp, #4]
 317 020c 4A4B     		ldr	r3, .L28+16
 318 020e 9A42     		cmp	r2, r3
 319 0210 13D0     		beq	.L12
 320 0212 019A     		ldr	r2, [sp, #4]
 321 0214 494B     		ldr	r3, .L28+20
 322 0216 9A42     		cmp	r2, r3
 323 0218 0DD0     		beq	.L13
 324 021a 019A     		ldr	r2, [sp, #4]
 325 021c 484B     		ldr	r3, .L28+24
 326 021e 9A42     		cmp	r2, r3
 327 0220 07D0     		beq	.L14
 328 0222 019A     		ldr	r2, [sp, #4]
 329 0224 474B     		ldr	r3, .L28+28
 330 0226 9A42     		cmp	r2, r3
 331 0228 01D1     		bne	.L15
 332 022a 0623     		movs	r3, #6
 333 022c 0CE0     		b	.L22
 334              	.L15:
 335              		.loc 1 280 0 discriminator 2
 336 022e 0723     		movs	r3, #7
 337 0230 0AE0     		b	.L22
 338              	.L14:
 339 0232 0523     		movs	r3, #5
 340 0234 08E0     		b	.L22
 341              	.L13:
 342 0236 0423     		movs	r3, #4
ARM GAS  /tmp/ccUHr3Nz.s 			page 7


 343 0238 06E0     		b	.L22
 344              	.L12:
 345 023a 0323     		movs	r3, #3
 346 023c 04E0     		b	.L22
 347              	.L11:
 348 023e 0223     		movs	r3, #2
 349 0240 02E0     		b	.L22
 350              	.L10:
 351 0242 0123     		movs	r3, #1
 352 0244 00E0     		b	.L22
 353              	.L9:
 354 0246 0023     		movs	r3, #0
 355              	.L22:
 356              		.loc 1 280 0 discriminator 3
 357 0248 059A     		ldr	r2, [sp, #20]
 358 024a 02F00302 		and	r2, r2, #3
 359 024e 9200     		lsls	r2, r2, #2
 360 0250 9340     		lsls	r3, r3, r2
 361 0252 049A     		ldr	r2, [sp, #16]
 362 0254 1343     		orrs	r3, r3, r2
 363 0256 0493     		str	r3, [sp, #16]
 364              		.loc 1 281 0 is_stmt 1 discriminator 3
 365 0258 344B     		ldr	r3, .L28+4
 366 025a 059A     		ldr	r2, [sp, #20]
 367 025c 9208     		lsrs	r2, r2, #2
 368 025e 0232     		adds	r2, r2, #2
 369 0260 0499     		ldr	r1, [sp, #16]
 370 0262 43F82210 		str	r1, [r3, r2, lsl #2]
 371              		.loc 1 284 0 discriminator 3
 372 0266 384B     		ldr	r3, .L28+32
 373 0268 1B68     		ldr	r3, [r3]
 374 026a 0493     		str	r3, [sp, #16]
 375              		.loc 1 285 0 discriminator 3
 376 026c 039B     		ldr	r3, [sp, #12]
 377 026e DB43     		mvns	r3, r3
 378 0270 049A     		ldr	r2, [sp, #16]
 379 0272 1340     		ands	r3, r3, r2
 380 0274 0493     		str	r3, [sp, #16]
 381              		.loc 1 286 0 discriminator 3
 382 0276 009B     		ldr	r3, [sp]
 383 0278 5B68     		ldr	r3, [r3, #4]
 384 027a 03F48033 		and	r3, r3, #65536
 385 027e 002B     		cmp	r3, #0
 386 0280 03D0     		beq	.L23
 387              		.loc 1 288 0
 388 0282 049A     		ldr	r2, [sp, #16]
 389 0284 039B     		ldr	r3, [sp, #12]
 390 0286 1343     		orrs	r3, r3, r2
 391 0288 0493     		str	r3, [sp, #16]
 392              	.L23:
 393              		.loc 1 290 0
 394 028a 2F4B     		ldr	r3, .L28+32
 395 028c 049A     		ldr	r2, [sp, #16]
 396 028e 1A60     		str	r2, [r3]
 397              		.loc 1 292 0
 398 0290 2D4B     		ldr	r3, .L28+32
 399 0292 5B68     		ldr	r3, [r3, #4]
ARM GAS  /tmp/ccUHr3Nz.s 			page 8


 400 0294 0493     		str	r3, [sp, #16]
 401              		.loc 1 293 0
 402 0296 039B     		ldr	r3, [sp, #12]
 403 0298 DB43     		mvns	r3, r3
 404 029a 049A     		ldr	r2, [sp, #16]
 405 029c 1340     		ands	r3, r3, r2
 406 029e 0493     		str	r3, [sp, #16]
 407              		.loc 1 294 0
 408 02a0 009B     		ldr	r3, [sp]
 409 02a2 5B68     		ldr	r3, [r3, #4]
 410 02a4 03F40033 		and	r3, r3, #131072
 411 02a8 002B     		cmp	r3, #0
 412 02aa 03D0     		beq	.L24
 413              		.loc 1 296 0
 414 02ac 049A     		ldr	r2, [sp, #16]
 415 02ae 039B     		ldr	r3, [sp, #12]
 416 02b0 1343     		orrs	r3, r3, r2
 417 02b2 0493     		str	r3, [sp, #16]
 418              	.L24:
 419              		.loc 1 298 0
 420 02b4 244B     		ldr	r3, .L28+32
 421 02b6 049A     		ldr	r2, [sp, #16]
 422 02b8 5A60     		str	r2, [r3, #4]
 423              		.loc 1 301 0
 424 02ba 234B     		ldr	r3, .L28+32
 425 02bc 9B68     		ldr	r3, [r3, #8]
 426 02be 0493     		str	r3, [sp, #16]
 427              		.loc 1 302 0
 428 02c0 039B     		ldr	r3, [sp, #12]
 429 02c2 DB43     		mvns	r3, r3
 430 02c4 049A     		ldr	r2, [sp, #16]
 431 02c6 1340     		ands	r3, r3, r2
 432 02c8 0493     		str	r3, [sp, #16]
 433              		.loc 1 303 0
 434 02ca 009B     		ldr	r3, [sp]
 435 02cc 5B68     		ldr	r3, [r3, #4]
 436 02ce 03F48013 		and	r3, r3, #1048576
 437 02d2 002B     		cmp	r3, #0
 438 02d4 03D0     		beq	.L25
 439              		.loc 1 305 0
 440 02d6 049A     		ldr	r2, [sp, #16]
 441 02d8 039B     		ldr	r3, [sp, #12]
 442 02da 1343     		orrs	r3, r3, r2
 443 02dc 0493     		str	r3, [sp, #16]
 444              	.L25:
 445              		.loc 1 307 0
 446 02de 1A4B     		ldr	r3, .L28+32
 447 02e0 049A     		ldr	r2, [sp, #16]
 448 02e2 9A60     		str	r2, [r3, #8]
 449              		.loc 1 309 0
 450 02e4 184B     		ldr	r3, .L28+32
 451 02e6 DB68     		ldr	r3, [r3, #12]
 452 02e8 0493     		str	r3, [sp, #16]
 453              		.loc 1 310 0
 454 02ea 039B     		ldr	r3, [sp, #12]
 455 02ec DB43     		mvns	r3, r3
 456 02ee 049A     		ldr	r2, [sp, #16]
ARM GAS  /tmp/ccUHr3Nz.s 			page 9


 457 02f0 1340     		ands	r3, r3, r2
 458 02f2 0493     		str	r3, [sp, #16]
 459              		.loc 1 311 0
 460 02f4 009B     		ldr	r3, [sp]
 461 02f6 5B68     		ldr	r3, [r3, #4]
 462 02f8 03F40013 		and	r3, r3, #2097152
 463 02fc 002B     		cmp	r3, #0
 464 02fe 03D0     		beq	.L26
 465              		.loc 1 313 0
 466 0300 049A     		ldr	r2, [sp, #16]
 467 0302 039B     		ldr	r3, [sp, #12]
 468 0304 1343     		orrs	r3, r3, r2
 469 0306 0493     		str	r3, [sp, #16]
 470              	.L26:
 471              		.loc 1 315 0
 472 0308 0F4B     		ldr	r3, .L28+32
 473 030a 049A     		ldr	r2, [sp, #16]
 474 030c DA60     		str	r2, [r3, #12]
 475              	.L3:
 476              		.loc 1 319 0
 477 030e 059B     		ldr	r3, [sp, #20]
 478 0310 0133     		adds	r3, r3, #1
 479 0312 0593     		str	r3, [sp, #20]
 480              	.L2:
 481              		.loc 1 204 0 discriminator 1
 482 0314 009B     		ldr	r3, [sp]
 483 0316 1A68     		ldr	r2, [r3]
 484 0318 059B     		ldr	r3, [sp, #20]
 485 031a 22FA03F3 		lsr	r3, r2, r3
 486 031e 002B     		cmp	r3, #0
 487 0320 7FF478AE 		bne	.L27
 488              		.loc 1 321 0
 489 0324 06B0     		add	sp, sp, #24
 490              		@ sp needed
 491 0326 7047     		bx	lr
 492              	.L29:
 493              		.align	2
 494              	.L28:
 495 0328 00100240 		.word	1073876992
 496 032c 00000140 		.word	1073807360
 497 0330 00040048 		.word	1207960576
 498 0334 00080048 		.word	1207961600
 499 0338 000C0048 		.word	1207962624
 500 033c 00100048 		.word	1207963648
 501 0340 00140048 		.word	1207964672
 502 0344 00180048 		.word	1207965696
 503 0348 00040140 		.word	1073808384
 504              		.cfi_endproc
 505              	.LFE125:
 506              		.size	HAL_GPIO_Init, .-HAL_GPIO_Init
 507              		.align	2
 508 034c AFF30080 		.p2align 4,,15
 509              		.global	HAL_GPIO_DeInit
 510              		.thumb
 511              		.thumb_func
 512              		.type	HAL_GPIO_DeInit, %function
 513              	HAL_GPIO_DeInit:
ARM GAS  /tmp/ccUHr3Nz.s 			page 10


 514              	.LFB126:
 515              		.loc 1 331 0
 516              		.cfi_startproc
 517              		@ args = 0, pretend = 0, frame = 24
 518              		@ frame_needed = 0, uses_anonymous_args = 0
 519              		@ link register save eliminated.
 520 0350 86B0     		sub	sp, sp, #24
 521              		.cfi_def_cfa_offset 24
 522 0352 0190     		str	r0, [sp, #4]
 523 0354 0091     		str	r1, [sp]
 524              		.loc 1 332 0
 525 0356 0023     		movs	r3, #0
 526 0358 0593     		str	r3, [sp, #20]
 527              		.loc 1 333 0
 528 035a 0023     		movs	r3, #0
 529 035c 0493     		str	r3, [sp, #16]
 530              		.loc 1 334 0
 531 035e 0023     		movs	r3, #0
 532 0360 0393     		str	r3, [sp, #12]
 533              		.loc 1 341 0
 534 0362 CDE0     		b	.L31
 535              	.L47:
 536              		.loc 1 344 0
 537 0364 059B     		ldr	r3, [sp, #20]
 538 0366 0122     		movs	r2, #1
 539 0368 9A40     		lsls	r2, r2, r3
 540 036a 009B     		ldr	r3, [sp]
 541 036c 1340     		ands	r3, r3, r2
 542 036e 0493     		str	r3, [sp, #16]
 543              		.loc 1 346 0
 544 0370 049B     		ldr	r3, [sp, #16]
 545 0372 002B     		cmp	r3, #0
 546 0374 00F0C180 		beq	.L32
 547              		.loc 1 350 0
 548 0378 019B     		ldr	r3, [sp, #4]
 549 037a 1A68     		ldr	r2, [r3]
 550 037c 059B     		ldr	r3, [sp, #20]
 551 037e 5B00     		lsls	r3, r3, #1
 552 0380 0321     		movs	r1, #3
 553 0382 01FA03F3 		lsl	r3, r1, r3
 554 0386 1A43     		orrs	r2, r2, r3
 555 0388 019B     		ldr	r3, [sp, #4]
 556 038a 1A60     		str	r2, [r3]
 557              		.loc 1 353 0
 558 038c 059B     		ldr	r3, [sp, #20]
 559 038e DA08     		lsrs	r2, r3, #3
 560 0390 059B     		ldr	r3, [sp, #20]
 561 0392 D908     		lsrs	r1, r3, #3
 562 0394 019B     		ldr	r3, [sp, #4]
 563 0396 0831     		adds	r1, r1, #8
 564 0398 53F82110 		ldr	r1, [r3, r1, lsl #2]
 565 039c 059B     		ldr	r3, [sp, #20]
 566 039e 03F00703 		and	r3, r3, #7
 567 03a2 9B00     		lsls	r3, r3, #2
 568 03a4 0F20     		movs	r0, #15
 569 03a6 00FA03F3 		lsl	r3, r0, r3
 570 03aa DB43     		mvns	r3, r3
ARM GAS  /tmp/ccUHr3Nz.s 			page 11


 571 03ac 1940     		ands	r1, r1, r3
 572 03ae 019B     		ldr	r3, [sp, #4]
 573 03b0 0832     		adds	r2, r2, #8
 574 03b2 43F82210 		str	r1, [r3, r2, lsl #2]
 575              		.loc 1 356 0
 576 03b6 019B     		ldr	r3, [sp, #4]
 577 03b8 9A68     		ldr	r2, [r3, #8]
 578 03ba 059B     		ldr	r3, [sp, #20]
 579 03bc 5B00     		lsls	r3, r3, #1
 580 03be 0321     		movs	r1, #3
 581 03c0 01FA03F3 		lsl	r3, r1, r3
 582 03c4 DB43     		mvns	r3, r3
 583 03c6 1A40     		ands	r2, r2, r3
 584 03c8 019B     		ldr	r3, [sp, #4]
 585 03ca 9A60     		str	r2, [r3, #8]
 586              		.loc 1 359 0
 587 03cc 019B     		ldr	r3, [sp, #4]
 588 03ce 5A68     		ldr	r2, [r3, #4]
 589 03d0 059B     		ldr	r3, [sp, #20]
 590 03d2 0121     		movs	r1, #1
 591 03d4 01FA03F3 		lsl	r3, r1, r3
 592 03d8 DB43     		mvns	r3, r3
 593 03da 1A40     		ands	r2, r2, r3
 594 03dc 019B     		ldr	r3, [sp, #4]
 595 03de 5A60     		str	r2, [r3, #4]
 596              		.loc 1 362 0
 597 03e0 019B     		ldr	r3, [sp, #4]
 598 03e2 DA68     		ldr	r2, [r3, #12]
 599 03e4 059B     		ldr	r3, [sp, #20]
 600 03e6 5B00     		lsls	r3, r3, #1
 601 03e8 0321     		movs	r1, #3
 602 03ea 01FA03F3 		lsl	r3, r1, r3
 603 03ee DB43     		mvns	r3, r3
 604 03f0 1A40     		ands	r2, r2, r3
 605 03f2 019B     		ldr	r3, [sp, #4]
 606 03f4 DA60     		str	r2, [r3, #12]
 607              		.loc 1 367 0
 608 03f6 019B     		ldr	r3, [sp, #4]
 609 03f8 DA6A     		ldr	r2, [r3, #44]
 610 03fa 059B     		ldr	r3, [sp, #20]
 611 03fc 0121     		movs	r1, #1
 612 03fe 01FA03F3 		lsl	r3, r1, r3
 613 0402 DB43     		mvns	r3, r3
 614 0404 1A40     		ands	r2, r2, r3
 615 0406 019B     		ldr	r3, [sp, #4]
 616 0408 DA62     		str	r2, [r3, #44]
 617              		.loc 1 374 0
 618 040a 424B     		ldr	r3, .L48
 619 040c 059A     		ldr	r2, [sp, #20]
 620 040e 9208     		lsrs	r2, r2, #2
 621 0410 0232     		adds	r2, r2, #2
 622 0412 53F82230 		ldr	r3, [r3, r2, lsl #2]
 623 0416 0393     		str	r3, [sp, #12]
 624              		.loc 1 375 0
 625 0418 059B     		ldr	r3, [sp, #20]
 626 041a 03F00303 		and	r3, r3, #3
 627 041e 9B00     		lsls	r3, r3, #2
ARM GAS  /tmp/ccUHr3Nz.s 			page 12


 628 0420 0F22     		movs	r2, #15
 629 0422 02FA03F3 		lsl	r3, r2, r3
 630 0426 039A     		ldr	r2, [sp, #12]
 631 0428 1340     		ands	r3, r3, r2
 632 042a 0393     		str	r3, [sp, #12]
 633              		.loc 1 376 0
 634 042c 019B     		ldr	r3, [sp, #4]
 635 042e B3F1904F 		cmp	r3, #1207959552
 636 0432 25D0     		beq	.L33
 637              		.loc 1 376 0 is_stmt 0 discriminator 1
 638 0434 019A     		ldr	r2, [sp, #4]
 639 0436 384B     		ldr	r3, .L48+4
 640 0438 9A42     		cmp	r2, r3
 641 043a 1FD0     		beq	.L34
 642 043c 019A     		ldr	r2, [sp, #4]
 643 043e 374B     		ldr	r3, .L48+8
 644 0440 9A42     		cmp	r2, r3
 645 0442 19D0     		beq	.L35
 646 0444 019A     		ldr	r2, [sp, #4]
 647 0446 364B     		ldr	r3, .L48+12
 648 0448 9A42     		cmp	r2, r3
 649 044a 13D0     		beq	.L36
 650 044c 019A     		ldr	r2, [sp, #4]
 651 044e 354B     		ldr	r3, .L48+16
 652 0450 9A42     		cmp	r2, r3
 653 0452 0DD0     		beq	.L37
 654 0454 019A     		ldr	r2, [sp, #4]
 655 0456 344B     		ldr	r3, .L48+20
 656 0458 9A42     		cmp	r2, r3
 657 045a 07D0     		beq	.L38
 658 045c 019A     		ldr	r2, [sp, #4]
 659 045e 334B     		ldr	r3, .L48+24
 660 0460 9A42     		cmp	r2, r3
 661 0462 01D1     		bne	.L39
 662 0464 0623     		movs	r3, #6
 663 0466 0CE0     		b	.L46
 664              	.L39:
 665              		.loc 1 376 0 discriminator 2
 666 0468 0723     		movs	r3, #7
 667 046a 0AE0     		b	.L46
 668              	.L38:
 669 046c 0523     		movs	r3, #5
 670 046e 08E0     		b	.L46
 671              	.L37:
 672 0470 0423     		movs	r3, #4
 673 0472 06E0     		b	.L46
 674              	.L36:
 675 0474 0323     		movs	r3, #3
 676 0476 04E0     		b	.L46
 677              	.L35:
 678 0478 0223     		movs	r3, #2
 679 047a 02E0     		b	.L46
 680              	.L34:
 681 047c 0123     		movs	r3, #1
 682 047e 00E0     		b	.L46
 683              	.L33:
 684 0480 0023     		movs	r3, #0
ARM GAS  /tmp/ccUHr3Nz.s 			page 13


 685              	.L46:
 686              		.loc 1 376 0 discriminator 3
 687 0482 059A     		ldr	r2, [sp, #20]
 688 0484 02F00302 		and	r2, r2, #3
 689 0488 9200     		lsls	r2, r2, #2
 690 048a 03FA02F2 		lsl	r2, r3, r2
 691 048e 039B     		ldr	r3, [sp, #12]
 692 0490 9A42     		cmp	r2, r3
 693 0492 32D1     		bne	.L32
 694              		.loc 1 378 0 is_stmt 1
 695 0494 059B     		ldr	r3, [sp, #20]
 696 0496 03F00303 		and	r3, r3, #3
 697 049a 9B00     		lsls	r3, r3, #2
 698 049c 0F22     		movs	r2, #15
 699 049e 02FA03F3 		lsl	r3, r2, r3
 700 04a2 0393     		str	r3, [sp, #12]
 701              		.loc 1 379 0
 702 04a4 1B4B     		ldr	r3, .L48
 703 04a6 059A     		ldr	r2, [sp, #20]
 704 04a8 9208     		lsrs	r2, r2, #2
 705 04aa 1A49     		ldr	r1, .L48
 706 04ac 0598     		ldr	r0, [sp, #20]
 707 04ae 8008     		lsrs	r0, r0, #2
 708 04b0 0230     		adds	r0, r0, #2
 709 04b2 51F82000 		ldr	r0, [r1, r0, lsl #2]
 710 04b6 0399     		ldr	r1, [sp, #12]
 711 04b8 C943     		mvns	r1, r1
 712 04ba 0140     		ands	r1, r1, r0
 713 04bc 0232     		adds	r2, r2, #2
 714 04be 43F82210 		str	r1, [r3, r2, lsl #2]
 715              		.loc 1 382 0
 716 04c2 1B4B     		ldr	r3, .L48+28
 717 04c4 1A4A     		ldr	r2, .L48+28
 718 04c6 1168     		ldr	r1, [r2]
 719 04c8 049A     		ldr	r2, [sp, #16]
 720 04ca D243     		mvns	r2, r2
 721 04cc 0A40     		ands	r2, r2, r1
 722 04ce 1A60     		str	r2, [r3]
 723              		.loc 1 383 0
 724 04d0 174B     		ldr	r3, .L48+28
 725 04d2 174A     		ldr	r2, .L48+28
 726 04d4 5168     		ldr	r1, [r2, #4]
 727 04d6 049A     		ldr	r2, [sp, #16]
 728 04d8 D243     		mvns	r2, r2
 729 04da 0A40     		ands	r2, r2, r1
 730 04dc 5A60     		str	r2, [r3, #4]
 731              		.loc 1 386 0
 732 04de 144B     		ldr	r3, .L48+28
 733 04e0 134A     		ldr	r2, .L48+28
 734 04e2 9168     		ldr	r1, [r2, #8]
 735 04e4 049A     		ldr	r2, [sp, #16]
 736 04e6 D243     		mvns	r2, r2
 737 04e8 0A40     		ands	r2, r2, r1
 738 04ea 9A60     		str	r2, [r3, #8]
 739              		.loc 1 387 0
 740 04ec 104B     		ldr	r3, .L48+28
 741 04ee 104A     		ldr	r2, .L48+28
ARM GAS  /tmp/ccUHr3Nz.s 			page 14


 742 04f0 D168     		ldr	r1, [r2, #12]
 743 04f2 049A     		ldr	r2, [sp, #16]
 744 04f4 D243     		mvns	r2, r2
 745 04f6 0A40     		ands	r2, r2, r1
 746 04f8 DA60     		str	r2, [r3, #12]
 747              	.L32:
 748              		.loc 1 391 0
 749 04fa 059B     		ldr	r3, [sp, #20]
 750 04fc 0133     		adds	r3, r3, #1
 751 04fe 0593     		str	r3, [sp, #20]
 752              	.L31:
 753              		.loc 1 341 0 discriminator 1
 754 0500 059B     		ldr	r3, [sp, #20]
 755 0502 009A     		ldr	r2, [sp]
 756 0504 22FA03F3 		lsr	r3, r2, r3
 757 0508 002B     		cmp	r3, #0
 758 050a 7FF42BAF 		bne	.L47
 759              		.loc 1 393 0
 760 050e 06B0     		add	sp, sp, #24
 761              		@ sp needed
 762 0510 7047     		bx	lr
 763              	.L49:
 764 0512 00BF     		.align	2
 765              	.L48:
 766 0514 00000140 		.word	1073807360
 767 0518 00040048 		.word	1207960576
 768 051c 00080048 		.word	1207961600
 769 0520 000C0048 		.word	1207962624
 770 0524 00100048 		.word	1207963648
 771 0528 00140048 		.word	1207964672
 772 052c 00180048 		.word	1207965696
 773 0530 00040140 		.word	1073808384
 774              		.cfi_endproc
 775              	.LFE126:
 776              		.size	HAL_GPIO_DeInit, .-HAL_GPIO_DeInit
 777              		.align	2
 778 0534 AFF30080 		.p2align 4,,15
 778      AFF30080 
 778      AFF30080 
 779              		.global	HAL_GPIO_ReadPin
 780              		.thumb
 781              		.thumb_func
 782              		.type	HAL_GPIO_ReadPin, %function
 783              	HAL_GPIO_ReadPin:
 784              	.LFB127:
 785              		.loc 1 419 0
 786              		.cfi_startproc
 787              		@ args = 0, pretend = 0, frame = 16
 788              		@ frame_needed = 0, uses_anonymous_args = 0
 789              		@ link register save eliminated.
 790 0540 84B0     		sub	sp, sp, #16
 791              		.cfi_def_cfa_offset 16
 792 0542 0190     		str	r0, [sp, #4]
 793 0544 0B46     		mov	r3, r1
 794 0546 ADF80230 		strh	r3, [sp, #2]	@ movhi
 795              		.loc 1 425 0
 796 054a 019B     		ldr	r3, [sp, #4]
ARM GAS  /tmp/ccUHr3Nz.s 			page 15


 797 054c 1A69     		ldr	r2, [r3, #16]
 798 054e BDF80230 		ldrh	r3, [sp, #2]
 799 0552 1340     		ands	r3, r3, r2
 800 0554 002B     		cmp	r3, #0
 801 0556 03D0     		beq	.L51
 802              		.loc 1 427 0
 803 0558 0123     		movs	r3, #1
 804 055a 8DF80F30 		strb	r3, [sp, #15]
 805 055e 02E0     		b	.L52
 806              	.L51:
 807              		.loc 1 431 0
 808 0560 0023     		movs	r3, #0
 809 0562 8DF80F30 		strb	r3, [sp, #15]
 810              	.L52:
 811              		.loc 1 433 0
 812 0566 9DF80F30 		ldrb	r3, [sp, #15]	@ zero_extendqisi2
 813              		.loc 1 434 0
 814 056a 1846     		mov	r0, r3
 815 056c 04B0     		add	sp, sp, #16
 816              		@ sp needed
 817 056e 7047     		bx	lr
 818              		.cfi_endproc
 819              	.LFE127:
 820              		.size	HAL_GPIO_ReadPin, .-HAL_GPIO_ReadPin
 821              		.align	2
 822              		.p2align 4,,15
 823              		.global	HAL_GPIO_WritePin
 824              		.thumb
 825              		.thumb_func
 826              		.type	HAL_GPIO_WritePin, %function
 827              	HAL_GPIO_WritePin:
 828              	.LFB128:
 829              		.loc 1 453 0
 830              		.cfi_startproc
 831              		@ args = 0, pretend = 0, frame = 8
 832              		@ frame_needed = 0, uses_anonymous_args = 0
 833              		@ link register save eliminated.
 834 0570 82B0     		sub	sp, sp, #8
 835              		.cfi_def_cfa_offset 8
 836 0572 0190     		str	r0, [sp, #4]
 837 0574 1346     		mov	r3, r2
 838 0576 0A46     		mov	r2, r1	@ movhi
 839 0578 ADF80220 		strh	r2, [sp, #2]	@ movhi
 840 057c 8DF80130 		strb	r3, [sp, #1]
 841              		.loc 1 458 0
 842 0580 9DF80130 		ldrb	r3, [sp, #1]	@ zero_extendqisi2
 843 0584 002B     		cmp	r3, #0
 844 0586 04D0     		beq	.L55
 845              		.loc 1 460 0
 846 0588 BDF80220 		ldrh	r2, [sp, #2]
 847 058c 019B     		ldr	r3, [sp, #4]
 848 058e 9A61     		str	r2, [r3, #24]
 849 0590 03E0     		b	.L54
 850              	.L55:
 851              		.loc 1 464 0
 852 0592 BDF80220 		ldrh	r2, [sp, #2]
 853 0596 019B     		ldr	r3, [sp, #4]
ARM GAS  /tmp/ccUHr3Nz.s 			page 16


 854 0598 9A62     		str	r2, [r3, #40]
 855              	.L54:
 856              		.loc 1 466 0
 857 059a 02B0     		add	sp, sp, #8
 858              		@ sp needed
 859 059c 7047     		bx	lr
 860              		.cfi_endproc
 861              	.LFE128:
 862              		.size	HAL_GPIO_WritePin, .-HAL_GPIO_WritePin
 863 059e 00BF     		.align	2
 864              		.p2align 4,,15
 865              		.global	HAL_GPIO_TogglePin
 866              		.thumb
 867              		.thumb_func
 868              		.type	HAL_GPIO_TogglePin, %function
 869              	HAL_GPIO_TogglePin:
 870              	.LFB129:
 871              		.loc 1 475 0
 872              		.cfi_startproc
 873              		@ args = 0, pretend = 0, frame = 8
 874              		@ frame_needed = 0, uses_anonymous_args = 0
 875              		@ link register save eliminated.
 876 05a0 82B0     		sub	sp, sp, #8
 877              		.cfi_def_cfa_offset 8
 878 05a2 0190     		str	r0, [sp, #4]
 879 05a4 0B46     		mov	r3, r1
 880 05a6 ADF80230 		strh	r3, [sp, #2]	@ movhi
 881              		.loc 1 479 0
 882 05aa 019B     		ldr	r3, [sp, #4]
 883 05ac 5A69     		ldr	r2, [r3, #20]
 884 05ae BDF80230 		ldrh	r3, [sp, #2]
 885 05b2 5A40     		eors	r2, r2, r3
 886 05b4 019B     		ldr	r3, [sp, #4]
 887 05b6 5A61     		str	r2, [r3, #20]
 888              		.loc 1 480 0
 889 05b8 02B0     		add	sp, sp, #8
 890              		@ sp needed
 891 05ba 7047     		bx	lr
 892              		.cfi_endproc
 893              	.LFE129:
 894              		.size	HAL_GPIO_TogglePin, .-HAL_GPIO_TogglePin
 895              		.align	2
 896 05bc AFF30080 		.p2align 4,,15
 897              		.global	HAL_GPIO_LockPin
 898              		.thumb
 899              		.thumb_func
 900              		.type	HAL_GPIO_LockPin, %function
 901              	HAL_GPIO_LockPin:
 902              	.LFB130:
 903              		.loc 1 494 0
 904              		.cfi_startproc
 905              		@ args = 0, pretend = 0, frame = 16
 906              		@ frame_needed = 0, uses_anonymous_args = 0
 907              		@ link register save eliminated.
 908 05c0 84B0     		sub	sp, sp, #16
 909              		.cfi_def_cfa_offset 16
 910 05c2 0190     		str	r0, [sp, #4]
ARM GAS  /tmp/ccUHr3Nz.s 			page 17


 911 05c4 0B46     		mov	r3, r1
 912 05c6 ADF80230 		strh	r3, [sp, #2]	@ movhi
 913              		.loc 1 495 0
 914 05ca 4FF48033 		mov	r3, #65536
 915 05ce 0393     		str	r3, [sp, #12]
 916              		.loc 1 502 0
 917 05d0 BDF80220 		ldrh	r2, [sp, #2]
 918 05d4 039B     		ldr	r3, [sp, #12]
 919 05d6 1343     		orrs	r3, r3, r2
 920 05d8 0393     		str	r3, [sp, #12]
 921              		.loc 1 504 0
 922 05da 039A     		ldr	r2, [sp, #12]
 923 05dc 019B     		ldr	r3, [sp, #4]
 924 05de DA61     		str	r2, [r3, #28]
 925              		.loc 1 506 0
 926 05e0 BDF80220 		ldrh	r2, [sp, #2]
 927 05e4 019B     		ldr	r3, [sp, #4]
 928 05e6 DA61     		str	r2, [r3, #28]
 929              		.loc 1 508 0
 930 05e8 039A     		ldr	r2, [sp, #12]
 931 05ea 019B     		ldr	r3, [sp, #4]
 932 05ec DA61     		str	r2, [r3, #28]
 933              		.loc 1 510 0
 934 05ee 019B     		ldr	r3, [sp, #4]
 935 05f0 DB69     		ldr	r3, [r3, #28]
 936 05f2 0393     		str	r3, [sp, #12]
 937              		.loc 1 512 0
 938 05f4 019B     		ldr	r3, [sp, #4]
 939 05f6 DB69     		ldr	r3, [r3, #28]
 940 05f8 03F48033 		and	r3, r3, #65536
 941 05fc 002B     		cmp	r3, #0
 942 05fe 01D0     		beq	.L59
 943              		.loc 1 514 0
 944 0600 0023     		movs	r3, #0
 945 0602 00E0     		b	.L60
 946              	.L59:
 947              		.loc 1 518 0
 948 0604 0123     		movs	r3, #1
 949              	.L60:
 950              		.loc 1 520 0
 951 0606 1846     		mov	r0, r3
 952 0608 04B0     		add	sp, sp, #16
 953              		@ sp needed
 954 060a 7047     		bx	lr
 955              		.cfi_endproc
 956              	.LFE130:
 957              		.size	HAL_GPIO_LockPin, .-HAL_GPIO_LockPin
 958              		.align	2
 959 060c AFF30080 		.p2align 4,,15
 960              		.global	HAL_GPIO_EXTI_IRQHandler
 961              		.thumb
 962              		.thumb_func
 963              		.type	HAL_GPIO_EXTI_IRQHandler, %function
 964              	HAL_GPIO_EXTI_IRQHandler:
 965              	.LFB131:
 966              		.loc 1 528 0
 967              		.cfi_startproc
ARM GAS  /tmp/ccUHr3Nz.s 			page 18


 968              		@ args = 0, pretend = 0, frame = 8
 969              		@ frame_needed = 0, uses_anonymous_args = 0
 970 0610 00B5     		push	{lr}
 971              		.cfi_def_cfa_offset 4
 972              		.cfi_offset 14, -4
 973 0612 83B0     		sub	sp, sp, #12
 974              		.cfi_def_cfa_offset 16
 975 0614 0346     		mov	r3, r0
 976 0616 ADF80630 		strh	r3, [sp, #6]	@ movhi
 977              		.loc 1 530 0
 978 061a 094B     		ldr	r3, .L63
 979 061c 5A69     		ldr	r2, [r3, #20]
 980 061e BDF80630 		ldrh	r3, [sp, #6]
 981 0622 1340     		ands	r3, r3, r2
 982 0624 002B     		cmp	r3, #0
 983 0626 08D0     		beq	.L61
 984              		.loc 1 532 0
 985 0628 054B     		ldr	r3, .L63
 986 062a BDF80620 		ldrh	r2, [sp, #6]
 987 062e 5A61     		str	r2, [r3, #20]
 988              		.loc 1 533 0
 989 0630 BDF80630 		ldrh	r3, [sp, #6]
 990 0634 1846     		mov	r0, r3
 991 0636 FFF7FEFF 		bl	HAL_GPIO_EXTI_Callback
 992              	.L61:
 993              		.loc 1 535 0
 994 063a 03B0     		add	sp, sp, #12
 995              		@ sp needed
 996 063c 5DF804FB 		ldr	pc, [sp], #4
 997              	.L64:
 998              		.align	2
 999              	.L63:
 1000 0640 00040140 		.word	1073808384
 1001              		.cfi_endproc
 1002              	.LFE131:
 1003              		.size	HAL_GPIO_EXTI_IRQHandler, .-HAL_GPIO_EXTI_IRQHandler
 1004              		.align	2
 1005 0644 AFF30080 		.p2align 4,,15
 1005      AFF30080 
 1005      AFF30080 
 1006              		.weak	HAL_GPIO_EXTI_Callback
 1007              		.thumb
 1008              		.thumb_func
 1009              		.type	HAL_GPIO_EXTI_Callback, %function
 1010              	HAL_GPIO_EXTI_Callback:
 1011              	.LFB132:
 1012              		.loc 1 543 0
 1013              		.cfi_startproc
 1014              		@ args = 0, pretend = 0, frame = 8
 1015              		@ frame_needed = 0, uses_anonymous_args = 0
 1016              		@ link register save eliminated.
 1017 0650 82B0     		sub	sp, sp, #8
 1018              		.cfi_def_cfa_offset 8
 1019 0652 0346     		mov	r3, r0
 1020 0654 ADF80630 		strh	r3, [sp, #6]	@ movhi
 1021              		.loc 1 550 0
 1022 0658 02B0     		add	sp, sp, #8
ARM GAS  /tmp/ccUHr3Nz.s 			page 19


 1023              		@ sp needed
 1024 065a 7047     		bx	lr
 1025              		.cfi_endproc
 1026              	.LFE132:
 1027              		.size	HAL_GPIO_EXTI_Callback, .-HAL_GPIO_EXTI_Callback
 1028              	.Letext0:
 1029              		.file 2 "/nfs/nfs5/home/research/hardware/arm2/gcc-arm-embedded/gcc-arm-none-eabi-4_8-2014q2/arm-n
 1030              		.file 3 "/nfs/nfs5/home/research/hardware/arm2/gcc-arm-embedded/gcc-arm-none-eabi-4_8-2014q2/arm-n
 1031              		.file 4 "../../../../../../ChibiOS/os/ext/CMSIS/ST/STM32L4xx/stm32l476xx.h"
 1032              		.file 5 "../../../../../../ChibiOS/os/ext/CMSIS/ST/STM32L4xx/stm32l4xx.h"
 1033              		.file 6 "../../../../../Drivers/STM32L4xx_HAL_Driver/Inc/stm32l4xx_hal_def.h"
 1034              		.file 7 "../../../../../Drivers/STM32L4xx_HAL_Driver/Inc/stm32l4xx_hal_gpio.h"
 1035              		.file 8 "../../../../../../ChibiOS/os/ext/CMSIS/include/core_cm4.h"