ARM GAS  /tmp/ccrsTBIG.s 			page 1


   1              		.syntax unified
   2              		.cpu cortex-m4
   3              		.fpu softvfp
   4              		.eabi_attribute 20, 1
   5              		.eabi_attribute 21, 1
   6              		.eabi_attribute 23, 3
   7              		.eabi_attribute 24, 1
   8              		.eabi_attribute 25, 1
   9              		.eabi_attribute 26, 1
  10              		.eabi_attribute 30, 6
  11              		.eabi_attribute 34, 1
  12              		.eabi_attribute 18, 4
  13              		.thumb
  14              		.file	"stm32l4xx_hal_adc.c"
  15              		.text
  16              	.Ltext0:
  17              		.cfi_sections	.debug_frame
  18              		.align	2
  19              		.p2align 4,,15
  20              		.global	HAL_ADC_Init
  21              		.thumb
  22              		.thumb_func
  23              		.type	HAL_ADC_Init, %function
  24              	HAL_ADC_Init:
  25              	.LFB125:
  26              		.file 1 "../../../../../Drivers/STM32L4xx_HAL_Driver/Src/stm32l4xx_hal_adc.c"
  27              		.loc 1 276 0
  28              		.cfi_startproc
  29              		@ args = 0, pretend = 0, frame = 64
  30              		@ frame_needed = 0, uses_anonymous_args = 0
  31 0000 00B5     		push	{lr}
  32              		.cfi_def_cfa_offset 4
  33              		.cfi_offset 14, -4
  34 0002 91B0     		sub	sp, sp, #68
  35              		.cfi_def_cfa_offset 72
  36 0004 0190     		str	r0, [sp, #4]
  37              		.loc 1 277 0
  38 0006 0023     		movs	r3, #0
  39 0008 8DF83F30 		strb	r3, [sp, #63]
  40              		.loc 1 280 0
  41 000c 0023     		movs	r3, #0
  42 000e 0E93     		str	r3, [sp, #56]
  43              		.loc 1 281 0
  44 0010 0023     		movs	r3, #0
  45 0012 0293     		str	r3, [sp, #8]
  46              		.loc 1 284 0
  47 0014 019B     		ldr	r3, [sp, #4]
  48 0016 002B     		cmp	r3, #0
  49 0018 01D1     		bne	.L2
  50              		.loc 1 286 0
  51 001a 0123     		movs	r3, #1
  52 001c E1E1     		b	.L3
  53              	.L2:
  54              		.loc 1 305 0
  55 001e 019B     		ldr	r3, [sp, #4]
  56 0020 1B69     		ldr	r3, [r3, #16]
  57 0022 002B     		cmp	r3, #0
ARM GAS  /tmp/ccrsTBIG.s 			page 2


  58              		.loc 1 323 0
  59 0024 019B     		ldr	r3, [sp, #4]
  60 0026 9B6D     		ldr	r3, [r3, #88]
  61 0028 002B     		cmp	r3, #0
  62 002a 09D1     		bne	.L5
  63              		.loc 1 326 0
  64 002c 0198     		ldr	r0, [sp, #4]
  65 002e FFF7FEFF 		bl	HAL_ADC_MspInit
  66              		.loc 1 329 0
  67 0032 019B     		ldr	r3, [sp, #4]
  68 0034 0022     		movs	r2, #0
  69 0036 DA65     		str	r2, [r3, #92]
  70              		.loc 1 332 0
  71 0038 019B     		ldr	r3, [sp, #4]
  72 003a 0022     		movs	r2, #0
  73 003c 83F85420 		strb	r2, [r3, #84]
  74              	.L5:
  75              		.loc 1 338 0
  76 0040 019B     		ldr	r3, [sp, #4]
  77 0042 1B68     		ldr	r3, [r3]
  78 0044 9B68     		ldr	r3, [r3, #8]
  79 0046 03F00053 		and	r3, r3, #536870912
  80 004a 002B     		cmp	r3, #0
  81 004c 07D0     		beq	.L6
  82              		.loc 1 341 0
  83 004e 019B     		ldr	r3, [sp, #4]
  84 0050 1B68     		ldr	r3, [r3]
  85 0052 019A     		ldr	r2, [sp, #4]
  86 0054 1268     		ldr	r2, [r2]
  87 0056 9268     		ldr	r2, [r2, #8]
  88 0058 22F00052 		bic	r2, r2, #536870912
  89 005c 9A60     		str	r2, [r3, #8]
  90              	.L6:
  91              		.loc 1 349 0
  92 005e 019B     		ldr	r3, [sp, #4]
  93 0060 1B68     		ldr	r3, [r3]
  94 0062 9B68     		ldr	r3, [r3, #8]
  95 0064 03F08053 		and	r3, r3, #268435456
  96 0068 002B     		cmp	r3, #0
  97 006a 19D1     		bne	.L7
  98              		.loc 1 352 0
  99 006c 019B     		ldr	r3, [sp, #4]
 100 006e 1B68     		ldr	r3, [r3]
 101 0070 019A     		ldr	r2, [sp, #4]
 102 0072 1268     		ldr	r2, [r2]
 103 0074 9268     		ldr	r2, [r2, #8]
 104 0076 42F08052 		orr	r2, r2, #268435456
 105 007a 9A60     		str	r2, [r3, #8]
 106              		.loc 1 358 0
 107 007c 604B     		ldr	r3, .L44
 108 007e 1A68     		ldr	r2, [r3]
 109 0080 604B     		ldr	r3, .L44+4
 110 0082 A3FB0213 		umull	r1, r3, r3, r2
 111 0086 DA0C     		lsrs	r2, r3, #19
 112 0088 1346     		mov	r3, r2
 113 008a 9B00     		lsls	r3, r3, #2
 114 008c 1344     		add	r3, r3, r2
ARM GAS  /tmp/ccrsTBIG.s 			page 3


 115 008e 5B00     		lsls	r3, r3, #1
 116 0090 0293     		str	r3, [sp, #8]
 117              		.loc 1 359 0
 118 0092 02E0     		b	.L8
 119              	.L9:
 120              		.loc 1 361 0
 121 0094 029B     		ldr	r3, [sp, #8]
 122 0096 013B     		subs	r3, r3, #1
 123 0098 0293     		str	r3, [sp, #8]
 124              	.L8:
 125              		.loc 1 359 0 discriminator 1
 126 009a 029B     		ldr	r3, [sp, #8]
 127 009c 002B     		cmp	r3, #0
 128 009e F9D1     		bne	.L9
 129              	.L7:
 130              		.loc 1 371 0
 131 00a0 019B     		ldr	r3, [sp, #4]
 132 00a2 1B68     		ldr	r3, [r3]
 133 00a4 9B68     		ldr	r3, [r3, #8]
 134 00a6 03F08053 		and	r3, r3, #268435456
 135 00aa 002B     		cmp	r3, #0
 136 00ac 0ED1     		bne	.L10
 137              		.loc 1 374 0
 138 00ae 019B     		ldr	r3, [sp, #4]
 139 00b0 9B6D     		ldr	r3, [r3, #88]
 140 00b2 43F01002 		orr	r2, r3, #16
 141 00b6 019B     		ldr	r3, [sp, #4]
 142 00b8 9A65     		str	r2, [r3, #88]
 143              		.loc 1 377 0
 144 00ba 019B     		ldr	r3, [sp, #4]
 145 00bc DB6D     		ldr	r3, [r3, #92]
 146 00be 43F00102 		orr	r2, r3, #1
 147 00c2 019B     		ldr	r3, [sp, #4]
 148 00c4 DA65     		str	r2, [r3, #92]
 149              		.loc 1 379 0
 150 00c6 0123     		movs	r3, #1
 151 00c8 8DF83F30 		strb	r3, [sp, #63]
 152              	.L10:
 153              		.loc 1 387 0
 154 00cc 019B     		ldr	r3, [sp, #4]
 155 00ce 9B6D     		ldr	r3, [r3, #88]
 156 00d0 03F01003 		and	r3, r3, #16
 157 00d4 002B     		cmp	r3, #0
 158 00d6 40F07981 		bne	.L11
 159              		.loc 1 388 0 discriminator 1
 160 00da 019B     		ldr	r3, [sp, #4]
 161 00dc 1B68     		ldr	r3, [r3]
 162 00de 9B68     		ldr	r3, [r3, #8]
 163 00e0 03F00403 		and	r3, r3, #4
 164              		.loc 1 387 0 discriminator 1
 165 00e4 002B     		cmp	r3, #0
 166 00e6 40F07181 		bne	.L11
 167              		.loc 1 392 0
 168 00ea 019B     		ldr	r3, [sp, #4]
 169 00ec 9B6D     		ldr	r3, [r3, #88]
 170 00ee 43F00202 		orr	r2, r3, #2
 171 00f2 019B     		ldr	r3, [sp, #4]
ARM GAS  /tmp/ccrsTBIG.s 			page 4


 172 00f4 9A65     		str	r2, [r3, #88]
 173              		.loc 1 397 0
 174 00f6 444B     		ldr	r3, .L44+8
 175 00f8 0D93     		str	r3, [sp, #52]
 176              		.loc 1 403 0
 177 00fa 019B     		ldr	r3, [sp, #4]
 178 00fc 1B68     		ldr	r3, [r3]
 179 00fe 9B68     		ldr	r3, [r3, #8]
 180 0100 03F00303 		and	r3, r3, #3
 181 0104 012B     		cmp	r3, #1
 182 0106 08D1     		bne	.L12
 183              		.loc 1 403 0 is_stmt 0 discriminator 1
 184 0108 019B     		ldr	r3, [sp, #4]
 185 010a 1B68     		ldr	r3, [r3]
 186 010c 1B68     		ldr	r3, [r3]
 187 010e 03F00103 		and	r3, r3, #1
 188 0112 002B     		cmp	r3, #0
 189 0114 01D0     		beq	.L12
 190              		.loc 1 403 0 discriminator 3
 191 0116 0123     		movs	r3, #1
 192 0118 00E0     		b	.L13
 193              	.L12:
 194              		.loc 1 403 0 discriminator 2
 195 011a 0023     		movs	r3, #0
 196              	.L13:
 197              		.loc 1 403 0 discriminator 4
 198 011c 002B     		cmp	r3, #0
 199 011e 40F08C80 		bne	.L14
 200              		.loc 1 404 0 is_stmt 1
 201 0122 019B     		ldr	r3, [sp, #4]
 202 0124 1A68     		ldr	r2, [r3]
 203 0126 394B     		ldr	r3, .L44+12
 204 0128 9A42     		cmp	r2, r3
 205 012a 20D1     		bne	.L15
 206              		.loc 1 404 0 is_stmt 0 discriminator 1
 207 012c 384B     		ldr	r3, .L44+16
 208 012e 9B68     		ldr	r3, [r3, #8]
 209 0130 03F00303 		and	r3, r3, #3
 210 0134 012B     		cmp	r3, #1
 211 0136 05D1     		bne	.L16
 212 0138 354B     		ldr	r3, .L44+16
 213 013a 1B68     		ldr	r3, [r3]
 214 013c 03F00103 		and	r3, r3, #1
 215 0140 002B     		cmp	r3, #0
 216 0142 0BD1     		bne	.L17
 217              	.L16:
 218              		.loc 1 404 0 discriminator 2
 219 0144 334B     		ldr	r3, .L44+20
 220 0146 9B68     		ldr	r3, [r3, #8]
 221 0148 03F00303 		and	r3, r3, #3
 222 014c 012B     		cmp	r3, #1
 223 014e 07D1     		bne	.L18
 224              		.loc 1 404 0 discriminator 4
 225 0150 304B     		ldr	r3, .L44+20
 226 0152 1B68     		ldr	r3, [r3]
 227 0154 03F00103 		and	r3, r3, #1
 228 0158 002B     		cmp	r3, #0
ARM GAS  /tmp/ccrsTBIG.s 			page 5


 229 015a 01D0     		beq	.L18
 230              	.L17:
 231              		.loc 1 404 0 discriminator 3
 232 015c 0123     		movs	r3, #1
 233 015e 00E0     		b	.L19
 234              	.L18:
 235              		.loc 1 404 0 discriminator 5
 236 0160 0023     		movs	r3, #0
 237              	.L19:
 238              		.loc 1 404 0 discriminator 6
 239 0162 002B     		cmp	r3, #0
 240 0164 14BF     		ite	ne
 241 0166 0023     		movne	r3, #0
 242 0168 0123     		moveq	r3, #1
 243 016a DBB2     		uxtb	r3, r3
 244 016c 5AE0     		b	.L20
 245              	.L15:
 246              		.loc 1 404 0 discriminator 2
 247 016e 019B     		ldr	r3, [sp, #4]
 248 0170 1A68     		ldr	r2, [r3]
 249 0172 274B     		ldr	r3, .L44+16
 250 0174 9A42     		cmp	r2, r3
 251 0176 20D1     		bne	.L21
 252              		.loc 1 404 0 discriminator 1
 253 0178 244B     		ldr	r3, .L44+12
 254 017a 9B68     		ldr	r3, [r3, #8]
 255 017c 03F00303 		and	r3, r3, #3
 256 0180 012B     		cmp	r3, #1
 257 0182 05D1     		bne	.L22
 258 0184 214B     		ldr	r3, .L44+12
 259 0186 1B68     		ldr	r3, [r3]
 260 0188 03F00103 		and	r3, r3, #1
 261 018c 002B     		cmp	r3, #0
 262 018e 0BD1     		bne	.L23
 263              	.L22:
 264              		.loc 1 404 0 discriminator 2
 265 0190 204B     		ldr	r3, .L44+20
 266 0192 9B68     		ldr	r3, [r3, #8]
 267 0194 03F00303 		and	r3, r3, #3
 268 0198 012B     		cmp	r3, #1
 269 019a 07D1     		bne	.L24
 270              		.loc 1 404 0 discriminator 4
 271 019c 1D4B     		ldr	r3, .L44+20
 272 019e 1B68     		ldr	r3, [r3]
 273 01a0 03F00103 		and	r3, r3, #1
 274 01a4 002B     		cmp	r3, #0
 275 01a6 01D0     		beq	.L24
 276              	.L23:
 277              		.loc 1 404 0 discriminator 3
 278 01a8 0123     		movs	r3, #1
 279 01aa 00E0     		b	.L25
 280              	.L24:
 281              		.loc 1 404 0 discriminator 5
 282 01ac 0023     		movs	r3, #0
 283              	.L25:
 284              		.loc 1 404 0 discriminator 6
 285 01ae 03F00103 		and	r3, r3, #1
ARM GAS  /tmp/ccrsTBIG.s 			page 6


 286 01b2 DBB2     		uxtb	r3, r3
 287 01b4 002B     		cmp	r3, #0
 288 01b6 20D1     		bne	.L26
 289 01b8 13E0     		b	.L27
 290              	.L21:
 291              		.loc 1 404 0 discriminator 2
 292 01ba 144B     		ldr	r3, .L44+12
 293 01bc 9B68     		ldr	r3, [r3, #8]
 294 01be 03F00303 		and	r3, r3, #3
 295 01c2 012B     		cmp	r3, #1
 296 01c4 07D1     		bne	.L28
 297              		.loc 1 404 0 discriminator 4
 298 01c6 114B     		ldr	r3, .L44+12
 299 01c8 1B68     		ldr	r3, [r3]
 300 01ca 03F00103 		and	r3, r3, #1
 301 01ce 002B     		cmp	r3, #0
 302 01d0 01D0     		beq	.L28
 303              		.loc 1 404 0 discriminator 6
 304 01d2 0123     		movs	r3, #1
 305 01d4 00E0     		b	.L29
 306              	.L28:
 307              		.loc 1 404 0 discriminator 5
 308 01d6 0023     		movs	r3, #0
 309              	.L29:
 310              		.loc 1 404 0 discriminator 7
 311 01d8 03F00103 		and	r3, r3, #1
 312 01dc DBB2     		uxtb	r3, r3
 313 01de 002B     		cmp	r3, #0
 314 01e0 0BD1     		bne	.L26
 315              	.L27:
 316              		.loc 1 404 0 discriminator 8
 317 01e2 0B4B     		ldr	r3, .L44+16
 318 01e4 9B68     		ldr	r3, [r3, #8]
 319 01e6 03F00303 		and	r3, r3, #3
 320 01ea 012B     		cmp	r3, #1
 321 01ec 14D1     		bne	.L30
 322              		.loc 1 404 0 discriminator 9
 323 01ee 084B     		ldr	r3, .L44+16
 324 01f0 1B68     		ldr	r3, [r3]
 325 01f2 03F00103 		and	r3, r3, #1
 326 01f6 002B     		cmp	r3, #0
 327 01f8 0ED0     		beq	.L30
 328              	.L26:
 329              		.loc 1 404 0 discriminator 3
 330 01fa 0123     		movs	r3, #1
 331 01fc 0DE0     		b	.L31
 332              	.L45:
 333 01fe 00BF     		.align	2
 334              	.L44:
 335 0200 00000000 		.word	SystemCoreClock
 336 0204 83DE1B43 		.word	1125899907
 337 0208 00030450 		.word	1342440192
 338 020c 00000450 		.word	1342439424
 339 0210 00010450 		.word	1342439680
 340 0214 00020450 		.word	1342439936
 341              	.L30:
 342              		.loc 1 404 0 discriminator 10
ARM GAS  /tmp/ccrsTBIG.s 			page 7


 343 0218 0023     		movs	r3, #0
 344              	.L31:
 345              		.loc 1 404 0 discriminator 11
 346 021a 002B     		cmp	r3, #0
 347 021c 14BF     		ite	ne
 348 021e 0023     		movne	r3, #0
 349 0220 0123     		moveq	r3, #1
 350 0222 DBB2     		uxtb	r3, r3
 351              	.L20:
 352              		.loc 1 403 0 is_stmt 1
 353 0224 002B     		cmp	r3, #0
 354 0226 08D0     		beq	.L14
 355              		.loc 1 424 0
 356 0228 0D9B     		ldr	r3, [sp, #52]
 357 022a 9B68     		ldr	r3, [r3, #8]
 358 022c 23F47C12 		bic	r2, r3, #4128768
 359 0230 019B     		ldr	r3, [sp, #4]
 360 0232 5B68     		ldr	r3, [r3, #4]
 361 0234 1A43     		orrs	r2, r2, r3
 362 0236 0D9B     		ldr	r3, [sp, #52]
 363 0238 9A60     		str	r2, [r3, #8]
 364              	.L14:
 365              		.loc 1 437 0
 366 023a 019B     		ldr	r3, [sp, #4]
 367 023c DA69     		ldr	r2, [r3, #28]
 368 023e 4FF40053 		mov	r3, #8192
 369 0242 0C93     		str	r3, [sp, #48]
 370              	.LBB62:
 371              	.LBB63:
 372              		.file 2 "../../../../../../ChibiOS/os/ext/CMSIS/include/core_cmInstr.h"
 373              		.loc 2 586 0
 374 0244 0C9B     		ldr	r3, [sp, #48]
 375              	@ 586 "../../../../../../ChibiOS/os/ext/CMSIS/include/core_cmInstr.h" 1
 376 0246 93FAA3F3 		rbit r3, r3
 377              	@ 0 "" 2
 378              		.thumb
 379 024a 0B93     		str	r3, [sp, #44]
 380              		.loc 2 599 0
 381 024c 0B9B     		ldr	r3, [sp, #44]
 382              	.LBE63:
 383              	.LBE62:
 384              		.loc 1 437 0
 385 024e B3FA83F3 		clz	r3, r3
 386 0252 9A40     		lsls	r2, r2, r3
 387              		.loc 1 438 0
 388 0254 019B     		ldr	r3, [sp, #4]
 389 0256 9B6B     		ldr	r3, [r3, #56]
 390              		.loc 1 437 0
 391 0258 1A43     		orrs	r2, r2, r3
 392              		.loc 1 439 0
 393 025a 019B     		ldr	r3, [sp, #4]
 394 025c DB68     		ldr	r3, [r3, #12]
 395              		.loc 1 438 0
 396 025e 1A43     		orrs	r2, r2, r3
 397              		.loc 1 440 0
 398 0260 019B     		ldr	r3, [sp, #4]
 399 0262 9B68     		ldr	r3, [r3, #8]
ARM GAS  /tmp/ccrsTBIG.s 			page 8


 400              		.loc 1 439 0
 401 0264 1A43     		orrs	r2, r2, r3
 402              		.loc 1 441 0
 403 0266 019B     		ldr	r3, [sp, #4]
 404 0268 596A     		ldr	r1, [r3, #36]
 405 026a 4FF48033 		mov	r3, #65536
 406 026e 0A93     		str	r3, [sp, #40]
 407              	.LBB64:
 408              	.LBB65:
 409              		.loc 2 586 0
 410 0270 0A9B     		ldr	r3, [sp, #40]
 411              	@ 586 "../../../../../../ChibiOS/os/ext/CMSIS/include/core_cmInstr.h" 1
 412 0272 93FAA3F3 		rbit r3, r3
 413              	@ 0 "" 2
 414              		.thumb
 415 0276 0993     		str	r3, [sp, #36]
 416              		.loc 2 599 0
 417 0278 099B     		ldr	r3, [sp, #36]
 418              	.LBE65:
 419              	.LBE64:
 420              		.loc 1 441 0
 421 027a B3FA83F3 		clz	r3, r3
 422 027e 01FA03F3 		lsl	r3, r1, r3
 423              		.loc 1 440 0
 424 0282 1A43     		orrs	r2, r2, r3
 425              		.loc 1 442 0
 426 0284 019B     		ldr	r3, [sp, #4]
 427 0286 9B6A     		ldr	r3, [r3, #40]
 428 0288 591E     		subs	r1, r3, #1
 429 028a 4FF46023 		mov	r3, #917504
 430 028e 0893     		str	r3, [sp, #32]
 431              	.LBB66:
 432              	.LBB67:
 433              		.loc 2 586 0
 434 0290 089B     		ldr	r3, [sp, #32]
 435              	@ 586 "../../../../../../ChibiOS/os/ext/CMSIS/include/core_cmInstr.h" 1
 436 0292 93FAA3F3 		rbit r3, r3
 437              	@ 0 "" 2
 438              		.thumb
 439 0296 0793     		str	r3, [sp, #28]
 440              		.loc 2 599 0
 441 0298 079B     		ldr	r3, [sp, #28]
 442              	.LBE67:
 443              	.LBE66:
 444              		.loc 1 442 0
 445 029a B3FA83F3 		clz	r3, r3
 446 029e 01FA03F3 		lsl	r3, r1, r3
 447              		.loc 1 437 0
 448 02a2 1343     		orrs	r3, r3, r2
 449 02a4 0E93     		str	r3, [sp, #56]
 450              		.loc 1 450 0
 451 02a6 019B     		ldr	r3, [sp, #4]
 452 02a8 DB6A     		ldr	r3, [r3, #44]
 453 02aa 012B     		cmp	r3, #1
 454 02ac 0BD0     		beq	.L35
 455              		.loc 1 451 0
 456 02ae 019B     		ldr	r3, [sp, #4]
ARM GAS  /tmp/ccrsTBIG.s 			page 9


 457 02b0 1B6B     		ldr	r3, [r3, #48]
 458 02b2 002B     		cmp	r3, #0
 459 02b4 07D0     		beq	.L35
 460              		.loc 1 453 0
 461 02b6 019B     		ldr	r3, [sp, #4]
 462 02b8 DA6A     		ldr	r2, [r3, #44]
 463 02ba 019B     		ldr	r3, [sp, #4]
 464 02bc 1B6B     		ldr	r3, [r3, #48]
 465 02be 1343     		orrs	r3, r3, r2
 466 02c0 0E9A     		ldr	r2, [sp, #56]
 467 02c2 1343     		orrs	r3, r3, r2
 468 02c4 0E93     		str	r3, [sp, #56]
 469              	.L35:
 470              		.loc 1 457 0
 471 02c6 019B     		ldr	r3, [sp, #4]
 472 02c8 1A68     		ldr	r2, [r3]
 473 02ca 019B     		ldr	r3, [sp, #4]
 474 02cc 1B68     		ldr	r3, [r3]
 475 02ce D968     		ldr	r1, [r3, #12]
 476 02d0 464B     		ldr	r3, .L46
 477 02d2 0B40     		ands	r3, r3, r1
 478 02d4 0E99     		ldr	r1, [sp, #56]
 479 02d6 0B43     		orrs	r3, r3, r1
 480 02d8 D360     		str	r3, [r2, #12]
 481              		.loc 1 466 0
 482 02da 019B     		ldr	r3, [sp, #4]
 483 02dc 1B68     		ldr	r3, [r3]
 484 02de 9B68     		ldr	r3, [r3, #8]
 485 02e0 03F00C03 		and	r3, r3, #12
 486 02e4 002B     		cmp	r3, #0
 487 02e6 4FD1     		bne	.L36
 488              		.loc 1 469 0
 489 02e8 019B     		ldr	r3, [sp, #4]
 490 02ea 9A69     		ldr	r2, [r3, #24]
 491 02ec 4FF48043 		mov	r3, #16384
 492 02f0 0693     		str	r3, [sp, #24]
 493              	.LBB68:
 494              	.LBB69:
 495              		.loc 2 586 0
 496 02f2 069B     		ldr	r3, [sp, #24]
 497              	@ 586 "../../../../../../ChibiOS/os/ext/CMSIS/include/core_cmInstr.h" 1
 498 02f4 93FAA3F3 		rbit r3, r3
 499              	@ 0 "" 2
 500              		.thumb
 501 02f8 0593     		str	r3, [sp, #20]
 502              		.loc 2 599 0
 503 02fa 059B     		ldr	r3, [sp, #20]
 504              	.LBE69:
 505              	.LBE68:
 506              		.loc 1 469 0
 507 02fc B3FA83F3 		clz	r3, r3
 508 0300 9A40     		lsls	r2, r2, r3
 509              		.loc 1 470 0
 510 0302 019B     		ldr	r3, [sp, #4]
 511 0304 596B     		ldr	r1, [r3, #52]
 512 0306 0223     		movs	r3, #2
 513 0308 0493     		str	r3, [sp, #16]
ARM GAS  /tmp/ccrsTBIG.s 			page 10


 514              	.LBB70:
 515              	.LBB71:
 516              		.loc 2 586 0
 517 030a 049B     		ldr	r3, [sp, #16]
 518              	@ 586 "../../../../../../ChibiOS/os/ext/CMSIS/include/core_cmInstr.h" 1
 519 030c 93FAA3F3 		rbit r3, r3
 520              	@ 0 "" 2
 521              		.thumb
 522 0310 0393     		str	r3, [sp, #12]
 523              		.loc 2 599 0
 524 0312 039B     		ldr	r3, [sp, #12]
 525              	.LBE71:
 526              	.LBE70:
 527              		.loc 1 470 0
 528 0314 B3FA83F3 		clz	r3, r3
 529 0318 01FA03F3 		lsl	r3, r1, r3
 530              		.loc 1 468 0
 531 031c 1343     		orrs	r3, r3, r2
 532 031e 0E93     		str	r3, [sp, #56]
 533              		.loc 1 472 0
 534 0320 019B     		ldr	r3, [sp, #4]
 535 0322 1A68     		ldr	r2, [r3]
 536 0324 019B     		ldr	r3, [sp, #4]
 537 0326 1B68     		ldr	r3, [r3]
 538 0328 DB68     		ldr	r3, [r3, #12]
 539 032a 23F48043 		bic	r3, r3, #16384
 540 032e 23F00203 		bic	r3, r3, #2
 541 0332 0E99     		ldr	r1, [sp, #56]
 542 0334 0B43     		orrs	r3, r3, r1
 543 0336 D360     		str	r3, [r2, #12]
 544              		.loc 1 475 0
 545 0338 019B     		ldr	r3, [sp, #4]
 546 033a DB6B     		ldr	r3, [r3, #60]
 547 033c 012B     		cmp	r3, #1
 548 033e 1BD1     		bne	.L39
 549              		.loc 1 482 0
 550 0340 019B     		ldr	r3, [sp, #4]
 551 0342 DB6A     		ldr	r3, [r3, #44]
 552 0344 012B     		cmp	r3, #1
 553              		.loc 1 495 0
 554 0346 019B     		ldr	r3, [sp, #4]
 555 0348 1A68     		ldr	r2, [r3]
 556 034a 019B     		ldr	r3, [sp, #4]
 557 034c 1B68     		ldr	r3, [r3]
 558 034e 1B69     		ldr	r3, [r3, #16]
 559 0350 23F4FF63 		bic	r3, r3, #2040
 560 0354 23F00503 		bic	r3, r3, #5
 561 0358 0199     		ldr	r1, [sp, #4]
 562 035a 086C     		ldr	r0, [r1, #64]
 563 035c 0199     		ldr	r1, [sp, #4]
 564 035e 496C     		ldr	r1, [r1, #68]
 565 0360 0843     		orrs	r0, r0, r1
 566 0362 0199     		ldr	r1, [sp, #4]
 567 0364 896C     		ldr	r1, [r1, #72]
 568 0366 0843     		orrs	r0, r0, r1
 569 0368 0199     		ldr	r1, [sp, #4]
 570 036a C96C     		ldr	r1, [r1, #76]
ARM GAS  /tmp/ccrsTBIG.s 			page 11


 571 036c 0143     		orrs	r1, r1, r0
 572 036e 0B43     		orrs	r3, r3, r1
 573 0370 43F00103 		orr	r3, r3, #1
 574 0374 1361     		str	r3, [r2, #16]
 575 0376 07E0     		b	.L36
 576              	.L39:
 577              		.loc 1 505 0
 578 0378 019B     		ldr	r3, [sp, #4]
 579 037a 1B68     		ldr	r3, [r3]
 580 037c 019A     		ldr	r2, [sp, #4]
 581 037e 1268     		ldr	r2, [r2]
 582 0380 1269     		ldr	r2, [r2, #16]
 583 0382 22F00102 		bic	r2, r2, #1
 584 0386 1A61     		str	r2, [r3, #16]
 585              	.L36:
 586              		.loc 1 523 0
 587 0388 019B     		ldr	r3, [sp, #4]
 588 038a 1B69     		ldr	r3, [r3, #16]
 589 038c 012B     		cmp	r3, #1
 590 038e 0CD1     		bne	.L41
 591              		.loc 1 526 0
 592 0390 019B     		ldr	r3, [sp, #4]
 593 0392 1B68     		ldr	r3, [r3]
 594 0394 019A     		ldr	r2, [sp, #4]
 595 0396 1268     		ldr	r2, [r2]
 596 0398 126B     		ldr	r2, [r2, #48]
 597 039a 22F00F01 		bic	r1, r2, #15
 598 039e 019A     		ldr	r2, [sp, #4]
 599 03a0 126A     		ldr	r2, [r2, #32]
 600 03a2 013A     		subs	r2, r2, #1
 601 03a4 0A43     		orrs	r2, r2, r1
 602 03a6 1A63     		str	r2, [r3, #48]
 603 03a8 07E0     		b	.L42
 604              	.L41:
 605              		.loc 1 530 0
 606 03aa 019B     		ldr	r3, [sp, #4]
 607 03ac 1B68     		ldr	r3, [r3]
 608 03ae 019A     		ldr	r2, [sp, #4]
 609 03b0 1268     		ldr	r2, [r2]
 610 03b2 126B     		ldr	r2, [r2, #48]
 611 03b4 22F00F02 		bic	r2, r2, #15
 612 03b8 1A63     		str	r2, [r3, #48]
 613              	.L42:
 614              		.loc 1 536 0
 615 03ba 019B     		ldr	r3, [sp, #4]
 616 03bc 9B6D     		ldr	r3, [r3, #88]
 617 03be 23F00303 		bic	r3, r3, #3
 618 03c2 43F00102 		orr	r2, r3, #1
 619 03c6 019B     		ldr	r3, [sp, #4]
 620 03c8 9A65     		str	r2, [r3, #88]
 621 03ca 08E0     		b	.L43
 622              	.L11:
 623              		.loc 1 541 0
 624 03cc 019B     		ldr	r3, [sp, #4]
 625 03ce 9B6D     		ldr	r3, [r3, #88]
 626 03d0 43F01002 		orr	r2, r3, #16
 627 03d4 019B     		ldr	r3, [sp, #4]
ARM GAS  /tmp/ccrsTBIG.s 			page 12


 628 03d6 9A65     		str	r2, [r3, #88]
 629              		.loc 1 543 0
 630 03d8 0123     		movs	r3, #1
 631 03da 8DF83F30 		strb	r3, [sp, #63]
 632              	.L43:
 633              		.loc 1 548 0
 634 03de 9DF83F30 		ldrb	r3, [sp, #63]	@ zero_extendqisi2
 635              	.L3:
 636              		.loc 1 550 0
 637 03e2 1846     		mov	r0, r3
 638 03e4 11B0     		add	sp, sp, #68
 639              		@ sp needed
 640 03e6 5DF804FB 		ldr	pc, [sp], #4
 641              	.L47:
 642 03ea 00BF     		.align	2
 643              	.L46:
 644 03ec 07C0F0FF 		.word	-999417
 645              		.cfi_endproc
 646              	.LFE125:
 647              		.size	HAL_ADC_Init, .-HAL_ADC_Init
 648              		.align	2
 649              		.p2align 4,,15
 650              		.global	HAL_ADC_DeInit
 651              		.thumb
 652              		.thumb_func
 653              		.type	HAL_ADC_DeInit, %function
 654              	HAL_ADC_DeInit:
 655              	.LFB126:
 656              		.loc 1 564 0
 657              		.cfi_startproc
 658              		@ args = 0, pretend = 0, frame = 8
 659              		@ frame_needed = 0, uses_anonymous_args = 0
 660 03f0 00B5     		push	{lr}
 661              		.cfi_def_cfa_offset 4
 662              		.cfi_offset 14, -4
 663 03f2 83B0     		sub	sp, sp, #12
 664              		.cfi_def_cfa_offset 16
 665 03f4 0190     		str	r0, [sp, #4]
 666              		.loc 1 566 0
 667 03f6 019B     		ldr	r3, [sp, #4]
 668 03f8 002B     		cmp	r3, #0
 669 03fa 01D1     		bne	.L49
 670              		.loc 1 568 0
 671 03fc 0123     		movs	r3, #1
 672 03fe 91E1     		b	.L50
 673              	.L49:
 674              		.loc 1 575 0
 675 0400 019B     		ldr	r3, [sp, #4]
 676 0402 9B6D     		ldr	r3, [r3, #88]
 677 0404 43F00202 		orr	r2, r3, #2
 678 0408 019B     		ldr	r3, [sp, #4]
 679 040a 9A65     		str	r2, [r3, #88]
 680              		.loc 1 580 0
 681 040c 0198     		ldr	r0, [sp, #4]
 682 040e 6C21     		movs	r1, #108
 683 0410 FFF7FEFF 		bl	ADC_ConversionStop
 684              		.loc 1 589 0
ARM GAS  /tmp/ccrsTBIG.s 			page 13


 685 0414 019B     		ldr	r3, [sp, #4]
 686 0416 1B68     		ldr	r3, [r3]
 687 0418 019A     		ldr	r2, [sp, #4]
 688 041a 1268     		ldr	r2, [r2]
 689 041c D268     		ldr	r2, [r2, #12]
 690 041e 42F40012 		orr	r2, r2, #2097152
 691 0422 DA60     		str	r2, [r3, #12]
 692              		.loc 1 594 0
 693 0424 0198     		ldr	r0, [sp, #4]
 694 0426 FFF7FEFF 		bl	ADC_Disable
 695              		.loc 1 599 0
 696 042a 019B     		ldr	r3, [sp, #4]
 697 042c 1A68     		ldr	r2, [r3]
 698 042e 019B     		ldr	r3, [sp, #4]
 699 0430 1B68     		ldr	r3, [r3]
 700 0432 5B68     		ldr	r3, [r3, #4]
 701 0434 23F4FF63 		bic	r3, r3, #2040
 702 0438 23F00703 		bic	r3, r3, #7
 703 043c 5360     		str	r3, [r2, #4]
 704              		.loc 1 606 0
 705 043e 019B     		ldr	r3, [sp, #4]
 706 0440 1B68     		ldr	r3, [r3]
 707 0442 40F2FF72 		movw	r2, #2047
 708 0446 1A60     		str	r2, [r3]
 709              		.loc 1 617 0
 710 0448 019B     		ldr	r3, [sp, #4]
 711 044a 1B68     		ldr	r3, [r3]
 712 044c 019A     		ldr	r2, [sp, #4]
 713 044e 1268     		ldr	r2, [r2]
 714 0450 9268     		ldr	r2, [r2, #8]
 715 0452 22F0A042 		bic	r2, r2, #1342177280
 716 0456 9A60     		str	r2, [r3, #8]
 717              		.loc 1 618 0
 718 0458 019B     		ldr	r3, [sp, #4]
 719 045a 1B68     		ldr	r3, [r3]
 720 045c 019A     		ldr	r2, [sp, #4]
 721 045e 1268     		ldr	r2, [r2]
 722 0460 9268     		ldr	r2, [r2, #8]
 723 0462 42F00052 		orr	r2, r2, #536870912
 724 0466 9A60     		str	r2, [r3, #8]
 725              		.loc 1 621 0
 726 0468 019B     		ldr	r3, [sp, #4]
 727 046a 1A68     		ldr	r2, [r3]
 728 046c 019B     		ldr	r3, [sp, #4]
 729 046e 1B68     		ldr	r3, [r3]
 730 0470 D968     		ldr	r1, [r3, #12]
 731 0472 944B     		ldr	r3, .L71
 732 0474 0B40     		ands	r3, r3, r1
 733 0476 D360     		str	r3, [r2, #12]
 734              		.loc 1 622 0
 735 0478 019B     		ldr	r3, [sp, #4]
 736 047a 1B68     		ldr	r3, [r3]
 737 047c 019A     		ldr	r2, [sp, #4]
 738 047e 1268     		ldr	r2, [r2]
 739 0480 D268     		ldr	r2, [r2, #12]
 740 0482 42F00042 		orr	r2, r2, #-2147483648
 741 0486 DA60     		str	r2, [r3, #12]
ARM GAS  /tmp/ccrsTBIG.s 			page 14


 742              		.loc 1 625 0
 743 0488 019B     		ldr	r3, [sp, #4]
 744 048a 1A68     		ldr	r2, [r3]
 745 048c 019B     		ldr	r3, [sp, #4]
 746 048e 1B68     		ldr	r3, [r3]
 747 0490 1B69     		ldr	r3, [r3, #16]
 748 0492 23F4FF63 		bic	r3, r3, #2040
 749 0496 23F00703 		bic	r3, r3, #7
 750 049a 1361     		str	r3, [r2, #16]
 751              		.loc 1 629 0
 752 049c 019B     		ldr	r3, [sp, #4]
 753 049e 1B68     		ldr	r3, [r3]
 754 04a0 019A     		ldr	r2, [sp, #4]
 755 04a2 1268     		ldr	r2, [r2]
 756 04a4 5269     		ldr	r2, [r2, #20]
 757 04a6 02F04042 		and	r2, r2, #-1073741824
 758 04aa 5A61     		str	r2, [r3, #20]
 759              		.loc 1 632 0
 760 04ac 019B     		ldr	r3, [sp, #4]
 761 04ae 1B68     		ldr	r3, [r3]
 762 04b0 019A     		ldr	r2, [sp, #4]
 763 04b2 1268     		ldr	r2, [r2]
 764 04b4 9269     		ldr	r2, [r2, #24]
 765 04b6 02F07842 		and	r2, r2, #-134217728
 766 04ba 9A61     		str	r2, [r3, #24]
 767              		.loc 1 637 0
 768 04bc 019B     		ldr	r3, [sp, #4]
 769 04be 1B68     		ldr	r3, [r3]
 770 04c0 019A     		ldr	r2, [sp, #4]
 771 04c2 1268     		ldr	r2, [r2]
 772 04c4 126A     		ldr	r2, [r2, #32]
 773 04c6 02F0F022 		and	r2, r2, #-268374016
 774 04ca 1A62     		str	r2, [r3, #32]
 775              		.loc 1 640 0
 776 04cc 019B     		ldr	r3, [sp, #4]
 777 04ce 1B68     		ldr	r3, [r3]
 778 04d0 019A     		ldr	r2, [sp, #4]
 779 04d2 1268     		ldr	r2, [r2]
 780 04d4 526A     		ldr	r2, [r2, #36]
 781 04d6 02F0FF22 		and	r2, r2, #-16711936
 782 04da 5A62     		str	r2, [r3, #36]
 783              		.loc 1 643 0
 784 04dc 019B     		ldr	r3, [sp, #4]
 785 04de 1B68     		ldr	r3, [r3]
 786 04e0 019A     		ldr	r2, [sp, #4]
 787 04e2 1268     		ldr	r2, [r2]
 788 04e4 926A     		ldr	r2, [r2, #40]
 789 04e6 02F0FF22 		and	r2, r2, #-16711936
 790 04ea 9A62     		str	r2, [r3, #40]
 791              		.loc 1 646 0
 792 04ec 019B     		ldr	r3, [sp, #4]
 793 04ee 1A68     		ldr	r2, [r3]
 794 04f0 019B     		ldr	r3, [sp, #4]
 795 04f2 1B68     		ldr	r3, [r3]
 796 04f4 196B     		ldr	r1, [r3, #48]
 797 04f6 744B     		ldr	r3, .L71+4
 798 04f8 0B40     		ands	r3, r3, r1
ARM GAS  /tmp/ccrsTBIG.s 			page 15


 799 04fa 1363     		str	r3, [r2, #48]
 800              		.loc 1 650 0
 801 04fc 019B     		ldr	r3, [sp, #4]
 802 04fe 1A68     		ldr	r2, [r3]
 803 0500 019B     		ldr	r3, [sp, #4]
 804 0502 1B68     		ldr	r3, [r3]
 805 0504 596B     		ldr	r1, [r3, #52]
 806 0506 714B     		ldr	r3, .L71+8
 807 0508 0B40     		ands	r3, r3, r1
 808 050a 5363     		str	r3, [r2, #52]
 809              		.loc 1 654 0
 810 050c 019B     		ldr	r3, [sp, #4]
 811 050e 1A68     		ldr	r2, [r3]
 812 0510 019B     		ldr	r3, [sp, #4]
 813 0512 1B68     		ldr	r3, [r3]
 814 0514 996B     		ldr	r1, [r3, #56]
 815 0516 6D4B     		ldr	r3, .L71+8
 816 0518 0B40     		ands	r3, r3, r1
 817 051a 9363     		str	r3, [r2, #56]
 818              		.loc 1 658 0
 819 051c 019B     		ldr	r3, [sp, #4]
 820 051e 1A68     		ldr	r2, [r3]
 821 0520 019B     		ldr	r3, [sp, #4]
 822 0522 1B68     		ldr	r3, [r3]
 823 0524 DB6B     		ldr	r3, [r3, #60]
 824 0526 23F4FB63 		bic	r3, r3, #2008
 825 052a 23F00703 		bic	r3, r3, #7
 826 052e D363     		str	r3, [r2, #60]
 827              		.loc 1 666 0
 828 0530 019B     		ldr	r3, [sp, #4]
 829 0532 1A68     		ldr	r2, [r3]
 830 0534 019B     		ldr	r3, [sp, #4]
 831 0536 1B68     		ldr	r3, [r3]
 832 0538 196E     		ldr	r1, [r3, #96]
 833 053a 654B     		ldr	r3, .L71+12
 834 053c 0B40     		ands	r3, r3, r1
 835 053e 1366     		str	r3, [r2, #96]
 836              		.loc 1 668 0
 837 0540 019B     		ldr	r3, [sp, #4]
 838 0542 1A68     		ldr	r2, [r3]
 839 0544 019B     		ldr	r3, [sp, #4]
 840 0546 1B68     		ldr	r3, [r3]
 841 0548 596E     		ldr	r1, [r3, #100]
 842 054a 614B     		ldr	r3, .L71+12
 843 054c 0B40     		ands	r3, r3, r1
 844 054e 5366     		str	r3, [r2, #100]
 845              		.loc 1 670 0
 846 0550 019B     		ldr	r3, [sp, #4]
 847 0552 1A68     		ldr	r2, [r3]
 848 0554 019B     		ldr	r3, [sp, #4]
 849 0556 1B68     		ldr	r3, [r3]
 850 0558 996E     		ldr	r1, [r3, #104]
 851 055a 5D4B     		ldr	r3, .L71+12
 852 055c 0B40     		ands	r3, r3, r1
 853 055e 9366     		str	r3, [r2, #104]
 854              		.loc 1 672 0
 855 0560 019B     		ldr	r3, [sp, #4]
ARM GAS  /tmp/ccrsTBIG.s 			page 16


 856 0562 1A68     		ldr	r2, [r3]
 857 0564 019B     		ldr	r3, [sp, #4]
 858 0566 1B68     		ldr	r3, [r3]
 859 0568 D96E     		ldr	r1, [r3, #108]
 860 056a 594B     		ldr	r3, .L71+12
 861 056c 0B40     		ands	r3, r3, r1
 862 056e D366     		str	r3, [r2, #108]
 863              		.loc 1 678 0
 864 0570 019B     		ldr	r3, [sp, #4]
 865 0572 1A68     		ldr	r2, [r3]
 866 0574 019B     		ldr	r3, [sp, #4]
 867 0576 1B68     		ldr	r3, [r3]
 868 0578 D3F8A030 		ldr	r3, [r3, #160]
 869 057c DB0C     		lsrs	r3, r3, #19
 870 057e DB04     		lsls	r3, r3, #19
 871 0580 C2F8A030 		str	r3, [r2, #160]
 872              		.loc 1 681 0
 873 0584 019B     		ldr	r3, [sp, #4]
 874 0586 1A68     		ldr	r2, [r3]
 875 0588 019B     		ldr	r3, [sp, #4]
 876 058a 1B68     		ldr	r3, [r3]
 877 058c D3F8A430 		ldr	r3, [r3, #164]
 878 0590 DB0C     		lsrs	r3, r3, #19
 879 0592 DB04     		lsls	r3, r3, #19
 880 0594 C2F8A430 		str	r3, [r2, #164]
 881              		.loc 1 684 0
 882 0598 019B     		ldr	r3, [sp, #4]
 883 059a 1A68     		ldr	r2, [r3]
 884 059c 019B     		ldr	r3, [sp, #4]
 885 059e 1B68     		ldr	r3, [r3]
 886 05a0 D3F8B030 		ldr	r3, [r3, #176]
 887 05a4 DB0C     		lsrs	r3, r3, #19
 888 05a6 DB04     		lsls	r3, r3, #19
 889 05a8 C2F8B030 		str	r3, [r2, #176]
 890              		.loc 1 687 0
 891 05ac 019B     		ldr	r3, [sp, #4]
 892 05ae 1B68     		ldr	r3, [r3]
 893 05b0 019A     		ldr	r2, [sp, #4]
 894 05b2 1268     		ldr	r2, [r2]
 895 05b4 D2F8B420 		ldr	r2, [r2, #180]
 896 05b8 22F07F12 		bic	r2, r2, #8323199
 897 05bc C3F8B420 		str	r2, [r3, #180]
 898              		.loc 1 698 0
 899 05c0 019B     		ldr	r3, [sp, #4]
 900 05c2 1B68     		ldr	r3, [r3]
 901 05c4 9B68     		ldr	r3, [r3, #8]
 902 05c6 03F00303 		and	r3, r3, #3
 903 05ca 012B     		cmp	r3, #1
 904 05cc 08D1     		bne	.L51
 905              		.loc 1 698 0 is_stmt 0 discriminator 1
 906 05ce 019B     		ldr	r3, [sp, #4]
 907 05d0 1B68     		ldr	r3, [r3]
 908 05d2 1B68     		ldr	r3, [r3]
 909 05d4 03F00103 		and	r3, r3, #1
 910 05d8 002B     		cmp	r3, #0
 911 05da 01D0     		beq	.L51
 912              		.loc 1 698 0 discriminator 3
ARM GAS  /tmp/ccrsTBIG.s 			page 17


 913 05dc 0123     		movs	r3, #1
 914 05de 00E0     		b	.L52
 915              	.L51:
 916              		.loc 1 698 0 discriminator 2
 917 05e0 0023     		movs	r3, #0
 918              	.L52:
 919              		.loc 1 698 0 discriminator 4
 920 05e2 002B     		cmp	r3, #0
 921 05e4 40F08A80 		bne	.L53
 922              		.loc 1 699 0 is_stmt 1
 923 05e8 019B     		ldr	r3, [sp, #4]
 924 05ea 1A68     		ldr	r2, [r3]
 925 05ec 394B     		ldr	r3, .L71+16
 926 05ee 9A42     		cmp	r2, r3
 927 05f0 20D1     		bne	.L54
 928              		.loc 1 699 0 is_stmt 0 discriminator 1
 929 05f2 394B     		ldr	r3, .L71+20
 930 05f4 9B68     		ldr	r3, [r3, #8]
 931 05f6 03F00303 		and	r3, r3, #3
 932 05fa 012B     		cmp	r3, #1
 933 05fc 05D1     		bne	.L55
 934 05fe 364B     		ldr	r3, .L71+20
 935 0600 1B68     		ldr	r3, [r3]
 936 0602 03F00103 		and	r3, r3, #1
 937 0606 002B     		cmp	r3, #0
 938 0608 0BD1     		bne	.L56
 939              	.L55:
 940              		.loc 1 699 0 discriminator 2
 941 060a 344B     		ldr	r3, .L71+24
 942 060c 9B68     		ldr	r3, [r3, #8]
 943 060e 03F00303 		and	r3, r3, #3
 944 0612 012B     		cmp	r3, #1
 945 0614 07D1     		bne	.L57
 946              		.loc 1 699 0 discriminator 4
 947 0616 314B     		ldr	r3, .L71+24
 948 0618 1B68     		ldr	r3, [r3]
 949 061a 03F00103 		and	r3, r3, #1
 950 061e 002B     		cmp	r3, #0
 951 0620 01D0     		beq	.L57
 952              	.L56:
 953              		.loc 1 699 0 discriminator 3
 954 0622 0123     		movs	r3, #1
 955 0624 00E0     		b	.L58
 956              	.L57:
 957              		.loc 1 699 0 discriminator 5
 958 0626 0023     		movs	r3, #0
 959              	.L58:
 960              		.loc 1 699 0 discriminator 6
 961 0628 002B     		cmp	r3, #0
 962 062a 14BF     		ite	ne
 963 062c 0023     		movne	r3, #0
 964 062e 0123     		moveq	r3, #1
 965 0630 DBB2     		uxtb	r3, r3
 966 0632 5BE0     		b	.L59
 967              	.L54:
 968              		.loc 1 699 0 discriminator 2
 969 0634 019B     		ldr	r3, [sp, #4]
ARM GAS  /tmp/ccrsTBIG.s 			page 18


 970 0636 1A68     		ldr	r2, [r3]
 971 0638 274B     		ldr	r3, .L71+20
 972 063a 9A42     		cmp	r2, r3
 973 063c 20D1     		bne	.L60
 974              		.loc 1 699 0 discriminator 1
 975 063e 254B     		ldr	r3, .L71+16
 976 0640 9B68     		ldr	r3, [r3, #8]
 977 0642 03F00303 		and	r3, r3, #3
 978 0646 012B     		cmp	r3, #1
 979 0648 05D1     		bne	.L61
 980 064a 224B     		ldr	r3, .L71+16
 981 064c 1B68     		ldr	r3, [r3]
 982 064e 03F00103 		and	r3, r3, #1
 983 0652 002B     		cmp	r3, #0
 984 0654 0BD1     		bne	.L62
 985              	.L61:
 986              		.loc 1 699 0 discriminator 2
 987 0656 214B     		ldr	r3, .L71+24
 988 0658 9B68     		ldr	r3, [r3, #8]
 989 065a 03F00303 		and	r3, r3, #3
 990 065e 012B     		cmp	r3, #1
 991 0660 07D1     		bne	.L63
 992              		.loc 1 699 0 discriminator 4
 993 0662 1E4B     		ldr	r3, .L71+24
 994 0664 1B68     		ldr	r3, [r3]
 995 0666 03F00103 		and	r3, r3, #1
 996 066a 002B     		cmp	r3, #0
 997 066c 01D0     		beq	.L63
 998              	.L62:
 999              		.loc 1 699 0 discriminator 3
 1000 066e 0123     		movs	r3, #1
 1001 0670 00E0     		b	.L64
 1002              	.L63:
 1003              		.loc 1 699 0 discriminator 5
 1004 0672 0023     		movs	r3, #0
 1005              	.L64:
 1006              		.loc 1 699 0 discriminator 6
 1007 0674 03F00103 		and	r3, r3, #1
 1008 0678 DBB2     		uxtb	r3, r3
 1009 067a 002B     		cmp	r3, #0
 1010 067c 20D1     		bne	.L65
 1011 067e 13E0     		b	.L66
 1012              	.L60:
 1013              		.loc 1 699 0 discriminator 2
 1014 0680 144B     		ldr	r3, .L71+16
 1015 0682 9B68     		ldr	r3, [r3, #8]
 1016 0684 03F00303 		and	r3, r3, #3
 1017 0688 012B     		cmp	r3, #1
 1018 068a 07D1     		bne	.L67
 1019              		.loc 1 699 0 discriminator 4
 1020 068c 114B     		ldr	r3, .L71+16
 1021 068e 1B68     		ldr	r3, [r3]
 1022 0690 03F00103 		and	r3, r3, #1
 1023 0694 002B     		cmp	r3, #0
 1024 0696 01D0     		beq	.L67
 1025              		.loc 1 699 0 discriminator 6
 1026 0698 0123     		movs	r3, #1
ARM GAS  /tmp/ccrsTBIG.s 			page 19


 1027 069a 00E0     		b	.L68
 1028              	.L67:
 1029              		.loc 1 699 0 discriminator 5
 1030 069c 0023     		movs	r3, #0
 1031              	.L68:
 1032              		.loc 1 699 0 discriminator 7
 1033 069e 03F00103 		and	r3, r3, #1
 1034 06a2 DBB2     		uxtb	r3, r3
 1035 06a4 002B     		cmp	r3, #0
 1036 06a6 0BD1     		bne	.L65
 1037              	.L66:
 1038              		.loc 1 699 0 discriminator 8
 1039 06a8 0B4B     		ldr	r3, .L71+20
 1040 06aa 9B68     		ldr	r3, [r3, #8]
 1041 06ac 03F00303 		and	r3, r3, #3
 1042 06b0 012B     		cmp	r3, #1
 1043 06b2 15D1     		bne	.L69
 1044              		.loc 1 699 0 discriminator 9
 1045 06b4 084B     		ldr	r3, .L71+20
 1046 06b6 1B68     		ldr	r3, [r3]
 1047 06b8 03F00103 		and	r3, r3, #1
 1048 06bc 002B     		cmp	r3, #0
 1049 06be 0FD0     		beq	.L69
 1050              	.L65:
 1051              		.loc 1 699 0 discriminator 3
 1052 06c0 0123     		movs	r3, #1
 1053 06c2 0EE0     		b	.L70
 1054              	.L72:
 1055              		.align	2
 1056              	.L71:
 1057 06c4 04800080 		.word	-2147450876
 1058 06c8 300882E0 		.word	-528349136
 1059 06cc 200882E0 		.word	-528349152
 1060 06d0 00F0FF03 		.word	67104768
 1061 06d4 00000450 		.word	1342439424
 1062 06d8 00010450 		.word	1342439680
 1063 06dc 00020450 		.word	1342439936
 1064              	.L69:
 1065              		.loc 1 699 0 discriminator 10
 1066 06e0 0023     		movs	r3, #0
 1067              	.L70:
 1068              		.loc 1 699 0 discriminator 11
 1069 06e2 002B     		cmp	r3, #0
 1070 06e4 14BF     		ite	ne
 1071 06e6 0023     		movne	r3, #0
 1072 06e8 0123     		moveq	r3, #1
 1073 06ea DBB2     		uxtb	r3, r3
 1074              	.L59:
 1075              		.loc 1 698 0 is_stmt 1
 1076 06ec 002B     		cmp	r3, #0
 1077 06ee 05D0     		beq	.L53
 1078              		.loc 1 708 0
 1079 06f0 0E4A     		ldr	r2, .L73
 1080 06f2 0E4B     		ldr	r3, .L73
 1081 06f4 9968     		ldr	r1, [r3, #8]
 1082 06f6 0E4B     		ldr	r3, .L73+4
 1083 06f8 0B40     		ands	r3, r3, r1
ARM GAS  /tmp/ccrsTBIG.s 			page 20


 1084 06fa 9360     		str	r3, [r2, #8]
 1085              	.L53:
 1086              		.loc 1 722 0
 1087 06fc 0198     		ldr	r0, [sp, #4]
 1088 06fe FFF7FEFF 		bl	HAL_ADC_MspDeInit
 1089              		.loc 1 725 0
 1090 0702 019B     		ldr	r3, [sp, #4]
 1091 0704 0022     		movs	r2, #0
 1092 0706 DA65     		str	r2, [r3, #92]
 1093              		.loc 1 728 0
 1094 0708 019B     		ldr	r3, [sp, #4]
 1095 070a 0022     		movs	r2, #0
 1096 070c 1A66     		str	r2, [r3, #96]
 1097              		.loc 1 729 0
 1098 070e 019B     		ldr	r3, [sp, #4]
 1099 0710 0022     		movs	r2, #0
 1100 0712 5A66     		str	r2, [r3, #100]
 1101              		.loc 1 732 0
 1102 0714 019B     		ldr	r3, [sp, #4]
 1103 0716 0022     		movs	r2, #0
 1104 0718 9A65     		str	r2, [r3, #88]
 1105              		.loc 1 735 0
 1106 071a 019B     		ldr	r3, [sp, #4]
 1107 071c 0022     		movs	r2, #0
 1108 071e 83F85420 		strb	r2, [r3, #84]
 1109              		.loc 1 739 0
 1110 0722 0023     		movs	r3, #0
 1111              	.L50:
 1112              		.loc 1 741 0
 1113 0724 1846     		mov	r0, r3
 1114 0726 03B0     		add	sp, sp, #12
 1115              		@ sp needed
 1116 0728 5DF804FB 		ldr	pc, [sp], #4
 1117              	.L74:
 1118              		.align	2
 1119              	.L73:
 1120 072c 00030450 		.word	1342440192
 1121 0730 E01000FE 		.word	-33550112
 1122              		.cfi_endproc
 1123              	.LFE126:
 1124              		.size	HAL_ADC_DeInit, .-HAL_ADC_DeInit
 1125              		.align	2
 1126 0734 AFF30080 		.p2align 4,,15
 1126      AFF30080 
 1126      AFF30080 
 1127              		.weak	HAL_ADC_MspInit
 1128              		.thumb
 1129              		.thumb_func
 1130              		.type	HAL_ADC_MspInit, %function
 1131              	HAL_ADC_MspInit:
 1132              	.LFB127:
 1133              		.loc 1 749 0
 1134              		.cfi_startproc
 1135              		@ args = 0, pretend = 0, frame = 8
 1136              		@ frame_needed = 0, uses_anonymous_args = 0
 1137              		@ link register save eliminated.
 1138 0740 82B0     		sub	sp, sp, #8
ARM GAS  /tmp/ccrsTBIG.s 			page 21


 1139              		.cfi_def_cfa_offset 8
 1140 0742 0190     		str	r0, [sp, #4]
 1141              		.loc 1 756 0
 1142 0744 02B0     		add	sp, sp, #8
 1143              		@ sp needed
 1144 0746 7047     		bx	lr
 1145              		.cfi_endproc
 1146              	.LFE127:
 1147              		.size	HAL_ADC_MspInit, .-HAL_ADC_MspInit
 1148              		.align	2
 1149 0748 AFF30080 		.p2align 4,,15
 1149      AFF30080 
 1150              		.weak	HAL_ADC_MspDeInit
 1151              		.thumb
 1152              		.thumb_func
 1153              		.type	HAL_ADC_MspDeInit, %function
 1154              	HAL_ADC_MspDeInit:
 1155              	.LFB128:
 1156              		.loc 1 765 0
 1157              		.cfi_startproc
 1158              		@ args = 0, pretend = 0, frame = 8
 1159              		@ frame_needed = 0, uses_anonymous_args = 0
 1160              		@ link register save eliminated.
 1161 0750 82B0     		sub	sp, sp, #8
 1162              		.cfi_def_cfa_offset 8
 1163 0752 0190     		str	r0, [sp, #4]
 1164              		.loc 1 772 0
 1165 0754 02B0     		add	sp, sp, #8
 1166              		@ sp needed
 1167 0756 7047     		bx	lr
 1168              		.cfi_endproc
 1169              	.LFE128:
 1170              		.size	HAL_ADC_MspDeInit, .-HAL_ADC_MspDeInit
 1171              		.align	2
 1172 0758 AFF30080 		.p2align 4,,15
 1172      AFF30080 
 1173              		.global	HAL_ADC_Start
 1174              		.thumb
 1175              		.thumb_func
 1176              		.type	HAL_ADC_Start, %function
 1177              	HAL_ADC_Start:
 1178              	.LFB129:
 1179              		.loc 1 811 0
 1180              		.cfi_startproc
 1181              		@ args = 0, pretend = 0, frame = 16
 1182              		@ frame_needed = 0, uses_anonymous_args = 0
 1183 0760 00B5     		push	{lr}
 1184              		.cfi_def_cfa_offset 4
 1185              		.cfi_offset 14, -4
 1186 0762 85B0     		sub	sp, sp, #20
 1187              		.cfi_def_cfa_offset 24
 1188 0764 0190     		str	r0, [sp, #4]
 1189              		.loc 1 813 0
 1190 0766 0023     		movs	r3, #0
 1191 0768 8DF80F30 		strb	r3, [sp, #15]
 1192              		.loc 1 821 0
 1193 076c 019B     		ldr	r3, [sp, #4]
ARM GAS  /tmp/ccrsTBIG.s 			page 22


 1194 076e 1B68     		ldr	r3, [r3]
 1195 0770 9B68     		ldr	r3, [r3, #8]
 1196 0772 03F00403 		and	r3, r3, #4
 1197 0776 002B     		cmp	r3, #0
 1198 0778 01D0     		beq	.L78
 1199              		.loc 1 823 0
 1200 077a 0223     		movs	r3, #2
 1201 077c AFE0     		b	.L79
 1202              	.L78:
 1203              		.loc 1 828 0
 1204 077e 019B     		ldr	r3, [sp, #4]
 1205 0780 93F85430 		ldrb	r3, [r3, #84]	@ zero_extendqisi2
 1206 0784 012B     		cmp	r3, #1
 1207 0786 01D1     		bne	.L80
 1208              		.loc 1 828 0 is_stmt 0 discriminator 1
 1209 0788 0223     		movs	r3, #2
 1210 078a A8E0     		b	.L79
 1211              	.L80:
 1212              		.loc 1 828 0 discriminator 2
 1213 078c 019B     		ldr	r3, [sp, #4]
 1214 078e 0122     		movs	r2, #1
 1215 0790 83F85420 		strb	r2, [r3, #84]
 1216              		.loc 1 831 0 is_stmt 1 discriminator 2
 1217 0794 0198     		ldr	r0, [sp, #4]
 1218 0796 FFF7FEFF 		bl	ADC_Enable
 1219 079a 0346     		mov	r3, r0
 1220 079c 8DF80F30 		strb	r3, [sp, #15]
 1221              		.loc 1 834 0 discriminator 2
 1222 07a0 9DF80F30 		ldrb	r3, [sp, #15]	@ zero_extendqisi2
 1223 07a4 002B     		cmp	r3, #0
 1224 07a6 40F09480 		bne	.L81
 1225              		.loc 1 837 0
 1226 07aa 019B     		ldr	r3, [sp, #4]
 1227 07ac 9B6D     		ldr	r3, [r3, #88]
 1228 07ae 03F48053 		and	r3, r3, #4096
 1229 07b2 002B     		cmp	r3, #0
 1230 07b4 06D0     		beq	.L82
 1231              		.loc 1 840 0
 1232 07b6 019B     		ldr	r3, [sp, #4]
 1233 07b8 DB6D     		ldr	r3, [r3, #92]
 1234 07ba 23F00602 		bic	r2, r3, #6
 1235 07be 019B     		ldr	r3, [sp, #4]
 1236 07c0 DA65     		str	r2, [r3, #92]
 1237 07c2 02E0     		b	.L83
 1238              	.L82:
 1239              		.loc 1 845 0
 1240 07c4 019B     		ldr	r3, [sp, #4]
 1241 07c6 0022     		movs	r2, #0
 1242 07c8 DA65     		str	r2, [r3, #92]
 1243              	.L83:
 1244              		.loc 1 848 0
 1245 07ca 019B     		ldr	r3, [sp, #4]
 1246 07cc 9B6D     		ldr	r3, [r3, #88]
 1247 07ce 23F47063 		bic	r3, r3, #3840
 1248 07d2 23F00103 		bic	r3, r3, #1
 1249 07d6 43F48072 		orr	r2, r3, #256
 1250 07da 019B     		ldr	r3, [sp, #4]
ARM GAS  /tmp/ccrsTBIG.s 			page 23


 1251 07dc 9A65     		str	r2, [r3, #88]
 1252              		.loc 1 853 0
 1253 07de 019B     		ldr	r3, [sp, #4]
 1254 07e0 1A68     		ldr	r2, [r3]
 1255 07e2 414B     		ldr	r3, .L95
 1256 07e4 9A42     		cmp	r2, r3
 1257 07e6 0AD0     		beq	.L84
 1258              		.loc 1 853 0 is_stmt 0 discriminator 1
 1259 07e8 019B     		ldr	r3, [sp, #4]
 1260 07ea 1A68     		ldr	r2, [r3]
 1261 07ec 3F4B     		ldr	r3, .L95+4
 1262 07ee 9A42     		cmp	r2, r3
 1263 07f0 05D0     		beq	.L84
 1264 07f2 3F4B     		ldr	r3, .L95+8
 1265 07f4 9B68     		ldr	r3, [r3, #8]
 1266 07f6 03F01F03 		and	r3, r3, #31
 1267 07fa 002B     		cmp	r3, #0
 1268 07fc 05D1     		bne	.L85
 1269              	.L84:
 1270              		.loc 1 855 0 is_stmt 1
 1271 07fe 019B     		ldr	r3, [sp, #4]
 1272 0800 9B6D     		ldr	r3, [r3, #88]
 1273 0802 23F48012 		bic	r2, r3, #1048576
 1274 0806 019B     		ldr	r3, [sp, #4]
 1275 0808 9A65     		str	r2, [r3, #88]
 1276              	.L85:
 1277              		.loc 1 860 0
 1278 080a 019B     		ldr	r3, [sp, #4]
 1279 080c 1B68     		ldr	r3, [r3]
 1280 080e 1C22     		movs	r2, #28
 1281 0810 1A60     		str	r2, [r3]
 1282              		.loc 1 870 0
 1283 0812 019B     		ldr	r3, [sp, #4]
 1284 0814 1A68     		ldr	r2, [r3]
 1285 0816 344B     		ldr	r3, .L95
 1286 0818 9A42     		cmp	r2, r3
 1287 081a 16D0     		beq	.L86
 1288              		.loc 1 870 0 is_stmt 0 discriminator 1
 1289 081c 019B     		ldr	r3, [sp, #4]
 1290 081e 1A68     		ldr	r2, [r3]
 1291 0820 324B     		ldr	r3, .L95+4
 1292 0822 9A42     		cmp	r2, r3
 1293 0824 11D0     		beq	.L86
 1294 0826 324B     		ldr	r3, .L95+8
 1295 0828 9B68     		ldr	r3, [r3, #8]
 1296 082a 03F01F03 		and	r3, r3, #31
 1297 082e 002B     		cmp	r3, #0
 1298 0830 0BD0     		beq	.L86
 1299 0832 2F4B     		ldr	r3, .L95+8
 1300 0834 9B68     		ldr	r3, [r3, #8]
 1301 0836 03F01F03 		and	r3, r3, #31
 1302 083a 052B     		cmp	r3, #5
 1303 083c 05D0     		beq	.L86
 1304 083e 2C4B     		ldr	r3, .L95+8
 1305 0840 9B68     		ldr	r3, [r3, #8]
 1306 0842 03F01F03 		and	r3, r3, #31
 1307 0846 092B     		cmp	r3, #9
ARM GAS  /tmp/ccrsTBIG.s 			page 24


 1308 0848 1BD1     		bne	.L87
 1309              	.L86:
 1310              		.loc 1 875 0 is_stmt 1
 1311 084a 019B     		ldr	r3, [sp, #4]
 1312 084c 1B68     		ldr	r3, [r3]
 1313 084e DB68     		ldr	r3, [r3, #12]
 1314 0850 03F00073 		and	r3, r3, #33554432
 1315 0854 002B     		cmp	r3, #0
 1316 0856 07D0     		beq	.L88
 1317              		.loc 1 877 0
 1318 0858 019B     		ldr	r3, [sp, #4]
 1319 085a 9B6D     		ldr	r3, [r3, #88]
 1320 085c 23F44053 		bic	r3, r3, #12288
 1321 0860 43F48052 		orr	r2, r3, #4096
 1322 0864 019B     		ldr	r3, [sp, #4]
 1323 0866 9A65     		str	r2, [r3, #88]
 1324              	.L88:
 1325              		.loc 1 880 0
 1326 0868 019B     		ldr	r3, [sp, #4]
 1327 086a 0022     		movs	r2, #0
 1328 086c 83F85420 		strb	r2, [r3, #84]
 1329              		.loc 1 882 0
 1330 0870 019B     		ldr	r3, [sp, #4]
 1331 0872 1B68     		ldr	r3, [r3]
 1332 0874 019A     		ldr	r2, [sp, #4]
 1333 0876 1268     		ldr	r2, [r2]
 1334 0878 9268     		ldr	r2, [r2, #8]
 1335 087a 42F00402 		orr	r2, r2, #4
 1336 087e 9A60     		str	r2, [r3, #8]
 1337 0880 2BE0     		b	.L94
 1338              	.L87:
 1339              		.loc 1 886 0
 1340 0882 019B     		ldr	r3, [sp, #4]
 1341 0884 9B6D     		ldr	r3, [r3, #88]
 1342 0886 43F48012 		orr	r2, r3, #1048576
 1343 088a 019B     		ldr	r3, [sp, #4]
 1344 088c 9A65     		str	r2, [r3, #88]
 1345              		.loc 1 889 0
 1346 088e 019B     		ldr	r3, [sp, #4]
 1347 0890 1A68     		ldr	r2, [r3]
 1348 0892 154B     		ldr	r3, .L95
 1349 0894 9A42     		cmp	r2, r3
 1350 0896 04D0     		beq	.L90
 1351              		.loc 1 889 0 is_stmt 0 discriminator 2
 1352 0898 019B     		ldr	r3, [sp, #4]
 1353 089a 1A68     		ldr	r2, [r3]
 1354 089c 134B     		ldr	r3, .L95+4
 1355 089e 9A42     		cmp	r2, r3
 1356 08a0 02D1     		bne	.L91
 1357              	.L90:
 1358              		.loc 1 889 0 discriminator 1
 1359 08a2 019B     		ldr	r3, [sp, #4]
 1360 08a4 1B68     		ldr	r3, [r3]
 1361 08a6 00E0     		b	.L92
 1362              	.L91:
 1363 08a8 0F4B     		ldr	r3, .L95
 1364              	.L92:
ARM GAS  /tmp/ccrsTBIG.s 			page 25


 1365              		.loc 1 889 0 discriminator 3
 1366 08aa 0293     		str	r3, [sp, #8]
 1367              		.loc 1 890 0 is_stmt 1 discriminator 3
 1368 08ac 029B     		ldr	r3, [sp, #8]
 1369 08ae DB68     		ldr	r3, [r3, #12]
 1370 08b0 03F00073 		and	r3, r3, #33554432
 1371 08b4 002B     		cmp	r3, #0
 1372 08b6 07D0     		beq	.L93
 1373              		.loc 1 892 0
 1374 08b8 019B     		ldr	r3, [sp, #4]
 1375 08ba 9B6D     		ldr	r3, [r3, #88]
 1376 08bc 23F44053 		bic	r3, r3, #12288
 1377 08c0 43F48052 		orr	r2, r3, #4096
 1378 08c4 019B     		ldr	r3, [sp, #4]
 1379 08c6 9A65     		str	r2, [r3, #88]
 1380              	.L93:
 1381              		.loc 1 896 0
 1382 08c8 019B     		ldr	r3, [sp, #4]
 1383 08ca 0022     		movs	r2, #0
 1384 08cc 83F85420 		strb	r2, [r3, #84]
 1385 08d0 03E0     		b	.L94
 1386              	.L81:
 1387              		.loc 1 902 0
 1388 08d2 019B     		ldr	r3, [sp, #4]
 1389 08d4 0022     		movs	r2, #0
 1390 08d6 83F85420 		strb	r2, [r3, #84]
 1391              	.L94:
 1392              		.loc 1 906 0
 1393 08da 9DF80F30 		ldrb	r3, [sp, #15]	@ zero_extendqisi2
 1394              	.L79:
 1395              		.loc 1 908 0
 1396 08de 1846     		mov	r0, r3
 1397 08e0 05B0     		add	sp, sp, #20
 1398              		@ sp needed
 1399 08e2 5DF804FB 		ldr	pc, [sp], #4
 1400              	.L96:
 1401 08e6 00BF     		.align	2
 1402              	.L95:
 1403 08e8 00000450 		.word	1342439424
 1404 08ec 00020450 		.word	1342439936
 1405 08f0 00030450 		.word	1342440192
 1406              		.cfi_endproc
 1407              	.LFE129:
 1408              		.size	HAL_ADC_Start, .-HAL_ADC_Start
 1409              		.align	2
 1410 08f4 AFF30080 		.p2align 4,,15
 1410      AFF30080 
 1410      AFF30080 
 1411              		.global	HAL_ADC_Stop
 1412              		.thumb
 1413              		.thumb_func
 1414              		.type	HAL_ADC_Stop, %function
 1415              	HAL_ADC_Stop:
 1416              	.LFB130:
 1417              		.loc 1 916 0
 1418              		.cfi_startproc
 1419              		@ args = 0, pretend = 0, frame = 16
ARM GAS  /tmp/ccrsTBIG.s 			page 26


 1420              		@ frame_needed = 0, uses_anonymous_args = 0
 1421 0900 00B5     		push	{lr}
 1422              		.cfi_def_cfa_offset 4
 1423              		.cfi_offset 14, -4
 1424 0902 85B0     		sub	sp, sp, #20
 1425              		.cfi_def_cfa_offset 24
 1426 0904 0190     		str	r0, [sp, #4]
 1427              		.loc 1 917 0
 1428 0906 0023     		movs	r3, #0
 1429 0908 8DF80F30 		strb	r3, [sp, #15]
 1430              		.loc 1 923 0
 1431 090c 019B     		ldr	r3, [sp, #4]
 1432 090e 93F85430 		ldrb	r3, [r3, #84]	@ zero_extendqisi2
 1433 0912 012B     		cmp	r3, #1
 1434 0914 01D1     		bne	.L98
 1435              		.loc 1 923 0 is_stmt 0 discriminator 1
 1436 0916 0223     		movs	r3, #2
 1437 0918 28E0     		b	.L99
 1438              	.L98:
 1439              		.loc 1 923 0 discriminator 2
 1440 091a 019B     		ldr	r3, [sp, #4]
 1441 091c 0122     		movs	r2, #1
 1442 091e 83F85420 		strb	r2, [r3, #84]
 1443              		.loc 1 926 0 is_stmt 1 discriminator 2
 1444 0922 0198     		ldr	r0, [sp, #4]
 1445 0924 6C21     		movs	r1, #108
 1446 0926 FFF7FEFF 		bl	ADC_ConversionStop
 1447 092a 0346     		mov	r3, r0
 1448 092c 8DF80F30 		strb	r3, [sp, #15]
 1449              		.loc 1 929 0 discriminator 2
 1450 0930 9DF80F30 		ldrb	r3, [sp, #15]	@ zero_extendqisi2
 1451 0934 002B     		cmp	r3, #0
 1452 0936 13D1     		bne	.L100
 1453              		.loc 1 932 0
 1454 0938 0198     		ldr	r0, [sp, #4]
 1455 093a FFF7FEFF 		bl	ADC_Disable
 1456 093e 0346     		mov	r3, r0
 1457 0940 8DF80F30 		strb	r3, [sp, #15]
 1458              		.loc 1 935 0
 1459 0944 9DF80F30 		ldrb	r3, [sp, #15]	@ zero_extendqisi2
 1460 0948 002B     		cmp	r3, #0
 1461 094a 09D1     		bne	.L100
 1462              		.loc 1 939 0
 1463 094c 019B     		ldr	r3, [sp, #4]
 1464 094e 9B6D     		ldr	r3, [r3, #88]
 1465 0950 23F48853 		bic	r3, r3, #4352
 1466 0954 23F00103 		bic	r3, r3, #1
 1467 0958 43F00102 		orr	r2, r3, #1
 1468 095c 019B     		ldr	r3, [sp, #4]
 1469 095e 9A65     		str	r2, [r3, #88]
 1470              	.L100:
 1471              		.loc 1 944 0
 1472 0960 019B     		ldr	r3, [sp, #4]
 1473 0962 0022     		movs	r2, #0
 1474 0964 83F85420 		strb	r2, [r3, #84]
 1475              		.loc 1 947 0
 1476 0968 9DF80F30 		ldrb	r3, [sp, #15]	@ zero_extendqisi2
ARM GAS  /tmp/ccrsTBIG.s 			page 27


 1477              	.L99:
 1478              		.loc 1 948 0
 1479 096c 1846     		mov	r0, r3
 1480 096e 05B0     		add	sp, sp, #20
 1481              		@ sp needed
 1482 0970 5DF804FB 		ldr	pc, [sp], #4
 1483              		.cfi_endproc
 1484              	.LFE130:
 1485              		.size	HAL_ADC_Stop, .-HAL_ADC_Stop
 1486              		.align	2
 1487 0974 AFF30080 		.p2align 4,,15
 1487      AFF30080 
 1487      AFF30080 
 1488              		.global	HAL_ADC_PollForConversion
 1489              		.thumb
 1490              		.thumb_func
 1491              		.type	HAL_ADC_PollForConversion, %function
 1492              	HAL_ADC_PollForConversion:
 1493              	.LFB131:
 1494              		.loc 1 966 0
 1495              		.cfi_startproc
 1496              		@ args = 0, pretend = 0, frame = 32
 1497              		@ frame_needed = 0, uses_anonymous_args = 0
 1498 0980 00B5     		push	{lr}
 1499              		.cfi_def_cfa_offset 4
 1500              		.cfi_offset 14, -4
 1501 0982 89B0     		sub	sp, sp, #36
 1502              		.cfi_def_cfa_offset 40
 1503 0984 0190     		str	r0, [sp, #4]
 1504 0986 0091     		str	r1, [sp]
 1505              		.loc 1 968 0
 1506 0988 0023     		movs	r3, #0
 1507 098a 0793     		str	r3, [sp, #28]
 1508              		.loc 1 970 0
 1509 098c 0023     		movs	r3, #0
 1510 098e 0693     		str	r3, [sp, #24]
 1511              		.loc 1 971 0
 1512 0990 0123     		movs	r3, #1
 1513 0992 0593     		str	r3, [sp, #20]
 1514              		.loc 1 979 0
 1515 0994 019B     		ldr	r3, [sp, #4]
 1516 0996 5B69     		ldr	r3, [r3, #20]
 1517 0998 082B     		cmp	r3, #8
 1518 099a 02D1     		bne	.L102
 1519              		.loc 1 981 0
 1520 099c 0823     		movs	r3, #8
 1521 099e 0793     		str	r3, [sp, #28]
 1522 09a0 47E0     		b	.L103
 1523              	.L102:
 1524              		.loc 1 989 0
 1525 09a2 019B     		ldr	r3, [sp, #4]
 1526 09a4 1A68     		ldr	r2, [r3]
 1527 09a6 704B     		ldr	r3, .L124
 1528 09a8 9A42     		cmp	r2, r3
 1529 09aa 04D0     		beq	.L104
 1530              		.loc 1 989 0 is_stmt 0 discriminator 2
 1531 09ac 019B     		ldr	r3, [sp, #4]
ARM GAS  /tmp/ccrsTBIG.s 			page 28


 1532 09ae 1A68     		ldr	r2, [r3]
 1533 09b0 6E4B     		ldr	r3, .L124+4
 1534 09b2 9A42     		cmp	r2, r3
 1535 09b4 13D1     		bne	.L105
 1536              	.L104:
 1537              		.loc 1 989 0 discriminator 1
 1538 09b6 6E4B     		ldr	r3, .L124+8
 1539 09b8 9B68     		ldr	r3, [r3, #8]
 1540 09ba 03F01F03 		and	r3, r3, #31
 1541 09be 002B     		cmp	r3, #0
 1542 09c0 0DD0     		beq	.L105
 1543              		.loc 1 989 0 discriminator 3
 1544 09c2 6B4B     		ldr	r3, .L124+8
 1545 09c4 9B68     		ldr	r3, [r3, #8]
 1546 09c6 03F01F03 		and	r3, r3, #31
 1547 09ca 052B     		cmp	r3, #5
 1548 09cc 07D0     		beq	.L105
 1549              		.loc 1 989 0 discriminator 1
 1550 09ce 684B     		ldr	r3, .L124+8
 1551 09d0 9B68     		ldr	r3, [r3, #8]
 1552 09d2 03F01F03 		and	r3, r3, #31
 1553 09d6 092B     		cmp	r3, #9
 1554 09d8 01D0     		beq	.L105
 1555 09da 0123     		movs	r3, #1
 1556 09dc 00E0     		b	.L106
 1557              	.L105:
 1558 09de 0023     		movs	r3, #0
 1559              	.L106:
 1560              		.loc 1 989 0 discriminator 4
 1561 09e0 002B     		cmp	r3, #0
 1562 09e2 0ED1     		bne	.L107
 1563              		.loc 1 992 0 is_stmt 1
 1564 09e4 019B     		ldr	r3, [sp, #4]
 1565 09e6 1B68     		ldr	r3, [r3]
 1566 09e8 DB68     		ldr	r3, [r3, #12]
 1567 09ea 03F00103 		and	r3, r3, #1
 1568 09ee 002B     		cmp	r3, #0
 1569 09f0 1DD0     		beq	.L108
 1570              		.loc 1 994 0
 1571 09f2 019B     		ldr	r3, [sp, #4]
 1572 09f4 9B6D     		ldr	r3, [r3, #88]
 1573 09f6 43F02002 		orr	r2, r3, #32
 1574 09fa 019B     		ldr	r3, [sp, #4]
 1575 09fc 9A65     		str	r2, [r3, #88]
 1576              		.loc 1 995 0
 1577 09fe 0123     		movs	r3, #1
 1578 0a00 AEE0     		b	.L109
 1579              	.L107:
 1580              		.loc 1 1001 0
 1581 0a02 5B4B     		ldr	r3, .L124+8
 1582 0a04 9B68     		ldr	r3, [r3, #8]
 1583 0a06 03F44043 		and	r3, r3, #49152
 1584 0a0a B3F5004F 		cmp	r3, #32768
 1585 0a0e 06D0     		beq	.L110
 1586              		.loc 1 1001 0 is_stmt 0 discriminator 1
 1587 0a10 574B     		ldr	r3, .L124+8
 1588 0a12 9B68     		ldr	r3, [r3, #8]
ARM GAS  /tmp/ccrsTBIG.s 			page 29


 1589 0a14 03F44043 		and	r3, r3, #49152
 1590 0a18 B3F5404F 		cmp	r3, #49152
 1591 0a1c 07D1     		bne	.L108
 1592              	.L110:
 1593              		.loc 1 1003 0 is_stmt 1
 1594 0a1e 019B     		ldr	r3, [sp, #4]
 1595 0a20 9B6D     		ldr	r3, [r3, #88]
 1596 0a22 43F02002 		orr	r2, r3, #32
 1597 0a26 019B     		ldr	r3, [sp, #4]
 1598 0a28 9A65     		str	r2, [r3, #88]
 1599              		.loc 1 1004 0
 1600 0a2a 0123     		movs	r3, #1
 1601 0a2c 98E0     		b	.L109
 1602              	.L108:
 1603              		.loc 1 1009 0
 1604 0a2e 0423     		movs	r3, #4
 1605 0a30 0793     		str	r3, [sp, #28]
 1606              	.L103:
 1607              		.loc 1 1013 0
 1608 0a32 FFF7FEFF 		bl	HAL_GetTick
 1609 0a36 0490     		str	r0, [sp, #16]
 1610              		.loc 1 1016 0
 1611 0a38 16E0     		b	.L111
 1612              	.L113:
 1613              		.loc 1 1019 0
 1614 0a3a 009B     		ldr	r3, [sp]
 1615 0a3c B3F1FF3F 		cmp	r3, #-1
 1616 0a40 12D0     		beq	.L111
 1617              		.loc 1 1021 0
 1618 0a42 009B     		ldr	r3, [sp]
 1619 0a44 002B     		cmp	r3, #0
 1620 0a46 07D0     		beq	.L112
 1621              		.loc 1 1021 0 is_stmt 0 discriminator 1
 1622 0a48 FFF7FEFF 		bl	HAL_GetTick
 1623 0a4c 0246     		mov	r2, r0
 1624 0a4e 049B     		ldr	r3, [sp, #16]
 1625 0a50 D21A     		subs	r2, r2, r3
 1626 0a52 009B     		ldr	r3, [sp]
 1627 0a54 9A42     		cmp	r2, r3
 1628 0a56 07D9     		bls	.L111
 1629              	.L112:
 1630              		.loc 1 1023 0 is_stmt 1
 1631 0a58 019B     		ldr	r3, [sp, #4]
 1632 0a5a 9B6D     		ldr	r3, [r3, #88]
 1633 0a5c 43F00402 		orr	r2, r3, #4
 1634 0a60 019B     		ldr	r3, [sp, #4]
 1635 0a62 9A65     		str	r2, [r3, #88]
 1636              		.loc 1 1024 0
 1637 0a64 0323     		movs	r3, #3
 1638 0a66 7BE0     		b	.L109
 1639              	.L111:
 1640              		.loc 1 1016 0 discriminator 1
 1641 0a68 019B     		ldr	r3, [sp, #4]
 1642 0a6a 1B68     		ldr	r3, [r3]
 1643 0a6c 1A68     		ldr	r2, [r3]
 1644 0a6e 079B     		ldr	r3, [sp, #28]
 1645 0a70 1340     		ands	r3, r3, r2
ARM GAS  /tmp/ccrsTBIG.s 			page 30


 1646 0a72 002B     		cmp	r3, #0
 1647 0a74 E1D0     		beq	.L113
 1648              		.loc 1 1032 0
 1649 0a76 019B     		ldr	r3, [sp, #4]
 1650 0a78 1B68     		ldr	r3, [r3]
 1651 0a7a 1B68     		ldr	r3, [r3]
 1652 0a7c 03F00803 		and	r3, r3, #8
 1653 0a80 002B     		cmp	r3, #0
 1654 0a82 01D1     		bne	.L114
 1655              		.loc 1 1034 0
 1656 0a84 0023     		movs	r3, #0
 1657 0a86 0593     		str	r3, [sp, #20]
 1658              	.L114:
 1659              		.loc 1 1038 0
 1660 0a88 019B     		ldr	r3, [sp, #4]
 1661 0a8a 1A68     		ldr	r2, [r3]
 1662 0a8c 364B     		ldr	r3, .L124
 1663 0a8e 9A42     		cmp	r2, r3
 1664 0a90 16D0     		beq	.L115
 1665              		.loc 1 1038 0 is_stmt 0 discriminator 1
 1666 0a92 019B     		ldr	r3, [sp, #4]
 1667 0a94 1A68     		ldr	r2, [r3]
 1668 0a96 374B     		ldr	r3, .L124+12
 1669 0a98 9A42     		cmp	r2, r3
 1670 0a9a 11D0     		beq	.L115
 1671 0a9c 344B     		ldr	r3, .L124+8
 1672 0a9e 9B68     		ldr	r3, [r3, #8]
 1673 0aa0 03F01F03 		and	r3, r3, #31
 1674 0aa4 002B     		cmp	r3, #0
 1675 0aa6 0BD0     		beq	.L115
 1676 0aa8 314B     		ldr	r3, .L124+8
 1677 0aaa 9B68     		ldr	r3, [r3, #8]
 1678 0aac 03F01F03 		and	r3, r3, #31
 1679 0ab0 052B     		cmp	r3, #5
 1680 0ab2 05D0     		beq	.L115
 1681 0ab4 2E4B     		ldr	r3, .L124+8
 1682 0ab6 9B68     		ldr	r3, [r3, #8]
 1683 0ab8 03F01F03 		and	r3, r3, #31
 1684 0abc 092B     		cmp	r3, #9
 1685 0abe 04D1     		bne	.L116
 1686              	.L115:
 1687              		.loc 1 1041 0 is_stmt 1
 1688 0ac0 019B     		ldr	r3, [sp, #4]
 1689 0ac2 1B68     		ldr	r3, [r3]
 1690 0ac4 DB68     		ldr	r3, [r3, #12]
 1691 0ac6 0693     		str	r3, [sp, #24]
 1692 0ac8 11E0     		b	.L117
 1693              	.L116:
 1694              		.loc 1 1046 0
 1695 0aca 019B     		ldr	r3, [sp, #4]
 1696 0acc 1A68     		ldr	r2, [r3]
 1697 0ace 264B     		ldr	r3, .L124
 1698 0ad0 9A42     		cmp	r2, r3
 1699 0ad2 04D0     		beq	.L118
 1700              		.loc 1 1046 0 is_stmt 0 discriminator 2
 1701 0ad4 019B     		ldr	r3, [sp, #4]
 1702 0ad6 1A68     		ldr	r2, [r3]
ARM GAS  /tmp/ccrsTBIG.s 			page 31


 1703 0ad8 264B     		ldr	r3, .L124+12
 1704 0ada 9A42     		cmp	r2, r3
 1705 0adc 02D1     		bne	.L119
 1706              	.L118:
 1707              		.loc 1 1046 0 discriminator 1
 1708 0ade 019B     		ldr	r3, [sp, #4]
 1709 0ae0 1B68     		ldr	r3, [r3]
 1710 0ae2 00E0     		b	.L120
 1711              	.L119:
 1712 0ae4 204B     		ldr	r3, .L124
 1713              	.L120:
 1714              		.loc 1 1046 0 discriminator 3
 1715 0ae6 0393     		str	r3, [sp, #12]
 1716              		.loc 1 1047 0 is_stmt 1 discriminator 3
 1717 0ae8 039B     		ldr	r3, [sp, #12]
 1718 0aea DB68     		ldr	r3, [r3, #12]
 1719 0aec 0693     		str	r3, [sp, #24]
 1720              	.L117:
 1721              		.loc 1 1051 0
 1722 0aee 079B     		ldr	r3, [sp, #28]
 1723 0af0 082B     		cmp	r3, #8
 1724 0af2 04D1     		bne	.L121
 1725              		.loc 1 1053 0
 1726 0af4 019B     		ldr	r3, [sp, #4]
 1727 0af6 1B68     		ldr	r3, [r3]
 1728 0af8 0822     		movs	r2, #8
 1729 0afa 1A60     		str	r2, [r3]
 1730 0afc 08E0     		b	.L122
 1731              	.L121:
 1732              		.loc 1 1066 0
 1733 0afe 069B     		ldr	r3, [sp, #24]
 1734 0b00 03F48043 		and	r3, r3, #16384
 1735 0b04 002B     		cmp	r3, #0
 1736 0b06 03D1     		bne	.L122
 1737              		.loc 1 1068 0
 1738 0b08 019B     		ldr	r3, [sp, #4]
 1739 0b0a 1B68     		ldr	r3, [r3]
 1740 0b0c 0422     		movs	r2, #4
 1741 0b0e 1A60     		str	r2, [r3]
 1742              	.L122:
 1743              		.loc 1 1074 0
 1744 0b10 019B     		ldr	r3, [sp, #4]
 1745 0b12 9B6D     		ldr	r3, [r3, #88]
 1746 0b14 43F40072 		orr	r2, r3, #512
 1747 0b18 019B     		ldr	r3, [sp, #4]
 1748 0b1a 9A65     		str	r2, [r3, #88]
 1749              		.loc 1 1081 0
 1750 0b1c 059B     		ldr	r3, [sp, #20]
 1751 0b1e 002B     		cmp	r3, #0
 1752 0b20 1DD0     		beq	.L123
 1753              		.loc 1 1082 0
 1754 0b22 019B     		ldr	r3, [sp, #4]
 1755 0b24 1B68     		ldr	r3, [r3]
 1756 0b26 DB68     		ldr	r3, [r3, #12]
 1757 0b28 03F44063 		and	r3, r3, #3072
 1758 0b2c 002B     		cmp	r3, #0
 1759 0b2e 16D1     		bne	.L123
ARM GAS  /tmp/ccrsTBIG.s 			page 32


 1760              		.loc 1 1083 0
 1761 0b30 069B     		ldr	r3, [sp, #24]
 1762 0b32 03F40053 		and	r3, r3, #8192
 1763 0b36 002B     		cmp	r3, #0
 1764 0b38 11D1     		bne	.L123
 1765              		.loc 1 1085 0
 1766 0b3a 019B     		ldr	r3, [sp, #4]
 1767 0b3c 9B6D     		ldr	r3, [r3, #88]
 1768 0b3e 23F48072 		bic	r2, r3, #256
 1769 0b42 019B     		ldr	r3, [sp, #4]
 1770 0b44 9A65     		str	r2, [r3, #88]
 1771              		.loc 1 1087 0
 1772 0b46 019B     		ldr	r3, [sp, #4]
 1773 0b48 9B6D     		ldr	r3, [r3, #88]
 1774 0b4a 03F48053 		and	r3, r3, #4096
 1775 0b4e 002B     		cmp	r3, #0
 1776 0b50 05D1     		bne	.L123
 1777              		.loc 1 1089 0
 1778 0b52 019B     		ldr	r3, [sp, #4]
 1779 0b54 9B6D     		ldr	r3, [r3, #88]
 1780 0b56 43F00102 		orr	r2, r3, #1
 1781 0b5a 019B     		ldr	r3, [sp, #4]
 1782 0b5c 9A65     		str	r2, [r3, #88]
 1783              	.L123:
 1784              		.loc 1 1095 0
 1785 0b5e 0023     		movs	r3, #0
 1786              	.L109:
 1787              		.loc 1 1096 0
 1788 0b60 1846     		mov	r0, r3
 1789 0b62 09B0     		add	sp, sp, #36
 1790              		@ sp needed
 1791 0b64 5DF804FB 		ldr	pc, [sp], #4
 1792              	.L125:
 1793              		.align	2
 1794              	.L124:
 1795 0b68 00000450 		.word	1342439424
 1796 0b6c 00010450 		.word	1342439680
 1797 0b70 00030450 		.word	1342440192
 1798 0b74 00020450 		.word	1342439936
 1799              		.cfi_endproc
 1800              	.LFE131:
 1801              		.size	HAL_ADC_PollForConversion, .-HAL_ADC_PollForConversion
 1802              		.align	2
 1803 0b78 AFF30080 		.p2align 4,,15
 1803      AFF30080 
 1804              		.global	HAL_ADC_PollForEvent
 1805              		.thumb
 1806              		.thumb_func
 1807              		.type	HAL_ADC_PollForEvent, %function
 1808              	HAL_ADC_PollForEvent:
 1809              	.LFB132:
 1810              		.loc 1 1119 0
 1811              		.cfi_startproc
 1812              		@ args = 0, pretend = 0, frame = 24
 1813              		@ frame_needed = 0, uses_anonymous_args = 0
 1814 0b80 00B5     		push	{lr}
 1815              		.cfi_def_cfa_offset 4
ARM GAS  /tmp/ccrsTBIG.s 			page 33


 1816              		.cfi_offset 14, -4
 1817 0b82 87B0     		sub	sp, sp, #28
 1818              		.cfi_def_cfa_offset 32
 1819 0b84 0390     		str	r0, [sp, #12]
 1820 0b86 0291     		str	r1, [sp, #8]
 1821 0b88 0192     		str	r2, [sp, #4]
 1822              		.loc 1 1126 0
 1823 0b8a FFF7FEFF 		bl	HAL_GetTick
 1824 0b8e 0590     		str	r0, [sp, #20]
 1825              		.loc 1 1129 0
 1826 0b90 1AE0     		b	.L127
 1827              	.L130:
 1828              		.loc 1 1132 0
 1829 0b92 019B     		ldr	r3, [sp, #4]
 1830 0b94 B3F1FF3F 		cmp	r3, #-1
 1831 0b98 16D0     		beq	.L127
 1832              		.loc 1 1134 0
 1833 0b9a 019B     		ldr	r3, [sp, #4]
 1834 0b9c 002B     		cmp	r3, #0
 1835 0b9e 07D0     		beq	.L128
 1836              		.loc 1 1134 0 is_stmt 0 discriminator 1
 1837 0ba0 FFF7FEFF 		bl	HAL_GetTick
 1838 0ba4 0246     		mov	r2, r0
 1839 0ba6 059B     		ldr	r3, [sp, #20]
 1840 0ba8 D21A     		subs	r2, r2, r3
 1841 0baa 019B     		ldr	r3, [sp, #4]
 1842 0bac 9A42     		cmp	r2, r3
 1843 0bae 0BD9     		bls	.L127
 1844              	.L128:
 1845              		.loc 1 1137 0 is_stmt 1
 1846 0bb0 039B     		ldr	r3, [sp, #12]
 1847 0bb2 9B6D     		ldr	r3, [r3, #88]
 1848 0bb4 43F00402 		orr	r2, r3, #4
 1849 0bb8 039B     		ldr	r3, [sp, #12]
 1850 0bba 9A65     		str	r2, [r3, #88]
 1851              		.loc 1 1140 0
 1852 0bbc 039B     		ldr	r3, [sp, #12]
 1853 0bbe 0022     		movs	r2, #0
 1854 0bc0 83F85420 		strb	r2, [r3, #84]
 1855              		.loc 1 1142 0
 1856 0bc4 0323     		movs	r3, #3
 1857 0bc6 71E0     		b	.L129
 1858              	.L127:
 1859              		.loc 1 1129 0 discriminator 1
 1860 0bc8 039B     		ldr	r3, [sp, #12]
 1861 0bca 1B68     		ldr	r3, [r3]
 1862 0bcc 1A68     		ldr	r2, [r3]
 1863 0bce 029B     		ldr	r3, [sp, #8]
 1864 0bd0 1A40     		ands	r2, r2, r3
 1865 0bd2 029B     		ldr	r3, [sp, #8]
 1866 0bd4 9A42     		cmp	r2, r3
 1867 0bd6 DCD1     		bne	.L130
 1868              		.loc 1 1148 0
 1869 0bd8 029B     		ldr	r3, [sp, #8]
 1870 0bda B3F5807F 		cmp	r3, #256
 1871 0bde 24D0     		beq	.L132
 1872 0be0 B3F5807F 		cmp	r3, #256
ARM GAS  /tmp/ccrsTBIG.s 			page 34


 1873 0be4 04D8     		bhi	.L133
 1874 0be6 022B     		cmp	r3, #2
 1875 0be8 09D0     		beq	.L134
 1876 0bea 802B     		cmp	r3, #128
 1877 0bec 12D0     		beq	.L135
 1878 0bee 46E0     		b	.L131
 1879              	.L133:
 1880 0bf0 B3F5007F 		cmp	r3, #512
 1881 0bf4 25D0     		beq	.L136
 1882 0bf6 B3F5806F 		cmp	r3, #1024
 1883 0bfa 2ED0     		beq	.L137
 1884 0bfc 3FE0     		b	.L131
 1885              	.L134:
 1886              		.loc 1 1153 0
 1887 0bfe 039B     		ldr	r3, [sp, #12]
 1888 0c00 9B6D     		ldr	r3, [r3, #88]
 1889 0c02 43F40062 		orr	r2, r3, #2048
 1890 0c06 039B     		ldr	r3, [sp, #12]
 1891 0c08 9A65     		str	r2, [r3, #88]
 1892              		.loc 1 1156 0
 1893 0c0a 039B     		ldr	r3, [sp, #12]
 1894 0c0c 1B68     		ldr	r3, [r3]
 1895 0c0e 0222     		movs	r2, #2
 1896 0c10 1A60     		str	r2, [r3]
 1897              		.loc 1 1158 0
 1898 0c12 4AE0     		b	.L138
 1899              	.L135:
 1900              		.loc 1 1169 0
 1901 0c14 039B     		ldr	r3, [sp, #12]
 1902 0c16 9B6D     		ldr	r3, [r3, #88]
 1903 0c18 43F48032 		orr	r2, r3, #65536
 1904 0c1c 039B     		ldr	r3, [sp, #12]
 1905 0c1e 9A65     		str	r2, [r3, #88]
 1906              		.loc 1 1172 0
 1907 0c20 039B     		ldr	r3, [sp, #12]
 1908 0c22 1B68     		ldr	r3, [r3]
 1909 0c24 8022     		movs	r2, #128
 1910 0c26 1A60     		str	r2, [r3]
 1911              		.loc 1 1174 0
 1912 0c28 3FE0     		b	.L138
 1913              	.L132:
 1914              		.loc 1 1179 0
 1915 0c2a 039B     		ldr	r3, [sp, #12]
 1916 0c2c 9B6D     		ldr	r3, [r3, #88]
 1917 0c2e 43F40032 		orr	r2, r3, #131072
 1918 0c32 039B     		ldr	r3, [sp, #12]
 1919 0c34 9A65     		str	r2, [r3, #88]
 1920              		.loc 1 1182 0
 1921 0c36 039B     		ldr	r3, [sp, #12]
 1922 0c38 1B68     		ldr	r3, [r3]
 1923 0c3a 4FF48072 		mov	r2, #256
 1924 0c3e 1A60     		str	r2, [r3]
 1925              		.loc 1 1184 0
 1926 0c40 33E0     		b	.L138
 1927              	.L136:
 1928              		.loc 1 1189 0
 1929 0c42 039B     		ldr	r3, [sp, #12]
ARM GAS  /tmp/ccrsTBIG.s 			page 35


 1930 0c44 9B6D     		ldr	r3, [r3, #88]
 1931 0c46 43F48022 		orr	r2, r3, #262144
 1932 0c4a 039B     		ldr	r3, [sp, #12]
 1933 0c4c 9A65     		str	r2, [r3, #88]
 1934              		.loc 1 1192 0
 1935 0c4e 039B     		ldr	r3, [sp, #12]
 1936 0c50 1B68     		ldr	r3, [r3]
 1937 0c52 4FF40072 		mov	r2, #512
 1938 0c56 1A60     		str	r2, [r3]
 1939              		.loc 1 1194 0
 1940 0c58 27E0     		b	.L138
 1941              	.L137:
 1942              		.loc 1 1199 0
 1943 0c5a 039B     		ldr	r3, [sp, #12]
 1944 0c5c 9B6D     		ldr	r3, [r3, #88]
 1945 0c5e 43F48042 		orr	r2, r3, #16384
 1946 0c62 039B     		ldr	r3, [sp, #12]
 1947 0c64 9A65     		str	r2, [r3, #88]
 1948              		.loc 1 1202 0
 1949 0c66 039B     		ldr	r3, [sp, #12]
 1950 0c68 DB6D     		ldr	r3, [r3, #92]
 1951 0c6a 43F00802 		orr	r2, r3, #8
 1952 0c6e 039B     		ldr	r3, [sp, #12]
 1953 0c70 DA65     		str	r2, [r3, #92]
 1954              		.loc 1 1205 0
 1955 0c72 039B     		ldr	r3, [sp, #12]
 1956 0c74 1B68     		ldr	r3, [r3]
 1957 0c76 4FF48062 		mov	r2, #1024
 1958 0c7a 1A60     		str	r2, [r3]
 1959              		.loc 1 1207 0
 1960 0c7c 15E0     		b	.L138
 1961              	.L131:
 1962              		.loc 1 1215 0
 1963 0c7e 039B     		ldr	r3, [sp, #12]
 1964 0c80 9B6B     		ldr	r3, [r3, #56]
 1965 0c82 002B     		cmp	r3, #0
 1966 0c84 0CD1     		bne	.L139
 1967              		.loc 1 1218 0
 1968 0c86 039B     		ldr	r3, [sp, #12]
 1969 0c88 9B6D     		ldr	r3, [r3, #88]
 1970 0c8a 43F48062 		orr	r2, r3, #1024
 1971 0c8e 039B     		ldr	r3, [sp, #12]
 1972 0c90 9A65     		str	r2, [r3, #88]
 1973              		.loc 1 1221 0
 1974 0c92 039B     		ldr	r3, [sp, #12]
 1975 0c94 DB6D     		ldr	r3, [r3, #92]
 1976 0c96 43F00202 		orr	r2, r3, #2
 1977 0c9a 039B     		ldr	r3, [sp, #12]
 1978 0c9c DA65     		str	r2, [r3, #92]
 1979              		.loc 1 1230 0
 1980 0c9e 03E0     		b	.L141
 1981              	.L139:
 1982              		.loc 1 1228 0
 1983 0ca0 039B     		ldr	r3, [sp, #12]
 1984 0ca2 1B68     		ldr	r3, [r3]
 1985 0ca4 1022     		movs	r2, #16
 1986 0ca6 1A60     		str	r2, [r3]
ARM GAS  /tmp/ccrsTBIG.s 			page 36


 1987              	.L141:
 1988              		.loc 1 1230 0
 1989 0ca8 00BF     		nop
 1990              	.L138:
 1991              		.loc 1 1234 0
 1992 0caa 0023     		movs	r3, #0
 1993              	.L129:
 1994              		.loc 1 1235 0
 1995 0cac 1846     		mov	r0, r3
 1996 0cae 07B0     		add	sp, sp, #28
 1997              		@ sp needed
 1998 0cb0 5DF804FB 		ldr	pc, [sp], #4
 1999              		.cfi_endproc
 2000              	.LFE132:
 2001              		.size	HAL_ADC_PollForEvent, .-HAL_ADC_PollForEvent
 2002              		.align	2
 2003 0cb4 AFF30080 		.p2align 4,,15
 2003      AFF30080 
 2003      AFF30080 
 2004              		.global	HAL_ADC_Start_IT
 2005              		.thumb
 2006              		.thumb_func
 2007              		.type	HAL_ADC_Start_IT, %function
 2008              	HAL_ADC_Start_IT:
 2009              	.LFB133:
 2010              		.loc 1 1262 0
 2011              		.cfi_startproc
 2012              		@ args = 0, pretend = 0, frame = 16
 2013              		@ frame_needed = 0, uses_anonymous_args = 0
 2014 0cc0 00B5     		push	{lr}
 2015              		.cfi_def_cfa_offset 4
 2016              		.cfi_offset 14, -4
 2017 0cc2 85B0     		sub	sp, sp, #20
 2018              		.cfi_def_cfa_offset 24
 2019 0cc4 0190     		str	r0, [sp, #4]
 2020              		.loc 1 1263 0
 2021 0cc6 0023     		movs	r3, #0
 2022 0cc8 8DF80F30 		strb	r3, [sp, #15]
 2023              		.loc 1 1271 0
 2024 0ccc 019B     		ldr	r3, [sp, #4]
 2025 0cce 1B68     		ldr	r3, [r3]
 2026 0cd0 9B68     		ldr	r3, [r3, #8]
 2027 0cd2 03F00403 		and	r3, r3, #4
 2028 0cd6 002B     		cmp	r3, #0
 2029 0cd8 01D0     		beq	.L143
 2030              		.loc 1 1273 0
 2031 0cda 0223     		movs	r3, #2
 2032 0cdc 25E1     		b	.L144
 2033              	.L143:
 2034              		.loc 1 1278 0
 2035 0cde 019B     		ldr	r3, [sp, #4]
 2036 0ce0 93F85430 		ldrb	r3, [r3, #84]	@ zero_extendqisi2
 2037 0ce4 012B     		cmp	r3, #1
 2038 0ce6 01D1     		bne	.L145
 2039              		.loc 1 1278 0 is_stmt 0 discriminator 1
 2040 0ce8 0223     		movs	r3, #2
 2041 0cea 1EE1     		b	.L144
ARM GAS  /tmp/ccrsTBIG.s 			page 37


 2042              	.L145:
 2043              		.loc 1 1278 0 discriminator 2
 2044 0cec 019B     		ldr	r3, [sp, #4]
 2045 0cee 0122     		movs	r2, #1
 2046 0cf0 83F85420 		strb	r2, [r3, #84]
 2047              		.loc 1 1281 0 is_stmt 1 discriminator 2
 2048 0cf4 0198     		ldr	r0, [sp, #4]
 2049 0cf6 FFF7FEFF 		bl	ADC_Enable
 2050 0cfa 0346     		mov	r3, r0
 2051 0cfc 8DF80F30 		strb	r3, [sp, #15]
 2052              		.loc 1 1284 0 discriminator 2
 2053 0d00 9DF80F30 		ldrb	r3, [sp, #15]	@ zero_extendqisi2
 2054 0d04 002B     		cmp	r3, #0
 2055 0d06 40F00A81 		bne	.L146
 2056              		.loc 1 1287 0
 2057 0d0a 019B     		ldr	r3, [sp, #4]
 2058 0d0c 9B6D     		ldr	r3, [r3, #88]
 2059 0d0e 03F48053 		and	r3, r3, #4096
 2060 0d12 002B     		cmp	r3, #0
 2061 0d14 06D0     		beq	.L147
 2062              		.loc 1 1290 0
 2063 0d16 019B     		ldr	r3, [sp, #4]
 2064 0d18 DB6D     		ldr	r3, [r3, #92]
 2065 0d1a 23F00602 		bic	r2, r3, #6
 2066 0d1e 019B     		ldr	r3, [sp, #4]
 2067 0d20 DA65     		str	r2, [r3, #92]
 2068 0d22 02E0     		b	.L148
 2069              	.L147:
 2070              		.loc 1 1295 0
 2071 0d24 019B     		ldr	r3, [sp, #4]
 2072 0d26 0022     		movs	r2, #0
 2073 0d28 DA65     		str	r2, [r3, #92]
 2074              	.L148:
 2075              		.loc 1 1298 0
 2076 0d2a 019B     		ldr	r3, [sp, #4]
 2077 0d2c 9B6D     		ldr	r3, [r3, #88]
 2078 0d2e 23F47063 		bic	r3, r3, #3840
 2079 0d32 23F00103 		bic	r3, r3, #1
 2080 0d36 43F48072 		orr	r2, r3, #256
 2081 0d3a 019B     		ldr	r3, [sp, #4]
 2082 0d3c 9A65     		str	r2, [r3, #88]
 2083              		.loc 1 1303 0
 2084 0d3e 019B     		ldr	r3, [sp, #4]
 2085 0d40 1A68     		ldr	r2, [r3]
 2086 0d42 7C4B     		ldr	r3, .L171
 2087 0d44 9A42     		cmp	r2, r3
 2088 0d46 0AD0     		beq	.L149
 2089              		.loc 1 1303 0 is_stmt 0 discriminator 1
 2090 0d48 019B     		ldr	r3, [sp, #4]
 2091 0d4a 1A68     		ldr	r2, [r3]
 2092 0d4c 7A4B     		ldr	r3, .L171+4
 2093 0d4e 9A42     		cmp	r2, r3
 2094 0d50 05D0     		beq	.L149
 2095 0d52 7A4B     		ldr	r3, .L171+8
 2096 0d54 9B68     		ldr	r3, [r3, #8]
 2097 0d56 03F01F03 		and	r3, r3, #31
 2098 0d5a 002B     		cmp	r3, #0
ARM GAS  /tmp/ccrsTBIG.s 			page 38


 2099 0d5c 05D1     		bne	.L150
 2100              	.L149:
 2101              		.loc 1 1305 0 is_stmt 1
 2102 0d5e 019B     		ldr	r3, [sp, #4]
 2103 0d60 9B6D     		ldr	r3, [r3, #88]
 2104 0d62 23F48012 		bic	r2, r3, #1048576
 2105 0d66 019B     		ldr	r3, [sp, #4]
 2106 0d68 9A65     		str	r2, [r3, #88]
 2107              	.L150:
 2108              		.loc 1 1310 0
 2109 0d6a 019B     		ldr	r3, [sp, #4]
 2110 0d6c 1B68     		ldr	r3, [r3]
 2111 0d6e 1C22     		movs	r2, #28
 2112 0d70 1A60     		str	r2, [r3]
 2113              		.loc 1 1313 0
 2114 0d72 019B     		ldr	r3, [sp, #4]
 2115 0d74 1B68     		ldr	r3, [r3]
 2116 0d76 019A     		ldr	r2, [sp, #4]
 2117 0d78 1268     		ldr	r2, [r2]
 2118 0d7a 5268     		ldr	r2, [r2, #4]
 2119 0d7c 22F01C02 		bic	r2, r2, #28
 2120 0d80 5A60     		str	r2, [r3, #4]
 2121              		.loc 1 1316 0
 2122 0d82 019B     		ldr	r3, [sp, #4]
 2123 0d84 5B69     		ldr	r3, [r3, #20]
 2124 0d86 082B     		cmp	r3, #8
 2125 0d88 08D1     		bne	.L168
 2126              		.loc 1 1319 0
 2127 0d8a 019B     		ldr	r3, [sp, #4]
 2128 0d8c 1B68     		ldr	r3, [r3]
 2129 0d8e 019A     		ldr	r2, [sp, #4]
 2130 0d90 1268     		ldr	r2, [r2]
 2131 0d92 5268     		ldr	r2, [r2, #4]
 2132 0d94 42F00802 		orr	r2, r2, #8
 2133 0d98 5A60     		str	r2, [r3, #4]
 2134              		.loc 1 1320 0
 2135 0d9a 08E0     		b	.L153
 2136              	.L168:
 2137              		.loc 1 1323 0
 2138 0d9c 019B     		ldr	r3, [sp, #4]
 2139 0d9e 1B68     		ldr	r3, [r3]
 2140 0da0 019A     		ldr	r2, [sp, #4]
 2141 0da2 1268     		ldr	r2, [r2]
 2142 0da4 5268     		ldr	r2, [r2, #4]
 2143 0da6 42F00402 		orr	r2, r2, #4
 2144 0daa 5A60     		str	r2, [r3, #4]
 2145              		.loc 1 1324 0
 2146 0dac 00BF     		nop
 2147              	.L153:
 2148              		.loc 1 1330 0
 2149 0dae 019B     		ldr	r3, [sp, #4]
 2150 0db0 9B6B     		ldr	r3, [r3, #56]
 2151 0db2 002B     		cmp	r3, #0
 2152 0db4 07D1     		bne	.L154
 2153              		.loc 1 1332 0
 2154 0db6 019B     		ldr	r3, [sp, #4]
 2155 0db8 1B68     		ldr	r3, [r3]
ARM GAS  /tmp/ccrsTBIG.s 			page 39


 2156 0dba 019A     		ldr	r2, [sp, #4]
 2157 0dbc 1268     		ldr	r2, [r2]
 2158 0dbe 5268     		ldr	r2, [r2, #4]
 2159 0dc0 42F01002 		orr	r2, r2, #16
 2160 0dc4 5A60     		str	r2, [r3, #4]
 2161              	.L154:
 2162              		.loc 1 1343 0
 2163 0dc6 019B     		ldr	r3, [sp, #4]
 2164 0dc8 1A68     		ldr	r2, [r3]
 2165 0dca 5A4B     		ldr	r3, .L171
 2166 0dcc 9A42     		cmp	r2, r3
 2167 0dce 16D0     		beq	.L155
 2168              		.loc 1 1343 0 is_stmt 0 discriminator 1
 2169 0dd0 019B     		ldr	r3, [sp, #4]
 2170 0dd2 1A68     		ldr	r2, [r3]
 2171 0dd4 584B     		ldr	r3, .L171+4
 2172 0dd6 9A42     		cmp	r2, r3
 2173 0dd8 11D0     		beq	.L155
 2174 0dda 584B     		ldr	r3, .L171+8
 2175 0ddc 9B68     		ldr	r3, [r3, #8]
 2176 0dde 03F01F03 		and	r3, r3, #31
 2177 0de2 002B     		cmp	r3, #0
 2178 0de4 0BD0     		beq	.L155
 2179 0de6 554B     		ldr	r3, .L171+8
 2180 0de8 9B68     		ldr	r3, [r3, #8]
 2181 0dea 03F01F03 		and	r3, r3, #31
 2182 0dee 052B     		cmp	r3, #5
 2183 0df0 05D0     		beq	.L155
 2184 0df2 524B     		ldr	r3, .L171+8
 2185 0df4 9B68     		ldr	r3, [r3, #8]
 2186 0df6 03F01F03 		and	r3, r3, #31
 2187 0dfa 092B     		cmp	r3, #9
 2188 0dfc 41D1     		bne	.L156
 2189              	.L155:
 2190              		.loc 1 1348 0 is_stmt 1
 2191 0dfe 019B     		ldr	r3, [sp, #4]
 2192 0e00 1B68     		ldr	r3, [r3]
 2193 0e02 DB68     		ldr	r3, [r3, #12]
 2194 0e04 03F00073 		and	r3, r3, #33554432
 2195 0e08 002B     		cmp	r3, #0
 2196 0e0a 2DD0     		beq	.L157
 2197              		.loc 1 1350 0
 2198 0e0c 019B     		ldr	r3, [sp, #4]
 2199 0e0e 9B6D     		ldr	r3, [r3, #88]
 2200 0e10 23F44053 		bic	r3, r3, #12288
 2201 0e14 43F48052 		orr	r2, r3, #4096
 2202 0e18 019B     		ldr	r3, [sp, #4]
 2203 0e1a 9A65     		str	r2, [r3, #88]
 2204              		.loc 1 1356 0
 2205 0e1c 019B     		ldr	r3, [sp, #4]
 2206 0e1e 5B69     		ldr	r3, [r3, #20]
 2207 0e20 082B     		cmp	r3, #8
 2208 0e22 10D1     		bne	.L169
 2209              		.loc 1 1359 0
 2210 0e24 019B     		ldr	r3, [sp, #4]
 2211 0e26 1B68     		ldr	r3, [r3]
 2212 0e28 019A     		ldr	r2, [sp, #4]
ARM GAS  /tmp/ccrsTBIG.s 			page 40


 2213 0e2a 1268     		ldr	r2, [r2]
 2214 0e2c 5268     		ldr	r2, [r2, #4]
 2215 0e2e 22F02002 		bic	r2, r2, #32
 2216 0e32 5A60     		str	r2, [r3, #4]
 2217              		.loc 1 1360 0
 2218 0e34 019B     		ldr	r3, [sp, #4]
 2219 0e36 1B68     		ldr	r3, [r3]
 2220 0e38 019A     		ldr	r2, [sp, #4]
 2221 0e3a 1268     		ldr	r2, [r2]
 2222 0e3c 5268     		ldr	r2, [r2, #4]
 2223 0e3e 42F04002 		orr	r2, r2, #64
 2224 0e42 5A60     		str	r2, [r3, #4]
 2225              		.loc 1 1361 0
 2226 0e44 10E0     		b	.L157
 2227              	.L169:
 2228              		.loc 1 1364 0
 2229 0e46 019B     		ldr	r3, [sp, #4]
 2230 0e48 1B68     		ldr	r3, [r3]
 2231 0e4a 019A     		ldr	r2, [sp, #4]
 2232 0e4c 1268     		ldr	r2, [r2]
 2233 0e4e 5268     		ldr	r2, [r2, #4]
 2234 0e50 22F04002 		bic	r2, r2, #64
 2235 0e54 5A60     		str	r2, [r3, #4]
 2236              		.loc 1 1365 0
 2237 0e56 019B     		ldr	r3, [sp, #4]
 2238 0e58 1B68     		ldr	r3, [r3]
 2239 0e5a 019A     		ldr	r2, [sp, #4]
 2240 0e5c 1268     		ldr	r2, [r2]
 2241 0e5e 5268     		ldr	r2, [r2, #4]
 2242 0e60 42F02002 		orr	r2, r2, #32
 2243 0e64 5A60     		str	r2, [r3, #4]
 2244              		.loc 1 1366 0
 2245 0e66 00BF     		nop
 2246              	.L157:
 2247              		.loc 1 1370 0
 2248 0e68 019B     		ldr	r3, [sp, #4]
 2249 0e6a 0022     		movs	r2, #0
 2250 0e6c 83F85420 		strb	r2, [r3, #84]
 2251              		.loc 1 1372 0
 2252 0e70 019B     		ldr	r3, [sp, #4]
 2253 0e72 1B68     		ldr	r3, [r3]
 2254 0e74 019A     		ldr	r2, [sp, #4]
 2255 0e76 1268     		ldr	r2, [r2]
 2256 0e78 9268     		ldr	r2, [r2, #8]
 2257 0e7a 42F00402 		orr	r2, r2, #4
 2258 0e7e 9A60     		str	r2, [r3, #8]
 2259 0e80 51E0     		b	.L167
 2260              	.L156:
 2261              		.loc 1 1378 0
 2262 0e82 019B     		ldr	r3, [sp, #4]
 2263 0e84 9B6D     		ldr	r3, [r3, #88]
 2264 0e86 43F48012 		orr	r2, r3, #1048576
 2265 0e8a 019B     		ldr	r3, [sp, #4]
 2266 0e8c 9A65     		str	r2, [r3, #88]
 2267              		.loc 1 1381 0
 2268 0e8e 019B     		ldr	r3, [sp, #4]
 2269 0e90 1A68     		ldr	r2, [r3]
ARM GAS  /tmp/ccrsTBIG.s 			page 41


 2270 0e92 284B     		ldr	r3, .L171
 2271 0e94 9A42     		cmp	r2, r3
 2272 0e96 04D0     		beq	.L161
 2273              		.loc 1 1381 0 is_stmt 0 discriminator 2
 2274 0e98 019B     		ldr	r3, [sp, #4]
 2275 0e9a 1A68     		ldr	r2, [r3]
 2276 0e9c 264B     		ldr	r3, .L171+4
 2277 0e9e 9A42     		cmp	r2, r3
 2278 0ea0 02D1     		bne	.L162
 2279              	.L161:
 2280              		.loc 1 1381 0 discriminator 1
 2281 0ea2 019B     		ldr	r3, [sp, #4]
 2282 0ea4 1B68     		ldr	r3, [r3]
 2283 0ea6 00E0     		b	.L163
 2284              	.L162:
 2285 0ea8 224B     		ldr	r3, .L171
 2286              	.L163:
 2287              		.loc 1 1381 0 discriminator 3
 2288 0eaa 0293     		str	r3, [sp, #8]
 2289              		.loc 1 1382 0 is_stmt 1 discriminator 3
 2290 0eac 029B     		ldr	r3, [sp, #8]
 2291 0eae DB68     		ldr	r3, [r3, #12]
 2292 0eb0 03F00073 		and	r3, r3, #33554432
 2293 0eb4 002B     		cmp	r3, #0
 2294 0eb6 2DD0     		beq	.L164
 2295              		.loc 1 1386 0
 2296 0eb8 019B     		ldr	r3, [sp, #4]
 2297 0eba 9B6D     		ldr	r3, [r3, #88]
 2298 0ebc 23F44053 		bic	r3, r3, #12288
 2299 0ec0 43F48052 		orr	r2, r3, #4096
 2300 0ec4 019B     		ldr	r3, [sp, #4]
 2301 0ec6 9A65     		str	r2, [r3, #88]
 2302              		.loc 1 1388 0
 2303 0ec8 019B     		ldr	r3, [sp, #4]
 2304 0eca 5B69     		ldr	r3, [r3, #20]
 2305 0ecc 082B     		cmp	r3, #8
 2306 0ece 10D1     		bne	.L170
 2307              		.loc 1 1391 0
 2308 0ed0 019B     		ldr	r3, [sp, #4]
 2309 0ed2 1B68     		ldr	r3, [r3]
 2310 0ed4 019A     		ldr	r2, [sp, #4]
 2311 0ed6 1268     		ldr	r2, [r2]
 2312 0ed8 5268     		ldr	r2, [r2, #4]
 2313 0eda 22F02002 		bic	r2, r2, #32
 2314 0ede 5A60     		str	r2, [r3, #4]
 2315              		.loc 1 1392 0
 2316 0ee0 019B     		ldr	r3, [sp, #4]
 2317 0ee2 1B68     		ldr	r3, [r3]
 2318 0ee4 019A     		ldr	r2, [sp, #4]
 2319 0ee6 1268     		ldr	r2, [r2]
 2320 0ee8 5268     		ldr	r2, [r2, #4]
 2321 0eea 42F04002 		orr	r2, r2, #64
 2322 0eee 5A60     		str	r2, [r3, #4]
 2323              		.loc 1 1393 0
 2324 0ef0 10E0     		b	.L164
 2325              	.L170:
 2326              		.loc 1 1396 0
ARM GAS  /tmp/ccrsTBIG.s 			page 42


 2327 0ef2 019B     		ldr	r3, [sp, #4]
 2328 0ef4 1B68     		ldr	r3, [r3]
 2329 0ef6 019A     		ldr	r2, [sp, #4]
 2330 0ef8 1268     		ldr	r2, [r2]
 2331 0efa 5268     		ldr	r2, [r2, #4]
 2332 0efc 22F04002 		bic	r2, r2, #64
 2333 0f00 5A60     		str	r2, [r3, #4]
 2334              		.loc 1 1397 0
 2335 0f02 019B     		ldr	r3, [sp, #4]
 2336 0f04 1B68     		ldr	r3, [r3]
 2337 0f06 019A     		ldr	r2, [sp, #4]
 2338 0f08 1268     		ldr	r2, [r2]
 2339 0f0a 5268     		ldr	r2, [r2, #4]
 2340 0f0c 42F02002 		orr	r2, r2, #32
 2341 0f10 5A60     		str	r2, [r3, #4]
 2342              		.loc 1 1398 0
 2343 0f12 00BF     		nop
 2344              	.L164:
 2345              		.loc 1 1402 0
 2346 0f14 019B     		ldr	r3, [sp, #4]
 2347 0f16 0022     		movs	r2, #0
 2348 0f18 83F85420 		strb	r2, [r3, #84]
 2349 0f1c 03E0     		b	.L167
 2350              	.L146:
 2351              		.loc 1 1408 0
 2352 0f1e 019B     		ldr	r3, [sp, #4]
 2353 0f20 0022     		movs	r2, #0
 2354 0f22 83F85420 		strb	r2, [r3, #84]
 2355              	.L167:
 2356              		.loc 1 1412 0
 2357 0f26 9DF80F30 		ldrb	r3, [sp, #15]	@ zero_extendqisi2
 2358              	.L144:
 2359              		.loc 1 1415 0
 2360 0f2a 1846     		mov	r0, r3
 2361 0f2c 05B0     		add	sp, sp, #20
 2362              		@ sp needed
 2363 0f2e 5DF804FB 		ldr	pc, [sp], #4
 2364              	.L172:
 2365 0f32 00BF     		.align	2
 2366              	.L171:
 2367 0f34 00000450 		.word	1342439424
 2368 0f38 00020450 		.word	1342439936
 2369 0f3c 00030450 		.word	1342440192
 2370              		.cfi_endproc
 2371              	.LFE133:
 2372              		.size	HAL_ADC_Start_IT, .-HAL_ADC_Start_IT
 2373              		.align	2
 2374              		.p2align 4,,15
 2375              		.global	HAL_ADC_Stop_IT
 2376              		.thumb
 2377              		.thumb_func
 2378              		.type	HAL_ADC_Stop_IT, %function
 2379              	HAL_ADC_Stop_IT:
 2380              	.LFB134:
 2381              		.loc 1 1426 0
 2382              		.cfi_startproc
 2383              		@ args = 0, pretend = 0, frame = 16
ARM GAS  /tmp/ccrsTBIG.s 			page 43


 2384              		@ frame_needed = 0, uses_anonymous_args = 0
 2385 0f40 00B5     		push	{lr}
 2386              		.cfi_def_cfa_offset 4
 2387              		.cfi_offset 14, -4
 2388 0f42 85B0     		sub	sp, sp, #20
 2389              		.cfi_def_cfa_offset 24
 2390 0f44 0190     		str	r0, [sp, #4]
 2391              		.loc 1 1427 0
 2392 0f46 0023     		movs	r3, #0
 2393 0f48 8DF80F30 		strb	r3, [sp, #15]
 2394              		.loc 1 1433 0
 2395 0f4c 019B     		ldr	r3, [sp, #4]
 2396 0f4e 93F85430 		ldrb	r3, [r3, #84]	@ zero_extendqisi2
 2397 0f52 012B     		cmp	r3, #1
 2398 0f54 01D1     		bne	.L174
 2399              		.loc 1 1433 0 is_stmt 0 discriminator 1
 2400 0f56 0223     		movs	r3, #2
 2401 0f58 30E0     		b	.L175
 2402              	.L174:
 2403              		.loc 1 1433 0 discriminator 2
 2404 0f5a 019B     		ldr	r3, [sp, #4]
 2405 0f5c 0122     		movs	r2, #1
 2406 0f5e 83F85420 		strb	r2, [r3, #84]
 2407              		.loc 1 1436 0 is_stmt 1 discriminator 2
 2408 0f62 0198     		ldr	r0, [sp, #4]
 2409 0f64 6C21     		movs	r1, #108
 2410 0f66 FFF7FEFF 		bl	ADC_ConversionStop
 2411 0f6a 0346     		mov	r3, r0
 2412 0f6c 8DF80F30 		strb	r3, [sp, #15]
 2413              		.loc 1 1439 0 discriminator 2
 2414 0f70 9DF80F30 		ldrb	r3, [sp, #15]	@ zero_extendqisi2
 2415 0f74 002B     		cmp	r3, #0
 2416 0f76 1BD1     		bne	.L176
 2417              		.loc 1 1442 0
 2418 0f78 019B     		ldr	r3, [sp, #4]
 2419 0f7a 1B68     		ldr	r3, [r3]
 2420 0f7c 019A     		ldr	r2, [sp, #4]
 2421 0f7e 1268     		ldr	r2, [r2]
 2422 0f80 5268     		ldr	r2, [r2, #4]
 2423 0f82 22F01C02 		bic	r2, r2, #28
 2424 0f86 5A60     		str	r2, [r3, #4]
 2425              		.loc 1 1445 0
 2426 0f88 0198     		ldr	r0, [sp, #4]
 2427 0f8a FFF7FEFF 		bl	ADC_Disable
 2428 0f8e 0346     		mov	r3, r0
 2429 0f90 8DF80F30 		strb	r3, [sp, #15]
 2430              		.loc 1 1448 0
 2431 0f94 9DF80F30 		ldrb	r3, [sp, #15]	@ zero_extendqisi2
 2432 0f98 002B     		cmp	r3, #0
 2433 0f9a 09D1     		bne	.L176
 2434              		.loc 1 1452 0
 2435 0f9c 019B     		ldr	r3, [sp, #4]
 2436 0f9e 9B6D     		ldr	r3, [r3, #88]
 2437 0fa0 23F48853 		bic	r3, r3, #4352
 2438 0fa4 23F00103 		bic	r3, r3, #1
 2439 0fa8 43F00102 		orr	r2, r3, #1
 2440 0fac 019B     		ldr	r3, [sp, #4]
ARM GAS  /tmp/ccrsTBIG.s 			page 44


 2441 0fae 9A65     		str	r2, [r3, #88]
 2442              	.L176:
 2443              		.loc 1 1457 0
 2444 0fb0 019B     		ldr	r3, [sp, #4]
 2445 0fb2 0022     		movs	r2, #0
 2446 0fb4 83F85420 		strb	r2, [r3, #84]
 2447              		.loc 1 1460 0
 2448 0fb8 9DF80F30 		ldrb	r3, [sp, #15]	@ zero_extendqisi2
 2449              	.L175:
 2450              		.loc 1 1461 0
 2451 0fbc 1846     		mov	r0, r3
 2452 0fbe 05B0     		add	sp, sp, #20
 2453              		@ sp needed
 2454 0fc0 5DF804FB 		ldr	pc, [sp], #4
 2455              		.cfi_endproc
 2456              	.LFE134:
 2457              		.size	HAL_ADC_Stop_IT, .-HAL_ADC_Stop_IT
 2458              		.align	2
 2459 0fc4 AFF30080 		.p2align 4,,15
 2459      AFF30080 
 2459      AFF30080 
 2460              		.global	HAL_ADC_Start_DMA
 2461              		.thumb
 2462              		.thumb_func
 2463              		.type	HAL_ADC_Start_DMA, %function
 2464              	HAL_ADC_Start_DMA:
 2465              	.LFB135:
 2466              		.loc 1 1478 0
 2467              		.cfi_startproc
 2468              		@ args = 0, pretend = 0, frame = 24
 2469              		@ frame_needed = 0, uses_anonymous_args = 0
 2470 0fd0 00B5     		push	{lr}
 2471              		.cfi_def_cfa_offset 4
 2472              		.cfi_offset 14, -4
 2473 0fd2 87B0     		sub	sp, sp, #28
 2474              		.cfi_def_cfa_offset 32
 2475 0fd4 0390     		str	r0, [sp, #12]
 2476 0fd6 0291     		str	r1, [sp, #8]
 2477 0fd8 0192     		str	r2, [sp, #4]
 2478              		.loc 1 1479 0
 2479 0fda 0023     		movs	r3, #0
 2480 0fdc 8DF81730 		strb	r3, [sp, #23]
 2481              		.loc 1 1484 0
 2482 0fe0 039B     		ldr	r3, [sp, #12]
 2483 0fe2 1B68     		ldr	r3, [r3]
 2484 0fe4 9B68     		ldr	r3, [r3, #8]
 2485 0fe6 03F00403 		and	r3, r3, #4
 2486 0fea 002B     		cmp	r3, #0
 2487 0fec 01D0     		beq	.L178
 2488              		.loc 1 1486 0
 2489 0fee 0223     		movs	r3, #2
 2490 0ff0 ADE0     		b	.L179
 2491              	.L178:
 2492              		.loc 1 1492 0
 2493 0ff2 039B     		ldr	r3, [sp, #12]
 2494 0ff4 93F85430 		ldrb	r3, [r3, #84]	@ zero_extendqisi2
 2495 0ff8 012B     		cmp	r3, #1
ARM GAS  /tmp/ccrsTBIG.s 			page 45


 2496 0ffa 01D1     		bne	.L180
 2497              		.loc 1 1492 0 is_stmt 0 discriminator 1
 2498 0ffc 0223     		movs	r3, #2
 2499 0ffe A6E0     		b	.L179
 2500              	.L180:
 2501              		.loc 1 1492 0 discriminator 2
 2502 1000 039B     		ldr	r3, [sp, #12]
 2503 1002 0122     		movs	r2, #1
 2504 1004 83F85420 		strb	r2, [r3, #84]
 2505              		.loc 1 1496 0 is_stmt 1 discriminator 2
 2506 1008 039B     		ldr	r3, [sp, #12]
 2507 100a 1A68     		ldr	r2, [r3]
 2508 100c 524B     		ldr	r3, .L192
 2509 100e 9A42     		cmp	r2, r3
 2510 1010 04D0     		beq	.L181
 2511 1012 039B     		ldr	r3, [sp, #12]
 2512 1014 1A68     		ldr	r2, [r3]
 2513 1016 514B     		ldr	r3, .L192+4
 2514 1018 9A42     		cmp	r2, r3
 2515 101a 13D1     		bne	.L182
 2516              	.L181:
 2517              		.loc 1 1496 0 is_stmt 0 discriminator 1
 2518 101c 504B     		ldr	r3, .L192+8
 2519 101e 9B68     		ldr	r3, [r3, #8]
 2520 1020 03F01F03 		and	r3, r3, #31
 2521 1024 002B     		cmp	r3, #0
 2522 1026 0DD0     		beq	.L182
 2523              		.loc 1 1496 0 discriminator 3
 2524 1028 4D4B     		ldr	r3, .L192+8
 2525 102a 9B68     		ldr	r3, [r3, #8]
 2526 102c 03F01F03 		and	r3, r3, #31
 2527 1030 052B     		cmp	r3, #5
 2528 1032 07D0     		beq	.L182
 2529              		.loc 1 1496 0 discriminator 1
 2530 1034 4A4B     		ldr	r3, .L192+8
 2531 1036 9B68     		ldr	r3, [r3, #8]
 2532 1038 03F01F03 		and	r3, r3, #31
 2533 103c 092B     		cmp	r3, #9
 2534 103e 01D0     		beq	.L182
 2535 1040 0123     		movs	r3, #1
 2536 1042 00E0     		b	.L183
 2537              	.L182:
 2538 1044 0023     		movs	r3, #0
 2539              	.L183:
 2540              		.loc 1 1496 0 discriminator 4
 2541 1046 002B     		cmp	r3, #0
 2542 1048 78D1     		bne	.L184
 2543              		.loc 1 1499 0 is_stmt 1
 2544 104a 0398     		ldr	r0, [sp, #12]
 2545 104c FFF7FEFF 		bl	ADC_Enable
 2546 1050 0346     		mov	r3, r0
 2547 1052 8DF81730 		strb	r3, [sp, #23]
 2548              		.loc 1 1502 0
 2549 1056 9DF81730 		ldrb	r3, [sp, #23]	@ zero_extendqisi2
 2550 105a 002B     		cmp	r3, #0
 2551 105c 69D1     		bne	.L185
 2552              		.loc 1 1505 0
ARM GAS  /tmp/ccrsTBIG.s 			page 46


 2553 105e 039B     		ldr	r3, [sp, #12]
 2554 1060 9B6D     		ldr	r3, [r3, #88]
 2555 1062 03F48053 		and	r3, r3, #4096
 2556 1066 002B     		cmp	r3, #0
 2557 1068 06D0     		beq	.L186
 2558              		.loc 1 1508 0
 2559 106a 039B     		ldr	r3, [sp, #12]
 2560 106c DB6D     		ldr	r3, [r3, #92]
 2561 106e 23F00602 		bic	r2, r3, #6
 2562 1072 039B     		ldr	r3, [sp, #12]
 2563 1074 DA65     		str	r2, [r3, #92]
 2564 1076 02E0     		b	.L187
 2565              	.L186:
 2566              		.loc 1 1513 0
 2567 1078 039B     		ldr	r3, [sp, #12]
 2568 107a 0022     		movs	r2, #0
 2569 107c DA65     		str	r2, [r3, #92]
 2570              	.L187:
 2571              		.loc 1 1516 0
 2572 107e 039B     		ldr	r3, [sp, #12]
 2573 1080 9B6D     		ldr	r3, [r3, #88]
 2574 1082 23F47063 		bic	r3, r3, #3840
 2575 1086 23F00103 		bic	r3, r3, #1
 2576 108a 43F48072 		orr	r2, r3, #256
 2577 108e 039B     		ldr	r3, [sp, #12]
 2578 1090 9A65     		str	r2, [r3, #88]
 2579              		.loc 1 1521 0
 2580 1092 039B     		ldr	r3, [sp, #12]
 2581 1094 1A68     		ldr	r2, [r3]
 2582 1096 304B     		ldr	r3, .L192
 2583 1098 9A42     		cmp	r2, r3
 2584 109a 0AD0     		beq	.L188
 2585              		.loc 1 1521 0 is_stmt 0 discriminator 1
 2586 109c 039B     		ldr	r3, [sp, #12]
 2587 109e 1A68     		ldr	r2, [r3]
 2588 10a0 304B     		ldr	r3, .L192+12
 2589 10a2 9A42     		cmp	r2, r3
 2590 10a4 05D0     		beq	.L188
 2591 10a6 2E4B     		ldr	r3, .L192+8
 2592 10a8 9B68     		ldr	r3, [r3, #8]
 2593 10aa 03F01F03 		and	r3, r3, #31
 2594 10ae 002B     		cmp	r3, #0
 2595 10b0 05D1     		bne	.L189
 2596              	.L188:
 2597              		.loc 1 1523 0 is_stmt 1
 2598 10b2 039B     		ldr	r3, [sp, #12]
 2599 10b4 9B6D     		ldr	r3, [r3, #88]
 2600 10b6 23F48012 		bic	r2, r3, #1048576
 2601 10ba 039B     		ldr	r3, [sp, #12]
 2602 10bc 9A65     		str	r2, [r3, #88]
 2603              	.L189:
 2604              		.loc 1 1527 0
 2605 10be 039B     		ldr	r3, [sp, #12]
 2606 10c0 1B6D     		ldr	r3, [r3, #80]
 2607 10c2 294A     		ldr	r2, .L192+16
 2608 10c4 DA62     		str	r2, [r3, #44]
 2609              		.loc 1 1530 0
ARM GAS  /tmp/ccrsTBIG.s 			page 47


 2610 10c6 039B     		ldr	r3, [sp, #12]
 2611 10c8 1B6D     		ldr	r3, [r3, #80]
 2612 10ca 284A     		ldr	r2, .L192+20
 2613 10cc 1A63     		str	r2, [r3, #48]
 2614              		.loc 1 1533 0
 2615 10ce 039B     		ldr	r3, [sp, #12]
 2616 10d0 1B6D     		ldr	r3, [r3, #80]
 2617 10d2 274A     		ldr	r2, .L192+24
 2618 10d4 5A63     		str	r2, [r3, #52]
 2619              		.loc 1 1542 0
 2620 10d6 039B     		ldr	r3, [sp, #12]
 2621 10d8 1B68     		ldr	r3, [r3]
 2622 10da 1C22     		movs	r2, #28
 2623 10dc 1A60     		str	r2, [r3]
 2624              		.loc 1 1547 0
 2625 10de 039B     		ldr	r3, [sp, #12]
 2626 10e0 1B68     		ldr	r3, [r3]
 2627 10e2 039A     		ldr	r2, [sp, #12]
 2628 10e4 1268     		ldr	r2, [r2]
 2629 10e6 5268     		ldr	r2, [r2, #4]
 2630 10e8 42F01002 		orr	r2, r2, #16
 2631 10ec 5A60     		str	r2, [r3, #4]
 2632              		.loc 1 1551 0
 2633 10ee 039B     		ldr	r3, [sp, #12]
 2634 10f0 1B68     		ldr	r3, [r3]
 2635 10f2 039A     		ldr	r2, [sp, #12]
 2636 10f4 1268     		ldr	r2, [r2]
 2637 10f6 D268     		ldr	r2, [r2, #12]
 2638 10f8 42F00102 		orr	r2, r2, #1
 2639 10fc DA60     		str	r2, [r3, #12]
 2640              		.loc 1 1554 0
 2641 10fe 039B     		ldr	r3, [sp, #12]
 2642 1100 196D     		ldr	r1, [r3, #80]
 2643 1102 039B     		ldr	r3, [sp, #12]
 2644 1104 1B68     		ldr	r3, [r3]
 2645 1106 4033     		adds	r3, r3, #64
 2646 1108 1A46     		mov	r2, r3
 2647 110a 029B     		ldr	r3, [sp, #8]
 2648 110c 0846     		mov	r0, r1
 2649 110e 1146     		mov	r1, r2
 2650 1110 1A46     		mov	r2, r3
 2651 1112 019B     		ldr	r3, [sp, #4]
 2652 1114 FFF7FEFF 		bl	HAL_DMA_Start_IT
 2653              		.loc 1 1558 0
 2654 1118 039B     		ldr	r3, [sp, #12]
 2655 111a 0022     		movs	r2, #0
 2656 111c 83F85420 		strb	r2, [r3, #84]
 2657              		.loc 1 1562 0
 2658 1120 039B     		ldr	r3, [sp, #12]
 2659 1122 1B68     		ldr	r3, [r3]
 2660 1124 039A     		ldr	r2, [sp, #12]
 2661 1126 1268     		ldr	r2, [r2]
 2662 1128 9268     		ldr	r2, [r2, #8]
 2663 112a 42F00402 		orr	r2, r2, #4
 2664 112e 9A60     		str	r2, [r3, #8]
 2665 1130 0BE0     		b	.L191
 2666              	.L185:
ARM GAS  /tmp/ccrsTBIG.s 			page 48


 2667              		.loc 1 1568 0
 2668 1132 039B     		ldr	r3, [sp, #12]
 2669 1134 0022     		movs	r2, #0
 2670 1136 83F85420 		strb	r2, [r3, #84]
 2671 113a 06E0     		b	.L191
 2672              	.L184:
 2673              		.loc 1 1573 0
 2674 113c 0123     		movs	r3, #1
 2675 113e 8DF81730 		strb	r3, [sp, #23]
 2676              		.loc 1 1575 0
 2677 1142 039B     		ldr	r3, [sp, #12]
 2678 1144 0022     		movs	r2, #0
 2679 1146 83F85420 		strb	r2, [r3, #84]
 2680              	.L191:
 2681              		.loc 1 1581 0
 2682 114a 9DF81730 		ldrb	r3, [sp, #23]	@ zero_extendqisi2
 2683              	.L179:
 2684              		.loc 1 1583 0
 2685 114e 1846     		mov	r0, r3
 2686 1150 07B0     		add	sp, sp, #28
 2687              		@ sp needed
 2688 1152 5DF804FB 		ldr	pc, [sp], #4
 2689              	.L193:
 2690 1156 00BF     		.align	2
 2691              	.L192:
 2692 1158 00000450 		.word	1342439424
 2693 115c 00010450 		.word	1342439680
 2694 1160 00030450 		.word	1342440192
 2695 1164 00020450 		.word	1342439936
 2696 1168 00000000 		.word	ADC_DMAConvCplt
 2697 116c 00000000 		.word	ADC_DMAHalfConvCplt
 2698 1170 00000000 		.word	ADC_DMAError
 2699              		.cfi_endproc
 2700              	.LFE135:
 2701              		.size	HAL_ADC_Start_DMA, .-HAL_ADC_Start_DMA
 2702              		.align	2
 2703 1174 AFF30080 		.p2align 4,,15
 2703      AFF30080 
 2703      AFF30080 
 2704              		.global	HAL_ADC_Stop_DMA
 2705              		.thumb
 2706              		.thumb_func
 2707              		.type	HAL_ADC_Stop_DMA, %function
 2708              	HAL_ADC_Stop_DMA:
 2709              	.LFB136:
 2710              		.loc 1 1596 0
 2711              		.cfi_startproc
 2712              		@ args = 0, pretend = 0, frame = 16
 2713              		@ frame_needed = 0, uses_anonymous_args = 0
 2714 1180 00B5     		push	{lr}
 2715              		.cfi_def_cfa_offset 4
 2716              		.cfi_offset 14, -4
 2717 1182 85B0     		sub	sp, sp, #20
 2718              		.cfi_def_cfa_offset 24
 2719 1184 0190     		str	r0, [sp, #4]
 2720              		.loc 1 1597 0
 2721 1186 0023     		movs	r3, #0
ARM GAS  /tmp/ccrsTBIG.s 			page 49


 2722 1188 8DF80F30 		strb	r3, [sp, #15]
 2723              		.loc 1 1603 0
 2724 118c 019B     		ldr	r3, [sp, #4]
 2725 118e 93F85430 		ldrb	r3, [r3, #84]	@ zero_extendqisi2
 2726 1192 012B     		cmp	r3, #1
 2727 1194 01D1     		bne	.L195
 2728              		.loc 1 1603 0 is_stmt 0 discriminator 1
 2729 1196 0223     		movs	r3, #2
 2730 1198 52E0     		b	.L196
 2731              	.L195:
 2732              		.loc 1 1603 0 discriminator 2
 2733 119a 019B     		ldr	r3, [sp, #4]
 2734 119c 0122     		movs	r2, #1
 2735 119e 83F85420 		strb	r2, [r3, #84]
 2736              		.loc 1 1606 0 is_stmt 1 discriminator 2
 2737 11a2 0198     		ldr	r0, [sp, #4]
 2738 11a4 6C21     		movs	r1, #108
 2739 11a6 FFF7FEFF 		bl	ADC_ConversionStop
 2740 11aa 0346     		mov	r3, r0
 2741 11ac 8DF80F30 		strb	r3, [sp, #15]
 2742              		.loc 1 1609 0 discriminator 2
 2743 11b0 9DF80F30 		ldrb	r3, [sp, #15]	@ zero_extendqisi2
 2744 11b4 002B     		cmp	r3, #0
 2745 11b6 3DD1     		bne	.L197
 2746              		.loc 1 1612 0
 2747 11b8 019B     		ldr	r3, [sp, #4]
 2748 11ba 1B68     		ldr	r3, [r3]
 2749 11bc 019A     		ldr	r2, [sp, #4]
 2750 11be 1268     		ldr	r2, [r2]
 2751 11c0 D268     		ldr	r2, [r2, #12]
 2752 11c2 22F00102 		bic	r2, r2, #1
 2753 11c6 DA60     		str	r2, [r3, #12]
 2754              		.loc 1 1616 0
 2755 11c8 019B     		ldr	r3, [sp, #4]
 2756 11ca 1B6D     		ldr	r3, [r3, #80]
 2757 11cc 1846     		mov	r0, r3
 2758 11ce FFF7FEFF 		bl	HAL_DMA_Abort
 2759 11d2 0346     		mov	r3, r0
 2760 11d4 8DF80F30 		strb	r3, [sp, #15]
 2761              		.loc 1 1619 0
 2762 11d8 9DF80F30 		ldrb	r3, [sp, #15]	@ zero_extendqisi2
 2763 11dc 002B     		cmp	r3, #0
 2764 11de 05D0     		beq	.L198
 2765              		.loc 1 1622 0
 2766 11e0 019B     		ldr	r3, [sp, #4]
 2767 11e2 9B6D     		ldr	r3, [r3, #88]
 2768 11e4 43F01002 		orr	r2, r3, #16
 2769 11e8 019B     		ldr	r3, [sp, #4]
 2770 11ea 9A65     		str	r2, [r3, #88]
 2771              	.L198:
 2772              		.loc 1 1626 0
 2773 11ec 019B     		ldr	r3, [sp, #4]
 2774 11ee 1B68     		ldr	r3, [r3]
 2775 11f0 019A     		ldr	r2, [sp, #4]
 2776 11f2 1268     		ldr	r2, [r2]
 2777 11f4 5268     		ldr	r2, [r2, #4]
 2778 11f6 22F01002 		bic	r2, r2, #16
ARM GAS  /tmp/ccrsTBIG.s 			page 50


 2779 11fa 5A60     		str	r2, [r3, #4]
 2780              		.loc 1 1631 0
 2781 11fc 9DF80F30 		ldrb	r3, [sp, #15]	@ zero_extendqisi2
 2782 1200 002B     		cmp	r3, #0
 2783 1202 06D1     		bne	.L199
 2784              		.loc 1 1633 0
 2785 1204 0198     		ldr	r0, [sp, #4]
 2786 1206 FFF7FEFF 		bl	ADC_Disable
 2787 120a 0346     		mov	r3, r0
 2788 120c 8DF80F30 		strb	r3, [sp, #15]
 2789 1210 02E0     		b	.L200
 2790              	.L199:
 2791              		.loc 1 1637 0
 2792 1212 0198     		ldr	r0, [sp, #4]
 2793 1214 FFF7FEFF 		bl	ADC_Disable
 2794              	.L200:
 2795              		.loc 1 1641 0
 2796 1218 9DF80F30 		ldrb	r3, [sp, #15]	@ zero_extendqisi2
 2797 121c 002B     		cmp	r3, #0
 2798 121e 09D1     		bne	.L197
 2799              		.loc 1 1645 0
 2800 1220 019B     		ldr	r3, [sp, #4]
 2801 1222 9B6D     		ldr	r3, [r3, #88]
 2802 1224 23F48853 		bic	r3, r3, #4352
 2803 1228 23F00103 		bic	r3, r3, #1
 2804 122c 43F00102 		orr	r2, r3, #1
 2805 1230 019B     		ldr	r3, [sp, #4]
 2806 1232 9A65     		str	r2, [r3, #88]
 2807              	.L197:
 2808              		.loc 1 1651 0
 2809 1234 019B     		ldr	r3, [sp, #4]
 2810 1236 0022     		movs	r2, #0
 2811 1238 83F85420 		strb	r2, [r3, #84]
 2812              		.loc 1 1654 0
 2813 123c 9DF80F30 		ldrb	r3, [sp, #15]	@ zero_extendqisi2
 2814              	.L196:
 2815              		.loc 1 1655 0
 2816 1240 1846     		mov	r0, r3
 2817 1242 05B0     		add	sp, sp, #20
 2818              		@ sp needed
 2819 1244 5DF804FB 		ldr	pc, [sp], #4
 2820              		.cfi_endproc
 2821              	.LFE136:
 2822              		.size	HAL_ADC_Stop_DMA, .-HAL_ADC_Stop_DMA
 2823              		.align	2
 2824 1248 AFF30080 		.p2align 4,,15
 2824      AFF30080 
 2825              		.global	HAL_ADC_GetValue
 2826              		.thumb
 2827              		.thumb_func
 2828              		.type	HAL_ADC_GetValue, %function
 2829              	HAL_ADC_GetValue:
 2830              	.LFB137:
 2831              		.loc 1 1667 0
 2832              		.cfi_startproc
 2833              		@ args = 0, pretend = 0, frame = 8
 2834              		@ frame_needed = 0, uses_anonymous_args = 0
ARM GAS  /tmp/ccrsTBIG.s 			page 51


 2835              		@ link register save eliminated.
 2836 1250 82B0     		sub	sp, sp, #8
 2837              		.cfi_def_cfa_offset 8
 2838 1252 0190     		str	r0, [sp, #4]
 2839              		.loc 1 1672 0
 2840 1254 019B     		ldr	r3, [sp, #4]
 2841 1256 1B68     		ldr	r3, [r3]
 2842 1258 1B6C     		ldr	r3, [r3, #64]
 2843              		.loc 1 1673 0
 2844 125a 1846     		mov	r0, r3
 2845 125c 02B0     		add	sp, sp, #8
 2846              		@ sp needed
 2847 125e 7047     		bx	lr
 2848              		.cfi_endproc
 2849              	.LFE137:
 2850              		.size	HAL_ADC_GetValue, .-HAL_ADC_GetValue
 2851              		.align	2
 2852              		.p2align 4,,15
 2853              		.global	HAL_ADC_IRQHandler
 2854              		.thumb
 2855              		.thumb_func
 2856              		.type	HAL_ADC_IRQHandler, %function
 2857              	HAL_ADC_IRQHandler:
 2858              	.LFB138:
 2859              		.loc 1 1682 0
 2860              		.cfi_startproc
 2861              		@ args = 0, pretend = 0, frame = 32
 2862              		@ frame_needed = 0, uses_anonymous_args = 0
 2863 1260 00B5     		push	{lr}
 2864              		.cfi_def_cfa_offset 4
 2865              		.cfi_offset 14, -4
 2866 1262 89B0     		sub	sp, sp, #36
 2867              		.cfi_def_cfa_offset 40
 2868 1264 0190     		str	r0, [sp, #4]
 2869              		.loc 1 1683 0
 2870 1266 0023     		movs	r3, #0
 2871 1268 0793     		str	r3, [sp, #28]
 2872              		.loc 1 1685 0
 2873 126a 019B     		ldr	r3, [sp, #4]
 2874 126c 1B68     		ldr	r3, [r3]
 2875 126e 1B68     		ldr	r3, [r3]
 2876 1270 0493     		str	r3, [sp, #16]
 2877              		.loc 1 1686 0
 2878 1272 019B     		ldr	r3, [sp, #4]
 2879 1274 1B68     		ldr	r3, [r3]
 2880 1276 5B68     		ldr	r3, [r3, #4]
 2881 1278 0393     		str	r3, [sp, #12]
 2882              		.loc 1 1687 0
 2883 127a 0023     		movs	r3, #0
 2884 127c 0693     		str	r3, [sp, #24]
 2885              		.loc 1 1688 0
 2886 127e 0023     		movs	r3, #0
 2887 1280 0593     		str	r3, [sp, #20]
 2888              		.loc 1 1697 0
 2889 1282 049B     		ldr	r3, [sp, #16]
 2890 1284 03F00203 		and	r3, r3, #2
 2891 1288 002B     		cmp	r3, #0
ARM GAS  /tmp/ccrsTBIG.s 			page 52


 2892 128a 17D0     		beq	.L204
 2893              		.loc 1 1697 0 is_stmt 0 discriminator 1
 2894 128c 039B     		ldr	r3, [sp, #12]
 2895 128e 03F00203 		and	r3, r3, #2
 2896 1292 002B     		cmp	r3, #0
 2897 1294 12D0     		beq	.L204
 2898              		.loc 1 1700 0 is_stmt 1
 2899 1296 019B     		ldr	r3, [sp, #4]
 2900 1298 9B6D     		ldr	r3, [r3, #88]
 2901 129a 03F01003 		and	r3, r3, #16
 2902 129e 002B     		cmp	r3, #0
 2903 12a0 05D1     		bne	.L205
 2904              		.loc 1 1703 0
 2905 12a2 019B     		ldr	r3, [sp, #4]
 2906 12a4 9B6D     		ldr	r3, [r3, #88]
 2907 12a6 43F40062 		orr	r2, r3, #2048
 2908 12aa 019B     		ldr	r3, [sp, #4]
 2909 12ac 9A65     		str	r2, [r3, #88]
 2910              	.L205:
 2911              		.loc 1 1707 0
 2912 12ae 0198     		ldr	r0, [sp, #4]
 2913 12b0 FFF7FEFF 		bl	HAL_ADCEx_EndOfSamplingCallback
 2914              		.loc 1 1710 0
 2915 12b4 019B     		ldr	r3, [sp, #4]
 2916 12b6 1B68     		ldr	r3, [r3]
 2917 12b8 0222     		movs	r2, #2
 2918 12ba 1A60     		str	r2, [r3]
 2919              	.L204:
 2920              		.loc 1 1714 0
 2921 12bc 049B     		ldr	r3, [sp, #16]
 2922 12be 03F00403 		and	r3, r3, #4
 2923 12c2 002B     		cmp	r3, #0
 2924 12c4 04D0     		beq	.L206
 2925              		.loc 1 1714 0 is_stmt 0 discriminator 1
 2926 12c6 039B     		ldr	r3, [sp, #12]
 2927 12c8 03F00403 		and	r3, r3, #4
 2928 12cc 002B     		cmp	r3, #0
 2929 12ce 0BD1     		bne	.L207
 2930              	.L206:
 2931              		.loc 1 1715 0 is_stmt 1 discriminator 2
 2932 12d0 049B     		ldr	r3, [sp, #16]
 2933 12d2 03F00803 		and	r3, r3, #8
 2934              		.loc 1 1714 0 discriminator 2
 2935 12d6 002B     		cmp	r3, #0
 2936 12d8 00F08D80 		beq	.L208
 2937              		.loc 1 1715 0
 2938 12dc 039B     		ldr	r3, [sp, #12]
 2939 12de 03F00803 		and	r3, r3, #8
 2940 12e2 002B     		cmp	r3, #0
 2941 12e4 00F08780 		beq	.L208
 2942              	.L207:
 2943              		.loc 1 1718 0
 2944 12e8 019B     		ldr	r3, [sp, #4]
 2945 12ea 9B6D     		ldr	r3, [r3, #88]
 2946 12ec 03F01003 		and	r3, r3, #16
 2947 12f0 002B     		cmp	r3, #0
 2948 12f2 05D1     		bne	.L209
ARM GAS  /tmp/ccrsTBIG.s 			page 53


 2949              		.loc 1 1721 0
 2950 12f4 019B     		ldr	r3, [sp, #4]
 2951 12f6 9B6D     		ldr	r3, [r3, #88]
 2952 12f8 43F40072 		orr	r2, r3, #512
 2953 12fc 019B     		ldr	r3, [sp, #4]
 2954 12fe 9A65     		str	r2, [r3, #88]
 2955              	.L209:
 2956              		.loc 1 1727 0
 2957 1300 019B     		ldr	r3, [sp, #4]
 2958 1302 1B68     		ldr	r3, [r3]
 2959 1304 DB68     		ldr	r3, [r3, #12]
 2960 1306 03F44063 		and	r3, r3, #3072
 2961 130a 002B     		cmp	r3, #0
 2962 130c 6CD1     		bne	.L210
 2963              		.loc 1 1729 0
 2964 130e 019B     		ldr	r3, [sp, #4]
 2965 1310 1A68     		ldr	r2, [r3]
 2966 1312 7E4B     		ldr	r3, .L253
 2967 1314 9A42     		cmp	r2, r3
 2968 1316 16D0     		beq	.L211
 2969              		.loc 1 1729 0 is_stmt 0 discriminator 1
 2970 1318 019B     		ldr	r3, [sp, #4]
 2971 131a 1A68     		ldr	r2, [r3]
 2972 131c 7C4B     		ldr	r3, .L253+4
 2973 131e 9A42     		cmp	r2, r3
 2974 1320 11D0     		beq	.L211
 2975 1322 7C4B     		ldr	r3, .L253+8
 2976 1324 9B68     		ldr	r3, [r3, #8]
 2977 1326 03F01F03 		and	r3, r3, #31
 2978 132a 002B     		cmp	r3, #0
 2979 132c 0BD0     		beq	.L211
 2980 132e 794B     		ldr	r3, .L253+8
 2981 1330 9B68     		ldr	r3, [r3, #8]
 2982 1332 03F01F03 		and	r3, r3, #31
 2983 1336 052B     		cmp	r3, #5
 2984 1338 05D0     		beq	.L211
 2985 133a 764B     		ldr	r3, .L253+8
 2986 133c 9B68     		ldr	r3, [r3, #8]
 2987 133e 03F01F03 		and	r3, r3, #31
 2988 1342 092B     		cmp	r3, #9
 2989 1344 04D1     		bne	.L212
 2990              	.L211:
 2991              		.loc 1 1732 0 is_stmt 1
 2992 1346 019B     		ldr	r3, [sp, #4]
 2993 1348 1B68     		ldr	r3, [r3]
 2994 134a DB68     		ldr	r3, [r3, #12]
 2995 134c 0693     		str	r3, [sp, #24]
 2996 134e 11E0     		b	.L213
 2997              	.L212:
 2998              		.loc 1 1737 0
 2999 1350 019B     		ldr	r3, [sp, #4]
 3000 1352 1A68     		ldr	r2, [r3]
 3001 1354 6D4B     		ldr	r3, .L253
 3002 1356 9A42     		cmp	r2, r3
 3003 1358 04D0     		beq	.L214
 3004              		.loc 1 1737 0 is_stmt 0 discriminator 2
 3005 135a 019B     		ldr	r3, [sp, #4]
ARM GAS  /tmp/ccrsTBIG.s 			page 54


 3006 135c 1A68     		ldr	r2, [r3]
 3007 135e 6C4B     		ldr	r3, .L253+4
 3008 1360 9A42     		cmp	r2, r3
 3009 1362 02D1     		bne	.L215
 3010              	.L214:
 3011              		.loc 1 1737 0 discriminator 1
 3012 1364 019B     		ldr	r3, [sp, #4]
 3013 1366 1B68     		ldr	r3, [r3]
 3014 1368 00E0     		b	.L216
 3015              	.L215:
 3016 136a 684B     		ldr	r3, .L253
 3017              	.L216:
 3018              		.loc 1 1737 0 discriminator 3
 3019 136c 0293     		str	r3, [sp, #8]
 3020              		.loc 1 1738 0 is_stmt 1 discriminator 3
 3021 136e 029B     		ldr	r3, [sp, #8]
 3022 1370 DB68     		ldr	r3, [r3, #12]
 3023 1372 0693     		str	r3, [sp, #24]
 3024              	.L213:
 3025              		.loc 1 1742 0
 3026 1374 069B     		ldr	r3, [sp, #24]
 3027 1376 03F40053 		and	r3, r3, #8192
 3028 137a 002B     		cmp	r3, #0
 3029 137c 34D1     		bne	.L210
 3030              		.loc 1 1745 0
 3031 137e 019B     		ldr	r3, [sp, #4]
 3032 1380 1B68     		ldr	r3, [r3]
 3033 1382 1B68     		ldr	r3, [r3]
 3034 1384 03F00803 		and	r3, r3, #8
 3035 1388 002B     		cmp	r3, #0
 3036 138a 2DD0     		beq	.L210
 3037              		.loc 1 1749 0
 3038 138c 019B     		ldr	r3, [sp, #4]
 3039 138e 1B68     		ldr	r3, [r3]
 3040 1390 9B68     		ldr	r3, [r3, #8]
 3041 1392 03F00403 		and	r3, r3, #4
 3042 1396 002B     		cmp	r3, #0
 3043 1398 1AD1     		bne	.L217
 3044              		.loc 1 1755 0
 3045 139a 019B     		ldr	r3, [sp, #4]
 3046 139c 1B68     		ldr	r3, [r3]
 3047 139e 019A     		ldr	r2, [sp, #4]
 3048 13a0 1268     		ldr	r2, [r2]
 3049 13a2 5268     		ldr	r2, [r2, #4]
 3050 13a4 22F00C02 		bic	r2, r2, #12
 3051 13a8 5A60     		str	r2, [r3, #4]
 3052              		.loc 1 1757 0
 3053 13aa 019B     		ldr	r3, [sp, #4]
 3054 13ac 9B6D     		ldr	r3, [r3, #88]
 3055 13ae 23F48072 		bic	r2, r3, #256
 3056 13b2 019B     		ldr	r3, [sp, #4]
 3057 13b4 9A65     		str	r2, [r3, #88]
 3058              		.loc 1 1759 0
 3059 13b6 019B     		ldr	r3, [sp, #4]
 3060 13b8 9B6D     		ldr	r3, [r3, #88]
 3061 13ba 03F48053 		and	r3, r3, #4096
 3062 13be 002B     		cmp	r3, #0
ARM GAS  /tmp/ccrsTBIG.s 			page 55


 3063 13c0 12D1     		bne	.L210
 3064              		.loc 1 1761 0
 3065 13c2 019B     		ldr	r3, [sp, #4]
 3066 13c4 9B6D     		ldr	r3, [r3, #88]
 3067 13c6 43F00102 		orr	r2, r3, #1
 3068 13ca 019B     		ldr	r3, [sp, #4]
 3069 13cc 9A65     		str	r2, [r3, #88]
 3070 13ce 0BE0     		b	.L210
 3071              	.L217:
 3072              		.loc 1 1767 0
 3073 13d0 019B     		ldr	r3, [sp, #4]
 3074 13d2 9B6D     		ldr	r3, [r3, #88]
 3075 13d4 43F01002 		orr	r2, r3, #16
 3076 13d8 019B     		ldr	r3, [sp, #4]
 3077 13da 9A65     		str	r2, [r3, #88]
 3078              		.loc 1 1770 0
 3079 13dc 019B     		ldr	r3, [sp, #4]
 3080 13de DB6D     		ldr	r3, [r3, #92]
 3081 13e0 43F00102 		orr	r2, r3, #1
 3082 13e4 019B     		ldr	r3, [sp, #4]
 3083 13e6 DA65     		str	r2, [r3, #92]
 3084              	.L210:
 3085              		.loc 1 1782 0
 3086 13e8 0198     		ldr	r0, [sp, #4]
 3087 13ea FFF7FEFF 		bl	HAL_ADC_ConvCpltCallback
 3088              		.loc 1 1786 0
 3089 13ee 019B     		ldr	r3, [sp, #4]
 3090 13f0 1B68     		ldr	r3, [r3]
 3091 13f2 0C22     		movs	r2, #12
 3092 13f4 1A60     		str	r2, [r3]
 3093              	.L208:
 3094              		.loc 1 1791 0
 3095 13f6 049B     		ldr	r3, [sp, #16]
 3096 13f8 03F02003 		and	r3, r3, #32
 3097 13fc 002B     		cmp	r3, #0
 3098 13fe 04D0     		beq	.L219
 3099              		.loc 1 1791 0 is_stmt 0 discriminator 1
 3100 1400 039B     		ldr	r3, [sp, #12]
 3101 1402 03F02003 		and	r3, r3, #32
 3102 1406 002B     		cmp	r3, #0
 3103 1408 0BD1     		bne	.L220
 3104              	.L219:
 3105              		.loc 1 1792 0 is_stmt 1 discriminator 2
 3106 140a 049B     		ldr	r3, [sp, #16]
 3107 140c 03F04003 		and	r3, r3, #64
 3108              		.loc 1 1791 0 discriminator 2
 3109 1410 002B     		cmp	r3, #0
 3110 1412 00F0D480 		beq	.L221
 3111              		.loc 1 1792 0
 3112 1416 039B     		ldr	r3, [sp, #12]
 3113 1418 03F04003 		and	r3, r3, #64
 3114 141c 002B     		cmp	r3, #0
 3115 141e 00F0CE80 		beq	.L221
 3116              	.L220:
 3117              		.loc 1 1795 0
 3118 1422 019B     		ldr	r3, [sp, #4]
 3119 1424 9B6D     		ldr	r3, [r3, #88]
ARM GAS  /tmp/ccrsTBIG.s 			page 56


 3120 1426 03F01003 		and	r3, r3, #16
 3121 142a 002B     		cmp	r3, #0
 3122 142c 05D1     		bne	.L222
 3123              		.loc 1 1798 0
 3124 142e 019B     		ldr	r3, [sp, #4]
 3125 1430 9B6D     		ldr	r3, [r3, #88]
 3126 1432 43F40052 		orr	r2, r3, #8192
 3127 1436 019B     		ldr	r3, [sp, #4]
 3128 1438 9A65     		str	r2, [r3, #88]
 3129              	.L222:
 3130              		.loc 1 1808 0
 3131 143a 019B     		ldr	r3, [sp, #4]
 3132 143c 1B68     		ldr	r3, [r3]
 3133 143e 1B68     		ldr	r3, [r3]
 3134 1440 03F04003 		and	r3, r3, #64
 3135 1444 002B     		cmp	r3, #0
 3136 1446 00F0B380 		beq	.L223
 3137              		.loc 1 1813 0
 3138 144a 019B     		ldr	r3, [sp, #4]
 3139 144c 1A68     		ldr	r2, [r3]
 3140 144e 2F4B     		ldr	r3, .L253
 3141 1450 9A42     		cmp	r2, r3
 3142 1452 16D0     		beq	.L224
 3143              		.loc 1 1813 0 is_stmt 0 discriminator 1
 3144 1454 019B     		ldr	r3, [sp, #4]
 3145 1456 1A68     		ldr	r2, [r3]
 3146 1458 2D4B     		ldr	r3, .L253+4
 3147 145a 9A42     		cmp	r2, r3
 3148 145c 11D0     		beq	.L224
 3149 145e 2D4B     		ldr	r3, .L253+8
 3150 1460 9B68     		ldr	r3, [r3, #8]
 3151 1462 03F01F03 		and	r3, r3, #31
 3152 1466 002B     		cmp	r3, #0
 3153 1468 0BD0     		beq	.L224
 3154 146a 2A4B     		ldr	r3, .L253+8
 3155 146c 9B68     		ldr	r3, [r3, #8]
 3156 146e 03F01F03 		and	r3, r3, #31
 3157 1472 062B     		cmp	r3, #6
 3158 1474 05D0     		beq	.L224
 3159 1476 274B     		ldr	r3, .L253+8
 3160 1478 9B68     		ldr	r3, [r3, #8]
 3161 147a 03F01F03 		and	r3, r3, #31
 3162 147e 072B     		cmp	r3, #7
 3163 1480 04D1     		bne	.L225
 3164              	.L224:
 3165              		.loc 1 1817 0 is_stmt 1
 3166 1482 019B     		ldr	r3, [sp, #4]
 3167 1484 1B68     		ldr	r3, [r3]
 3168 1486 DB68     		ldr	r3, [r3, #12]
 3169 1488 0593     		str	r3, [sp, #20]
 3170 148a 11E0     		b	.L226
 3171              	.L225:
 3172              		.loc 1 1823 0
 3173 148c 019B     		ldr	r3, [sp, #4]
 3174 148e 1A68     		ldr	r2, [r3]
 3175 1490 1E4B     		ldr	r3, .L253
 3176 1492 9A42     		cmp	r2, r3
ARM GAS  /tmp/ccrsTBIG.s 			page 57


 3177 1494 04D0     		beq	.L227
 3178              		.loc 1 1823 0 is_stmt 0 discriminator 2
 3179 1496 019B     		ldr	r3, [sp, #4]
 3180 1498 1A68     		ldr	r2, [r3]
 3181 149a 1D4B     		ldr	r3, .L253+4
 3182 149c 9A42     		cmp	r2, r3
 3183 149e 02D1     		bne	.L228
 3184              	.L227:
 3185              		.loc 1 1823 0 discriminator 1
 3186 14a0 019B     		ldr	r3, [sp, #4]
 3187 14a2 1B68     		ldr	r3, [r3]
 3188 14a4 00E0     		b	.L229
 3189              	.L228:
 3190 14a6 194B     		ldr	r3, .L253
 3191              	.L229:
 3192              		.loc 1 1823 0 discriminator 3
 3193 14a8 0293     		str	r3, [sp, #8]
 3194              		.loc 1 1824 0 is_stmt 1 discriminator 3
 3195 14aa 029B     		ldr	r3, [sp, #8]
 3196 14ac DB68     		ldr	r3, [r3, #12]
 3197 14ae 0593     		str	r3, [sp, #20]
 3198              	.L226:
 3199              		.loc 1 1827 0
 3200 14b0 019B     		ldr	r3, [sp, #4]
 3201 14b2 1A68     		ldr	r2, [r3]
 3202 14b4 154B     		ldr	r3, .L253
 3203 14b6 9A42     		cmp	r2, r3
 3204 14b8 16D0     		beq	.L230
 3205              		.loc 1 1827 0 is_stmt 0 discriminator 1
 3206 14ba 019B     		ldr	r3, [sp, #4]
 3207 14bc 1A68     		ldr	r2, [r3]
 3208 14be 144B     		ldr	r3, .L253+4
 3209 14c0 9A42     		cmp	r2, r3
 3210 14c2 11D0     		beq	.L230
 3211 14c4 134B     		ldr	r3, .L253+8
 3212 14c6 9B68     		ldr	r3, [r3, #8]
 3213 14c8 03F01F03 		and	r3, r3, #31
 3214 14cc 002B     		cmp	r3, #0
 3215 14ce 0BD0     		beq	.L230
 3216 14d0 104B     		ldr	r3, .L253+8
 3217 14d2 9B68     		ldr	r3, [r3, #8]
 3218 14d4 03F01F03 		and	r3, r3, #31
 3219 14d8 052B     		cmp	r3, #5
 3220 14da 05D0     		beq	.L230
 3221 14dc 0D4B     		ldr	r3, .L253+8
 3222 14de 9B68     		ldr	r3, [r3, #8]
 3223 14e0 03F01F03 		and	r3, r3, #31
 3224 14e4 092B     		cmp	r3, #9
 3225 14e6 04D1     		bne	.L231
 3226              	.L230:
 3227              		.loc 1 1831 0 is_stmt 1
 3228 14e8 019B     		ldr	r3, [sp, #4]
 3229 14ea 1B68     		ldr	r3, [r3]
 3230 14ec DB68     		ldr	r3, [r3, #12]
 3231 14ee 0693     		str	r3, [sp, #24]
 3232 14f0 17E0     		b	.L232
 3233              	.L231:
ARM GAS  /tmp/ccrsTBIG.s 			page 58


 3234              		.loc 1 1837 0
 3235 14f2 019B     		ldr	r3, [sp, #4]
 3236 14f4 1A68     		ldr	r2, [r3]
 3237 14f6 054B     		ldr	r3, .L253
 3238 14f8 9A42     		cmp	r2, r3
 3239 14fa 04D0     		beq	.L233
 3240              		.loc 1 1837 0 is_stmt 0 discriminator 2
 3241 14fc 019B     		ldr	r3, [sp, #4]
 3242 14fe 1A68     		ldr	r2, [r3]
 3243 1500 034B     		ldr	r3, .L253+4
 3244 1502 9A42     		cmp	r2, r3
 3245 1504 08D1     		bne	.L234
 3246              	.L233:
 3247              		.loc 1 1837 0 discriminator 1
 3248 1506 019B     		ldr	r3, [sp, #4]
 3249 1508 1B68     		ldr	r3, [r3]
 3250 150a 06E0     		b	.L235
 3251              	.L254:
 3252              		.align	2
 3253              	.L253:
 3254 150c 00000450 		.word	1342439424
 3255 1510 00020450 		.word	1342439936
 3256 1514 00030450 		.word	1342440192
 3257              	.L234:
 3258 1518 884B     		ldr	r3, .L255
 3259              	.L235:
 3260              		.loc 1 1837 0 discriminator 3
 3261 151a 0293     		str	r3, [sp, #8]
 3262              		.loc 1 1838 0 is_stmt 1 discriminator 3
 3263 151c 029B     		ldr	r3, [sp, #8]
 3264 151e DB68     		ldr	r3, [r3, #12]
 3265 1520 0693     		str	r3, [sp, #24]
 3266              	.L232:
 3267              		.loc 1 1842 0
 3268 1522 019B     		ldr	r3, [sp, #4]
 3269 1524 1B68     		ldr	r3, [r3]
 3270 1526 DB6C     		ldr	r3, [r3, #76]
 3271 1528 03F0C003 		and	r3, r3, #192
 3272 152c 002B     		cmp	r3, #0
 3273 152e 3FD1     		bne	.L223
 3274              		.loc 1 1842 0 is_stmt 0 discriminator 1
 3275 1530 059B     		ldr	r3, [sp, #20]
 3276 1532 03F40013 		and	r3, r3, #2097152
 3277 1536 002B     		cmp	r3, #0
 3278 1538 3AD1     		bne	.L223
 3279              		.loc 1 1843 0 is_stmt 1
 3280 153a 069A     		ldr	r2, [sp, #24]
 3281 153c 804B     		ldr	r3, .L255+4
 3282 153e 1340     		ands	r3, r3, r2
 3283 1540 7F4A     		ldr	r2, .L255+4
 3284 1542 9342     		cmp	r3, r2
 3285 1544 06D1     		bne	.L236
 3286              		.loc 1 1844 0 discriminator 1
 3287 1546 019B     		ldr	r3, [sp, #4]
 3288 1548 1B68     		ldr	r3, [r3]
 3289 154a DB68     		ldr	r3, [r3, #12]
 3290 154c 03F44063 		and	r3, r3, #3072
ARM GAS  /tmp/ccrsTBIG.s 			page 59


 3291              		.loc 1 1843 0 discriminator 1
 3292 1550 002B     		cmp	r3, #0
 3293 1552 2DD0     		beq	.L223
 3294              	.L236:
 3295              		.loc 1 1848 0
 3296 1554 019B     		ldr	r3, [sp, #4]
 3297 1556 1B68     		ldr	r3, [r3]
 3298 1558 9B68     		ldr	r3, [r3, #8]
 3299 155a 03F00803 		and	r3, r3, #8
 3300 155e 002B     		cmp	r3, #0
 3301 1560 1AD1     		bne	.L237
 3302              		.loc 1 1851 0
 3303 1562 019B     		ldr	r3, [sp, #4]
 3304 1564 1B68     		ldr	r3, [r3]
 3305 1566 019A     		ldr	r2, [sp, #4]
 3306 1568 1268     		ldr	r2, [r2]
 3307 156a 5268     		ldr	r2, [r2, #4]
 3308 156c 22F06002 		bic	r2, r2, #96
 3309 1570 5A60     		str	r2, [r3, #4]
 3310              		.loc 1 1853 0
 3311 1572 019B     		ldr	r3, [sp, #4]
 3312 1574 9B6D     		ldr	r3, [r3, #88]
 3313 1576 23F48052 		bic	r2, r3, #4096
 3314 157a 019B     		ldr	r3, [sp, #4]
 3315 157c 9A65     		str	r2, [r3, #88]
 3316              		.loc 1 1855 0
 3317 157e 019B     		ldr	r3, [sp, #4]
 3318 1580 9B6D     		ldr	r3, [r3, #88]
 3319 1582 03F48073 		and	r3, r3, #256
 3320 1586 002B     		cmp	r3, #0
 3321 1588 12D1     		bne	.L223
 3322              		.loc 1 1857 0
 3323 158a 019B     		ldr	r3, [sp, #4]
 3324 158c 9B6D     		ldr	r3, [r3, #88]
 3325 158e 43F00102 		orr	r2, r3, #1
 3326 1592 019B     		ldr	r3, [sp, #4]
 3327 1594 9A65     		str	r2, [r3, #88]
 3328 1596 0BE0     		b	.L223
 3329              	.L237:
 3330              		.loc 1 1863 0
 3331 1598 019B     		ldr	r3, [sp, #4]
 3332 159a 9B6D     		ldr	r3, [r3, #88]
 3333 159c 43F01002 		orr	r2, r3, #16
 3334 15a0 019B     		ldr	r3, [sp, #4]
 3335 15a2 9A65     		str	r2, [r3, #88]
 3336              		.loc 1 1866 0
 3337 15a4 019B     		ldr	r3, [sp, #4]
 3338 15a6 DB6D     		ldr	r3, [r3, #92]
 3339 15a8 43F00102 		orr	r2, r3, #1
 3340 15ac 019B     		ldr	r3, [sp, #4]
 3341 15ae DA65     		str	r2, [r3, #92]
 3342              	.L223:
 3343              		.loc 1 1877 0
 3344 15b0 0198     		ldr	r0, [sp, #4]
 3345 15b2 FFF7FEFF 		bl	HAL_ADCEx_InjectedConvCpltCallback
 3346              		.loc 1 1880 0
 3347 15b6 019B     		ldr	r3, [sp, #4]
ARM GAS  /tmp/ccrsTBIG.s 			page 60


 3348 15b8 1B68     		ldr	r3, [r3]
 3349 15ba 6022     		movs	r2, #96
 3350 15bc 1A60     		str	r2, [r3]
 3351              	.L221:
 3352              		.loc 1 1887 0
 3353 15be 049B     		ldr	r3, [sp, #16]
 3354 15c0 03F08003 		and	r3, r3, #128
 3355 15c4 002B     		cmp	r3, #0
 3356 15c6 11D0     		beq	.L239
 3357              		.loc 1 1887 0 is_stmt 0 discriminator 1
 3358 15c8 039B     		ldr	r3, [sp, #12]
 3359 15ca 03F08003 		and	r3, r3, #128
 3360 15ce 002B     		cmp	r3, #0
 3361 15d0 0CD0     		beq	.L239
 3362              		.loc 1 1890 0 is_stmt 1
 3363 15d2 019B     		ldr	r3, [sp, #4]
 3364 15d4 9B6D     		ldr	r3, [r3, #88]
 3365 15d6 43F48032 		orr	r2, r3, #65536
 3366 15da 019B     		ldr	r3, [sp, #4]
 3367 15dc 9A65     		str	r2, [r3, #88]
 3368              		.loc 1 1893 0
 3369 15de 0198     		ldr	r0, [sp, #4]
 3370 15e0 FFF7FEFF 		bl	HAL_ADC_LevelOutOfWindowCallback
 3371              		.loc 1 1895 0
 3372 15e4 019B     		ldr	r3, [sp, #4]
 3373 15e6 1B68     		ldr	r3, [r3]
 3374 15e8 8022     		movs	r2, #128
 3375 15ea 1A60     		str	r2, [r3]
 3376              	.L239:
 3377              		.loc 1 1899 0
 3378 15ec 049B     		ldr	r3, [sp, #16]
 3379 15ee 03F48073 		and	r3, r3, #256
 3380 15f2 002B     		cmp	r3, #0
 3381 15f4 12D0     		beq	.L240
 3382              		.loc 1 1899 0 is_stmt 0 discriminator 1
 3383 15f6 039B     		ldr	r3, [sp, #12]
 3384 15f8 03F48073 		and	r3, r3, #256
 3385 15fc 002B     		cmp	r3, #0
 3386 15fe 0DD0     		beq	.L240
 3387              		.loc 1 1902 0 is_stmt 1
 3388 1600 019B     		ldr	r3, [sp, #4]
 3389 1602 9B6D     		ldr	r3, [r3, #88]
 3390 1604 43F40032 		orr	r2, r3, #131072
 3391 1608 019B     		ldr	r3, [sp, #4]
 3392 160a 9A65     		str	r2, [r3, #88]
 3393              		.loc 1 1905 0
 3394 160c 0198     		ldr	r0, [sp, #4]
 3395 160e FFF7FEFF 		bl	HAL_ADCEx_LevelOutOfWindow2Callback
 3396              		.loc 1 1907 0
 3397 1612 019B     		ldr	r3, [sp, #4]
 3398 1614 1B68     		ldr	r3, [r3]
 3399 1616 4FF48072 		mov	r2, #256
 3400 161a 1A60     		str	r2, [r3]
 3401              	.L240:
 3402              		.loc 1 1911 0
 3403 161c 049B     		ldr	r3, [sp, #16]
 3404 161e 03F40073 		and	r3, r3, #512
ARM GAS  /tmp/ccrsTBIG.s 			page 61


 3405 1622 002B     		cmp	r3, #0
 3406 1624 12D0     		beq	.L241
 3407              		.loc 1 1911 0 is_stmt 0 discriminator 1
 3408 1626 039B     		ldr	r3, [sp, #12]
 3409 1628 03F40073 		and	r3, r3, #512
 3410 162c 002B     		cmp	r3, #0
 3411 162e 0DD0     		beq	.L241
 3412              		.loc 1 1914 0 is_stmt 1
 3413 1630 019B     		ldr	r3, [sp, #4]
 3414 1632 9B6D     		ldr	r3, [r3, #88]
 3415 1634 43F48022 		orr	r2, r3, #262144
 3416 1638 019B     		ldr	r3, [sp, #4]
 3417 163a 9A65     		str	r2, [r3, #88]
 3418              		.loc 1 1917 0
 3419 163c 0198     		ldr	r0, [sp, #4]
 3420 163e FFF7FEFF 		bl	HAL_ADCEx_LevelOutOfWindow3Callback
 3421              		.loc 1 1919 0
 3422 1642 019B     		ldr	r3, [sp, #4]
 3423 1644 1B68     		ldr	r3, [r3]
 3424 1646 4FF40072 		mov	r2, #512
 3425 164a 1A60     		str	r2, [r3]
 3426              	.L241:
 3427              		.loc 1 1924 0
 3428 164c 049B     		ldr	r3, [sp, #16]
 3429 164e 03F01003 		and	r3, r3, #16
 3430 1652 002B     		cmp	r3, #0
 3431 1654 50D0     		beq	.L242
 3432              		.loc 1 1924 0 is_stmt 0 discriminator 1
 3433 1656 039B     		ldr	r3, [sp, #12]
 3434 1658 03F01003 		and	r3, r3, #16
 3435 165c 002B     		cmp	r3, #0
 3436 165e 4BD0     		beq	.L242
 3437              		.loc 1 1933 0 is_stmt 1
 3438 1660 019B     		ldr	r3, [sp, #4]
 3439 1662 9B6B     		ldr	r3, [r3, #56]
 3440 1664 002B     		cmp	r3, #0
 3441 1666 02D1     		bne	.L243
 3442              		.loc 1 1935 0
 3443 1668 0123     		movs	r3, #1
 3444 166a 0793     		str	r3, [sp, #28]
 3445 166c 2EE0     		b	.L244
 3446              	.L243:
 3447              		.loc 1 1941 0
 3448 166e 019B     		ldr	r3, [sp, #4]
 3449 1670 1A68     		ldr	r2, [r3]
 3450 1672 324B     		ldr	r3, .L255
 3451 1674 9A42     		cmp	r2, r3
 3452 1676 04D0     		beq	.L245
 3453              		.loc 1 1941 0 is_stmt 0 discriminator 2
 3454 1678 019B     		ldr	r3, [sp, #4]
 3455 167a 1A68     		ldr	r2, [r3]
 3456 167c 314B     		ldr	r3, .L255+8
 3457 167e 9A42     		cmp	r2, r3
 3458 1680 07D1     		bne	.L246
 3459              	.L245:
 3460              		.loc 1 1941 0 discriminator 1
 3461 1682 314B     		ldr	r3, .L255+12
ARM GAS  /tmp/ccrsTBIG.s 			page 62


 3462 1684 9B68     		ldr	r3, [r3, #8]
 3463 1686 03F01F03 		and	r3, r3, #31
 3464 168a 002B     		cmp	r3, #0
 3465 168c 01D0     		beq	.L246
 3466              		.loc 1 1941 0 discriminator 3
 3467 168e 0123     		movs	r3, #1
 3468 1690 00E0     		b	.L247
 3469              	.L246:
 3470              		.loc 1 1941 0 discriminator 1
 3471 1692 0023     		movs	r3, #0
 3472              	.L247:
 3473              		.loc 1 1941 0 discriminator 4
 3474 1694 002B     		cmp	r3, #0
 3475 1696 09D1     		bne	.L248
 3476              		.loc 1 1944 0 is_stmt 1
 3477 1698 019B     		ldr	r3, [sp, #4]
 3478 169a 1B68     		ldr	r3, [r3]
 3479 169c DB68     		ldr	r3, [r3, #12]
 3480 169e 03F00103 		and	r3, r3, #1
 3481 16a2 002B     		cmp	r3, #0
 3482 16a4 12D0     		beq	.L244
 3483              		.loc 1 1946 0
 3484 16a6 0123     		movs	r3, #1
 3485 16a8 0793     		str	r3, [sp, #28]
 3486 16aa 0FE0     		b	.L244
 3487              	.L248:
 3488              		.loc 1 1953 0
 3489 16ac 264B     		ldr	r3, .L255+12
 3490 16ae 9B68     		ldr	r3, [r3, #8]
 3491 16b0 03F44043 		and	r3, r3, #49152
 3492 16b4 B3F5004F 		cmp	r3, #32768
 3493 16b8 06D0     		beq	.L250
 3494              		.loc 1 1953 0 is_stmt 0 discriminator 1
 3495 16ba 234B     		ldr	r3, .L255+12
 3496 16bc 9B68     		ldr	r3, [r3, #8]
 3497 16be 03F44043 		and	r3, r3, #49152
 3498 16c2 B3F5404F 		cmp	r3, #49152
 3499 16c6 01D1     		bne	.L244
 3500              	.L250:
 3501              		.loc 1 1955 0 is_stmt 1
 3502 16c8 0123     		movs	r3, #1
 3503 16ca 0793     		str	r3, [sp, #28]
 3504              	.L244:
 3505              		.loc 1 1960 0
 3506 16cc 079B     		ldr	r3, [sp, #28]
 3507 16ce 012B     		cmp	r3, #1
 3508 16d0 0ED1     		bne	.L251
 3509              		.loc 1 1963 0
 3510 16d2 019B     		ldr	r3, [sp, #4]
 3511 16d4 9B6D     		ldr	r3, [r3, #88]
 3512 16d6 43F48062 		orr	r2, r3, #1024
 3513 16da 019B     		ldr	r3, [sp, #4]
 3514 16dc 9A65     		str	r2, [r3, #88]
 3515              		.loc 1 1966 0
 3516 16de 019B     		ldr	r3, [sp, #4]
 3517 16e0 DB6D     		ldr	r3, [r3, #92]
 3518 16e2 43F00202 		orr	r2, r3, #2
ARM GAS  /tmp/ccrsTBIG.s 			page 63


 3519 16e6 019B     		ldr	r3, [sp, #4]
 3520 16e8 DA65     		str	r2, [r3, #92]
 3521              		.loc 1 1969 0
 3522 16ea 0198     		ldr	r0, [sp, #4]
 3523 16ec FFF7FEFF 		bl	HAL_ADC_ErrorCallback
 3524              	.L251:
 3525              		.loc 1 1974 0
 3526 16f0 019B     		ldr	r3, [sp, #4]
 3527 16f2 1B68     		ldr	r3, [r3]
 3528 16f4 1022     		movs	r2, #16
 3529 16f6 1A60     		str	r2, [r3]
 3530              	.L242:
 3531              		.loc 1 1980 0
 3532 16f8 049B     		ldr	r3, [sp, #16]
 3533 16fa 03F48063 		and	r3, r3, #1024
 3534 16fe 002B     		cmp	r3, #0
 3535 1700 18D0     		beq	.L203
 3536              		.loc 1 1980 0 is_stmt 0 discriminator 1
 3537 1702 039B     		ldr	r3, [sp, #12]
 3538 1704 03F48063 		and	r3, r3, #1024
 3539 1708 002B     		cmp	r3, #0
 3540 170a 13D0     		beq	.L203
 3541              		.loc 1 1983 0 is_stmt 1
 3542 170c 019B     		ldr	r3, [sp, #4]
 3543 170e 9B6D     		ldr	r3, [r3, #88]
 3544 1710 43F48042 		orr	r2, r3, #16384
 3545 1714 019B     		ldr	r3, [sp, #4]
 3546 1716 9A65     		str	r2, [r3, #88]
 3547              		.loc 1 1986 0
 3548 1718 019B     		ldr	r3, [sp, #4]
 3549 171a DB6D     		ldr	r3, [r3, #92]
 3550 171c 43F00802 		orr	r2, r3, #8
 3551 1720 019B     		ldr	r3, [sp, #4]
 3552 1722 DA65     		str	r2, [r3, #92]
 3553              		.loc 1 1989 0
 3554 1724 019B     		ldr	r3, [sp, #4]
 3555 1726 1B68     		ldr	r3, [r3]
 3556 1728 4FF48062 		mov	r2, #1024
 3557 172c 1A60     		str	r2, [r3]
 3558              		.loc 1 1992 0
 3559 172e 0198     		ldr	r0, [sp, #4]
 3560 1730 FFF7FEFF 		bl	HAL_ADCEx_InjectedQueueOverflowCallback
 3561              	.L203:
 3562              		.loc 1 1995 0
 3563 1734 09B0     		add	sp, sp, #36
 3564              		@ sp needed
 3565 1736 5DF804FB 		ldr	pc, [sp], #4
 3566              	.L256:
 3567 173a 00BF     		.align	2
 3568              	.L255:
 3569 173c 00000450 		.word	1342439424
 3570 1740 00200002 		.word	33562624
 3571 1744 00010450 		.word	1342439680
 3572 1748 00030450 		.word	1342440192
 3573              		.cfi_endproc
 3574              	.LFE138:
 3575              		.size	HAL_ADC_IRQHandler, .-HAL_ADC_IRQHandler
ARM GAS  /tmp/ccrsTBIG.s 			page 64


 3576              		.align	2
 3577 174c AFF30080 		.p2align 4,,15
 3578              		.weak	HAL_ADC_ConvCpltCallback
 3579              		.thumb
 3580              		.thumb_func
 3581              		.type	HAL_ADC_ConvCpltCallback, %function
 3582              	HAL_ADC_ConvCpltCallback:
 3583              	.LFB139:
 3584              		.loc 1 2003 0
 3585              		.cfi_startproc
 3586              		@ args = 0, pretend = 0, frame = 8
 3587              		@ frame_needed = 0, uses_anonymous_args = 0
 3588              		@ link register save eliminated.
 3589 1750 82B0     		sub	sp, sp, #8
 3590              		.cfi_def_cfa_offset 8
 3591 1752 0190     		str	r0, [sp, #4]
 3592              		.loc 1 2010 0
 3593 1754 02B0     		add	sp, sp, #8
 3594              		@ sp needed
 3595 1756 7047     		bx	lr
 3596              		.cfi_endproc
 3597              	.LFE139:
 3598              		.size	HAL_ADC_ConvCpltCallback, .-HAL_ADC_ConvCpltCallback
 3599              		.align	2
 3600 1758 AFF30080 		.p2align 4,,15
 3600      AFF30080 
 3601              		.weak	HAL_ADC_ConvHalfCpltCallback
 3602              		.thumb
 3603              		.thumb_func
 3604              		.type	HAL_ADC_ConvHalfCpltCallback, %function
 3605              	HAL_ADC_ConvHalfCpltCallback:
 3606              	.LFB140:
 3607              		.loc 1 2018 0
 3608              		.cfi_startproc
 3609              		@ args = 0, pretend = 0, frame = 8
 3610              		@ frame_needed = 0, uses_anonymous_args = 0
 3611              		@ link register save eliminated.
 3612 1760 82B0     		sub	sp, sp, #8
 3613              		.cfi_def_cfa_offset 8
 3614 1762 0190     		str	r0, [sp, #4]
 3615              		.loc 1 2025 0
 3616 1764 02B0     		add	sp, sp, #8
 3617              		@ sp needed
 3618 1766 7047     		bx	lr
 3619              		.cfi_endproc
 3620              	.LFE140:
 3621              		.size	HAL_ADC_ConvHalfCpltCallback, .-HAL_ADC_ConvHalfCpltCallback
 3622              		.align	2
 3623 1768 AFF30080 		.p2align 4,,15
 3623      AFF30080 
 3624              		.weak	HAL_ADC_LevelOutOfWindowCallback
 3625              		.thumb
 3626              		.thumb_func
 3627              		.type	HAL_ADC_LevelOutOfWindowCallback, %function
 3628              	HAL_ADC_LevelOutOfWindowCallback:
 3629              	.LFB141:
 3630              		.loc 1 2033 0
ARM GAS  /tmp/ccrsTBIG.s 			page 65


 3631              		.cfi_startproc
 3632              		@ args = 0, pretend = 0, frame = 8
 3633              		@ frame_needed = 0, uses_anonymous_args = 0
 3634              		@ link register save eliminated.
 3635 1770 82B0     		sub	sp, sp, #8
 3636              		.cfi_def_cfa_offset 8
 3637 1772 0190     		str	r0, [sp, #4]
 3638              		.loc 1 2040 0
 3639 1774 02B0     		add	sp, sp, #8
 3640              		@ sp needed
 3641 1776 7047     		bx	lr
 3642              		.cfi_endproc
 3643              	.LFE141:
 3644              		.size	HAL_ADC_LevelOutOfWindowCallback, .-HAL_ADC_LevelOutOfWindowCallback
 3645              		.align	2
 3646 1778 AFF30080 		.p2align 4,,15
 3646      AFF30080 
 3647              		.weak	HAL_ADC_ErrorCallback
 3648              		.thumb
 3649              		.thumb_func
 3650              		.type	HAL_ADC_ErrorCallback, %function
 3651              	HAL_ADC_ErrorCallback:
 3652              	.LFB142:
 3653              		.loc 1 2049 0
 3654              		.cfi_startproc
 3655              		@ args = 0, pretend = 0, frame = 8
 3656              		@ frame_needed = 0, uses_anonymous_args = 0
 3657              		@ link register save eliminated.
 3658 1780 82B0     		sub	sp, sp, #8
 3659              		.cfi_def_cfa_offset 8
 3660 1782 0190     		str	r0, [sp, #4]
 3661              		.loc 1 2056 0
 3662 1784 02B0     		add	sp, sp, #8
 3663              		@ sp needed
 3664 1786 7047     		bx	lr
 3665              		.cfi_endproc
 3666              	.LFE142:
 3667              		.size	HAL_ADC_ErrorCallback, .-HAL_ADC_ErrorCallback
 3668              		.align	2
 3669 1788 AFF30080 		.p2align 4,,15
 3669      AFF30080 
 3670              		.global	HAL_ADC_ConfigChannel
 3671              		.thumb
 3672              		.thumb_func
 3673              		.type	HAL_ADC_ConfigChannel, %function
 3674              	HAL_ADC_ConfigChannel:
 3675              	.LFB143:
 3676              		.loc 1 2098 0
 3677              		.cfi_startproc
 3678              		@ args = 0, pretend = 0, frame = 216
 3679              		@ frame_needed = 0, uses_anonymous_args = 0
 3680              		@ link register save eliminated.
 3681 1790 10B4     		push	{r4}
 3682              		.cfi_def_cfa_offset 4
 3683              		.cfi_offset 4, -4
 3684 1792 B7B0     		sub	sp, sp, #220
 3685              		.cfi_def_cfa_offset 224
ARM GAS  /tmp/ccrsTBIG.s 			page 66


 3686 1794 0190     		str	r0, [sp, #4]
 3687 1796 0091     		str	r1, [sp]
 3688              		.loc 1 2099 0
 3689 1798 0023     		movs	r3, #0
 3690 179a 8DF8D730 		strb	r3, [sp, #215]
 3691              		.loc 1 2103 0
 3692 179e 0023     		movs	r3, #0
 3693 17a0 0293     		str	r3, [sp, #8]
 3694              		.loc 1 2128 0
 3695 17a2 019B     		ldr	r3, [sp, #4]
 3696 17a4 93F85430 		ldrb	r3, [r3, #84]	@ zero_extendqisi2
 3697 17a8 012B     		cmp	r3, #1
 3698 17aa 01D1     		bne	.L262
 3699              		.loc 1 2128 0 is_stmt 0 discriminator 1
 3700 17ac 0223     		movs	r3, #2
 3701 17ae D2E3     		b	.L263
 3702              	.L262:
 3703              		.loc 1 2128 0 discriminator 2
 3704 17b0 019B     		ldr	r3, [sp, #4]
 3705 17b2 0122     		movs	r2, #1
 3706 17b4 83F85420 		strb	r2, [r3, #84]
 3707              		.loc 1 2136 0 is_stmt 1 discriminator 2
 3708 17b8 019B     		ldr	r3, [sp, #4]
 3709 17ba 1B68     		ldr	r3, [r3]
 3710 17bc 9B68     		ldr	r3, [r3, #8]
 3711 17be 03F00403 		and	r3, r3, #4
 3712 17c2 002B     		cmp	r3, #0
 3713 17c4 40F0B883 		bne	.L264
 3714              		.loc 1 2142 0
 3715 17c8 009B     		ldr	r3, [sp]
 3716 17ca 5B68     		ldr	r3, [r3, #4]
 3717 17cc 042B     		cmp	r3, #4
 3718 17ce 2CD8     		bhi	.L265
 3719              		.loc 1 2144 0
 3720 17d0 019B     		ldr	r3, [sp, #4]
 3721 17d2 1B68     		ldr	r3, [r3]
 3722 17d4 019A     		ldr	r2, [sp, #4]
 3723 17d6 1268     		ldr	r2, [r2]
 3724 17d8 116B     		ldr	r1, [r2, #48]
 3725 17da 4FF4F862 		mov	r2, #1984
 3726 17de 3292     		str	r2, [sp, #200]
 3727              	.LBB72:
 3728              	.LBB73:
 3729              		.loc 2 586 0
 3730 17e0 329A     		ldr	r2, [sp, #200]
 3731              	@ 586 "../../../../../../ChibiOS/os/ext/CMSIS/include/core_cmInstr.h" 1
 3732 17e2 92FAA2F2 		rbit r2, r2
 3733              	@ 0 "" 2
 3734              		.thumb
 3735 17e6 3192     		str	r2, [sp, #196]
 3736              		.loc 2 599 0
 3737 17e8 319A     		ldr	r2, [sp, #196]
 3738              	.LBE73:
 3739              	.LBE72:
 3740              		.loc 1 2144 0
 3741 17ea B2FA82F2 		clz	r2, r2
 3742 17ee 0098     		ldr	r0, [sp]
ARM GAS  /tmp/ccrsTBIG.s 			page 67


 3743 17f0 4068     		ldr	r0, [r0, #4]
 3744 17f2 00FB02F2 		mul	r2, r0, r2
 3745 17f6 1F20     		movs	r0, #31
 3746 17f8 00FA02F2 		lsl	r2, r0, r2
 3747 17fc D243     		mvns	r2, r2
 3748 17fe 1140     		ands	r1, r1, r2
 3749 1800 009A     		ldr	r2, [sp]
 3750 1802 1068     		ldr	r0, [r2]
 3751 1804 4FF4F862 		mov	r2, #1984
 3752 1808 3092     		str	r2, [sp, #192]
 3753              	.LBB74:
 3754              	.LBB75:
 3755              		.loc 2 586 0
 3756 180a 309A     		ldr	r2, [sp, #192]
 3757              	@ 586 "../../../../../../ChibiOS/os/ext/CMSIS/include/core_cmInstr.h" 1
 3758 180c 92FAA2F2 		rbit r2, r2
 3759              	@ 0 "" 2
 3760              		.thumb
 3761 1810 2F92     		str	r2, [sp, #188]
 3762              		.loc 2 599 0
 3763 1812 2F9A     		ldr	r2, [sp, #188]
 3764              	.LBE75:
 3765              	.LBE74:
 3766              		.loc 1 2144 0
 3767 1814 B2FA82F2 		clz	r2, r2
 3768 1818 009C     		ldr	r4, [sp]
 3769 181a 6468     		ldr	r4, [r4, #4]
 3770 181c 04FB02F2 		mul	r2, r4, r2
 3771 1820 00FA02F2 		lsl	r2, r0, r2
 3772 1824 0A43     		orrs	r2, r2, r1
 3773 1826 1A63     		str	r2, [r3, #48]
 3774 1828 93E0     		b	.L268
 3775              	.L265:
 3776              		.loc 1 2149 0
 3777 182a 009B     		ldr	r3, [sp]
 3778 182c 5B68     		ldr	r3, [r3, #4]
 3779 182e 092B     		cmp	r3, #9
 3780 1830 2ED8     		bhi	.L269
 3781              		.loc 1 2151 0
 3782 1832 019B     		ldr	r3, [sp, #4]
 3783 1834 1B68     		ldr	r3, [r3]
 3784 1836 019A     		ldr	r2, [sp, #4]
 3785 1838 1268     		ldr	r2, [r2]
 3786 183a 516B     		ldr	r1, [r2, #52]
 3787 183c 4FF4F862 		mov	r2, #1984
 3788 1840 2E92     		str	r2, [sp, #184]
 3789              	.LBB76:
 3790              	.LBB77:
 3791              		.loc 2 586 0
 3792 1842 2E9A     		ldr	r2, [sp, #184]
 3793              	@ 586 "../../../../../../ChibiOS/os/ext/CMSIS/include/core_cmInstr.h" 1
 3794 1844 92FAA2F2 		rbit r2, r2
 3795              	@ 0 "" 2
 3796              		.thumb
 3797 1848 2D92     		str	r2, [sp, #180]
 3798              		.loc 2 599 0
 3799 184a 2D9A     		ldr	r2, [sp, #180]
ARM GAS  /tmp/ccrsTBIG.s 			page 68


 3800              	.LBE77:
 3801              	.LBE76:
 3802              		.loc 1 2151 0
 3803 184c B2FA82F2 		clz	r2, r2
 3804 1850 0098     		ldr	r0, [sp]
 3805 1852 4068     		ldr	r0, [r0, #4]
 3806 1854 0538     		subs	r0, r0, #5
 3807 1856 00FB02F2 		mul	r2, r0, r2
 3808 185a 1F20     		movs	r0, #31
 3809 185c 00FA02F2 		lsl	r2, r0, r2
 3810 1860 D243     		mvns	r2, r2
 3811 1862 1140     		ands	r1, r1, r2
 3812 1864 009A     		ldr	r2, [sp]
 3813 1866 1068     		ldr	r0, [r2]
 3814 1868 4FF4F862 		mov	r2, #1984
 3815 186c 2C92     		str	r2, [sp, #176]
 3816              	.LBB78:
 3817              	.LBB79:
 3818              		.loc 2 586 0
 3819 186e 2C9A     		ldr	r2, [sp, #176]
 3820              	@ 586 "../../../../../../ChibiOS/os/ext/CMSIS/include/core_cmInstr.h" 1
 3821 1870 92FAA2F2 		rbit r2, r2
 3822              	@ 0 "" 2
 3823              		.thumb
 3824 1874 2B92     		str	r2, [sp, #172]
 3825              		.loc 2 599 0
 3826 1876 2B9A     		ldr	r2, [sp, #172]
 3827              	.LBE79:
 3828              	.LBE78:
 3829              		.loc 1 2151 0
 3830 1878 B2FA82F2 		clz	r2, r2
 3831 187c 009C     		ldr	r4, [sp]
 3832 187e 6468     		ldr	r4, [r4, #4]
 3833 1880 053C     		subs	r4, r4, #5
 3834 1882 04FB02F2 		mul	r2, r4, r2
 3835 1886 00FA02F2 		lsl	r2, r0, r2
 3836 188a 0A43     		orrs	r2, r2, r1
 3837 188c 5A63     		str	r2, [r3, #52]
 3838 188e 60E0     		b	.L268
 3839              	.L269:
 3840              		.loc 1 2156 0
 3841 1890 009B     		ldr	r3, [sp]
 3842 1892 5B68     		ldr	r3, [r3, #4]
 3843 1894 0E2B     		cmp	r3, #14
 3844 1896 2ED8     		bhi	.L272
 3845              		.loc 1 2158 0
 3846 1898 019B     		ldr	r3, [sp, #4]
 3847 189a 1B68     		ldr	r3, [r3]
 3848 189c 019A     		ldr	r2, [sp, #4]
 3849 189e 1268     		ldr	r2, [r2]
 3850 18a0 916B     		ldr	r1, [r2, #56]
 3851 18a2 4FF4F862 		mov	r2, #1984
 3852 18a6 2A92     		str	r2, [sp, #168]
 3853              	.LBB80:
 3854              	.LBB81:
 3855              		.loc 2 586 0
 3856 18a8 2A9A     		ldr	r2, [sp, #168]
ARM GAS  /tmp/ccrsTBIG.s 			page 69


 3857              	@ 586 "../../../../../../ChibiOS/os/ext/CMSIS/include/core_cmInstr.h" 1
 3858 18aa 92FAA2F2 		rbit r2, r2
 3859              	@ 0 "" 2
 3860              		.thumb
 3861 18ae 2992     		str	r2, [sp, #164]
 3862              		.loc 2 599 0
 3863 18b0 299A     		ldr	r2, [sp, #164]
 3864              	.LBE81:
 3865              	.LBE80:
 3866              		.loc 1 2158 0
 3867 18b2 B2FA82F2 		clz	r2, r2
 3868 18b6 0098     		ldr	r0, [sp]
 3869 18b8 4068     		ldr	r0, [r0, #4]
 3870 18ba 0A38     		subs	r0, r0, #10
 3871 18bc 00FB02F2 		mul	r2, r0, r2
 3872 18c0 1F20     		movs	r0, #31
 3873 18c2 00FA02F2 		lsl	r2, r0, r2
 3874 18c6 D243     		mvns	r2, r2
 3875 18c8 1140     		ands	r1, r1, r2
 3876 18ca 009A     		ldr	r2, [sp]
 3877 18cc 1068     		ldr	r0, [r2]
 3878 18ce 4FF4F862 		mov	r2, #1984
 3879 18d2 2892     		str	r2, [sp, #160]
 3880              	.LBB82:
 3881              	.LBB83:
 3882              		.loc 2 586 0
 3883 18d4 289A     		ldr	r2, [sp, #160]
 3884              	@ 586 "../../../../../../ChibiOS/os/ext/CMSIS/include/core_cmInstr.h" 1
 3885 18d6 92FAA2F2 		rbit r2, r2
 3886              	@ 0 "" 2
 3887              		.thumb
 3888 18da 2792     		str	r2, [sp, #156]
 3889              		.loc 2 599 0
 3890 18dc 279A     		ldr	r2, [sp, #156]
 3891              	.LBE83:
 3892              	.LBE82:
 3893              		.loc 1 2158 0
 3894 18de B2FA82F2 		clz	r2, r2
 3895 18e2 009C     		ldr	r4, [sp]
 3896 18e4 6468     		ldr	r4, [r4, #4]
 3897 18e6 0A3C     		subs	r4, r4, #10
 3898 18e8 04FB02F2 		mul	r2, r4, r2
 3899 18ec 00FA02F2 		lsl	r2, r0, r2
 3900 18f0 0A43     		orrs	r2, r2, r1
 3901 18f2 9A63     		str	r2, [r3, #56]
 3902 18f4 2DE0     		b	.L268
 3903              	.L272:
 3904              		.loc 1 2165 0
 3905 18f6 019B     		ldr	r3, [sp, #4]
 3906 18f8 1B68     		ldr	r3, [r3]
 3907 18fa 019A     		ldr	r2, [sp, #4]
 3908 18fc 1268     		ldr	r2, [r2]
 3909 18fe D16B     		ldr	r1, [r2, #60]
 3910 1900 4FF4F862 		mov	r2, #1984
 3911 1904 2692     		str	r2, [sp, #152]
 3912              	.LBB84:
 3913              	.LBB85:
ARM GAS  /tmp/ccrsTBIG.s 			page 70


 3914              		.loc 2 586 0
 3915 1906 269A     		ldr	r2, [sp, #152]
 3916              	@ 586 "../../../../../../ChibiOS/os/ext/CMSIS/include/core_cmInstr.h" 1
 3917 1908 92FAA2F2 		rbit r2, r2
 3918              	@ 0 "" 2
 3919              		.thumb
 3920 190c 2592     		str	r2, [sp, #148]
 3921              		.loc 2 599 0
 3922 190e 259A     		ldr	r2, [sp, #148]
 3923              	.LBE85:
 3924              	.LBE84:
 3925              		.loc 1 2165 0
 3926 1910 B2FA82F2 		clz	r2, r2
 3927 1914 0098     		ldr	r0, [sp]
 3928 1916 4068     		ldr	r0, [r0, #4]
 3929 1918 0F38     		subs	r0, r0, #15
 3930 191a 00FB02F2 		mul	r2, r0, r2
 3931 191e 1F20     		movs	r0, #31
 3932 1920 00FA02F2 		lsl	r2, r0, r2
 3933 1924 D243     		mvns	r2, r2
 3934 1926 1140     		ands	r1, r1, r2
 3935 1928 009A     		ldr	r2, [sp]
 3936 192a 1068     		ldr	r0, [r2]
 3937 192c 4FF4F862 		mov	r2, #1984
 3938 1930 2492     		str	r2, [sp, #144]
 3939              	.LBB86:
 3940              	.LBB87:
 3941              		.loc 2 586 0
 3942 1932 249A     		ldr	r2, [sp, #144]
 3943              	@ 586 "../../../../../../ChibiOS/os/ext/CMSIS/include/core_cmInstr.h" 1
 3944 1934 92FAA2F2 		rbit r2, r2
 3945              	@ 0 "" 2
 3946              		.thumb
 3947 1938 2392     		str	r2, [sp, #140]
 3948              		.loc 2 599 0
 3949 193a 239A     		ldr	r2, [sp, #140]
 3950              	.LBE87:
 3951              	.LBE86:
 3952              		.loc 1 2165 0
 3953 193c B2FA82F2 		clz	r2, r2
 3954 1940 009C     		ldr	r4, [sp]
 3955 1942 6468     		ldr	r4, [r4, #4]
 3956 1944 0F3C     		subs	r4, r4, #15
 3957 1946 04FB02F2 		mul	r2, r4, r2
 3958 194a 00FA02F2 		lsl	r2, r0, r2
 3959 194e 0A43     		orrs	r2, r2, r1
 3960 1950 DA63     		str	r2, [r3, #60]
 3961              	.L268:
 3962              		.loc 1 2176 0
 3963 1952 019B     		ldr	r3, [sp, #4]
 3964 1954 1B68     		ldr	r3, [r3]
 3965 1956 9B68     		ldr	r3, [r3, #8]
 3966 1958 03F00C03 		and	r3, r3, #12
 3967 195c 002B     		cmp	r3, #0
 3968 195e 40F05981 		bne	.L277
 3969              		.loc 1 2182 0
 3970 1962 009B     		ldr	r3, [sp]
ARM GAS  /tmp/ccrsTBIG.s 			page 71


 3971 1964 1B68     		ldr	r3, [r3]
 3972 1966 092B     		cmp	r3, #9
 3973 1968 2CD9     		bls	.L278
 3974              		.loc 1 2184 0
 3975 196a 019B     		ldr	r3, [sp, #4]
 3976 196c 1B68     		ldr	r3, [r3]
 3977 196e 019A     		ldr	r2, [sp, #4]
 3978 1970 1268     		ldr	r2, [r2]
 3979 1972 9169     		ldr	r1, [r2, #24]
 3980 1974 3822     		movs	r2, #56
 3981 1976 2292     		str	r2, [sp, #136]
 3982              	.LBB88:
 3983              	.LBB89:
 3984              		.loc 2 586 0
 3985 1978 229A     		ldr	r2, [sp, #136]
 3986              	@ 586 "../../../../../../ChibiOS/os/ext/CMSIS/include/core_cmInstr.h" 1
 3987 197a 92FAA2F2 		rbit r2, r2
 3988              	@ 0 "" 2
 3989              		.thumb
 3990 197e 2192     		str	r2, [sp, #132]
 3991              		.loc 2 599 0
 3992 1980 219A     		ldr	r2, [sp, #132]
 3993              	.LBE89:
 3994              	.LBE88:
 3995              		.loc 1 2184 0
 3996 1982 B2FA82F2 		clz	r2, r2
 3997 1986 0098     		ldr	r0, [sp]
 3998 1988 0068     		ldr	r0, [r0]
 3999 198a 0A38     		subs	r0, r0, #10
 4000 198c 00FB02F2 		mul	r2, r0, r2
 4001 1990 0720     		movs	r0, #7
 4002 1992 00FA02F2 		lsl	r2, r0, r2
 4003 1996 D243     		mvns	r2, r2
 4004 1998 1140     		ands	r1, r1, r2
 4005 199a 009A     		ldr	r2, [sp]
 4006 199c 9068     		ldr	r0, [r2, #8]
 4007 199e 3822     		movs	r2, #56
 4008 19a0 2092     		str	r2, [sp, #128]
 4009              	.LBB90:
 4010              	.LBB91:
 4011              		.loc 2 586 0
 4012 19a2 209A     		ldr	r2, [sp, #128]
 4013              	@ 586 "../../../../../../ChibiOS/os/ext/CMSIS/include/core_cmInstr.h" 1
 4014 19a4 92FAA2F2 		rbit r2, r2
 4015              	@ 0 "" 2
 4016              		.thumb
 4017 19a8 1F92     		str	r2, [sp, #124]
 4018              		.loc 2 599 0
 4019 19aa 1F9A     		ldr	r2, [sp, #124]
 4020              	.LBE91:
 4021              	.LBE90:
 4022              		.loc 1 2184 0
 4023 19ac B2FA82F2 		clz	r2, r2
 4024 19b0 009C     		ldr	r4, [sp]
 4025 19b2 2468     		ldr	r4, [r4]
 4026 19b4 0A3C     		subs	r4, r4, #10
 4027 19b6 04FB02F2 		mul	r2, r4, r2
ARM GAS  /tmp/ccrsTBIG.s 			page 72


 4028 19ba 00FA02F2 		lsl	r2, r0, r2
 4029 19be 0A43     		orrs	r2, r2, r1
 4030 19c0 9A61     		str	r2, [r3, #24]
 4031 19c2 29E0     		b	.L281
 4032              	.L278:
 4033              		.loc 1 2188 0
 4034 19c4 019B     		ldr	r3, [sp, #4]
 4035 19c6 1B68     		ldr	r3, [r3]
 4036 19c8 019A     		ldr	r2, [sp, #4]
 4037 19ca 1268     		ldr	r2, [r2]
 4038 19cc 5169     		ldr	r1, [r2, #20]
 4039 19ce 3822     		movs	r2, #56
 4040 19d0 1E92     		str	r2, [sp, #120]
 4041              	.LBB92:
 4042              	.LBB93:
 4043              		.loc 2 586 0
 4044 19d2 1E9A     		ldr	r2, [sp, #120]
 4045              	@ 586 "../../../../../../ChibiOS/os/ext/CMSIS/include/core_cmInstr.h" 1
 4046 19d4 92FAA2F2 		rbit r2, r2
 4047              	@ 0 "" 2
 4048              		.thumb
 4049 19d8 1D92     		str	r2, [sp, #116]
 4050              		.loc 2 599 0
 4051 19da 1D9A     		ldr	r2, [sp, #116]
 4052              	.LBE93:
 4053              	.LBE92:
 4054              		.loc 1 2188 0
 4055 19dc B2FA82F2 		clz	r2, r2
 4056 19e0 0098     		ldr	r0, [sp]
 4057 19e2 0068     		ldr	r0, [r0]
 4058 19e4 00FB02F2 		mul	r2, r0, r2
 4059 19e8 0720     		movs	r0, #7
 4060 19ea 00FA02F2 		lsl	r2, r0, r2
 4061 19ee D243     		mvns	r2, r2
 4062 19f0 1140     		ands	r1, r1, r2
 4063 19f2 009A     		ldr	r2, [sp]
 4064 19f4 9068     		ldr	r0, [r2, #8]
 4065 19f6 3822     		movs	r2, #56
 4066 19f8 1C92     		str	r2, [sp, #112]
 4067              	.LBB94:
 4068              	.LBB95:
 4069              		.loc 2 586 0
 4070 19fa 1C9A     		ldr	r2, [sp, #112]
 4071              	@ 586 "../../../../../../ChibiOS/os/ext/CMSIS/include/core_cmInstr.h" 1
 4072 19fc 92FAA2F2 		rbit r2, r2
 4073              	@ 0 "" 2
 4074              		.thumb
 4075 1a00 1B92     		str	r2, [sp, #108]
 4076              		.loc 2 599 0
 4077 1a02 1B9A     		ldr	r2, [sp, #108]
 4078              	.LBE95:
 4079              	.LBE94:
 4080              		.loc 1 2188 0
 4081 1a04 B2FA82F2 		clz	r2, r2
 4082 1a08 009C     		ldr	r4, [sp]
 4083 1a0a 2468     		ldr	r4, [r4]
 4084 1a0c 04FB02F2 		mul	r2, r4, r2
ARM GAS  /tmp/ccrsTBIG.s 			page 73


 4085 1a10 00FA02F2 		lsl	r2, r0, r2
 4086 1a14 0A43     		orrs	r2, r2, r1
 4087 1a16 5A61     		str	r2, [r3, #20]
 4088              	.L281:
 4089              		.loc 1 2196 0
 4090 1a18 009B     		ldr	r3, [sp]
 4091 1a1a 5A69     		ldr	r2, [r3, #20]
 4092 1a1c 019B     		ldr	r3, [sp, #4]
 4093 1a1e 1B68     		ldr	r3, [r3]
 4094 1a20 DB68     		ldr	r3, [r3, #12]
 4095 1a22 03F01803 		and	r3, r3, #24
 4096 1a26 DB08     		lsrs	r3, r3, #3
 4097 1a28 5B00     		lsls	r3, r3, #1
 4098 1a2a 02FA03F3 		lsl	r3, r2, r3
 4099 1a2e 3493     		str	r3, [sp, #208]
 4100              		.loc 1 2198 0
 4101 1a30 009B     		ldr	r3, [sp]
 4102 1a32 1B69     		ldr	r3, [r3, #16]
 4103 1a34 013B     		subs	r3, r3, #1
 4104 1a36 032B     		cmp	r3, #3
 4105 1a38 76D8     		bhi	.L284
 4106 1a3a 01A1     		adr	r1, .L286
 4107 1a3c 51F823F0 		ldr	pc, [r1, r3, lsl #2]
 4108              		.p2align 2
 4109              	.L286:
 4110 1a40 511A0000 		.word	.L285+1
 4111 1a44 871A0000 		.word	.L287+1
 4112 1a48 BD1A0000 		.word	.L288+1
 4113 1a4c F31A0000 		.word	.L289+1
 4114              		.p2align 1
 4115              	.L285:
 4116              		.loc 1 2205 0
 4117 1a50 019B     		ldr	r3, [sp, #4]
 4118 1a52 1A68     		ldr	r2, [r3]
 4119 1a54 019B     		ldr	r3, [sp, #4]
 4120 1a56 1B68     		ldr	r3, [r3]
 4121 1a58 196E     		ldr	r1, [r3, #96]
 4122 1a5a A24B     		ldr	r3, .L345
 4123 1a5c 0B40     		ands	r3, r3, r1
 4124 1a5e 0099     		ldr	r1, [sp]
 4125 1a60 0868     		ldr	r0, [r1]
 4126 1a62 4FF0F841 		mov	r1, #2080374784
 4127 1a66 1A91     		str	r1, [sp, #104]
 4128              	.LBB96:
 4129              	.LBB97:
 4130              		.loc 2 586 0
 4131 1a68 1A99     		ldr	r1, [sp, #104]
 4132              	@ 586 "../../../../../../ChibiOS/os/ext/CMSIS/include/core_cmInstr.h" 1
 4133 1a6a 91FAA1F1 		rbit r1, r1
 4134              	@ 0 "" 2
 4135              		.thumb
 4136 1a6e 1991     		str	r1, [sp, #100]
 4137              		.loc 2 599 0
 4138 1a70 1999     		ldr	r1, [sp, #100]
 4139              	.LBE97:
 4140              	.LBE96:
 4141              		.loc 1 2205 0
ARM GAS  /tmp/ccrsTBIG.s 			page 74


 4142 1a72 B1FA81F1 		clz	r1, r1
 4143 1a76 8840     		lsls	r0, r0, r1
 4144 1a78 3499     		ldr	r1, [sp, #208]
 4145 1a7a 0143     		orrs	r1, r1, r0
 4146 1a7c 0B43     		orrs	r3, r3, r1
 4147 1a7e 43F00043 		orr	r3, r3, #-2147483648
 4148 1a82 1366     		str	r3, [r2, #96]
 4149              		.loc 1 2208 0
 4150 1a84 C6E0     		b	.L277
 4151              	.L287:
 4152              		.loc 1 2211 0
 4153 1a86 019B     		ldr	r3, [sp, #4]
 4154 1a88 1A68     		ldr	r2, [r3]
 4155 1a8a 019B     		ldr	r3, [sp, #4]
 4156 1a8c 1B68     		ldr	r3, [r3]
 4157 1a8e 596E     		ldr	r1, [r3, #100]
 4158 1a90 944B     		ldr	r3, .L345
 4159 1a92 0B40     		ands	r3, r3, r1
 4160 1a94 0099     		ldr	r1, [sp]
 4161 1a96 0868     		ldr	r0, [r1]
 4162 1a98 4FF0F841 		mov	r1, #2080374784
 4163 1a9c 1891     		str	r1, [sp, #96]
 4164              	.LBB98:
 4165              	.LBB99:
 4166              		.loc 2 586 0
 4167 1a9e 1899     		ldr	r1, [sp, #96]
 4168              	@ 586 "../../../../../../ChibiOS/os/ext/CMSIS/include/core_cmInstr.h" 1
 4169 1aa0 91FAA1F1 		rbit r1, r1
 4170              	@ 0 "" 2
 4171              		.thumb
 4172 1aa4 1791     		str	r1, [sp, #92]
 4173              		.loc 2 599 0
 4174 1aa6 1799     		ldr	r1, [sp, #92]
 4175              	.LBE99:
 4176              	.LBE98:
 4177              		.loc 1 2211 0
 4178 1aa8 B1FA81F1 		clz	r1, r1
 4179 1aac 8840     		lsls	r0, r0, r1
 4180 1aae 3499     		ldr	r1, [sp, #208]
 4181 1ab0 0143     		orrs	r1, r1, r0
 4182 1ab2 0B43     		orrs	r3, r3, r1
 4183 1ab4 43F00043 		orr	r3, r3, #-2147483648
 4184 1ab8 5366     		str	r3, [r2, #100]
 4185              		.loc 1 2214 0
 4186 1aba ABE0     		b	.L277
 4187              	.L288:
 4188              		.loc 1 2217 0
 4189 1abc 019B     		ldr	r3, [sp, #4]
 4190 1abe 1A68     		ldr	r2, [r3]
 4191 1ac0 019B     		ldr	r3, [sp, #4]
 4192 1ac2 1B68     		ldr	r3, [r3]
 4193 1ac4 996E     		ldr	r1, [r3, #104]
 4194 1ac6 874B     		ldr	r3, .L345
 4195 1ac8 0B40     		ands	r3, r3, r1
 4196 1aca 0099     		ldr	r1, [sp]
 4197 1acc 0868     		ldr	r0, [r1]
 4198 1ace 4FF0F841 		mov	r1, #2080374784
ARM GAS  /tmp/ccrsTBIG.s 			page 75


 4199 1ad2 1691     		str	r1, [sp, #88]
 4200              	.LBB100:
 4201              	.LBB101:
 4202              		.loc 2 586 0
 4203 1ad4 1699     		ldr	r1, [sp, #88]
 4204              	@ 586 "../../../../../../ChibiOS/os/ext/CMSIS/include/core_cmInstr.h" 1
 4205 1ad6 91FAA1F1 		rbit r1, r1
 4206              	@ 0 "" 2
 4207              		.thumb
 4208 1ada 1591     		str	r1, [sp, #84]
 4209              		.loc 2 599 0
 4210 1adc 1599     		ldr	r1, [sp, #84]
 4211              	.LBE101:
 4212              	.LBE100:
 4213              		.loc 1 2217 0
 4214 1ade B1FA81F1 		clz	r1, r1
 4215 1ae2 8840     		lsls	r0, r0, r1
 4216 1ae4 3499     		ldr	r1, [sp, #208]
 4217 1ae6 0143     		orrs	r1, r1, r0
 4218 1ae8 0B43     		orrs	r3, r3, r1
 4219 1aea 43F00043 		orr	r3, r3, #-2147483648
 4220 1aee 9366     		str	r3, [r2, #104]
 4221              		.loc 1 2220 0
 4222 1af0 90E0     		b	.L277
 4223              	.L289:
 4224              		.loc 1 2223 0
 4225 1af2 019B     		ldr	r3, [sp, #4]
 4226 1af4 1A68     		ldr	r2, [r3]
 4227 1af6 019B     		ldr	r3, [sp, #4]
 4228 1af8 1B68     		ldr	r3, [r3]
 4229 1afa D96E     		ldr	r1, [r3, #108]
 4230 1afc 794B     		ldr	r3, .L345
 4231 1afe 0B40     		ands	r3, r3, r1
 4232 1b00 0099     		ldr	r1, [sp]
 4233 1b02 0868     		ldr	r0, [r1]
 4234 1b04 4FF0F841 		mov	r1, #2080374784
 4235 1b08 1491     		str	r1, [sp, #80]
 4236              	.LBB102:
 4237              	.LBB103:
 4238              		.loc 2 586 0
 4239 1b0a 1499     		ldr	r1, [sp, #80]
 4240              	@ 586 "../../../../../../ChibiOS/os/ext/CMSIS/include/core_cmInstr.h" 1
 4241 1b0c 91FAA1F1 		rbit r1, r1
 4242              	@ 0 "" 2
 4243              		.thumb
 4244 1b10 1391     		str	r1, [sp, #76]
 4245              		.loc 2 599 0
 4246 1b12 1399     		ldr	r1, [sp, #76]
 4247              	.LBE103:
 4248              	.LBE102:
 4249              		.loc 1 2223 0
 4250 1b14 B1FA81F1 		clz	r1, r1
 4251 1b18 8840     		lsls	r0, r0, r1
 4252 1b1a 3499     		ldr	r1, [sp, #208]
 4253 1b1c 0143     		orrs	r1, r1, r0
 4254 1b1e 0B43     		orrs	r3, r3, r1
 4255 1b20 43F00043 		orr	r3, r3, #-2147483648
ARM GAS  /tmp/ccrsTBIG.s 			page 76


 4256 1b24 D366     		str	r3, [r2, #108]
 4257              		.loc 1 2226 0
 4258 1b26 75E0     		b	.L277
 4259              	.L284:
 4260              		.loc 1 2233 0
 4261 1b28 019B     		ldr	r3, [sp, #4]
 4262 1b2a 1B68     		ldr	r3, [r3]
 4263 1b2c 1B6E     		ldr	r3, [r3, #96]
 4264 1b2e 03F0F842 		and	r2, r3, #2080374784
 4265 1b32 009B     		ldr	r3, [sp]
 4266 1b34 1968     		ldr	r1, [r3]
 4267 1b36 4FF0F843 		mov	r3, #2080374784
 4268 1b3a 1293     		str	r3, [sp, #72]
 4269              	.LBB104:
 4270              	.LBB105:
 4271              		.loc 2 586 0
 4272 1b3c 129B     		ldr	r3, [sp, #72]
 4273              	@ 586 "../../../../../../ChibiOS/os/ext/CMSIS/include/core_cmInstr.h" 1
 4274 1b3e 93FAA3F3 		rbit r3, r3
 4275              	@ 0 "" 2
 4276              		.thumb
 4277 1b42 1193     		str	r3, [sp, #68]
 4278              		.loc 2 599 0
 4279 1b44 119B     		ldr	r3, [sp, #68]
 4280              	.LBE105:
 4281              	.LBE104:
 4282              		.loc 1 2233 0
 4283 1b46 B3FA83F3 		clz	r3, r3
 4284 1b4a 01FA03F3 		lsl	r3, r1, r3
 4285 1b4e 9A42     		cmp	r2, r3
 4286 1b50 07D1     		bne	.L295
 4287              		.loc 1 2235 0
 4288 1b52 019B     		ldr	r3, [sp, #4]
 4289 1b54 1B68     		ldr	r3, [r3]
 4290 1b56 019A     		ldr	r2, [sp, #4]
 4291 1b58 1268     		ldr	r2, [r2]
 4292 1b5a 126E     		ldr	r2, [r2, #96]
 4293 1b5c 22F00042 		bic	r2, r2, #-2147483648
 4294 1b60 1A66     		str	r2, [r3, #96]
 4295              	.L295:
 4296              		.loc 1 2237 0
 4297 1b62 019B     		ldr	r3, [sp, #4]
 4298 1b64 1B68     		ldr	r3, [r3]
 4299 1b66 5B6E     		ldr	r3, [r3, #100]
 4300 1b68 03F0F842 		and	r2, r3, #2080374784
 4301 1b6c 009B     		ldr	r3, [sp]
 4302 1b6e 1968     		ldr	r1, [r3]
 4303 1b70 4FF0F843 		mov	r3, #2080374784
 4304 1b74 1093     		str	r3, [sp, #64]
 4305              	.LBB106:
 4306              	.LBB107:
 4307              		.loc 2 586 0
 4308 1b76 109B     		ldr	r3, [sp, #64]
 4309              	@ 586 "../../../../../../ChibiOS/os/ext/CMSIS/include/core_cmInstr.h" 1
 4310 1b78 93FAA3F3 		rbit r3, r3
 4311              	@ 0 "" 2
 4312              		.thumb
ARM GAS  /tmp/ccrsTBIG.s 			page 77


 4313 1b7c 0F93     		str	r3, [sp, #60]
 4314              		.loc 2 599 0
 4315 1b7e 0F9B     		ldr	r3, [sp, #60]
 4316              	.LBE107:
 4317              	.LBE106:
 4318              		.loc 1 2237 0
 4319 1b80 B3FA83F3 		clz	r3, r3
 4320 1b84 01FA03F3 		lsl	r3, r1, r3
 4321 1b88 9A42     		cmp	r2, r3
 4322 1b8a 07D1     		bne	.L297
 4323              		.loc 1 2239 0
 4324 1b8c 019B     		ldr	r3, [sp, #4]
 4325 1b8e 1B68     		ldr	r3, [r3]
 4326 1b90 019A     		ldr	r2, [sp, #4]
 4327 1b92 1268     		ldr	r2, [r2]
 4328 1b94 526E     		ldr	r2, [r2, #100]
 4329 1b96 22F00042 		bic	r2, r2, #-2147483648
 4330 1b9a 5A66     		str	r2, [r3, #100]
 4331              	.L297:
 4332              		.loc 1 2241 0
 4333 1b9c 019B     		ldr	r3, [sp, #4]
 4334 1b9e 1B68     		ldr	r3, [r3]
 4335 1ba0 9B6E     		ldr	r3, [r3, #104]
 4336 1ba2 03F0F842 		and	r2, r3, #2080374784
 4337 1ba6 009B     		ldr	r3, [sp]
 4338 1ba8 1968     		ldr	r1, [r3]
 4339 1baa 4FF0F843 		mov	r3, #2080374784
 4340 1bae 0E93     		str	r3, [sp, #56]
 4341              	.LBB108:
 4342              	.LBB109:
 4343              		.loc 2 586 0
 4344 1bb0 0E9B     		ldr	r3, [sp, #56]
 4345              	@ 586 "../../../../../../ChibiOS/os/ext/CMSIS/include/core_cmInstr.h" 1
 4346 1bb2 93FAA3F3 		rbit r3, r3
 4347              	@ 0 "" 2
 4348              		.thumb
 4349 1bb6 0D93     		str	r3, [sp, #52]
 4350              		.loc 2 599 0
 4351 1bb8 0D9B     		ldr	r3, [sp, #52]
 4352              	.LBE109:
 4353              	.LBE108:
 4354              		.loc 1 2241 0
 4355 1bba B3FA83F3 		clz	r3, r3
 4356 1bbe 01FA03F3 		lsl	r3, r1, r3
 4357 1bc2 9A42     		cmp	r2, r3
 4358 1bc4 07D1     		bne	.L299
 4359              		.loc 1 2243 0
 4360 1bc6 019B     		ldr	r3, [sp, #4]
 4361 1bc8 1B68     		ldr	r3, [r3]
 4362 1bca 019A     		ldr	r2, [sp, #4]
 4363 1bcc 1268     		ldr	r2, [r2]
 4364 1bce 926E     		ldr	r2, [r2, #104]
 4365 1bd0 22F00042 		bic	r2, r2, #-2147483648
 4366 1bd4 9A66     		str	r2, [r3, #104]
 4367              	.L299:
 4368              		.loc 1 2245 0
 4369 1bd6 019B     		ldr	r3, [sp, #4]
ARM GAS  /tmp/ccrsTBIG.s 			page 78


 4370 1bd8 1B68     		ldr	r3, [r3]
 4371 1bda DB6E     		ldr	r3, [r3, #108]
 4372 1bdc 03F0F842 		and	r2, r3, #2080374784
 4373 1be0 009B     		ldr	r3, [sp]
 4374 1be2 1968     		ldr	r1, [r3]
 4375 1be4 4FF0F843 		mov	r3, #2080374784
 4376 1be8 0C93     		str	r3, [sp, #48]
 4377              	.LBB110:
 4378              	.LBB111:
 4379              		.loc 2 586 0
 4380 1bea 0C9B     		ldr	r3, [sp, #48]
 4381              	@ 586 "../../../../../../ChibiOS/os/ext/CMSIS/include/core_cmInstr.h" 1
 4382 1bec 93FAA3F3 		rbit r3, r3
 4383              	@ 0 "" 2
 4384              		.thumb
 4385 1bf0 0B93     		str	r3, [sp, #44]
 4386              		.loc 2 599 0
 4387 1bf2 0B9B     		ldr	r3, [sp, #44]
 4388              	.LBE111:
 4389              	.LBE110:
 4390              		.loc 1 2245 0
 4391 1bf4 B3FA83F3 		clz	r3, r3
 4392 1bf8 01FA03F3 		lsl	r3, r1, r3
 4393 1bfc 9A42     		cmp	r2, r3
 4394 1bfe 08D1     		bne	.L301
 4395              		.loc 1 2247 0
 4396 1c00 019B     		ldr	r3, [sp, #4]
 4397 1c02 1B68     		ldr	r3, [r3]
 4398 1c04 019A     		ldr	r2, [sp, #4]
 4399 1c06 1268     		ldr	r2, [r2]
 4400 1c08 D26E     		ldr	r2, [r2, #108]
 4401 1c0a 22F00042 		bic	r2, r2, #-2147483648
 4402 1c0e DA66     		str	r2, [r3, #108]
 4403              		.loc 1 2249 0
 4404 1c10 FFE7     		b	.L344
 4405              	.L301:
 4406              	.L344:
 4407 1c12 00BF     		nop
 4408              	.L277:
 4409              		.loc 1 2260 0
 4410 1c14 019B     		ldr	r3, [sp, #4]
 4411 1c16 1B68     		ldr	r3, [r3]
 4412 1c18 9B68     		ldr	r3, [r3, #8]
 4413 1c1a 03F00303 		and	r3, r3, #3
 4414 1c1e 012B     		cmp	r3, #1
 4415 1c20 08D1     		bne	.L302
 4416              		.loc 1 2260 0 is_stmt 0 discriminator 1
 4417 1c22 019B     		ldr	r3, [sp, #4]
 4418 1c24 1B68     		ldr	r3, [r3]
 4419 1c26 1B68     		ldr	r3, [r3]
 4420 1c28 03F00103 		and	r3, r3, #1
 4421 1c2c 002B     		cmp	r3, #0
 4422 1c2e 01D0     		beq	.L302
 4423              		.loc 1 2260 0 discriminator 3
 4424 1c30 0123     		movs	r3, #1
 4425 1c32 00E0     		b	.L303
 4426              	.L302:
ARM GAS  /tmp/ccrsTBIG.s 			page 79


 4427              		.loc 1 2260 0 discriminator 2
 4428 1c34 0023     		movs	r3, #0
 4429              	.L303:
 4430              		.loc 1 2260 0 discriminator 4
 4431 1c36 002B     		cmp	r3, #0
 4432 1c38 40F08781 		bne	.L343
 4433              		.loc 1 2263 0 is_stmt 1
 4434 1c3c 009B     		ldr	r3, [sp]
 4435 1c3e DB68     		ldr	r3, [r3, #12]
 4436 1c40 B3F1804F 		cmp	r3, #1073741824
 4437 1c44 0FD0     		beq	.L305
 4438              		.loc 1 2266 0
 4439 1c46 019B     		ldr	r3, [sp, #4]
 4440 1c48 1B68     		ldr	r3, [r3]
 4441 1c4a 019A     		ldr	r2, [sp, #4]
 4442 1c4c 1268     		ldr	r2, [r2]
 4443 1c4e D2F8B010 		ldr	r1, [r2, #176]
 4444 1c52 009A     		ldr	r2, [sp]
 4445 1c54 1268     		ldr	r2, [r2]
 4446 1c56 0120     		movs	r0, #1
 4447 1c58 00FA02F2 		lsl	r2, r0, r2
 4448 1c5c D243     		mvns	r2, r2
 4449 1c5e 0A40     		ands	r2, r2, r1
 4450 1c60 C3F8B020 		str	r2, [r3, #176]
 4451 1c64 6CE0     		b	.L306
 4452              	.L305:
 4453              		.loc 1 2271 0
 4454 1c66 019B     		ldr	r3, [sp, #4]
 4455 1c68 1B68     		ldr	r3, [r3]
 4456 1c6a 019A     		ldr	r2, [sp, #4]
 4457 1c6c 1268     		ldr	r2, [r2]
 4458 1c6e D2F8B010 		ldr	r1, [r2, #176]
 4459 1c72 009A     		ldr	r2, [sp]
 4460 1c74 1268     		ldr	r2, [r2]
 4461 1c76 0120     		movs	r0, #1
 4462 1c78 00FA02F2 		lsl	r2, r0, r2
 4463 1c7c 0A43     		orrs	r2, r2, r1
 4464 1c7e C3F8B020 		str	r2, [r3, #176]
 4465              		.loc 1 2277 0
 4466 1c82 009B     		ldr	r3, [sp]
 4467 1c84 1B68     		ldr	r3, [r3]
 4468 1c86 082B     		cmp	r3, #8
 4469 1c88 2ED9     		bls	.L307
 4470              		.loc 1 2279 0
 4471 1c8a 019B     		ldr	r3, [sp, #4]
 4472 1c8c 1B68     		ldr	r3, [r3]
 4473 1c8e 019A     		ldr	r2, [sp, #4]
 4474 1c90 1268     		ldr	r2, [r2]
 4475 1c92 9169     		ldr	r1, [r2, #24]
 4476 1c94 3822     		movs	r2, #56
 4477 1c96 0A92     		str	r2, [sp, #40]
 4478              	.LBB112:
 4479              	.LBB113:
 4480              		.loc 2 586 0
 4481 1c98 0A9A     		ldr	r2, [sp, #40]
 4482              	@ 586 "../../../../../../ChibiOS/os/ext/CMSIS/include/core_cmInstr.h" 1
 4483 1c9a 92FAA2F2 		rbit r2, r2
ARM GAS  /tmp/ccrsTBIG.s 			page 80


 4484              	@ 0 "" 2
 4485              		.thumb
 4486 1c9e 0992     		str	r2, [sp, #36]
 4487              		.loc 2 599 0
 4488 1ca0 099A     		ldr	r2, [sp, #36]
 4489              	.LBE113:
 4490              	.LBE112:
 4491              		.loc 1 2279 0
 4492 1ca2 B2FA82F2 		clz	r2, r2
 4493 1ca6 0098     		ldr	r0, [sp]
 4494 1ca8 0068     		ldr	r0, [r0]
 4495 1caa 0938     		subs	r0, r0, #9
 4496 1cac 00FB02F2 		mul	r2, r0, r2
 4497 1cb0 0720     		movs	r0, #7
 4498 1cb2 00FA02F2 		lsl	r2, r0, r2
 4499 1cb6 D243     		mvns	r2, r2
 4500 1cb8 1140     		ands	r1, r1, r2
 4501 1cba 009A     		ldr	r2, [sp]
 4502 1cbc 9068     		ldr	r0, [r2, #8]
 4503 1cbe 3822     		movs	r2, #56
 4504 1cc0 0892     		str	r2, [sp, #32]
 4505              	.LBB114:
 4506              	.LBB115:
 4507              		.loc 2 586 0
 4508 1cc2 089A     		ldr	r2, [sp, #32]
 4509              	@ 586 "../../../../../../ChibiOS/os/ext/CMSIS/include/core_cmInstr.h" 1
 4510 1cc4 92FAA2F2 		rbit r2, r2
 4511              	@ 0 "" 2
 4512              		.thumb
 4513 1cc8 0792     		str	r2, [sp, #28]
 4514              		.loc 2 599 0
 4515 1cca 079A     		ldr	r2, [sp, #28]
 4516              	.LBE115:
 4517              	.LBE114:
 4518              		.loc 1 2279 0
 4519 1ccc B2FA82F2 		clz	r2, r2
 4520 1cd0 009C     		ldr	r4, [sp]
 4521 1cd2 2468     		ldr	r4, [r4]
 4522 1cd4 093C     		subs	r4, r4, #9
 4523 1cd6 04FB02F2 		mul	r2, r4, r2
 4524 1cda 00FA02F2 		lsl	r2, r0, r2
 4525 1cde 0A43     		orrs	r2, r2, r1
 4526 1ce0 9A61     		str	r2, [r3, #24]
 4527 1ce2 2DE0     		b	.L306
 4528              	.L346:
 4529              		.align	2
 4530              	.L345:
 4531 1ce4 00F0FF03 		.word	67104768
 4532              	.L307:
 4533              		.loc 1 2283 0
 4534 1ce8 019B     		ldr	r3, [sp, #4]
 4535 1cea 1B68     		ldr	r3, [r3]
 4536 1cec 019A     		ldr	r2, [sp, #4]
 4537 1cee 1268     		ldr	r2, [r2]
 4538 1cf0 5169     		ldr	r1, [r2, #20]
 4539 1cf2 3822     		movs	r2, #56
 4540 1cf4 0692     		str	r2, [sp, #24]
ARM GAS  /tmp/ccrsTBIG.s 			page 81


 4541              	.LBB116:
 4542              	.LBB117:
 4543              		.loc 2 586 0
 4544 1cf6 069A     		ldr	r2, [sp, #24]
 4545              	@ 586 "../../../../../../ChibiOS/os/ext/CMSIS/include/core_cmInstr.h" 1
 4546 1cf8 92FAA2F2 		rbit r2, r2
 4547              	@ 0 "" 2
 4548              		.thumb
 4549 1cfc 0592     		str	r2, [sp, #20]
 4550              		.loc 2 599 0
 4551 1cfe 059A     		ldr	r2, [sp, #20]
 4552              	.LBE117:
 4553              	.LBE116:
 4554              		.loc 1 2283 0
 4555 1d00 B2FA82F2 		clz	r2, r2
 4556 1d04 0098     		ldr	r0, [sp]
 4557 1d06 0068     		ldr	r0, [r0]
 4558 1d08 0130     		adds	r0, r0, #1
 4559 1d0a 00FB02F2 		mul	r2, r0, r2
 4560 1d0e 0720     		movs	r0, #7
 4561 1d10 00FA02F2 		lsl	r2, r0, r2
 4562 1d14 D243     		mvns	r2, r2
 4563 1d16 1140     		ands	r1, r1, r2
 4564 1d18 009A     		ldr	r2, [sp]
 4565 1d1a 9068     		ldr	r0, [r2, #8]
 4566 1d1c 3822     		movs	r2, #56
 4567 1d1e 0492     		str	r2, [sp, #16]
 4568              	.LBB118:
 4569              	.LBB119:
 4570              		.loc 2 586 0
 4571 1d20 049A     		ldr	r2, [sp, #16]
 4572              	@ 586 "../../../../../../ChibiOS/os/ext/CMSIS/include/core_cmInstr.h" 1
 4573 1d22 92FAA2F2 		rbit r2, r2
 4574              	@ 0 "" 2
 4575              		.thumb
 4576 1d26 0392     		str	r2, [sp, #12]
 4577              		.loc 2 599 0
 4578 1d28 039A     		ldr	r2, [sp, #12]
 4579              	.LBE119:
 4580              	.LBE118:
 4581              		.loc 1 2283 0
 4582 1d2a B2FA82F2 		clz	r2, r2
 4583 1d2e 009C     		ldr	r4, [sp]
 4584 1d30 2468     		ldr	r4, [r4]
 4585 1d32 0134     		adds	r4, r4, #1
 4586 1d34 04FB02F2 		mul	r2, r4, r2
 4587 1d38 00FA02F2 		lsl	r2, r0, r2
 4588 1d3c 0A43     		orrs	r2, r2, r1
 4589 1d3e 5A61     		str	r2, [r3, #20]
 4590              	.L306:
 4591              		.loc 1 2296 0
 4592 1d40 874B     		ldr	r3, .L347
 4593 1d42 3393     		str	r3, [sp, #204]
 4594              		.loc 1 2301 0
 4595 1d44 009B     		ldr	r3, [sp]
 4596 1d46 1B68     		ldr	r3, [r3]
 4597 1d48 112B     		cmp	r3, #17
ARM GAS  /tmp/ccrsTBIG.s 			page 82


 4598 1d4a 05D1     		bne	.L312
 4599              		.loc 1 2302 0 discriminator 1
 4600 1d4c 339B     		ldr	r3, [sp, #204]
 4601 1d4e 9B68     		ldr	r3, [r3, #8]
 4602 1d50 03F40003 		and	r3, r3, #8388608
 4603              		.loc 1 2301 0 discriminator 1
 4604 1d54 002B     		cmp	r3, #0
 4605 1d56 15D0     		beq	.L313
 4606              	.L312:
 4607              		.loc 1 2303 0
 4608 1d58 009B     		ldr	r3, [sp]
 4609 1d5a 1B68     		ldr	r3, [r3]
 4610              		.loc 1 2302 0
 4611 1d5c 122B     		cmp	r3, #18
 4612 1d5e 05D1     		bne	.L314
 4613              		.loc 1 2304 0
 4614 1d60 339B     		ldr	r3, [sp, #204]
 4615 1d62 9B68     		ldr	r3, [r3, #8]
 4616 1d64 03F08073 		and	r3, r3, #16777216
 4617              		.loc 1 2303 0
 4618 1d68 002B     		cmp	r3, #0
 4619 1d6a 0BD0     		beq	.L313
 4620              	.L314:
 4621              		.loc 1 2305 0
 4622 1d6c 009B     		ldr	r3, [sp]
 4623 1d6e 1B68     		ldr	r3, [r3]
 4624              		.loc 1 2304 0
 4625 1d70 002B     		cmp	r3, #0
 4626 1d72 40F0EA80 		bne	.L343
 4627              		.loc 1 2306 0
 4628 1d76 339B     		ldr	r3, [sp, #204]
 4629 1d78 9B68     		ldr	r3, [r3, #8]
 4630 1d7a 03F48003 		and	r3, r3, #4194304
 4631              		.loc 1 2305 0
 4632 1d7e 002B     		cmp	r3, #0
 4633 1d80 40F0E380 		bne	.L343
 4634              	.L313:
 4635              		.loc 1 2313 0
 4636 1d84 019B     		ldr	r3, [sp, #4]
 4637 1d86 1B68     		ldr	r3, [r3]
 4638 1d88 9B68     		ldr	r3, [r3, #8]
 4639 1d8a 03F00303 		and	r3, r3, #3
 4640 1d8e 012B     		cmp	r3, #1
 4641 1d90 08D1     		bne	.L315
 4642              		.loc 1 2313 0 is_stmt 0 discriminator 1
 4643 1d92 019B     		ldr	r3, [sp, #4]
 4644 1d94 1B68     		ldr	r3, [r3]
 4645 1d96 1B68     		ldr	r3, [r3]
 4646 1d98 03F00103 		and	r3, r3, #1
 4647 1d9c 002B     		cmp	r3, #0
 4648 1d9e 01D0     		beq	.L315
 4649              		.loc 1 2313 0 discriminator 3
 4650 1da0 0123     		movs	r3, #1
 4651 1da2 00E0     		b	.L316
 4652              	.L315:
 4653              		.loc 1 2313 0 discriminator 2
 4654 1da4 0023     		movs	r3, #0
ARM GAS  /tmp/ccrsTBIG.s 			page 83


 4655              	.L316:
 4656              		.loc 1 2313 0 discriminator 4
 4657 1da6 002B     		cmp	r3, #0
 4658 1da8 40F0BB80 		bne	.L317
 4659              		.loc 1 2314 0 is_stmt 1 discriminator 1
 4660 1dac 019B     		ldr	r3, [sp, #4]
 4661 1dae 1A68     		ldr	r2, [r3]
 4662              		.loc 1 2313 0 discriminator 1
 4663 1db0 6C4B     		ldr	r3, .L347+4
 4664 1db2 9A42     		cmp	r2, r3
 4665 1db4 1DD1     		bne	.L318
 4666              		.loc 1 2314 0
 4667 1db6 6C4B     		ldr	r3, .L347+8
 4668 1db8 9B68     		ldr	r3, [r3, #8]
 4669 1dba 03F00303 		and	r3, r3, #3
 4670 1dbe 012B     		cmp	r3, #1
 4671 1dc0 05D1     		bne	.L319
 4672              		.loc 1 2314 0 is_stmt 0 discriminator 1
 4673 1dc2 694B     		ldr	r3, .L347+8
 4674 1dc4 1B68     		ldr	r3, [r3]
 4675 1dc6 03F00103 		and	r3, r3, #1
 4676 1dca 002B     		cmp	r3, #0
 4677 1dcc 0BD1     		bne	.L320
 4678              	.L319:
 4679              		.loc 1 2314 0 discriminator 2
 4680 1dce 674B     		ldr	r3, .L347+12
 4681 1dd0 9B68     		ldr	r3, [r3, #8]
 4682 1dd2 03F00303 		and	r3, r3, #3
 4683 1dd6 012B     		cmp	r3, #1
 4684 1dd8 07D1     		bne	.L321
 4685              		.loc 1 2314 0 discriminator 4
 4686 1dda 644B     		ldr	r3, .L347+12
 4687 1ddc 1B68     		ldr	r3, [r3]
 4688 1dde 03F00103 		and	r3, r3, #1
 4689 1de2 002B     		cmp	r3, #0
 4690 1de4 01D0     		beq	.L321
 4691              	.L320:
 4692              		.loc 1 2314 0 discriminator 3
 4693 1de6 0123     		movs	r3, #1
 4694 1de8 00E0     		b	.L322
 4695              	.L321:
 4696              		.loc 1 2314 0 discriminator 5
 4697 1dea 0023     		movs	r3, #0
 4698              	.L322:
 4699              		.loc 1 2313 0 is_stmt 1
 4700 1dec 002B     		cmp	r3, #0
 4701 1dee 4BD0     		beq	.L323
 4702 1df0 97E0     		b	.L317
 4703              	.L318:
 4704              		.loc 1 2314 0
 4705 1df2 019B     		ldr	r3, [sp, #4]
 4706 1df4 1A68     		ldr	r2, [r3]
 4707 1df6 5C4B     		ldr	r3, .L347+8
 4708 1df8 9A42     		cmp	r2, r3
 4709 1dfa 20D1     		bne	.L324
 4710              		.loc 1 2314 0 is_stmt 0 discriminator 1
 4711 1dfc 594B     		ldr	r3, .L347+4
ARM GAS  /tmp/ccrsTBIG.s 			page 84


 4712 1dfe 9B68     		ldr	r3, [r3, #8]
 4713 1e00 03F00303 		and	r3, r3, #3
 4714 1e04 012B     		cmp	r3, #1
 4715 1e06 05D1     		bne	.L325
 4716 1e08 564B     		ldr	r3, .L347+4
 4717 1e0a 1B68     		ldr	r3, [r3]
 4718 1e0c 03F00103 		and	r3, r3, #1
 4719 1e10 002B     		cmp	r3, #0
 4720 1e12 0BD1     		bne	.L326
 4721              	.L325:
 4722              		.loc 1 2314 0 discriminator 2
 4723 1e14 554B     		ldr	r3, .L347+12
 4724 1e16 9B68     		ldr	r3, [r3, #8]
 4725 1e18 03F00303 		and	r3, r3, #3
 4726 1e1c 012B     		cmp	r3, #1
 4727 1e1e 07D1     		bne	.L327
 4728              		.loc 1 2314 0 discriminator 4
 4729 1e20 524B     		ldr	r3, .L347+12
 4730 1e22 1B68     		ldr	r3, [r3]
 4731 1e24 03F00103 		and	r3, r3, #1
 4732 1e28 002B     		cmp	r3, #0
 4733 1e2a 01D0     		beq	.L327
 4734              	.L326:
 4735              		.loc 1 2314 0 discriminator 3
 4736 1e2c 0123     		movs	r3, #1
 4737 1e2e 00E0     		b	.L328
 4738              	.L327:
 4739              		.loc 1 2314 0 discriminator 5
 4740 1e30 0023     		movs	r3, #0
 4741              	.L328:
 4742              		.loc 1 2314 0 discriminator 6
 4743 1e32 03F00103 		and	r3, r3, #1
 4744 1e36 DBB2     		uxtb	r3, r3
 4745 1e38 002B     		cmp	r3, #0
 4746 1e3a 20D1     		bne	.L329
 4747 1e3c 13E0     		b	.L330
 4748              	.L324:
 4749              		.loc 1 2314 0 discriminator 2
 4750 1e3e 494B     		ldr	r3, .L347+4
 4751 1e40 9B68     		ldr	r3, [r3, #8]
 4752 1e42 03F00303 		and	r3, r3, #3
 4753 1e46 012B     		cmp	r3, #1
 4754 1e48 07D1     		bne	.L331
 4755              		.loc 1 2314 0 discriminator 4
 4756 1e4a 464B     		ldr	r3, .L347+4
 4757 1e4c 1B68     		ldr	r3, [r3]
 4758 1e4e 03F00103 		and	r3, r3, #1
 4759 1e52 002B     		cmp	r3, #0
 4760 1e54 01D0     		beq	.L331
 4761              		.loc 1 2314 0 discriminator 6
 4762 1e56 0123     		movs	r3, #1
 4763 1e58 00E0     		b	.L332
 4764              	.L331:
 4765              		.loc 1 2314 0 discriminator 5
 4766 1e5a 0023     		movs	r3, #0
 4767              	.L332:
 4768              		.loc 1 2314 0 discriminator 7
ARM GAS  /tmp/ccrsTBIG.s 			page 85


 4769 1e5c 03F00103 		and	r3, r3, #1
 4770 1e60 DBB2     		uxtb	r3, r3
 4771 1e62 002B     		cmp	r3, #0
 4772 1e64 0BD1     		bne	.L329
 4773              	.L330:
 4774              		.loc 1 2314 0 discriminator 8
 4775 1e66 404B     		ldr	r3, .L347+8
 4776 1e68 9B68     		ldr	r3, [r3, #8]
 4777 1e6a 03F00303 		and	r3, r3, #3
 4778 1e6e 012B     		cmp	r3, #1
 4779 1e70 07D1     		bne	.L333
 4780              		.loc 1 2314 0 discriminator 9
 4781 1e72 3D4B     		ldr	r3, .L347+8
 4782 1e74 1B68     		ldr	r3, [r3]
 4783 1e76 03F00103 		and	r3, r3, #1
 4784 1e7a 002B     		cmp	r3, #0
 4785 1e7c 01D0     		beq	.L333
 4786              	.L329:
 4787              		.loc 1 2314 0 discriminator 3
 4788 1e7e 0123     		movs	r3, #1
 4789 1e80 00E0     		b	.L334
 4790              	.L333:
 4791              		.loc 1 2314 0 discriminator 10
 4792 1e82 0023     		movs	r3, #0
 4793              	.L334:
 4794              		.loc 1 2314 0 discriminator 11
 4795 1e84 002B     		cmp	r3, #0
 4796 1e86 4CD1     		bne	.L317
 4797              	.L323:
 4798              		.loc 1 2316 0 is_stmt 1
 4799 1e88 009B     		ldr	r3, [sp]
 4800 1e8a 1B68     		ldr	r3, [r3]
 4801 1e8c 112B     		cmp	r3, #17
 4802 1e8e 22D1     		bne	.L335
 4803              		.loc 1 2318 0
 4804 1e90 019B     		ldr	r3, [sp, #4]
 4805 1e92 1A68     		ldr	r2, [r3]
 4806 1e94 334B     		ldr	r3, .L347+4
 4807 1e96 9A42     		cmp	r2, r3
 4808 1e98 04D0     		beq	.L336
 4809              		.loc 1 2318 0 is_stmt 0 discriminator 1
 4810 1e9a 019B     		ldr	r3, [sp, #4]
 4811 1e9c 1A68     		ldr	r2, [r3]
 4812 1e9e 334B     		ldr	r3, .L347+12
 4813 1ea0 9A42     		cmp	r2, r3
 4814 1ea2 3DD1     		bne	.L337
 4815              	.L336:
 4816              		.loc 1 2320 0 is_stmt 1
 4817 1ea4 339B     		ldr	r3, [sp, #204]
 4818 1ea6 9B68     		ldr	r3, [r3, #8]
 4819 1ea8 43F40002 		orr	r2, r3, #8388608
 4820 1eac 339B     		ldr	r3, [sp, #204]
 4821 1eae 9A60     		str	r2, [r3, #8]
 4822              		.loc 1 2326 0
 4823 1eb0 2F4B     		ldr	r3, .L347+16
 4824 1eb2 1A68     		ldr	r2, [r3]
 4825 1eb4 2F4B     		ldr	r3, .L347+20
ARM GAS  /tmp/ccrsTBIG.s 			page 86


 4826 1eb6 A3FB0213 		umull	r1, r3, r3, r2
 4827 1eba DA0C     		lsrs	r2, r3, #19
 4828 1ebc 1346     		mov	r3, r2
 4829 1ebe 1B01     		lsls	r3, r3, #4
 4830 1ec0 9B1A     		subs	r3, r3, r2
 4831 1ec2 DB00     		lsls	r3, r3, #3
 4832 1ec4 0293     		str	r3, [sp, #8]
 4833              		.loc 1 2327 0
 4834 1ec6 02E0     		b	.L338
 4835              	.L339:
 4836              		.loc 1 2329 0
 4837 1ec8 029B     		ldr	r3, [sp, #8]
 4838 1eca 013B     		subs	r3, r3, #1
 4839 1ecc 0293     		str	r3, [sp, #8]
 4840              	.L338:
 4841              		.loc 1 2327 0 discriminator 1
 4842 1ece 029B     		ldr	r3, [sp, #8]
 4843 1ed0 002B     		cmp	r3, #0
 4844 1ed2 F9D1     		bne	.L339
 4845              		.loc 1 2316 0
 4846 1ed4 2FE0     		b	.L304
 4847              	.L335:
 4848              		.loc 1 2333 0
 4849 1ed6 009B     		ldr	r3, [sp]
 4850 1ed8 1B68     		ldr	r3, [r3]
 4851 1eda 122B     		cmp	r3, #18
 4852 1edc 10D1     		bne	.L340
 4853              		.loc 1 2335 0
 4854 1ede 019B     		ldr	r3, [sp, #4]
 4855 1ee0 1A68     		ldr	r2, [r3]
 4856 1ee2 204B     		ldr	r3, .L347+4
 4857 1ee4 9A42     		cmp	r2, r3
 4858 1ee6 04D0     		beq	.L341
 4859              		.loc 1 2335 0 is_stmt 0 discriminator 1
 4860 1ee8 019B     		ldr	r3, [sp, #4]
 4861 1eea 1A68     		ldr	r2, [r3]
 4862 1eec 1F4B     		ldr	r3, .L347+12
 4863 1eee 9A42     		cmp	r2, r3
 4864 1ef0 16D1     		bne	.L337
 4865              	.L341:
 4866              		.loc 1 2337 0 is_stmt 1
 4867 1ef2 339B     		ldr	r3, [sp, #204]
 4868 1ef4 9B68     		ldr	r3, [r3, #8]
 4869 1ef6 43F08072 		orr	r2, r3, #16777216
 4870 1efa 339B     		ldr	r3, [sp, #204]
 4871 1efc 9A60     		str	r2, [r3, #8]
 4872              		.loc 1 2316 0
 4873 1efe 1AE0     		b	.L304
 4874              	.L340:
 4875              		.loc 1 2340 0
 4876 1f00 009B     		ldr	r3, [sp]
 4877 1f02 1B68     		ldr	r3, [r3]
 4878 1f04 002B     		cmp	r3, #0
 4879 1f06 0BD1     		bne	.L337
 4880              		.loc 1 2342 0
 4881 1f08 019B     		ldr	r3, [sp, #4]
 4882 1f0a 1A68     		ldr	r2, [r3]
ARM GAS  /tmp/ccrsTBIG.s 			page 87


 4883 1f0c 154B     		ldr	r3, .L347+4
 4884 1f0e 9A42     		cmp	r2, r3
 4885 1f10 06D1     		bne	.L337
 4886              		.loc 1 2344 0
 4887 1f12 339B     		ldr	r3, [sp, #204]
 4888 1f14 9B68     		ldr	r3, [r3, #8]
 4889 1f16 43F48002 		orr	r2, r3, #4194304
 4890 1f1a 339B     		ldr	r3, [sp, #204]
 4891 1f1c 9A60     		str	r2, [r3, #8]
 4892              		.loc 1 2316 0
 4893 1f1e 0AE0     		b	.L304
 4894              	.L337:
 4895 1f20 09E0     		b	.L304
 4896              	.L317:
 4897              		.loc 1 2354 0
 4898 1f22 019B     		ldr	r3, [sp, #4]
 4899 1f24 9B6D     		ldr	r3, [r3, #88]
 4900 1f26 43F02002 		orr	r2, r3, #32
 4901 1f2a 019B     		ldr	r3, [sp, #4]
 4902 1f2c 9A65     		str	r2, [r3, #88]
 4903              		.loc 1 2356 0
 4904 1f2e 0123     		movs	r3, #1
 4905 1f30 8DF8D730 		strb	r3, [sp, #215]
 4906 1f34 09E0     		b	.L343
 4907              	.L304:
 4908 1f36 08E0     		b	.L343
 4909              	.L264:
 4910              		.loc 1 2370 0
 4911 1f38 019B     		ldr	r3, [sp, #4]
 4912 1f3a 9B6D     		ldr	r3, [r3, #88]
 4913 1f3c 43F02002 		orr	r2, r3, #32
 4914 1f40 019B     		ldr	r3, [sp, #4]
 4915 1f42 9A65     		str	r2, [r3, #88]
 4916              		.loc 1 2372 0
 4917 1f44 0123     		movs	r3, #1
 4918 1f46 8DF8D730 		strb	r3, [sp, #215]
 4919              	.L343:
 4920              		.loc 1 2376 0
 4921 1f4a 019B     		ldr	r3, [sp, #4]
 4922 1f4c 0022     		movs	r2, #0
 4923 1f4e 83F85420 		strb	r2, [r3, #84]
 4924              		.loc 1 2379 0
 4925 1f52 9DF8D730 		ldrb	r3, [sp, #215]	@ zero_extendqisi2
 4926              	.L263:
 4927              		.loc 1 2380 0
 4928 1f56 1846     		mov	r0, r3
 4929 1f58 37B0     		add	sp, sp, #220
 4930              		@ sp needed
 4931 1f5a 5DF8044B 		ldr	r4, [sp], #4
 4932 1f5e 7047     		bx	lr
 4933              	.L348:
 4934              		.align	2
 4935              	.L347:
 4936 1f60 00030450 		.word	1342440192
 4937 1f64 00000450 		.word	1342439424
 4938 1f68 00010450 		.word	1342439680
 4939 1f6c 00020450 		.word	1342439936
ARM GAS  /tmp/ccrsTBIG.s 			page 88


 4940 1f70 00000000 		.word	SystemCoreClock
 4941 1f74 83DE1B43 		.word	1125899907
 4942              		.cfi_endproc
 4943              	.LFE143:
 4944              		.size	HAL_ADC_ConfigChannel, .-HAL_ADC_ConfigChannel
 4945              		.align	2
 4946 1f78 AFF30080 		.p2align 4,,15
 4946      AFF30080 
 4947              		.global	HAL_ADC_AnalogWDGConfig
 4948              		.thumb
 4949              		.thumb_func
 4950              		.type	HAL_ADC_AnalogWDGConfig, %function
 4951              	HAL_ADC_AnalogWDGConfig:
 4952              	.LFB144:
 4953              		.loc 1 2399 0
 4954              		.cfi_startproc
 4955              		@ args = 0, pretend = 0, frame = 40
 4956              		@ frame_needed = 0, uses_anonymous_args = 0
 4957              		@ link register save eliminated.
 4958 1f80 10B4     		push	{r4}
 4959              		.cfi_def_cfa_offset 4
 4960              		.cfi_offset 4, -4
 4961 1f82 8BB0     		sub	sp, sp, #44
 4962              		.cfi_def_cfa_offset 48
 4963 1f84 0190     		str	r0, [sp, #4]
 4964 1f86 0091     		str	r1, [sp]
 4965              		.loc 1 2400 0
 4966 1f88 0023     		movs	r3, #0
 4967 1f8a 8DF82730 		strb	r3, [sp, #39]
 4968              		.loc 1 2415 0
 4969 1f8e 009B     		ldr	r3, [sp]
 4970 1f90 5B68     		ldr	r3, [r3, #4]
 4971 1f92 B3F5400F 		cmp	r3, #12582912
 4972 1f96 03D0     		beq	.L350
 4973              		.loc 1 2416 0 discriminator 1
 4974 1f98 009B     		ldr	r3, [sp]
 4975 1f9a 5B68     		ldr	r3, [r3, #4]
 4976              		.loc 1 2415 0 discriminator 1
 4977 1f9c B3F1A07F 		cmp	r3, #20971520
 4978              	.L350:
 4979              		.loc 1 2428 0
 4980 1fa0 019B     		ldr	r3, [sp, #4]
 4981 1fa2 93F85430 		ldrb	r3, [r3, #84]	@ zero_extendqisi2
 4982 1fa6 012B     		cmp	r3, #1
 4983 1fa8 01D1     		bne	.L351
 4984              		.loc 1 2428 0 is_stmt 0 discriminator 1
 4985 1faa 0223     		movs	r3, #2
 4986 1fac 41E1     		b	.L352
 4987              	.L351:
 4988              		.loc 1 2428 0 discriminator 2
 4989 1fae 019B     		ldr	r3, [sp, #4]
 4990 1fb0 0122     		movs	r2, #1
 4991 1fb2 83F85420 		strb	r2, [r3, #84]
 4992              		.loc 1 2435 0 is_stmt 1 discriminator 2
 4993 1fb6 019B     		ldr	r3, [sp, #4]
 4994 1fb8 1B68     		ldr	r3, [r3]
 4995 1fba 9B68     		ldr	r3, [r3, #8]
ARM GAS  /tmp/ccrsTBIG.s 			page 89


 4996 1fbc 03F00C03 		and	r3, r3, #12
 4997 1fc0 002B     		cmp	r3, #0
 4998 1fc2 40F02781 		bne	.L353
 4999              		.loc 1 2439 0
 5000 1fc6 009B     		ldr	r3, [sp]
 5001 1fc8 1B68     		ldr	r3, [r3]
 5002 1fca 012B     		cmp	r3, #1
 5003 1fcc 60D1     		bne	.L354
 5004              		.loc 1 2447 0
 5005 1fce 019B     		ldr	r3, [sp, #4]
 5006 1fd0 1A68     		ldr	r2, [r3]
 5007 1fd2 019B     		ldr	r3, [sp, #4]
 5008 1fd4 1B68     		ldr	r3, [r3]
 5009 1fd6 DB68     		ldr	r3, [r3, #12]
 5010 1fd8 23F0FB43 		bic	r3, r3, #2105540608
 5011 1fdc 23F48003 		bic	r3, r3, #4194304
 5012 1fe0 0099     		ldr	r1, [sp]
 5013 1fe2 4868     		ldr	r0, [r1, #4]
 5014 1fe4 0099     		ldr	r1, [sp]
 5015 1fe6 8C68     		ldr	r4, [r1, #8]
 5016 1fe8 4FF0F841 		mov	r1, #2080374784
 5017 1fec 0491     		str	r1, [sp, #16]
 5018              	.LBB120:
 5019              	.LBB121:
 5020              		.loc 2 586 0
 5021 1fee 0499     		ldr	r1, [sp, #16]
 5022              	@ 586 "../../../../../../ChibiOS/os/ext/CMSIS/include/core_cmInstr.h" 1
 5023 1ff0 91FAA1F1 		rbit r1, r1
 5024              	@ 0 "" 2
 5025              		.thumb
 5026 1ff4 0391     		str	r1, [sp, #12]
 5027              		.loc 2 599 0
 5028 1ff6 0399     		ldr	r1, [sp, #12]
 5029              	.LBE121:
 5030              	.LBE120:
 5031              		.loc 1 2447 0
 5032 1ff8 B1FA81F1 		clz	r1, r1
 5033 1ffc 04FA01F1 		lsl	r1, r4, r1
 5034 2000 0143     		orrs	r1, r1, r0
 5035 2002 0B43     		orrs	r3, r3, r1
 5036 2004 D360     		str	r3, [r2, #12]
 5037              		.loc 1 2453 0
 5038 2006 009B     		ldr	r3, [sp]
 5039 2008 1A69     		ldr	r2, [r3, #16]
 5040 200a 019B     		ldr	r3, [sp, #4]
 5041 200c 1B68     		ldr	r3, [r3]
 5042 200e DB68     		ldr	r3, [r3, #12]
 5043 2010 03F01803 		and	r3, r3, #24
 5044 2014 DB08     		lsrs	r3, r3, #3
 5045 2016 5B00     		lsls	r3, r3, #1
 5046 2018 02FA03F3 		lsl	r3, r2, r3
 5047 201c 0693     		str	r3, [sp, #24]
 5048              		.loc 1 2454 0
 5049 201e 009B     		ldr	r3, [sp]
 5050 2020 5A69     		ldr	r2, [r3, #20]
 5051 2022 019B     		ldr	r3, [sp, #4]
 5052 2024 1B68     		ldr	r3, [r3]
ARM GAS  /tmp/ccrsTBIG.s 			page 90


 5053 2026 DB68     		ldr	r3, [r3, #12]
 5054 2028 03F01803 		and	r3, r3, #24
 5055 202c DB08     		lsrs	r3, r3, #3
 5056 202e 5B00     		lsls	r3, r3, #1
 5057 2030 02FA03F3 		lsl	r3, r2, r3
 5058 2034 0593     		str	r3, [sp, #20]
 5059              		.loc 1 2457 0
 5060 2036 019B     		ldr	r3, [sp, #4]
 5061 2038 1B68     		ldr	r3, [r3]
 5062 203a 019A     		ldr	r2, [sp, #4]
 5063 203c 1268     		ldr	r2, [r2]
 5064 203e 126A     		ldr	r2, [r2, #32]
 5065 2040 02F0F021 		and	r1, r2, #-268374016
 5066 2044 069A     		ldr	r2, [sp, #24]
 5067 2046 1004     		lsls	r0, r2, #16
 5068 2048 059A     		ldr	r2, [sp, #20]
 5069 204a 0243     		orrs	r2, r2, r0
 5070 204c 0A43     		orrs	r2, r2, r1
 5071 204e 1A62     		str	r2, [r3, #32]
 5072              		.loc 1 2463 0
 5073 2050 019B     		ldr	r3, [sp, #4]
 5074 2052 1B68     		ldr	r3, [r3]
 5075 2054 8022     		movs	r2, #128
 5076 2056 1A60     		str	r2, [r3]
 5077              		.loc 1 2466 0
 5078 2058 009B     		ldr	r3, [sp]
 5079 205a DB68     		ldr	r3, [r3, #12]
 5080 205c 012B     		cmp	r3, #1
 5081 205e 08D1     		bne	.L356
 5082              		.loc 1 2469 0
 5083 2060 019B     		ldr	r3, [sp, #4]
 5084 2062 1B68     		ldr	r3, [r3]
 5085 2064 019A     		ldr	r2, [sp, #4]
 5086 2066 1268     		ldr	r2, [r2]
 5087 2068 5268     		ldr	r2, [r2, #4]
 5088 206a 42F08002 		orr	r2, r2, #128
 5089 206e 5A60     		str	r2, [r3, #4]
 5090 2070 07E0     		b	.L357
 5091              	.L356:
 5092              		.loc 1 2474 0
 5093 2072 019B     		ldr	r3, [sp, #4]
 5094 2074 1B68     		ldr	r3, [r3]
 5095 2076 019A     		ldr	r2, [sp, #4]
 5096 2078 1268     		ldr	r2, [r2]
 5097 207a 5268     		ldr	r2, [r2, #4]
 5098 207c 22F08002 		bic	r2, r2, #128
 5099 2080 5A60     		str	r2, [r3, #4]
 5100              	.L357:
 5101              		.loc 1 2478 0 discriminator 1
 5102 2082 019B     		ldr	r3, [sp, #4]
 5103 2084 9B6D     		ldr	r3, [r3, #88]
 5104 2086 23F48032 		bic	r2, r3, #65536
 5105 208a 019B     		ldr	r3, [sp, #4]
 5106 208c 9A65     		str	r2, [r3, #88]
 5107 208e CAE0     		b	.L370
 5108              	.L354:
 5109              		.loc 1 2485 0
ARM GAS  /tmp/ccrsTBIG.s 			page 91


 5110 2090 019B     		ldr	r3, [sp, #4]
 5111 2092 1B68     		ldr	r3, [r3]
 5112 2094 DB68     		ldr	r3, [r3, #12]
 5113 2096 03F01803 		and	r3, r3, #24
 5114 209a 182B     		cmp	r3, #24
 5115 209c 0FD0     		beq	.L359
 5116              		.loc 1 2485 0 is_stmt 0 discriminator 1
 5117 209e 009B     		ldr	r3, [sp]
 5118 20a0 1969     		ldr	r1, [r3, #16]
 5119 20a2 019B     		ldr	r3, [sp, #4]
 5120 20a4 1B68     		ldr	r3, [r3]
 5121 20a6 DB68     		ldr	r3, [r3, #12]
 5122 20a8 03F01803 		and	r3, r3, #24
 5123 20ac DA08     		lsrs	r2, r3, #3
 5124 20ae 1346     		mov	r3, r2
 5125 20b0 DB07     		lsls	r3, r3, #31
 5126 20b2 9B1A     		subs	r3, r3, r2
 5127 20b4 5B00     		lsls	r3, r3, #1
 5128 20b6 0433     		adds	r3, r3, #4
 5129 20b8 21FA03F3 		lsr	r3, r1, r3
 5130 20bc 02E0     		b	.L360
 5131              	.L359:
 5132              		.loc 1 2485 0 discriminator 2
 5133 20be 009B     		ldr	r3, [sp]
 5134 20c0 1B69     		ldr	r3, [r3, #16]
 5135 20c2 9B00     		lsls	r3, r3, #2
 5136              	.L360:
 5137              		.loc 1 2485 0 discriminator 3
 5138 20c4 0693     		str	r3, [sp, #24]
 5139              		.loc 1 2486 0 is_stmt 1 discriminator 3
 5140 20c6 019B     		ldr	r3, [sp, #4]
 5141 20c8 1B68     		ldr	r3, [r3]
 5142 20ca DB68     		ldr	r3, [r3, #12]
 5143 20cc 03F01803 		and	r3, r3, #24
 5144 20d0 182B     		cmp	r3, #24
 5145 20d2 0FD0     		beq	.L361
 5146              		.loc 1 2486 0 is_stmt 0 discriminator 1
 5147 20d4 009B     		ldr	r3, [sp]
 5148 20d6 5969     		ldr	r1, [r3, #20]
 5149 20d8 019B     		ldr	r3, [sp, #4]
 5150 20da 1B68     		ldr	r3, [r3]
 5151 20dc DB68     		ldr	r3, [r3, #12]
 5152 20de 03F01803 		and	r3, r3, #24
 5153 20e2 DA08     		lsrs	r2, r3, #3
 5154 20e4 1346     		mov	r3, r2
 5155 20e6 DB07     		lsls	r3, r3, #31
 5156 20e8 9B1A     		subs	r3, r3, r2
 5157 20ea 5B00     		lsls	r3, r3, #1
 5158 20ec 0433     		adds	r3, r3, #4
 5159 20ee 21FA03F3 		lsr	r3, r1, r3
 5160 20f2 02E0     		b	.L362
 5161              	.L361:
 5162              		.loc 1 2486 0 discriminator 2
 5163 20f4 009B     		ldr	r3, [sp]
 5164 20f6 5B69     		ldr	r3, [r3, #20]
 5165 20f8 9B00     		lsls	r3, r3, #2
 5166              	.L362:
ARM GAS  /tmp/ccrsTBIG.s 			page 92


 5167              		.loc 1 2486 0 discriminator 3
 5168 20fa 0593     		str	r3, [sp, #20]
 5169              		.loc 1 2488 0 is_stmt 1 discriminator 3
 5170 20fc 009B     		ldr	r3, [sp]
 5171 20fe 1B68     		ldr	r3, [r3]
 5172 2100 022B     		cmp	r3, #2
 5173 2102 36D1     		bne	.L363
 5174              		.loc 1 2494 0
 5175 2104 009B     		ldr	r3, [sp]
 5176 2106 5B68     		ldr	r3, [r3, #4]
 5177 2108 002B     		cmp	r3, #0
 5178 210a 0ED0     		beq	.L364
 5179              		.loc 1 2496 0
 5180 210c 019B     		ldr	r3, [sp, #4]
 5181 210e 1B68     		ldr	r3, [r3]
 5182 2110 019A     		ldr	r2, [sp, #4]
 5183 2112 1268     		ldr	r2, [r2]
 5184 2114 D2F8A010 		ldr	r1, [r2, #160]
 5185 2118 009A     		ldr	r2, [sp]
 5186 211a 9268     		ldr	r2, [r2, #8]
 5187 211c 0120     		movs	r0, #1
 5188 211e 00FA02F2 		lsl	r2, r0, r2
 5189 2122 0A43     		orrs	r2, r2, r1
 5190 2124 C3F8A020 		str	r2, [r3, #160]
 5191 2128 09E0     		b	.L365
 5192              	.L364:
 5193              		.loc 1 2500 0
 5194 212a 019B     		ldr	r3, [sp, #4]
 5195 212c 1A68     		ldr	r2, [r3]
 5196 212e 019B     		ldr	r3, [sp, #4]
 5197 2130 1B68     		ldr	r3, [r3]
 5198 2132 D3F8A030 		ldr	r3, [r3, #160]
 5199 2136 DB0C     		lsrs	r3, r3, #19
 5200 2138 DB04     		lsls	r3, r3, #19
 5201 213a C2F8A030 		str	r3, [r2, #160]
 5202              	.L365:
 5203              		.loc 1 2504 0 discriminator 3
 5204 213e 019B     		ldr	r3, [sp, #4]
 5205 2140 1B68     		ldr	r3, [r3]
 5206 2142 019A     		ldr	r2, [sp, #4]
 5207 2144 1268     		ldr	r2, [r2]
 5208 2146 526A     		ldr	r2, [r2, #36]
 5209 2148 02F0FF21 		and	r1, r2, #-16711936
 5210 214c 069A     		ldr	r2, [sp, #24]
 5211 214e 1004     		lsls	r0, r2, #16
 5212 2150 059A     		ldr	r2, [sp, #20]
 5213 2152 0243     		orrs	r2, r2, r0
 5214 2154 0A43     		orrs	r2, r2, r1
 5215 2156 5A62     		str	r2, [r3, #36]
 5216              		.loc 1 2509 0 discriminator 3
 5217 2158 4FF48073 		mov	r3, #256
 5218 215c 0893     		str	r3, [sp, #32]
 5219              		.loc 1 2510 0 discriminator 3
 5220 215e 4FF48073 		mov	r3, #256
 5221 2162 0793     		str	r3, [sp, #28]
 5222              		.loc 1 2513 0 discriminator 3
 5223 2164 019B     		ldr	r3, [sp, #4]
ARM GAS  /tmp/ccrsTBIG.s 			page 93


 5224 2166 9B6D     		ldr	r3, [r3, #88]
 5225 2168 23F40032 		bic	r2, r3, #131072
 5226 216c 019B     		ldr	r3, [sp, #4]
 5227 216e 9A65     		str	r2, [r3, #88]
 5228 2170 35E0     		b	.L366
 5229              	.L363:
 5230              		.loc 1 2522 0
 5231 2172 009B     		ldr	r3, [sp]
 5232 2174 5B68     		ldr	r3, [r3, #4]
 5233 2176 002B     		cmp	r3, #0
 5234 2178 0ED0     		beq	.L367
 5235              		.loc 1 2524 0
 5236 217a 019B     		ldr	r3, [sp, #4]
 5237 217c 1B68     		ldr	r3, [r3]
 5238 217e 019A     		ldr	r2, [sp, #4]
 5239 2180 1268     		ldr	r2, [r2]
 5240 2182 D2F8A410 		ldr	r1, [r2, #164]
 5241 2186 009A     		ldr	r2, [sp]
 5242 2188 9268     		ldr	r2, [r2, #8]
 5243 218a 0120     		movs	r0, #1
 5244 218c 00FA02F2 		lsl	r2, r0, r2
 5245 2190 0A43     		orrs	r2, r2, r1
 5246 2192 C3F8A420 		str	r2, [r3, #164]
 5247 2196 09E0     		b	.L368
 5248              	.L367:
 5249              		.loc 1 2528 0
 5250 2198 019B     		ldr	r3, [sp, #4]
 5251 219a 1A68     		ldr	r2, [r3]
 5252 219c 019B     		ldr	r3, [sp, #4]
 5253 219e 1B68     		ldr	r3, [r3]
 5254 21a0 D3F8A430 		ldr	r3, [r3, #164]
 5255 21a4 DB0C     		lsrs	r3, r3, #19
 5256 21a6 DB04     		lsls	r3, r3, #19
 5257 21a8 C2F8A430 		str	r3, [r2, #164]
 5258              	.L368:
 5259              		.loc 1 2532 0
 5260 21ac 019B     		ldr	r3, [sp, #4]
 5261 21ae 1B68     		ldr	r3, [r3]
 5262 21b0 019A     		ldr	r2, [sp, #4]
 5263 21b2 1268     		ldr	r2, [r2]
 5264 21b4 926A     		ldr	r2, [r2, #40]
 5265 21b6 02F0FF21 		and	r1, r2, #-16711936
 5266 21ba 069A     		ldr	r2, [sp, #24]
 5267 21bc 1004     		lsls	r0, r2, #16
 5268 21be 059A     		ldr	r2, [sp, #20]
 5269 21c0 0243     		orrs	r2, r2, r0
 5270 21c2 0A43     		orrs	r2, r2, r1
 5271 21c4 9A62     		str	r2, [r3, #40]
 5272              		.loc 1 2537 0
 5273 21c6 4FF40073 		mov	r3, #512
 5274 21ca 0893     		str	r3, [sp, #32]
 5275              		.loc 1 2538 0
 5276 21cc 4FF40073 		mov	r3, #512
 5277 21d0 0793     		str	r3, [sp, #28]
 5278              		.loc 1 2541 0
 5279 21d2 019B     		ldr	r3, [sp, #4]
 5280 21d4 9B6D     		ldr	r3, [r3, #88]
ARM GAS  /tmp/ccrsTBIG.s 			page 94


 5281 21d6 23F48022 		bic	r2, r3, #262144
 5282 21da 019B     		ldr	r3, [sp, #4]
 5283 21dc 9A65     		str	r2, [r3, #88]
 5284              	.L366:
 5285              		.loc 1 2547 0
 5286 21de 019B     		ldr	r3, [sp, #4]
 5287 21e0 1B68     		ldr	r3, [r3]
 5288 21e2 089A     		ldr	r2, [sp, #32]
 5289 21e4 1A60     		str	r2, [r3]
 5290              		.loc 1 2550 0
 5291 21e6 009B     		ldr	r3, [sp]
 5292 21e8 DB68     		ldr	r3, [r3, #12]
 5293 21ea 012B     		cmp	r3, #1
 5294 21ec 08D1     		bne	.L369
 5295              		.loc 1 2552 0
 5296 21ee 019B     		ldr	r3, [sp, #4]
 5297 21f0 1B68     		ldr	r3, [r3]
 5298 21f2 019A     		ldr	r2, [sp, #4]
 5299 21f4 1268     		ldr	r2, [r2]
 5300 21f6 5168     		ldr	r1, [r2, #4]
 5301 21f8 079A     		ldr	r2, [sp, #28]
 5302 21fa 0A43     		orrs	r2, r2, r1
 5303 21fc 5A60     		str	r2, [r3, #4]
 5304 21fe 12E0     		b	.L370
 5305              	.L369:
 5306              		.loc 1 2556 0
 5307 2200 019B     		ldr	r3, [sp, #4]
 5308 2202 1B68     		ldr	r3, [r3]
 5309 2204 019A     		ldr	r2, [sp, #4]
 5310 2206 1268     		ldr	r2, [r2]
 5311 2208 5168     		ldr	r1, [r2, #4]
 5312 220a 079A     		ldr	r2, [sp, #28]
 5313 220c D243     		mvns	r2, r2
 5314 220e 0A40     		ands	r2, r2, r1
 5315 2210 5A60     		str	r2, [r3, #4]
 5316 2212 08E0     		b	.L370
 5317              	.L353:
 5318              		.loc 1 2566 0
 5319 2214 019B     		ldr	r3, [sp, #4]
 5320 2216 9B6D     		ldr	r3, [r3, #88]
 5321 2218 43F02002 		orr	r2, r3, #32
 5322 221c 019B     		ldr	r3, [sp, #4]
 5323 221e 9A65     		str	r2, [r3, #88]
 5324              		.loc 1 2568 0
 5325 2220 0123     		movs	r3, #1
 5326 2222 8DF82730 		strb	r3, [sp, #39]
 5327              	.L370:
 5328              		.loc 1 2573 0
 5329 2226 019B     		ldr	r3, [sp, #4]
 5330 2228 0022     		movs	r2, #0
 5331 222a 83F85420 		strb	r2, [r3, #84]
 5332              		.loc 1 2577 0
 5333 222e 9DF82730 		ldrb	r3, [sp, #39]	@ zero_extendqisi2
 5334              	.L352:
 5335              		.loc 1 2578 0
 5336 2232 1846     		mov	r0, r3
 5337 2234 0BB0     		add	sp, sp, #44
ARM GAS  /tmp/ccrsTBIG.s 			page 95


 5338              		@ sp needed
 5339 2236 5DF8044B 		ldr	r4, [sp], #4
 5340 223a 7047     		bx	lr
 5341              		.cfi_endproc
 5342              	.LFE144:
 5343              		.size	HAL_ADC_AnalogWDGConfig, .-HAL_ADC_AnalogWDGConfig
 5344              		.align	2
 5345 223c AFF30080 		.p2align 4,,15
 5346              		.global	HAL_ADC_GetState
 5347              		.thumb
 5348              		.thumb_func
 5349              		.type	HAL_ADC_GetState, %function
 5350              	HAL_ADC_GetState:
 5351              	.LFB145:
 5352              		.loc 1 2608 0
 5353              		.cfi_startproc
 5354              		@ args = 0, pretend = 0, frame = 8
 5355              		@ frame_needed = 0, uses_anonymous_args = 0
 5356              		@ link register save eliminated.
 5357 2240 82B0     		sub	sp, sp, #8
 5358              		.cfi_def_cfa_offset 8
 5359 2242 0190     		str	r0, [sp, #4]
 5360              		.loc 1 2613 0
 5361 2244 019B     		ldr	r3, [sp, #4]
 5362 2246 9B6D     		ldr	r3, [r3, #88]
 5363              		.loc 1 2614 0
 5364 2248 1846     		mov	r0, r3
 5365 224a 02B0     		add	sp, sp, #8
 5366              		@ sp needed
 5367 224c 7047     		bx	lr
 5368              		.cfi_endproc
 5369              	.LFE145:
 5370              		.size	HAL_ADC_GetState, .-HAL_ADC_GetState
 5371 224e 00BF     		.align	2
 5372              		.p2align 4,,15
 5373              		.global	HAL_ADC_GetError
 5374              		.thumb
 5375              		.thumb_func
 5376              		.type	HAL_ADC_GetError, %function
 5377              	HAL_ADC_GetError:
 5378              	.LFB146:
 5379              		.loc 1 2623 0
 5380              		.cfi_startproc
 5381              		@ args = 0, pretend = 0, frame = 8
 5382              		@ frame_needed = 0, uses_anonymous_args = 0
 5383              		@ link register save eliminated.
 5384 2250 82B0     		sub	sp, sp, #8
 5385              		.cfi_def_cfa_offset 8
 5386 2252 0190     		str	r0, [sp, #4]
 5387              		.loc 1 2627 0
 5388 2254 019B     		ldr	r3, [sp, #4]
 5389 2256 DB6D     		ldr	r3, [r3, #92]
 5390              		.loc 1 2628 0
 5391 2258 1846     		mov	r0, r3
 5392 225a 02B0     		add	sp, sp, #8
 5393              		@ sp needed
 5394 225c 7047     		bx	lr
ARM GAS  /tmp/ccrsTBIG.s 			page 96


 5395              		.cfi_endproc
 5396              	.LFE146:
 5397              		.size	HAL_ADC_GetError, .-HAL_ADC_GetError
 5398 225e 00BF     		.align	2
 5399              		.p2align 4,,15
 5400              		.global	ADC_ConversionStop
 5401              		.thumb
 5402              		.thumb_func
 5403              		.type	ADC_ConversionStop, %function
 5404              	ADC_ConversionStop:
 5405              	.LFB147:
 5406              		.loc 1 2655 0
 5407              		.cfi_startproc
 5408              		@ args = 0, pretend = 0, frame = 24
 5409              		@ frame_needed = 0, uses_anonymous_args = 0
 5410 2260 00B5     		push	{lr}
 5411              		.cfi_def_cfa_offset 4
 5412              		.cfi_offset 14, -4
 5413 2262 87B0     		sub	sp, sp, #28
 5414              		.cfi_def_cfa_offset 32
 5415 2264 0190     		str	r0, [sp, #4]
 5416 2266 0091     		str	r1, [sp]
 5417              		.loc 1 2656 0
 5418 2268 0023     		movs	r3, #0
 5419 226a 0593     		str	r3, [sp, #20]
 5420              		.loc 1 2657 0
 5421 226c 0023     		movs	r3, #0
 5422 226e 0393     		str	r3, [sp, #12]
 5423              		.loc 1 2658 0
 5424 2270 0023     		movs	r3, #0
 5425 2272 0493     		str	r3, [sp, #16]
 5426              		.loc 1 2666 0
 5427 2274 019B     		ldr	r3, [sp, #4]
 5428 2276 1B68     		ldr	r3, [r3]
 5429 2278 9B68     		ldr	r3, [r3, #8]
 5430 227a 03F00C03 		and	r3, r3, #12
 5431 227e 002B     		cmp	r3, #0
 5432 2280 00F09280 		beq	.L376
 5433              		.loc 1 2674 0
 5434 2284 019B     		ldr	r3, [sp, #4]
 5435 2286 1B68     		ldr	r3, [r3]
 5436 2288 DB68     		ldr	r3, [r3, #12]
 5437 228a 03F00073 		and	r3, r3, #33554432
 5438 228e 002B     		cmp	r3, #0
 5439 2290 2AD0     		beq	.L377
 5440              		.loc 1 2675 0
 5441 2292 019B     		ldr	r3, [sp, #4]
 5442 2294 DB69     		ldr	r3, [r3, #28]
 5443 2296 012B     		cmp	r3, #1
 5444 2298 26D1     		bne	.L377
 5445              		.loc 1 2676 0
 5446 229a 019B     		ldr	r3, [sp, #4]
 5447 229c 9B69     		ldr	r3, [r3, #24]
 5448 229e 012B     		cmp	r3, #1
 5449 22a0 22D1     		bne	.L377
 5450              		.loc 1 2679 0
 5451 22a2 0C23     		movs	r3, #12
ARM GAS  /tmp/ccrsTBIG.s 			page 97


 5452 22a4 0093     		str	r3, [sp]
 5453              		.loc 1 2682 0
 5454 22a6 14E0     		b	.L378
 5455              	.L381:
 5456              		.loc 1 2684 0
 5457 22a8 049A     		ldr	r2, [sp, #16]
 5458 22aa 424B     		ldr	r3, .L391
 5459 22ac 9A42     		cmp	r2, r3
 5460 22ae 0DD9     		bls	.L379
 5461              		.loc 1 2687 0
 5462 22b0 019B     		ldr	r3, [sp, #4]
 5463 22b2 9B6D     		ldr	r3, [r3, #88]
 5464 22b4 43F01002 		orr	r2, r3, #16
 5465 22b8 019B     		ldr	r3, [sp, #4]
 5466 22ba 9A65     		str	r2, [r3, #88]
 5467              		.loc 1 2690 0
 5468 22bc 019B     		ldr	r3, [sp, #4]
 5469 22be DB6D     		ldr	r3, [r3, #92]
 5470 22c0 43F00102 		orr	r2, r3, #1
 5471 22c4 019B     		ldr	r3, [sp, #4]
 5472 22c6 DA65     		str	r2, [r3, #92]
 5473              		.loc 1 2692 0
 5474 22c8 0123     		movs	r3, #1
 5475 22ca 6EE0     		b	.L380
 5476              	.L379:
 5477              		.loc 1 2694 0
 5478 22cc 049B     		ldr	r3, [sp, #16]
 5479 22ce 0133     		adds	r3, r3, #1
 5480 22d0 0493     		str	r3, [sp, #16]
 5481              	.L378:
 5482              		.loc 1 2682 0 discriminator 1
 5483 22d2 019B     		ldr	r3, [sp, #4]
 5484 22d4 1B68     		ldr	r3, [r3]
 5485 22d6 1B68     		ldr	r3, [r3]
 5486 22d8 03F04003 		and	r3, r3, #64
 5487 22dc 002B     		cmp	r3, #0
 5488 22de E3D0     		beq	.L381
 5489              		.loc 1 2698 0
 5490 22e0 019B     		ldr	r3, [sp, #4]
 5491 22e2 1B68     		ldr	r3, [r3]
 5492 22e4 4022     		movs	r2, #64
 5493 22e6 1A60     		str	r2, [r3]
 5494              	.L377:
 5495              		.loc 1 2702 0
 5496 22e8 009B     		ldr	r3, [sp]
 5497 22ea 602B     		cmp	r3, #96
 5498 22ec 15D0     		beq	.L382
 5499              		.loc 1 2705 0
 5500 22ee 019B     		ldr	r3, [sp, #4]
 5501 22f0 1B68     		ldr	r3, [r3]
 5502 22f2 9B68     		ldr	r3, [r3, #8]
 5503 22f4 03F00403 		and	r3, r3, #4
 5504 22f8 002B     		cmp	r3, #0
 5505 22fa 0ED0     		beq	.L382
 5506              		.loc 1 2706 0 discriminator 1
 5507 22fc 019B     		ldr	r3, [sp, #4]
 5508 22fe 1B68     		ldr	r3, [r3]
ARM GAS  /tmp/ccrsTBIG.s 			page 98


 5509 2300 9B68     		ldr	r3, [r3, #8]
 5510 2302 03F00203 		and	r3, r3, #2
 5511              		.loc 1 2705 0 discriminator 1
 5512 2306 002B     		cmp	r3, #0
 5513 2308 07D1     		bne	.L382
 5514              		.loc 1 2709 0
 5515 230a 019B     		ldr	r3, [sp, #4]
 5516 230c 1B68     		ldr	r3, [r3]
 5517 230e 019A     		ldr	r2, [sp, #4]
 5518 2310 1268     		ldr	r2, [r2]
 5519 2312 9268     		ldr	r2, [r2, #8]
 5520 2314 42F01002 		orr	r2, r2, #16
 5521 2318 9A60     		str	r2, [r3, #8]
 5522              	.L382:
 5523              		.loc 1 2714 0
 5524 231a 009B     		ldr	r3, [sp]
 5525 231c 0C2B     		cmp	r3, #12
 5526 231e 15D0     		beq	.L383
 5527              		.loc 1 2717 0
 5528 2320 019B     		ldr	r3, [sp, #4]
 5529 2322 1B68     		ldr	r3, [r3]
 5530 2324 9B68     		ldr	r3, [r3, #8]
 5531 2326 03F00803 		and	r3, r3, #8
 5532 232a 002B     		cmp	r3, #0
 5533 232c 0ED0     		beq	.L383
 5534              		.loc 1 2718 0 discriminator 1
 5535 232e 019B     		ldr	r3, [sp, #4]
 5536 2330 1B68     		ldr	r3, [r3]
 5537 2332 9B68     		ldr	r3, [r3, #8]
 5538 2334 03F00203 		and	r3, r3, #2
 5539              		.loc 1 2717 0 discriminator 1
 5540 2338 002B     		cmp	r3, #0
 5541 233a 07D1     		bne	.L383
 5542              		.loc 1 2721 0
 5543 233c 019B     		ldr	r3, [sp, #4]
 5544 233e 1B68     		ldr	r3, [r3]
 5545 2340 019A     		ldr	r2, [sp, #4]
 5546 2342 1268     		ldr	r2, [r2]
 5547 2344 9268     		ldr	r2, [r2, #8]
 5548 2346 42F02002 		orr	r2, r2, #32
 5549 234a 9A60     		str	r2, [r3, #8]
 5550              	.L383:
 5551              		.loc 1 2726 0
 5552 234c 009B     		ldr	r3, [sp]
 5553 234e 602B     		cmp	r3, #96
 5554 2350 04D0     		beq	.L385
 5555 2352 6C2B     		cmp	r3, #108
 5556 2354 05D1     		bne	.L390
 5557              		.loc 1 2729 0
 5558 2356 0C23     		movs	r3, #12
 5559 2358 0593     		str	r3, [sp, #20]
 5560              		.loc 1 2730 0
 5561 235a 05E0     		b	.L387
 5562              	.L385:
 5563              		.loc 1 2732 0
 5564 235c 0823     		movs	r3, #8
 5565 235e 0593     		str	r3, [sp, #20]
ARM GAS  /tmp/ccrsTBIG.s 			page 99


 5566              		.loc 1 2733 0
 5567 2360 02E0     		b	.L387
 5568              	.L390:
 5569              		.loc 1 2736 0
 5570 2362 0423     		movs	r3, #4
 5571 2364 0593     		str	r3, [sp, #20]
 5572              		.loc 1 2737 0
 5573 2366 00BF     		nop
 5574              	.L387:
 5575              		.loc 1 2743 0
 5576 2368 FFF7FEFF 		bl	HAL_GetTick
 5577 236c 0390     		str	r0, [sp, #12]
 5578              		.loc 1 2745 0
 5579 236e 14E0     		b	.L388
 5580              	.L389:
 5581              		.loc 1 2747 0
 5582 2370 FFF7FEFF 		bl	HAL_GetTick
 5583 2374 0246     		mov	r2, r0
 5584 2376 039B     		ldr	r3, [sp, #12]
 5585 2378 D31A     		subs	r3, r2, r3
 5586 237a 052B     		cmp	r3, #5
 5587 237c 0DD9     		bls	.L388
 5588              		.loc 1 2750 0
 5589 237e 019B     		ldr	r3, [sp, #4]
 5590 2380 9B6D     		ldr	r3, [r3, #88]
 5591 2382 43F01002 		orr	r2, r3, #16
 5592 2386 019B     		ldr	r3, [sp, #4]
 5593 2388 9A65     		str	r2, [r3, #88]
 5594              		.loc 1 2753 0
 5595 238a 019B     		ldr	r3, [sp, #4]
 5596 238c DB6D     		ldr	r3, [r3, #92]
 5597 238e 43F00102 		orr	r2, r3, #1
 5598 2392 019B     		ldr	r3, [sp, #4]
 5599 2394 DA65     		str	r2, [r3, #92]
 5600              		.loc 1 2755 0
 5601 2396 0123     		movs	r3, #1
 5602 2398 07E0     		b	.L380
 5603              	.L388:
 5604              		.loc 1 2745 0 discriminator 1
 5605 239a 019B     		ldr	r3, [sp, #4]
 5606 239c 1B68     		ldr	r3, [r3]
 5607 239e 9A68     		ldr	r2, [r3, #8]
 5608 23a0 059B     		ldr	r3, [sp, #20]
 5609 23a2 1340     		ands	r3, r3, r2
 5610 23a4 002B     		cmp	r3, #0
 5611 23a6 E3D1     		bne	.L389
 5612              	.L376:
 5613              		.loc 1 2762 0
 5614 23a8 0023     		movs	r3, #0
 5615              	.L380:
 5616              		.loc 1 2763 0
 5617 23aa 1846     		mov	r0, r3
 5618 23ac 07B0     		add	sp, sp, #28
 5619              		@ sp needed
 5620 23ae 5DF804FB 		ldr	pc, [sp], #4
 5621              	.L392:
 5622 23b2 00BF     		.align	2
ARM GAS  /tmp/ccrsTBIG.s 			page 100


 5623              	.L391:
 5624 23b4 FF330A00 		.word	668671
 5625              		.cfi_endproc
 5626              	.LFE147:
 5627              		.size	ADC_ConversionStop, .-ADC_ConversionStop
 5628              		.align	2
 5629 23b8 AFF30080 		.p2align 4,,15
 5629      AFF30080 
 5630              		.global	ADC_Enable
 5631              		.thumb
 5632              		.thumb_func
 5633              		.type	ADC_Enable, %function
 5634              	ADC_Enable:
 5635              	.LFB148:
 5636              		.loc 1 2775 0
 5637              		.cfi_startproc
 5638              		@ args = 0, pretend = 0, frame = 16
 5639              		@ frame_needed = 0, uses_anonymous_args = 0
 5640 23c0 00B5     		push	{lr}
 5641              		.cfi_def_cfa_offset 4
 5642              		.cfi_offset 14, -4
 5643 23c2 85B0     		sub	sp, sp, #20
 5644              		.cfi_def_cfa_offset 24
 5645 23c4 0190     		str	r0, [sp, #4]
 5646              		.loc 1 2776 0
 5647 23c6 0023     		movs	r3, #0
 5648 23c8 0393     		str	r3, [sp, #12]
 5649              		.loc 1 2782 0
 5650 23ca 019B     		ldr	r3, [sp, #4]
 5651 23cc 1B68     		ldr	r3, [r3]
 5652 23ce 9B68     		ldr	r3, [r3, #8]
 5653 23d0 03F00303 		and	r3, r3, #3
 5654 23d4 012B     		cmp	r3, #1
 5655 23d6 08D1     		bne	.L394
 5656              		.loc 1 2782 0 is_stmt 0 discriminator 1
 5657 23d8 019B     		ldr	r3, [sp, #4]
 5658 23da 1B68     		ldr	r3, [r3]
 5659 23dc 1B68     		ldr	r3, [r3]
 5660 23de 03F00103 		and	r3, r3, #1
 5661 23e2 002B     		cmp	r3, #0
 5662 23e4 01D0     		beq	.L394
 5663              		.loc 1 2782 0 discriminator 3
 5664 23e6 0123     		movs	r3, #1
 5665 23e8 00E0     		b	.L395
 5666              	.L394:
 5667              		.loc 1 2782 0 discriminator 2
 5668 23ea 0023     		movs	r3, #0
 5669              	.L395:
 5670              		.loc 1 2782 0 discriminator 4
 5671 23ec 002B     		cmp	r3, #0
 5672 23ee 44D1     		bne	.L396
 5673              		.loc 1 2785 0 is_stmt 1
 5674 23f0 019B     		ldr	r3, [sp, #4]
 5675 23f2 1B68     		ldr	r3, [r3]
 5676 23f4 9A68     		ldr	r2, [r3, #8]
 5677 23f6 234B     		ldr	r3, .L401
 5678 23f8 1340     		ands	r3, r3, r2
ARM GAS  /tmp/ccrsTBIG.s 			page 101


 5679 23fa 002B     		cmp	r3, #0
 5680 23fc 0DD0     		beq	.L397
 5681              		.loc 1 2788 0
 5682 23fe 019B     		ldr	r3, [sp, #4]
 5683 2400 9B6D     		ldr	r3, [r3, #88]
 5684 2402 43F01002 		orr	r2, r3, #16
 5685 2406 019B     		ldr	r3, [sp, #4]
 5686 2408 9A65     		str	r2, [r3, #88]
 5687              		.loc 1 2791 0
 5688 240a 019B     		ldr	r3, [sp, #4]
 5689 240c DB6D     		ldr	r3, [r3, #92]
 5690 240e 43F00102 		orr	r2, r3, #1
 5691 2412 019B     		ldr	r3, [sp, #4]
 5692 2414 DA65     		str	r2, [r3, #92]
 5693              		.loc 1 2793 0
 5694 2416 0123     		movs	r3, #1
 5695 2418 30E0     		b	.L398
 5696              	.L397:
 5697              		.loc 1 2797 0
 5698 241a 019B     		ldr	r3, [sp, #4]
 5699 241c 1B68     		ldr	r3, [r3]
 5700 241e 019A     		ldr	r2, [sp, #4]
 5701 2420 1268     		ldr	r2, [r2]
 5702 2422 9268     		ldr	r2, [r2, #8]
 5703 2424 42F00102 		orr	r2, r2, #1
 5704 2428 9A60     		str	r2, [r3, #8]
 5705              		.loc 1 2801 0
 5706 242a FFF7FEFF 		bl	HAL_GetTick
 5707 242e 0390     		str	r0, [sp, #12]
 5708              		.loc 1 2803 0
 5709 2430 1CE0     		b	.L399
 5710              	.L400:
 5711              		.loc 1 2811 0
 5712 2432 019B     		ldr	r3, [sp, #4]
 5713 2434 1B68     		ldr	r3, [r3]
 5714 2436 019A     		ldr	r2, [sp, #4]
 5715 2438 1268     		ldr	r2, [r2]
 5716 243a 9268     		ldr	r2, [r2, #8]
 5717 243c 42F00102 		orr	r2, r2, #1
 5718 2440 9A60     		str	r2, [r3, #8]
 5719              		.loc 1 2813 0
 5720 2442 FFF7FEFF 		bl	HAL_GetTick
 5721 2446 0246     		mov	r2, r0
 5722 2448 039B     		ldr	r3, [sp, #12]
 5723 244a D31A     		subs	r3, r2, r3
 5724 244c 022B     		cmp	r3, #2
 5725 244e 0DD9     		bls	.L399
 5726              		.loc 1 2816 0
 5727 2450 019B     		ldr	r3, [sp, #4]
 5728 2452 9B6D     		ldr	r3, [r3, #88]
 5729 2454 43F01002 		orr	r2, r3, #16
 5730 2458 019B     		ldr	r3, [sp, #4]
 5731 245a 9A65     		str	r2, [r3, #88]
 5732              		.loc 1 2819 0
 5733 245c 019B     		ldr	r3, [sp, #4]
 5734 245e DB6D     		ldr	r3, [r3, #92]
 5735 2460 43F00102 		orr	r2, r3, #1
ARM GAS  /tmp/ccrsTBIG.s 			page 102


 5736 2464 019B     		ldr	r3, [sp, #4]
 5737 2466 DA65     		str	r2, [r3, #92]
 5738              		.loc 1 2821 0
 5739 2468 0123     		movs	r3, #1
 5740 246a 07E0     		b	.L398
 5741              	.L399:
 5742              		.loc 1 2803 0 discriminator 1
 5743 246c 019B     		ldr	r3, [sp, #4]
 5744 246e 1B68     		ldr	r3, [r3]
 5745 2470 1B68     		ldr	r3, [r3]
 5746 2472 03F00103 		and	r3, r3, #1
 5747 2476 002B     		cmp	r3, #0
 5748 2478 DBD0     		beq	.L400
 5749              	.L396:
 5750              		.loc 1 2827 0
 5751 247a 0023     		movs	r3, #0
 5752              	.L398:
 5753              		.loc 1 2828 0
 5754 247c 1846     		mov	r0, r3
 5755 247e 05B0     		add	sp, sp, #20
 5756              		@ sp needed
 5757 2480 5DF804FB 		ldr	pc, [sp], #4
 5758              	.L402:
 5759              		.align	2
 5760              	.L401:
 5761 2484 3F000080 		.word	-2147483585
 5762              		.cfi_endproc
 5763              	.LFE148:
 5764              		.size	ADC_Enable, .-ADC_Enable
 5765              		.align	2
 5766 2488 AFF30080 		.p2align 4,,15
 5766      AFF30080 
 5767              		.global	ADC_Disable
 5768              		.thumb
 5769              		.thumb_func
 5770              		.type	ADC_Disable, %function
 5771              	ADC_Disable:
 5772              	.LFB149:
 5773              		.loc 1 2838 0
 5774              		.cfi_startproc
 5775              		@ args = 0, pretend = 0, frame = 16
 5776              		@ frame_needed = 0, uses_anonymous_args = 0
 5777 2490 00B5     		push	{lr}
 5778              		.cfi_def_cfa_offset 4
 5779              		.cfi_offset 14, -4
 5780 2492 85B0     		sub	sp, sp, #20
 5781              		.cfi_def_cfa_offset 24
 5782 2494 0190     		str	r0, [sp, #4]
 5783              		.loc 1 2839 0
 5784 2496 0023     		movs	r3, #0
 5785 2498 0393     		str	r3, [sp, #12]
 5786              		.loc 1 2844 0
 5787 249a 019B     		ldr	r3, [sp, #4]
 5788 249c 1B68     		ldr	r3, [r3]
 5789 249e 9B68     		ldr	r3, [r3, #8]
 5790 24a0 03F00303 		and	r3, r3, #3
 5791 24a4 012B     		cmp	r3, #1
ARM GAS  /tmp/ccrsTBIG.s 			page 103


 5792 24a6 08D1     		bne	.L404
 5793              		.loc 1 2844 0 is_stmt 0 discriminator 1
 5794 24a8 019B     		ldr	r3, [sp, #4]
 5795 24aa 1B68     		ldr	r3, [r3]
 5796 24ac 1B68     		ldr	r3, [r3]
 5797 24ae 03F00103 		and	r3, r3, #1
 5798 24b2 002B     		cmp	r3, #0
 5799 24b4 01D0     		beq	.L404
 5800              		.loc 1 2844 0 discriminator 3
 5801 24b6 0123     		movs	r3, #1
 5802 24b8 00E0     		b	.L405
 5803              	.L404:
 5804              		.loc 1 2844 0 discriminator 2
 5805 24ba 0023     		movs	r3, #0
 5806              	.L405:
 5807              		.loc 1 2844 0 discriminator 4
 5808 24bc 002B     		cmp	r3, #0
 5809 24be 40D0     		beq	.L406
 5810              		.loc 1 2847 0 is_stmt 1
 5811 24c0 019B     		ldr	r3, [sp, #4]
 5812 24c2 1B68     		ldr	r3, [r3]
 5813 24c4 9B68     		ldr	r3, [r3, #8]
 5814 24c6 03F00D03 		and	r3, r3, #13
 5815 24ca 012B     		cmp	r3, #1
 5816 24cc 0FD1     		bne	.L407
 5817              		.loc 1 2850 0
 5818 24ce 019B     		ldr	r3, [sp, #4]
 5819 24d0 1B68     		ldr	r3, [r3]
 5820 24d2 019A     		ldr	r2, [sp, #4]
 5821 24d4 1268     		ldr	r2, [r2]
 5822 24d6 9268     		ldr	r2, [r2, #8]
 5823 24d8 42F00202 		orr	r2, r2, #2
 5824 24dc 9A60     		str	r2, [r3, #8]
 5825 24de 019B     		ldr	r3, [sp, #4]
 5826 24e0 1B68     		ldr	r3, [r3]
 5827 24e2 0322     		movs	r2, #3
 5828 24e4 1A60     		str	r2, [r3]
 5829              		.loc 1 2864 0
 5830 24e6 FFF7FEFF 		bl	HAL_GetTick
 5831 24ea 0390     		str	r0, [sp, #12]
 5832              		.loc 1 2866 0
 5833 24ec 22E0     		b	.L410
 5834              	.L407:
 5835              		.loc 1 2855 0
 5836 24ee 019B     		ldr	r3, [sp, #4]
 5837 24f0 9B6D     		ldr	r3, [r3, #88]
 5838 24f2 43F01002 		orr	r2, r3, #16
 5839 24f6 019B     		ldr	r3, [sp, #4]
 5840 24f8 9A65     		str	r2, [r3, #88]
 5841              		.loc 1 2858 0
 5842 24fa 019B     		ldr	r3, [sp, #4]
 5843 24fc DB6D     		ldr	r3, [r3, #92]
 5844 24fe 43F00102 		orr	r2, r3, #1
 5845 2502 019B     		ldr	r3, [sp, #4]
 5846 2504 DA65     		str	r2, [r3, #92]
 5847              		.loc 1 2860 0
 5848 2506 0123     		movs	r3, #1
ARM GAS  /tmp/ccrsTBIG.s 			page 104


 5849 2508 1CE0     		b	.L409
 5850              	.L411:
 5851              		.loc 1 2868 0
 5852 250a FFF7FEFF 		bl	HAL_GetTick
 5853 250e 0246     		mov	r2, r0
 5854 2510 039B     		ldr	r3, [sp, #12]
 5855 2512 D31A     		subs	r3, r2, r3
 5856 2514 022B     		cmp	r3, #2
 5857 2516 0DD9     		bls	.L410
 5858              		.loc 1 2871 0
 5859 2518 019B     		ldr	r3, [sp, #4]
 5860 251a 9B6D     		ldr	r3, [r3, #88]
 5861 251c 43F01002 		orr	r2, r3, #16
 5862 2520 019B     		ldr	r3, [sp, #4]
 5863 2522 9A65     		str	r2, [r3, #88]
 5864              		.loc 1 2874 0
 5865 2524 019B     		ldr	r3, [sp, #4]
 5866 2526 DB6D     		ldr	r3, [r3, #92]
 5867 2528 43F00102 		orr	r2, r3, #1
 5868 252c 019B     		ldr	r3, [sp, #4]
 5869 252e DA65     		str	r2, [r3, #92]
 5870              		.loc 1 2876 0
 5871 2530 0123     		movs	r3, #1
 5872 2532 07E0     		b	.L409
 5873              	.L410:
 5874              		.loc 1 2866 0 discriminator 1
 5875 2534 019B     		ldr	r3, [sp, #4]
 5876 2536 1B68     		ldr	r3, [r3]
 5877 2538 9B68     		ldr	r3, [r3, #8]
 5878 253a 03F00103 		and	r3, r3, #1
 5879 253e 002B     		cmp	r3, #0
 5880 2540 E3D1     		bne	.L411
 5881              	.L406:
 5882              		.loc 1 2882 0
 5883 2542 0023     		movs	r3, #0
 5884              	.L409:
 5885              		.loc 1 2883 0
 5886 2544 1846     		mov	r0, r3
 5887 2546 05B0     		add	sp, sp, #20
 5888              		@ sp needed
 5889 2548 5DF804FB 		ldr	pc, [sp], #4
 5890              		.cfi_endproc
 5891              	.LFE149:
 5892              		.size	ADC_Disable, .-ADC_Disable
 5893              		.align	2
 5894 254c AFF30080 		.p2align 4,,15
 5895              		.global	ADC_DMAConvCplt
 5896              		.thumb
 5897              		.thumb_func
 5898              		.type	ADC_DMAConvCplt, %function
 5899              	ADC_DMAConvCplt:
 5900              	.LFB150:
 5901              		.loc 1 2892 0
 5902              		.cfi_startproc
 5903              		@ args = 0, pretend = 0, frame = 16
 5904              		@ frame_needed = 0, uses_anonymous_args = 0
 5905 2550 00B5     		push	{lr}
ARM GAS  /tmp/ccrsTBIG.s 			page 105


 5906              		.cfi_def_cfa_offset 4
 5907              		.cfi_offset 14, -4
 5908 2552 85B0     		sub	sp, sp, #20
 5909              		.cfi_def_cfa_offset 24
 5910 2554 0190     		str	r0, [sp, #4]
 5911              		.loc 1 2894 0
 5912 2556 019B     		ldr	r3, [sp, #4]
 5913 2558 9B6A     		ldr	r3, [r3, #40]
 5914 255a 0393     		str	r3, [sp, #12]
 5915              		.loc 1 2897 0
 5916 255c 039B     		ldr	r3, [sp, #12]
 5917 255e 9B6D     		ldr	r3, [r3, #88]
 5918 2560 03F05003 		and	r3, r3, #80
 5919 2564 002B     		cmp	r3, #0
 5920 2566 4AD1     		bne	.L413
 5921              		.loc 1 2900 0
 5922 2568 039B     		ldr	r3, [sp, #12]
 5923 256a 9B6D     		ldr	r3, [r3, #88]
 5924 256c 43F40072 		orr	r2, r3, #512
 5925 2570 039B     		ldr	r3, [sp, #12]
 5926 2572 9A65     		str	r2, [r3, #88]
 5927              		.loc 1 2902 0
 5928 2574 039B     		ldr	r3, [sp, #12]
 5929 2576 1B68     		ldr	r3, [r3]
 5930 2578 1B68     		ldr	r3, [r3]
 5931 257a 03F00803 		and	r3, r3, #8
 5932 257e 002B     		cmp	r3, #0
 5933 2580 20D0     		beq	.L414
 5934              		.loc 1 2905 0
 5935 2582 039B     		ldr	r3, [sp, #12]
 5936 2584 1B68     		ldr	r3, [r3]
 5937 2586 DB68     		ldr	r3, [r3, #12]
 5938 2588 03F44063 		and	r3, r3, #3072
 5939 258c 002B     		cmp	r3, #0
 5940 258e 32D1     		bne	.L416
 5941              		.loc 1 2908 0
 5942 2590 039B     		ldr	r3, [sp, #12]
 5943 2592 1B68     		ldr	r3, [r3]
 5944 2594 DB68     		ldr	r3, [r3, #12]
 5945 2596 03F40053 		and	r3, r3, #8192
 5946 259a 002B     		cmp	r3, #0
 5947 259c 2BD1     		bne	.L416
 5948              		.loc 1 2911 0
 5949 259e 039B     		ldr	r3, [sp, #12]
 5950 25a0 9B6D     		ldr	r3, [r3, #88]
 5951 25a2 23F48072 		bic	r2, r3, #256
 5952 25a6 039B     		ldr	r3, [sp, #12]
 5953 25a8 9A65     		str	r2, [r3, #88]
 5954              		.loc 1 2912 0
 5955 25aa 039B     		ldr	r3, [sp, #12]
 5956 25ac 9B6D     		ldr	r3, [r3, #88]
 5957 25ae 03F48053 		and	r3, r3, #4096
 5958 25b2 002B     		cmp	r3, #0
 5959 25b4 1FD1     		bne	.L416
 5960              		.loc 1 2914 0
 5961 25b6 039B     		ldr	r3, [sp, #12]
 5962 25b8 9B6D     		ldr	r3, [r3, #88]
ARM GAS  /tmp/ccrsTBIG.s 			page 106


 5963 25ba 43F00102 		orr	r2, r3, #1
 5964 25be 039B     		ldr	r3, [sp, #12]
 5965 25c0 9A65     		str	r2, [r3, #88]
 5966 25c2 18E0     		b	.L416
 5967              	.L414:
 5968              		.loc 1 2923 0
 5969 25c4 039B     		ldr	r3, [sp, #12]
 5970 25c6 1B68     		ldr	r3, [r3]
 5971 25c8 DB68     		ldr	r3, [r3, #12]
 5972 25ca 03F00203 		and	r3, r3, #2
 5973 25ce 002B     		cmp	r3, #0
 5974 25d0 11D1     		bne	.L416
 5975              		.loc 1 2926 0
 5976 25d2 039B     		ldr	r3, [sp, #12]
 5977 25d4 9B6D     		ldr	r3, [r3, #88]
 5978 25d6 23F48072 		bic	r2, r3, #256
 5979 25da 039B     		ldr	r3, [sp, #12]
 5980 25dc 9A65     		str	r2, [r3, #88]
 5981              		.loc 1 2927 0
 5982 25de 039B     		ldr	r3, [sp, #12]
 5983 25e0 9B6D     		ldr	r3, [r3, #88]
 5984 25e2 03F48053 		and	r3, r3, #4096
 5985 25e6 002B     		cmp	r3, #0
 5986 25e8 05D1     		bne	.L416
 5987              		.loc 1 2929 0
 5988 25ea 039B     		ldr	r3, [sp, #12]
 5989 25ec 9B6D     		ldr	r3, [r3, #88]
 5990 25ee 43F00102 		orr	r2, r3, #1
 5991 25f2 039B     		ldr	r3, [sp, #12]
 5992 25f4 9A65     		str	r2, [r3, #88]
 5993              	.L416:
 5994              		.loc 1 2935 0 discriminator 1
 5995 25f6 0398     		ldr	r0, [sp, #12]
 5996 25f8 FFF7FEFF 		bl	HAL_ADC_ConvCpltCallback
 5997 25fc 08E0     		b	.L412
 5998              	.L413:
 5999              		.loc 1 2940 0
 6000 25fe 039B     		ldr	r3, [sp, #12]
 6001 2600 9B6D     		ldr	r3, [r3, #88]
 6002 2602 03F01003 		and	r3, r3, #16
 6003 2606 002B     		cmp	r3, #0
 6004 2608 02D0     		beq	.L412
 6005              		.loc 1 2943 0
 6006 260a 0398     		ldr	r0, [sp, #12]
 6007 260c FFF7FEFF 		bl	HAL_ADC_ErrorCallback
 6008              	.L412:
 6009              		.loc 1 2949 0
 6010 2610 05B0     		add	sp, sp, #20
 6011              		@ sp needed
 6012 2612 5DF804FB 		ldr	pc, [sp], #4
 6013              		.cfi_endproc
 6014              	.LFE150:
 6015              		.size	ADC_DMAConvCplt, .-ADC_DMAConvCplt
 6016 2616 00BF     		.align	2
 6017 2618 AFF30080 		.p2align 4,,15
 6017      AFF30080 
 6018              		.global	ADC_DMAHalfConvCplt
ARM GAS  /tmp/ccrsTBIG.s 			page 107


 6019              		.thumb
 6020              		.thumb_func
 6021              		.type	ADC_DMAHalfConvCplt, %function
 6022              	ADC_DMAHalfConvCplt:
 6023              	.LFB151:
 6024              		.loc 1 2957 0
 6025              		.cfi_startproc
 6026              		@ args = 0, pretend = 0, frame = 16
 6027              		@ frame_needed = 0, uses_anonymous_args = 0
 6028 2620 00B5     		push	{lr}
 6029              		.cfi_def_cfa_offset 4
 6030              		.cfi_offset 14, -4
 6031 2622 85B0     		sub	sp, sp, #20
 6032              		.cfi_def_cfa_offset 24
 6033 2624 0190     		str	r0, [sp, #4]
 6034              		.loc 1 2959 0
 6035 2626 019B     		ldr	r3, [sp, #4]
 6036 2628 9B6A     		ldr	r3, [r3, #40]
 6037 262a 0393     		str	r3, [sp, #12]
 6038              		.loc 1 2962 0
 6039 262c 0398     		ldr	r0, [sp, #12]
 6040 262e FFF7FEFF 		bl	HAL_ADC_ConvHalfCpltCallback
 6041              		.loc 1 2963 0
 6042 2632 05B0     		add	sp, sp, #20
 6043              		@ sp needed
 6044 2634 5DF804FB 		ldr	pc, [sp], #4
 6045              		.cfi_endproc
 6046              	.LFE151:
 6047              		.size	ADC_DMAHalfConvCplt, .-ADC_DMAHalfConvCplt
 6048              		.align	2
 6049 2638 AFF30080 		.p2align 4,,15
 6049      AFF30080 
 6050              		.global	ADC_DMAError
 6051              		.thumb
 6052              		.thumb_func
 6053              		.type	ADC_DMAError, %function
 6054              	ADC_DMAError:
 6055              	.LFB152:
 6056              		.loc 1 2971 0
 6057              		.cfi_startproc
 6058              		@ args = 0, pretend = 0, frame = 16
 6059              		@ frame_needed = 0, uses_anonymous_args = 0
 6060 2640 00B5     		push	{lr}
 6061              		.cfi_def_cfa_offset 4
 6062              		.cfi_offset 14, -4
 6063 2642 85B0     		sub	sp, sp, #20
 6064              		.cfi_def_cfa_offset 24
 6065 2644 0190     		str	r0, [sp, #4]
 6066              		.loc 1 2973 0
 6067 2646 019B     		ldr	r3, [sp, #4]
 6068 2648 9B6A     		ldr	r3, [r3, #40]
 6069 264a 0393     		str	r3, [sp, #12]
 6070              		.loc 1 2976 0
 6071 264c 039B     		ldr	r3, [sp, #12]
 6072 264e 9B6D     		ldr	r3, [r3, #88]
 6073 2650 43F04002 		orr	r2, r3, #64
 6074 2654 039B     		ldr	r3, [sp, #12]
ARM GAS  /tmp/ccrsTBIG.s 			page 108


 6075 2656 9A65     		str	r2, [r3, #88]
 6076              		.loc 1 2979 0
 6077 2658 039B     		ldr	r3, [sp, #12]
 6078 265a DB6D     		ldr	r3, [r3, #92]
 6079 265c 43F00402 		orr	r2, r3, #4
 6080 2660 039B     		ldr	r3, [sp, #12]
 6081 2662 DA65     		str	r2, [r3, #92]
 6082              		.loc 1 2982 0
 6083 2664 0398     		ldr	r0, [sp, #12]
 6084 2666 FFF7FEFF 		bl	HAL_ADC_ErrorCallback
 6085              		.loc 1 2983 0
 6086 266a 05B0     		add	sp, sp, #20
 6087              		@ sp needed
 6088 266c 5DF804FB 		ldr	pc, [sp], #4
 6089              		.cfi_endproc
 6090              	.LFE152:
 6091              		.size	ADC_DMAError, .-ADC_DMAError
 6092              	.Letext0:
 6093              		.file 3 "/nfs/nfs5/home/research/hardware/arm2/gcc-arm-embedded/gcc-arm-none-eabi-4_8-2014q2/arm-n
 6094              		.file 4 "/nfs/nfs5/home/research/hardware/arm2/gcc-arm-embedded/gcc-arm-none-eabi-4_8-2014q2/arm-n
 6095              		.file 5 "../../../../../../ChibiOS/os/ext/CMSIS/ST/STM32L4xx/stm32l476xx.h"
 6096              		.file 6 "../../../../../../ChibiOS/os/ext/CMSIS/ST/STM32L4xx/stm32l4xx.h"
 6097              		.file 7 "../../../../../Drivers/STM32L4xx_HAL_Driver/Inc/stm32l4xx_hal_def.h"
 6098              		.file 8 "../../../../../Drivers/STM32L4xx_HAL_Driver/Inc/stm32l4xx_hal_dma.h"
 6099              		.file 9 "../../../../../Drivers/STM32L4xx_HAL_Driver/Inc/stm32l4xx_hal_adc.h"
 6100              		.file 10 "../../../../../Drivers/STM32L4xx_HAL_Driver/Inc/stm32l4xx_hal_adc_ex.h"
 6101              		.file 11 "../../../../../../ChibiOS/os/ext/CMSIS/include/core_cm4.h"
 6102              		.file 12 "../../../../../../ChibiOS/os/ext/CMSIS/ST/STM32L4xx/system_stm32l4xx.h"