ARM GAS  /tmp/ccjyqKqb.s 			page 1


   1              		.syntax unified
   2              		.cpu cortex-m4
   3              		.fpu softvfp
   4              		.eabi_attribute 20, 1
   5              		.eabi_attribute 21, 1
   6              		.eabi_attribute 23, 3
   7              		.eabi_attribute 24, 1
   8              		.eabi_attribute 25, 1
   9              		.eabi_attribute 26, 1
  10              		.eabi_attribute 30, 6
  11              		.eabi_attribute 34, 1
  12              		.eabi_attribute 18, 4
  13              		.thumb
  14              		.file	"stm32l4xx_hal_dfsdm.c"
  15              		.text
  16              	.Ltext0:
  17              		.cfi_sections	.debug_frame
  18              		.global	v_dfsdm1ChannelCounter
  19              		.bss
  20              		.align	2
  21              		.type	v_dfsdm1ChannelCounter, %object
  22              		.size	v_dfsdm1ChannelCounter, 4
  23              	v_dfsdm1ChannelCounter:
  24 0000 00000000 		.space	4
  25              		.global	a_dfsdm1ChannelHandle
  26              		.align	2
  27              		.type	a_dfsdm1ChannelHandle, %object
  28              		.size	a_dfsdm1ChannelHandle, 32
  29              	a_dfsdm1ChannelHandle:
  30 0004 00000000 		.space	32
  30      00000000 
  30      00000000 
  30      00000000 
  30      00000000 
  31              		.text
  32              		.align	2
  33              		.p2align 4,,15
  34              		.global	HAL_DFSDM_ChannelInit
  35              		.thumb
  36              		.thumb_func
  37              		.type	HAL_DFSDM_ChannelInit, %function
  38              	HAL_DFSDM_ChannelInit:
  39              	.LFB125:
  40              		.file 1 "../../../../../Drivers/STM32L4xx_HAL_Driver/Src/stm32l4xx_hal_dfsdm.c"
  41              		.loc 1 294 0
  42              		.cfi_startproc
  43              		@ args = 0, pretend = 0, frame = 40
  44              		@ frame_needed = 0, uses_anonymous_args = 0
  45 0000 10B5     		push	{r4, lr}
  46              		.cfi_def_cfa_offset 8
  47              		.cfi_offset 4, -8
  48              		.cfi_offset 14, -4
  49 0002 8AB0     		sub	sp, sp, #40
  50              		.cfi_def_cfa_offset 48
  51 0004 0190     		str	r0, [sp, #4]
  52              		.loc 1 296 0
  53 0006 019B     		ldr	r3, [sp, #4]
ARM GAS  /tmp/ccjyqKqb.s 			page 2


  54 0008 002B     		cmp	r3, #0
  55 000a 01D1     		bne	.L2
  56              		.loc 1 298 0
  57 000c 0123     		movs	r3, #1
  58 000e D7E0     		b	.L3
  59              	.L2:
  60              		.loc 1 315 0
  61 0010 019B     		ldr	r3, [sp, #4]
  62 0012 1B68     		ldr	r3, [r3]
  63 0014 1846     		mov	r0, r3
  64 0016 01F003FF 		bl	DFSDM_GetChannelFromInstance
  65 001a 0246     		mov	r2, r0
  66 001c 6A4B     		ldr	r3, .L11
  67 001e 53F82230 		ldr	r3, [r3, r2, lsl #2]
  68 0022 002B     		cmp	r3, #0
  69 0024 01D0     		beq	.L4
  70              		.loc 1 317 0
  71 0026 0123     		movs	r3, #1
  72 0028 CAE0     		b	.L3
  73              	.L4:
  74              		.loc 1 321 0
  75 002a 0198     		ldr	r0, [sp, #4]
  76 002c FFF7FEFF 		bl	HAL_DFSDM_ChannelMspInit
  77              		.loc 1 324 0
  78 0030 664B     		ldr	r3, .L11+4
  79 0032 1B68     		ldr	r3, [r3]
  80 0034 5A1C     		adds	r2, r3, #1
  81 0036 654B     		ldr	r3, .L11+4
  82 0038 1A60     		str	r2, [r3]
  83              		.loc 1 327 0
  84 003a 644B     		ldr	r3, .L11+4
  85 003c 1B68     		ldr	r3, [r3]
  86 003e 012B     		cmp	r3, #1
  87 0040 30D1     		bne	.L5
  88              		.loc 1 331 0
  89 0042 634B     		ldr	r3, .L11+8
  90 0044 624A     		ldr	r2, .L11+8
  91 0046 1268     		ldr	r2, [r2]
  92 0048 22F08042 		bic	r2, r2, #1073741824
  93 004c 1A60     		str	r2, [r3]
  94              		.loc 1 332 0
  95 004e 604B     		ldr	r3, .L11+8
  96 0050 5F4A     		ldr	r2, .L11+8
  97 0052 1168     		ldr	r1, [r2]
  98 0054 019A     		ldr	r2, [sp, #4]
  99 0056 9268     		ldr	r2, [r2, #8]
 100 0058 0A43     		orrs	r2, r2, r1
 101 005a 1A60     		str	r2, [r3]
 102              		.loc 1 335 0
 103 005c 5C4B     		ldr	r3, .L11+8
 104 005e 5C4A     		ldr	r2, .L11+8
 105 0060 1268     		ldr	r2, [r2]
 106 0062 22F47F02 		bic	r2, r2, #16711680
 107 0066 1A60     		str	r2, [r3]
 108              		.loc 1 336 0
 109 0068 019B     		ldr	r3, [sp, #4]
 110 006a 1B79     		ldrb	r3, [r3, #4]	@ zero_extendqisi2
ARM GAS  /tmp/ccjyqKqb.s 			page 3


 111 006c 012B     		cmp	r3, #1
 112 006e 13D1     		bne	.L6
 113              		.loc 1 340 0
 114 0070 574B     		ldr	r3, .L11+8
 115 0072 574A     		ldr	r2, .L11+8
 116 0074 1168     		ldr	r1, [r2]
 117 0076 019A     		ldr	r2, [sp, #4]
 118 0078 D268     		ldr	r2, [r2, #12]
 119 007a 501E     		subs	r0, r2, #1
 120 007c 4FF47F02 		mov	r2, #16711680
 121 0080 0992     		str	r2, [sp, #36]
 122              	.LBB75:
 123              	.LBB76:
 124              		.file 2 "../../../../../../ChibiOS/os/ext/CMSIS/include/core_cmInstr.h"
 125              		.loc 2 586 0
 126 0082 099A     		ldr	r2, [sp, #36]
 127              	@ 586 "../../../../../../ChibiOS/os/ext/CMSIS/include/core_cmInstr.h" 1
 128 0084 92FAA2F2 		rbit r2, r2
 129              	@ 0 "" 2
 130              		.thumb
 131 0088 0892     		str	r2, [sp, #32]
 132              		.loc 2 599 0
 133 008a 089A     		ldr	r2, [sp, #32]
 134              	.LBE76:
 135              	.LBE75:
 136              		.loc 1 341 0
 137 008c B2FA82F2 		clz	r2, r2
 138              		.loc 1 340 0
 139 0090 00FA02F2 		lsl	r2, r0, r2
 140 0094 0A43     		orrs	r2, r2, r1
 141 0096 1A60     		str	r2, [r3]
 142              	.L6:
 143              		.loc 1 345 0
 144 0098 4D4B     		ldr	r3, .L11+8
 145 009a 4D4A     		ldr	r2, .L11+8
 146 009c 1268     		ldr	r2, [r2]
 147 009e 42F00042 		orr	r2, r2, #-2147483648
 148 00a2 1A60     		str	r2, [r3]
 149              	.L5:
 150              		.loc 1 349 0
 151 00a4 019B     		ldr	r3, [sp, #4]
 152 00a6 1B68     		ldr	r3, [r3]
 153 00a8 019A     		ldr	r2, [sp, #4]
 154 00aa 1268     		ldr	r2, [r2]
 155 00ac 1268     		ldr	r2, [r2]
 156 00ae 22F47142 		bic	r2, r2, #61696
 157 00b2 1A60     		str	r2, [r3]
 158              		.loc 1 351 0
 159 00b4 019B     		ldr	r3, [sp, #4]
 160 00b6 1B68     		ldr	r3, [r3]
 161 00b8 019A     		ldr	r2, [sp, #4]
 162 00ba 1268     		ldr	r2, [r2]
 163 00bc 1168     		ldr	r1, [r2]
 164 00be 019A     		ldr	r2, [sp, #4]
 165 00c0 1069     		ldr	r0, [r2, #16]
 166              		.loc 1 352 0
 167 00c2 019A     		ldr	r2, [sp, #4]
ARM GAS  /tmp/ccjyqKqb.s 			page 4


 168 00c4 5269     		ldr	r2, [r2, #20]
 169              		.loc 1 351 0
 170 00c6 1043     		orrs	r0, r0, r2
 171              		.loc 1 353 0
 172 00c8 019A     		ldr	r2, [sp, #4]
 173 00ca 9269     		ldr	r2, [r2, #24]
 174              		.loc 1 352 0
 175 00cc 0243     		orrs	r2, r2, r0
 176              		.loc 1 351 0
 177 00ce 0A43     		orrs	r2, r2, r1
 178 00d0 1A60     		str	r2, [r3]
 179              		.loc 1 356 0
 180 00d2 019B     		ldr	r3, [sp, #4]
 181 00d4 1B68     		ldr	r3, [r3]
 182 00d6 019A     		ldr	r2, [sp, #4]
 183 00d8 1268     		ldr	r2, [r2]
 184 00da 1268     		ldr	r2, [r2]
 185 00dc 22F00F02 		bic	r2, r2, #15
 186 00e0 1A60     		str	r2, [r3]
 187              		.loc 1 357 0
 188 00e2 019B     		ldr	r3, [sp, #4]
 189 00e4 1B68     		ldr	r3, [r3]
 190 00e6 019A     		ldr	r2, [sp, #4]
 191 00e8 1268     		ldr	r2, [r2]
 192 00ea 1168     		ldr	r1, [r2]
 193 00ec 019A     		ldr	r2, [sp, #4]
 194 00ee D069     		ldr	r0, [r2, #28]
 195              		.loc 1 358 0
 196 00f0 019A     		ldr	r2, [sp, #4]
 197 00f2 126A     		ldr	r2, [r2, #32]
 198              		.loc 1 357 0
 199 00f4 0243     		orrs	r2, r2, r0
 200 00f6 0A43     		orrs	r2, r2, r1
 201 00f8 1A60     		str	r2, [r3]
 202              		.loc 1 361 0
 203 00fa 019B     		ldr	r3, [sp, #4]
 204 00fc 1B68     		ldr	r3, [r3]
 205 00fe 019A     		ldr	r2, [sp, #4]
 206 0100 1268     		ldr	r2, [r2]
 207 0102 9268     		ldr	r2, [r2, #8]
 208 0104 22F45F02 		bic	r2, r2, #14614528
 209 0108 9A60     		str	r2, [r3, #8]
 210              		.loc 1 362 0
 211 010a 019B     		ldr	r3, [sp, #4]
 212 010c 1B68     		ldr	r3, [r3]
 213 010e 019A     		ldr	r2, [sp, #4]
 214 0110 1268     		ldr	r2, [r2]
 215 0112 9168     		ldr	r1, [r2, #8]
 216 0114 019A     		ldr	r2, [sp, #4]
 217 0116 506A     		ldr	r0, [r2, #36]
 218              		.loc 1 363 0
 219 0118 019A     		ldr	r2, [sp, #4]
 220 011a 926A     		ldr	r2, [r2, #40]
 221 011c 541E     		subs	r4, r2, #1
 222 011e 4FF4F812 		mov	r2, #2031616
 223 0122 0792     		str	r2, [sp, #28]
 224              	.LBB77:
ARM GAS  /tmp/ccjyqKqb.s 			page 5


 225              	.LBB78:
 226              		.loc 2 586 0
 227 0124 079A     		ldr	r2, [sp, #28]
 228              	@ 586 "../../../../../../ChibiOS/os/ext/CMSIS/include/core_cmInstr.h" 1
 229 0126 92FAA2F2 		rbit r2, r2
 230              	@ 0 "" 2
 231              		.thumb
 232 012a 0692     		str	r2, [sp, #24]
 233              		.loc 2 599 0
 234 012c 069A     		ldr	r2, [sp, #24]
 235              	.LBE78:
 236              	.LBE77:
 237              		.loc 1 363 0
 238 012e B2FA82F2 		clz	r2, r2
 239 0132 04FA02F2 		lsl	r2, r4, r2
 240              		.loc 1 362 0
 241 0136 0243     		orrs	r2, r2, r0
 242 0138 0A43     		orrs	r2, r2, r1
 243 013a 9A60     		str	r2, [r3, #8]
 244              		.loc 1 366 0
 245 013c 019B     		ldr	r3, [sp, #4]
 246 013e 1B68     		ldr	r3, [r3]
 247 0140 019A     		ldr	r2, [sp, #4]
 248 0142 1268     		ldr	r2, [r2]
 249 0144 5268     		ldr	r2, [r2, #4]
 250 0146 02F00702 		and	r2, r2, #7
 251 014a 5A60     		str	r2, [r3, #4]
 252              		.loc 1 367 0
 253 014c 019B     		ldr	r3, [sp, #4]
 254 014e 1B68     		ldr	r3, [r3]
 255 0150 019A     		ldr	r2, [sp, #4]
 256 0152 1268     		ldr	r2, [r2]
 257 0154 5168     		ldr	r1, [r2, #4]
 258 0156 019A     		ldr	r2, [sp, #4]
 259 0158 D26A     		ldr	r2, [r2, #44]
 260 015a 1046     		mov	r0, r2
 261 015c 6FF0FF02 		mvn	r2, #255
 262 0160 0592     		str	r2, [sp, #20]
 263              	.LBB79:
 264              	.LBB80:
 265              		.loc 2 586 0
 266 0162 059A     		ldr	r2, [sp, #20]
 267              	@ 586 "../../../../../../ChibiOS/os/ext/CMSIS/include/core_cmInstr.h" 1
 268 0164 92FAA2F2 		rbit r2, r2
 269              	@ 0 "" 2
 270              		.thumb
 271 0168 0492     		str	r2, [sp, #16]
 272              		.loc 2 599 0
 273 016a 049A     		ldr	r2, [sp, #16]
 274              	.LBE80:
 275              	.LBE79:
 276              		.loc 1 367 0
 277 016c B2FA82F2 		clz	r2, r2
 278 0170 9040     		lsls	r0, r0, r2
 279              		.loc 1 368 0
 280 0172 019A     		ldr	r2, [sp, #4]
 281 0174 146B     		ldr	r4, [r2, #48]
ARM GAS  /tmp/ccjyqKqb.s 			page 6


 282 0176 F822     		movs	r2, #248
 283 0178 0392     		str	r2, [sp, #12]
 284              	.LBB81:
 285              	.LBB82:
 286              		.loc 2 586 0
 287 017a 039A     		ldr	r2, [sp, #12]
 288              	@ 586 "../../../../../../ChibiOS/os/ext/CMSIS/include/core_cmInstr.h" 1
 289 017c 92FAA2F2 		rbit r2, r2
 290              	@ 0 "" 2
 291              		.thumb
 292 0180 0292     		str	r2, [sp, #8]
 293              		.loc 2 599 0
 294 0182 029A     		ldr	r2, [sp, #8]
 295              	.LBE82:
 296              	.LBE81:
 297              		.loc 1 368 0
 298 0184 B2FA82F2 		clz	r2, r2
 299 0188 04FA02F2 		lsl	r2, r4, r2
 300              		.loc 1 367 0
 301 018c 0243     		orrs	r2, r2, r0
 302 018e 0A43     		orrs	r2, r2, r1
 303 0190 5A60     		str	r2, [r3, #4]
 304              		.loc 1 371 0
 305 0192 019B     		ldr	r3, [sp, #4]
 306 0194 1B68     		ldr	r3, [r3]
 307 0196 019A     		ldr	r2, [sp, #4]
 308 0198 1268     		ldr	r2, [r2]
 309 019a 1268     		ldr	r2, [r2]
 310 019c 42F08002 		orr	r2, r2, #128
 311 01a0 1A60     		str	r2, [r3]
 312              		.loc 1 374 0
 313 01a2 019B     		ldr	r3, [sp, #4]
 314 01a4 0122     		movs	r2, #1
 315 01a6 83F83420 		strb	r2, [r3, #52]
 316              		.loc 1 377 0
 317 01aa 019B     		ldr	r3, [sp, #4]
 318 01ac 1B68     		ldr	r3, [r3]
 319 01ae 1846     		mov	r0, r3
 320 01b0 01F036FE 		bl	DFSDM_GetChannelFromInstance
 321 01b4 0246     		mov	r2, r0
 322 01b6 044B     		ldr	r3, .L11
 323 01b8 0199     		ldr	r1, [sp, #4]
 324 01ba 43F82210 		str	r1, [r3, r2, lsl #2]
 325              		.loc 1 379 0
 326 01be 0023     		movs	r3, #0
 327              	.L3:
 328              		.loc 1 380 0
 329 01c0 1846     		mov	r0, r3
 330 01c2 0AB0     		add	sp, sp, #40
 331              		@ sp needed
 332 01c4 10BD     		pop	{r4, pc}
 333              	.L12:
 334 01c6 00BF     		.align	2
 335              	.L11:
 336 01c8 00000000 		.word	a_dfsdm1ChannelHandle
 337 01cc 00000000 		.word	v_dfsdm1ChannelCounter
 338 01d0 00600140 		.word	1073831936
ARM GAS  /tmp/ccjyqKqb.s 			page 7


 339              		.cfi_endproc
 340              	.LFE125:
 341              		.size	HAL_DFSDM_ChannelInit, .-HAL_DFSDM_ChannelInit
 342              		.align	2
 343 01d4 AFF30080 		.p2align 4,,15
 343      AFF30080 
 343      AFF30080 
 344              		.global	HAL_DFSDM_ChannelDeInit
 345              		.thumb
 346              		.thumb_func
 347              		.type	HAL_DFSDM_ChannelDeInit, %function
 348              	HAL_DFSDM_ChannelDeInit:
 349              	.LFB126:
 350              		.loc 1 388 0
 351              		.cfi_startproc
 352              		@ args = 0, pretend = 0, frame = 8
 353              		@ frame_needed = 0, uses_anonymous_args = 0
 354 01e0 00B5     		push	{lr}
 355              		.cfi_def_cfa_offset 4
 356              		.cfi_offset 14, -4
 357 01e2 83B0     		sub	sp, sp, #12
 358              		.cfi_def_cfa_offset 16
 359 01e4 0190     		str	r0, [sp, #4]
 360              		.loc 1 390 0
 361 01e6 019B     		ldr	r3, [sp, #4]
 362 01e8 002B     		cmp	r3, #0
 363 01ea 01D1     		bne	.L14
 364              		.loc 1 392 0
 365 01ec 0123     		movs	r3, #1
 366 01ee 35E0     		b	.L15
 367              	.L14:
 368              		.loc 1 399 0
 369 01f0 019B     		ldr	r3, [sp, #4]
 370 01f2 1B68     		ldr	r3, [r3]
 371 01f4 1846     		mov	r0, r3
 372 01f6 01F013FE 		bl	DFSDM_GetChannelFromInstance
 373 01fa 0246     		mov	r2, r0
 374 01fc 194B     		ldr	r3, .L18
 375 01fe 53F82230 		ldr	r3, [r3, r2, lsl #2]
 376 0202 002B     		cmp	r3, #0
 377 0204 01D1     		bne	.L16
 378              		.loc 1 401 0
 379 0206 0123     		movs	r3, #1
 380 0208 28E0     		b	.L15
 381              	.L16:
 382              		.loc 1 405 0
 383 020a 019B     		ldr	r3, [sp, #4]
 384 020c 1B68     		ldr	r3, [r3]
 385 020e 019A     		ldr	r2, [sp, #4]
 386 0210 1268     		ldr	r2, [r2]
 387 0212 1268     		ldr	r2, [r2]
 388 0214 22F08002 		bic	r2, r2, #128
 389 0218 1A60     		str	r2, [r3]
 390              		.loc 1 408 0
 391 021a 134B     		ldr	r3, .L18+4
 392 021c 1B68     		ldr	r3, [r3]
 393 021e 5A1E     		subs	r2, r3, #1
ARM GAS  /tmp/ccjyqKqb.s 			page 8


 394 0220 114B     		ldr	r3, .L18+4
 395 0222 1A60     		str	r2, [r3]
 396              		.loc 1 411 0
 397 0224 104B     		ldr	r3, .L18+4
 398 0226 1B68     		ldr	r3, [r3]
 399 0228 002B     		cmp	r3, #0
 400 022a 05D1     		bne	.L17
 401              		.loc 1 413 0
 402 022c 0F4B     		ldr	r3, .L18+8
 403 022e 0F4A     		ldr	r2, .L18+8
 404 0230 1268     		ldr	r2, [r2]
 405 0232 22F00042 		bic	r2, r2, #-2147483648
 406 0236 1A60     		str	r2, [r3]
 407              	.L17:
 408              		.loc 1 417 0
 409 0238 0198     		ldr	r0, [sp, #4]
 410 023a FFF7FEFF 		bl	HAL_DFSDM_ChannelMspDeInit
 411              		.loc 1 420 0
 412 023e 019B     		ldr	r3, [sp, #4]
 413 0240 0022     		movs	r2, #0
 414 0242 83F83420 		strb	r2, [r3, #52]
 415              		.loc 1 423 0
 416 0246 019B     		ldr	r3, [sp, #4]
 417 0248 1B68     		ldr	r3, [r3]
 418 024a 1846     		mov	r0, r3
 419 024c 01F0E8FD 		bl	DFSDM_GetChannelFromInstance
 420 0250 0246     		mov	r2, r0
 421 0252 044B     		ldr	r3, .L18
 422 0254 0021     		movs	r1, #0
 423 0256 43F82210 		str	r1, [r3, r2, lsl #2]
 424              		.loc 1 425 0
 425 025a 0023     		movs	r3, #0
 426              	.L15:
 427              		.loc 1 426 0
 428 025c 1846     		mov	r0, r3
 429 025e 03B0     		add	sp, sp, #12
 430              		@ sp needed
 431 0260 5DF804FB 		ldr	pc, [sp], #4
 432              	.L19:
 433              		.align	2
 434              	.L18:
 435 0264 00000000 		.word	a_dfsdm1ChannelHandle
 436 0268 00000000 		.word	v_dfsdm1ChannelCounter
 437 026c 00600140 		.word	1073831936
 438              		.cfi_endproc
 439              	.LFE126:
 440              		.size	HAL_DFSDM_ChannelDeInit, .-HAL_DFSDM_ChannelDeInit
 441              		.align	2
 442              		.p2align 4,,15
 443              		.weak	HAL_DFSDM_ChannelMspInit
 444              		.thumb
 445              		.thumb_func
 446              		.type	HAL_DFSDM_ChannelMspInit, %function
 447              	HAL_DFSDM_ChannelMspInit:
 448              	.LFB127:
 449              		.loc 1 434 0
 450              		.cfi_startproc
ARM GAS  /tmp/ccjyqKqb.s 			page 9


 451              		@ args = 0, pretend = 0, frame = 8
 452              		@ frame_needed = 0, uses_anonymous_args = 0
 453              		@ link register save eliminated.
 454 0270 82B0     		sub	sp, sp, #8
 455              		.cfi_def_cfa_offset 8
 456 0272 0190     		str	r0, [sp, #4]
 457              		.loc 1 441 0
 458 0274 02B0     		add	sp, sp, #8
 459              		@ sp needed
 460 0276 7047     		bx	lr
 461              		.cfi_endproc
 462              	.LFE127:
 463              		.size	HAL_DFSDM_ChannelMspInit, .-HAL_DFSDM_ChannelMspInit
 464              		.align	2
 465 0278 AFF30080 		.p2align 4,,15
 465      AFF30080 
 466              		.weak	HAL_DFSDM_ChannelMspDeInit
 467              		.thumb
 468              		.thumb_func
 469              		.type	HAL_DFSDM_ChannelMspDeInit, %function
 470              	HAL_DFSDM_ChannelMspDeInit:
 471              	.LFB128:
 472              		.loc 1 449 0
 473              		.cfi_startproc
 474              		@ args = 0, pretend = 0, frame = 8
 475              		@ frame_needed = 0, uses_anonymous_args = 0
 476              		@ link register save eliminated.
 477 0280 82B0     		sub	sp, sp, #8
 478              		.cfi_def_cfa_offset 8
 479 0282 0190     		str	r0, [sp, #4]
 480              		.loc 1 456 0
 481 0284 02B0     		add	sp, sp, #8
 482              		@ sp needed
 483 0286 7047     		bx	lr
 484              		.cfi_endproc
 485              	.LFE128:
 486              		.size	HAL_DFSDM_ChannelMspDeInit, .-HAL_DFSDM_ChannelMspDeInit
 487              		.align	2
 488 0288 AFF30080 		.p2align 4,,15
 488      AFF30080 
 489              		.global	HAL_DFSDM_ChannelCkabStart
 490              		.thumb
 491              		.thumb_func
 492              		.type	HAL_DFSDM_ChannelCkabStart, %function
 493              	HAL_DFSDM_ChannelCkabStart:
 494              	.LFB129:
 495              		.loc 1 488 0
 496              		.cfi_startproc
 497              		@ args = 0, pretend = 0, frame = 40
 498              		@ frame_needed = 0, uses_anonymous_args = 0
 499 0290 00B5     		push	{lr}
 500              		.cfi_def_cfa_offset 4
 501              		.cfi_offset 14, -4
 502 0292 8BB0     		sub	sp, sp, #44
 503              		.cfi_def_cfa_offset 48
 504 0294 0190     		str	r0, [sp, #4]
 505              		.loc 1 489 0
ARM GAS  /tmp/ccjyqKqb.s 			page 10


 506 0296 0023     		movs	r3, #0
 507 0298 8DF82730 		strb	r3, [sp, #39]
 508              		.loc 1 497 0
 509 029c 019B     		ldr	r3, [sp, #4]
 510 029e 93F83430 		ldrb	r3, [r3, #52]	@ zero_extendqisi2
 511 02a2 012B     		cmp	r3, #1
 512 02a4 03D0     		beq	.L23
 513              		.loc 1 500 0
 514 02a6 0123     		movs	r3, #1
 515 02a8 8DF82730 		strb	r3, [sp, #39]
 516 02ac 4BE0     		b	.L24
 517              	.L23:
 518              		.loc 1 505 0
 519 02ae 019B     		ldr	r3, [sp, #4]
 520 02b0 1B68     		ldr	r3, [r3]
 521 02b2 1846     		mov	r0, r3
 522 02b4 01F0B4FD 		bl	DFSDM_GetChannelFromInstance
 523 02b8 0890     		str	r0, [sp, #32]
 524              		.loc 1 508 0
 525 02ba FFF7FEFF 		bl	HAL_GetTick
 526 02be 0790     		str	r0, [sp, #28]
 527              		.loc 1 511 0
 528 02c0 1EE0     		b	.L25
 529              	.L29:
 530              		.loc 1 513 0
 531 02c2 244B     		ldr	r3, .L31
 532 02c4 4FF47F02 		mov	r2, #16711680
 533 02c8 0692     		str	r2, [sp, #24]
 534              	.LBB83:
 535              	.LBB84:
 536              		.loc 2 586 0
 537 02ca 069A     		ldr	r2, [sp, #24]
 538              	@ 586 "../../../../../../ChibiOS/os/ext/CMSIS/include/core_cmInstr.h" 1
 539 02cc 92FAA2F2 		rbit r2, r2
 540              	@ 0 "" 2
 541              		.thumb
 542 02d0 0592     		str	r2, [sp, #20]
 543              		.loc 2 599 0
 544 02d2 059A     		ldr	r2, [sp, #20]
 545              	.LBE84:
 546              	.LBE83:
 547              		.loc 1 513 0
 548 02d4 B2FA82F2 		clz	r2, r2
 549 02d8 1146     		mov	r1, r2
 550 02da 089A     		ldr	r2, [sp, #32]
 551 02dc 0A44     		add	r2, r2, r1
 552 02de 0121     		movs	r1, #1
 553 02e0 01FA02F2 		lsl	r2, r1, r2
 554 02e4 DA60     		str	r2, [r3, #12]
 555              		.loc 1 516 0
 556 02e6 FFF7FEFF 		bl	HAL_GetTick
 557 02ea 0246     		mov	r2, r0
 558 02ec 079B     		ldr	r3, [sp, #28]
 559 02ee D21A     		subs	r2, r2, r3
 560 02f0 41F28833 		movw	r3, #5000
 561 02f4 9A42     		cmp	r2, r3
 562 02f6 03D9     		bls	.L25
ARM GAS  /tmp/ccjyqKqb.s 			page 11


 563              		.loc 1 519 0
 564 02f8 0323     		movs	r3, #3
 565 02fa 8DF82730 		strb	r3, [sp, #39]
 566              		.loc 1 520 0
 567 02fe 16E0     		b	.L27
 568              	.L25:
 569              		.loc 1 511 0 discriminator 1
 570 0300 144B     		ldr	r3, .L31
 571 0302 9B68     		ldr	r3, [r3, #8]
 572 0304 03F47F02 		and	r2, r3, #16711680
 573 0308 4FF47F03 		mov	r3, #16711680
 574 030c 0493     		str	r3, [sp, #16]
 575              	.LBB85:
 576              	.LBB86:
 577              		.loc 2 586 0 discriminator 1
 578 030e 049B     		ldr	r3, [sp, #16]
 579              	@ 586 "../../../../../../ChibiOS/os/ext/CMSIS/include/core_cmInstr.h" 1
 580 0310 93FAA3F3 		rbit r3, r3
 581              	@ 0 "" 2
 582              		.thumb
 583 0314 0393     		str	r3, [sp, #12]
 584              		.loc 2 599 0 discriminator 1
 585 0316 039B     		ldr	r3, [sp, #12]
 586              	.LBE86:
 587              	.LBE85:
 588              		.loc 1 511 0 discriminator 1
 589 0318 B3FA83F3 		clz	r3, r3
 590 031c 1946     		mov	r1, r3
 591 031e 089B     		ldr	r3, [sp, #32]
 592 0320 0B44     		add	r3, r3, r1
 593 0322 22FA03F3 		lsr	r3, r2, r3
 594 0326 03F00103 		and	r3, r3, #1
 595 032a 002B     		cmp	r3, #0
 596 032c C9D1     		bne	.L29
 597              	.L27:
 598              		.loc 1 524 0
 599 032e 9DF82730 		ldrb	r3, [sp, #39]	@ zero_extendqisi2
 600 0332 002B     		cmp	r3, #0
 601 0334 07D1     		bne	.L24
 602              		.loc 1 527 0
 603 0336 019B     		ldr	r3, [sp, #4]
 604 0338 1B68     		ldr	r3, [r3]
 605 033a 019A     		ldr	r2, [sp, #4]
 606 033c 1268     		ldr	r2, [r2]
 607 033e 1268     		ldr	r2, [r2]
 608 0340 42F04002 		orr	r2, r2, #64
 609 0344 1A60     		str	r2, [r3]
 610              	.L24:
 611              		.loc 1 531 0
 612 0346 9DF82730 		ldrb	r3, [sp, #39]	@ zero_extendqisi2
 613              		.loc 1 532 0
 614 034a 1846     		mov	r0, r3
 615 034c 0BB0     		add	sp, sp, #44
 616              		@ sp needed
 617 034e 5DF804FB 		ldr	pc, [sp], #4
 618              	.L32:
 619 0352 00BF     		.align	2
ARM GAS  /tmp/ccjyqKqb.s 			page 12


 620              	.L31:
 621 0354 00610140 		.word	1073832192
 622              		.cfi_endproc
 623              	.LFE129:
 624              		.size	HAL_DFSDM_ChannelCkabStart, .-HAL_DFSDM_ChannelCkabStart
 625              		.align	2
 626 0358 AFF30080 		.p2align 4,,15
 626      AFF30080 
 627              		.global	HAL_DFSDM_ChannelPollForCkab
 628              		.thumb
 629              		.thumb_func
 630              		.type	HAL_DFSDM_ChannelPollForCkab, %function
 631              	HAL_DFSDM_ChannelPollForCkab:
 632              	.LFB130:
 633              		.loc 1 542 0
 634              		.cfi_startproc
 635              		@ args = 0, pretend = 0, frame = 32
 636              		@ frame_needed = 0, uses_anonymous_args = 0
 637 0360 00B5     		push	{lr}
 638              		.cfi_def_cfa_offset 4
 639              		.cfi_offset 14, -4
 640 0362 89B0     		sub	sp, sp, #36
 641              		.cfi_def_cfa_offset 40
 642 0364 0190     		str	r0, [sp, #4]
 643 0366 0091     		str	r1, [sp]
 644              		.loc 1 550 0
 645 0368 019B     		ldr	r3, [sp, #4]
 646 036a 93F83430 		ldrb	r3, [r3, #52]	@ zero_extendqisi2
 647 036e 012B     		cmp	r3, #1
 648 0370 01D0     		beq	.L34
 649              		.loc 1 553 0
 650 0372 0123     		movs	r3, #1
 651 0374 44E0     		b	.L35
 652              	.L34:
 653              		.loc 1 558 0
 654 0376 019B     		ldr	r3, [sp, #4]
 655 0378 1B68     		ldr	r3, [r3]
 656 037a 1846     		mov	r0, r3
 657 037c 01F050FD 		bl	DFSDM_GetChannelFromInstance
 658 0380 0790     		str	r0, [sp, #28]
 659              		.loc 1 561 0
 660 0382 FFF7FEFF 		bl	HAL_GetTick
 661 0386 0690     		str	r0, [sp, #24]
 662              		.loc 1 564 0
 663 0388 10E0     		b	.L36
 664              	.L39:
 665              		.loc 1 567 0
 666 038a 009B     		ldr	r3, [sp]
 667 038c B3F1FF3F 		cmp	r3, #-1
 668 0390 0CD0     		beq	.L36
 669              		.loc 1 569 0
 670 0392 009B     		ldr	r3, [sp]
 671 0394 002B     		cmp	r3, #0
 672 0396 07D0     		beq	.L37
 673              		.loc 1 569 0 is_stmt 0 discriminator 1
 674 0398 FFF7FEFF 		bl	HAL_GetTick
 675 039c 0246     		mov	r2, r0
ARM GAS  /tmp/ccjyqKqb.s 			page 13


 676 039e 069B     		ldr	r3, [sp, #24]
 677 03a0 D21A     		subs	r2, r2, r3
 678 03a2 009B     		ldr	r3, [sp]
 679 03a4 9A42     		cmp	r2, r3
 680 03a6 01D9     		bls	.L36
 681              	.L37:
 682              		.loc 1 572 0 is_stmt 1
 683 03a8 0323     		movs	r3, #3
 684 03aa 29E0     		b	.L35
 685              	.L36:
 686              		.loc 1 564 0 discriminator 1
 687 03ac 164B     		ldr	r3, .L41
 688 03ae 9B68     		ldr	r3, [r3, #8]
 689 03b0 03F47F02 		and	r2, r3, #16711680
 690 03b4 4FF47F03 		mov	r3, #16711680
 691 03b8 0593     		str	r3, [sp, #20]
 692              	.LBB87:
 693              	.LBB88:
 694              		.loc 2 586 0 discriminator 1
 695 03ba 059B     		ldr	r3, [sp, #20]
 696              	@ 586 "../../../../../../ChibiOS/os/ext/CMSIS/include/core_cmInstr.h" 1
 697 03bc 93FAA3F3 		rbit r3, r3
 698              	@ 0 "" 2
 699              		.thumb
 700 03c0 0493     		str	r3, [sp, #16]
 701              		.loc 2 599 0 discriminator 1
 702 03c2 049B     		ldr	r3, [sp, #16]
 703              	.LBE88:
 704              	.LBE87:
 705              		.loc 1 564 0 discriminator 1
 706 03c4 B3FA83F3 		clz	r3, r3
 707 03c8 1946     		mov	r1, r3
 708 03ca 079B     		ldr	r3, [sp, #28]
 709 03cc 0B44     		add	r3, r3, r1
 710 03ce 22FA03F3 		lsr	r3, r2, r3
 711 03d2 03F00103 		and	r3, r3, #1
 712 03d6 002B     		cmp	r3, #0
 713 03d8 D7D0     		beq	.L39
 714              		.loc 1 578 0
 715 03da 0B4B     		ldr	r3, .L41
 716 03dc 4FF47F02 		mov	r2, #16711680
 717 03e0 0392     		str	r2, [sp, #12]
 718              	.LBB89:
 719              	.LBB90:
 720              		.loc 2 586 0
 721 03e2 039A     		ldr	r2, [sp, #12]
 722              	@ 586 "../../../../../../ChibiOS/os/ext/CMSIS/include/core_cmInstr.h" 1
 723 03e4 92FAA2F2 		rbit r2, r2
 724              	@ 0 "" 2
 725              		.thumb
 726 03e8 0292     		str	r2, [sp, #8]
 727              		.loc 2 599 0
 728 03ea 029A     		ldr	r2, [sp, #8]
 729              	.LBE90:
 730              	.LBE89:
 731              		.loc 1 578 0
 732 03ec B2FA82F2 		clz	r2, r2
ARM GAS  /tmp/ccjyqKqb.s 			page 14


 733 03f0 1146     		mov	r1, r2
 734 03f2 079A     		ldr	r2, [sp, #28]
 735 03f4 0A44     		add	r2, r2, r1
 736 03f6 0121     		movs	r1, #1
 737 03f8 01FA02F2 		lsl	r2, r1, r2
 738 03fc DA60     		str	r2, [r3, #12]
 739              		.loc 1 581 0
 740 03fe 0023     		movs	r3, #0
 741              	.L35:
 742              		.loc 1 583 0
 743 0400 1846     		mov	r0, r3
 744 0402 09B0     		add	sp, sp, #36
 745              		@ sp needed
 746 0404 5DF804FB 		ldr	pc, [sp], #4
 747              	.L42:
 748              		.align	2
 749              	.L41:
 750 0408 00610140 		.word	1073832192
 751              		.cfi_endproc
 752              	.LFE130:
 753              		.size	HAL_DFSDM_ChannelPollForCkab, .-HAL_DFSDM_ChannelPollForCkab
 754              		.align	2
 755 040c AFF30080 		.p2align 4,,15
 756              		.global	HAL_DFSDM_ChannelCkabStop
 757              		.thumb
 758              		.thumb_func
 759              		.type	HAL_DFSDM_ChannelCkabStop, %function
 760              	HAL_DFSDM_ChannelCkabStop:
 761              	.LFB131:
 762              		.loc 1 591 0
 763              		.cfi_startproc
 764              		@ args = 0, pretend = 0, frame = 24
 765              		@ frame_needed = 0, uses_anonymous_args = 0
 766 0410 00B5     		push	{lr}
 767              		.cfi_def_cfa_offset 4
 768              		.cfi_offset 14, -4
 769 0412 87B0     		sub	sp, sp, #28
 770              		.cfi_def_cfa_offset 32
 771 0414 0190     		str	r0, [sp, #4]
 772              		.loc 1 592 0
 773 0416 0023     		movs	r3, #0
 774 0418 8DF81730 		strb	r3, [sp, #23]
 775              		.loc 1 599 0
 776 041c 019B     		ldr	r3, [sp, #4]
 777 041e 93F83430 		ldrb	r3, [r3, #52]	@ zero_extendqisi2
 778 0422 012B     		cmp	r3, #1
 779 0424 03D0     		beq	.L44
 780              		.loc 1 602 0
 781 0426 0123     		movs	r3, #1
 782 0428 8DF81730 		strb	r3, [sp, #23]
 783 042c 1FE0     		b	.L45
 784              	.L44:
 785              		.loc 1 607 0
 786 042e 019B     		ldr	r3, [sp, #4]
 787 0430 1B68     		ldr	r3, [r3]
 788 0432 019A     		ldr	r2, [sp, #4]
 789 0434 1268     		ldr	r2, [r2]
ARM GAS  /tmp/ccjyqKqb.s 			page 15


 790 0436 1268     		ldr	r2, [r2]
 791 0438 22F04002 		bic	r2, r2, #64
 792 043c 1A60     		str	r2, [r3]
 793              		.loc 1 610 0
 794 043e 019B     		ldr	r3, [sp, #4]
 795 0440 1B68     		ldr	r3, [r3]
 796 0442 1846     		mov	r0, r3
 797 0444 01F0ECFC 		bl	DFSDM_GetChannelFromInstance
 798 0448 0490     		str	r0, [sp, #16]
 799              		.loc 1 611 0
 800 044a 0C4B     		ldr	r3, .L48
 801 044c 4FF47F02 		mov	r2, #16711680
 802 0450 0392     		str	r2, [sp, #12]
 803              	.LBB91:
 804              	.LBB92:
 805              		.loc 2 586 0
 806 0452 039A     		ldr	r2, [sp, #12]
 807              	@ 586 "../../../../../../ChibiOS/os/ext/CMSIS/include/core_cmInstr.h" 1
 808 0454 92FAA2F2 		rbit r2, r2
 809              	@ 0 "" 2
 810              		.thumb
 811 0458 0292     		str	r2, [sp, #8]
 812              		.loc 2 599 0
 813 045a 029A     		ldr	r2, [sp, #8]
 814              	.LBE92:
 815              	.LBE91:
 816              		.loc 1 611 0
 817 045c B2FA82F2 		clz	r2, r2
 818 0460 1146     		mov	r1, r2
 819 0462 049A     		ldr	r2, [sp, #16]
 820 0464 0A44     		add	r2, r2, r1
 821 0466 0121     		movs	r1, #1
 822 0468 01FA02F2 		lsl	r2, r1, r2
 823 046c DA60     		str	r2, [r3, #12]
 824              	.L45:
 825              		.loc 1 614 0
 826 046e 9DF81730 		ldrb	r3, [sp, #23]	@ zero_extendqisi2
 827              		.loc 1 615 0
 828 0472 1846     		mov	r0, r3
 829 0474 07B0     		add	sp, sp, #28
 830              		@ sp needed
 831 0476 5DF804FB 		ldr	pc, [sp], #4
 832              	.L49:
 833 047a 00BF     		.align	2
 834              	.L48:
 835 047c 00610140 		.word	1073832192
 836              		.cfi_endproc
 837              	.LFE131:
 838              		.size	HAL_DFSDM_ChannelCkabStop, .-HAL_DFSDM_ChannelCkabStop
 839              		.align	2
 840              		.p2align 4,,15
 841              		.global	HAL_DFSDM_ChannelCkabStart_IT
 842              		.thumb
 843              		.thumb_func
 844              		.type	HAL_DFSDM_ChannelCkabStart_IT, %function
 845              	HAL_DFSDM_ChannelCkabStart_IT:
 846              	.LFB132:
ARM GAS  /tmp/ccjyqKqb.s 			page 16


 847              		.loc 1 627 0
 848              		.cfi_startproc
 849              		@ args = 0, pretend = 0, frame = 40
 850              		@ frame_needed = 0, uses_anonymous_args = 0
 851 0480 00B5     		push	{lr}
 852              		.cfi_def_cfa_offset 4
 853              		.cfi_offset 14, -4
 854 0482 8BB0     		sub	sp, sp, #44
 855              		.cfi_def_cfa_offset 48
 856 0484 0190     		str	r0, [sp, #4]
 857              		.loc 1 628 0
 858 0486 0023     		movs	r3, #0
 859 0488 8DF82730 		strb	r3, [sp, #39]
 860              		.loc 1 636 0
 861 048c 019B     		ldr	r3, [sp, #4]
 862 048e 93F83430 		ldrb	r3, [r3, #52]	@ zero_extendqisi2
 863 0492 012B     		cmp	r3, #1
 864 0494 03D0     		beq	.L51
 865              		.loc 1 639 0
 866 0496 0123     		movs	r3, #1
 867 0498 8DF82730 		strb	r3, [sp, #39]
 868 049c 51E0     		b	.L52
 869              	.L51:
 870              		.loc 1 644 0
 871 049e 019B     		ldr	r3, [sp, #4]
 872 04a0 1B68     		ldr	r3, [r3]
 873 04a2 1846     		mov	r0, r3
 874 04a4 01F0BCFC 		bl	DFSDM_GetChannelFromInstance
 875 04a8 0890     		str	r0, [sp, #32]
 876              		.loc 1 647 0
 877 04aa FFF7FEFF 		bl	HAL_GetTick
 878 04ae 0790     		str	r0, [sp, #28]
 879              		.loc 1 650 0
 880 04b0 1EE0     		b	.L53
 881              	.L57:
 882              		.loc 1 652 0
 883 04b2 274B     		ldr	r3, .L59
 884 04b4 4FF47F02 		mov	r2, #16711680
 885 04b8 0692     		str	r2, [sp, #24]
 886              	.LBB93:
 887              	.LBB94:
 888              		.loc 2 586 0
 889 04ba 069A     		ldr	r2, [sp, #24]
 890              	@ 586 "../../../../../../ChibiOS/os/ext/CMSIS/include/core_cmInstr.h" 1
 891 04bc 92FAA2F2 		rbit r2, r2
 892              	@ 0 "" 2
 893              		.thumb
 894 04c0 0592     		str	r2, [sp, #20]
 895              		.loc 2 599 0
 896 04c2 059A     		ldr	r2, [sp, #20]
 897              	.LBE94:
 898              	.LBE93:
 899              		.loc 1 652 0
 900 04c4 B2FA82F2 		clz	r2, r2
 901 04c8 1146     		mov	r1, r2
 902 04ca 089A     		ldr	r2, [sp, #32]
 903 04cc 0A44     		add	r2, r2, r1
ARM GAS  /tmp/ccjyqKqb.s 			page 17


 904 04ce 0121     		movs	r1, #1
 905 04d0 01FA02F2 		lsl	r2, r1, r2
 906 04d4 DA60     		str	r2, [r3, #12]
 907              		.loc 1 655 0
 908 04d6 FFF7FEFF 		bl	HAL_GetTick
 909 04da 0246     		mov	r2, r0
 910 04dc 079B     		ldr	r3, [sp, #28]
 911 04de D21A     		subs	r2, r2, r3
 912 04e0 41F28833 		movw	r3, #5000
 913 04e4 9A42     		cmp	r2, r3
 914 04e6 03D9     		bls	.L53
 915              		.loc 1 658 0
 916 04e8 0323     		movs	r3, #3
 917 04ea 8DF82730 		strb	r3, [sp, #39]
 918              		.loc 1 659 0
 919 04ee 16E0     		b	.L55
 920              	.L53:
 921              		.loc 1 650 0 discriminator 1
 922 04f0 174B     		ldr	r3, .L59
 923 04f2 9B68     		ldr	r3, [r3, #8]
 924 04f4 03F47F02 		and	r2, r3, #16711680
 925 04f8 4FF47F03 		mov	r3, #16711680
 926 04fc 0493     		str	r3, [sp, #16]
 927              	.LBB95:
 928              	.LBB96:
 929              		.loc 2 586 0 discriminator 1
 930 04fe 049B     		ldr	r3, [sp, #16]
 931              	@ 586 "../../../../../../ChibiOS/os/ext/CMSIS/include/core_cmInstr.h" 1
 932 0500 93FAA3F3 		rbit r3, r3
 933              	@ 0 "" 2
 934              		.thumb
 935 0504 0393     		str	r3, [sp, #12]
 936              		.loc 2 599 0 discriminator 1
 937 0506 039B     		ldr	r3, [sp, #12]
 938              	.LBE96:
 939              	.LBE95:
 940              		.loc 1 650 0 discriminator 1
 941 0508 B3FA83F3 		clz	r3, r3
 942 050c 1946     		mov	r1, r3
 943 050e 089B     		ldr	r3, [sp, #32]
 944 0510 0B44     		add	r3, r3, r1
 945 0512 22FA03F3 		lsr	r3, r2, r3
 946 0516 03F00103 		and	r3, r3, #1
 947 051a 002B     		cmp	r3, #0
 948 051c C9D1     		bne	.L57
 949              	.L55:
 950              		.loc 1 663 0
 951 051e 9DF82730 		ldrb	r3, [sp, #39]	@ zero_extendqisi2
 952 0522 002B     		cmp	r3, #0
 953 0524 0DD1     		bne	.L52
 954              		.loc 1 666 0
 955 0526 0A4B     		ldr	r3, .L59
 956 0528 094A     		ldr	r2, .L59
 957 052a 5268     		ldr	r2, [r2, #4]
 958 052c 42F04002 		orr	r2, r2, #64
 959 0530 5A60     		str	r2, [r3, #4]
 960              		.loc 1 669 0
ARM GAS  /tmp/ccjyqKqb.s 			page 18


 961 0532 019B     		ldr	r3, [sp, #4]
 962 0534 1B68     		ldr	r3, [r3]
 963 0536 019A     		ldr	r2, [sp, #4]
 964 0538 1268     		ldr	r2, [r2]
 965 053a 1268     		ldr	r2, [r2]
 966 053c 42F04002 		orr	r2, r2, #64
 967 0540 1A60     		str	r2, [r3]
 968              	.L52:
 969              		.loc 1 673 0
 970 0542 9DF82730 		ldrb	r3, [sp, #39]	@ zero_extendqisi2
 971              		.loc 1 674 0
 972 0546 1846     		mov	r0, r3
 973 0548 0BB0     		add	sp, sp, #44
 974              		@ sp needed
 975 054a 5DF804FB 		ldr	pc, [sp], #4
 976              	.L60:
 977 054e 00BF     		.align	2
 978              	.L59:
 979 0550 00610140 		.word	1073832192
 980              		.cfi_endproc
 981              	.LFE132:
 982              		.size	HAL_DFSDM_ChannelCkabStart_IT, .-HAL_DFSDM_ChannelCkabStart_IT
 983              		.align	2
 984 0554 AFF30080 		.p2align 4,,15
 984      AFF30080 
 984      AFF30080 
 985              		.weak	HAL_DFSDM_ChannelCkabCallback
 986              		.thumb
 987              		.thumb_func
 988              		.type	HAL_DFSDM_ChannelCkabCallback, %function
 989              	HAL_DFSDM_ChannelCkabCallback:
 990              	.LFB133:
 991              		.loc 1 682 0
 992              		.cfi_startproc
 993              		@ args = 0, pretend = 0, frame = 8
 994              		@ frame_needed = 0, uses_anonymous_args = 0
 995              		@ link register save eliminated.
 996 0560 82B0     		sub	sp, sp, #8
 997              		.cfi_def_cfa_offset 8
 998 0562 0190     		str	r0, [sp, #4]
 999              		.loc 1 689 0
 1000 0564 02B0     		add	sp, sp, #8
 1001              		@ sp needed
 1002 0566 7047     		bx	lr
 1003              		.cfi_endproc
 1004              	.LFE133:
 1005              		.size	HAL_DFSDM_ChannelCkabCallback, .-HAL_DFSDM_ChannelCkabCallback
 1006              		.align	2
 1007 0568 AFF30080 		.p2align 4,,15
 1007      AFF30080 
 1008              		.global	HAL_DFSDM_ChannelCkabStop_IT
 1009              		.thumb
 1010              		.thumb_func
 1011              		.type	HAL_DFSDM_ChannelCkabStop_IT, %function
 1012              	HAL_DFSDM_ChannelCkabStop_IT:
 1013              	.LFB134:
 1014              		.loc 1 698 0
ARM GAS  /tmp/ccjyqKqb.s 			page 19


 1015              		.cfi_startproc
 1016              		@ args = 0, pretend = 0, frame = 24
 1017              		@ frame_needed = 0, uses_anonymous_args = 0
 1018 0570 00B5     		push	{lr}
 1019              		.cfi_def_cfa_offset 4
 1020              		.cfi_offset 14, -4
 1021 0572 87B0     		sub	sp, sp, #28
 1022              		.cfi_def_cfa_offset 32
 1023 0574 0190     		str	r0, [sp, #4]
 1024              		.loc 1 699 0
 1025 0576 0023     		movs	r3, #0
 1026 0578 8DF81730 		strb	r3, [sp, #23]
 1027              		.loc 1 706 0
 1028 057c 019B     		ldr	r3, [sp, #4]
 1029 057e 93F83430 		ldrb	r3, [r3, #52]	@ zero_extendqisi2
 1030 0582 012B     		cmp	r3, #1
 1031 0584 03D0     		beq	.L63
 1032              		.loc 1 709 0
 1033 0586 0123     		movs	r3, #1
 1034 0588 8DF81730 		strb	r3, [sp, #23]
 1035 058c 25E0     		b	.L64
 1036              	.L63:
 1037              		.loc 1 714 0
 1038 058e 019B     		ldr	r3, [sp, #4]
 1039 0590 1B68     		ldr	r3, [r3]
 1040 0592 019A     		ldr	r2, [sp, #4]
 1041 0594 1268     		ldr	r2, [r2]
 1042 0596 1268     		ldr	r2, [r2]
 1043 0598 22F04002 		bic	r2, r2, #64
 1044 059c 1A60     		str	r2, [r3]
 1045              		.loc 1 717 0
 1046 059e 019B     		ldr	r3, [sp, #4]
 1047 05a0 1B68     		ldr	r3, [r3]
 1048 05a2 1846     		mov	r0, r3
 1049 05a4 01F03CFC 		bl	DFSDM_GetChannelFromInstance
 1050 05a8 0490     		str	r0, [sp, #16]
 1051              		.loc 1 718 0
 1052 05aa 0F4B     		ldr	r3, .L67
 1053 05ac 4FF47F02 		mov	r2, #16711680
 1054 05b0 0392     		str	r2, [sp, #12]
 1055              	.LBB97:
 1056              	.LBB98:
 1057              		.loc 2 586 0
 1058 05b2 039A     		ldr	r2, [sp, #12]
 1059              	@ 586 "../../../../../../ChibiOS/os/ext/CMSIS/include/core_cmInstr.h" 1
 1060 05b4 92FAA2F2 		rbit r2, r2
 1061              	@ 0 "" 2
 1062              		.thumb
 1063 05b8 0292     		str	r2, [sp, #8]
 1064              		.loc 2 599 0
 1065 05ba 029A     		ldr	r2, [sp, #8]
 1066              	.LBE98:
 1067              	.LBE97:
 1068              		.loc 1 718 0
 1069 05bc B2FA82F2 		clz	r2, r2
 1070 05c0 1146     		mov	r1, r2
 1071 05c2 049A     		ldr	r2, [sp, #16]
ARM GAS  /tmp/ccjyqKqb.s 			page 20


 1072 05c4 0A44     		add	r2, r2, r1
 1073 05c6 0121     		movs	r1, #1
 1074 05c8 01FA02F2 		lsl	r2, r1, r2
 1075 05cc DA60     		str	r2, [r3, #12]
 1076              		.loc 1 721 0
 1077 05ce 064B     		ldr	r3, .L67
 1078 05d0 054A     		ldr	r2, .L67
 1079 05d2 5268     		ldr	r2, [r2, #4]
 1080 05d4 22F04002 		bic	r2, r2, #64
 1081 05d8 5A60     		str	r2, [r3, #4]
 1082              	.L64:
 1083              		.loc 1 724 0
 1084 05da 9DF81730 		ldrb	r3, [sp, #23]	@ zero_extendqisi2
 1085              		.loc 1 725 0
 1086 05de 1846     		mov	r0, r3
 1087 05e0 07B0     		add	sp, sp, #28
 1088              		@ sp needed
 1089 05e2 5DF804FB 		ldr	pc, [sp], #4
 1090              	.L68:
 1091 05e6 00BF     		.align	2
 1092              	.L67:
 1093 05e8 00610140 		.word	1073832192
 1094              		.cfi_endproc
 1095              	.LFE134:
 1096              		.size	HAL_DFSDM_ChannelCkabStop_IT, .-HAL_DFSDM_ChannelCkabStop_IT
 1097              		.align	2
 1098 05ec AFF30080 		.p2align 4,,15
 1099              		.global	HAL_DFSDM_ChannelScdStart
 1100              		.thumb
 1101              		.thumb_func
 1102              		.type	HAL_DFSDM_ChannelScdStart, %function
 1103              	HAL_DFSDM_ChannelScdStart:
 1104              	.LFB135:
 1105              		.loc 1 740 0
 1106              		.cfi_startproc
 1107              		@ args = 0, pretend = 0, frame = 32
 1108              		@ frame_needed = 0, uses_anonymous_args = 0
 1109              		@ link register save eliminated.
 1110 05f0 88B0     		sub	sp, sp, #32
 1111              		.cfi_def_cfa_offset 32
 1112 05f2 0390     		str	r0, [sp, #12]
 1113 05f4 0291     		str	r1, [sp, #8]
 1114 05f6 0192     		str	r2, [sp, #4]
 1115              		.loc 1 741 0
 1116 05f8 0023     		movs	r3, #0
 1117 05fa 8DF81F30 		strb	r3, [sp, #31]
 1118              		.loc 1 749 0
 1119 05fe 039B     		ldr	r3, [sp, #12]
 1120 0600 93F83430 		ldrb	r3, [r3, #52]	@ zero_extendqisi2
 1121 0604 012B     		cmp	r3, #1
 1122 0606 03D0     		beq	.L70
 1123              		.loc 1 752 0
 1124 0608 0123     		movs	r3, #1
 1125 060a 8DF81F30 		strb	r3, [sp, #31]
 1126 060e 26E0     		b	.L71
 1127              	.L70:
 1128              		.loc 1 757 0
ARM GAS  /tmp/ccjyqKqb.s 			page 21


 1129 0610 039B     		ldr	r3, [sp, #12]
 1130 0612 1A68     		ldr	r2, [r3]
 1131 0614 039B     		ldr	r3, [sp, #12]
 1132 0616 1B68     		ldr	r3, [r3]
 1133 0618 9B68     		ldr	r3, [r3, #8]
 1134 061a 23F47043 		bic	r3, r3, #61440
 1135 061e 23F0FF03 		bic	r3, r3, #255
 1136 0622 9360     		str	r3, [r2, #8]
 1137              		.loc 1 758 0
 1138 0624 039B     		ldr	r3, [sp, #12]
 1139 0626 1B68     		ldr	r3, [r3]
 1140 0628 039A     		ldr	r2, [sp, #12]
 1141 062a 1268     		ldr	r2, [r2]
 1142 062c 9168     		ldr	r1, [r2, #8]
 1143 062e 4FF47042 		mov	r2, #61440
 1144 0632 0692     		str	r2, [sp, #24]
 1145              	.LBB99:
 1146              	.LBB100:
 1147              		.loc 2 586 0
 1148 0634 069A     		ldr	r2, [sp, #24]
 1149              	@ 586 "../../../../../../ChibiOS/os/ext/CMSIS/include/core_cmInstr.h" 1
 1150 0636 92FAA2F2 		rbit r2, r2
 1151              	@ 0 "" 2
 1152              		.thumb
 1153 063a 0592     		str	r2, [sp, #20]
 1154              		.loc 2 599 0
 1155 063c 059A     		ldr	r2, [sp, #20]
 1156              	.LBE100:
 1157              	.LBE99:
 1158              		.loc 1 758 0
 1159 063e B2FA82F2 		clz	r2, r2
 1160 0642 0198     		ldr	r0, [sp, #4]
 1161 0644 9040     		lsls	r0, r0, r2
 1162 0646 029A     		ldr	r2, [sp, #8]
 1163 0648 0243     		orrs	r2, r2, r0
 1164 064a 0A43     		orrs	r2, r2, r1
 1165 064c 9A60     		str	r2, [r3, #8]
 1166              		.loc 1 762 0
 1167 064e 039B     		ldr	r3, [sp, #12]
 1168 0650 1B68     		ldr	r3, [r3]
 1169 0652 039A     		ldr	r2, [sp, #12]
 1170 0654 1268     		ldr	r2, [r2]
 1171 0656 1268     		ldr	r2, [r2]
 1172 0658 42F02002 		orr	r2, r2, #32
 1173 065c 1A60     		str	r2, [r3]
 1174              	.L71:
 1175              		.loc 1 765 0
 1176 065e 9DF81F30 		ldrb	r3, [sp, #31]	@ zero_extendqisi2
 1177              		.loc 1 766 0
 1178 0662 1846     		mov	r0, r3
 1179 0664 08B0     		add	sp, sp, #32
 1180              		@ sp needed
 1181 0666 7047     		bx	lr
 1182              		.cfi_endproc
 1183              	.LFE135:
 1184              		.size	HAL_DFSDM_ChannelScdStart, .-HAL_DFSDM_ChannelScdStart
 1185              		.align	2
ARM GAS  /tmp/ccjyqKqb.s 			page 22


 1186 0668 AFF30080 		.p2align 4,,15
 1186      AFF30080 
 1187              		.global	HAL_DFSDM_ChannelPollForScd
 1188              		.thumb
 1189              		.thumb_func
 1190              		.type	HAL_DFSDM_ChannelPollForScd, %function
 1191              	HAL_DFSDM_ChannelPollForScd:
 1192              	.LFB136:
 1193              		.loc 1 776 0
 1194              		.cfi_startproc
 1195              		@ args = 0, pretend = 0, frame = 32
 1196              		@ frame_needed = 0, uses_anonymous_args = 0
 1197 0670 00B5     		push	{lr}
 1198              		.cfi_def_cfa_offset 4
 1199              		.cfi_offset 14, -4
 1200 0672 89B0     		sub	sp, sp, #36
 1201              		.cfi_def_cfa_offset 40
 1202 0674 0190     		str	r0, [sp, #4]
 1203 0676 0091     		str	r1, [sp]
 1204              		.loc 1 784 0
 1205 0678 019B     		ldr	r3, [sp, #4]
 1206 067a 93F83430 		ldrb	r3, [r3, #52]	@ zero_extendqisi2
 1207 067e 012B     		cmp	r3, #1
 1208 0680 01D0     		beq	.L75
 1209              		.loc 1 787 0
 1210 0682 0123     		movs	r3, #1
 1211 0684 42E0     		b	.L76
 1212              	.L75:
 1213              		.loc 1 792 0
 1214 0686 019B     		ldr	r3, [sp, #4]
 1215 0688 1B68     		ldr	r3, [r3]
 1216 068a 1846     		mov	r0, r3
 1217 068c 01F0C8FB 		bl	DFSDM_GetChannelFromInstance
 1218 0690 0790     		str	r0, [sp, #28]
 1219              		.loc 1 795 0
 1220 0692 FFF7FEFF 		bl	HAL_GetTick
 1221 0696 0690     		str	r0, [sp, #24]
 1222              		.loc 1 798 0
 1223 0698 10E0     		b	.L77
 1224              	.L80:
 1225              		.loc 1 801 0
 1226 069a 009B     		ldr	r3, [sp]
 1227 069c B3F1FF3F 		cmp	r3, #-1
 1228 06a0 0CD0     		beq	.L77
 1229              		.loc 1 803 0
 1230 06a2 009B     		ldr	r3, [sp]
 1231 06a4 002B     		cmp	r3, #0
 1232 06a6 07D0     		beq	.L78
 1233              		.loc 1 803 0 is_stmt 0 discriminator 1
 1234 06a8 FFF7FEFF 		bl	HAL_GetTick
 1235 06ac 0246     		mov	r2, r0
 1236 06ae 069B     		ldr	r3, [sp, #24]
 1237 06b0 D21A     		subs	r2, r2, r3
 1238 06b2 009B     		ldr	r3, [sp]
 1239 06b4 9A42     		cmp	r2, r3
 1240 06b6 01D9     		bls	.L77
 1241              	.L78:
ARM GAS  /tmp/ccjyqKqb.s 			page 23


 1242              		.loc 1 806 0 is_stmt 1
 1243 06b8 0323     		movs	r3, #3
 1244 06ba 27E0     		b	.L76
 1245              	.L77:
 1246              		.loc 1 798 0 discriminator 1
 1247 06bc 154B     		ldr	r3, .L82
 1248 06be 9B68     		ldr	r3, [r3, #8]
 1249 06c0 03F07F42 		and	r2, r3, #-16777216
 1250 06c4 4FF07F43 		mov	r3, #-16777216
 1251 06c8 0593     		str	r3, [sp, #20]
 1252              	.LBB101:
 1253              	.LBB102:
 1254              		.loc 2 586 0 discriminator 1
 1255 06ca 059B     		ldr	r3, [sp, #20]
 1256              	@ 586 "../../../../../../ChibiOS/os/ext/CMSIS/include/core_cmInstr.h" 1
 1257 06cc 93FAA3F3 		rbit r3, r3
 1258              	@ 0 "" 2
 1259              		.thumb
 1260 06d0 0493     		str	r3, [sp, #16]
 1261              		.loc 2 599 0 discriminator 1
 1262 06d2 049B     		ldr	r3, [sp, #16]
 1263              	.LBE102:
 1264              	.LBE101:
 1265              		.loc 1 798 0 discriminator 1
 1266 06d4 B3FA83F3 		clz	r3, r3
 1267 06d8 1946     		mov	r1, r3
 1268 06da 079B     		ldr	r3, [sp, #28]
 1269 06dc 0B44     		add	r3, r3, r1
 1270 06de 22FA03F3 		lsr	r3, r2, r3
 1271 06e2 002B     		cmp	r3, #0
 1272 06e4 D9D0     		beq	.L80
 1273              		.loc 1 812 0
 1274 06e6 0B4B     		ldr	r3, .L82
 1275 06e8 4FF07F42 		mov	r2, #-16777216
 1276 06ec 0392     		str	r2, [sp, #12]
 1277              	.LBB103:
 1278              	.LBB104:
 1279              		.loc 2 586 0
 1280 06ee 039A     		ldr	r2, [sp, #12]
 1281              	@ 586 "../../../../../../ChibiOS/os/ext/CMSIS/include/core_cmInstr.h" 1
 1282 06f0 92FAA2F2 		rbit r2, r2
 1283              	@ 0 "" 2
 1284              		.thumb
 1285 06f4 0292     		str	r2, [sp, #8]
 1286              		.loc 2 599 0
 1287 06f6 029A     		ldr	r2, [sp, #8]
 1288              	.LBE104:
 1289              	.LBE103:
 1290              		.loc 1 812 0
 1291 06f8 B2FA82F2 		clz	r2, r2
 1292 06fc 1146     		mov	r1, r2
 1293 06fe 079A     		ldr	r2, [sp, #28]
 1294 0700 0A44     		add	r2, r2, r1
 1295 0702 0121     		movs	r1, #1
 1296 0704 01FA02F2 		lsl	r2, r1, r2
 1297 0708 DA60     		str	r2, [r3, #12]
 1298              		.loc 1 815 0
ARM GAS  /tmp/ccjyqKqb.s 			page 24


 1299 070a 0023     		movs	r3, #0
 1300              	.L76:
 1301              		.loc 1 817 0
 1302 070c 1846     		mov	r0, r3
 1303 070e 09B0     		add	sp, sp, #36
 1304              		@ sp needed
 1305 0710 5DF804FB 		ldr	pc, [sp], #4
 1306              	.L83:
 1307              		.align	2
 1308              	.L82:
 1309 0714 00610140 		.word	1073832192
 1310              		.cfi_endproc
 1311              	.LFE136:
 1312              		.size	HAL_DFSDM_ChannelPollForScd, .-HAL_DFSDM_ChannelPollForScd
 1313              		.align	2
 1314 0718 AFF30080 		.p2align 4,,15
 1314      AFF30080 
 1315              		.global	HAL_DFSDM_ChannelScdStop
 1316              		.thumb
 1317              		.thumb_func
 1318              		.type	HAL_DFSDM_ChannelScdStop, %function
 1319              	HAL_DFSDM_ChannelScdStop:
 1320              	.LFB137:
 1321              		.loc 1 825 0
 1322              		.cfi_startproc
 1323              		@ args = 0, pretend = 0, frame = 24
 1324              		@ frame_needed = 0, uses_anonymous_args = 0
 1325 0720 00B5     		push	{lr}
 1326              		.cfi_def_cfa_offset 4
 1327              		.cfi_offset 14, -4
 1328 0722 87B0     		sub	sp, sp, #28
 1329              		.cfi_def_cfa_offset 32
 1330 0724 0190     		str	r0, [sp, #4]
 1331              		.loc 1 826 0
 1332 0726 0023     		movs	r3, #0
 1333 0728 8DF81730 		strb	r3, [sp, #23]
 1334              		.loc 1 833 0
 1335 072c 019B     		ldr	r3, [sp, #4]
 1336 072e 93F83430 		ldrb	r3, [r3, #52]	@ zero_extendqisi2
 1337 0732 012B     		cmp	r3, #1
 1338 0734 03D0     		beq	.L85
 1339              		.loc 1 836 0
 1340 0736 0123     		movs	r3, #1
 1341 0738 8DF81730 		strb	r3, [sp, #23]
 1342 073c 1FE0     		b	.L86
 1343              	.L85:
 1344              		.loc 1 841 0
 1345 073e 019B     		ldr	r3, [sp, #4]
 1346 0740 1B68     		ldr	r3, [r3]
 1347 0742 019A     		ldr	r2, [sp, #4]
 1348 0744 1268     		ldr	r2, [r2]
 1349 0746 1268     		ldr	r2, [r2]
 1350 0748 22F02002 		bic	r2, r2, #32
 1351 074c 1A60     		str	r2, [r3]
 1352              		.loc 1 844 0
 1353 074e 019B     		ldr	r3, [sp, #4]
 1354 0750 1B68     		ldr	r3, [r3]
ARM GAS  /tmp/ccjyqKqb.s 			page 25


 1355 0752 1846     		mov	r0, r3
 1356 0754 01F064FB 		bl	DFSDM_GetChannelFromInstance
 1357 0758 0490     		str	r0, [sp, #16]
 1358              		.loc 1 845 0
 1359 075a 0C4B     		ldr	r3, .L89
 1360 075c 4FF07F42 		mov	r2, #-16777216
 1361 0760 0392     		str	r2, [sp, #12]
 1362              	.LBB105:
 1363              	.LBB106:
 1364              		.loc 2 586 0
 1365 0762 039A     		ldr	r2, [sp, #12]
 1366              	@ 586 "../../../../../../ChibiOS/os/ext/CMSIS/include/core_cmInstr.h" 1
 1367 0764 92FAA2F2 		rbit r2, r2
 1368              	@ 0 "" 2
 1369              		.thumb
 1370 0768 0292     		str	r2, [sp, #8]
 1371              		.loc 2 599 0
 1372 076a 029A     		ldr	r2, [sp, #8]
 1373              	.LBE106:
 1374              	.LBE105:
 1375              		.loc 1 845 0
 1376 076c B2FA82F2 		clz	r2, r2
 1377 0770 1146     		mov	r1, r2
 1378 0772 049A     		ldr	r2, [sp, #16]
 1379 0774 0A44     		add	r2, r2, r1
 1380 0776 0121     		movs	r1, #1
 1381 0778 01FA02F2 		lsl	r2, r1, r2
 1382 077c DA60     		str	r2, [r3, #12]
 1383              	.L86:
 1384              		.loc 1 848 0
 1385 077e 9DF81730 		ldrb	r3, [sp, #23]	@ zero_extendqisi2
 1386              		.loc 1 849 0
 1387 0782 1846     		mov	r0, r3
 1388 0784 07B0     		add	sp, sp, #28
 1389              		@ sp needed
 1390 0786 5DF804FB 		ldr	pc, [sp], #4
 1391              	.L90:
 1392 078a 00BF     		.align	2
 1393              	.L89:
 1394 078c 00610140 		.word	1073832192
 1395              		.cfi_endproc
 1396              	.LFE137:
 1397              		.size	HAL_DFSDM_ChannelScdStop, .-HAL_DFSDM_ChannelScdStop
 1398              		.align	2
 1399              		.p2align 4,,15
 1400              		.global	HAL_DFSDM_ChannelScdStart_IT
 1401              		.thumb
 1402              		.thumb_func
 1403              		.type	HAL_DFSDM_ChannelScdStart_IT, %function
 1404              	HAL_DFSDM_ChannelScdStart_IT:
 1405              	.LFB138:
 1406              		.loc 1 864 0
 1407              		.cfi_startproc
 1408              		@ args = 0, pretend = 0, frame = 32
 1409              		@ frame_needed = 0, uses_anonymous_args = 0
 1410              		@ link register save eliminated.
 1411 0790 88B0     		sub	sp, sp, #32
ARM GAS  /tmp/ccjyqKqb.s 			page 26


 1412              		.cfi_def_cfa_offset 32
 1413 0792 0390     		str	r0, [sp, #12]
 1414 0794 0291     		str	r1, [sp, #8]
 1415 0796 0192     		str	r2, [sp, #4]
 1416              		.loc 1 865 0
 1417 0798 0023     		movs	r3, #0
 1418 079a 8DF81F30 		strb	r3, [sp, #31]
 1419              		.loc 1 873 0
 1420 079e 039B     		ldr	r3, [sp, #12]
 1421 07a0 93F83430 		ldrb	r3, [r3, #52]	@ zero_extendqisi2
 1422 07a4 012B     		cmp	r3, #1
 1423 07a6 03D0     		beq	.L92
 1424              		.loc 1 876 0
 1425 07a8 0123     		movs	r3, #1
 1426 07aa 8DF81F30 		strb	r3, [sp, #31]
 1427 07ae 2CE0     		b	.L93
 1428              	.L92:
 1429              		.loc 1 881 0
 1430 07b0 184B     		ldr	r3, .L96
 1431 07b2 184A     		ldr	r2, .L96
 1432 07b4 5268     		ldr	r2, [r2, #4]
 1433 07b6 42F02002 		orr	r2, r2, #32
 1434 07ba 5A60     		str	r2, [r3, #4]
 1435              		.loc 1 884 0
 1436 07bc 039B     		ldr	r3, [sp, #12]
 1437 07be 1A68     		ldr	r2, [r3]
 1438 07c0 039B     		ldr	r3, [sp, #12]
 1439 07c2 1B68     		ldr	r3, [r3]
 1440 07c4 9B68     		ldr	r3, [r3, #8]
 1441 07c6 23F47043 		bic	r3, r3, #61440
 1442 07ca 23F0FF03 		bic	r3, r3, #255
 1443 07ce 9360     		str	r3, [r2, #8]
 1444              		.loc 1 885 0
 1445 07d0 039B     		ldr	r3, [sp, #12]
 1446 07d2 1B68     		ldr	r3, [r3]
 1447 07d4 039A     		ldr	r2, [sp, #12]
 1448 07d6 1268     		ldr	r2, [r2]
 1449 07d8 9168     		ldr	r1, [r2, #8]
 1450 07da 4FF47042 		mov	r2, #61440
 1451 07de 0692     		str	r2, [sp, #24]
 1452              	.LBB107:
 1453              	.LBB108:
 1454              		.loc 2 586 0
 1455 07e0 069A     		ldr	r2, [sp, #24]
 1456              	@ 586 "../../../../../../ChibiOS/os/ext/CMSIS/include/core_cmInstr.h" 1
 1457 07e2 92FAA2F2 		rbit r2, r2
 1458              	@ 0 "" 2
 1459              		.thumb
 1460 07e6 0592     		str	r2, [sp, #20]
 1461              		.loc 2 599 0
 1462 07e8 059A     		ldr	r2, [sp, #20]
 1463              	.LBE108:
 1464              	.LBE107:
 1465              		.loc 1 885 0
 1466 07ea B2FA82F2 		clz	r2, r2
 1467 07ee 0198     		ldr	r0, [sp, #4]
 1468 07f0 9040     		lsls	r0, r0, r2
ARM GAS  /tmp/ccjyqKqb.s 			page 27


 1469 07f2 029A     		ldr	r2, [sp, #8]
 1470 07f4 0243     		orrs	r2, r2, r0
 1471 07f6 0A43     		orrs	r2, r2, r1
 1472 07f8 9A60     		str	r2, [r3, #8]
 1473              		.loc 1 889 0
 1474 07fa 039B     		ldr	r3, [sp, #12]
 1475 07fc 1B68     		ldr	r3, [r3]
 1476 07fe 039A     		ldr	r2, [sp, #12]
 1477 0800 1268     		ldr	r2, [r2]
 1478 0802 1268     		ldr	r2, [r2]
 1479 0804 42F02002 		orr	r2, r2, #32
 1480 0808 1A60     		str	r2, [r3]
 1481              	.L93:
 1482              		.loc 1 892 0
 1483 080a 9DF81F30 		ldrb	r3, [sp, #31]	@ zero_extendqisi2
 1484              		.loc 1 893 0
 1485 080e 1846     		mov	r0, r3
 1486 0810 08B0     		add	sp, sp, #32
 1487              		@ sp needed
 1488 0812 7047     		bx	lr
 1489              	.L97:
 1490              		.align	2
 1491              	.L96:
 1492 0814 00610140 		.word	1073832192
 1493              		.cfi_endproc
 1494              	.LFE138:
 1495              		.size	HAL_DFSDM_ChannelScdStart_IT, .-HAL_DFSDM_ChannelScdStart_IT
 1496              		.align	2
 1497 0818 AFF30080 		.p2align 4,,15
 1497      AFF30080 
 1498              		.weak	HAL_DFSDM_ChannelScdCallback
 1499              		.thumb
 1500              		.thumb_func
 1501              		.type	HAL_DFSDM_ChannelScdCallback, %function
 1502              	HAL_DFSDM_ChannelScdCallback:
 1503              	.LFB139:
 1504              		.loc 1 901 0
 1505              		.cfi_startproc
 1506              		@ args = 0, pretend = 0, frame = 8
 1507              		@ frame_needed = 0, uses_anonymous_args = 0
 1508              		@ link register save eliminated.
 1509 0820 82B0     		sub	sp, sp, #8
 1510              		.cfi_def_cfa_offset 8
 1511 0822 0190     		str	r0, [sp, #4]
 1512              		.loc 1 908 0
 1513 0824 02B0     		add	sp, sp, #8
 1514              		@ sp needed
 1515 0826 7047     		bx	lr
 1516              		.cfi_endproc
 1517              	.LFE139:
 1518              		.size	HAL_DFSDM_ChannelScdCallback, .-HAL_DFSDM_ChannelScdCallback
 1519              		.align	2
 1520 0828 AFF30080 		.p2align 4,,15
 1520      AFF30080 
 1521              		.global	HAL_DFSDM_ChannelScdStop_IT
 1522              		.thumb
 1523              		.thumb_func
ARM GAS  /tmp/ccjyqKqb.s 			page 28


 1524              		.type	HAL_DFSDM_ChannelScdStop_IT, %function
 1525              	HAL_DFSDM_ChannelScdStop_IT:
 1526              	.LFB140:
 1527              		.loc 1 917 0
 1528              		.cfi_startproc
 1529              		@ args = 0, pretend = 0, frame = 24
 1530              		@ frame_needed = 0, uses_anonymous_args = 0
 1531 0830 00B5     		push	{lr}
 1532              		.cfi_def_cfa_offset 4
 1533              		.cfi_offset 14, -4
 1534 0832 87B0     		sub	sp, sp, #28
 1535              		.cfi_def_cfa_offset 32
 1536 0834 0190     		str	r0, [sp, #4]
 1537              		.loc 1 918 0
 1538 0836 0023     		movs	r3, #0
 1539 0838 8DF81730 		strb	r3, [sp, #23]
 1540              		.loc 1 925 0
 1541 083c 019B     		ldr	r3, [sp, #4]
 1542 083e 93F83430 		ldrb	r3, [r3, #52]	@ zero_extendqisi2
 1543 0842 012B     		cmp	r3, #1
 1544 0844 03D0     		beq	.L100
 1545              		.loc 1 928 0
 1546 0846 0123     		movs	r3, #1
 1547 0848 8DF81730 		strb	r3, [sp, #23]
 1548 084c 25E0     		b	.L101
 1549              	.L100:
 1550              		.loc 1 933 0
 1551 084e 019B     		ldr	r3, [sp, #4]
 1552 0850 1B68     		ldr	r3, [r3]
 1553 0852 019A     		ldr	r2, [sp, #4]
 1554 0854 1268     		ldr	r2, [r2]
 1555 0856 1268     		ldr	r2, [r2]
 1556 0858 22F02002 		bic	r2, r2, #32
 1557 085c 1A60     		str	r2, [r3]
 1558              		.loc 1 936 0
 1559 085e 019B     		ldr	r3, [sp, #4]
 1560 0860 1B68     		ldr	r3, [r3]
 1561 0862 1846     		mov	r0, r3
 1562 0864 01F0DCFA 		bl	DFSDM_GetChannelFromInstance
 1563 0868 0490     		str	r0, [sp, #16]
 1564              		.loc 1 937 0
 1565 086a 0F4B     		ldr	r3, .L104
 1566 086c 4FF07F42 		mov	r2, #-16777216
 1567 0870 0392     		str	r2, [sp, #12]
 1568              	.LBB109:
 1569              	.LBB110:
 1570              		.loc 2 586 0
 1571 0872 039A     		ldr	r2, [sp, #12]
 1572              	@ 586 "../../../../../../ChibiOS/os/ext/CMSIS/include/core_cmInstr.h" 1
 1573 0874 92FAA2F2 		rbit r2, r2
 1574              	@ 0 "" 2
 1575              		.thumb
 1576 0878 0292     		str	r2, [sp, #8]
 1577              		.loc 2 599 0
 1578 087a 029A     		ldr	r2, [sp, #8]
 1579              	.LBE110:
 1580              	.LBE109:
ARM GAS  /tmp/ccjyqKqb.s 			page 29


 1581              		.loc 1 937 0
 1582 087c B2FA82F2 		clz	r2, r2
 1583 0880 1146     		mov	r1, r2
 1584 0882 049A     		ldr	r2, [sp, #16]
 1585 0884 0A44     		add	r2, r2, r1
 1586 0886 0121     		movs	r1, #1
 1587 0888 01FA02F2 		lsl	r2, r1, r2
 1588 088c DA60     		str	r2, [r3, #12]
 1589              		.loc 1 940 0
 1590 088e 064B     		ldr	r3, .L104
 1591 0890 054A     		ldr	r2, .L104
 1592 0892 5268     		ldr	r2, [r2, #4]
 1593 0894 22F02002 		bic	r2, r2, #32
 1594 0898 5A60     		str	r2, [r3, #4]
 1595              	.L101:
 1596              		.loc 1 943 0
 1597 089a 9DF81730 		ldrb	r3, [sp, #23]	@ zero_extendqisi2
 1598              		.loc 1 944 0
 1599 089e 1846     		mov	r0, r3
 1600 08a0 07B0     		add	sp, sp, #28
 1601              		@ sp needed
 1602 08a2 5DF804FB 		ldr	pc, [sp], #4
 1603              	.L105:
 1604 08a6 00BF     		.align	2
 1605              	.L104:
 1606 08a8 00610140 		.word	1073832192
 1607              		.cfi_endproc
 1608              	.LFE140:
 1609              		.size	HAL_DFSDM_ChannelScdStop_IT, .-HAL_DFSDM_ChannelScdStop_IT
 1610              		.align	2
 1611 08ac AFF30080 		.p2align 4,,15
 1612              		.global	HAL_DFSDM_ChannelGetAwdValue
 1613              		.thumb
 1614              		.thumb_func
 1615              		.type	HAL_DFSDM_ChannelGetAwdValue, %function
 1616              	HAL_DFSDM_ChannelGetAwdValue:
 1617              	.LFB141:
 1618              		.loc 1 952 0
 1619              		.cfi_startproc
 1620              		@ args = 0, pretend = 0, frame = 8
 1621              		@ frame_needed = 0, uses_anonymous_args = 0
 1622              		@ link register save eliminated.
 1623 08b0 82B0     		sub	sp, sp, #8
 1624              		.cfi_def_cfa_offset 8
 1625 08b2 0190     		str	r0, [sp, #4]
 1626              		.loc 1 953 0
 1627 08b4 019B     		ldr	r3, [sp, #4]
 1628 08b6 1B68     		ldr	r3, [r3]
 1629 08b8 DB68     		ldr	r3, [r3, #12]
 1630 08ba 9BB2     		uxth	r3, r3
 1631 08bc 1BB2     		sxth	r3, r3
 1632              		.loc 1 954 0
 1633 08be 1846     		mov	r0, r3
 1634 08c0 02B0     		add	sp, sp, #8
 1635              		@ sp needed
 1636 08c2 7047     		bx	lr
 1637              		.cfi_endproc
ARM GAS  /tmp/ccjyqKqb.s 			page 30


 1638              	.LFE141:
 1639              		.size	HAL_DFSDM_ChannelGetAwdValue, .-HAL_DFSDM_ChannelGetAwdValue
 1640              		.align	2
 1641 08c4 AFF30080 		.p2align 4,,15
 1641      AFF30080 
 1641      AFF30080 
 1642              		.global	HAL_DFSDM_ChannelModifyOffset
 1643              		.thumb
 1644              		.thumb_func
 1645              		.type	HAL_DFSDM_ChannelModifyOffset, %function
 1646              	HAL_DFSDM_ChannelModifyOffset:
 1647              	.LFB142:
 1648              		.loc 1 965 0
 1649              		.cfi_startproc
 1650              		@ args = 0, pretend = 0, frame = 24
 1651              		@ frame_needed = 0, uses_anonymous_args = 0
 1652              		@ link register save eliminated.
 1653 08d0 86B0     		sub	sp, sp, #24
 1654              		.cfi_def_cfa_offset 24
 1655 08d2 0190     		str	r0, [sp, #4]
 1656 08d4 0091     		str	r1, [sp]
 1657              		.loc 1 966 0
 1658 08d6 0023     		movs	r3, #0
 1659 08d8 8DF81730 		strb	r3, [sp, #23]
 1660              		.loc 1 973 0
 1661 08dc 019B     		ldr	r3, [sp, #4]
 1662 08de 93F83430 		ldrb	r3, [r3, #52]	@ zero_extendqisi2
 1663 08e2 012B     		cmp	r3, #1
 1664 08e4 03D0     		beq	.L109
 1665              		.loc 1 976 0
 1666 08e6 0123     		movs	r3, #1
 1667 08e8 8DF81730 		strb	r3, [sp, #23]
 1668 08ec 1AE0     		b	.L110
 1669              	.L109:
 1670              		.loc 1 981 0
 1671 08ee 019B     		ldr	r3, [sp, #4]
 1672 08f0 1B68     		ldr	r3, [r3]
 1673 08f2 019A     		ldr	r2, [sp, #4]
 1674 08f4 1268     		ldr	r2, [r2]
 1675 08f6 5268     		ldr	r2, [r2, #4]
 1676 08f8 D2B2     		uxtb	r2, r2
 1677 08fa 5A60     		str	r2, [r3, #4]
 1678              		.loc 1 982 0
 1679 08fc 019B     		ldr	r3, [sp, #4]
 1680 08fe 1B68     		ldr	r3, [r3]
 1681 0900 019A     		ldr	r2, [sp, #4]
 1682 0902 1268     		ldr	r2, [r2]
 1683 0904 5168     		ldr	r1, [r2, #4]
 1684 0906 0098     		ldr	r0, [sp]
 1685 0908 6FF0FF02 		mvn	r2, #255
 1686 090c 0492     		str	r2, [sp, #16]
 1687              	.LBB111:
 1688              	.LBB112:
 1689              		.loc 2 586 0
 1690 090e 049A     		ldr	r2, [sp, #16]
 1691              	@ 586 "../../../../../../ChibiOS/os/ext/CMSIS/include/core_cmInstr.h" 1
 1692 0910 92FAA2F2 		rbit r2, r2
ARM GAS  /tmp/ccjyqKqb.s 			page 31


 1693              	@ 0 "" 2
 1694              		.thumb
 1695 0914 0392     		str	r2, [sp, #12]
 1696              		.loc 2 599 0
 1697 0916 039A     		ldr	r2, [sp, #12]
 1698              	.LBE112:
 1699              	.LBE111:
 1700              		.loc 1 982 0
 1701 0918 B2FA82F2 		clz	r2, r2
 1702 091c 00FA02F2 		lsl	r2, r0, r2
 1703 0920 0A43     		orrs	r2, r2, r1
 1704 0922 5A60     		str	r2, [r3, #4]
 1705              	.L110:
 1706              		.loc 1 985 0
 1707 0924 9DF81730 		ldrb	r3, [sp, #23]	@ zero_extendqisi2
 1708              		.loc 1 986 0
 1709 0928 1846     		mov	r0, r3
 1710 092a 06B0     		add	sp, sp, #24
 1711              		@ sp needed
 1712 092c 7047     		bx	lr
 1713              		.cfi_endproc
 1714              	.LFE142:
 1715              		.size	HAL_DFSDM_ChannelModifyOffset, .-HAL_DFSDM_ChannelModifyOffset
 1716 092e 00BF     		.align	2
 1717              		.p2align 4,,15
 1718              		.global	HAL_DFSDM_ChannelGetState
 1719              		.thumb
 1720              		.thumb_func
 1721              		.type	HAL_DFSDM_ChannelGetState, %function
 1722              	HAL_DFSDM_ChannelGetState:
 1723              	.LFB143:
 1724              		.loc 1 1011 0
 1725              		.cfi_startproc
 1726              		@ args = 0, pretend = 0, frame = 8
 1727              		@ frame_needed = 0, uses_anonymous_args = 0
 1728              		@ link register save eliminated.
 1729 0930 82B0     		sub	sp, sp, #8
 1730              		.cfi_def_cfa_offset 8
 1731 0932 0190     		str	r0, [sp, #4]
 1732              		.loc 1 1013 0
 1733 0934 019B     		ldr	r3, [sp, #4]
 1734 0936 93F83430 		ldrb	r3, [r3, #52]	@ zero_extendqisi2
 1735              		.loc 1 1014 0
 1736 093a 1846     		mov	r0, r3
 1737 093c 02B0     		add	sp, sp, #8
 1738              		@ sp needed
 1739 093e 7047     		bx	lr
 1740              		.cfi_endproc
 1741              	.LFE143:
 1742              		.size	HAL_DFSDM_ChannelGetState, .-HAL_DFSDM_ChannelGetState
 1743              		.align	2
 1744              		.p2align 4,,15
 1745              		.global	HAL_DFSDM_FilterInit
 1746              		.thumb
 1747              		.thumb_func
 1748              		.type	HAL_DFSDM_FilterInit, %function
 1749              	HAL_DFSDM_FilterInit:
ARM GAS  /tmp/ccjyqKqb.s 			page 32


 1750              	.LFB144:
 1751              		.loc 1 1041 0
 1752              		.cfi_startproc
 1753              		@ args = 0, pretend = 0, frame = 16
 1754              		@ frame_needed = 0, uses_anonymous_args = 0
 1755 0940 10B5     		push	{r4, lr}
 1756              		.cfi_def_cfa_offset 8
 1757              		.cfi_offset 4, -8
 1758              		.cfi_offset 14, -4
 1759 0942 84B0     		sub	sp, sp, #16
 1760              		.cfi_def_cfa_offset 24
 1761 0944 0190     		str	r0, [sp, #4]
 1762              		.loc 1 1043 0
 1763 0946 019B     		ldr	r3, [sp, #4]
 1764 0948 002B     		cmp	r3, #0
 1765 094a 01D1     		bne	.L116
 1766              		.loc 1 1045 0
 1767 094c 0123     		movs	r3, #1
 1768 094e D4E0     		b	.L117
 1769              	.L116:
 1770              		.loc 1 1061 0
 1771 0950 019B     		ldr	r3, [sp, #4]
 1772 0952 1A68     		ldr	r2, [r3]
 1773 0954 6A4B     		ldr	r3, .L130
 1774 0956 9A42     		cmp	r2, r3
 1775 0958 09D1     		bne	.L118
 1776              		.loc 1 1062 0 discriminator 1
 1777 095a 019B     		ldr	r3, [sp, #4]
 1778 095c 5B68     		ldr	r3, [r3, #4]
 1779              		.loc 1 1061 0 discriminator 1
 1780 095e 012B     		cmp	r3, #1
 1781 0960 03D0     		beq	.L119
 1782              		.loc 1 1063 0
 1783 0962 019B     		ldr	r3, [sp, #4]
 1784 0964 DB68     		ldr	r3, [r3, #12]
 1785              		.loc 1 1062 0
 1786 0966 012B     		cmp	r3, #1
 1787 0968 01D1     		bne	.L118
 1788              	.L119:
 1789              		.loc 1 1065 0
 1790 096a 0123     		movs	r3, #1
 1791 096c C5E0     		b	.L117
 1792              	.L118:
 1793              		.loc 1 1069 0
 1794 096e 019B     		ldr	r3, [sp, #4]
 1795 0970 0022     		movs	r2, #0
 1796 0972 1A63     		str	r2, [r3, #48]
 1797              		.loc 1 1070 0
 1798 0974 019B     		ldr	r3, [sp, #4]
 1799 0976 0122     		movs	r2, #1
 1800 0978 5A64     		str	r2, [r3, #68]
 1801              		.loc 1 1071 0
 1802 097a 019B     		ldr	r3, [sp, #4]
 1803 097c 0122     		movs	r2, #1
 1804 097e 9A64     		str	r2, [r3, #72]
 1805              		.loc 1 1072 0
 1806 0980 019B     		ldr	r3, [sp, #4]
ARM GAS  /tmp/ccjyqKqb.s 			page 33


 1807 0982 0022     		movs	r2, #0
 1808 0984 1A65     		str	r2, [r3, #80]
 1809              		.loc 1 1075 0
 1810 0986 0198     		ldr	r0, [sp, #4]
 1811 0988 FFF7FEFF 		bl	HAL_DFSDM_FilterMspInit
 1812              		.loc 1 1078 0
 1813 098c 019B     		ldr	r3, [sp, #4]
 1814 098e 1B68     		ldr	r3, [r3]
 1815 0990 019A     		ldr	r2, [sp, #4]
 1816 0992 1268     		ldr	r2, [r2]
 1817 0994 1268     		ldr	r2, [r2]
 1818 0996 22F40022 		bic	r2, r2, #524288
 1819 099a 1A60     		str	r2, [r3]
 1820              		.loc 1 1079 0
 1821 099c 019B     		ldr	r3, [sp, #4]
 1822 099e 1B7A     		ldrb	r3, [r3, #8]	@ zero_extendqisi2
 1823 09a0 012B     		cmp	r3, #1
 1824 09a2 08D1     		bne	.L120
 1825              		.loc 1 1081 0
 1826 09a4 019B     		ldr	r3, [sp, #4]
 1827 09a6 1B68     		ldr	r3, [r3]
 1828 09a8 019A     		ldr	r2, [sp, #4]
 1829 09aa 1268     		ldr	r2, [r2]
 1830 09ac 1268     		ldr	r2, [r2]
 1831 09ae 42F00052 		orr	r2, r2, #536870912
 1832 09b2 1A60     		str	r2, [r3]
 1833 09b4 07E0     		b	.L121
 1834              	.L120:
 1835              		.loc 1 1085 0
 1836 09b6 019B     		ldr	r3, [sp, #4]
 1837 09b8 1B68     		ldr	r3, [r3]
 1838 09ba 019A     		ldr	r2, [sp, #4]
 1839 09bc 1268     		ldr	r2, [r2]
 1840 09be 1268     		ldr	r2, [r2]
 1841 09c0 22F00052 		bic	r2, r2, #536870912
 1842 09c4 1A60     		str	r2, [r3]
 1843              	.L121:
 1844              		.loc 1 1088 0
 1845 09c6 019B     		ldr	r3, [sp, #4]
 1846 09c8 5B7A     		ldrb	r3, [r3, #9]	@ zero_extendqisi2
 1847 09ca 012B     		cmp	r3, #1
 1848 09cc 08D1     		bne	.L122
 1849              		.loc 1 1090 0
 1850 09ce 019B     		ldr	r3, [sp, #4]
 1851 09d0 1B68     		ldr	r3, [r3]
 1852 09d2 019A     		ldr	r2, [sp, #4]
 1853 09d4 1268     		ldr	r2, [r2]
 1854 09d6 1268     		ldr	r2, [r2]
 1855 09d8 42F40012 		orr	r2, r2, #2097152
 1856 09dc 1A60     		str	r2, [r3]
 1857 09de 07E0     		b	.L123
 1858              	.L122:
 1859              		.loc 1 1094 0
 1860 09e0 019B     		ldr	r3, [sp, #4]
 1861 09e2 1B68     		ldr	r3, [r3]
 1862 09e4 019A     		ldr	r2, [sp, #4]
 1863 09e6 1268     		ldr	r2, [r2]
ARM GAS  /tmp/ccjyqKqb.s 			page 34


 1864 09e8 1268     		ldr	r2, [r2]
 1865 09ea 22F40012 		bic	r2, r2, #2097152
 1866 09ee 1A60     		str	r2, [r3]
 1867              	.L123:
 1868              		.loc 1 1098 0
 1869 09f0 019B     		ldr	r3, [sp, #4]
 1870 09f2 1A68     		ldr	r2, [r3]
 1871 09f4 019B     		ldr	r3, [sp, #4]
 1872 09f6 1B68     		ldr	r3, [r3]
 1873 09f8 1B68     		ldr	r3, [r3]
 1874 09fa 23F4CE43 		bic	r3, r3, #26368
 1875 09fe 23F00803 		bic	r3, r3, #8
 1876 0a02 1360     		str	r3, [r2]
 1877              		.loc 1 1099 0
 1878 0a04 019B     		ldr	r3, [sp, #4]
 1879 0a06 DB68     		ldr	r3, [r3, #12]
 1880 0a08 022B     		cmp	r3, #2
 1881 0a0a 08D1     		bne	.L124
 1882              		.loc 1 1103 0
 1883 0a0c 019B     		ldr	r3, [sp, #4]
 1884 0a0e 1B68     		ldr	r3, [r3]
 1885 0a10 019A     		ldr	r2, [sp, #4]
 1886 0a12 1268     		ldr	r2, [r2]
 1887 0a14 1168     		ldr	r1, [r2]
 1888 0a16 019A     		ldr	r2, [sp, #4]
 1889 0a18 5269     		ldr	r2, [r2, #20]
 1890 0a1a 0A43     		orrs	r2, r2, r1
 1891 0a1c 1A60     		str	r2, [r3]
 1892              	.L124:
 1893              		.loc 1 1106 0
 1894 0a1e 019B     		ldr	r3, [sp, #4]
 1895 0a20 1B7C     		ldrb	r3, [r3, #16]	@ zero_extendqisi2
 1896 0a22 012B     		cmp	r3, #1
 1897 0a24 08D1     		bne	.L125
 1898              		.loc 1 1108 0
 1899 0a26 019B     		ldr	r3, [sp, #4]
 1900 0a28 1B68     		ldr	r3, [r3]
 1901 0a2a 019A     		ldr	r2, [sp, #4]
 1902 0a2c 1268     		ldr	r2, [r2]
 1903 0a2e 1268     		ldr	r2, [r2]
 1904 0a30 42F01002 		orr	r2, r2, #16
 1905 0a34 1A60     		str	r2, [r3]
 1906 0a36 07E0     		b	.L126
 1907              	.L125:
 1908              		.loc 1 1112 0
 1909 0a38 019B     		ldr	r3, [sp, #4]
 1910 0a3a 1B68     		ldr	r3, [r3]
 1911 0a3c 019A     		ldr	r2, [sp, #4]
 1912 0a3e 1268     		ldr	r2, [r2]
 1913 0a40 1268     		ldr	r2, [r2]
 1914 0a42 22F01002 		bic	r2, r2, #16
 1915 0a46 1A60     		str	r2, [r3]
 1916              	.L126:
 1917              		.loc 1 1115 0
 1918 0a48 019B     		ldr	r3, [sp, #4]
 1919 0a4a 5B7C     		ldrb	r3, [r3, #17]	@ zero_extendqisi2
 1920 0a4c 012B     		cmp	r3, #1
ARM GAS  /tmp/ccjyqKqb.s 			page 35


 1921 0a4e 08D1     		bne	.L127
 1922              		.loc 1 1117 0
 1923 0a50 019B     		ldr	r3, [sp, #4]
 1924 0a52 1B68     		ldr	r3, [r3]
 1925 0a54 019A     		ldr	r2, [sp, #4]
 1926 0a56 1268     		ldr	r2, [r2]
 1927 0a58 1268     		ldr	r2, [r2]
 1928 0a5a 42F02002 		orr	r2, r2, #32
 1929 0a5e 1A60     		str	r2, [r3]
 1930 0a60 07E0     		b	.L128
 1931              	.L127:
 1932              		.loc 1 1121 0
 1933 0a62 019B     		ldr	r3, [sp, #4]
 1934 0a64 1B68     		ldr	r3, [r3]
 1935 0a66 019A     		ldr	r2, [sp, #4]
 1936 0a68 1268     		ldr	r2, [r2]
 1937 0a6a 1268     		ldr	r2, [r2]
 1938 0a6c 22F02002 		bic	r2, r2, #32
 1939 0a70 1A60     		str	r2, [r3]
 1940              	.L128:
 1941              		.loc 1 1125 0
 1942 0a72 019B     		ldr	r3, [sp, #4]
 1943 0a74 1A68     		ldr	r2, [r3]
 1944 0a76 019B     		ldr	r3, [sp, #4]
 1945 0a78 1B68     		ldr	r3, [r3]
 1946 0a7a 5B69     		ldr	r3, [r3, #20]
 1947 0a7c 23F06343 		bic	r3, r3, #-486539264
 1948 0a80 03F0FF23 		and	r3, r3, #-16711936
 1949 0a84 5361     		str	r3, [r2, #20]
 1950              		.loc 1 1126 0
 1951 0a86 019B     		ldr	r3, [sp, #4]
 1952 0a88 1B68     		ldr	r3, [r3]
 1953 0a8a 019A     		ldr	r2, [sp, #4]
 1954 0a8c 1268     		ldr	r2, [r2]
 1955 0a8e 5169     		ldr	r1, [r2, #20]
 1956 0a90 019A     		ldr	r2, [sp, #4]
 1957 0a92 D069     		ldr	r0, [r2, #28]
 1958              		.loc 1 1127 0
 1959 0a94 019A     		ldr	r2, [sp, #4]
 1960 0a96 126A     		ldr	r2, [r2, #32]
 1961 0a98 541E     		subs	r4, r2, #1
 1962 0a9a 1A4A     		ldr	r2, .L130+4
 1963 0a9c 0392     		str	r2, [sp, #12]
 1964              	.LBB113:
 1965              	.LBB114:
 1966              		.loc 2 586 0
 1967 0a9e 039A     		ldr	r2, [sp, #12]
 1968              	@ 586 "../../../../../../ChibiOS/os/ext/CMSIS/include/core_cmInstr.h" 1
 1969 0aa0 92FAA2F2 		rbit r2, r2
 1970              	@ 0 "" 2
 1971              		.thumb
 1972 0aa4 0292     		str	r2, [sp, #8]
 1973              		.loc 2 599 0
 1974 0aa6 029A     		ldr	r2, [sp, #8]
 1975              	.LBE114:
 1976              	.LBE113:
 1977              		.loc 1 1127 0
ARM GAS  /tmp/ccjyqKqb.s 			page 36


 1978 0aa8 B2FA82F2 		clz	r2, r2
 1979 0aac 04FA02F2 		lsl	r2, r4, r2
 1980              		.loc 1 1126 0
 1981 0ab0 1043     		orrs	r0, r0, r2
 1982              		.loc 1 1128 0
 1983 0ab2 019A     		ldr	r2, [sp, #4]
 1984 0ab4 526A     		ldr	r2, [r2, #36]
 1985 0ab6 013A     		subs	r2, r2, #1
 1986              		.loc 1 1127 0
 1987 0ab8 0243     		orrs	r2, r2, r0
 1988              		.loc 1 1126 0
 1989 0aba 0A43     		orrs	r2, r2, r1
 1990 0abc 5A61     		str	r2, [r3, #20]
 1991              		.loc 1 1131 0
 1992 0abe 019B     		ldr	r3, [sp, #4]
 1993 0ac0 5A68     		ldr	r2, [r3, #4]
 1994 0ac2 019B     		ldr	r3, [sp, #4]
 1995 0ac4 5A63     		str	r2, [r3, #52]
 1996              		.loc 1 1132 0
 1997 0ac6 019B     		ldr	r3, [sp, #4]
 1998 0ac8 DA68     		ldr	r2, [r3, #12]
 1999 0aca 019B     		ldr	r3, [sp, #4]
 2000 0acc 9A63     		str	r2, [r3, #56]
 2001              		.loc 1 1133 0
 2002 0ace 019B     		ldr	r3, [sp, #4]
 2003 0ad0 9A69     		ldr	r2, [r3, #24]
 2004 0ad2 019B     		ldr	r3, [sp, #4]
 2005 0ad4 DA63     		str	r2, [r3, #60]
 2006              		.loc 1 1134 0
 2007 0ad6 019B     		ldr	r3, [sp, #4]
 2008 0ad8 1A7C     		ldrb	r2, [r3, #16]	@ zero_extendqisi2
 2009 0ada 019B     		ldr	r3, [sp, #4]
 2010 0adc 83F84020 		strb	r2, [r3, #64]
 2011              		.loc 1 1137 0
 2012 0ae0 019B     		ldr	r3, [sp, #4]
 2013 0ae2 1B68     		ldr	r3, [r3]
 2014 0ae4 019A     		ldr	r2, [sp, #4]
 2015 0ae6 1268     		ldr	r2, [r2]
 2016 0ae8 1268     		ldr	r2, [r2]
 2017 0aea 42F00102 		orr	r2, r2, #1
 2018 0aee 1A60     		str	r2, [r3]
 2019              		.loc 1 1140 0
 2020 0af0 019B     		ldr	r3, [sp, #4]
 2021 0af2 0122     		movs	r2, #1
 2022 0af4 83F84C20 		strb	r2, [r3, #76]
 2023              		.loc 1 1142 0
 2024 0af8 0023     		movs	r3, #0
 2025              	.L117:
 2026              		.loc 1 1143 0
 2027 0afa 1846     		mov	r0, r3
 2028 0afc 04B0     		add	sp, sp, #16
 2029              		@ sp needed
 2030 0afe 10BD     		pop	{r4, pc}
 2031              	.L131:
 2032              		.align	2
 2033              	.L130:
 2034 0b00 00610140 		.word	1073832192
ARM GAS  /tmp/ccjyqKqb.s 			page 37


 2035 0b04 0000FF03 		.word	67043328
 2036              		.cfi_endproc
 2037              	.LFE144:
 2038              		.size	HAL_DFSDM_FilterInit, .-HAL_DFSDM_FilterInit
 2039              		.align	2
 2040 0b08 AFF30080 		.p2align 4,,15
 2040      AFF30080 
 2041              		.global	HAL_DFSDM_FilterDeInit
 2042              		.thumb
 2043              		.thumb_func
 2044              		.type	HAL_DFSDM_FilterDeInit, %function
 2045              	HAL_DFSDM_FilterDeInit:
 2046              	.LFB145:
 2047              		.loc 1 1151 0
 2048              		.cfi_startproc
 2049              		@ args = 0, pretend = 0, frame = 8
 2050              		@ frame_needed = 0, uses_anonymous_args = 0
 2051 0b10 00B5     		push	{lr}
 2052              		.cfi_def_cfa_offset 4
 2053              		.cfi_offset 14, -4
 2054 0b12 83B0     		sub	sp, sp, #12
 2055              		.cfi_def_cfa_offset 16
 2056 0b14 0190     		str	r0, [sp, #4]
 2057              		.loc 1 1153 0
 2058 0b16 019B     		ldr	r3, [sp, #4]
 2059 0b18 002B     		cmp	r3, #0
 2060 0b1a 01D1     		bne	.L133
 2061              		.loc 1 1155 0
 2062 0b1c 0123     		movs	r3, #1
 2063 0b1e 0FE0     		b	.L134
 2064              	.L133:
 2065              		.loc 1 1162 0
 2066 0b20 019B     		ldr	r3, [sp, #4]
 2067 0b22 1B68     		ldr	r3, [r3]
 2068 0b24 019A     		ldr	r2, [sp, #4]
 2069 0b26 1268     		ldr	r2, [r2]
 2070 0b28 1268     		ldr	r2, [r2]
 2071 0b2a 22F00102 		bic	r2, r2, #1
 2072 0b2e 1A60     		str	r2, [r3]
 2073              		.loc 1 1165 0
 2074 0b30 0198     		ldr	r0, [sp, #4]
 2075 0b32 FFF7FEFF 		bl	HAL_DFSDM_FilterMspDeInit
 2076              		.loc 1 1168 0
 2077 0b36 019B     		ldr	r3, [sp, #4]
 2078 0b38 0022     		movs	r2, #0
 2079 0b3a 83F84C20 		strb	r2, [r3, #76]
 2080              		.loc 1 1170 0
 2081 0b3e 0023     		movs	r3, #0
 2082              	.L134:
 2083              		.loc 1 1171 0
 2084 0b40 1846     		mov	r0, r3
 2085 0b42 03B0     		add	sp, sp, #12
 2086              		@ sp needed
 2087 0b44 5DF804FB 		ldr	pc, [sp], #4
 2088              		.cfi_endproc
 2089              	.LFE145:
 2090              		.size	HAL_DFSDM_FilterDeInit, .-HAL_DFSDM_FilterDeInit
ARM GAS  /tmp/ccjyqKqb.s 			page 38


 2091              		.align	2
 2092 0b48 AFF30080 		.p2align 4,,15
 2092      AFF30080 
 2093              		.weak	HAL_DFSDM_FilterMspInit
 2094              		.thumb
 2095              		.thumb_func
 2096              		.type	HAL_DFSDM_FilterMspInit, %function
 2097              	HAL_DFSDM_FilterMspInit:
 2098              	.LFB146:
 2099              		.loc 1 1179 0
 2100              		.cfi_startproc
 2101              		@ args = 0, pretend = 0, frame = 8
 2102              		@ frame_needed = 0, uses_anonymous_args = 0
 2103              		@ link register save eliminated.
 2104 0b50 82B0     		sub	sp, sp, #8
 2105              		.cfi_def_cfa_offset 8
 2106 0b52 0190     		str	r0, [sp, #4]
 2107              		.loc 1 1186 0
 2108 0b54 02B0     		add	sp, sp, #8
 2109              		@ sp needed
 2110 0b56 7047     		bx	lr
 2111              		.cfi_endproc
 2112              	.LFE146:
 2113              		.size	HAL_DFSDM_FilterMspInit, .-HAL_DFSDM_FilterMspInit
 2114              		.align	2
 2115 0b58 AFF30080 		.p2align 4,,15
 2115      AFF30080 
 2116              		.weak	HAL_DFSDM_FilterMspDeInit
 2117              		.thumb
 2118              		.thumb_func
 2119              		.type	HAL_DFSDM_FilterMspDeInit, %function
 2120              	HAL_DFSDM_FilterMspDeInit:
 2121              	.LFB147:
 2122              		.loc 1 1194 0
 2123              		.cfi_startproc
 2124              		@ args = 0, pretend = 0, frame = 8
 2125              		@ frame_needed = 0, uses_anonymous_args = 0
 2126              		@ link register save eliminated.
 2127 0b60 82B0     		sub	sp, sp, #8
 2128              		.cfi_def_cfa_offset 8
 2129 0b62 0190     		str	r0, [sp, #4]
 2130              		.loc 1 1201 0
 2131 0b64 02B0     		add	sp, sp, #8
 2132              		@ sp needed
 2133 0b66 7047     		bx	lr
 2134              		.cfi_endproc
 2135              	.LFE147:
 2136              		.size	HAL_DFSDM_FilterMspDeInit, .-HAL_DFSDM_FilterMspDeInit
 2137              		.align	2
 2138 0b68 AFF30080 		.p2align 4,,15
 2138      AFF30080 
 2139              		.global	HAL_DFSDM_FilterConfigRegChannel
 2140              		.thumb
 2141              		.thumb_func
 2142              		.type	HAL_DFSDM_FilterConfigRegChannel, %function
 2143              	HAL_DFSDM_FilterConfigRegChannel:
 2144              	.LFB148:
ARM GAS  /tmp/ccjyqKqb.s 			page 39


 2145              		.loc 1 1234 0
 2146              		.cfi_startproc
 2147              		@ args = 0, pretend = 0, frame = 24
 2148              		@ frame_needed = 0, uses_anonymous_args = 0
 2149              		@ link register save eliminated.
 2150 0b70 86B0     		sub	sp, sp, #24
 2151              		.cfi_def_cfa_offset 24
 2152 0b72 0390     		str	r0, [sp, #12]
 2153 0b74 0291     		str	r1, [sp, #8]
 2154 0b76 0192     		str	r2, [sp, #4]
 2155              		.loc 1 1235 0
 2156 0b78 0023     		movs	r3, #0
 2157 0b7a 8DF81730 		strb	r3, [sp, #23]
 2158              		.loc 1 1243 0
 2159 0b7e 039B     		ldr	r3, [sp, #12]
 2160 0b80 93F84C30 		ldrb	r3, [r3, #76]	@ zero_extendqisi2
 2161 0b84 002B     		cmp	r3, #0
 2162 0b86 2ED0     		beq	.L138
 2163              		.loc 1 1244 0 discriminator 1
 2164 0b88 039B     		ldr	r3, [sp, #12]
 2165 0b8a 93F84C30 		ldrb	r3, [r3, #76]	@ zero_extendqisi2
 2166              		.loc 1 1243 0 discriminator 1
 2167 0b8e FF2B     		cmp	r3, #255
 2168 0b90 29D0     		beq	.L138
 2169              		.loc 1 1247 0
 2170 0b92 039B     		ldr	r3, [sp, #12]
 2171 0b94 1A68     		ldr	r2, [r3]
 2172 0b96 039B     		ldr	r3, [sp, #12]
 2173 0b98 1B68     		ldr	r3, [r3]
 2174 0b9a 1B68     		ldr	r3, [r3]
 2175 0b9c 23F0E063 		bic	r3, r3, #117440512
 2176 0ba0 23F48023 		bic	r3, r3, #262144
 2177 0ba4 1360     		str	r3, [r2]
 2178              		.loc 1 1248 0
 2179 0ba6 019B     		ldr	r3, [sp, #4]
 2180 0ba8 012B     		cmp	r3, #1
 2181 0baa 0DD1     		bne	.L139
 2182              		.loc 1 1250 0
 2183 0bac 039B     		ldr	r3, [sp, #12]
 2184 0bae 1A68     		ldr	r2, [r3]
 2185 0bb0 039B     		ldr	r3, [sp, #12]
 2186 0bb2 1B68     		ldr	r3, [r3]
 2187 0bb4 1968     		ldr	r1, [r3]
 2188 0bb6 029B     		ldr	r3, [sp, #8]
 2189 0bb8 1B0C     		lsrs	r3, r3, #16
 2190 0bba 1B04     		lsls	r3, r3, #16
 2191 0bbc 1B02     		lsls	r3, r3, #8
 2192 0bbe 0B43     		orrs	r3, r3, r1
 2193 0bc0 43F48023 		orr	r3, r3, #262144
 2194 0bc4 1360     		str	r3, [r2]
 2195 0bc6 0AE0     		b	.L140
 2196              	.L139:
 2197              		.loc 1 1255 0
 2198 0bc8 039B     		ldr	r3, [sp, #12]
 2199 0bca 1A68     		ldr	r2, [r3]
 2200 0bcc 039B     		ldr	r3, [sp, #12]
 2201 0bce 1B68     		ldr	r3, [r3]
ARM GAS  /tmp/ccjyqKqb.s 			page 40


 2202 0bd0 1968     		ldr	r1, [r3]
 2203 0bd2 029B     		ldr	r3, [sp, #8]
 2204 0bd4 1B0C     		lsrs	r3, r3, #16
 2205 0bd6 1B04     		lsls	r3, r3, #16
 2206 0bd8 1B02     		lsls	r3, r3, #8
 2207 0bda 0B43     		orrs	r3, r3, r1
 2208 0bdc 1360     		str	r3, [r2]
 2209              	.L140:
 2210              		.loc 1 1258 0
 2211 0bde 039B     		ldr	r3, [sp, #12]
 2212 0be0 019A     		ldr	r2, [sp, #4]
 2213 0be2 1A63     		str	r2, [r3, #48]
 2214 0be4 02E0     		b	.L141
 2215              	.L138:
 2216              		.loc 1 1262 0
 2217 0be6 0123     		movs	r3, #1
 2218 0be8 8DF81730 		strb	r3, [sp, #23]
 2219              	.L141:
 2220              		.loc 1 1266 0
 2221 0bec 9DF81730 		ldrb	r3, [sp, #23]	@ zero_extendqisi2
 2222              		.loc 1 1267 0
 2223 0bf0 1846     		mov	r0, r3
 2224 0bf2 06B0     		add	sp, sp, #24
 2225              		@ sp needed
 2226 0bf4 7047     		bx	lr
 2227              		.cfi_endproc
 2228              	.LFE148:
 2229              		.size	HAL_DFSDM_FilterConfigRegChannel, .-HAL_DFSDM_FilterConfigRegChannel
 2230 0bf6 00BF     		.align	2
 2231 0bf8 AFF30080 		.p2align 4,,15
 2231      AFF30080 
 2232              		.global	HAL_DFSDM_FilterConfigInjChannel
 2233              		.thumb
 2234              		.thumb_func
 2235              		.type	HAL_DFSDM_FilterConfigInjChannel, %function
 2236              	HAL_DFSDM_FilterConfigInjChannel:
 2237              	.LFB149:
 2238              		.loc 1 1278 0
 2239              		.cfi_startproc
 2240              		@ args = 0, pretend = 0, frame = 16
 2241              		@ frame_needed = 0, uses_anonymous_args = 0
 2242 0c00 00B5     		push	{lr}
 2243              		.cfi_def_cfa_offset 4
 2244              		.cfi_offset 14, -4
 2245 0c02 85B0     		sub	sp, sp, #20
 2246              		.cfi_def_cfa_offset 24
 2247 0c04 0190     		str	r0, [sp, #4]
 2248 0c06 0091     		str	r1, [sp]
 2249              		.loc 1 1279 0
 2250 0c08 0023     		movs	r3, #0
 2251 0c0a 8DF80F30 		strb	r3, [sp, #15]
 2252              		.loc 1 1286 0
 2253 0c0e 019B     		ldr	r3, [sp, #4]
 2254 0c10 93F84C30 		ldrb	r3, [r3, #76]	@ zero_extendqisi2
 2255 0c14 002B     		cmp	r3, #0
 2256 0c16 1BD0     		beq	.L144
 2257              		.loc 1 1287 0 discriminator 1
ARM GAS  /tmp/ccjyqKqb.s 			page 41


 2258 0c18 019B     		ldr	r3, [sp, #4]
 2259 0c1a 93F84C30 		ldrb	r3, [r3, #76]	@ zero_extendqisi2
 2260              		.loc 1 1286 0 discriminator 1
 2261 0c1e FF2B     		cmp	r3, #255
 2262 0c20 16D0     		beq	.L144
 2263              		.loc 1 1290 0
 2264 0c22 019B     		ldr	r3, [sp, #4]
 2265 0c24 1B68     		ldr	r3, [r3]
 2266 0c26 009A     		ldr	r2, [sp]
 2267 0c28 92B2     		uxth	r2, r2
 2268 0c2a 1A61     		str	r2, [r3, #16]
 2269              		.loc 1 1292 0
 2270 0c2c 0098     		ldr	r0, [sp]
 2271 0c2e 01F0D7F8 		bl	DFSDM_GetInjChannelsNbr
 2272 0c32 0246     		mov	r2, r0
 2273 0c34 019B     		ldr	r3, [sp, #4]
 2274 0c36 5A64     		str	r2, [r3, #68]
 2275              		.loc 1 1294 0
 2276 0c38 019B     		ldr	r3, [sp, #4]
 2277 0c3a 93F84030 		ldrb	r3, [r3, #64]	@ zero_extendqisi2
 2278              		.loc 1 1295 0
 2279 0c3e 012B     		cmp	r3, #1
 2280 0c40 02D1     		bne	.L145
 2281              		.loc 1 1295 0 is_stmt 0 discriminator 1
 2282 0c42 019B     		ldr	r3, [sp, #4]
 2283 0c44 5B6C     		ldr	r3, [r3, #68]
 2284 0c46 00E0     		b	.L146
 2285              	.L145:
 2286              		.loc 1 1295 0 discriminator 2
 2287 0c48 0123     		movs	r3, #1
 2288              	.L146:
 2289              		.loc 1 1294 0 is_stmt 1
 2290 0c4a 019A     		ldr	r2, [sp, #4]
 2291 0c4c 9364     		str	r3, [r2, #72]
 2292 0c4e 02E0     		b	.L147
 2293              	.L144:
 2294              		.loc 1 1299 0
 2295 0c50 0123     		movs	r3, #1
 2296 0c52 8DF80F30 		strb	r3, [sp, #15]
 2297              	.L147:
 2298              		.loc 1 1302 0
 2299 0c56 9DF80F30 		ldrb	r3, [sp, #15]	@ zero_extendqisi2
 2300              		.loc 1 1303 0
 2301 0c5a 1846     		mov	r0, r3
 2302 0c5c 05B0     		add	sp, sp, #20
 2303              		@ sp needed
 2304 0c5e 5DF804FB 		ldr	pc, [sp], #4
 2305              		.cfi_endproc
 2306              	.LFE149:
 2307              		.size	HAL_DFSDM_FilterConfigInjChannel, .-HAL_DFSDM_FilterConfigInjChannel
 2308 0c62 00BF     		.align	2
 2309 0c64 AFF30080 		.p2align 4,,15
 2309      AFF30080 
 2309      AFF30080 
 2310              		.global	HAL_DFSDM_FilterRegularStart
 2311              		.thumb
 2312              		.thumb_func
ARM GAS  /tmp/ccjyqKqb.s 			page 42


 2313              		.type	HAL_DFSDM_FilterRegularStart, %function
 2314              	HAL_DFSDM_FilterRegularStart:
 2315              	.LFB150:
 2316              		.loc 1 1347 0
 2317              		.cfi_startproc
 2318              		@ args = 0, pretend = 0, frame = 16
 2319              		@ frame_needed = 0, uses_anonymous_args = 0
 2320 0c70 00B5     		push	{lr}
 2321              		.cfi_def_cfa_offset 4
 2322              		.cfi_offset 14, -4
 2323 0c72 85B0     		sub	sp, sp, #20
 2324              		.cfi_def_cfa_offset 24
 2325 0c74 0190     		str	r0, [sp, #4]
 2326              		.loc 1 1348 0
 2327 0c76 0023     		movs	r3, #0
 2328 0c78 8DF80F30 		strb	r3, [sp, #15]
 2329              		.loc 1 1354 0
 2330 0c7c 019B     		ldr	r3, [sp, #4]
 2331 0c7e 93F84C30 		ldrb	r3, [r3, #76]	@ zero_extendqisi2
 2332 0c82 012B     		cmp	r3, #1
 2333 0c84 04D0     		beq	.L150
 2334              		.loc 1 1355 0 discriminator 1
 2335 0c86 019B     		ldr	r3, [sp, #4]
 2336 0c88 93F84C30 		ldrb	r3, [r3, #76]	@ zero_extendqisi2
 2337              		.loc 1 1354 0 discriminator 1
 2338 0c8c 032B     		cmp	r3, #3
 2339 0c8e 03D1     		bne	.L151
 2340              	.L150:
 2341              		.loc 1 1358 0
 2342 0c90 0198     		ldr	r0, [sp, #4]
 2343 0c92 01F015F9 		bl	DFSDM_RegConvStart
 2344 0c96 02E0     		b	.L152
 2345              	.L151:
 2346              		.loc 1 1362 0
 2347 0c98 0123     		movs	r3, #1
 2348 0c9a 8DF80F30 		strb	r3, [sp, #15]
 2349              	.L152:
 2350              		.loc 1 1365 0
 2351 0c9e 9DF80F30 		ldrb	r3, [sp, #15]	@ zero_extendqisi2
 2352              		.loc 1 1366 0
 2353 0ca2 1846     		mov	r0, r3
 2354 0ca4 05B0     		add	sp, sp, #20
 2355              		@ sp needed
 2356 0ca6 5DF804FB 		ldr	pc, [sp], #4
 2357              		.cfi_endproc
 2358              	.LFE150:
 2359              		.size	HAL_DFSDM_FilterRegularStart, .-HAL_DFSDM_FilterRegularStart
 2360 0caa 00BF     		.align	2
 2361 0cac AFF30080 		.p2align 4,,15
 2362              		.global	HAL_DFSDM_FilterPollForRegConversion
 2363              		.thumb
 2364              		.thumb_func
 2365              		.type	HAL_DFSDM_FilterPollForRegConversion, %function
 2366              	HAL_DFSDM_FilterPollForRegConversion:
 2367              	.LFB151:
 2368              		.loc 1 1377 0
 2369              		.cfi_startproc
ARM GAS  /tmp/ccjyqKqb.s 			page 43


 2370              		@ args = 0, pretend = 0, frame = 16
 2371              		@ frame_needed = 0, uses_anonymous_args = 0
 2372 0cb0 00B5     		push	{lr}
 2373              		.cfi_def_cfa_offset 4
 2374              		.cfi_offset 14, -4
 2375 0cb2 85B0     		sub	sp, sp, #20
 2376              		.cfi_def_cfa_offset 24
 2377 0cb4 0190     		str	r0, [sp, #4]
 2378 0cb6 0091     		str	r1, [sp]
 2379              		.loc 1 1384 0
 2380 0cb8 019B     		ldr	r3, [sp, #4]
 2381 0cba 93F84C30 		ldrb	r3, [r3, #76]	@ zero_extendqisi2
 2382 0cbe 022B     		cmp	r3, #2
 2383 0cc0 06D0     		beq	.L155
 2384              		.loc 1 1385 0 discriminator 1
 2385 0cc2 019B     		ldr	r3, [sp, #4]
 2386 0cc4 93F84C30 		ldrb	r3, [r3, #76]	@ zero_extendqisi2
 2387              		.loc 1 1384 0 discriminator 1
 2388 0cc8 042B     		cmp	r3, #4
 2389 0cca 01D0     		beq	.L155
 2390              		.loc 1 1388 0
 2391 0ccc 0123     		movs	r3, #1
 2392 0cce 40E0     		b	.L156
 2393              	.L155:
 2394              		.loc 1 1393 0
 2395 0cd0 FFF7FEFF 		bl	HAL_GetTick
 2396 0cd4 0390     		str	r0, [sp, #12]
 2397              		.loc 1 1396 0
 2398 0cd6 10E0     		b	.L157
 2399              	.L159:
 2400              		.loc 1 1399 0
 2401 0cd8 009B     		ldr	r3, [sp]
 2402 0cda B3F1FF3F 		cmp	r3, #-1
 2403 0cde 0CD0     		beq	.L157
 2404              		.loc 1 1401 0
 2405 0ce0 009B     		ldr	r3, [sp]
 2406 0ce2 002B     		cmp	r3, #0
 2407 0ce4 07D0     		beq	.L158
 2408              		.loc 1 1401 0 is_stmt 0 discriminator 1
 2409 0ce6 FFF7FEFF 		bl	HAL_GetTick
 2410 0cea 0246     		mov	r2, r0
 2411 0cec 039B     		ldr	r3, [sp, #12]
 2412 0cee D21A     		subs	r2, r2, r3
 2413 0cf0 009B     		ldr	r3, [sp]
 2414 0cf2 9A42     		cmp	r2, r3
 2415 0cf4 01D9     		bls	.L157
 2416              	.L158:
 2417              		.loc 1 1404 0 is_stmt 1
 2418 0cf6 0323     		movs	r3, #3
 2419 0cf8 2BE0     		b	.L156
 2420              	.L157:
 2421              		.loc 1 1396 0 discriminator 1
 2422 0cfa 019B     		ldr	r3, [sp, #4]
 2423 0cfc 1B68     		ldr	r3, [r3]
 2424 0cfe 9B68     		ldr	r3, [r3, #8]
 2425 0d00 03F00203 		and	r3, r3, #2
 2426 0d04 002B     		cmp	r3, #0
ARM GAS  /tmp/ccjyqKqb.s 			page 44


 2427 0d06 E7D0     		beq	.L159
 2428              		.loc 1 1409 0
 2429 0d08 019B     		ldr	r3, [sp, #4]
 2430 0d0a 1B68     		ldr	r3, [r3]
 2431 0d0c 9B68     		ldr	r3, [r3, #8]
 2432 0d0e 03F00803 		and	r3, r3, #8
 2433 0d12 002B     		cmp	r3, #0
 2434 0d14 09D0     		beq	.L160
 2435              		.loc 1 1412 0
 2436 0d16 019B     		ldr	r3, [sp, #4]
 2437 0d18 0122     		movs	r2, #1
 2438 0d1a 1A65     		str	r2, [r3, #80]
 2439              		.loc 1 1413 0
 2440 0d1c 0198     		ldr	r0, [sp, #4]
 2441 0d1e FFF7FEFF 		bl	HAL_DFSDM_FilterErrorCallback
 2442              		.loc 1 1416 0
 2443 0d22 019B     		ldr	r3, [sp, #4]
 2444 0d24 1B68     		ldr	r3, [r3]
 2445 0d26 0822     		movs	r2, #8
 2446 0d28 DA60     		str	r2, [r3, #12]
 2447              	.L160:
 2448              		.loc 1 1419 0
 2449 0d2a 019B     		ldr	r3, [sp, #4]
 2450 0d2c 1B6B     		ldr	r3, [r3, #48]
 2451 0d2e 002B     		cmp	r3, #0
 2452 0d30 0ED1     		bne	.L161
 2453              		.loc 1 1420 0 discriminator 1
 2454 0d32 019B     		ldr	r3, [sp, #4]
 2455 0d34 5B6B     		ldr	r3, [r3, #52]
 2456              		.loc 1 1419 0 discriminator 1
 2457 0d36 002B     		cmp	r3, #0
 2458 0d38 0AD1     		bne	.L161
 2459              		.loc 1 1422 0
 2460 0d3a 019B     		ldr	r3, [sp, #4]
 2461 0d3c 93F84C30 		ldrb	r3, [r3, #76]	@ zero_extendqisi2
 2462 0d40 022B     		cmp	r3, #2
 2463 0d42 01D1     		bne	.L162
 2464              		.loc 1 1422 0 is_stmt 0 discriminator 1
 2465 0d44 0123     		movs	r3, #1
 2466 0d46 00E0     		b	.L163
 2467              	.L162:
 2468              		.loc 1 1422 0 discriminator 2
 2469 0d48 0323     		movs	r3, #3
 2470              	.L163:
 2471              		.loc 1 1422 0 discriminator 3
 2472 0d4a 019A     		ldr	r2, [sp, #4]
 2473 0d4c 82F84C30 		strb	r3, [r2, #76]
 2474              	.L161:
 2475              		.loc 1 1426 0 is_stmt 1
 2476 0d50 0023     		movs	r3, #0
 2477              	.L156:
 2478              		.loc 1 1428 0
 2479 0d52 1846     		mov	r0, r3
 2480 0d54 05B0     		add	sp, sp, #20
 2481              		@ sp needed
 2482 0d56 5DF804FB 		ldr	pc, [sp], #4
 2483              		.cfi_endproc
ARM GAS  /tmp/ccjyqKqb.s 			page 45


 2484              	.LFE151:
 2485              		.size	HAL_DFSDM_FilterPollForRegConversion, .-HAL_DFSDM_FilterPollForRegConversion
 2486 0d5a 00BF     		.align	2
 2487 0d5c AFF30080 		.p2align 4,,15
 2488              		.global	HAL_DFSDM_FilterRegularStop
 2489              		.thumb
 2490              		.thumb_func
 2491              		.type	HAL_DFSDM_FilterRegularStop, %function
 2492              	HAL_DFSDM_FilterRegularStop:
 2493              	.LFB152:
 2494              		.loc 1 1437 0
 2495              		.cfi_startproc
 2496              		@ args = 0, pretend = 0, frame = 16
 2497              		@ frame_needed = 0, uses_anonymous_args = 0
 2498 0d60 00B5     		push	{lr}
 2499              		.cfi_def_cfa_offset 4
 2500              		.cfi_offset 14, -4
 2501 0d62 85B0     		sub	sp, sp, #20
 2502              		.cfi_def_cfa_offset 24
 2503 0d64 0190     		str	r0, [sp, #4]
 2504              		.loc 1 1438 0
 2505 0d66 0023     		movs	r3, #0
 2506 0d68 8DF80F30 		strb	r3, [sp, #15]
 2507              		.loc 1 1444 0
 2508 0d6c 019B     		ldr	r3, [sp, #4]
 2509 0d6e 93F84C30 		ldrb	r3, [r3, #76]	@ zero_extendqisi2
 2510 0d72 022B     		cmp	r3, #2
 2511 0d74 08D0     		beq	.L165
 2512              		.loc 1 1445 0 discriminator 1
 2513 0d76 019B     		ldr	r3, [sp, #4]
 2514 0d78 93F84C30 		ldrb	r3, [r3, #76]	@ zero_extendqisi2
 2515              		.loc 1 1444 0 discriminator 1
 2516 0d7c 042B     		cmp	r3, #4
 2517 0d7e 03D0     		beq	.L165
 2518              		.loc 1 1448 0
 2519 0d80 0123     		movs	r3, #1
 2520 0d82 8DF80F30 		strb	r3, [sp, #15]
 2521 0d86 02E0     		b	.L166
 2522              	.L165:
 2523              		.loc 1 1453 0
 2524 0d88 0198     		ldr	r0, [sp, #4]
 2525 0d8a 01F0E9F8 		bl	DFSDM_RegConvStop
 2526              	.L166:
 2527              		.loc 1 1456 0
 2528 0d8e 9DF80F30 		ldrb	r3, [sp, #15]	@ zero_extendqisi2
 2529              		.loc 1 1457 0
 2530 0d92 1846     		mov	r0, r3
 2531 0d94 05B0     		add	sp, sp, #20
 2532              		@ sp needed
 2533 0d96 5DF804FB 		ldr	pc, [sp], #4
 2534              		.cfi_endproc
 2535              	.LFE152:
 2536              		.size	HAL_DFSDM_FilterRegularStop, .-HAL_DFSDM_FilterRegularStop
 2537 0d9a 00BF     		.align	2
 2538 0d9c AFF30080 		.p2align 4,,15
 2539              		.global	HAL_DFSDM_FilterRegularStart_IT
 2540              		.thumb
ARM GAS  /tmp/ccjyqKqb.s 			page 46


 2541              		.thumb_func
 2542              		.type	HAL_DFSDM_FilterRegularStart_IT, %function
 2543              	HAL_DFSDM_FilterRegularStart_IT:
 2544              	.LFB153:
 2545              		.loc 1 1467 0
 2546              		.cfi_startproc
 2547              		@ args = 0, pretend = 0, frame = 16
 2548              		@ frame_needed = 0, uses_anonymous_args = 0
 2549 0da0 00B5     		push	{lr}
 2550              		.cfi_def_cfa_offset 4
 2551              		.cfi_offset 14, -4
 2552 0da2 85B0     		sub	sp, sp, #20
 2553              		.cfi_def_cfa_offset 24
 2554 0da4 0190     		str	r0, [sp, #4]
 2555              		.loc 1 1468 0
 2556 0da6 0023     		movs	r3, #0
 2557 0da8 8DF80F30 		strb	r3, [sp, #15]
 2558              		.loc 1 1474 0
 2559 0dac 019B     		ldr	r3, [sp, #4]
 2560 0dae 93F84C30 		ldrb	r3, [r3, #76]	@ zero_extendqisi2
 2561 0db2 012B     		cmp	r3, #1
 2562 0db4 04D0     		beq	.L169
 2563              		.loc 1 1475 0 discriminator 1
 2564 0db6 019B     		ldr	r3, [sp, #4]
 2565 0db8 93F84C30 		ldrb	r3, [r3, #76]	@ zero_extendqisi2
 2566              		.loc 1 1474 0 discriminator 1
 2567 0dbc 032B     		cmp	r3, #3
 2568 0dbe 0BD1     		bne	.L170
 2569              	.L169:
 2570              		.loc 1 1478 0
 2571 0dc0 019B     		ldr	r3, [sp, #4]
 2572 0dc2 1B68     		ldr	r3, [r3]
 2573 0dc4 019A     		ldr	r2, [sp, #4]
 2574 0dc6 1268     		ldr	r2, [r2]
 2575 0dc8 5268     		ldr	r2, [r2, #4]
 2576 0dca 42F00A02 		orr	r2, r2, #10
 2577 0dce 5A60     		str	r2, [r3, #4]
 2578              		.loc 1 1481 0
 2579 0dd0 0198     		ldr	r0, [sp, #4]
 2580 0dd2 01F075F8 		bl	DFSDM_RegConvStart
 2581 0dd6 02E0     		b	.L171
 2582              	.L170:
 2583              		.loc 1 1485 0
 2584 0dd8 0123     		movs	r3, #1
 2585 0dda 8DF80F30 		strb	r3, [sp, #15]
 2586              	.L171:
 2587              		.loc 1 1488 0
 2588 0dde 9DF80F30 		ldrb	r3, [sp, #15]	@ zero_extendqisi2
 2589              		.loc 1 1489 0
 2590 0de2 1846     		mov	r0, r3
 2591 0de4 05B0     		add	sp, sp, #20
 2592              		@ sp needed
 2593 0de6 5DF804FB 		ldr	pc, [sp], #4
 2594              		.cfi_endproc
 2595              	.LFE153:
 2596              		.size	HAL_DFSDM_FilterRegularStart_IT, .-HAL_DFSDM_FilterRegularStart_IT
 2597 0dea 00BF     		.align	2
ARM GAS  /tmp/ccjyqKqb.s 			page 47


 2598 0dec AFF30080 		.p2align 4,,15
 2599              		.global	HAL_DFSDM_FilterRegularStop_IT
 2600              		.thumb
 2601              		.thumb_func
 2602              		.type	HAL_DFSDM_FilterRegularStop_IT, %function
 2603              	HAL_DFSDM_FilterRegularStop_IT:
 2604              	.LFB154:
 2605              		.loc 1 1498 0
 2606              		.cfi_startproc
 2607              		@ args = 0, pretend = 0, frame = 16
 2608              		@ frame_needed = 0, uses_anonymous_args = 0
 2609 0df0 00B5     		push	{lr}
 2610              		.cfi_def_cfa_offset 4
 2611              		.cfi_offset 14, -4
 2612 0df2 85B0     		sub	sp, sp, #20
 2613              		.cfi_def_cfa_offset 24
 2614 0df4 0190     		str	r0, [sp, #4]
 2615              		.loc 1 1499 0
 2616 0df6 0023     		movs	r3, #0
 2617 0df8 8DF80F30 		strb	r3, [sp, #15]
 2618              		.loc 1 1505 0
 2619 0dfc 019B     		ldr	r3, [sp, #4]
 2620 0dfe 93F84C30 		ldrb	r3, [r3, #76]	@ zero_extendqisi2
 2621 0e02 022B     		cmp	r3, #2
 2622 0e04 08D0     		beq	.L174
 2623              		.loc 1 1506 0 discriminator 1
 2624 0e06 019B     		ldr	r3, [sp, #4]
 2625 0e08 93F84C30 		ldrb	r3, [r3, #76]	@ zero_extendqisi2
 2626              		.loc 1 1505 0 discriminator 1
 2627 0e0c 042B     		cmp	r3, #4
 2628 0e0e 03D0     		beq	.L174
 2629              		.loc 1 1509 0
 2630 0e10 0123     		movs	r3, #1
 2631 0e12 8DF80F30 		strb	r3, [sp, #15]
 2632 0e16 0AE0     		b	.L175
 2633              	.L174:
 2634              		.loc 1 1514 0
 2635 0e18 019B     		ldr	r3, [sp, #4]
 2636 0e1a 1B68     		ldr	r3, [r3]
 2637 0e1c 019A     		ldr	r2, [sp, #4]
 2638 0e1e 1268     		ldr	r2, [r2]
 2639 0e20 5268     		ldr	r2, [r2, #4]
 2640 0e22 22F00A02 		bic	r2, r2, #10
 2641 0e26 5A60     		str	r2, [r3, #4]
 2642              		.loc 1 1517 0
 2643 0e28 0198     		ldr	r0, [sp, #4]
 2644 0e2a 01F099F8 		bl	DFSDM_RegConvStop
 2645              	.L175:
 2646              		.loc 1 1520 0
 2647 0e2e 9DF80F30 		ldrb	r3, [sp, #15]	@ zero_extendqisi2
 2648              		.loc 1 1521 0
 2649 0e32 1846     		mov	r0, r3
 2650 0e34 05B0     		add	sp, sp, #20
 2651              		@ sp needed
 2652 0e36 5DF804FB 		ldr	pc, [sp], #4
 2653              		.cfi_endproc
 2654              	.LFE154:
ARM GAS  /tmp/ccjyqKqb.s 			page 48


 2655              		.size	HAL_DFSDM_FilterRegularStop_IT, .-HAL_DFSDM_FilterRegularStop_IT
 2656 0e3a 00BF     		.align	2
 2657 0e3c AFF30080 		.p2align 4,,15
 2658              		.global	HAL_DFSDM_FilterRegularStart_DMA
 2659              		.thumb
 2660              		.thumb_func
 2661              		.type	HAL_DFSDM_FilterRegularStart_DMA, %function
 2662              	HAL_DFSDM_FilterRegularStart_DMA:
 2663              	.LFB155:
 2664              		.loc 1 1538 0
 2665              		.cfi_startproc
 2666              		@ args = 0, pretend = 0, frame = 24
 2667              		@ frame_needed = 0, uses_anonymous_args = 0
 2668 0e40 00B5     		push	{lr}
 2669              		.cfi_def_cfa_offset 4
 2670              		.cfi_offset 14, -4
 2671 0e42 87B0     		sub	sp, sp, #28
 2672              		.cfi_def_cfa_offset 32
 2673 0e44 0390     		str	r0, [sp, #12]
 2674 0e46 0291     		str	r1, [sp, #8]
 2675 0e48 0192     		str	r2, [sp, #4]
 2676              		.loc 1 1539 0
 2677 0e4a 0023     		movs	r3, #0
 2678 0e4c 8DF81730 		strb	r3, [sp, #23]
 2679              		.loc 1 1545 0
 2680 0e50 029B     		ldr	r3, [sp, #8]
 2681 0e52 002B     		cmp	r3, #0
 2682 0e54 02D0     		beq	.L178
 2683              		.loc 1 1545 0 is_stmt 0 discriminator 1
 2684 0e56 019B     		ldr	r3, [sp, #4]
 2685 0e58 002B     		cmp	r3, #0
 2686 0e5a 03D1     		bne	.L179
 2687              	.L178:
 2688              		.loc 1 1547 0 is_stmt 1
 2689 0e5c 0123     		movs	r3, #1
 2690 0e5e 8DF81730 		strb	r3, [sp, #23]
 2691 0e62 6BE0     		b	.L180
 2692              	.L179:
 2693              		.loc 1 1550 0
 2694 0e64 039B     		ldr	r3, [sp, #12]
 2695 0e66 1B68     		ldr	r3, [r3]
 2696 0e68 1B68     		ldr	r3, [r3]
 2697 0e6a 03F40013 		and	r3, r3, #2097152
 2698 0e6e 002B     		cmp	r3, #0
 2699 0e70 03D1     		bne	.L181
 2700              		.loc 1 1552 0
 2701 0e72 0123     		movs	r3, #1
 2702 0e74 8DF81730 		strb	r3, [sp, #23]
 2703 0e78 60E0     		b	.L180
 2704              	.L181:
 2705              		.loc 1 1555 0
 2706 0e7a 039B     		ldr	r3, [sp, #12]
 2707 0e7c 5B6B     		ldr	r3, [r3, #52]
 2708 0e7e 002B     		cmp	r3, #0
 2709 0e80 0FD1     		bne	.L182
 2710              		.loc 1 1556 0 discriminator 1
 2711 0e82 039B     		ldr	r3, [sp, #12]
ARM GAS  /tmp/ccjyqKqb.s 			page 49


 2712 0e84 1B6B     		ldr	r3, [r3, #48]
 2713              		.loc 1 1555 0 discriminator 1
 2714 0e86 002B     		cmp	r3, #0
 2715 0e88 0BD1     		bne	.L182
 2716              		.loc 1 1557 0
 2717 0e8a 039B     		ldr	r3, [sp, #12]
 2718 0e8c 9B6A     		ldr	r3, [r3, #40]
 2719 0e8e DB69     		ldr	r3, [r3, #28]
 2720              		.loc 1 1556 0
 2721 0e90 002B     		cmp	r3, #0
 2722 0e92 06D1     		bne	.L182
 2723              		.loc 1 1557 0
 2724 0e94 019B     		ldr	r3, [sp, #4]
 2725 0e96 012B     		cmp	r3, #1
 2726 0e98 03D0     		beq	.L182
 2727              		.loc 1 1560 0
 2728 0e9a 0123     		movs	r3, #1
 2729 0e9c 8DF81730 		strb	r3, [sp, #23]
 2730 0ea0 4CE0     		b	.L180
 2731              	.L182:
 2732              		.loc 1 1562 0
 2733 0ea2 039B     		ldr	r3, [sp, #12]
 2734 0ea4 5B6B     		ldr	r3, [r3, #52]
 2735 0ea6 002B     		cmp	r3, #0
 2736 0ea8 0CD1     		bne	.L183
 2737              		.loc 1 1563 0 discriminator 1
 2738 0eaa 039B     		ldr	r3, [sp, #12]
 2739 0eac 1B6B     		ldr	r3, [r3, #48]
 2740              		.loc 1 1562 0 discriminator 1
 2741 0eae 002B     		cmp	r3, #0
 2742 0eb0 08D1     		bne	.L183
 2743              		.loc 1 1564 0
 2744 0eb2 039B     		ldr	r3, [sp, #12]
 2745 0eb4 9B6A     		ldr	r3, [r3, #40]
 2746 0eb6 DB69     		ldr	r3, [r3, #28]
 2747              		.loc 1 1563 0
 2748 0eb8 202B     		cmp	r3, #32
 2749 0eba 03D1     		bne	.L183
 2750              		.loc 1 1566 0
 2751 0ebc 0123     		movs	r3, #1
 2752 0ebe 8DF81730 		strb	r3, [sp, #23]
 2753 0ec2 3BE0     		b	.L180
 2754              	.L183:
 2755              		.loc 1 1569 0
 2756 0ec4 039B     		ldr	r3, [sp, #12]
 2757 0ec6 93F84C30 		ldrb	r3, [r3, #76]	@ zero_extendqisi2
 2758 0eca 012B     		cmp	r3, #1
 2759 0ecc 04D0     		beq	.L184
 2760              		.loc 1 1570 0 discriminator 1
 2761 0ece 039B     		ldr	r3, [sp, #12]
 2762 0ed0 93F84C30 		ldrb	r3, [r3, #76]	@ zero_extendqisi2
 2763              		.loc 1 1569 0 discriminator 1
 2764 0ed4 032B     		cmp	r3, #3
 2765 0ed6 2ED1     		bne	.L185
 2766              	.L184:
 2767              		.loc 1 1573 0
 2768 0ed8 039B     		ldr	r3, [sp, #12]
ARM GAS  /tmp/ccjyqKqb.s 			page 50


 2769 0eda 9B6A     		ldr	r3, [r3, #40]
 2770 0edc 1A4A     		ldr	r2, .L191
 2771 0ede DA62     		str	r2, [r3, #44]
 2772              		.loc 1 1574 0
 2773 0ee0 039B     		ldr	r3, [sp, #12]
 2774 0ee2 9B6A     		ldr	r3, [r3, #40]
 2775 0ee4 194A     		ldr	r2, .L191+4
 2776 0ee6 5A63     		str	r2, [r3, #52]
 2777              		.loc 1 1575 0
 2778 0ee8 039B     		ldr	r3, [sp, #12]
 2779 0eea 9A6A     		ldr	r2, [r3, #40]
 2780 0eec 039B     		ldr	r3, [sp, #12]
 2781 0eee 9B6A     		ldr	r3, [r3, #40]
 2782 0ef0 DB69     		ldr	r3, [r3, #28]
 2783              		.loc 1 1576 0
 2784 0ef2 202B     		cmp	r3, #32
 2785 0ef4 01D1     		bne	.L186
 2786              		.loc 1 1576 0 is_stmt 0 discriminator 1
 2787 0ef6 164B     		ldr	r3, .L191+8
 2788 0ef8 00E0     		b	.L187
 2789              	.L186:
 2790              		.loc 1 1576 0 discriminator 2
 2791 0efa 0023     		movs	r3, #0
 2792              	.L187:
 2793              		.loc 1 1575 0 is_stmt 1
 2794 0efc 1363     		str	r3, [r2, #48]
 2795              		.loc 1 1579 0
 2796 0efe 039B     		ldr	r3, [sp, #12]
 2797 0f00 996A     		ldr	r1, [r3, #40]
 2798 0f02 039B     		ldr	r3, [sp, #12]
 2799 0f04 1B68     		ldr	r3, [r3]
 2800 0f06 1C33     		adds	r3, r3, #28
 2801 0f08 1A46     		mov	r2, r3
 2802 0f0a 029B     		ldr	r3, [sp, #8]
 2803 0f0c 0846     		mov	r0, r1
 2804 0f0e 1146     		mov	r1, r2
 2805 0f10 1A46     		mov	r2, r3
 2806 0f12 019B     		ldr	r3, [sp, #4]
 2807 0f14 FFF7FEFF 		bl	HAL_DMA_Start_IT
 2808 0f18 0346     		mov	r3, r0
 2809 0f1a 002B     		cmp	r3, #0
 2810 0f1c 07D0     		beq	.L188
 2811              		.loc 1 1583 0
 2812 0f1e 039B     		ldr	r3, [sp, #12]
 2813 0f20 FF22     		movs	r2, #255
 2814 0f22 83F84C20 		strb	r2, [r3, #76]
 2815              		.loc 1 1584 0
 2816 0f26 0123     		movs	r3, #1
 2817 0f28 8DF81730 		strb	r3, [sp, #23]
 2818              		.loc 1 1579 0
 2819 0f2c 06E0     		b	.L180
 2820              	.L188:
 2821              		.loc 1 1589 0
 2822 0f2e 0398     		ldr	r0, [sp, #12]
 2823 0f30 00F0C6FF 		bl	DFSDM_RegConvStart
 2824              		.loc 1 1579 0
 2825 0f34 02E0     		b	.L180
ARM GAS  /tmp/ccjyqKqb.s 			page 51


 2826              	.L185:
 2827              		.loc 1 1594 0
 2828 0f36 0123     		movs	r3, #1
 2829 0f38 8DF81730 		strb	r3, [sp, #23]
 2830              	.L180:
 2831              		.loc 1 1597 0
 2832 0f3c 9DF81730 		ldrb	r3, [sp, #23]	@ zero_extendqisi2
 2833              		.loc 1 1598 0
 2834 0f40 1846     		mov	r0, r3
 2835 0f42 07B0     		add	sp, sp, #28
 2836              		@ sp needed
 2837 0f44 5DF804FB 		ldr	pc, [sp], #4
 2838              	.L192:
 2839              		.align	2
 2840              	.L191:
 2841 0f48 00000000 		.word	DFSDM_DMARegularConvCplt
 2842 0f4c 00000000 		.word	DFSDM_DMAError
 2843 0f50 00000000 		.word	DFSDM_DMARegularHalfConvCplt
 2844              		.cfi_endproc
 2845              	.LFE155:
 2846              		.size	HAL_DFSDM_FilterRegularStart_DMA, .-HAL_DFSDM_FilterRegularStart_DMA
 2847              		.align	2
 2848 0f54 AFF30080 		.p2align 4,,15
 2848      AFF30080 
 2848      AFF30080 
 2849              		.global	HAL_DFSDM_FilterRegularMsbStart_DMA
 2850              		.thumb
 2851              		.thumb_func
 2852              		.type	HAL_DFSDM_FilterRegularMsbStart_DMA, %function
 2853              	HAL_DFSDM_FilterRegularMsbStart_DMA:
 2854              	.LFB156:
 2855              		.loc 1 1615 0
 2856              		.cfi_startproc
 2857              		@ args = 0, pretend = 0, frame = 24
 2858              		@ frame_needed = 0, uses_anonymous_args = 0
 2859 0f60 00B5     		push	{lr}
 2860              		.cfi_def_cfa_offset 4
 2861              		.cfi_offset 14, -4
 2862 0f62 87B0     		sub	sp, sp, #28
 2863              		.cfi_def_cfa_offset 32
 2864 0f64 0390     		str	r0, [sp, #12]
 2865 0f66 0291     		str	r1, [sp, #8]
 2866 0f68 0192     		str	r2, [sp, #4]
 2867              		.loc 1 1616 0
 2868 0f6a 0023     		movs	r3, #0
 2869 0f6c 8DF81730 		strb	r3, [sp, #23]
 2870              		.loc 1 1622 0
 2871 0f70 029B     		ldr	r3, [sp, #8]
 2872 0f72 002B     		cmp	r3, #0
 2873 0f74 02D0     		beq	.L194
 2874              		.loc 1 1622 0 is_stmt 0 discriminator 1
 2875 0f76 019B     		ldr	r3, [sp, #4]
 2876 0f78 002B     		cmp	r3, #0
 2877 0f7a 03D1     		bne	.L195
 2878              	.L194:
 2879              		.loc 1 1624 0 is_stmt 1
 2880 0f7c 0123     		movs	r3, #1
ARM GAS  /tmp/ccjyqKqb.s 			page 52


 2881 0f7e 8DF81730 		strb	r3, [sp, #23]
 2882 0f82 6BE0     		b	.L196
 2883              	.L195:
 2884              		.loc 1 1627 0
 2885 0f84 039B     		ldr	r3, [sp, #12]
 2886 0f86 1B68     		ldr	r3, [r3]
 2887 0f88 1B68     		ldr	r3, [r3]
 2888 0f8a 03F40013 		and	r3, r3, #2097152
 2889 0f8e 002B     		cmp	r3, #0
 2890 0f90 03D1     		bne	.L197
 2891              		.loc 1 1629 0
 2892 0f92 0123     		movs	r3, #1
 2893 0f94 8DF81730 		strb	r3, [sp, #23]
 2894 0f98 60E0     		b	.L196
 2895              	.L197:
 2896              		.loc 1 1632 0
 2897 0f9a 039B     		ldr	r3, [sp, #12]
 2898 0f9c 5B6B     		ldr	r3, [r3, #52]
 2899 0f9e 002B     		cmp	r3, #0
 2900 0fa0 0FD1     		bne	.L198
 2901              		.loc 1 1633 0 discriminator 1
 2902 0fa2 039B     		ldr	r3, [sp, #12]
 2903 0fa4 1B6B     		ldr	r3, [r3, #48]
 2904              		.loc 1 1632 0 discriminator 1
 2905 0fa6 002B     		cmp	r3, #0
 2906 0fa8 0BD1     		bne	.L198
 2907              		.loc 1 1634 0
 2908 0faa 039B     		ldr	r3, [sp, #12]
 2909 0fac 9B6A     		ldr	r3, [r3, #40]
 2910 0fae DB69     		ldr	r3, [r3, #28]
 2911              		.loc 1 1633 0
 2912 0fb0 002B     		cmp	r3, #0
 2913 0fb2 06D1     		bne	.L198
 2914              		.loc 1 1634 0
 2915 0fb4 019B     		ldr	r3, [sp, #4]
 2916 0fb6 012B     		cmp	r3, #1
 2917 0fb8 03D0     		beq	.L198
 2918              		.loc 1 1637 0
 2919 0fba 0123     		movs	r3, #1
 2920 0fbc 8DF81730 		strb	r3, [sp, #23]
 2921 0fc0 4CE0     		b	.L196
 2922              	.L198:
 2923              		.loc 1 1639 0
 2924 0fc2 039B     		ldr	r3, [sp, #12]
 2925 0fc4 5B6B     		ldr	r3, [r3, #52]
 2926 0fc6 002B     		cmp	r3, #0
 2927 0fc8 0CD1     		bne	.L199
 2928              		.loc 1 1640 0 discriminator 1
 2929 0fca 039B     		ldr	r3, [sp, #12]
 2930 0fcc 1B6B     		ldr	r3, [r3, #48]
 2931              		.loc 1 1639 0 discriminator 1
 2932 0fce 002B     		cmp	r3, #0
 2933 0fd0 08D1     		bne	.L199
 2934              		.loc 1 1641 0
 2935 0fd2 039B     		ldr	r3, [sp, #12]
 2936 0fd4 9B6A     		ldr	r3, [r3, #40]
 2937 0fd6 DB69     		ldr	r3, [r3, #28]
ARM GAS  /tmp/ccjyqKqb.s 			page 53


 2938              		.loc 1 1640 0
 2939 0fd8 202B     		cmp	r3, #32
 2940 0fda 03D1     		bne	.L199
 2941              		.loc 1 1643 0
 2942 0fdc 0123     		movs	r3, #1
 2943 0fde 8DF81730 		strb	r3, [sp, #23]
 2944 0fe2 3BE0     		b	.L196
 2945              	.L199:
 2946              		.loc 1 1646 0
 2947 0fe4 039B     		ldr	r3, [sp, #12]
 2948 0fe6 93F84C30 		ldrb	r3, [r3, #76]	@ zero_extendqisi2
 2949 0fea 012B     		cmp	r3, #1
 2950 0fec 04D0     		beq	.L200
 2951              		.loc 1 1647 0 discriminator 1
 2952 0fee 039B     		ldr	r3, [sp, #12]
 2953 0ff0 93F84C30 		ldrb	r3, [r3, #76]	@ zero_extendqisi2
 2954              		.loc 1 1646 0 discriminator 1
 2955 0ff4 032B     		cmp	r3, #3
 2956 0ff6 2ED1     		bne	.L201
 2957              	.L200:
 2958              		.loc 1 1650 0
 2959 0ff8 039B     		ldr	r3, [sp, #12]
 2960 0ffa 9B6A     		ldr	r3, [r3, #40]
 2961 0ffc 1A4A     		ldr	r2, .L207
 2962 0ffe DA62     		str	r2, [r3, #44]
 2963              		.loc 1 1651 0
 2964 1000 039B     		ldr	r3, [sp, #12]
 2965 1002 9B6A     		ldr	r3, [r3, #40]
 2966 1004 194A     		ldr	r2, .L207+4
 2967 1006 5A63     		str	r2, [r3, #52]
 2968              		.loc 1 1652 0
 2969 1008 039B     		ldr	r3, [sp, #12]
 2970 100a 9A6A     		ldr	r2, [r3, #40]
 2971 100c 039B     		ldr	r3, [sp, #12]
 2972 100e 9B6A     		ldr	r3, [r3, #40]
 2973 1010 DB69     		ldr	r3, [r3, #28]
 2974              		.loc 1 1653 0
 2975 1012 202B     		cmp	r3, #32
 2976 1014 01D1     		bne	.L202
 2977              		.loc 1 1653 0 is_stmt 0 discriminator 1
 2978 1016 164B     		ldr	r3, .L207+8
 2979 1018 00E0     		b	.L203
 2980              	.L202:
 2981              		.loc 1 1653 0 discriminator 2
 2982 101a 0023     		movs	r3, #0
 2983              	.L203:
 2984              		.loc 1 1652 0 is_stmt 1
 2985 101c 1363     		str	r3, [r2, #48]
 2986              		.loc 1 1656 0
 2987 101e 039B     		ldr	r3, [sp, #12]
 2988 1020 996A     		ldr	r1, [r3, #40]
 2989 1022 039B     		ldr	r3, [sp, #12]
 2990 1024 1B68     		ldr	r3, [r3]
 2991 1026 1C33     		adds	r3, r3, #28
 2992 1028 9A1C     		adds	r2, r3, #2
 2993 102a 029B     		ldr	r3, [sp, #8]
 2994 102c 0846     		mov	r0, r1
ARM GAS  /tmp/ccjyqKqb.s 			page 54


 2995 102e 1146     		mov	r1, r2
 2996 1030 1A46     		mov	r2, r3
 2997 1032 019B     		ldr	r3, [sp, #4]
 2998 1034 FFF7FEFF 		bl	HAL_DMA_Start_IT
 2999 1038 0346     		mov	r3, r0
 3000 103a 002B     		cmp	r3, #0
 3001 103c 07D0     		beq	.L204
 3002              		.loc 1 1660 0
 3003 103e 039B     		ldr	r3, [sp, #12]
 3004 1040 FF22     		movs	r2, #255
 3005 1042 83F84C20 		strb	r2, [r3, #76]
 3006              		.loc 1 1661 0
 3007 1046 0123     		movs	r3, #1
 3008 1048 8DF81730 		strb	r3, [sp, #23]
 3009              		.loc 1 1656 0
 3010 104c 06E0     		b	.L196
 3011              	.L204:
 3012              		.loc 1 1666 0
 3013 104e 0398     		ldr	r0, [sp, #12]
 3014 1050 00F036FF 		bl	DFSDM_RegConvStart
 3015              		.loc 1 1656 0
 3016 1054 02E0     		b	.L196
 3017              	.L201:
 3018              		.loc 1 1671 0
 3019 1056 0123     		movs	r3, #1
 3020 1058 8DF81730 		strb	r3, [sp, #23]
 3021              	.L196:
 3022              		.loc 1 1674 0
 3023 105c 9DF81730 		ldrb	r3, [sp, #23]	@ zero_extendqisi2
 3024              		.loc 1 1675 0
 3025 1060 1846     		mov	r0, r3
 3026 1062 07B0     		add	sp, sp, #28
 3027              		@ sp needed
 3028 1064 5DF804FB 		ldr	pc, [sp], #4
 3029              	.L208:
 3030              		.align	2
 3031              	.L207:
 3032 1068 00000000 		.word	DFSDM_DMARegularConvCplt
 3033 106c 00000000 		.word	DFSDM_DMAError
 3034 1070 00000000 		.word	DFSDM_DMARegularHalfConvCplt
 3035              		.cfi_endproc
 3036              	.LFE156:
 3037              		.size	HAL_DFSDM_FilterRegularMsbStart_DMA, .-HAL_DFSDM_FilterRegularMsbStart_DMA
 3038              		.align	2
 3039 1074 AFF30080 		.p2align 4,,15
 3039      AFF30080 
 3039      AFF30080 
 3040              		.global	HAL_DFSDM_FilterRegularStop_DMA
 3041              		.thumb
 3042              		.thumb_func
 3043              		.type	HAL_DFSDM_FilterRegularStop_DMA, %function
 3044              	HAL_DFSDM_FilterRegularStop_DMA:
 3045              	.LFB157:
 3046              		.loc 1 1684 0
 3047              		.cfi_startproc
 3048              		@ args = 0, pretend = 0, frame = 16
 3049              		@ frame_needed = 0, uses_anonymous_args = 0
ARM GAS  /tmp/ccjyqKqb.s 			page 55


 3050 1080 00B5     		push	{lr}
 3051              		.cfi_def_cfa_offset 4
 3052              		.cfi_offset 14, -4
 3053 1082 85B0     		sub	sp, sp, #20
 3054              		.cfi_def_cfa_offset 24
 3055 1084 0190     		str	r0, [sp, #4]
 3056              		.loc 1 1685 0
 3057 1086 0023     		movs	r3, #0
 3058 1088 8DF80F30 		strb	r3, [sp, #15]
 3059              		.loc 1 1691 0
 3060 108c 019B     		ldr	r3, [sp, #4]
 3061 108e 93F84C30 		ldrb	r3, [r3, #76]	@ zero_extendqisi2
 3062 1092 022B     		cmp	r3, #2
 3063 1094 08D0     		beq	.L210
 3064              		.loc 1 1692 0 discriminator 1
 3065 1096 019B     		ldr	r3, [sp, #4]
 3066 1098 93F84C30 		ldrb	r3, [r3, #76]	@ zero_extendqisi2
 3067              		.loc 1 1691 0 discriminator 1
 3068 109c 042B     		cmp	r3, #4
 3069 109e 03D0     		beq	.L210
 3070              		.loc 1 1695 0
 3071 10a0 0123     		movs	r3, #1
 3072 10a2 8DF80F30 		strb	r3, [sp, #15]
 3073 10a6 12E0     		b	.L211
 3074              	.L210:
 3075              		.loc 1 1700 0
 3076 10a8 019B     		ldr	r3, [sp, #4]
 3077 10aa 9B6A     		ldr	r3, [r3, #40]
 3078 10ac 1846     		mov	r0, r3
 3079 10ae FFF7FEFF 		bl	HAL_DMA_Abort
 3080 10b2 0346     		mov	r3, r0
 3081 10b4 002B     		cmp	r3, #0
 3082 10b6 07D0     		beq	.L212
 3083              		.loc 1 1703 0
 3084 10b8 019B     		ldr	r3, [sp, #4]
 3085 10ba FF22     		movs	r2, #255
 3086 10bc 83F84C20 		strb	r2, [r3, #76]
 3087              		.loc 1 1704 0
 3088 10c0 0123     		movs	r3, #1
 3089 10c2 8DF80F30 		strb	r3, [sp, #15]
 3090 10c6 02E0     		b	.L211
 3091              	.L212:
 3092              		.loc 1 1709 0
 3093 10c8 0198     		ldr	r0, [sp, #4]
 3094 10ca 00F049FF 		bl	DFSDM_RegConvStop
 3095              	.L211:
 3096              		.loc 1 1713 0
 3097 10ce 9DF80F30 		ldrb	r3, [sp, #15]	@ zero_extendqisi2
 3098              		.loc 1 1714 0
 3099 10d2 1846     		mov	r0, r3
 3100 10d4 05B0     		add	sp, sp, #20
 3101              		@ sp needed
 3102 10d6 5DF804FB 		ldr	pc, [sp], #4
 3103              		.cfi_endproc
 3104              	.LFE157:
 3105              		.size	HAL_DFSDM_FilterRegularStop_DMA, .-HAL_DFSDM_FilterRegularStop_DMA
 3106 10da 00BF     		.align	2
ARM GAS  /tmp/ccjyqKqb.s 			page 56


 3107 10dc AFF30080 		.p2align 4,,15
 3108              		.global	HAL_DFSDM_FilterGetRegularValue
 3109              		.thumb
 3110              		.thumb_func
 3111              		.type	HAL_DFSDM_FilterGetRegularValue, %function
 3112              	HAL_DFSDM_FilterGetRegularValue:
 3113              	.LFB158:
 3114              		.loc 1 1724 0
 3115              		.cfi_startproc
 3116              		@ args = 0, pretend = 0, frame = 24
 3117              		@ frame_needed = 0, uses_anonymous_args = 0
 3118              		@ link register save eliminated.
 3119 10e0 86B0     		sub	sp, sp, #24
 3120              		.cfi_def_cfa_offset 24
 3121 10e2 0190     		str	r0, [sp, #4]
 3122 10e4 0091     		str	r1, [sp]
 3123              		.loc 1 1725 0
 3124 10e6 0023     		movs	r3, #0
 3125 10e8 0593     		str	r3, [sp, #20]
 3126              		.loc 1 1726 0
 3127 10ea 0023     		movs	r3, #0
 3128 10ec 0493     		str	r3, [sp, #16]
 3129              		.loc 1 1733 0
 3130 10ee 019B     		ldr	r3, [sp, #4]
 3131 10f0 1B68     		ldr	r3, [r3]
 3132 10f2 DB69     		ldr	r3, [r3, #28]
 3133 10f4 0593     		str	r3, [sp, #20]
 3134              		.loc 1 1736 0
 3135 10f6 059B     		ldr	r3, [sp, #20]
 3136 10f8 03F00702 		and	r2, r3, #7
 3137 10fc 009B     		ldr	r3, [sp]
 3138 10fe 1A60     		str	r2, [r3]
 3139              		.loc 1 1737 0
 3140 1100 059B     		ldr	r3, [sp, #20]
 3141 1102 23F0FF02 		bic	r2, r3, #255
 3142 1106 6FF0FF03 		mvn	r3, #255
 3143 110a 0393     		str	r3, [sp, #12]
 3144              	.LBB115:
 3145              	.LBB116:
 3146              		.loc 2 586 0
 3147 110c 039B     		ldr	r3, [sp, #12]
 3148              	@ 586 "../../../../../../ChibiOS/os/ext/CMSIS/include/core_cmInstr.h" 1
 3149 110e 93FAA3F3 		rbit r3, r3
 3150              	@ 0 "" 2
 3151              		.thumb
 3152 1112 0293     		str	r3, [sp, #8]
 3153              		.loc 2 599 0
 3154 1114 029B     		ldr	r3, [sp, #8]
 3155              	.LBE116:
 3156              	.LBE115:
 3157              		.loc 1 1737 0
 3158 1116 B3FA83F3 		clz	r3, r3
 3159 111a 22FA03F3 		lsr	r3, r2, r3
 3160 111e 0493     		str	r3, [sp, #16]
 3161              		.loc 1 1740 0
 3162 1120 049B     		ldr	r3, [sp, #16]
 3163              		.loc 1 1741 0
ARM GAS  /tmp/ccjyqKqb.s 			page 57


 3164 1122 1846     		mov	r0, r3
 3165 1124 06B0     		add	sp, sp, #24
 3166              		@ sp needed
 3167 1126 7047     		bx	lr
 3168              		.cfi_endproc
 3169              	.LFE158:
 3170              		.size	HAL_DFSDM_FilterGetRegularValue, .-HAL_DFSDM_FilterGetRegularValue
 3171              		.align	2
 3172 1128 AFF30080 		.p2align 4,,15
 3172      AFF30080 
 3173              		.global	HAL_DFSDM_FilterInjectedStart
 3174              		.thumb
 3175              		.thumb_func
 3176              		.type	HAL_DFSDM_FilterInjectedStart, %function
 3177              	HAL_DFSDM_FilterInjectedStart:
 3178              	.LFB159:
 3179              		.loc 1 1751 0
 3180              		.cfi_startproc
 3181              		@ args = 0, pretend = 0, frame = 16
 3182              		@ frame_needed = 0, uses_anonymous_args = 0
 3183 1130 00B5     		push	{lr}
 3184              		.cfi_def_cfa_offset 4
 3185              		.cfi_offset 14, -4
 3186 1132 85B0     		sub	sp, sp, #20
 3187              		.cfi_def_cfa_offset 24
 3188 1134 0190     		str	r0, [sp, #4]
 3189              		.loc 1 1752 0
 3190 1136 0023     		movs	r3, #0
 3191 1138 8DF80F30 		strb	r3, [sp, #15]
 3192              		.loc 1 1758 0
 3193 113c 019B     		ldr	r3, [sp, #4]
 3194 113e 93F84C30 		ldrb	r3, [r3, #76]	@ zero_extendqisi2
 3195 1142 012B     		cmp	r3, #1
 3196 1144 04D0     		beq	.L218
 3197              		.loc 1 1759 0 discriminator 1
 3198 1146 019B     		ldr	r3, [sp, #4]
 3199 1148 93F84C30 		ldrb	r3, [r3, #76]	@ zero_extendqisi2
 3200              		.loc 1 1758 0 discriminator 1
 3201 114c 022B     		cmp	r3, #2
 3202 114e 03D1     		bne	.L219
 3203              	.L218:
 3204              		.loc 1 1762 0
 3205 1150 0198     		ldr	r0, [sp, #4]
 3206 1152 00F04DFF 		bl	DFSDM_InjConvStart
 3207 1156 02E0     		b	.L220
 3208              	.L219:
 3209              		.loc 1 1766 0
 3210 1158 0123     		movs	r3, #1
 3211 115a 8DF80F30 		strb	r3, [sp, #15]
 3212              	.L220:
 3213              		.loc 1 1769 0
 3214 115e 9DF80F30 		ldrb	r3, [sp, #15]	@ zero_extendqisi2
 3215              		.loc 1 1770 0
 3216 1162 1846     		mov	r0, r3
 3217 1164 05B0     		add	sp, sp, #20
 3218              		@ sp needed
 3219 1166 5DF804FB 		ldr	pc, [sp], #4
ARM GAS  /tmp/ccjyqKqb.s 			page 58


 3220              		.cfi_endproc
 3221              	.LFE159:
 3222              		.size	HAL_DFSDM_FilterInjectedStart, .-HAL_DFSDM_FilterInjectedStart
 3223 116a 00BF     		.align	2
 3224 116c AFF30080 		.p2align 4,,15
 3225              		.global	HAL_DFSDM_FilterPollForInjConversion
 3226              		.thumb
 3227              		.thumb_func
 3228              		.type	HAL_DFSDM_FilterPollForInjConversion, %function
 3229              	HAL_DFSDM_FilterPollForInjConversion:
 3230              	.LFB160:
 3231              		.loc 1 1781 0
 3232              		.cfi_startproc
 3233              		@ args = 0, pretend = 0, frame = 16
 3234              		@ frame_needed = 0, uses_anonymous_args = 0
 3235 1170 00B5     		push	{lr}
 3236              		.cfi_def_cfa_offset 4
 3237              		.cfi_offset 14, -4
 3238 1172 85B0     		sub	sp, sp, #20
 3239              		.cfi_def_cfa_offset 24
 3240 1174 0190     		str	r0, [sp, #4]
 3241 1176 0091     		str	r1, [sp]
 3242              		.loc 1 1788 0
 3243 1178 019B     		ldr	r3, [sp, #4]
 3244 117a 93F84C30 		ldrb	r3, [r3, #76]	@ zero_extendqisi2
 3245 117e 032B     		cmp	r3, #3
 3246 1180 06D0     		beq	.L223
 3247              		.loc 1 1789 0 discriminator 1
 3248 1182 019B     		ldr	r3, [sp, #4]
 3249 1184 93F84C30 		ldrb	r3, [r3, #76]	@ zero_extendqisi2
 3250              		.loc 1 1788 0 discriminator 1
 3251 1188 042B     		cmp	r3, #4
 3252 118a 01D0     		beq	.L223
 3253              		.loc 1 1792 0
 3254 118c 0123     		movs	r3, #1
 3255 118e 50E0     		b	.L224
 3256              	.L223:
 3257              		.loc 1 1797 0
 3258 1190 FFF7FEFF 		bl	HAL_GetTick
 3259 1194 0390     		str	r0, [sp, #12]
 3260              		.loc 1 1800 0
 3261 1196 10E0     		b	.L225
 3262              	.L227:
 3263              		.loc 1 1803 0
 3264 1198 009B     		ldr	r3, [sp]
 3265 119a B3F1FF3F 		cmp	r3, #-1
 3266 119e 0CD0     		beq	.L225
 3267              		.loc 1 1805 0
 3268 11a0 009B     		ldr	r3, [sp]
 3269 11a2 002B     		cmp	r3, #0
 3270 11a4 07D0     		beq	.L226
 3271              		.loc 1 1805 0 is_stmt 0 discriminator 1
 3272 11a6 FFF7FEFF 		bl	HAL_GetTick
 3273 11aa 0246     		mov	r2, r0
 3274 11ac 039B     		ldr	r3, [sp, #12]
 3275 11ae D21A     		subs	r2, r2, r3
 3276 11b0 009B     		ldr	r3, [sp]
ARM GAS  /tmp/ccjyqKqb.s 			page 59


 3277 11b2 9A42     		cmp	r2, r3
 3278 11b4 01D9     		bls	.L225
 3279              	.L226:
 3280              		.loc 1 1808 0 is_stmt 1
 3281 11b6 0323     		movs	r3, #3
 3282 11b8 3BE0     		b	.L224
 3283              	.L225:
 3284              		.loc 1 1800 0 discriminator 1
 3285 11ba 019B     		ldr	r3, [sp, #4]
 3286 11bc 1B68     		ldr	r3, [r3]
 3287 11be 9B68     		ldr	r3, [r3, #8]
 3288 11c0 03F00103 		and	r3, r3, #1
 3289 11c4 002B     		cmp	r3, #0
 3290 11c6 E7D0     		beq	.L227
 3291              		.loc 1 1813 0
 3292 11c8 019B     		ldr	r3, [sp, #4]
 3293 11ca 1B68     		ldr	r3, [r3]
 3294 11cc 9B68     		ldr	r3, [r3, #8]
 3295 11ce 03F00403 		and	r3, r3, #4
 3296 11d2 002B     		cmp	r3, #0
 3297 11d4 09D0     		beq	.L228
 3298              		.loc 1 1816 0
 3299 11d6 019B     		ldr	r3, [sp, #4]
 3300 11d8 0222     		movs	r2, #2
 3301 11da 1A65     		str	r2, [r3, #80]
 3302              		.loc 1 1817 0
 3303 11dc 0198     		ldr	r0, [sp, #4]
 3304 11de FFF7FEFF 		bl	HAL_DFSDM_FilterErrorCallback
 3305              		.loc 1 1820 0
 3306 11e2 019B     		ldr	r3, [sp, #4]
 3307 11e4 1B68     		ldr	r3, [r3]
 3308 11e6 0422     		movs	r2, #4
 3309 11e8 DA60     		str	r2, [r3, #12]
 3310              	.L228:
 3311              		.loc 1 1824 0
 3312 11ea 019B     		ldr	r3, [sp, #4]
 3313 11ec 9B6C     		ldr	r3, [r3, #72]
 3314 11ee 5A1E     		subs	r2, r3, #1
 3315 11f0 019B     		ldr	r3, [sp, #4]
 3316 11f2 9A64     		str	r2, [r3, #72]
 3317              		.loc 1 1825 0
 3318 11f4 019B     		ldr	r3, [sp, #4]
 3319 11f6 9B6C     		ldr	r3, [r3, #72]
 3320 11f8 002B     		cmp	r3, #0
 3321 11fa 19D1     		bne	.L229
 3322              		.loc 1 1828 0
 3323 11fc 019B     		ldr	r3, [sp, #4]
 3324 11fe 9B6B     		ldr	r3, [r3, #56]
 3325 1200 002B     		cmp	r3, #0
 3326 1202 0AD1     		bne	.L230
 3327              		.loc 1 1830 0
 3328 1204 019B     		ldr	r3, [sp, #4]
 3329 1206 93F84C30 		ldrb	r3, [r3, #76]	@ zero_extendqisi2
 3330 120a 032B     		cmp	r3, #3
 3331 120c 01D1     		bne	.L231
 3332              		.loc 1 1830 0 is_stmt 0 discriminator 1
 3333 120e 0123     		movs	r3, #1
ARM GAS  /tmp/ccjyqKqb.s 			page 60


 3334 1210 00E0     		b	.L232
 3335              	.L231:
 3336              		.loc 1 1830 0 discriminator 2
 3337 1212 0223     		movs	r3, #2
 3338              	.L232:
 3339              		.loc 1 1830 0 discriminator 3
 3340 1214 019A     		ldr	r2, [sp, #4]
 3341 1216 82F84C30 		strb	r3, [r2, #76]
 3342              	.L230:
 3343              		.loc 1 1835 0 is_stmt 1
 3344 121a 019B     		ldr	r3, [sp, #4]
 3345 121c 93F84030 		ldrb	r3, [r3, #64]	@ zero_extendqisi2
 3346              		.loc 1 1836 0
 3347 1220 012B     		cmp	r3, #1
 3348 1222 02D1     		bne	.L233
 3349              		.loc 1 1836 0 is_stmt 0 discriminator 1
 3350 1224 019B     		ldr	r3, [sp, #4]
 3351 1226 5B6C     		ldr	r3, [r3, #68]
 3352 1228 00E0     		b	.L234
 3353              	.L233:
 3354              		.loc 1 1836 0 discriminator 2
 3355 122a 0123     		movs	r3, #1
 3356              	.L234:
 3357              		.loc 1 1835 0 is_stmt 1
 3358 122c 019A     		ldr	r2, [sp, #4]
 3359 122e 9364     		str	r3, [r2, #72]
 3360              	.L229:
 3361              		.loc 1 1840 0
 3362 1230 0023     		movs	r3, #0
 3363              	.L224:
 3364              		.loc 1 1842 0
 3365 1232 1846     		mov	r0, r3
 3366 1234 05B0     		add	sp, sp, #20
 3367              		@ sp needed
 3368 1236 5DF804FB 		ldr	pc, [sp], #4
 3369              		.cfi_endproc
 3370              	.LFE160:
 3371              		.size	HAL_DFSDM_FilterPollForInjConversion, .-HAL_DFSDM_FilterPollForInjConversion
 3372 123a 00BF     		.align	2
 3373 123c AFF30080 		.p2align 4,,15
 3374              		.global	HAL_DFSDM_FilterInjectedStop
 3375              		.thumb
 3376              		.thumb_func
 3377              		.type	HAL_DFSDM_FilterInjectedStop, %function
 3378              	HAL_DFSDM_FilterInjectedStop:
 3379              	.LFB161:
 3380              		.loc 1 1851 0
 3381              		.cfi_startproc
 3382              		@ args = 0, pretend = 0, frame = 16
 3383              		@ frame_needed = 0, uses_anonymous_args = 0
 3384 1240 00B5     		push	{lr}
 3385              		.cfi_def_cfa_offset 4
 3386              		.cfi_offset 14, -4
 3387 1242 85B0     		sub	sp, sp, #20
 3388              		.cfi_def_cfa_offset 24
 3389 1244 0190     		str	r0, [sp, #4]
 3390              		.loc 1 1852 0
ARM GAS  /tmp/ccjyqKqb.s 			page 61


 3391 1246 0023     		movs	r3, #0
 3392 1248 8DF80F30 		strb	r3, [sp, #15]
 3393              		.loc 1 1858 0
 3394 124c 019B     		ldr	r3, [sp, #4]
 3395 124e 93F84C30 		ldrb	r3, [r3, #76]	@ zero_extendqisi2
 3396 1252 032B     		cmp	r3, #3
 3397 1254 08D0     		beq	.L236
 3398              		.loc 1 1859 0 discriminator 1
 3399 1256 019B     		ldr	r3, [sp, #4]
 3400 1258 93F84C30 		ldrb	r3, [r3, #76]	@ zero_extendqisi2
 3401              		.loc 1 1858 0 discriminator 1
 3402 125c 042B     		cmp	r3, #4
 3403 125e 03D0     		beq	.L236
 3404              		.loc 1 1862 0
 3405 1260 0123     		movs	r3, #1
 3406 1262 8DF80F30 		strb	r3, [sp, #15]
 3407 1266 02E0     		b	.L237
 3408              	.L236:
 3409              		.loc 1 1867 0
 3410 1268 0198     		ldr	r0, [sp, #4]
 3411 126a 00F019FF 		bl	DFSDM_InjConvStop
 3412              	.L237:
 3413              		.loc 1 1870 0
 3414 126e 9DF80F30 		ldrb	r3, [sp, #15]	@ zero_extendqisi2
 3415              		.loc 1 1871 0
 3416 1272 1846     		mov	r0, r3
 3417 1274 05B0     		add	sp, sp, #20
 3418              		@ sp needed
 3419 1276 5DF804FB 		ldr	pc, [sp], #4
 3420              		.cfi_endproc
 3421              	.LFE161:
 3422              		.size	HAL_DFSDM_FilterInjectedStop, .-HAL_DFSDM_FilterInjectedStop
 3423 127a 00BF     		.align	2
 3424 127c AFF30080 		.p2align 4,,15
 3425              		.global	HAL_DFSDM_FilterInjectedStart_IT
 3426              		.thumb
 3427              		.thumb_func
 3428              		.type	HAL_DFSDM_FilterInjectedStart_IT, %function
 3429              	HAL_DFSDM_FilterInjectedStart_IT:
 3430              	.LFB162:
 3431              		.loc 1 1881 0
 3432              		.cfi_startproc
 3433              		@ args = 0, pretend = 0, frame = 16
 3434              		@ frame_needed = 0, uses_anonymous_args = 0
 3435 1280 00B5     		push	{lr}
 3436              		.cfi_def_cfa_offset 4
 3437              		.cfi_offset 14, -4
 3438 1282 85B0     		sub	sp, sp, #20
 3439              		.cfi_def_cfa_offset 24
 3440 1284 0190     		str	r0, [sp, #4]
 3441              		.loc 1 1882 0
 3442 1286 0023     		movs	r3, #0
 3443 1288 8DF80F30 		strb	r3, [sp, #15]
 3444              		.loc 1 1888 0
 3445 128c 019B     		ldr	r3, [sp, #4]
 3446 128e 93F84C30 		ldrb	r3, [r3, #76]	@ zero_extendqisi2
 3447 1292 012B     		cmp	r3, #1
ARM GAS  /tmp/ccjyqKqb.s 			page 62


 3448 1294 04D0     		beq	.L240
 3449              		.loc 1 1889 0 discriminator 1
 3450 1296 019B     		ldr	r3, [sp, #4]
 3451 1298 93F84C30 		ldrb	r3, [r3, #76]	@ zero_extendqisi2
 3452              		.loc 1 1888 0 discriminator 1
 3453 129c 022B     		cmp	r3, #2
 3454 129e 0BD1     		bne	.L241
 3455              	.L240:
 3456              		.loc 1 1892 0
 3457 12a0 019B     		ldr	r3, [sp, #4]
 3458 12a2 1B68     		ldr	r3, [r3]
 3459 12a4 019A     		ldr	r2, [sp, #4]
 3460 12a6 1268     		ldr	r2, [r2]
 3461 12a8 5268     		ldr	r2, [r2, #4]
 3462 12aa 42F00502 		orr	r2, r2, #5
 3463 12ae 5A60     		str	r2, [r3, #4]
 3464              		.loc 1 1895 0
 3465 12b0 0198     		ldr	r0, [sp, #4]
 3466 12b2 00F09DFE 		bl	DFSDM_InjConvStart
 3467 12b6 02E0     		b	.L242
 3468              	.L241:
 3469              		.loc 1 1899 0
 3470 12b8 0123     		movs	r3, #1
 3471 12ba 8DF80F30 		strb	r3, [sp, #15]
 3472              	.L242:
 3473              		.loc 1 1902 0
 3474 12be 9DF80F30 		ldrb	r3, [sp, #15]	@ zero_extendqisi2
 3475              		.loc 1 1903 0
 3476 12c2 1846     		mov	r0, r3
 3477 12c4 05B0     		add	sp, sp, #20
 3478              		@ sp needed
 3479 12c6 5DF804FB 		ldr	pc, [sp], #4
 3480              		.cfi_endproc
 3481              	.LFE162:
 3482              		.size	HAL_DFSDM_FilterInjectedStart_IT, .-HAL_DFSDM_FilterInjectedStart_IT
 3483 12ca 00BF     		.align	2
 3484 12cc AFF30080 		.p2align 4,,15
 3485              		.global	HAL_DFSDM_FilterInjectedStop_IT
 3486              		.thumb
 3487              		.thumb_func
 3488              		.type	HAL_DFSDM_FilterInjectedStop_IT, %function
 3489              	HAL_DFSDM_FilterInjectedStop_IT:
 3490              	.LFB163:
 3491              		.loc 1 1912 0
 3492              		.cfi_startproc
 3493              		@ args = 0, pretend = 0, frame = 16
 3494              		@ frame_needed = 0, uses_anonymous_args = 0
 3495 12d0 00B5     		push	{lr}
 3496              		.cfi_def_cfa_offset 4
 3497              		.cfi_offset 14, -4
 3498 12d2 85B0     		sub	sp, sp, #20
 3499              		.cfi_def_cfa_offset 24
 3500 12d4 0190     		str	r0, [sp, #4]
 3501              		.loc 1 1913 0
 3502 12d6 0023     		movs	r3, #0
 3503 12d8 8DF80F30 		strb	r3, [sp, #15]
 3504              		.loc 1 1919 0
ARM GAS  /tmp/ccjyqKqb.s 			page 63


 3505 12dc 019B     		ldr	r3, [sp, #4]
 3506 12de 93F84C30 		ldrb	r3, [r3, #76]	@ zero_extendqisi2
 3507 12e2 032B     		cmp	r3, #3
 3508 12e4 08D0     		beq	.L245
 3509              		.loc 1 1920 0 discriminator 1
 3510 12e6 019B     		ldr	r3, [sp, #4]
 3511 12e8 93F84C30 		ldrb	r3, [r3, #76]	@ zero_extendqisi2
 3512              		.loc 1 1919 0 discriminator 1
 3513 12ec 042B     		cmp	r3, #4
 3514 12ee 03D0     		beq	.L245
 3515              		.loc 1 1923 0
 3516 12f0 0123     		movs	r3, #1
 3517 12f2 8DF80F30 		strb	r3, [sp, #15]
 3518 12f6 0AE0     		b	.L246
 3519              	.L245:
 3520              		.loc 1 1928 0
 3521 12f8 019B     		ldr	r3, [sp, #4]
 3522 12fa 1B68     		ldr	r3, [r3]
 3523 12fc 019A     		ldr	r2, [sp, #4]
 3524 12fe 1268     		ldr	r2, [r2]
 3525 1300 5268     		ldr	r2, [r2, #4]
 3526 1302 22F00502 		bic	r2, r2, #5
 3527 1306 5A60     		str	r2, [r3, #4]
 3528              		.loc 1 1931 0
 3529 1308 0198     		ldr	r0, [sp, #4]
 3530 130a 00F0C9FE 		bl	DFSDM_InjConvStop
 3531              	.L246:
 3532              		.loc 1 1934 0
 3533 130e 9DF80F30 		ldrb	r3, [sp, #15]	@ zero_extendqisi2
 3534              		.loc 1 1935 0
 3535 1312 1846     		mov	r0, r3
 3536 1314 05B0     		add	sp, sp, #20
 3537              		@ sp needed
 3538 1316 5DF804FB 		ldr	pc, [sp], #4
 3539              		.cfi_endproc
 3540              	.LFE163:
 3541              		.size	HAL_DFSDM_FilterInjectedStop_IT, .-HAL_DFSDM_FilterInjectedStop_IT
 3542 131a 00BF     		.align	2
 3543 131c AFF30080 		.p2align 4,,15
 3544              		.global	HAL_DFSDM_FilterInjectedStart_DMA
 3545              		.thumb
 3546              		.thumb_func
 3547              		.type	HAL_DFSDM_FilterInjectedStart_DMA, %function
 3548              	HAL_DFSDM_FilterInjectedStart_DMA:
 3549              	.LFB164:
 3550              		.loc 1 1952 0
 3551              		.cfi_startproc
 3552              		@ args = 0, pretend = 0, frame = 24
 3553              		@ frame_needed = 0, uses_anonymous_args = 0
 3554 1320 00B5     		push	{lr}
 3555              		.cfi_def_cfa_offset 4
 3556              		.cfi_offset 14, -4
 3557 1322 87B0     		sub	sp, sp, #28
 3558              		.cfi_def_cfa_offset 32
 3559 1324 0390     		str	r0, [sp, #12]
 3560 1326 0291     		str	r1, [sp, #8]
 3561 1328 0192     		str	r2, [sp, #4]
ARM GAS  /tmp/ccjyqKqb.s 			page 64


 3562              		.loc 1 1953 0
 3563 132a 0023     		movs	r3, #0
 3564 132c 8DF81730 		strb	r3, [sp, #23]
 3565              		.loc 1 1959 0
 3566 1330 029B     		ldr	r3, [sp, #8]
 3567 1332 002B     		cmp	r3, #0
 3568 1334 02D0     		beq	.L249
 3569              		.loc 1 1959 0 is_stmt 0 discriminator 1
 3570 1336 019B     		ldr	r3, [sp, #4]
 3571 1338 002B     		cmp	r3, #0
 3572 133a 03D1     		bne	.L250
 3573              	.L249:
 3574              		.loc 1 1961 0 is_stmt 1
 3575 133c 0123     		movs	r3, #1
 3576 133e 8DF81730 		strb	r3, [sp, #23]
 3577 1342 65E0     		b	.L251
 3578              	.L250:
 3579              		.loc 1 1964 0
 3580 1344 039B     		ldr	r3, [sp, #12]
 3581 1346 1B68     		ldr	r3, [r3]
 3582 1348 1B68     		ldr	r3, [r3]
 3583 134a 03F02003 		and	r3, r3, #32
 3584 134e 002B     		cmp	r3, #0
 3585 1350 03D1     		bne	.L252
 3586              		.loc 1 1966 0
 3587 1352 0123     		movs	r3, #1
 3588 1354 8DF81730 		strb	r3, [sp, #23]
 3589 1358 5AE0     		b	.L251
 3590              	.L252:
 3591              		.loc 1 1969 0
 3592 135a 039B     		ldr	r3, [sp, #12]
 3593 135c 9B6B     		ldr	r3, [r3, #56]
 3594 135e 002B     		cmp	r3, #0
 3595 1360 0DD1     		bne	.L253
 3596              		.loc 1 1970 0 discriminator 1
 3597 1362 039B     		ldr	r3, [sp, #12]
 3598 1364 DB6A     		ldr	r3, [r3, #44]
 3599 1366 DB69     		ldr	r3, [r3, #28]
 3600              		.loc 1 1969 0 discriminator 1
 3601 1368 002B     		cmp	r3, #0
 3602 136a 08D1     		bne	.L253
 3603              		.loc 1 1971 0
 3604 136c 039B     		ldr	r3, [sp, #12]
 3605 136e 9A6C     		ldr	r2, [r3, #72]
 3606              		.loc 1 1970 0
 3607 1370 019B     		ldr	r3, [sp, #4]
 3608 1372 9A42     		cmp	r2, r3
 3609 1374 03D2     		bcs	.L253
 3610              		.loc 1 1973 0
 3611 1376 0123     		movs	r3, #1
 3612 1378 8DF81730 		strb	r3, [sp, #23]
 3613 137c 48E0     		b	.L251
 3614              	.L253:
 3615              		.loc 1 1975 0
 3616 137e 039B     		ldr	r3, [sp, #12]
 3617 1380 9B6B     		ldr	r3, [r3, #56]
 3618 1382 002B     		cmp	r3, #0
ARM GAS  /tmp/ccjyqKqb.s 			page 65


 3619 1384 08D1     		bne	.L254
 3620              		.loc 1 1976 0 discriminator 1
 3621 1386 039B     		ldr	r3, [sp, #12]
 3622 1388 DB6A     		ldr	r3, [r3, #44]
 3623 138a DB69     		ldr	r3, [r3, #28]
 3624              		.loc 1 1975 0 discriminator 1
 3625 138c 202B     		cmp	r3, #32
 3626 138e 03D1     		bne	.L254
 3627              		.loc 1 1978 0
 3628 1390 0123     		movs	r3, #1
 3629 1392 8DF81730 		strb	r3, [sp, #23]
 3630 1396 3BE0     		b	.L251
 3631              	.L254:
 3632              		.loc 1 1981 0
 3633 1398 039B     		ldr	r3, [sp, #12]
 3634 139a 93F84C30 		ldrb	r3, [r3, #76]	@ zero_extendqisi2
 3635 139e 012B     		cmp	r3, #1
 3636 13a0 04D0     		beq	.L255
 3637              		.loc 1 1982 0 discriminator 1
 3638 13a2 039B     		ldr	r3, [sp, #12]
 3639 13a4 93F84C30 		ldrb	r3, [r3, #76]	@ zero_extendqisi2
 3640              		.loc 1 1981 0 discriminator 1
 3641 13a8 022B     		cmp	r3, #2
 3642 13aa 2ED1     		bne	.L256
 3643              	.L255:
 3644              		.loc 1 1985 0
 3645 13ac 039B     		ldr	r3, [sp, #12]
 3646 13ae DB6A     		ldr	r3, [r3, #44]
 3647 13b0 1A4A     		ldr	r2, .L262
 3648 13b2 DA62     		str	r2, [r3, #44]
 3649              		.loc 1 1986 0
 3650 13b4 039B     		ldr	r3, [sp, #12]
 3651 13b6 DB6A     		ldr	r3, [r3, #44]
 3652 13b8 194A     		ldr	r2, .L262+4
 3653 13ba 5A63     		str	r2, [r3, #52]
 3654              		.loc 1 1987 0
 3655 13bc 039B     		ldr	r3, [sp, #12]
 3656 13be DA6A     		ldr	r2, [r3, #44]
 3657 13c0 039B     		ldr	r3, [sp, #12]
 3658 13c2 DB6A     		ldr	r3, [r3, #44]
 3659 13c4 DB69     		ldr	r3, [r3, #28]
 3660              		.loc 1 1988 0
 3661 13c6 202B     		cmp	r3, #32
 3662 13c8 01D1     		bne	.L257
 3663              		.loc 1 1988 0 is_stmt 0 discriminator 1
 3664 13ca 164B     		ldr	r3, .L262+8
 3665 13cc 00E0     		b	.L258
 3666              	.L257:
 3667              		.loc 1 1988 0 discriminator 2
 3668 13ce 0023     		movs	r3, #0
 3669              	.L258:
 3670              		.loc 1 1987 0 is_stmt 1
 3671 13d0 1363     		str	r3, [r2, #48]
 3672              		.loc 1 1991 0
 3673 13d2 039B     		ldr	r3, [sp, #12]
 3674 13d4 D96A     		ldr	r1, [r3, #44]
 3675 13d6 039B     		ldr	r3, [sp, #12]
ARM GAS  /tmp/ccjyqKqb.s 			page 66


 3676 13d8 1B68     		ldr	r3, [r3]
 3677 13da 1833     		adds	r3, r3, #24
 3678 13dc 1A46     		mov	r2, r3
 3679 13de 029B     		ldr	r3, [sp, #8]
 3680 13e0 0846     		mov	r0, r1
 3681 13e2 1146     		mov	r1, r2
 3682 13e4 1A46     		mov	r2, r3
 3683 13e6 019B     		ldr	r3, [sp, #4]
 3684 13e8 FFF7FEFF 		bl	HAL_DMA_Start_IT
 3685 13ec 0346     		mov	r3, r0
 3686 13ee 002B     		cmp	r3, #0
 3687 13f0 07D0     		beq	.L259
 3688              		.loc 1 1995 0
 3689 13f2 039B     		ldr	r3, [sp, #12]
 3690 13f4 FF22     		movs	r2, #255
 3691 13f6 83F84C20 		strb	r2, [r3, #76]
 3692              		.loc 1 1996 0
 3693 13fa 0123     		movs	r3, #1
 3694 13fc 8DF81730 		strb	r3, [sp, #23]
 3695              		.loc 1 1991 0
 3696 1400 06E0     		b	.L251
 3697              	.L259:
 3698              		.loc 1 2001 0
 3699 1402 0398     		ldr	r0, [sp, #12]
 3700 1404 00F0F4FD 		bl	DFSDM_InjConvStart
 3701              		.loc 1 1991 0
 3702 1408 02E0     		b	.L251
 3703              	.L256:
 3704              		.loc 1 2006 0
 3705 140a 0123     		movs	r3, #1
 3706 140c 8DF81730 		strb	r3, [sp, #23]
 3707              	.L251:
 3708              		.loc 1 2009 0
 3709 1410 9DF81730 		ldrb	r3, [sp, #23]	@ zero_extendqisi2
 3710              		.loc 1 2010 0
 3711 1414 1846     		mov	r0, r3
 3712 1416 07B0     		add	sp, sp, #28
 3713              		@ sp needed
 3714 1418 5DF804FB 		ldr	pc, [sp], #4
 3715              	.L263:
 3716              		.align	2
 3717              	.L262:
 3718 141c 00000000 		.word	DFSDM_DMAInjectedConvCplt
 3719 1420 00000000 		.word	DFSDM_DMAError
 3720 1424 00000000 		.word	DFSDM_DMAInjectedHalfConvCplt
 3721              		.cfi_endproc
 3722              	.LFE164:
 3723              		.size	HAL_DFSDM_FilterInjectedStart_DMA, .-HAL_DFSDM_FilterInjectedStart_DMA
 3724              		.align	2
 3725 1428 AFF30080 		.p2align 4,,15
 3725      AFF30080 
 3726              		.global	HAL_DFSDM_FilterInjectedMsbStart_DMA
 3727              		.thumb
 3728              		.thumb_func
 3729              		.type	HAL_DFSDM_FilterInjectedMsbStart_DMA, %function
 3730              	HAL_DFSDM_FilterInjectedMsbStart_DMA:
 3731              	.LFB165:
ARM GAS  /tmp/ccjyqKqb.s 			page 67


 3732              		.loc 1 2027 0
 3733              		.cfi_startproc
 3734              		@ args = 0, pretend = 0, frame = 24
 3735              		@ frame_needed = 0, uses_anonymous_args = 0
 3736 1430 00B5     		push	{lr}
 3737              		.cfi_def_cfa_offset 4
 3738              		.cfi_offset 14, -4
 3739 1432 87B0     		sub	sp, sp, #28
 3740              		.cfi_def_cfa_offset 32
 3741 1434 0390     		str	r0, [sp, #12]
 3742 1436 0291     		str	r1, [sp, #8]
 3743 1438 0192     		str	r2, [sp, #4]
 3744              		.loc 1 2028 0
 3745 143a 0023     		movs	r3, #0
 3746 143c 8DF81730 		strb	r3, [sp, #23]
 3747              		.loc 1 2034 0
 3748 1440 029B     		ldr	r3, [sp, #8]
 3749 1442 002B     		cmp	r3, #0
 3750 1444 02D0     		beq	.L265
 3751              		.loc 1 2034 0 is_stmt 0 discriminator 1
 3752 1446 019B     		ldr	r3, [sp, #4]
 3753 1448 002B     		cmp	r3, #0
 3754 144a 03D1     		bne	.L266
 3755              	.L265:
 3756              		.loc 1 2036 0 is_stmt 1
 3757 144c 0123     		movs	r3, #1
 3758 144e 8DF81730 		strb	r3, [sp, #23]
 3759 1452 65E0     		b	.L267
 3760              	.L266:
 3761              		.loc 1 2039 0
 3762 1454 039B     		ldr	r3, [sp, #12]
 3763 1456 1B68     		ldr	r3, [r3]
 3764 1458 1B68     		ldr	r3, [r3]
 3765 145a 03F02003 		and	r3, r3, #32
 3766 145e 002B     		cmp	r3, #0
 3767 1460 03D1     		bne	.L268
 3768              		.loc 1 2041 0
 3769 1462 0123     		movs	r3, #1
 3770 1464 8DF81730 		strb	r3, [sp, #23]
 3771 1468 5AE0     		b	.L267
 3772              	.L268:
 3773              		.loc 1 2044 0
 3774 146a 039B     		ldr	r3, [sp, #12]
 3775 146c 9B6B     		ldr	r3, [r3, #56]
 3776 146e 002B     		cmp	r3, #0
 3777 1470 0DD1     		bne	.L269
 3778              		.loc 1 2045 0 discriminator 1
 3779 1472 039B     		ldr	r3, [sp, #12]
 3780 1474 DB6A     		ldr	r3, [r3, #44]
 3781 1476 DB69     		ldr	r3, [r3, #28]
 3782              		.loc 1 2044 0 discriminator 1
 3783 1478 002B     		cmp	r3, #0
 3784 147a 08D1     		bne	.L269
 3785              		.loc 1 2046 0
 3786 147c 039B     		ldr	r3, [sp, #12]
 3787 147e 9A6C     		ldr	r2, [r3, #72]
 3788              		.loc 1 2045 0
ARM GAS  /tmp/ccjyqKqb.s 			page 68


 3789 1480 019B     		ldr	r3, [sp, #4]
 3790 1482 9A42     		cmp	r2, r3
 3791 1484 03D2     		bcs	.L269
 3792              		.loc 1 2048 0
 3793 1486 0123     		movs	r3, #1
 3794 1488 8DF81730 		strb	r3, [sp, #23]
 3795 148c 48E0     		b	.L267
 3796              	.L269:
 3797              		.loc 1 2050 0
 3798 148e 039B     		ldr	r3, [sp, #12]
 3799 1490 9B6B     		ldr	r3, [r3, #56]
 3800 1492 002B     		cmp	r3, #0
 3801 1494 08D1     		bne	.L270
 3802              		.loc 1 2051 0 discriminator 1
 3803 1496 039B     		ldr	r3, [sp, #12]
 3804 1498 DB6A     		ldr	r3, [r3, #44]
 3805 149a DB69     		ldr	r3, [r3, #28]
 3806              		.loc 1 2050 0 discriminator 1
 3807 149c 202B     		cmp	r3, #32
 3808 149e 03D1     		bne	.L270
 3809              		.loc 1 2053 0
 3810 14a0 0123     		movs	r3, #1
 3811 14a2 8DF81730 		strb	r3, [sp, #23]
 3812 14a6 3BE0     		b	.L267
 3813              	.L270:
 3814              		.loc 1 2056 0
 3815 14a8 039B     		ldr	r3, [sp, #12]
 3816 14aa 93F84C30 		ldrb	r3, [r3, #76]	@ zero_extendqisi2
 3817 14ae 012B     		cmp	r3, #1
 3818 14b0 04D0     		beq	.L271
 3819              		.loc 1 2057 0 discriminator 1
 3820 14b2 039B     		ldr	r3, [sp, #12]
 3821 14b4 93F84C30 		ldrb	r3, [r3, #76]	@ zero_extendqisi2
 3822              		.loc 1 2056 0 discriminator 1
 3823 14b8 022B     		cmp	r3, #2
 3824 14ba 2ED1     		bne	.L272
 3825              	.L271:
 3826              		.loc 1 2060 0
 3827 14bc 039B     		ldr	r3, [sp, #12]
 3828 14be DB6A     		ldr	r3, [r3, #44]
 3829 14c0 1A4A     		ldr	r2, .L278
 3830 14c2 DA62     		str	r2, [r3, #44]
 3831              		.loc 1 2061 0
 3832 14c4 039B     		ldr	r3, [sp, #12]
 3833 14c6 DB6A     		ldr	r3, [r3, #44]
 3834 14c8 194A     		ldr	r2, .L278+4
 3835 14ca 5A63     		str	r2, [r3, #52]
 3836              		.loc 1 2062 0
 3837 14cc 039B     		ldr	r3, [sp, #12]
 3838 14ce DA6A     		ldr	r2, [r3, #44]
 3839 14d0 039B     		ldr	r3, [sp, #12]
 3840 14d2 DB6A     		ldr	r3, [r3, #44]
 3841 14d4 DB69     		ldr	r3, [r3, #28]
 3842              		.loc 1 2063 0
 3843 14d6 202B     		cmp	r3, #32
 3844 14d8 01D1     		bne	.L273
 3845              		.loc 1 2063 0 is_stmt 0 discriminator 1
ARM GAS  /tmp/ccjyqKqb.s 			page 69


 3846 14da 164B     		ldr	r3, .L278+8
 3847 14dc 00E0     		b	.L274
 3848              	.L273:
 3849              		.loc 1 2063 0 discriminator 2
 3850 14de 0023     		movs	r3, #0
 3851              	.L274:
 3852              		.loc 1 2062 0 is_stmt 1
 3853 14e0 1363     		str	r3, [r2, #48]
 3854              		.loc 1 2066 0
 3855 14e2 039B     		ldr	r3, [sp, #12]
 3856 14e4 D96A     		ldr	r1, [r3, #44]
 3857 14e6 039B     		ldr	r3, [sp, #12]
 3858 14e8 1B68     		ldr	r3, [r3]
 3859 14ea 1833     		adds	r3, r3, #24
 3860 14ec 9A1C     		adds	r2, r3, #2
 3861 14ee 029B     		ldr	r3, [sp, #8]
 3862 14f0 0846     		mov	r0, r1
 3863 14f2 1146     		mov	r1, r2
 3864 14f4 1A46     		mov	r2, r3
 3865 14f6 019B     		ldr	r3, [sp, #4]
 3866 14f8 FFF7FEFF 		bl	HAL_DMA_Start_IT
 3867 14fc 0346     		mov	r3, r0
 3868 14fe 002B     		cmp	r3, #0
 3869 1500 07D0     		beq	.L275
 3870              		.loc 1 2070 0
 3871 1502 039B     		ldr	r3, [sp, #12]
 3872 1504 FF22     		movs	r2, #255
 3873 1506 83F84C20 		strb	r2, [r3, #76]
 3874              		.loc 1 2071 0
 3875 150a 0123     		movs	r3, #1
 3876 150c 8DF81730 		strb	r3, [sp, #23]
 3877              		.loc 1 2066 0
 3878 1510 06E0     		b	.L267
 3879              	.L275:
 3880              		.loc 1 2076 0
 3881 1512 0398     		ldr	r0, [sp, #12]
 3882 1514 00F06CFD 		bl	DFSDM_InjConvStart
 3883              		.loc 1 2066 0
 3884 1518 02E0     		b	.L267
 3885              	.L272:
 3886              		.loc 1 2081 0
 3887 151a 0123     		movs	r3, #1
 3888 151c 8DF81730 		strb	r3, [sp, #23]
 3889              	.L267:
 3890              		.loc 1 2084 0
 3891 1520 9DF81730 		ldrb	r3, [sp, #23]	@ zero_extendqisi2
 3892              		.loc 1 2085 0
 3893 1524 1846     		mov	r0, r3
 3894 1526 07B0     		add	sp, sp, #28
 3895              		@ sp needed
 3896 1528 5DF804FB 		ldr	pc, [sp], #4
 3897              	.L279:
 3898              		.align	2
 3899              	.L278:
 3900 152c 00000000 		.word	DFSDM_DMAInjectedConvCplt
 3901 1530 00000000 		.word	DFSDM_DMAError
 3902 1534 00000000 		.word	DFSDM_DMAInjectedHalfConvCplt
ARM GAS  /tmp/ccjyqKqb.s 			page 70


 3903              		.cfi_endproc
 3904              	.LFE165:
 3905              		.size	HAL_DFSDM_FilterInjectedMsbStart_DMA, .-HAL_DFSDM_FilterInjectedMsbStart_DMA
 3906              		.align	2
 3907 1538 AFF30080 		.p2align 4,,15
 3907      AFF30080 
 3908              		.global	HAL_DFSDM_FilterInjectedStop_DMA
 3909              		.thumb
 3910              		.thumb_func
 3911              		.type	HAL_DFSDM_FilterInjectedStop_DMA, %function
 3912              	HAL_DFSDM_FilterInjectedStop_DMA:
 3913              	.LFB166:
 3914              		.loc 1 2094 0
 3915              		.cfi_startproc
 3916              		@ args = 0, pretend = 0, frame = 16
 3917              		@ frame_needed = 0, uses_anonymous_args = 0
 3918 1540 00B5     		push	{lr}
 3919              		.cfi_def_cfa_offset 4
 3920              		.cfi_offset 14, -4
 3921 1542 85B0     		sub	sp, sp, #20
 3922              		.cfi_def_cfa_offset 24
 3923 1544 0190     		str	r0, [sp, #4]
 3924              		.loc 1 2095 0
 3925 1546 0023     		movs	r3, #0
 3926 1548 8DF80F30 		strb	r3, [sp, #15]
 3927              		.loc 1 2101 0
 3928 154c 019B     		ldr	r3, [sp, #4]
 3929 154e 93F84C30 		ldrb	r3, [r3, #76]	@ zero_extendqisi2
 3930 1552 032B     		cmp	r3, #3
 3931 1554 08D0     		beq	.L281
 3932              		.loc 1 2102 0 discriminator 1
 3933 1556 019B     		ldr	r3, [sp, #4]
 3934 1558 93F84C30 		ldrb	r3, [r3, #76]	@ zero_extendqisi2
 3935              		.loc 1 2101 0 discriminator 1
 3936 155c 042B     		cmp	r3, #4
 3937 155e 03D0     		beq	.L281
 3938              		.loc 1 2105 0
 3939 1560 0123     		movs	r3, #1
 3940 1562 8DF80F30 		strb	r3, [sp, #15]
 3941 1566 12E0     		b	.L282
 3942              	.L281:
 3943              		.loc 1 2110 0
 3944 1568 019B     		ldr	r3, [sp, #4]
 3945 156a DB6A     		ldr	r3, [r3, #44]
 3946 156c 1846     		mov	r0, r3
 3947 156e FFF7FEFF 		bl	HAL_DMA_Abort
 3948 1572 0346     		mov	r3, r0
 3949 1574 002B     		cmp	r3, #0
 3950 1576 07D0     		beq	.L283
 3951              		.loc 1 2113 0
 3952 1578 019B     		ldr	r3, [sp, #4]
 3953 157a FF22     		movs	r2, #255
 3954 157c 83F84C20 		strb	r2, [r3, #76]
 3955              		.loc 1 2114 0
 3956 1580 0123     		movs	r3, #1
 3957 1582 8DF80F30 		strb	r3, [sp, #15]
 3958 1586 02E0     		b	.L282
ARM GAS  /tmp/ccjyqKqb.s 			page 71


 3959              	.L283:
 3960              		.loc 1 2119 0
 3961 1588 0198     		ldr	r0, [sp, #4]
 3962 158a 00F089FD 		bl	DFSDM_InjConvStop
 3963              	.L282:
 3964              		.loc 1 2123 0
 3965 158e 9DF80F30 		ldrb	r3, [sp, #15]	@ zero_extendqisi2
 3966              		.loc 1 2124 0
 3967 1592 1846     		mov	r0, r3
 3968 1594 05B0     		add	sp, sp, #20
 3969              		@ sp needed
 3970 1596 5DF804FB 		ldr	pc, [sp], #4
 3971              		.cfi_endproc
 3972              	.LFE166:
 3973              		.size	HAL_DFSDM_FilterInjectedStop_DMA, .-HAL_DFSDM_FilterInjectedStop_DMA
 3974 159a 00BF     		.align	2
 3975 159c AFF30080 		.p2align 4,,15
 3976              		.global	HAL_DFSDM_FilterGetInjectedValue
 3977              		.thumb
 3978              		.thumb_func
 3979              		.type	HAL_DFSDM_FilterGetInjectedValue, %function
 3980              	HAL_DFSDM_FilterGetInjectedValue:
 3981              	.LFB167:
 3982              		.loc 1 2134 0
 3983              		.cfi_startproc
 3984              		@ args = 0, pretend = 0, frame = 24
 3985              		@ frame_needed = 0, uses_anonymous_args = 0
 3986              		@ link register save eliminated.
 3987 15a0 86B0     		sub	sp, sp, #24
 3988              		.cfi_def_cfa_offset 24
 3989 15a2 0190     		str	r0, [sp, #4]
 3990 15a4 0091     		str	r1, [sp]
 3991              		.loc 1 2135 0
 3992 15a6 0023     		movs	r3, #0
 3993 15a8 0593     		str	r3, [sp, #20]
 3994              		.loc 1 2136 0
 3995 15aa 0023     		movs	r3, #0
 3996 15ac 0493     		str	r3, [sp, #16]
 3997              		.loc 1 2143 0
 3998 15ae 019B     		ldr	r3, [sp, #4]
 3999 15b0 1B68     		ldr	r3, [r3]
 4000 15b2 9B69     		ldr	r3, [r3, #24]
 4001 15b4 0593     		str	r3, [sp, #20]
 4002              		.loc 1 2146 0
 4003 15b6 059B     		ldr	r3, [sp, #20]
 4004 15b8 03F00702 		and	r2, r3, #7
 4005 15bc 009B     		ldr	r3, [sp]
 4006 15be 1A60     		str	r2, [r3]
 4007              		.loc 1 2147 0
 4008 15c0 059B     		ldr	r3, [sp, #20]
 4009 15c2 23F0FF02 		bic	r2, r3, #255
 4010 15c6 6FF0FF03 		mvn	r3, #255
 4011 15ca 0393     		str	r3, [sp, #12]
 4012              	.LBB117:
 4013              	.LBB118:
 4014              		.loc 2 586 0
 4015 15cc 039B     		ldr	r3, [sp, #12]
ARM GAS  /tmp/ccjyqKqb.s 			page 72


 4016              	@ 586 "../../../../../../ChibiOS/os/ext/CMSIS/include/core_cmInstr.h" 1
 4017 15ce 93FAA3F3 		rbit r3, r3
 4018              	@ 0 "" 2
 4019              		.thumb
 4020 15d2 0293     		str	r3, [sp, #8]
 4021              		.loc 2 599 0
 4022 15d4 029B     		ldr	r3, [sp, #8]
 4023              	.LBE118:
 4024              	.LBE117:
 4025              		.loc 1 2147 0
 4026 15d6 B3FA83F3 		clz	r3, r3
 4027 15da 22FA03F3 		lsr	r3, r2, r3
 4028 15de 0493     		str	r3, [sp, #16]
 4029              		.loc 1 2150 0
 4030 15e0 049B     		ldr	r3, [sp, #16]
 4031              		.loc 1 2151 0
 4032 15e2 1846     		mov	r0, r3
 4033 15e4 06B0     		add	sp, sp, #24
 4034              		@ sp needed
 4035 15e6 7047     		bx	lr
 4036              		.cfi_endproc
 4037              	.LFE167:
 4038              		.size	HAL_DFSDM_FilterGetInjectedValue, .-HAL_DFSDM_FilterGetInjectedValue
 4039              		.align	2
 4040 15e8 AFF30080 		.p2align 4,,15
 4040      AFF30080 
 4041              		.global	HAL_DFSDM_FilterAwdStart_IT
 4042              		.thumb
 4043              		.thumb_func
 4044              		.type	HAL_DFSDM_FilterAwdStart_IT, %function
 4045              	HAL_DFSDM_FilterAwdStart_IT:
 4046              	.LFB168:
 4047              		.loc 1 2161 0
 4048              		.cfi_startproc
 4049              		@ args = 0, pretend = 0, frame = 40
 4050              		@ frame_needed = 0, uses_anonymous_args = 0
 4051              		@ link register save eliminated.
 4052 15f0 8AB0     		sub	sp, sp, #40
 4053              		.cfi_def_cfa_offset 40
 4054 15f2 0190     		str	r0, [sp, #4]
 4055 15f4 0091     		str	r1, [sp]
 4056              		.loc 1 2162 0
 4057 15f6 0023     		movs	r3, #0
 4058 15f8 8DF82730 		strb	r3, [sp, #39]
 4059              		.loc 1 2174 0
 4060 15fc 019B     		ldr	r3, [sp, #4]
 4061 15fe 93F84C30 		ldrb	r3, [r3, #76]	@ zero_extendqisi2
 4062 1602 002B     		cmp	r3, #0
 4063 1604 04D0     		beq	.L289
 4064              		.loc 1 2175 0 discriminator 1
 4065 1606 019B     		ldr	r3, [sp, #4]
 4066 1608 93F84C30 		ldrb	r3, [r3, #76]	@ zero_extendqisi2
 4067              		.loc 1 2174 0 discriminator 1
 4068 160c FF2B     		cmp	r3, #255
 4069 160e 03D1     		bne	.L290
 4070              	.L289:
 4071              		.loc 1 2178 0
ARM GAS  /tmp/ccjyqKqb.s 			page 73


 4072 1610 0123     		movs	r3, #1
 4073 1612 8DF82730 		strb	r3, [sp, #39]
 4074 1616 70E0     		b	.L291
 4075              	.L290:
 4076              		.loc 1 2183 0
 4077 1618 019B     		ldr	r3, [sp, #4]
 4078 161a 1B68     		ldr	r3, [r3]
 4079 161c 019A     		ldr	r2, [sp, #4]
 4080 161e 1268     		ldr	r2, [r2]
 4081 1620 1268     		ldr	r2, [r2]
 4082 1622 22F08042 		bic	r2, r2, #1073741824
 4083 1626 1A60     		str	r2, [r3]
 4084              		.loc 1 2184 0
 4085 1628 019B     		ldr	r3, [sp, #4]
 4086 162a 1B68     		ldr	r3, [r3]
 4087 162c 019A     		ldr	r2, [sp, #4]
 4088 162e 1268     		ldr	r2, [r2]
 4089 1630 1168     		ldr	r1, [r2]
 4090 1632 009A     		ldr	r2, [sp]
 4091 1634 1268     		ldr	r2, [r2]
 4092 1636 0A43     		orrs	r2, r2, r1
 4093 1638 1A60     		str	r2, [r3]
 4094              		.loc 1 2187 0
 4095 163a 019B     		ldr	r3, [sp, #4]
 4096 163c 1B68     		ldr	r3, [r3]
 4097 163e 019A     		ldr	r2, [sp, #4]
 4098 1640 1268     		ldr	r2, [r2]
 4099 1642 126A     		ldr	r2, [r2, #32]
 4100 1644 02F0F002 		and	r2, r2, #240
 4101 1648 1A62     		str	r2, [r3, #32]
 4102              		.loc 1 2188 0
 4103 164a 019B     		ldr	r3, [sp, #4]
 4104 164c 1B68     		ldr	r3, [r3]
 4105 164e 019A     		ldr	r2, [sp, #4]
 4106 1650 1268     		ldr	r2, [r2]
 4107 1652 116A     		ldr	r1, [r2, #32]
 4108 1654 009A     		ldr	r2, [sp]
 4109 1656 9268     		ldr	r2, [r2, #8]
 4110 1658 1046     		mov	r0, r2
 4111 165a 6FF0FF02 		mvn	r2, #255
 4112 165e 0892     		str	r2, [sp, #32]
 4113              	.LBB119:
 4114              	.LBB120:
 4115              		.loc 2 586 0
 4116 1660 089A     		ldr	r2, [sp, #32]
 4117              	@ 586 "../../../../../../ChibiOS/os/ext/CMSIS/include/core_cmInstr.h" 1
 4118 1662 92FAA2F2 		rbit r2, r2
 4119              	@ 0 "" 2
 4120              		.thumb
 4121 1666 0792     		str	r2, [sp, #28]
 4122              		.loc 2 599 0
 4123 1668 079A     		ldr	r2, [sp, #28]
 4124              	.LBE120:
 4125              	.LBE119:
 4126              		.loc 1 2188 0
 4127 166a B2FA82F2 		clz	r2, r2
 4128 166e 9040     		lsls	r0, r0, r2
ARM GAS  /tmp/ccjyqKqb.s 			page 74


 4129              		.loc 1 2189 0
 4130 1670 009A     		ldr	r2, [sp]
 4131 1672 1269     		ldr	r2, [r2, #16]
 4132              		.loc 1 2188 0
 4133 1674 0243     		orrs	r2, r2, r0
 4134 1676 0A43     		orrs	r2, r2, r1
 4135 1678 1A62     		str	r2, [r3, #32]
 4136              		.loc 1 2190 0
 4137 167a 019B     		ldr	r3, [sp, #4]
 4138 167c 1B68     		ldr	r3, [r3]
 4139 167e 019A     		ldr	r2, [sp, #4]
 4140 1680 1268     		ldr	r2, [r2]
 4141 1682 526A     		ldr	r2, [r2, #36]
 4142 1684 02F0F002 		and	r2, r2, #240
 4143 1688 5A62     		str	r2, [r3, #36]
 4144              		.loc 1 2191 0
 4145 168a 019B     		ldr	r3, [sp, #4]
 4146 168c 1B68     		ldr	r3, [r3]
 4147 168e 019A     		ldr	r2, [sp, #4]
 4148 1690 1268     		ldr	r2, [r2]
 4149 1692 516A     		ldr	r1, [r2, #36]
 4150 1694 009A     		ldr	r2, [sp]
 4151 1696 D268     		ldr	r2, [r2, #12]
 4152 1698 1046     		mov	r0, r2
 4153 169a 6FF0FF02 		mvn	r2, #255
 4154 169e 0692     		str	r2, [sp, #24]
 4155              	.LBB121:
 4156              	.LBB122:
 4157              		.loc 2 586 0
 4158 16a0 069A     		ldr	r2, [sp, #24]
 4159              	@ 586 "../../../../../../ChibiOS/os/ext/CMSIS/include/core_cmInstr.h" 1
 4160 16a2 92FAA2F2 		rbit r2, r2
 4161              	@ 0 "" 2
 4162              		.thumb
 4163 16a6 0592     		str	r2, [sp, #20]
 4164              		.loc 2 599 0
 4165 16a8 059A     		ldr	r2, [sp, #20]
 4166              	.LBE122:
 4167              	.LBE121:
 4168              		.loc 1 2191 0
 4169 16aa B2FA82F2 		clz	r2, r2
 4170 16ae 9040     		lsls	r0, r0, r2
 4171              		.loc 1 2192 0
 4172 16b0 009A     		ldr	r2, [sp]
 4173 16b2 5269     		ldr	r2, [r2, #20]
 4174              		.loc 1 2191 0
 4175 16b4 0243     		orrs	r2, r2, r0
 4176 16b6 0A43     		orrs	r2, r2, r1
 4177 16b8 5A62     		str	r2, [r3, #36]
 4178              		.loc 1 2195 0
 4179 16ba 019B     		ldr	r3, [sp, #4]
 4180 16bc 1B68     		ldr	r3, [r3]
 4181 16be 019A     		ldr	r2, [sp, #4]
 4182 16c0 1268     		ldr	r2, [r2]
 4183 16c2 5268     		ldr	r2, [r2, #4]
 4184 16c4 22F47F02 		bic	r2, r2, #16711680
 4185 16c8 5A60     		str	r2, [r3, #4]
ARM GAS  /tmp/ccjyqKqb.s 			page 75


 4186              		.loc 1 2196 0
 4187 16ca 019B     		ldr	r3, [sp, #4]
 4188 16cc 1B68     		ldr	r3, [r3]
 4189 16ce 019A     		ldr	r2, [sp, #4]
 4190 16d0 1268     		ldr	r2, [r2]
 4191 16d2 5168     		ldr	r1, [r2, #4]
 4192 16d4 009A     		ldr	r2, [sp]
 4193 16d6 5268     		ldr	r2, [r2, #4]
 4194 16d8 90B2     		uxth	r0, r2
 4195 16da 4FF47F02 		mov	r2, #16711680
 4196 16de 0492     		str	r2, [sp, #16]
 4197              	.LBB123:
 4198              	.LBB124:
 4199              		.loc 2 586 0
 4200 16e0 049A     		ldr	r2, [sp, #16]
 4201              	@ 586 "../../../../../../ChibiOS/os/ext/CMSIS/include/core_cmInstr.h" 1
 4202 16e2 92FAA2F2 		rbit r2, r2
 4203              	@ 0 "" 2
 4204              		.thumb
 4205 16e6 0392     		str	r2, [sp, #12]
 4206              		.loc 2 599 0
 4207 16e8 039A     		ldr	r2, [sp, #12]
 4208              	.LBE124:
 4209              	.LBE123:
 4210              		.loc 1 2196 0
 4211 16ea B2FA82F2 		clz	r2, r2
 4212 16ee 00FA02F2 		lsl	r2, r0, r2
 4213 16f2 0A43     		orrs	r2, r2, r1
 4214 16f4 42F01002 		orr	r2, r2, #16
 4215 16f8 5A60     		str	r2, [r3, #4]
 4216              	.L291:
 4217              		.loc 1 2200 0
 4218 16fa 9DF82730 		ldrb	r3, [sp, #39]	@ zero_extendqisi2
 4219              		.loc 1 2201 0
 4220 16fe 1846     		mov	r0, r3
 4221 1700 0AB0     		add	sp, sp, #40
 4222              		@ sp needed
 4223 1702 7047     		bx	lr
 4224              		.cfi_endproc
 4225              	.LFE168:
 4226              		.size	HAL_DFSDM_FilterAwdStart_IT, .-HAL_DFSDM_FilterAwdStart_IT
 4227              		.align	2
 4228 1704 AFF30080 		.p2align 4,,15
 4228      AFF30080 
 4228      AFF30080 
 4229              		.global	HAL_DFSDM_FilterAwdStop_IT
 4230              		.thumb
 4231              		.thumb_func
 4232              		.type	HAL_DFSDM_FilterAwdStop_IT, %function
 4233              	HAL_DFSDM_FilterAwdStop_IT:
 4234              	.LFB169:
 4235              		.loc 1 2209 0
 4236              		.cfi_startproc
 4237              		@ args = 0, pretend = 0, frame = 16
 4238              		@ frame_needed = 0, uses_anonymous_args = 0
 4239              		@ link register save eliminated.
 4240 1710 84B0     		sub	sp, sp, #16
ARM GAS  /tmp/ccjyqKqb.s 			page 76


 4241              		.cfi_def_cfa_offset 16
 4242 1712 0190     		str	r0, [sp, #4]
 4243              		.loc 1 2210 0
 4244 1714 0023     		movs	r3, #0
 4245 1716 8DF80F30 		strb	r3, [sp, #15]
 4246              		.loc 1 2216 0
 4247 171a 019B     		ldr	r3, [sp, #4]
 4248 171c 93F84C30 		ldrb	r3, [r3, #76]	@ zero_extendqisi2
 4249 1720 002B     		cmp	r3, #0
 4250 1722 04D0     		beq	.L297
 4251              		.loc 1 2217 0 discriminator 1
 4252 1724 019B     		ldr	r3, [sp, #4]
 4253 1726 93F84C30 		ldrb	r3, [r3, #76]	@ zero_extendqisi2
 4254              		.loc 1 2216 0 discriminator 1
 4255 172a FF2B     		cmp	r3, #255
 4256 172c 03D1     		bne	.L298
 4257              	.L297:
 4258              		.loc 1 2220 0
 4259 172e 0123     		movs	r3, #1
 4260 1730 8DF80F30 		strb	r3, [sp, #15]
 4261 1734 26E0     		b	.L299
 4262              	.L298:
 4263              		.loc 1 2225 0
 4264 1736 019B     		ldr	r3, [sp, #4]
 4265 1738 1A68     		ldr	r2, [r3]
 4266 173a 019B     		ldr	r3, [sp, #4]
 4267 173c 1B68     		ldr	r3, [r3]
 4268 173e 5B68     		ldr	r3, [r3, #4]
 4269 1740 23F47F03 		bic	r3, r3, #16711680
 4270 1744 23F01003 		bic	r3, r3, #16
 4271 1748 5360     		str	r3, [r2, #4]
 4272              		.loc 1 2228 0
 4273 174a 019B     		ldr	r3, [sp, #4]
 4274 174c 1B68     		ldr	r3, [r3]
 4275 174e 4FF6FF72 		movw	r2, #65535
 4276 1752 DA62     		str	r2, [r3, #44]
 4277              		.loc 1 2231 0
 4278 1754 019B     		ldr	r3, [sp, #4]
 4279 1756 1B68     		ldr	r3, [r3]
 4280 1758 019A     		ldr	r2, [sp, #4]
 4281 175a 1268     		ldr	r2, [r2]
 4282 175c 126A     		ldr	r2, [r2, #32]
 4283 175e 02F0F002 		and	r2, r2, #240
 4284 1762 1A62     		str	r2, [r3, #32]
 4285              		.loc 1 2232 0
 4286 1764 019B     		ldr	r3, [sp, #4]
 4287 1766 1B68     		ldr	r3, [r3]
 4288 1768 019A     		ldr	r2, [sp, #4]
 4289 176a 1268     		ldr	r2, [r2]
 4290 176c 526A     		ldr	r2, [r2, #36]
 4291 176e 02F0F002 		and	r2, r2, #240
 4292 1772 5A62     		str	r2, [r3, #36]
 4293              		.loc 1 2235 0
 4294 1774 019B     		ldr	r3, [sp, #4]
 4295 1776 1B68     		ldr	r3, [r3]
 4296 1778 019A     		ldr	r2, [sp, #4]
 4297 177a 1268     		ldr	r2, [r2]
ARM GAS  /tmp/ccjyqKqb.s 			page 77


 4298 177c 1268     		ldr	r2, [r2]
 4299 177e 22F08042 		bic	r2, r2, #1073741824
 4300 1782 1A60     		str	r2, [r3]
 4301              	.L299:
 4302              		.loc 1 2238 0
 4303 1784 9DF80F30 		ldrb	r3, [sp, #15]	@ zero_extendqisi2
 4304              		.loc 1 2239 0
 4305 1788 1846     		mov	r0, r3
 4306 178a 04B0     		add	sp, sp, #16
 4307              		@ sp needed
 4308 178c 7047     		bx	lr
 4309              		.cfi_endproc
 4310              	.LFE169:
 4311              		.size	HAL_DFSDM_FilterAwdStop_IT, .-HAL_DFSDM_FilterAwdStop_IT
 4312 178e 00BF     		.align	2
 4313              		.p2align 4,,15
 4314              		.global	HAL_DFSDM_FilterExdStart
 4315              		.thumb
 4316              		.thumb_func
 4317              		.type	HAL_DFSDM_FilterExdStart, %function
 4318              	HAL_DFSDM_FilterExdStart:
 4319              	.LFB170:
 4320              		.loc 1 2250 0
 4321              		.cfi_startproc
 4322              		@ args = 0, pretend = 0, frame = 24
 4323              		@ frame_needed = 0, uses_anonymous_args = 0
 4324              		@ link register save eliminated.
 4325 1790 86B0     		sub	sp, sp, #24
 4326              		.cfi_def_cfa_offset 24
 4327 1792 0190     		str	r0, [sp, #4]
 4328 1794 0091     		str	r1, [sp]
 4329              		.loc 1 2251 0
 4330 1796 0023     		movs	r3, #0
 4331 1798 8DF81730 		strb	r3, [sp, #23]
 4332              		.loc 1 2258 0
 4333 179c 019B     		ldr	r3, [sp, #4]
 4334 179e 93F84C30 		ldrb	r3, [r3, #76]	@ zero_extendqisi2
 4335 17a2 002B     		cmp	r3, #0
 4336 17a4 04D0     		beq	.L302
 4337              		.loc 1 2259 0 discriminator 1
 4338 17a6 019B     		ldr	r3, [sp, #4]
 4339 17a8 93F84C30 		ldrb	r3, [r3, #76]	@ zero_extendqisi2
 4340              		.loc 1 2258 0 discriminator 1
 4341 17ac FF2B     		cmp	r3, #255
 4342 17ae 03D1     		bne	.L303
 4343              	.L302:
 4344              		.loc 1 2262 0
 4345 17b0 0123     		movs	r3, #1
 4346 17b2 8DF81730 		strb	r3, [sp, #23]
 4347 17b6 1CE0     		b	.L304
 4348              	.L303:
 4349              		.loc 1 2267 0
 4350 17b8 019B     		ldr	r3, [sp, #4]
 4351 17ba 1B68     		ldr	r3, [r3]
 4352 17bc 019A     		ldr	r2, [sp, #4]
 4353 17be 1268     		ldr	r2, [r2]
 4354 17c0 5268     		ldr	r2, [r2, #4]
ARM GAS  /tmp/ccjyqKqb.s 			page 78


 4355 17c2 22F47F42 		bic	r2, r2, #65280
 4356 17c6 5A60     		str	r2, [r3, #4]
 4357              		.loc 1 2268 0
 4358 17c8 019B     		ldr	r3, [sp, #4]
 4359 17ca 1B68     		ldr	r3, [r3]
 4360 17cc 019A     		ldr	r2, [sp, #4]
 4361 17ce 1268     		ldr	r2, [r2]
 4362 17d0 5168     		ldr	r1, [r2, #4]
 4363 17d2 009A     		ldr	r2, [sp]
 4364 17d4 90B2     		uxth	r0, r2
 4365 17d6 4FF47F42 		mov	r2, #65280
 4366 17da 0492     		str	r2, [sp, #16]
 4367              	.LBB125:
 4368              	.LBB126:
 4369              		.loc 2 586 0
 4370 17dc 049A     		ldr	r2, [sp, #16]
 4371              	@ 586 "../../../../../../ChibiOS/os/ext/CMSIS/include/core_cmInstr.h" 1
 4372 17de 92FAA2F2 		rbit r2, r2
 4373              	@ 0 "" 2
 4374              		.thumb
 4375 17e2 0392     		str	r2, [sp, #12]
 4376              		.loc 2 599 0
 4377 17e4 039A     		ldr	r2, [sp, #12]
 4378              	.LBE126:
 4379              	.LBE125:
 4380              		.loc 1 2268 0
 4381 17e6 B2FA82F2 		clz	r2, r2
 4382 17ea 00FA02F2 		lsl	r2, r0, r2
 4383 17ee 0A43     		orrs	r2, r2, r1
 4384 17f0 5A60     		str	r2, [r3, #4]
 4385              	.L304:
 4386              		.loc 1 2271 0
 4387 17f2 9DF81730 		ldrb	r3, [sp, #23]	@ zero_extendqisi2
 4388              		.loc 1 2272 0
 4389 17f6 1846     		mov	r0, r3
 4390 17f8 06B0     		add	sp, sp, #24
 4391              		@ sp needed
 4392 17fa 7047     		bx	lr
 4393              		.cfi_endproc
 4394              	.LFE170:
 4395              		.size	HAL_DFSDM_FilterExdStart, .-HAL_DFSDM_FilterExdStart
 4396              		.align	2
 4397 17fc AFF30080 		.p2align 4,,15
 4398              		.global	HAL_DFSDM_FilterExdStop
 4399              		.thumb
 4400              		.thumb_func
 4401              		.type	HAL_DFSDM_FilterExdStop, %function
 4402              	HAL_DFSDM_FilterExdStop:
 4403              	.LFB171:
 4404              		.loc 1 2280 0
 4405              		.cfi_startproc
 4406              		@ args = 0, pretend = 0, frame = 24
 4407              		@ frame_needed = 0, uses_anonymous_args = 0
 4408              		@ link register save eliminated.
 4409 1800 86B0     		sub	sp, sp, #24
 4410              		.cfi_def_cfa_offset 24
 4411 1802 0190     		str	r0, [sp, #4]
ARM GAS  /tmp/ccjyqKqb.s 			page 79


 4412              		.loc 1 2281 0
 4413 1804 0023     		movs	r3, #0
 4414 1806 8DF81730 		strb	r3, [sp, #23]
 4415              		.loc 1 2289 0
 4416 180a 019B     		ldr	r3, [sp, #4]
 4417 180c 93F84C30 		ldrb	r3, [r3, #76]	@ zero_extendqisi2
 4418 1810 002B     		cmp	r3, #0
 4419 1812 04D0     		beq	.L308
 4420              		.loc 1 2290 0 discriminator 1
 4421 1814 019B     		ldr	r3, [sp, #4]
 4422 1816 93F84C30 		ldrb	r3, [r3, #76]	@ zero_extendqisi2
 4423              		.loc 1 2289 0 discriminator 1
 4424 181a FF2B     		cmp	r3, #255
 4425 181c 03D1     		bne	.L309
 4426              	.L308:
 4427              		.loc 1 2293 0
 4428 181e 0123     		movs	r3, #1
 4429 1820 8DF81730 		strb	r3, [sp, #23]
 4430 1824 11E0     		b	.L310
 4431              	.L309:
 4432              		.loc 1 2298 0
 4433 1826 019B     		ldr	r3, [sp, #4]
 4434 1828 1B68     		ldr	r3, [r3]
 4435 182a 019A     		ldr	r2, [sp, #4]
 4436 182c 1268     		ldr	r2, [r2]
 4437 182e 5268     		ldr	r2, [r2, #4]
 4438 1830 22F47F42 		bic	r2, r2, #65280
 4439 1834 5A60     		str	r2, [r3, #4]
 4440              		.loc 1 2301 0
 4441 1836 019B     		ldr	r3, [sp, #4]
 4442 1838 1B68     		ldr	r3, [r3]
 4443 183a 1B6B     		ldr	r3, [r3, #48]
 4444 183c 0493     		str	r3, [sp, #16]
 4445              		.loc 1 2302 0
 4446 183e 019B     		ldr	r3, [sp, #4]
 4447 1840 1B68     		ldr	r3, [r3]
 4448 1842 5B6B     		ldr	r3, [r3, #52]
 4449 1844 0393     		str	r3, [sp, #12]
 4450              		.loc 1 2303 0
 4451 1846 049B     		ldr	r3, [sp, #16]
 4452              		.loc 1 2304 0
 4453 1848 039B     		ldr	r3, [sp, #12]
 4454              	.L310:
 4455              		.loc 1 2307 0
 4456 184a 9DF81730 		ldrb	r3, [sp, #23]	@ zero_extendqisi2
 4457              		.loc 1 2308 0
 4458 184e 1846     		mov	r0, r3
 4459 1850 06B0     		add	sp, sp, #24
 4460              		@ sp needed
 4461 1852 7047     		bx	lr
 4462              		.cfi_endproc
 4463              	.LFE171:
 4464              		.size	HAL_DFSDM_FilterExdStop, .-HAL_DFSDM_FilterExdStop
 4465              		.align	2
 4466 1854 AFF30080 		.p2align 4,,15
 4466      AFF30080 
 4466      AFF30080 
ARM GAS  /tmp/ccjyqKqb.s 			page 80


 4467              		.global	HAL_DFSDM_FilterGetExdMaxValue
 4468              		.thumb
 4469              		.thumb_func
 4470              		.type	HAL_DFSDM_FilterGetExdMaxValue, %function
 4471              	HAL_DFSDM_FilterGetExdMaxValue:
 4472              	.LFB172:
 4473              		.loc 1 2319 0
 4474              		.cfi_startproc
 4475              		@ args = 0, pretend = 0, frame = 24
 4476              		@ frame_needed = 0, uses_anonymous_args = 0
 4477              		@ link register save eliminated.
 4478 1860 86B0     		sub	sp, sp, #24
 4479              		.cfi_def_cfa_offset 24
 4480 1862 0190     		str	r0, [sp, #4]
 4481 1864 0091     		str	r1, [sp]
 4482              		.loc 1 2320 0
 4483 1866 0023     		movs	r3, #0
 4484 1868 0593     		str	r3, [sp, #20]
 4485              		.loc 1 2321 0
 4486 186a 0023     		movs	r3, #0
 4487 186c 0493     		str	r3, [sp, #16]
 4488              		.loc 1 2328 0
 4489 186e 019B     		ldr	r3, [sp, #4]
 4490 1870 1B68     		ldr	r3, [r3]
 4491 1872 1B6B     		ldr	r3, [r3, #48]
 4492 1874 0593     		str	r3, [sp, #20]
 4493              		.loc 1 2331 0
 4494 1876 059B     		ldr	r3, [sp, #20]
 4495 1878 03F00702 		and	r2, r3, #7
 4496 187c 009B     		ldr	r3, [sp]
 4497 187e 1A60     		str	r2, [r3]
 4498              		.loc 1 2332 0
 4499 1880 059B     		ldr	r3, [sp, #20]
 4500 1882 23F0FF02 		bic	r2, r3, #255
 4501 1886 6FF0FF03 		mvn	r3, #255
 4502 188a 0393     		str	r3, [sp, #12]
 4503              	.LBB127:
 4504              	.LBB128:
 4505              		.loc 2 586 0
 4506 188c 039B     		ldr	r3, [sp, #12]
 4507              	@ 586 "../../../../../../ChibiOS/os/ext/CMSIS/include/core_cmInstr.h" 1
 4508 188e 93FAA3F3 		rbit r3, r3
 4509              	@ 0 "" 2
 4510              		.thumb
 4511 1892 0293     		str	r3, [sp, #8]
 4512              		.loc 2 599 0
 4513 1894 029B     		ldr	r3, [sp, #8]
 4514              	.LBE128:
 4515              	.LBE127:
 4516              		.loc 1 2332 0
 4517 1896 B3FA83F3 		clz	r3, r3
 4518 189a 22FA03F3 		lsr	r3, r2, r3
 4519 189e 0493     		str	r3, [sp, #16]
 4520              		.loc 1 2335 0
 4521 18a0 049B     		ldr	r3, [sp, #16]
 4522              		.loc 1 2336 0
 4523 18a2 1846     		mov	r0, r3
ARM GAS  /tmp/ccjyqKqb.s 			page 81


 4524 18a4 06B0     		add	sp, sp, #24
 4525              		@ sp needed
 4526 18a6 7047     		bx	lr
 4527              		.cfi_endproc
 4528              	.LFE172:
 4529              		.size	HAL_DFSDM_FilterGetExdMaxValue, .-HAL_DFSDM_FilterGetExdMaxValue
 4530              		.align	2
 4531 18a8 AFF30080 		.p2align 4,,15
 4531      AFF30080 
 4532              		.global	HAL_DFSDM_FilterGetExdMinValue
 4533              		.thumb
 4534              		.thumb_func
 4535              		.type	HAL_DFSDM_FilterGetExdMinValue, %function
 4536              	HAL_DFSDM_FilterGetExdMinValue:
 4537              	.LFB173:
 4538              		.loc 1 2347 0
 4539              		.cfi_startproc
 4540              		@ args = 0, pretend = 0, frame = 24
 4541              		@ frame_needed = 0, uses_anonymous_args = 0
 4542              		@ link register save eliminated.
 4543 18b0 86B0     		sub	sp, sp, #24
 4544              		.cfi_def_cfa_offset 24
 4545 18b2 0190     		str	r0, [sp, #4]
 4546 18b4 0091     		str	r1, [sp]
 4547              		.loc 1 2348 0
 4548 18b6 0023     		movs	r3, #0
 4549 18b8 0593     		str	r3, [sp, #20]
 4550              		.loc 1 2349 0
 4551 18ba 0023     		movs	r3, #0
 4552 18bc 0493     		str	r3, [sp, #16]
 4553              		.loc 1 2356 0
 4554 18be 019B     		ldr	r3, [sp, #4]
 4555 18c0 1B68     		ldr	r3, [r3]
 4556 18c2 5B6B     		ldr	r3, [r3, #52]
 4557 18c4 0593     		str	r3, [sp, #20]
 4558              		.loc 1 2359 0
 4559 18c6 059B     		ldr	r3, [sp, #20]
 4560 18c8 03F00702 		and	r2, r3, #7
 4561 18cc 009B     		ldr	r3, [sp]
 4562 18ce 1A60     		str	r2, [r3]
 4563              		.loc 1 2360 0
 4564 18d0 059B     		ldr	r3, [sp, #20]
 4565 18d2 23F0FF02 		bic	r2, r3, #255
 4566 18d6 6FF0FF03 		mvn	r3, #255
 4567 18da 0393     		str	r3, [sp, #12]
 4568              	.LBB129:
 4569              	.LBB130:
 4570              		.loc 2 586 0
 4571 18dc 039B     		ldr	r3, [sp, #12]
 4572              	@ 586 "../../../../../../ChibiOS/os/ext/CMSIS/include/core_cmInstr.h" 1
 4573 18de 93FAA3F3 		rbit r3, r3
 4574              	@ 0 "" 2
 4575              		.thumb
 4576 18e2 0293     		str	r3, [sp, #8]
 4577              		.loc 2 599 0
 4578 18e4 029B     		ldr	r3, [sp, #8]
 4579              	.LBE130:
ARM GAS  /tmp/ccjyqKqb.s 			page 82


 4580              	.LBE129:
 4581              		.loc 1 2360 0
 4582 18e6 B3FA83F3 		clz	r3, r3
 4583 18ea 22FA03F3 		lsr	r3, r2, r3
 4584 18ee 0493     		str	r3, [sp, #16]
 4585              		.loc 1 2363 0
 4586 18f0 049B     		ldr	r3, [sp, #16]
 4587              		.loc 1 2364 0
 4588 18f2 1846     		mov	r0, r3
 4589 18f4 06B0     		add	sp, sp, #24
 4590              		@ sp needed
 4591 18f6 7047     		bx	lr
 4592              		.cfi_endproc
 4593              	.LFE173:
 4594              		.size	HAL_DFSDM_FilterGetExdMinValue, .-HAL_DFSDM_FilterGetExdMinValue
 4595              		.align	2
 4596 18f8 AFF30080 		.p2align 4,,15
 4596      AFF30080 
 4597              		.global	HAL_DFSDM_FilterGetConvTimeValue
 4598              		.thumb
 4599              		.thumb_func
 4600              		.type	HAL_DFSDM_FilterGetConvTimeValue, %function
 4601              	HAL_DFSDM_FilterGetConvTimeValue:
 4602              	.LFB174:
 4603              		.loc 1 2373 0
 4604              		.cfi_startproc
 4605              		@ args = 0, pretend = 0, frame = 24
 4606              		@ frame_needed = 0, uses_anonymous_args = 0
 4607              		@ link register save eliminated.
 4608 1900 86B0     		sub	sp, sp, #24
 4609              		.cfi_def_cfa_offset 24
 4610 1902 0190     		str	r0, [sp, #4]
 4611              		.loc 1 2374 0
 4612 1904 0023     		movs	r3, #0
 4613 1906 0593     		str	r3, [sp, #20]
 4614              		.loc 1 2375 0
 4615 1908 0023     		movs	r3, #0
 4616 190a 0493     		str	r3, [sp, #16]
 4617              		.loc 1 2381 0
 4618 190c 019B     		ldr	r3, [sp, #4]
 4619 190e 1B68     		ldr	r3, [r3]
 4620 1910 9B6B     		ldr	r3, [r3, #56]
 4621 1912 0593     		str	r3, [sp, #20]
 4622              		.loc 1 2384 0
 4623 1914 059B     		ldr	r3, [sp, #20]
 4624 1916 23F00F02 		bic	r2, r3, #15
 4625 191a 6FF00F03 		mvn	r3, #15
 4626 191e 0393     		str	r3, [sp, #12]
 4627              	.LBB131:
 4628              	.LBB132:
 4629              		.loc 2 586 0
 4630 1920 039B     		ldr	r3, [sp, #12]
 4631              	@ 586 "../../../../../../ChibiOS/os/ext/CMSIS/include/core_cmInstr.h" 1
 4632 1922 93FAA3F3 		rbit r3, r3
 4633              	@ 0 "" 2
 4634              		.thumb
 4635 1926 0293     		str	r3, [sp, #8]
ARM GAS  /tmp/ccjyqKqb.s 			page 83


 4636              		.loc 2 599 0
 4637 1928 029B     		ldr	r3, [sp, #8]
 4638              	.LBE132:
 4639              	.LBE131:
 4640              		.loc 1 2384 0
 4641 192a B3FA83F3 		clz	r3, r3
 4642 192e 22FA03F3 		lsr	r3, r2, r3
 4643 1932 0493     		str	r3, [sp, #16]
 4644              		.loc 1 2387 0
 4645 1934 049B     		ldr	r3, [sp, #16]
 4646              		.loc 1 2388 0
 4647 1936 1846     		mov	r0, r3
 4648 1938 06B0     		add	sp, sp, #24
 4649              		@ sp needed
 4650 193a 7047     		bx	lr
 4651              		.cfi_endproc
 4652              	.LFE174:
 4653              		.size	HAL_DFSDM_FilterGetConvTimeValue, .-HAL_DFSDM_FilterGetConvTimeValue
 4654              		.align	2
 4655 193c AFF30080 		.p2align 4,,15
 4656              		.global	HAL_DFSDM_IRQHandler
 4657              		.thumb
 4658              		.thumb_func
 4659              		.type	HAL_DFSDM_IRQHandler, %function
 4660              	HAL_DFSDM_IRQHandler:
 4661              	.LFB175:
 4662              		.loc 1 2396 0
 4663              		.cfi_startproc
 4664              		@ args = 0, pretend = 0, frame = 88
 4665              		@ frame_needed = 0, uses_anonymous_args = 0
 4666 1940 00B5     		push	{lr}
 4667              		.cfi_def_cfa_offset 4
 4668              		.cfi_offset 14, -4
 4669 1942 97B0     		sub	sp, sp, #92
 4670              		.cfi_def_cfa_offset 96
 4671 1944 0190     		str	r0, [sp, #4]
 4672              		.loc 1 2398 0
 4673 1946 019B     		ldr	r3, [sp, #4]
 4674 1948 1B68     		ldr	r3, [r3]
 4675 194a 9B68     		ldr	r3, [r3, #8]
 4676 194c 03F00803 		and	r3, r3, #8
 4677 1950 002B     		cmp	r3, #0
 4678 1952 11D0     		beq	.L322
 4679              		.loc 1 2399 0 discriminator 1
 4680 1954 019B     		ldr	r3, [sp, #4]
 4681 1956 1B68     		ldr	r3, [r3]
 4682 1958 5B68     		ldr	r3, [r3, #4]
 4683 195a 03F00803 		and	r3, r3, #8
 4684              		.loc 1 2398 0 discriminator 1
 4685 195e 002B     		cmp	r3, #0
 4686 1960 0AD0     		beq	.L322
 4687              		.loc 1 2402 0
 4688 1962 019B     		ldr	r3, [sp, #4]
 4689 1964 1B68     		ldr	r3, [r3]
 4690 1966 0822     		movs	r2, #8
 4691 1968 DA60     		str	r2, [r3, #12]
 4692              		.loc 1 2405 0
ARM GAS  /tmp/ccjyqKqb.s 			page 84


 4693 196a 019B     		ldr	r3, [sp, #4]
 4694 196c 0122     		movs	r2, #1
 4695 196e 1A65     		str	r2, [r3, #80]
 4696              		.loc 1 2408 0
 4697 1970 0198     		ldr	r0, [sp, #4]
 4698 1972 FFF7FEFF 		bl	HAL_DFSDM_FilterErrorCallback
 4699 1976 95E1     		b	.L321
 4700              	.L322:
 4701              		.loc 1 2411 0
 4702 1978 019B     		ldr	r3, [sp, #4]
 4703 197a 1B68     		ldr	r3, [r3]
 4704 197c 9B68     		ldr	r3, [r3, #8]
 4705 197e 03F00403 		and	r3, r3, #4
 4706 1982 002B     		cmp	r3, #0
 4707 1984 11D0     		beq	.L324
 4708              		.loc 1 2412 0 discriminator 1
 4709 1986 019B     		ldr	r3, [sp, #4]
 4710 1988 1B68     		ldr	r3, [r3]
 4711 198a 5B68     		ldr	r3, [r3, #4]
 4712 198c 03F00403 		and	r3, r3, #4
 4713              		.loc 1 2411 0 discriminator 1
 4714 1990 002B     		cmp	r3, #0
 4715 1992 0AD0     		beq	.L324
 4716              		.loc 1 2415 0
 4717 1994 019B     		ldr	r3, [sp, #4]
 4718 1996 1B68     		ldr	r3, [r3]
 4719 1998 0422     		movs	r2, #4
 4720 199a DA60     		str	r2, [r3, #12]
 4721              		.loc 1 2418 0
 4722 199c 019B     		ldr	r3, [sp, #4]
 4723 199e 0222     		movs	r2, #2
 4724 19a0 1A65     		str	r2, [r3, #80]
 4725              		.loc 1 2421 0
 4726 19a2 0198     		ldr	r0, [sp, #4]
 4727 19a4 FFF7FEFF 		bl	HAL_DFSDM_FilterErrorCallback
 4728 19a8 7CE1     		b	.L321
 4729              	.L324:
 4730              		.loc 1 2424 0
 4731 19aa 019B     		ldr	r3, [sp, #4]
 4732 19ac 1B68     		ldr	r3, [r3]
 4733 19ae 9B68     		ldr	r3, [r3, #8]
 4734 19b0 03F00203 		and	r3, r3, #2
 4735 19b4 002B     		cmp	r3, #0
 4736 19b6 26D0     		beq	.L325
 4737              		.loc 1 2425 0 discriminator 1
 4738 19b8 019B     		ldr	r3, [sp, #4]
 4739 19ba 1B68     		ldr	r3, [r3]
 4740 19bc 5B68     		ldr	r3, [r3, #4]
 4741 19be 03F00203 		and	r3, r3, #2
 4742              		.loc 1 2424 0 discriminator 1
 4743 19c2 002B     		cmp	r3, #0
 4744 19c4 1FD0     		beq	.L325
 4745              		.loc 1 2428 0
 4746 19c6 0198     		ldr	r0, [sp, #4]
 4747 19c8 FFF7FEFF 		bl	HAL_DFSDM_FilterRegConvCpltCallback
 4748              		.loc 1 2431 0
 4749 19cc 019B     		ldr	r3, [sp, #4]
ARM GAS  /tmp/ccjyqKqb.s 			page 85


 4750 19ce 1B6B     		ldr	r3, [r3, #48]
 4751 19d0 002B     		cmp	r3, #0
 4752 19d2 17D1     		bne	.L326
 4753              		.loc 1 2432 0 discriminator 1
 4754 19d4 019B     		ldr	r3, [sp, #4]
 4755 19d6 5B6B     		ldr	r3, [r3, #52]
 4756              		.loc 1 2431 0 discriminator 1
 4757 19d8 002B     		cmp	r3, #0
 4758 19da 13D1     		bne	.L326
 4759              		.loc 1 2435 0
 4760 19dc 019B     		ldr	r3, [sp, #4]
 4761 19de 1B68     		ldr	r3, [r3]
 4762 19e0 019A     		ldr	r2, [sp, #4]
 4763 19e2 1268     		ldr	r2, [r2]
 4764 19e4 5268     		ldr	r2, [r2, #4]
 4765 19e6 22F00202 		bic	r2, r2, #2
 4766 19ea 5A60     		str	r2, [r3, #4]
 4767              		.loc 1 2438 0
 4768 19ec 019B     		ldr	r3, [sp, #4]
 4769 19ee 93F84C30 		ldrb	r3, [r3, #76]	@ zero_extendqisi2
 4770 19f2 022B     		cmp	r3, #2
 4771 19f4 01D1     		bne	.L327
 4772              		.loc 1 2438 0 is_stmt 0 discriminator 1
 4773 19f6 0123     		movs	r3, #1
 4774 19f8 00E0     		b	.L328
 4775              	.L327:
 4776              		.loc 1 2438 0 discriminator 2
 4777 19fa 0323     		movs	r3, #3
 4778              	.L328:
 4779              		.loc 1 2438 0 discriminator 3
 4780 19fc 019A     		ldr	r2, [sp, #4]
 4781 19fe 82F84C30 		strb	r3, [r2, #76]
 4782              		.loc 1 2431 0 is_stmt 1 discriminator 3
 4783 1a02 4FE1     		b	.L321
 4784              	.L326:
 4785              		.loc 1 2431 0 is_stmt 0 discriminator 2
 4786 1a04 4EE1     		b	.L321
 4787              	.L325:
 4788              		.loc 1 2443 0 is_stmt 1
 4789 1a06 019B     		ldr	r3, [sp, #4]
 4790 1a08 1B68     		ldr	r3, [r3]
 4791 1a0a 9B68     		ldr	r3, [r3, #8]
 4792 1a0c 03F00103 		and	r3, r3, #1
 4793 1a10 002B     		cmp	r3, #0
 4794 1a12 36D0     		beq	.L329
 4795              		.loc 1 2444 0 discriminator 1
 4796 1a14 019B     		ldr	r3, [sp, #4]
 4797 1a16 1B68     		ldr	r3, [r3]
 4798 1a18 5B68     		ldr	r3, [r3, #4]
 4799 1a1a 03F00103 		and	r3, r3, #1
 4800              		.loc 1 2443 0 discriminator 1
 4801 1a1e 002B     		cmp	r3, #0
 4802 1a20 2FD0     		beq	.L329
 4803              		.loc 1 2447 0
 4804 1a22 0198     		ldr	r0, [sp, #4]
 4805 1a24 FFF7FEFF 		bl	HAL_DFSDM_FilterInjConvCpltCallback
 4806              		.loc 1 2450 0
ARM GAS  /tmp/ccjyqKqb.s 			page 86


 4807 1a28 019B     		ldr	r3, [sp, #4]
 4808 1a2a 9B6C     		ldr	r3, [r3, #72]
 4809 1a2c 5A1E     		subs	r2, r3, #1
 4810 1a2e 019B     		ldr	r3, [sp, #4]
 4811 1a30 9A64     		str	r2, [r3, #72]
 4812              		.loc 1 2451 0
 4813 1a32 019B     		ldr	r3, [sp, #4]
 4814 1a34 9B6C     		ldr	r3, [r3, #72]
 4815 1a36 002B     		cmp	r3, #0
 4816 1a38 22D1     		bne	.L330
 4817              		.loc 1 2454 0
 4818 1a3a 019B     		ldr	r3, [sp, #4]
 4819 1a3c 9B6B     		ldr	r3, [r3, #56]
 4820 1a3e 002B     		cmp	r3, #0
 4821 1a40 12D1     		bne	.L331
 4822              		.loc 1 2457 0
 4823 1a42 019B     		ldr	r3, [sp, #4]
 4824 1a44 1B68     		ldr	r3, [r3]
 4825 1a46 019A     		ldr	r2, [sp, #4]
 4826 1a48 1268     		ldr	r2, [r2]
 4827 1a4a 5268     		ldr	r2, [r2, #4]
 4828 1a4c 22F00102 		bic	r2, r2, #1
 4829 1a50 5A60     		str	r2, [r3, #4]
 4830              		.loc 1 2460 0
 4831 1a52 019B     		ldr	r3, [sp, #4]
 4832 1a54 93F84C30 		ldrb	r3, [r3, #76]	@ zero_extendqisi2
 4833 1a58 032B     		cmp	r3, #3
 4834 1a5a 01D1     		bne	.L332
 4835              		.loc 1 2460 0 is_stmt 0 discriminator 1
 4836 1a5c 0123     		movs	r3, #1
 4837 1a5e 00E0     		b	.L333
 4838              	.L332:
 4839              		.loc 1 2460 0 discriminator 2
 4840 1a60 0223     		movs	r3, #2
 4841              	.L333:
 4842              		.loc 1 2460 0 discriminator 3
 4843 1a62 019A     		ldr	r2, [sp, #4]
 4844 1a64 82F84C30 		strb	r3, [r2, #76]
 4845              	.L331:
 4846              		.loc 1 2464 0 is_stmt 1
 4847 1a68 019B     		ldr	r3, [sp, #4]
 4848 1a6a 93F84030 		ldrb	r3, [r3, #64]	@ zero_extendqisi2
 4849              		.loc 1 2465 0
 4850 1a6e 012B     		cmp	r3, #1
 4851 1a70 02D1     		bne	.L334
 4852              		.loc 1 2465 0 is_stmt 0 discriminator 1
 4853 1a72 019B     		ldr	r3, [sp, #4]
 4854 1a74 5B6C     		ldr	r3, [r3, #68]
 4855 1a76 00E0     		b	.L335
 4856              	.L334:
 4857              		.loc 1 2465 0 discriminator 2
 4858 1a78 0123     		movs	r3, #1
 4859              	.L335:
 4860              		.loc 1 2464 0 is_stmt 1
 4861 1a7a 019A     		ldr	r2, [sp, #4]
 4862 1a7c 9364     		str	r3, [r2, #72]
 4863              		.loc 1 2451 0
ARM GAS  /tmp/ccjyqKqb.s 			page 87


 4864 1a7e 11E1     		b	.L321
 4865              	.L330:
 4866              		.loc 1 2451 0 is_stmt 0 discriminator 1
 4867 1a80 10E1     		b	.L321
 4868              	.L329:
 4869              		.loc 1 2469 0 is_stmt 1
 4870 1a82 019B     		ldr	r3, [sp, #4]
 4871 1a84 1B68     		ldr	r3, [r3]
 4872 1a86 9B68     		ldr	r3, [r3, #8]
 4873 1a88 03F01003 		and	r3, r3, #16
 4874 1a8c 002B     		cmp	r3, #0
 4875 1a8e 57D0     		beq	.L336
 4876              		.loc 1 2470 0 discriminator 1
 4877 1a90 019B     		ldr	r3, [sp, #4]
 4878 1a92 1B68     		ldr	r3, [r3]
 4879 1a94 5B68     		ldr	r3, [r3, #4]
 4880 1a96 03F01003 		and	r3, r3, #16
 4881              		.loc 1 2469 0 discriminator 1
 4882 1a9a 002B     		cmp	r3, #0
 4883 1a9c 50D0     		beq	.L336
 4884              	.LBB133:
 4885              		.loc 1 2472 0
 4886 1a9e 0023     		movs	r3, #0
 4887 1aa0 1593     		str	r3, [sp, #84]
 4888              		.loc 1 2473 0
 4889 1aa2 0023     		movs	r3, #0
 4890 1aa4 0F93     		str	r3, [sp, #60]
 4891              		.loc 1 2474 0
 4892 1aa6 0023     		movs	r3, #0
 4893 1aa8 1493     		str	r3, [sp, #80]
 4894              		.loc 1 2477 0
 4895 1aaa 019B     		ldr	r3, [sp, #4]
 4896 1aac 1B68     		ldr	r3, [r3]
 4897 1aae 9B6A     		ldr	r3, [r3, #40]
 4898 1ab0 1593     		str	r3, [sp, #84]
 4899              		.loc 1 2478 0
 4900 1ab2 159B     		ldr	r3, [sp, #84]
 4901 1ab4 DBB2     		uxtb	r3, r3
 4902 1ab6 002B     		cmp	r3, #0
 4903 1ab8 01D0     		beq	.L337
 4904              		.loc 1 2478 0 is_stmt 0 discriminator 1
 4905 1aba 0123     		movs	r3, #1
 4906 1abc 00E0     		b	.L338
 4907              	.L337:
 4908              		.loc 1 2478 0 discriminator 2
 4909 1abe 0023     		movs	r3, #0
 4910              	.L338:
 4911              		.loc 1 2478 0 discriminator 3
 4912 1ac0 0F93     		str	r3, [sp, #60]
 4913              		.loc 1 2479 0 is_stmt 1 discriminator 3
 4914 1ac2 0F9B     		ldr	r3, [sp, #60]
 4915 1ac4 002B     		cmp	r3, #0
 4916 1ac6 0ED1     		bne	.L339
 4917 1ac8 4FF47F43 		mov	r3, #65280
 4918 1acc 0E93     		str	r3, [sp, #56]
 4919              	.LBB134:
 4920              	.LBB135:
ARM GAS  /tmp/ccjyqKqb.s 			page 88


 4921              		.loc 2 586 0
 4922 1ace 0E9B     		ldr	r3, [sp, #56]
 4923              	@ 586 "../../../../../../ChibiOS/os/ext/CMSIS/include/core_cmInstr.h" 1
 4924 1ad0 93FAA3F3 		rbit r3, r3
 4925              	@ 0 "" 2
 4926              		.thumb
 4927 1ad4 0D93     		str	r3, [sp, #52]
 4928              		.loc 2 599 0
 4929 1ad6 0D9B     		ldr	r3, [sp, #52]
 4930              	.LBE135:
 4931              	.LBE134:
 4932              		.loc 1 2481 0
 4933 1ad8 B3FA83F3 		clz	r3, r3
 4934 1adc 159A     		ldr	r2, [sp, #84]
 4935 1ade 22FA03F3 		lsr	r3, r2, r3
 4936 1ae2 1593     		str	r3, [sp, #84]
 4937              		.loc 1 2483 0
 4938 1ae4 06E0     		b	.L341
 4939              	.L339:
 4940 1ae6 05E0     		b	.L341
 4941              	.L342:
 4942              		.loc 1 2485 0
 4943 1ae8 149B     		ldr	r3, [sp, #80]
 4944 1aea 0133     		adds	r3, r3, #1
 4945 1aec 1493     		str	r3, [sp, #80]
 4946              		.loc 1 2486 0
 4947 1aee 159B     		ldr	r3, [sp, #84]
 4948 1af0 5B08     		lsrs	r3, r3, #1
 4949 1af2 1593     		str	r3, [sp, #84]
 4950              	.L341:
 4951              		.loc 1 2483 0 discriminator 1
 4952 1af4 159B     		ldr	r3, [sp, #84]
 4953 1af6 03F00103 		and	r3, r3, #1
 4954 1afa 002B     		cmp	r3, #0
 4955 1afc F4D0     		beq	.L342
 4956              		.loc 1 2489 0
 4957 1afe 019B     		ldr	r3, [sp, #4]
 4958 1b00 1A68     		ldr	r2, [r3]
 4959 1b02 0F9B     		ldr	r3, [sp, #60]
 4960 1b04 002B     		cmp	r3, #0
 4961 1b06 10D1     		bne	.L343
 4962 1b08 4FF47F43 		mov	r3, #65280
 4963 1b0c 0C93     		str	r3, [sp, #48]
 4964              	.LBB136:
 4965              	.LBB137:
 4966              		.loc 2 586 0
 4967 1b0e 0C9B     		ldr	r3, [sp, #48]
 4968              	@ 586 "../../../../../../ChibiOS/os/ext/CMSIS/include/core_cmInstr.h" 1
 4969 1b10 93FAA3F3 		rbit r3, r3
 4970              	@ 0 "" 2
 4971              		.thumb
 4972 1b14 0B93     		str	r3, [sp, #44]
 4973              		.loc 2 599 0
 4974 1b16 0B9B     		ldr	r3, [sp, #44]
 4975              	.LBE137:
 4976              	.LBE136:
 4977              		.loc 1 2490 0
ARM GAS  /tmp/ccjyqKqb.s 			page 89


 4978 1b18 B3FA83F3 		clz	r3, r3
 4979 1b1c 1946     		mov	r1, r3
 4980 1b1e 149B     		ldr	r3, [sp, #80]
 4981 1b20 0B44     		add	r3, r3, r1
 4982 1b22 0121     		movs	r1, #1
 4983 1b24 01FA03F3 		lsl	r3, r1, r3
 4984 1b28 03E0     		b	.L345
 4985              	.L343:
 4986              		.loc 1 2491 0 discriminator 1
 4987 1b2a 149B     		ldr	r3, [sp, #80]
 4988 1b2c 0121     		movs	r1, #1
 4989 1b2e 01FA03F3 		lsl	r3, r1, r3
 4990              	.L345:
 4991              		.loc 1 2489 0 discriminator 2
 4992 1b32 D362     		str	r3, [r2, #44]
 4993              		.loc 1 2494 0 discriminator 2
 4994 1b34 0198     		ldr	r0, [sp, #4]
 4995 1b36 1499     		ldr	r1, [sp, #80]
 4996 1b38 0F9A     		ldr	r2, [sp, #60]
 4997 1b3a FFF7FEFF 		bl	HAL_DFSDM_FilterAwdCallback
 4998              	.LBE133:
 4999              		.loc 1 2471 0 discriminator 2
 5000 1b3e B1E0     		b	.L321
 5001              	.L336:
 5002              		.loc 1 2497 0
 5003 1b40 019B     		ldr	r3, [sp, #4]
 5004 1b42 1A68     		ldr	r2, [r3]
 5005 1b44 594B     		ldr	r3, .L356
 5006 1b46 9A42     		cmp	r2, r3
 5007 1b48 5DD1     		bne	.L346
 5008              		.loc 1 2498 0 discriminator 1
 5009 1b4a 019B     		ldr	r3, [sp, #4]
 5010 1b4c 1B68     		ldr	r3, [r3]
 5011 1b4e 9B68     		ldr	r3, [r3, #8]
 5012 1b50 03F47F03 		and	r3, r3, #16711680
 5013              		.loc 1 2497 0 discriminator 1
 5014 1b54 002B     		cmp	r3, #0
 5015 1b56 56D0     		beq	.L346
 5016              		.loc 1 2499 0
 5017 1b58 019B     		ldr	r3, [sp, #4]
 5018 1b5a 1B68     		ldr	r3, [r3]
 5019 1b5c 5B68     		ldr	r3, [r3, #4]
 5020 1b5e 03F04003 		and	r3, r3, #64
 5021              		.loc 1 2498 0
 5022 1b62 002B     		cmp	r3, #0
 5023 1b64 4FD0     		beq	.L346
 5024              	.LBB138:
 5025              		.loc 1 2501 0
 5026 1b66 0023     		movs	r3, #0
 5027 1b68 1393     		str	r3, [sp, #76]
 5028              		.loc 1 2502 0
 5029 1b6a 0023     		movs	r3, #0
 5030 1b6c 1293     		str	r3, [sp, #72]
 5031              		.loc 1 2504 0
 5032 1b6e 019B     		ldr	r3, [sp, #4]
 5033 1b70 1B68     		ldr	r3, [r3]
 5034 1b72 9B68     		ldr	r3, [r3, #8]
ARM GAS  /tmp/ccjyqKqb.s 			page 90


 5035 1b74 03F47F02 		and	r2, r3, #16711680
 5036 1b78 4FF47F03 		mov	r3, #16711680
 5037 1b7c 0A93     		str	r3, [sp, #40]
 5038              	.LBB139:
 5039              	.LBB140:
 5040              		.loc 2 586 0
 5041 1b7e 0A9B     		ldr	r3, [sp, #40]
 5042              	@ 586 "../../../../../../ChibiOS/os/ext/CMSIS/include/core_cmInstr.h" 1
 5043 1b80 93FAA3F3 		rbit r3, r3
 5044              	@ 0 "" 2
 5045              		.thumb
 5046 1b84 0993     		str	r3, [sp, #36]
 5047              		.loc 2 599 0
 5048 1b86 099B     		ldr	r3, [sp, #36]
 5049              	.LBE140:
 5050              	.LBE139:
 5051              		.loc 1 2504 0
 5052 1b88 B3FA83F3 		clz	r3, r3
 5053 1b8c 22FA03F3 		lsr	r3, r2, r3
 5054 1b90 1393     		str	r3, [sp, #76]
 5055              		.loc 1 2506 0
 5056 1b92 34E0     		b	.L348
 5057              	.L351:
 5058              		.loc 1 2509 0
 5059 1b94 139B     		ldr	r3, [sp, #76]
 5060 1b96 03F00103 		and	r3, r3, #1
 5061 1b9a 002B     		cmp	r3, #0
 5062 1b9c 29D0     		beq	.L349
 5063              		.loc 1 2509 0 is_stmt 0 discriminator 1
 5064 1b9e 444B     		ldr	r3, .L356+4
 5065 1ba0 129A     		ldr	r2, [sp, #72]
 5066 1ba2 53F82230 		ldr	r3, [r3, r2, lsl #2]
 5067 1ba6 002B     		cmp	r3, #0
 5068 1ba8 23D0     		beq	.L349
 5069              		.loc 1 2512 0 is_stmt 1
 5070 1baa 414B     		ldr	r3, .L356+4
 5071 1bac 129A     		ldr	r2, [sp, #72]
 5072 1bae 53F82230 		ldr	r3, [r3, r2, lsl #2]
 5073 1bb2 1B68     		ldr	r3, [r3]
 5074 1bb4 1B68     		ldr	r3, [r3]
 5075 1bb6 03F04003 		and	r3, r3, #64
 5076 1bba 002B     		cmp	r3, #0
 5077 1bbc 19D0     		beq	.L349
 5078              		.loc 1 2515 0
 5079 1bbe 019B     		ldr	r3, [sp, #4]
 5080 1bc0 1B68     		ldr	r3, [r3]
 5081 1bc2 4FF47F02 		mov	r2, #16711680
 5082 1bc6 0892     		str	r2, [sp, #32]
 5083              	.LBB141:
 5084              	.LBB142:
 5085              		.loc 2 586 0
 5086 1bc8 089A     		ldr	r2, [sp, #32]
 5087              	@ 586 "../../../../../../ChibiOS/os/ext/CMSIS/include/core_cmInstr.h" 1
 5088 1bca 92FAA2F2 		rbit r2, r2
 5089              	@ 0 "" 2
 5090              		.thumb
 5091 1bce 0792     		str	r2, [sp, #28]
ARM GAS  /tmp/ccjyqKqb.s 			page 91


 5092              		.loc 2 599 0
 5093 1bd0 079A     		ldr	r2, [sp, #28]
 5094              	.LBE142:
 5095              	.LBE141:
 5096              		.loc 1 2515 0
 5097 1bd2 B2FA82F2 		clz	r2, r2
 5098 1bd6 1146     		mov	r1, r2
 5099 1bd8 129A     		ldr	r2, [sp, #72]
 5100 1bda 0A44     		add	r2, r2, r1
 5101 1bdc 0121     		movs	r1, #1
 5102 1bde 01FA02F2 		lsl	r2, r1, r2
 5103 1be2 DA60     		str	r2, [r3, #12]
 5104              		.loc 1 2518 0
 5105 1be4 324B     		ldr	r3, .L356+4
 5106 1be6 129A     		ldr	r2, [sp, #72]
 5107 1be8 53F82230 		ldr	r3, [r3, r2, lsl #2]
 5108 1bec 1846     		mov	r0, r3
 5109 1bee FFF7FEFF 		bl	HAL_DFSDM_ChannelCkabCallback
 5110              	.L349:
 5111              		.loc 1 2521 0
 5112 1bf2 129B     		ldr	r3, [sp, #72]
 5113 1bf4 0133     		adds	r3, r3, #1
 5114 1bf6 1293     		str	r3, [sp, #72]
 5115              		.loc 1 2522 0
 5116 1bf8 139B     		ldr	r3, [sp, #76]
 5117 1bfa 5B08     		lsrs	r3, r3, #1
 5118 1bfc 1393     		str	r3, [sp, #76]
 5119              	.L348:
 5120              		.loc 1 2506 0 discriminator 1
 5121 1bfe 129B     		ldr	r3, [sp, #72]
 5122 1c00 072B     		cmp	r3, #7
 5123 1c02 C7D9     		bls	.L351
 5124              	.LBE138:
 5125              		.loc 1 2500 0
 5126 1c04 4EE0     		b	.L321
 5127              	.L346:
 5128              		.loc 1 2526 0
 5129 1c06 019B     		ldr	r3, [sp, #4]
 5130 1c08 1A68     		ldr	r2, [r3]
 5131 1c0a 284B     		ldr	r3, .L356
 5132 1c0c 9A42     		cmp	r2, r3
 5133 1c0e 49D1     		bne	.L321
 5134              		.loc 1 2527 0 discriminator 1
 5135 1c10 019B     		ldr	r3, [sp, #4]
 5136 1c12 1B68     		ldr	r3, [r3]
 5137 1c14 9B68     		ldr	r3, [r3, #8]
 5138 1c16 03F07F43 		and	r3, r3, #-16777216
 5139              		.loc 1 2526 0 discriminator 1
 5140 1c1a 002B     		cmp	r3, #0
 5141 1c1c 42D0     		beq	.L321
 5142              		.loc 1 2528 0
 5143 1c1e 019B     		ldr	r3, [sp, #4]
 5144 1c20 1B68     		ldr	r3, [r3]
 5145 1c22 5B68     		ldr	r3, [r3, #4]
 5146 1c24 03F02003 		and	r3, r3, #32
 5147              		.loc 1 2527 0
 5148 1c28 002B     		cmp	r3, #0
ARM GAS  /tmp/ccjyqKqb.s 			page 92


 5149 1c2a 3BD0     		beq	.L321
 5150              	.LBB143:
 5151              		.loc 1 2530 0
 5152 1c2c 0023     		movs	r3, #0
 5153 1c2e 1193     		str	r3, [sp, #68]
 5154              		.loc 1 2531 0
 5155 1c30 0023     		movs	r3, #0
 5156 1c32 1093     		str	r3, [sp, #64]
 5157              		.loc 1 2534 0
 5158 1c34 019B     		ldr	r3, [sp, #4]
 5159 1c36 1B68     		ldr	r3, [r3]
 5160 1c38 9B68     		ldr	r3, [r3, #8]
 5161 1c3a 03F07F42 		and	r2, r3, #-16777216
 5162 1c3e 4FF07F43 		mov	r3, #-16777216
 5163 1c42 0693     		str	r3, [sp, #24]
 5164              	.LBB144:
 5165              	.LBB145:
 5166              		.loc 2 586 0
 5167 1c44 069B     		ldr	r3, [sp, #24]
 5168              	@ 586 "../../../../../../ChibiOS/os/ext/CMSIS/include/core_cmInstr.h" 1
 5169 1c46 93FAA3F3 		rbit r3, r3
 5170              	@ 0 "" 2
 5171              		.thumb
 5172 1c4a 0593     		str	r3, [sp, #20]
 5173              		.loc 2 599 0
 5174 1c4c 059B     		ldr	r3, [sp, #20]
 5175              	.LBE145:
 5176              	.LBE144:
 5177              		.loc 1 2534 0
 5178 1c4e B3FA83F3 		clz	r3, r3
 5179 1c52 22FA03F3 		lsr	r3, r2, r3
 5180 1c56 1193     		str	r3, [sp, #68]
 5181              		.loc 1 2535 0
 5182 1c58 05E0     		b	.L353
 5183              	.L354:
 5184              		.loc 1 2537 0
 5185 1c5a 109B     		ldr	r3, [sp, #64]
 5186 1c5c 0133     		adds	r3, r3, #1
 5187 1c5e 1093     		str	r3, [sp, #64]
 5188              		.loc 1 2538 0
 5189 1c60 119B     		ldr	r3, [sp, #68]
 5190 1c62 5B08     		lsrs	r3, r3, #1
 5191 1c64 1193     		str	r3, [sp, #68]
 5192              	.L353:
 5193              		.loc 1 2535 0 discriminator 1
 5194 1c66 119B     		ldr	r3, [sp, #68]
 5195 1c68 03F00103 		and	r3, r3, #1
 5196 1c6c 002B     		cmp	r3, #0
 5197 1c6e F4D0     		beq	.L354
 5198              		.loc 1 2542 0
 5199 1c70 019B     		ldr	r3, [sp, #4]
 5200 1c72 1B68     		ldr	r3, [r3]
 5201 1c74 4FF07F42 		mov	r2, #-16777216
 5202 1c78 0492     		str	r2, [sp, #16]
 5203              	.LBB146:
 5204              	.LBB147:
 5205              		.loc 2 586 0
ARM GAS  /tmp/ccjyqKqb.s 			page 93


 5206 1c7a 049A     		ldr	r2, [sp, #16]
 5207              	@ 586 "../../../../../../ChibiOS/os/ext/CMSIS/include/core_cmInstr.h" 1
 5208 1c7c 92FAA2F2 		rbit r2, r2
 5209              	@ 0 "" 2
 5210              		.thumb
 5211 1c80 0392     		str	r2, [sp, #12]
 5212              		.loc 2 599 0
 5213 1c82 039A     		ldr	r2, [sp, #12]
 5214              	.LBE147:
 5215              	.LBE146:
 5216              		.loc 1 2542 0
 5217 1c84 B2FA82F2 		clz	r2, r2
 5218 1c88 1146     		mov	r1, r2
 5219 1c8a 109A     		ldr	r2, [sp, #64]
 5220 1c8c 0A44     		add	r2, r2, r1
 5221 1c8e 0121     		movs	r1, #1
 5222 1c90 01FA02F2 		lsl	r2, r1, r2
 5223 1c94 DA60     		str	r2, [r3, #12]
 5224              		.loc 1 2545 0
 5225 1c96 064B     		ldr	r3, .L356+4
 5226 1c98 109A     		ldr	r2, [sp, #64]
 5227 1c9a 53F82230 		ldr	r3, [r3, r2, lsl #2]
 5228 1c9e 1846     		mov	r0, r3
 5229 1ca0 FFF7FEFF 		bl	HAL_DFSDM_ChannelScdCallback
 5230              	.L321:
 5231              	.LBE143:
 5232              		.loc 1 2547 0
 5233 1ca4 17B0     		add	sp, sp, #92
 5234              		@ sp needed
 5235 1ca6 5DF804FB 		ldr	pc, [sp], #4
 5236              	.L357:
 5237 1caa 00BF     		.align	2
 5238              	.L356:
 5239 1cac 00610140 		.word	1073832192
 5240 1cb0 00000000 		.word	a_dfsdm1ChannelHandle
 5241              		.cfi_endproc
 5242              	.LFE175:
 5243              		.size	HAL_DFSDM_IRQHandler, .-HAL_DFSDM_IRQHandler
 5244              		.align	2
 5245 1cb4 AFF30080 		.p2align 4,,15
 5245      AFF30080 
 5245      AFF30080 
 5246              		.weak	HAL_DFSDM_FilterRegConvCpltCallback
 5247              		.thumb
 5248              		.thumb_func
 5249              		.type	HAL_DFSDM_FilterRegConvCpltCallback, %function
 5250              	HAL_DFSDM_FilterRegConvCpltCallback:
 5251              	.LFB176:
 5252              		.loc 1 2557 0
 5253              		.cfi_startproc
 5254              		@ args = 0, pretend = 0, frame = 8
 5255              		@ frame_needed = 0, uses_anonymous_args = 0
 5256              		@ link register save eliminated.
 5257 1cc0 82B0     		sub	sp, sp, #8
 5258              		.cfi_def_cfa_offset 8
 5259 1cc2 0190     		str	r0, [sp, #4]
 5260              		.loc 1 2564 0
ARM GAS  /tmp/ccjyqKqb.s 			page 94


 5261 1cc4 02B0     		add	sp, sp, #8
 5262              		@ sp needed
 5263 1cc6 7047     		bx	lr
 5264              		.cfi_endproc
 5265              	.LFE176:
 5266              		.size	HAL_DFSDM_FilterRegConvCpltCallback, .-HAL_DFSDM_FilterRegConvCpltCallback
 5267              		.align	2
 5268 1cc8 AFF30080 		.p2align 4,,15
 5268      AFF30080 
 5269              		.weak	HAL_DFSDM_FilterRegConvHalfCpltCallback
 5270              		.thumb
 5271              		.thumb_func
 5272              		.type	HAL_DFSDM_FilterRegConvHalfCpltCallback, %function
 5273              	HAL_DFSDM_FilterRegConvHalfCpltCallback:
 5274              	.LFB177:
 5275              		.loc 1 2572 0
 5276              		.cfi_startproc
 5277              		@ args = 0, pretend = 0, frame = 8
 5278              		@ frame_needed = 0, uses_anonymous_args = 0
 5279              		@ link register save eliminated.
 5280 1cd0 82B0     		sub	sp, sp, #8
 5281              		.cfi_def_cfa_offset 8
 5282 1cd2 0190     		str	r0, [sp, #4]
 5283              		.loc 1 2579 0
 5284 1cd4 02B0     		add	sp, sp, #8
 5285              		@ sp needed
 5286 1cd6 7047     		bx	lr
 5287              		.cfi_endproc
 5288              	.LFE177:
 5289              		.size	HAL_DFSDM_FilterRegConvHalfCpltCallback, .-HAL_DFSDM_FilterRegConvHalfCpltCallback
 5290              		.align	2
 5291 1cd8 AFF30080 		.p2align 4,,15
 5291      AFF30080 
 5292              		.weak	HAL_DFSDM_FilterInjConvCpltCallback
 5293              		.thumb
 5294              		.thumb_func
 5295              		.type	HAL_DFSDM_FilterInjConvCpltCallback, %function
 5296              	HAL_DFSDM_FilterInjConvCpltCallback:
 5297              	.LFB178:
 5298              		.loc 1 2589 0
 5299              		.cfi_startproc
 5300              		@ args = 0, pretend = 0, frame = 8
 5301              		@ frame_needed = 0, uses_anonymous_args = 0
 5302              		@ link register save eliminated.
 5303 1ce0 82B0     		sub	sp, sp, #8
 5304              		.cfi_def_cfa_offset 8
 5305 1ce2 0190     		str	r0, [sp, #4]
 5306              		.loc 1 2596 0
 5307 1ce4 02B0     		add	sp, sp, #8
 5308              		@ sp needed
 5309 1ce6 7047     		bx	lr
 5310              		.cfi_endproc
 5311              	.LFE178:
 5312              		.size	HAL_DFSDM_FilterInjConvCpltCallback, .-HAL_DFSDM_FilterInjConvCpltCallback
 5313              		.align	2
 5314 1ce8 AFF30080 		.p2align 4,,15
 5314      AFF30080 
ARM GAS  /tmp/ccjyqKqb.s 			page 95


 5315              		.weak	HAL_DFSDM_FilterInjConvHalfCpltCallback
 5316              		.thumb
 5317              		.thumb_func
 5318              		.type	HAL_DFSDM_FilterInjConvHalfCpltCallback, %function
 5319              	HAL_DFSDM_FilterInjConvHalfCpltCallback:
 5320              	.LFB179:
 5321              		.loc 1 2604 0
 5322              		.cfi_startproc
 5323              		@ args = 0, pretend = 0, frame = 8
 5324              		@ frame_needed = 0, uses_anonymous_args = 0
 5325              		@ link register save eliminated.
 5326 1cf0 82B0     		sub	sp, sp, #8
 5327              		.cfi_def_cfa_offset 8
 5328 1cf2 0190     		str	r0, [sp, #4]
 5329              		.loc 1 2611 0
 5330 1cf4 02B0     		add	sp, sp, #8
 5331              		@ sp needed
 5332 1cf6 7047     		bx	lr
 5333              		.cfi_endproc
 5334              	.LFE179:
 5335              		.size	HAL_DFSDM_FilterInjConvHalfCpltCallback, .-HAL_DFSDM_FilterInjConvHalfCpltCallback
 5336              		.align	2
 5337 1cf8 AFF30080 		.p2align 4,,15
 5337      AFF30080 
 5338              		.weak	HAL_DFSDM_FilterAwdCallback
 5339              		.thumb
 5340              		.thumb_func
 5341              		.type	HAL_DFSDM_FilterAwdCallback, %function
 5342              	HAL_DFSDM_FilterAwdCallback:
 5343              	.LFB180:
 5344              		.loc 1 2622 0
 5345              		.cfi_startproc
 5346              		@ args = 0, pretend = 0, frame = 16
 5347              		@ frame_needed = 0, uses_anonymous_args = 0
 5348              		@ link register save eliminated.
 5349 1d00 84B0     		sub	sp, sp, #16
 5350              		.cfi_def_cfa_offset 16
 5351 1d02 0390     		str	r0, [sp, #12]
 5352 1d04 0291     		str	r1, [sp, #8]
 5353 1d06 0192     		str	r2, [sp, #4]
 5354              		.loc 1 2631 0
 5355 1d08 04B0     		add	sp, sp, #16
 5356              		@ sp needed
 5357 1d0a 7047     		bx	lr
 5358              		.cfi_endproc
 5359              	.LFE180:
 5360              		.size	HAL_DFSDM_FilterAwdCallback, .-HAL_DFSDM_FilterAwdCallback
 5361              		.align	2
 5362 1d0c AFF30080 		.p2align 4,,15
 5363              		.weak	HAL_DFSDM_FilterErrorCallback
 5364              		.thumb
 5365              		.thumb_func
 5366              		.type	HAL_DFSDM_FilterErrorCallback, %function
 5367              	HAL_DFSDM_FilterErrorCallback:
 5368              	.LFB181:
 5369              		.loc 1 2639 0
 5370              		.cfi_startproc
ARM GAS  /tmp/ccjyqKqb.s 			page 96


 5371              		@ args = 0, pretend = 0, frame = 8
 5372              		@ frame_needed = 0, uses_anonymous_args = 0
 5373              		@ link register save eliminated.
 5374 1d10 82B0     		sub	sp, sp, #8
 5375              		.cfi_def_cfa_offset 8
 5376 1d12 0190     		str	r0, [sp, #4]
 5377              		.loc 1 2646 0
 5378 1d14 02B0     		add	sp, sp, #8
 5379              		@ sp needed
 5380 1d16 7047     		bx	lr
 5381              		.cfi_endproc
 5382              	.LFE181:
 5383              		.size	HAL_DFSDM_FilterErrorCallback, .-HAL_DFSDM_FilterErrorCallback
 5384              		.align	2
 5385 1d18 AFF30080 		.p2align 4,,15
 5385      AFF30080 
 5386              		.global	HAL_DFSDM_FilterGetState
 5387              		.thumb
 5388              		.thumb_func
 5389              		.type	HAL_DFSDM_FilterGetState, %function
 5390              	HAL_DFSDM_FilterGetState:
 5391              	.LFB182:
 5392              		.loc 1 2672 0
 5393              		.cfi_startproc
 5394              		@ args = 0, pretend = 0, frame = 8
 5395              		@ frame_needed = 0, uses_anonymous_args = 0
 5396              		@ link register save eliminated.
 5397 1d20 82B0     		sub	sp, sp, #8
 5398              		.cfi_def_cfa_offset 8
 5399 1d22 0190     		str	r0, [sp, #4]
 5400              		.loc 1 2674 0
 5401 1d24 019B     		ldr	r3, [sp, #4]
 5402 1d26 93F84C30 		ldrb	r3, [r3, #76]	@ zero_extendqisi2
 5403              		.loc 1 2675 0
 5404 1d2a 1846     		mov	r0, r3
 5405 1d2c 02B0     		add	sp, sp, #8
 5406              		@ sp needed
 5407 1d2e 7047     		bx	lr
 5408              		.cfi_endproc
 5409              	.LFE182:
 5410              		.size	HAL_DFSDM_FilterGetState, .-HAL_DFSDM_FilterGetState
 5411              		.align	2
 5412              		.p2align 4,,15
 5413              		.global	HAL_DFSDM_FilterGetError
 5414              		.thumb
 5415              		.thumb_func
 5416              		.type	HAL_DFSDM_FilterGetError, %function
 5417              	HAL_DFSDM_FilterGetError:
 5418              	.LFB183:
 5419              		.loc 1 2683 0
 5420              		.cfi_startproc
 5421              		@ args = 0, pretend = 0, frame = 8
 5422              		@ frame_needed = 0, uses_anonymous_args = 0
 5423              		@ link register save eliminated.
 5424 1d30 82B0     		sub	sp, sp, #8
 5425              		.cfi_def_cfa_offset 8
 5426 1d32 0190     		str	r0, [sp, #4]
ARM GAS  /tmp/ccjyqKqb.s 			page 97


 5427              		.loc 1 2684 0
 5428 1d34 019B     		ldr	r3, [sp, #4]
 5429 1d36 1B6D     		ldr	r3, [r3, #80]
 5430              		.loc 1 2685 0
 5431 1d38 1846     		mov	r0, r3
 5432 1d3a 02B0     		add	sp, sp, #8
 5433              		@ sp needed
 5434 1d3c 7047     		bx	lr
 5435              		.cfi_endproc
 5436              	.LFE183:
 5437              		.size	HAL_DFSDM_FilterGetError, .-HAL_DFSDM_FilterGetError
 5438 1d3e 00BF     		.align	2
 5439              		.p2align 4,,15
 5440              		.thumb
 5441              		.thumb_func
 5442              		.type	DFSDM_DMARegularHalfConvCplt, %function
 5443              	DFSDM_DMARegularHalfConvCplt:
 5444              	.LFB184:
 5445              		.loc 1 2707 0
 5446              		.cfi_startproc
 5447              		@ args = 0, pretend = 0, frame = 16
 5448              		@ frame_needed = 0, uses_anonymous_args = 0
 5449 1d40 00B5     		push	{lr}
 5450              		.cfi_def_cfa_offset 4
 5451              		.cfi_offset 14, -4
 5452 1d42 85B0     		sub	sp, sp, #20
 5453              		.cfi_def_cfa_offset 24
 5454 1d44 0190     		str	r0, [sp, #4]
 5455              		.loc 1 2709 0
 5456 1d46 019B     		ldr	r3, [sp, #4]
 5457 1d48 9B6A     		ldr	r3, [r3, #40]
 5458 1d4a 0393     		str	r3, [sp, #12]
 5459              		.loc 1 2712 0
 5460 1d4c 0398     		ldr	r0, [sp, #12]
 5461 1d4e FFF7FEFF 		bl	HAL_DFSDM_FilterRegConvHalfCpltCallback
 5462              		.loc 1 2713 0
 5463 1d52 05B0     		add	sp, sp, #20
 5464              		@ sp needed
 5465 1d54 5DF804FB 		ldr	pc, [sp], #4
 5466              		.cfi_endproc
 5467              	.LFE184:
 5468              		.size	DFSDM_DMARegularHalfConvCplt, .-DFSDM_DMARegularHalfConvCplt
 5469              		.align	2
 5470 1d58 AFF30080 		.p2align 4,,15
 5470      AFF30080 
 5471              		.thumb
 5472              		.thumb_func
 5473              		.type	DFSDM_DMARegularConvCplt, %function
 5474              	DFSDM_DMARegularConvCplt:
 5475              	.LFB185:
 5476              		.loc 1 2721 0
 5477              		.cfi_startproc
 5478              		@ args = 0, pretend = 0, frame = 16
 5479              		@ frame_needed = 0, uses_anonymous_args = 0
 5480 1d60 00B5     		push	{lr}
 5481              		.cfi_def_cfa_offset 4
 5482              		.cfi_offset 14, -4
ARM GAS  /tmp/ccjyqKqb.s 			page 98


 5483 1d62 85B0     		sub	sp, sp, #20
 5484              		.cfi_def_cfa_offset 24
 5485 1d64 0190     		str	r0, [sp, #4]
 5486              		.loc 1 2723 0
 5487 1d66 019B     		ldr	r3, [sp, #4]
 5488 1d68 9B6A     		ldr	r3, [r3, #40]
 5489 1d6a 0393     		str	r3, [sp, #12]
 5490              		.loc 1 2726 0
 5491 1d6c 0398     		ldr	r0, [sp, #12]
 5492 1d6e FFF7FEFF 		bl	HAL_DFSDM_FilterRegConvCpltCallback
 5493              		.loc 1 2727 0
 5494 1d72 05B0     		add	sp, sp, #20
 5495              		@ sp needed
 5496 1d74 5DF804FB 		ldr	pc, [sp], #4
 5497              		.cfi_endproc
 5498              	.LFE185:
 5499              		.size	DFSDM_DMARegularConvCplt, .-DFSDM_DMARegularConvCplt
 5500              		.align	2
 5501 1d78 AFF30080 		.p2align 4,,15
 5501      AFF30080 
 5502              		.thumb
 5503              		.thumb_func
 5504              		.type	DFSDM_DMAInjectedHalfConvCplt, %function
 5505              	DFSDM_DMAInjectedHalfConvCplt:
 5506              	.LFB186:
 5507              		.loc 1 2735 0
 5508              		.cfi_startproc
 5509              		@ args = 0, pretend = 0, frame = 16
 5510              		@ frame_needed = 0, uses_anonymous_args = 0
 5511 1d80 00B5     		push	{lr}
 5512              		.cfi_def_cfa_offset 4
 5513              		.cfi_offset 14, -4
 5514 1d82 85B0     		sub	sp, sp, #20
 5515              		.cfi_def_cfa_offset 24
 5516 1d84 0190     		str	r0, [sp, #4]
 5517              		.loc 1 2737 0
 5518 1d86 019B     		ldr	r3, [sp, #4]
 5519 1d88 9B6A     		ldr	r3, [r3, #40]
 5520 1d8a 0393     		str	r3, [sp, #12]
 5521              		.loc 1 2740 0
 5522 1d8c 0398     		ldr	r0, [sp, #12]
 5523 1d8e FFF7FEFF 		bl	HAL_DFSDM_FilterInjConvHalfCpltCallback
 5524              		.loc 1 2741 0
 5525 1d92 05B0     		add	sp, sp, #20
 5526              		@ sp needed
 5527 1d94 5DF804FB 		ldr	pc, [sp], #4
 5528              		.cfi_endproc
 5529              	.LFE186:
 5530              		.size	DFSDM_DMAInjectedHalfConvCplt, .-DFSDM_DMAInjectedHalfConvCplt
 5531              		.align	2
 5532 1d98 AFF30080 		.p2align 4,,15
 5532      AFF30080 
 5533              		.thumb
 5534              		.thumb_func
 5535              		.type	DFSDM_DMAInjectedConvCplt, %function
 5536              	DFSDM_DMAInjectedConvCplt:
 5537              	.LFB187:
ARM GAS  /tmp/ccjyqKqb.s 			page 99


 5538              		.loc 1 2749 0
 5539              		.cfi_startproc
 5540              		@ args = 0, pretend = 0, frame = 16
 5541              		@ frame_needed = 0, uses_anonymous_args = 0
 5542 1da0 00B5     		push	{lr}
 5543              		.cfi_def_cfa_offset 4
 5544              		.cfi_offset 14, -4
 5545 1da2 85B0     		sub	sp, sp, #20
 5546              		.cfi_def_cfa_offset 24
 5547 1da4 0190     		str	r0, [sp, #4]
 5548              		.loc 1 2751 0
 5549 1da6 019B     		ldr	r3, [sp, #4]
 5550 1da8 9B6A     		ldr	r3, [r3, #40]
 5551 1daa 0393     		str	r3, [sp, #12]
 5552              		.loc 1 2754 0
 5553 1dac 0398     		ldr	r0, [sp, #12]
 5554 1dae FFF7FEFF 		bl	HAL_DFSDM_FilterInjConvCpltCallback
 5555              		.loc 1 2755 0
 5556 1db2 05B0     		add	sp, sp, #20
 5557              		@ sp needed
 5558 1db4 5DF804FB 		ldr	pc, [sp], #4
 5559              		.cfi_endproc
 5560              	.LFE187:
 5561              		.size	DFSDM_DMAInjectedConvCplt, .-DFSDM_DMAInjectedConvCplt
 5562              		.align	2
 5563 1db8 AFF30080 		.p2align 4,,15
 5563      AFF30080 
 5564              		.thumb
 5565              		.thumb_func
 5566              		.type	DFSDM_DMAError, %function
 5567              	DFSDM_DMAError:
 5568              	.LFB188:
 5569              		.loc 1 2763 0
 5570              		.cfi_startproc
 5571              		@ args = 0, pretend = 0, frame = 16
 5572              		@ frame_needed = 0, uses_anonymous_args = 0
 5573 1dc0 00B5     		push	{lr}
 5574              		.cfi_def_cfa_offset 4
 5575              		.cfi_offset 14, -4
 5576 1dc2 85B0     		sub	sp, sp, #20
 5577              		.cfi_def_cfa_offset 24
 5578 1dc4 0190     		str	r0, [sp, #4]
 5579              		.loc 1 2765 0
 5580 1dc6 019B     		ldr	r3, [sp, #4]
 5581 1dc8 9B6A     		ldr	r3, [r3, #40]
 5582 1dca 0393     		str	r3, [sp, #12]
 5583              		.loc 1 2768 0
 5584 1dcc 039B     		ldr	r3, [sp, #12]
 5585 1dce 0322     		movs	r2, #3
 5586 1dd0 1A65     		str	r2, [r3, #80]
 5587              		.loc 1 2771 0
 5588 1dd2 0398     		ldr	r0, [sp, #12]
 5589 1dd4 FFF7FEFF 		bl	HAL_DFSDM_FilterErrorCallback
 5590              		.loc 1 2772 0
 5591 1dd8 05B0     		add	sp, sp, #20
 5592              		@ sp needed
 5593 1dda 5DF804FB 		ldr	pc, [sp], #4
ARM GAS  /tmp/ccjyqKqb.s 			page 100


 5594              		.cfi_endproc
 5595              	.LFE188:
 5596              		.size	DFSDM_DMAError, .-DFSDM_DMAError
 5597 1dde 00BF     		.align	2
 5598              		.p2align 4,,15
 5599              		.thumb
 5600              		.thumb_func
 5601              		.type	DFSDM_GetInjChannelsNbr, %function
 5602              	DFSDM_GetInjChannelsNbr:
 5603              	.LFB189:
 5604              		.loc 1 2780 0
 5605              		.cfi_startproc
 5606              		@ args = 0, pretend = 0, frame = 16
 5607              		@ frame_needed = 0, uses_anonymous_args = 0
 5608              		@ link register save eliminated.
 5609 1de0 84B0     		sub	sp, sp, #16
 5610              		.cfi_def_cfa_offset 16
 5611 1de2 0190     		str	r0, [sp, #4]
 5612              		.loc 1 2781 0
 5613 1de4 0023     		movs	r3, #0
 5614 1de6 0393     		str	r3, [sp, #12]
 5615              		.loc 1 2785 0
 5616 1de8 019B     		ldr	r3, [sp, #4]
 5617 1dea 9BB2     		uxth	r3, r3
 5618 1dec 0293     		str	r3, [sp, #8]
 5619              		.loc 1 2786 0
 5620 1dee 0AE0     		b	.L374
 5621              	.L376:
 5622              		.loc 1 2788 0
 5623 1df0 029B     		ldr	r3, [sp, #8]
 5624 1df2 03F00103 		and	r3, r3, #1
 5625 1df6 002B     		cmp	r3, #0
 5626 1df8 02D0     		beq	.L375
 5627              		.loc 1 2790 0
 5628 1dfa 039B     		ldr	r3, [sp, #12]
 5629 1dfc 0133     		adds	r3, r3, #1
 5630 1dfe 0393     		str	r3, [sp, #12]
 5631              	.L375:
 5632              		.loc 1 2792 0
 5633 1e00 029B     		ldr	r3, [sp, #8]
 5634 1e02 5B08     		lsrs	r3, r3, #1
 5635 1e04 0293     		str	r3, [sp, #8]
 5636              	.L374:
 5637              		.loc 1 2786 0 discriminator 1
 5638 1e06 029B     		ldr	r3, [sp, #8]
 5639 1e08 002B     		cmp	r3, #0
 5640 1e0a F1D1     		bne	.L376
 5641              		.loc 1 2794 0
 5642 1e0c 039B     		ldr	r3, [sp, #12]
 5643              		.loc 1 2795 0
 5644 1e0e 1846     		mov	r0, r3
 5645 1e10 04B0     		add	sp, sp, #16
 5646              		@ sp needed
 5647 1e12 7047     		bx	lr
 5648              		.cfi_endproc
 5649              	.LFE189:
 5650              		.size	DFSDM_GetInjChannelsNbr, .-DFSDM_GetInjChannelsNbr
ARM GAS  /tmp/ccjyqKqb.s 			page 101


 5651              		.align	2
 5652 1e14 AFF30080 		.p2align 4,,15
 5652      AFF30080 
 5652      AFF30080 
 5653              		.thumb
 5654              		.thumb_func
 5655              		.type	DFSDM_GetChannelFromInstance, %function
 5656              	DFSDM_GetChannelFromInstance:
 5657              	.LFB190:
 5658              		.loc 1 2803 0
 5659              		.cfi_startproc
 5660              		@ args = 0, pretend = 0, frame = 16
 5661              		@ frame_needed = 0, uses_anonymous_args = 0
 5662              		@ link register save eliminated.
 5663 1e20 84B0     		sub	sp, sp, #16
 5664              		.cfi_def_cfa_offset 16
 5665 1e22 0190     		str	r0, [sp, #4]
 5666              		.loc 1 2804 0
 5667 1e24 FF23     		movs	r3, #255
 5668 1e26 0393     		str	r3, [sp, #12]
 5669              		.loc 1 2807 0
 5670 1e28 019A     		ldr	r2, [sp, #4]
 5671 1e2a 1D4B     		ldr	r3, .L388
 5672 1e2c 9A42     		cmp	r2, r3
 5673 1e2e 02D1     		bne	.L379
 5674              		.loc 1 2809 0
 5675 1e30 0023     		movs	r3, #0
 5676 1e32 0393     		str	r3, [sp, #12]
 5677 1e34 2FE0     		b	.L380
 5678              	.L379:
 5679              		.loc 1 2811 0
 5680 1e36 019A     		ldr	r2, [sp, #4]
 5681 1e38 1A4B     		ldr	r3, .L388+4
 5682 1e3a 9A42     		cmp	r2, r3
 5683 1e3c 02D1     		bne	.L381
 5684              		.loc 1 2813 0
 5685 1e3e 0123     		movs	r3, #1
 5686 1e40 0393     		str	r3, [sp, #12]
 5687 1e42 28E0     		b	.L380
 5688              	.L381:
 5689              		.loc 1 2815 0
 5690 1e44 019A     		ldr	r2, [sp, #4]
 5691 1e46 184B     		ldr	r3, .L388+8
 5692 1e48 9A42     		cmp	r2, r3
 5693 1e4a 02D1     		bne	.L382
 5694              		.loc 1 2817 0
 5695 1e4c 0223     		movs	r3, #2
 5696 1e4e 0393     		str	r3, [sp, #12]
 5697 1e50 21E0     		b	.L380
 5698              	.L382:
 5699              		.loc 1 2819 0
 5700 1e52 019A     		ldr	r2, [sp, #4]
 5701 1e54 154B     		ldr	r3, .L388+12
 5702 1e56 9A42     		cmp	r2, r3
 5703 1e58 02D1     		bne	.L383
 5704              		.loc 1 2821 0
 5705 1e5a 0323     		movs	r3, #3
ARM GAS  /tmp/ccjyqKqb.s 			page 102


 5706 1e5c 0393     		str	r3, [sp, #12]
 5707 1e5e 1AE0     		b	.L380
 5708              	.L383:
 5709              		.loc 1 2823 0
 5710 1e60 019A     		ldr	r2, [sp, #4]
 5711 1e62 134B     		ldr	r3, .L388+16
 5712 1e64 9A42     		cmp	r2, r3
 5713 1e66 02D1     		bne	.L384
 5714              		.loc 1 2825 0
 5715 1e68 0423     		movs	r3, #4
 5716 1e6a 0393     		str	r3, [sp, #12]
 5717 1e6c 13E0     		b	.L380
 5718              	.L384:
 5719              		.loc 1 2827 0
 5720 1e6e 019A     		ldr	r2, [sp, #4]
 5721 1e70 104B     		ldr	r3, .L388+20
 5722 1e72 9A42     		cmp	r2, r3
 5723 1e74 02D1     		bne	.L385
 5724              		.loc 1 2829 0
 5725 1e76 0523     		movs	r3, #5
 5726 1e78 0393     		str	r3, [sp, #12]
 5727 1e7a 0CE0     		b	.L380
 5728              	.L385:
 5729              		.loc 1 2831 0
 5730 1e7c 019A     		ldr	r2, [sp, #4]
 5731 1e7e 0E4B     		ldr	r3, .L388+24
 5732 1e80 9A42     		cmp	r2, r3
 5733 1e82 02D1     		bne	.L386
 5734              		.loc 1 2833 0
 5735 1e84 0623     		movs	r3, #6
 5736 1e86 0393     		str	r3, [sp, #12]
 5737 1e88 05E0     		b	.L380
 5738              	.L386:
 5739              		.loc 1 2835 0
 5740 1e8a 019A     		ldr	r2, [sp, #4]
 5741 1e8c 0B4B     		ldr	r3, .L388+28
 5742 1e8e 9A42     		cmp	r2, r3
 5743 1e90 01D1     		bne	.L380
 5744              		.loc 1 2837 0
 5745 1e92 0723     		movs	r3, #7
 5746 1e94 0393     		str	r3, [sp, #12]
 5747              	.L380:
 5748              		.loc 1 2840 0
 5749 1e96 039B     		ldr	r3, [sp, #12]
 5750              		.loc 1 2841 0
 5751 1e98 1846     		mov	r0, r3
 5752 1e9a 04B0     		add	sp, sp, #16
 5753              		@ sp needed
 5754 1e9c 7047     		bx	lr
 5755              	.L389:
 5756 1e9e 00BF     		.align	2
 5757              	.L388:
 5758 1ea0 00600140 		.word	1073831936
 5759 1ea4 20600140 		.word	1073831968
 5760 1ea8 40600140 		.word	1073832000
 5761 1eac 60600140 		.word	1073832032
 5762 1eb0 80600140 		.word	1073832064
ARM GAS  /tmp/ccjyqKqb.s 			page 103


 5763 1eb4 A0600140 		.word	1073832096
 5764 1eb8 C0600140 		.word	1073832128
 5765 1ebc E0600140 		.word	1073832160
 5766              		.cfi_endproc
 5767              	.LFE190:
 5768              		.size	DFSDM_GetChannelFromInstance, .-DFSDM_GetChannelFromInstance
 5769              		.align	2
 5770              		.p2align 4,,15
 5771              		.thumb
 5772              		.thumb_func
 5773              		.type	DFSDM_RegConvStart, %function
 5774              	DFSDM_RegConvStart:
 5775              	.LFB191:
 5776              		.loc 1 2849 0
 5777              		.cfi_startproc
 5778              		@ args = 0, pretend = 0, frame = 8
 5779              		@ frame_needed = 0, uses_anonymous_args = 0
 5780              		@ link register save eliminated.
 5781 1ec0 82B0     		sub	sp, sp, #8
 5782              		.cfi_def_cfa_offset 8
 5783 1ec2 0190     		str	r0, [sp, #4]
 5784              		.loc 1 2851 0
 5785 1ec4 019B     		ldr	r3, [sp, #4]
 5786 1ec6 5B6B     		ldr	r3, [r3, #52]
 5787 1ec8 002B     		cmp	r3, #0
 5788 1eca 08D1     		bne	.L391
 5789              		.loc 1 2854 0
 5790 1ecc 019B     		ldr	r3, [sp, #4]
 5791 1ece 1B68     		ldr	r3, [r3]
 5792 1ed0 019A     		ldr	r2, [sp, #4]
 5793 1ed2 1268     		ldr	r2, [r2]
 5794 1ed4 1268     		ldr	r2, [r2]
 5795 1ed6 42F40032 		orr	r2, r2, #131072
 5796 1eda 1A60     		str	r2, [r3]
 5797 1edc 33E0     		b	.L392
 5798              	.L391:
 5799              		.loc 1 2859 0
 5800 1ede 019B     		ldr	r3, [sp, #4]
 5801 1ee0 1B68     		ldr	r3, [r3]
 5802 1ee2 019A     		ldr	r2, [sp, #4]
 5803 1ee4 1268     		ldr	r2, [r2]
 5804 1ee6 1268     		ldr	r2, [r2]
 5805 1ee8 22F00102 		bic	r2, r2, #1
 5806 1eec 1A60     		str	r2, [r3]
 5807              		.loc 1 2862 0
 5808 1eee 019B     		ldr	r3, [sp, #4]
 5809 1ef0 1B68     		ldr	r3, [r3]
 5810 1ef2 019A     		ldr	r2, [sp, #4]
 5811 1ef4 1268     		ldr	r2, [r2]
 5812 1ef6 1268     		ldr	r2, [r2]
 5813 1ef8 42F40022 		orr	r2, r2, #524288
 5814 1efc 1A60     		str	r2, [r3]
 5815              		.loc 1 2865 0
 5816 1efe 019B     		ldr	r3, [sp, #4]
 5817 1f00 1B68     		ldr	r3, [r3]
 5818 1f02 019A     		ldr	r2, [sp, #4]
 5819 1f04 1268     		ldr	r2, [r2]
ARM GAS  /tmp/ccjyqKqb.s 			page 104


 5820 1f06 1268     		ldr	r2, [r2]
 5821 1f08 42F00102 		orr	r2, r2, #1
 5822 1f0c 1A60     		str	r2, [r3]
 5823              		.loc 1 2868 0
 5824 1f0e 019B     		ldr	r3, [sp, #4]
 5825 1f10 93F84C30 		ldrb	r3, [r3, #76]	@ zero_extendqisi2
 5826 1f14 032B     		cmp	r3, #3
 5827 1f16 16D1     		bne	.L392
 5828              		.loc 1 2870 0
 5829 1f18 019B     		ldr	r3, [sp, #4]
 5830 1f1a 9B6B     		ldr	r3, [r3, #56]
 5831 1f1c 002B     		cmp	r3, #0
 5832 1f1e 07D1     		bne	.L393
 5833              		.loc 1 2872 0
 5834 1f20 019B     		ldr	r3, [sp, #4]
 5835 1f22 1B68     		ldr	r3, [r3]
 5836 1f24 019A     		ldr	r2, [sp, #4]
 5837 1f26 1268     		ldr	r2, [r2]
 5838 1f28 1268     		ldr	r2, [r2]
 5839 1f2a 42F00202 		orr	r2, r2, #2
 5840 1f2e 1A60     		str	r2, [r3]
 5841              	.L393:
 5842              		.loc 1 2875 0
 5843 1f30 019B     		ldr	r3, [sp, #4]
 5844 1f32 93F84030 		ldrb	r3, [r3, #64]	@ zero_extendqisi2
 5845              		.loc 1 2876 0
 5846 1f36 012B     		cmp	r3, #1
 5847 1f38 02D1     		bne	.L394
 5848              		.loc 1 2876 0 is_stmt 0 discriminator 1
 5849 1f3a 019B     		ldr	r3, [sp, #4]
 5850 1f3c 5B6C     		ldr	r3, [r3, #68]
 5851 1f3e 00E0     		b	.L395
 5852              	.L394:
 5853              		.loc 1 2876 0 discriminator 2
 5854 1f40 0123     		movs	r3, #1
 5855              	.L395:
 5856              		.loc 1 2875 0 is_stmt 1
 5857 1f42 019A     		ldr	r2, [sp, #4]
 5858 1f44 9364     		str	r3, [r2, #72]
 5859              	.L392:
 5860              		.loc 1 2880 0
 5861 1f46 019B     		ldr	r3, [sp, #4]
 5862 1f48 93F84C30 		ldrb	r3, [r3, #76]	@ zero_extendqisi2
 5863 1f4c 012B     		cmp	r3, #1
 5864 1f4e 01D1     		bne	.L396
 5865              		.loc 1 2880 0 is_stmt 0 discriminator 1
 5866 1f50 0223     		movs	r3, #2
 5867 1f52 00E0     		b	.L397
 5868              	.L396:
 5869              		.loc 1 2880 0 discriminator 2
 5870 1f54 0423     		movs	r3, #4
 5871              	.L397:
 5872              		.loc 1 2880 0 discriminator 3
 5873 1f56 019A     		ldr	r2, [sp, #4]
 5874 1f58 82F84C30 		strb	r3, [r2, #76]
 5875              		.loc 1 2882 0 is_stmt 1 discriminator 3
 5876 1f5c 02B0     		add	sp, sp, #8
ARM GAS  /tmp/ccjyqKqb.s 			page 105


 5877              		@ sp needed
 5878 1f5e 7047     		bx	lr
 5879              		.cfi_endproc
 5880              	.LFE191:
 5881              		.size	DFSDM_RegConvStart, .-DFSDM_RegConvStart
 5882              		.align	2
 5883              		.p2align 4,,15
 5884              		.thumb
 5885              		.thumb_func
 5886              		.type	DFSDM_RegConvStop, %function
 5887              	DFSDM_RegConvStop:
 5888              	.LFB192:
 5889              		.loc 1 2890 0
 5890              		.cfi_startproc
 5891              		@ args = 0, pretend = 0, frame = 8
 5892              		@ frame_needed = 0, uses_anonymous_args = 0
 5893              		@ link register save eliminated.
 5894 1f60 82B0     		sub	sp, sp, #8
 5895              		.cfi_def_cfa_offset 8
 5896 1f62 0190     		str	r0, [sp, #4]
 5897              		.loc 1 2892 0
 5898 1f64 019B     		ldr	r3, [sp, #4]
 5899 1f66 1B68     		ldr	r3, [r3]
 5900 1f68 019A     		ldr	r2, [sp, #4]
 5901 1f6a 1268     		ldr	r2, [r2]
 5902 1f6c 1268     		ldr	r2, [r2]
 5903 1f6e 22F00102 		bic	r2, r2, #1
 5904 1f72 1A60     		str	r2, [r3]
 5905              		.loc 1 2895 0
 5906 1f74 019B     		ldr	r3, [sp, #4]
 5907 1f76 5B6B     		ldr	r3, [r3, #52]
 5908 1f78 012B     		cmp	r3, #1
 5909 1f7a 07D1     		bne	.L399
 5910              		.loc 1 2897 0
 5911 1f7c 019B     		ldr	r3, [sp, #4]
 5912 1f7e 1B68     		ldr	r3, [r3]
 5913 1f80 019A     		ldr	r2, [sp, #4]
 5914 1f82 1268     		ldr	r2, [r2]
 5915 1f84 1268     		ldr	r2, [r2]
 5916 1f86 22F40022 		bic	r2, r2, #524288
 5917 1f8a 1A60     		str	r2, [r3]
 5918              	.L399:
 5919              		.loc 1 2901 0
 5920 1f8c 019B     		ldr	r3, [sp, #4]
 5921 1f8e 1B68     		ldr	r3, [r3]
 5922 1f90 019A     		ldr	r2, [sp, #4]
 5923 1f92 1268     		ldr	r2, [r2]
 5924 1f94 1268     		ldr	r2, [r2]
 5925 1f96 42F00102 		orr	r2, r2, #1
 5926 1f9a 1A60     		str	r2, [r3]
 5927              		.loc 1 2904 0
 5928 1f9c 019B     		ldr	r3, [sp, #4]
 5929 1f9e 93F84C30 		ldrb	r3, [r3, #76]	@ zero_extendqisi2
 5930 1fa2 042B     		cmp	r3, #4
 5931 1fa4 16D1     		bne	.L400
 5932              		.loc 1 2906 0
 5933 1fa6 019B     		ldr	r3, [sp, #4]
ARM GAS  /tmp/ccjyqKqb.s 			page 106


 5934 1fa8 9B6B     		ldr	r3, [r3, #56]
 5935 1faa 002B     		cmp	r3, #0
 5936 1fac 07D1     		bne	.L401
 5937              		.loc 1 2908 0
 5938 1fae 019B     		ldr	r3, [sp, #4]
 5939 1fb0 1B68     		ldr	r3, [r3]
 5940 1fb2 019A     		ldr	r2, [sp, #4]
 5941 1fb4 1268     		ldr	r2, [r2]
 5942 1fb6 1268     		ldr	r2, [r2]
 5943 1fb8 42F00202 		orr	r2, r2, #2
 5944 1fbc 1A60     		str	r2, [r3]
 5945              	.L401:
 5946              		.loc 1 2911 0
 5947 1fbe 019B     		ldr	r3, [sp, #4]
 5948 1fc0 93F84030 		ldrb	r3, [r3, #64]	@ zero_extendqisi2
 5949              		.loc 1 2912 0
 5950 1fc4 012B     		cmp	r3, #1
 5951 1fc6 02D1     		bne	.L402
 5952              		.loc 1 2912 0 is_stmt 0 discriminator 1
 5953 1fc8 019B     		ldr	r3, [sp, #4]
 5954 1fca 5B6C     		ldr	r3, [r3, #68]
 5955 1fcc 00E0     		b	.L403
 5956              	.L402:
 5957              		.loc 1 2912 0 discriminator 2
 5958 1fce 0123     		movs	r3, #1
 5959              	.L403:
 5960              		.loc 1 2911 0 is_stmt 1
 5961 1fd0 019A     		ldr	r2, [sp, #4]
 5962 1fd2 9364     		str	r3, [r2, #72]
 5963              	.L400:
 5964              		.loc 1 2916 0
 5965 1fd4 019B     		ldr	r3, [sp, #4]
 5966 1fd6 93F84C30 		ldrb	r3, [r3, #76]	@ zero_extendqisi2
 5967 1fda 022B     		cmp	r3, #2
 5968 1fdc 01D1     		bne	.L404
 5969              		.loc 1 2916 0 is_stmt 0 discriminator 1
 5970 1fde 0123     		movs	r3, #1
 5971 1fe0 00E0     		b	.L405
 5972              	.L404:
 5973              		.loc 1 2916 0 discriminator 2
 5974 1fe2 0323     		movs	r3, #3
 5975              	.L405:
 5976              		.loc 1 2916 0 discriminator 3
 5977 1fe4 019A     		ldr	r2, [sp, #4]
 5978 1fe6 82F84C30 		strb	r3, [r2, #76]
 5979              		.loc 1 2918 0 is_stmt 1 discriminator 3
 5980 1fea 02B0     		add	sp, sp, #8
 5981              		@ sp needed
 5982 1fec 7047     		bx	lr
 5983              		.cfi_endproc
 5984              	.LFE192:
 5985              		.size	DFSDM_RegConvStop, .-DFSDM_RegConvStop
 5986 1fee 00BF     		.align	2
 5987              		.p2align 4,,15
 5988              		.thumb
 5989              		.thumb_func
 5990              		.type	DFSDM_InjConvStart, %function
ARM GAS  /tmp/ccjyqKqb.s 			page 107


 5991              	DFSDM_InjConvStart:
 5992              	.LFB193:
 5993              		.loc 1 2926 0
 5994              		.cfi_startproc
 5995              		@ args = 0, pretend = 0, frame = 8
 5996              		@ frame_needed = 0, uses_anonymous_args = 0
 5997              		@ link register save eliminated.
 5998 1ff0 82B0     		sub	sp, sp, #8
 5999              		.cfi_def_cfa_offset 8
 6000 1ff2 0190     		str	r0, [sp, #4]
 6001              		.loc 1 2928 0
 6002 1ff4 019B     		ldr	r3, [sp, #4]
 6003 1ff6 9B6B     		ldr	r3, [r3, #56]
 6004 1ff8 002B     		cmp	r3, #0
 6005 1ffa 08D1     		bne	.L407
 6006              		.loc 1 2931 0
 6007 1ffc 019B     		ldr	r3, [sp, #4]
 6008 1ffe 1B68     		ldr	r3, [r3]
 6009 2000 019A     		ldr	r2, [sp, #4]
 6010 2002 1268     		ldr	r2, [r2]
 6011 2004 1268     		ldr	r2, [r2]
 6012 2006 42F00202 		orr	r2, r2, #2
 6013 200a 1A60     		str	r2, [r3]
 6014 200c 36E0     		b	.L408
 6015              	.L407:
 6016              		.loc 1 2936 0
 6017 200e 019B     		ldr	r3, [sp, #4]
 6018 2010 1B68     		ldr	r3, [r3]
 6019 2012 019A     		ldr	r2, [sp, #4]
 6020 2014 1268     		ldr	r2, [r2]
 6021 2016 1268     		ldr	r2, [r2]
 6022 2018 22F00102 		bic	r2, r2, #1
 6023 201c 1A60     		str	r2, [r3]
 6024              		.loc 1 2938 0
 6025 201e 019B     		ldr	r3, [sp, #4]
 6026 2020 9B6B     		ldr	r3, [r3, #56]
 6027 2022 012B     		cmp	r3, #1
 6028 2024 08D1     		bne	.L409
 6029              		.loc 1 2941 0
 6030 2026 019B     		ldr	r3, [sp, #4]
 6031 2028 1B68     		ldr	r3, [r3]
 6032 202a 019A     		ldr	r2, [sp, #4]
 6033 202c 1268     		ldr	r2, [r2]
 6034 202e 1268     		ldr	r2, [r2]
 6035 2030 42F00802 		orr	r2, r2, #8
 6036 2034 1A60     		str	r2, [r3]
 6037 2036 08E0     		b	.L410
 6038              	.L409:
 6039              		.loc 1 2946 0
 6040 2038 019B     		ldr	r3, [sp, #4]
 6041 203a 1B68     		ldr	r3, [r3]
 6042 203c 019A     		ldr	r2, [sp, #4]
 6043 203e 1268     		ldr	r2, [r2]
 6044 2040 1168     		ldr	r1, [r2]
 6045 2042 019A     		ldr	r2, [sp, #4]
 6046 2044 D26B     		ldr	r2, [r2, #60]
 6047 2046 0A43     		orrs	r2, r2, r1
ARM GAS  /tmp/ccjyqKqb.s 			page 108


 6048 2048 1A60     		str	r2, [r3]
 6049              	.L410:
 6050              		.loc 1 2950 0
 6051 204a 019B     		ldr	r3, [sp, #4]
 6052 204c 1B68     		ldr	r3, [r3]
 6053 204e 019A     		ldr	r2, [sp, #4]
 6054 2050 1268     		ldr	r2, [r2]
 6055 2052 1268     		ldr	r2, [r2]
 6056 2054 42F00102 		orr	r2, r2, #1
 6057 2058 1A60     		str	r2, [r3]
 6058              		.loc 1 2953 0
 6059 205a 019B     		ldr	r3, [sp, #4]
 6060 205c 93F84C30 		ldrb	r3, [r3, #76]	@ zero_extendqisi2
 6061 2060 022B     		cmp	r3, #2
 6062 2062 0BD1     		bne	.L408
 6063              		.loc 1 2954 0 discriminator 1
 6064 2064 019B     		ldr	r3, [sp, #4]
 6065 2066 5B6B     		ldr	r3, [r3, #52]
 6066              		.loc 1 2953 0 discriminator 1
 6067 2068 002B     		cmp	r3, #0
 6068 206a 07D1     		bne	.L408
 6069              		.loc 1 2956 0
 6070 206c 019B     		ldr	r3, [sp, #4]
 6071 206e 1B68     		ldr	r3, [r3]
 6072 2070 019A     		ldr	r2, [sp, #4]
 6073 2072 1268     		ldr	r2, [r2]
 6074 2074 1268     		ldr	r2, [r2]
 6075 2076 42F40032 		orr	r2, r2, #131072
 6076 207a 1A60     		str	r2, [r3]
 6077              	.L408:
 6078              		.loc 1 2960 0
 6079 207c 019B     		ldr	r3, [sp, #4]
 6080 207e 93F84C30 		ldrb	r3, [r3, #76]	@ zero_extendqisi2
 6081 2082 012B     		cmp	r3, #1
 6082 2084 01D1     		bne	.L411
 6083              		.loc 1 2960 0 is_stmt 0 discriminator 1
 6084 2086 0323     		movs	r3, #3
 6085 2088 00E0     		b	.L412
 6086              	.L411:
 6087              		.loc 1 2960 0 discriminator 2
 6088 208a 0423     		movs	r3, #4
 6089              	.L412:
 6090              		.loc 1 2960 0 discriminator 3
 6091 208c 019A     		ldr	r2, [sp, #4]
 6092 208e 82F84C30 		strb	r3, [r2, #76]
 6093              		.loc 1 2962 0 is_stmt 1 discriminator 3
 6094 2092 02B0     		add	sp, sp, #8
 6095              		@ sp needed
 6096 2094 7047     		bx	lr
 6097              		.cfi_endproc
 6098              	.LFE193:
 6099              		.size	DFSDM_InjConvStart, .-DFSDM_InjConvStart
 6100 2096 00BF     		.align	2
 6101 2098 AFF30080 		.p2align 4,,15
 6101      AFF30080 
 6102              		.thumb
 6103              		.thumb_func
ARM GAS  /tmp/ccjyqKqb.s 			page 109


 6104              		.type	DFSDM_InjConvStop, %function
 6105              	DFSDM_InjConvStop:
 6106              	.LFB194:
 6107              		.loc 1 2970 0
 6108              		.cfi_startproc
 6109              		@ args = 0, pretend = 0, frame = 8
 6110              		@ frame_needed = 0, uses_anonymous_args = 0
 6111              		@ link register save eliminated.
 6112 20a0 82B0     		sub	sp, sp, #8
 6113              		.cfi_def_cfa_offset 8
 6114 20a2 0190     		str	r0, [sp, #4]
 6115              		.loc 1 2972 0
 6116 20a4 019B     		ldr	r3, [sp, #4]
 6117 20a6 1B68     		ldr	r3, [r3]
 6118 20a8 019A     		ldr	r2, [sp, #4]
 6119 20aa 1268     		ldr	r2, [r2]
 6120 20ac 1268     		ldr	r2, [r2]
 6121 20ae 22F00102 		bic	r2, r2, #1
 6122 20b2 1A60     		str	r2, [r3]
 6123              		.loc 1 2975 0
 6124 20b4 019B     		ldr	r3, [sp, #4]
 6125 20b6 9B6B     		ldr	r3, [r3, #56]
 6126 20b8 012B     		cmp	r3, #1
 6127 20ba 08D1     		bne	.L414
 6128              		.loc 1 2977 0
 6129 20bc 019B     		ldr	r3, [sp, #4]
 6130 20be 1B68     		ldr	r3, [r3]
 6131 20c0 019A     		ldr	r2, [sp, #4]
 6132 20c2 1268     		ldr	r2, [r2]
 6133 20c4 1268     		ldr	r2, [r2]
 6134 20c6 22F00802 		bic	r2, r2, #8
 6135 20ca 1A60     		str	r2, [r3]
 6136 20cc 0BE0     		b	.L415
 6137              	.L414:
 6138              		.loc 1 2979 0
 6139 20ce 019B     		ldr	r3, [sp, #4]
 6140 20d0 9B6B     		ldr	r3, [r3, #56]
 6141 20d2 022B     		cmp	r3, #2
 6142 20d4 07D1     		bne	.L415
 6143              		.loc 1 2982 0
 6144 20d6 019B     		ldr	r3, [sp, #4]
 6145 20d8 1B68     		ldr	r3, [r3]
 6146 20da 019A     		ldr	r2, [sp, #4]
 6147 20dc 1268     		ldr	r2, [r2]
 6148 20de 1268     		ldr	r2, [r2]
 6149 20e0 22F4C042 		bic	r2, r2, #24576
 6150 20e4 1A60     		str	r2, [r3]
 6151              	.L415:
 6152              		.loc 1 2986 0
 6153 20e6 019B     		ldr	r3, [sp, #4]
 6154 20e8 1B68     		ldr	r3, [r3]
 6155 20ea 019A     		ldr	r2, [sp, #4]
 6156 20ec 1268     		ldr	r2, [r2]
 6157 20ee 1268     		ldr	r2, [r2]
 6158 20f0 42F00102 		orr	r2, r2, #1
 6159 20f4 1A60     		str	r2, [r3]
 6160              		.loc 1 2989 0
ARM GAS  /tmp/ccjyqKqb.s 			page 110


 6161 20f6 019B     		ldr	r3, [sp, #4]
 6162 20f8 93F84C30 		ldrb	r3, [r3, #76]	@ zero_extendqisi2
 6163 20fc 042B     		cmp	r3, #4
 6164 20fe 0BD1     		bne	.L416
 6165              		.loc 1 2990 0 discriminator 1
 6166 2100 019B     		ldr	r3, [sp, #4]
 6167 2102 5B6B     		ldr	r3, [r3, #52]
 6168              		.loc 1 2989 0 discriminator 1
 6169 2104 002B     		cmp	r3, #0
 6170 2106 07D1     		bne	.L416
 6171              		.loc 1 2992 0
 6172 2108 019B     		ldr	r3, [sp, #4]
 6173 210a 1B68     		ldr	r3, [r3]
 6174 210c 019A     		ldr	r2, [sp, #4]
 6175 210e 1268     		ldr	r2, [r2]
 6176 2110 1268     		ldr	r2, [r2]
 6177 2112 42F40032 		orr	r2, r2, #131072
 6178 2116 1A60     		str	r2, [r3]
 6179              	.L416:
 6180              		.loc 1 2996 0
 6181 2118 019B     		ldr	r3, [sp, #4]
 6182 211a 93F84030 		ldrb	r3, [r3, #64]	@ zero_extendqisi2
 6183              		.loc 1 2997 0
 6184 211e 012B     		cmp	r3, #1
 6185 2120 02D1     		bne	.L417
 6186              		.loc 1 2997 0 is_stmt 0 discriminator 1
 6187 2122 019B     		ldr	r3, [sp, #4]
 6188 2124 5B6C     		ldr	r3, [r3, #68]
 6189 2126 00E0     		b	.L418
 6190              	.L417:
 6191              		.loc 1 2997 0 discriminator 2
 6192 2128 0123     		movs	r3, #1
 6193              	.L418:
 6194              		.loc 1 2996 0 is_stmt 1
 6195 212a 019A     		ldr	r2, [sp, #4]
 6196 212c 9364     		str	r3, [r2, #72]
 6197              		.loc 1 3000 0
 6198 212e 019B     		ldr	r3, [sp, #4]
 6199 2130 93F84C30 		ldrb	r3, [r3, #76]	@ zero_extendqisi2
 6200 2134 032B     		cmp	r3, #3
 6201 2136 01D1     		bne	.L419
 6202              		.loc 1 3000 0 is_stmt 0 discriminator 1
 6203 2138 0123     		movs	r3, #1
 6204 213a 00E0     		b	.L420
 6205              	.L419:
 6206              		.loc 1 3000 0 discriminator 2
 6207 213c 0223     		movs	r3, #2
 6208              	.L420:
 6209              		.loc 1 3000 0 discriminator 3
 6210 213e 019A     		ldr	r2, [sp, #4]
 6211 2140 82F84C30 		strb	r3, [r2, #76]
 6212              		.loc 1 3002 0 is_stmt 1 discriminator 3
 6213 2144 02B0     		add	sp, sp, #8
 6214              		@ sp needed
 6215 2146 7047     		bx	lr
 6216              		.cfi_endproc
 6217              	.LFE194:
ARM GAS  /tmp/ccjyqKqb.s 			page 111


 6218              		.size	DFSDM_InjConvStop, .-DFSDM_InjConvStop
 6219              	.Letext0:
 6220              		.file 3 "/nfs/nfs5/home/research/hardware/arm2/gcc-arm-embedded/gcc-arm-none-eabi-4_8-2014q2/arm-n
 6221              		.file 4 "/nfs/nfs5/home/research/hardware/arm2/gcc-arm-embedded/gcc-arm-none-eabi-4_8-2014q2/arm-n
 6222              		.file 5 "../../../../../../ChibiOS/os/ext/CMSIS/ST/STM32L4xx/stm32l476xx.h"
 6223              		.file 6 "../../../../../../ChibiOS/os/ext/CMSIS/ST/STM32L4xx/stm32l4xx.h"
 6224              		.file 7 "../../../../../Drivers/STM32L4xx_HAL_Driver/Inc/stm32l4xx_hal_def.h"
 6225              		.file 8 "../../../../../Drivers/STM32L4xx_HAL_Driver/Inc/stm32l4xx_hal_dma.h"
 6226              		.file 9 "../../../../../Drivers/STM32L4xx_HAL_Driver/Inc/stm32l4xx_hal_dfsdm.h"
 6227              		.file 10 "../../../../../../ChibiOS/os/ext/CMSIS/include/core_cm4.h"
 6228 2148 AFF30080 		.section	.debug_info,"",%progbits
 6228      AFF30080 
 6229              	.Ldebug_info0:
 6230 0000 C71F0000 		.4byte	0x1fc7
 6231 0004 0400     		.2byte	0x4
 6232 0006 00000000 		.4byte	.Ldebug_abbrev0
 6233 000a 04       		.byte	0x4
 6234 000b 01       		.uleb128 0x1
 6235 000c B6000000 		.4byte	.LASF238
 6236 0010 01       		.byte	0x1
 6237 0011 0E110000 		.4byte	.LASF239
 6238 0015 62100000 		.4byte	.LASF240
 6239 0019 00000000 		.4byte	.Ltext0
 6240 001d 48210000 		.4byte	.Letext0-.Ltext0
 6241 0021 00000000 		.4byte	.Ldebug_line0
 6242 0025 02       		.uleb128 0x2
 6243 0026 01       		.byte	0x1
 6244 0027 06       		.byte	0x6
 6245 0028 66030000 		.4byte	.LASF0
 6246 002c 02       		.uleb128 0x2
 6247 002d 01       		.byte	0x1
 6248 002e 08       		.byte	0x8
 6249 002f 2E0C0000 		.4byte	.LASF1
 6250 0033 03       		.uleb128 0x3
 6251 0034 49060000 		.4byte	.LASF4
 6252 0038 03       		.byte	0x3
 6253 0039 25       		.byte	0x25
 6254 003a 3E000000 		.4byte	0x3e
 6255 003e 02       		.uleb128 0x2
 6256 003f 02       		.byte	0x2
 6257 0040 05       		.byte	0x5
 6258 0041 8D0C0000 		.4byte	.LASF2
 6259 0045 02       		.uleb128 0x2
 6260 0046 02       		.byte	0x2
 6261 0047 07       		.byte	0x7
 6262 0048 910F0000 		.4byte	.LASF3
 6263 004c 03       		.uleb128 0x3
 6264 004d 2A0F0000 		.4byte	.LASF5
 6265 0051 03       		.byte	0x3
 6266 0052 37       		.byte	0x37
 6267 0053 57000000 		.4byte	0x57
 6268 0057 02       		.uleb128 0x2
 6269 0058 04       		.byte	0x4
 6270 0059 05       		.byte	0x5
 6271 005a A4040000 		.4byte	.LASF6
 6272 005e 03       		.uleb128 0x3
 6273 005f 08060000 		.4byte	.LASF7
ARM GAS  /tmp/ccjyqKqb.s 			page 112


 6274 0063 03       		.byte	0x3
 6275 0064 38       		.byte	0x38
 6276 0065 69000000 		.4byte	0x69
 6277 0069 02       		.uleb128 0x2
 6278 006a 04       		.byte	0x4
 6279 006b 07       		.byte	0x7
 6280 006c 0C070000 		.4byte	.LASF8
 6281 0070 02       		.uleb128 0x2
 6282 0071 08       		.byte	0x8
 6283 0072 05       		.byte	0x5
 6284 0073 23050000 		.4byte	.LASF9
 6285 0077 02       		.uleb128 0x2
 6286 0078 08       		.byte	0x8
 6287 0079 07       		.byte	0x7
 6288 007a 53020000 		.4byte	.LASF10
 6289 007e 04       		.uleb128 0x4
 6290 007f 04       		.byte	0x4
 6291 0080 05       		.byte	0x5
 6292 0081 696E7400 		.ascii	"int\000"
 6293 0085 02       		.uleb128 0x2
 6294 0086 04       		.byte	0x4
 6295 0087 07       		.byte	0x7
 6296 0088 BC060000 		.4byte	.LASF11
 6297 008c 03       		.uleb128 0x3
 6298 008d 32030000 		.4byte	.LASF12
 6299 0091 04       		.byte	0x4
 6300 0092 35       		.byte	0x35
 6301 0093 33000000 		.4byte	0x33
 6302 0097 03       		.uleb128 0x3
 6303 0098 260C0000 		.4byte	.LASF13
 6304 009c 04       		.byte	0x4
 6305 009d 41       		.byte	0x41
 6306 009e 4C000000 		.4byte	0x4c
 6307 00a2 03       		.uleb128 0x3
 6308 00a3 3B0E0000 		.4byte	.LASF14
 6309 00a7 04       		.byte	0x4
 6310 00a8 42       		.byte	0x42
 6311 00a9 5E000000 		.4byte	0x5e
 6312 00ad 02       		.uleb128 0x2
 6313 00ae 04       		.byte	0x4
 6314 00af 07       		.byte	0x7
 6315 00b0 AD090000 		.4byte	.LASF15
 6316 00b4 05       		.uleb128 0x5
 6317 00b5 A2000000 		.4byte	0xa2
 6318 00b9 06       		.uleb128 0x6
 6319 00ba 3C       		.byte	0x3c
 6320 00bb 05       		.byte	0x5
 6321 00bc 7501     		.2byte	0x175
 6322 00be 86010000 		.4byte	0x186
 6323 00c2 07       		.uleb128 0x7
 6324 00c3 AB0A0000 		.4byte	.LASF16
 6325 00c7 05       		.byte	0x5
 6326 00c8 7701     		.2byte	0x177
 6327 00ca B4000000 		.4byte	0xb4
 6328 00ce 00       		.byte	0
 6329 00cf 07       		.uleb128 0x7
 6330 00d0 CD070000 		.4byte	.LASF17
ARM GAS  /tmp/ccjyqKqb.s 			page 113


 6331 00d4 05       		.byte	0x5
 6332 00d5 7801     		.2byte	0x178
 6333 00d7 B4000000 		.4byte	0xb4
 6334 00db 04       		.byte	0x4
 6335 00dc 07       		.uleb128 0x7
 6336 00dd DA0F0000 		.4byte	.LASF18
 6337 00e1 05       		.byte	0x5
 6338 00e2 7901     		.2byte	0x179
 6339 00e4 B4000000 		.4byte	0xb4
 6340 00e8 08       		.byte	0x8
 6341 00e9 07       		.uleb128 0x7
 6342 00ea BB0A0000 		.4byte	.LASF19
 6343 00ee 05       		.byte	0x5
 6344 00ef 7A01     		.2byte	0x17a
 6345 00f1 B4000000 		.4byte	0xb4
 6346 00f5 0C       		.byte	0xc
 6347 00f6 07       		.uleb128 0x7
 6348 00f7 3C0C0000 		.4byte	.LASF20
 6349 00fb 05       		.byte	0x5
 6350 00fc 7B01     		.2byte	0x17b
 6351 00fe B4000000 		.4byte	0xb4
 6352 0102 10       		.byte	0x10
 6353 0103 07       		.uleb128 0x7
 6354 0104 CE020000 		.4byte	.LASF21
 6355 0108 05       		.byte	0x5
 6356 0109 7C01     		.2byte	0x17c
 6357 010b B4000000 		.4byte	0xb4
 6358 010f 14       		.byte	0x14
 6359 0110 07       		.uleb128 0x7
 6360 0111 CD040000 		.4byte	.LASF22
 6361 0115 05       		.byte	0x5
 6362 0116 7D01     		.2byte	0x17d
 6363 0118 B4000000 		.4byte	0xb4
 6364 011c 18       		.byte	0x18
 6365 011d 07       		.uleb128 0x7
 6366 011e EA0E0000 		.4byte	.LASF23
 6367 0122 05       		.byte	0x5
 6368 0123 7E01     		.2byte	0x17e
 6369 0125 B4000000 		.4byte	0xb4
 6370 0129 1C       		.byte	0x1c
 6371 012a 07       		.uleb128 0x7
 6372 012b B6090000 		.4byte	.LASF24
 6373 012f 05       		.byte	0x5
 6374 0130 7F01     		.2byte	0x17f
 6375 0132 B4000000 		.4byte	0xb4
 6376 0136 20       		.byte	0x20
 6377 0137 07       		.uleb128 0x7
 6378 0138 F40E0000 		.4byte	.LASF25
 6379 013c 05       		.byte	0x5
 6380 013d 8001     		.2byte	0x180
 6381 013f B4000000 		.4byte	0xb4
 6382 0143 24       		.byte	0x24
 6383 0144 07       		.uleb128 0x7
 6384 0145 A30A0000 		.4byte	.LASF26
 6385 0149 05       		.byte	0x5
 6386 014a 8101     		.2byte	0x181
 6387 014c B4000000 		.4byte	0xb4
ARM GAS  /tmp/ccjyqKqb.s 			page 114


 6388 0150 28       		.byte	0x28
 6389 0151 07       		.uleb128 0x7
 6390 0152 B20A0000 		.4byte	.LASF27
 6391 0156 05       		.byte	0x5
 6392 0157 8201     		.2byte	0x182
 6393 0159 B4000000 		.4byte	0xb4
 6394 015d 2C       		.byte	0x2c
 6395 015e 07       		.uleb128 0x7
 6396 015f BF090000 		.4byte	.LASF28
 6397 0163 05       		.byte	0x5
 6398 0164 8301     		.2byte	0x183
 6399 0166 B4000000 		.4byte	0xb4
 6400 016a 30       		.byte	0x30
 6401 016b 07       		.uleb128 0x7
 6402 016c 6B0A0000 		.4byte	.LASF29
 6403 0170 05       		.byte	0x5
 6404 0171 8401     		.2byte	0x184
 6405 0173 B4000000 		.4byte	0xb4
 6406 0177 34       		.byte	0x34
 6407 0178 07       		.uleb128 0x7
 6408 0179 A40F0000 		.4byte	.LASF30
 6409 017d 05       		.byte	0x5
 6410 017e 8501     		.2byte	0x185
 6411 0180 B4000000 		.4byte	0xb4
 6412 0184 38       		.byte	0x38
 6413 0185 00       		.byte	0
 6414 0186 08       		.uleb128 0x8
 6415 0187 FE070000 		.4byte	.LASF31
 6416 018b 05       		.byte	0x5
 6417 018c 8601     		.2byte	0x186
 6418 018e B9000000 		.4byte	0xb9
 6419 0192 06       		.uleb128 0x6
 6420 0193 14       		.byte	0x14
 6421 0194 05       		.byte	0x5
 6422 0195 8B01     		.2byte	0x18b
 6423 0197 DD010000 		.4byte	0x1dd
 6424 019b 07       		.uleb128 0x7
 6425 019c 160D0000 		.4byte	.LASF32
 6426 01a0 05       		.byte	0x5
 6427 01a1 8D01     		.2byte	0x18d
 6428 01a3 B4000000 		.4byte	0xb4
 6429 01a7 00       		.byte	0
 6430 01a8 07       		.uleb128 0x7
 6431 01a9 1E0D0000 		.4byte	.LASF33
 6432 01ad 05       		.byte	0x5
 6433 01ae 8E01     		.2byte	0x18e
 6434 01b0 B4000000 		.4byte	0xb4
 6435 01b4 04       		.byte	0x4
 6436 01b5 07       		.uleb128 0x7
 6437 01b6 6B120000 		.4byte	.LASF34
 6438 01ba 05       		.byte	0x5
 6439 01bb 8F01     		.2byte	0x18f
 6440 01bd B4000000 		.4byte	0xb4
 6441 01c1 08       		.byte	0x8
 6442 01c2 07       		.uleb128 0x7
 6443 01c3 1E070000 		.4byte	.LASF35
 6444 01c7 05       		.byte	0x5
ARM GAS  /tmp/ccjyqKqb.s 			page 115


 6445 01c8 9101     		.2byte	0x191
 6446 01ca B4000000 		.4byte	0xb4
 6447 01ce 0C       		.byte	0xc
 6448 01cf 07       		.uleb128 0x7
 6449 01d0 FD110000 		.4byte	.LASF36
 6450 01d4 05       		.byte	0x5
 6451 01d5 9201     		.2byte	0x192
 6452 01d7 B4000000 		.4byte	0xb4
 6453 01db 10       		.byte	0x10
 6454 01dc 00       		.byte	0
 6455 01dd 08       		.uleb128 0x8
 6456 01de 1C030000 		.4byte	.LASF37
 6457 01e2 05       		.byte	0x5
 6458 01e3 9301     		.2byte	0x193
 6459 01e5 92010000 		.4byte	0x192
 6460 01e9 06       		.uleb128 0x6
 6461 01ea 10       		.byte	0x10
 6462 01eb 05       		.byte	0x5
 6463 01ec A701     		.2byte	0x1a7
 6464 01ee 27020000 		.4byte	0x227
 6465 01f2 09       		.uleb128 0x9
 6466 01f3 43435200 		.ascii	"CCR\000"
 6467 01f7 05       		.byte	0x5
 6468 01f8 A901     		.2byte	0x1a9
 6469 01fa B4000000 		.4byte	0xb4
 6470 01fe 00       		.byte	0
 6471 01ff 07       		.uleb128 0x7
 6472 0200 FB100000 		.4byte	.LASF38
 6473 0204 05       		.byte	0x5
 6474 0205 AA01     		.2byte	0x1aa
 6475 0207 B4000000 		.4byte	0xb4
 6476 020b 04       		.byte	0x4
 6477 020c 07       		.uleb128 0x7
 6478 020d F20B0000 		.4byte	.LASF39
 6479 0211 05       		.byte	0x5
 6480 0212 AB01     		.2byte	0x1ab
 6481 0214 B4000000 		.4byte	0xb4
 6482 0218 08       		.byte	0x8
 6483 0219 07       		.uleb128 0x7
 6484 021a 01110000 		.4byte	.LASF40
 6485 021e 05       		.byte	0x5
 6486 021f AC01     		.2byte	0x1ac
 6487 0221 B4000000 		.4byte	0xb4
 6488 0225 0C       		.byte	0xc
 6489 0226 00       		.byte	0
 6490 0227 08       		.uleb128 0x8
 6491 0228 5F0F0000 		.4byte	.LASF41
 6492 022c 05       		.byte	0x5
 6493 022d AD01     		.2byte	0x1ad
 6494 022f E9010000 		.4byte	0x1e9
 6495 0233 06       		.uleb128 0x6
 6496 0234 08       		.byte	0x8
 6497 0235 05       		.byte	0x5
 6498 0236 AF01     		.2byte	0x1af
 6499 0238 57020000 		.4byte	0x257
 6500 023c 09       		.uleb128 0x9
 6501 023d 49535200 		.ascii	"ISR\000"
ARM GAS  /tmp/ccjyqKqb.s 			page 116


 6502 0241 05       		.byte	0x5
 6503 0242 B101     		.2byte	0x1b1
 6504 0244 B4000000 		.4byte	0xb4
 6505 0248 00       		.byte	0
 6506 0249 07       		.uleb128 0x7
 6507 024a F8110000 		.4byte	.LASF42
 6508 024e 05       		.byte	0x5
 6509 024f B201     		.2byte	0x1b2
 6510 0251 B4000000 		.4byte	0xb4
 6511 0255 04       		.byte	0x4
 6512 0256 00       		.byte	0
 6513 0257 08       		.uleb128 0x8
 6514 0258 B0060000 		.4byte	.LASF43
 6515 025c 05       		.byte	0x5
 6516 025d B301     		.2byte	0x1b3
 6517 025f 33020000 		.4byte	0x233
 6518 0263 0A       		.uleb128 0xa
 6519 0264 01       		.byte	0x1
 6520 0265 06       		.byte	0x6
 6521 0266 B4       		.byte	0xb4
 6522 0267 78020000 		.4byte	0x278
 6523 026b 0B       		.uleb128 0xb
 6524 026c 4B020000 		.4byte	.LASF44
 6525 0270 00       		.sleb128 0
 6526 0271 0B       		.uleb128 0xb
 6527 0272 1C050000 		.4byte	.LASF45
 6528 0276 01       		.sleb128 1
 6529 0277 00       		.byte	0
 6530 0278 03       		.uleb128 0x3
 6531 0279 740A0000 		.4byte	.LASF46
 6532 027d 06       		.byte	0x6
 6533 027e B7       		.byte	0xb7
 6534 027f 63020000 		.4byte	0x263
 6535 0283 0C       		.uleb128 0xc
 6536 0284 04       		.byte	0x4
 6537 0285 02       		.uleb128 0x2
 6538 0286 01       		.byte	0x1
 6539 0287 08       		.byte	0x8
 6540 0288 900E0000 		.4byte	.LASF47
 6541 028c 0A       		.uleb128 0xa
 6542 028d 01       		.byte	0x1
 6543 028e 07       		.byte	0x7
 6544 028f 3A       		.byte	0x3a
 6545 0290 AD020000 		.4byte	0x2ad
 6546 0294 0B       		.uleb128 0xb
 6547 0295 2F070000 		.4byte	.LASF48
 6548 0299 00       		.sleb128 0
 6549 029a 0B       		.uleb128 0xb
 6550 029b 440E0000 		.4byte	.LASF49
 6551 029f 01       		.sleb128 1
 6552 02a0 0B       		.uleb128 0xb
 6553 02a1 E4010000 		.4byte	.LASF50
 6554 02a5 02       		.sleb128 2
 6555 02a6 0B       		.uleb128 0xb
 6556 02a7 8A060000 		.4byte	.LASF51
 6557 02ab 03       		.sleb128 3
 6558 02ac 00       		.byte	0
ARM GAS  /tmp/ccjyqKqb.s 			page 117


 6559 02ad 03       		.uleb128 0x3
 6560 02ae C0080000 		.4byte	.LASF52
 6561 02b2 07       		.byte	0x7
 6562 02b3 3F       		.byte	0x3f
 6563 02b4 8C020000 		.4byte	0x28c
 6564 02b8 0A       		.uleb128 0xa
 6565 02b9 01       		.byte	0x1
 6566 02ba 07       		.byte	0x7
 6567 02bb 45       		.byte	0x45
 6568 02bc CD020000 		.4byte	0x2cd
 6569 02c0 0B       		.uleb128 0xb
 6570 02c1 06120000 		.4byte	.LASF53
 6571 02c5 00       		.sleb128 0
 6572 02c6 0B       		.uleb128 0xb
 6573 02c7 1C0A0000 		.4byte	.LASF54
 6574 02cb 01       		.sleb128 1
 6575 02cc 00       		.byte	0
 6576 02cd 03       		.uleb128 0x3
 6577 02ce 4B040000 		.4byte	.LASF55
 6578 02d2 07       		.byte	0x7
 6579 02d3 48       		.byte	0x48
 6580 02d4 B8020000 		.4byte	0x2b8
 6581 02d8 0D       		.uleb128 0xd
 6582 02d9 20       		.byte	0x20
 6583 02da 08       		.byte	0x8
 6584 02db 42       		.byte	0x42
 6585 02dc 41030000 		.4byte	0x341
 6586 02e0 0E       		.uleb128 0xe
 6587 02e1 950E0000 		.4byte	.LASF56
 6588 02e5 08       		.byte	0x8
 6589 02e6 44       		.byte	0x44
 6590 02e7 A2000000 		.4byte	0xa2
 6591 02eb 00       		.byte	0
 6592 02ec 0E       		.uleb128 0xe
 6593 02ed 3F060000 		.4byte	.LASF57
 6594 02f1 08       		.byte	0x8
 6595 02f2 47       		.byte	0x47
 6596 02f3 A2000000 		.4byte	0xa2
 6597 02f7 04       		.byte	0x4
 6598 02f8 0E       		.uleb128 0xe
 6599 02f9 D7040000 		.4byte	.LASF58
 6600 02fd 08       		.byte	0x8
 6601 02fe 4B       		.byte	0x4b
 6602 02ff A2000000 		.4byte	0xa2
 6603 0303 08       		.byte	0x8
 6604 0304 0E       		.uleb128 0xe
 6605 0305 260D0000 		.4byte	.LASF59
 6606 0309 08       		.byte	0x8
 6607 030a 4E       		.byte	0x4e
 6608 030b A2000000 		.4byte	0xa2
 6609 030f 0C       		.byte	0xc
 6610 0310 0E       		.uleb128 0xe
 6611 0311 44100000 		.4byte	.LASF60
 6612 0315 08       		.byte	0x8
 6613 0316 51       		.byte	0x51
 6614 0317 A2000000 		.4byte	0xa2
 6615 031b 10       		.byte	0x10
ARM GAS  /tmp/ccjyqKqb.s 			page 118


 6616 031c 0E       		.uleb128 0xe
 6617 031d 7E080000 		.4byte	.LASF61
 6618 0321 08       		.byte	0x8
 6619 0322 54       		.byte	0x54
 6620 0323 A2000000 		.4byte	0xa2
 6621 0327 14       		.byte	0x14
 6622 0328 0E       		.uleb128 0xe
 6623 0329 C2050000 		.4byte	.LASF62
 6624 032d 08       		.byte	0x8
 6625 032e 57       		.byte	0x57
 6626 032f A2000000 		.4byte	0xa2
 6627 0333 18       		.byte	0x18
 6628 0334 0E       		.uleb128 0xe
 6629 0335 8F070000 		.4byte	.LASF63
 6630 0339 08       		.byte	0x8
 6631 033a 5C       		.byte	0x5c
 6632 033b A2000000 		.4byte	0xa2
 6633 033f 1C       		.byte	0x1c
 6634 0340 00       		.byte	0
 6635 0341 03       		.uleb128 0x3
 6636 0342 69010000 		.4byte	.LASF64
 6637 0346 08       		.byte	0x8
 6638 0347 5E       		.byte	0x5e
 6639 0348 D8020000 		.4byte	0x2d8
 6640 034c 0A       		.uleb128 0xa
 6641 034d 01       		.byte	0x1
 6642 034e 08       		.byte	0x8
 6643 034f 64       		.byte	0x64
 6644 0350 6D030000 		.4byte	0x36d
 6645 0354 0B       		.uleb128 0xb
 6646 0355 C9060000 		.4byte	.LASF65
 6647 0359 00       		.sleb128 0
 6648 035a 0B       		.uleb128 0xb
 6649 035b 11090000 		.4byte	.LASF66
 6650 035f 01       		.sleb128 1
 6651 0360 0B       		.uleb128 0xb
 6652 0361 970C0000 		.4byte	.LASF67
 6653 0365 02       		.sleb128 2
 6654 0366 0B       		.uleb128 0xb
 6655 0367 D40E0000 		.4byte	.LASF68
 6656 036b 03       		.sleb128 3
 6657 036c 00       		.byte	0
 6658 036d 03       		.uleb128 0x3
 6659 036e 8F040000 		.4byte	.LASF69
 6660 0372 08       		.byte	0x8
 6661 0373 69       		.byte	0x69
 6662 0374 4C030000 		.4byte	0x34c
 6663 0378 0F       		.uleb128 0xf
 6664 0379 270E0000 		.4byte	.LASF241
 6665 037d 48       		.byte	0x48
 6666 037e 08       		.byte	0x8
 6667 037f 85       		.byte	0x85
 6668 0380 15040000 		.4byte	0x415
 6669 0384 0E       		.uleb128 0xe
 6670 0385 AD0B0000 		.4byte	.LASF70
 6671 0389 08       		.byte	0x8
 6672 038a 87       		.byte	0x87
ARM GAS  /tmp/ccjyqKqb.s 			page 119


 6673 038b 15040000 		.4byte	0x415
 6674 038f 00       		.byte	0
 6675 0390 0E       		.uleb128 0xe
 6676 0391 45090000 		.4byte	.LASF71
 6677 0395 08       		.byte	0x8
 6678 0396 89       		.byte	0x89
 6679 0397 41030000 		.4byte	0x341
 6680 039b 04       		.byte	0x4
 6681 039c 0E       		.uleb128 0xe
 6682 039d 8F080000 		.4byte	.LASF72
 6683 03a1 08       		.byte	0x8
 6684 03a2 8B       		.byte	0x8b
 6685 03a3 CD020000 		.4byte	0x2cd
 6686 03a7 24       		.byte	0x24
 6687 03a8 0E       		.uleb128 0xe
 6688 03a9 AC0E0000 		.4byte	.LASF73
 6689 03ad 08       		.byte	0x8
 6690 03ae 8D       		.byte	0x8d
 6691 03af 1B040000 		.4byte	0x41b
 6692 03b3 25       		.byte	0x25
 6693 03b4 0E       		.uleb128 0xe
 6694 03b5 C7050000 		.4byte	.LASF74
 6695 03b9 08       		.byte	0x8
 6696 03ba 8F       		.byte	0x8f
 6697 03bb 83020000 		.4byte	0x283
 6698 03bf 28       		.byte	0x28
 6699 03c0 0E       		.uleb128 0xe
 6700 03c1 5A120000 		.4byte	.LASF75
 6701 03c5 08       		.byte	0x8
 6702 03c6 91       		.byte	0x91
 6703 03c7 31040000 		.4byte	0x431
 6704 03cb 2C       		.byte	0x2c
 6705 03cc 0E       		.uleb128 0xe
 6706 03cd CC030000 		.4byte	.LASF76
 6707 03d1 08       		.byte	0x8
 6708 03d2 93       		.byte	0x93
 6709 03d3 31040000 		.4byte	0x431
 6710 03d7 30       		.byte	0x30
 6711 03d8 0E       		.uleb128 0xe
 6712 03d9 590A0000 		.4byte	.LASF77
 6713 03dd 08       		.byte	0x8
 6714 03de 95       		.byte	0x95
 6715 03df 31040000 		.4byte	0x431
 6716 03e3 34       		.byte	0x34
 6717 03e4 0E       		.uleb128 0xe
 6718 03e5 41120000 		.4byte	.LASF78
 6719 03e9 08       		.byte	0x8
 6720 03ea 97       		.byte	0x97
 6721 03eb 31040000 		.4byte	0x431
 6722 03ef 38       		.byte	0x38
 6723 03f0 0E       		.uleb128 0xe
 6724 03f1 3B080000 		.4byte	.LASF79
 6725 03f5 08       		.byte	0x8
 6726 03f6 99       		.byte	0x99
 6727 03f7 B4000000 		.4byte	0xb4
 6728 03fb 3C       		.byte	0x3c
 6729 03fc 0E       		.uleb128 0xe
ARM GAS  /tmp/ccjyqKqb.s 			page 120


 6730 03fd EF070000 		.4byte	.LASF80
 6731 0401 08       		.byte	0x8
 6732 0402 9B       		.byte	0x9b
 6733 0403 37040000 		.4byte	0x437
 6734 0407 40       		.byte	0x40
 6735 0408 0E       		.uleb128 0xe
 6736 0409 13120000 		.4byte	.LASF81
 6737 040d 08       		.byte	0x8
 6738 040e 9D       		.byte	0x9d
 6739 040f A2000000 		.4byte	0xa2
 6740 0413 44       		.byte	0x44
 6741 0414 00       		.byte	0
 6742 0415 10       		.uleb128 0x10
 6743 0416 04       		.byte	0x4
 6744 0417 27020000 		.4byte	0x227
 6745 041b 05       		.uleb128 0x5
 6746 041c 6D030000 		.4byte	0x36d
 6747 0420 11       		.uleb128 0x11
 6748 0421 2B040000 		.4byte	0x42b
 6749 0425 12       		.uleb128 0x12
 6750 0426 2B040000 		.4byte	0x42b
 6751 042a 00       		.byte	0
 6752 042b 10       		.uleb128 0x10
 6753 042c 04       		.byte	0x4
 6754 042d 78030000 		.4byte	0x378
 6755 0431 10       		.uleb128 0x10
 6756 0432 04       		.byte	0x4
 6757 0433 20040000 		.4byte	0x420
 6758 0437 10       		.uleb128 0x10
 6759 0438 04       		.byte	0x4
 6760 0439 57020000 		.4byte	0x257
 6761 043d 03       		.uleb128 0x3
 6762 043e 470A0000 		.4byte	.LASF82
 6763 0442 08       		.byte	0x8
 6764 0443 9E       		.byte	0x9e
 6765 0444 78030000 		.4byte	0x378
 6766 0448 0A       		.uleb128 0xa
 6767 0449 01       		.byte	0x1
 6768 044a 09       		.byte	0x9
 6769 044b 43       		.byte	0x43
 6770 044c 64040000 		.4byte	0x464
 6771 0450 0B       		.uleb128 0xb
 6772 0451 2D0D0000 		.4byte	.LASF83
 6773 0455 00       		.sleb128 0
 6774 0456 0B       		.uleb128 0xb
 6775 0457 730F0000 		.4byte	.LASF84
 6776 045b 01       		.sleb128 1
 6777 045c 0B       		.uleb128 0xb
 6778 045d 72030000 		.4byte	.LASF85
 6779 0461 FF01     		.sleb128 255
 6780 0463 00       		.byte	0
 6781 0464 03       		.uleb128 0x3
 6782 0465 2C040000 		.4byte	.LASF86
 6783 0469 09       		.byte	0x9
 6784 046a 47       		.byte	0x47
 6785 046b 48040000 		.4byte	0x448
 6786 046f 0D       		.uleb128 0xd
ARM GAS  /tmp/ccjyqKqb.s 			page 121


 6787 0470 0C       		.byte	0xc
 6788 0471 09       		.byte	0x9
 6789 0472 4C       		.byte	0x4c
 6790 0473 9C040000 		.4byte	0x49c
 6791 0477 0E       		.uleb128 0xe
 6792 0478 990B0000 		.4byte	.LASF87
 6793 047c 09       		.byte	0x9
 6794 047d 4E       		.byte	0x4e
 6795 047e 78020000 		.4byte	0x278
 6796 0482 00       		.byte	0
 6797 0483 0E       		.uleb128 0xe
 6798 0484 02070000 		.4byte	.LASF88
 6799 0488 09       		.byte	0x9
 6800 0489 4F       		.byte	0x4f
 6801 048a A2000000 		.4byte	0xa2
 6802 048e 04       		.byte	0x4
 6803 048f 0E       		.uleb128 0xe
 6804 0490 880E0000 		.4byte	.LASF89
 6805 0494 09       		.byte	0x9
 6806 0495 51       		.byte	0x51
 6807 0496 A2000000 		.4byte	0xa2
 6808 049a 08       		.byte	0x8
 6809 049b 00       		.byte	0
 6810 049c 03       		.uleb128 0x3
 6811 049d 090F0000 		.4byte	.LASF90
 6812 04a1 09       		.byte	0x9
 6813 04a2 53       		.byte	0x53
 6814 04a3 6F040000 		.4byte	0x46f
 6815 04a7 0D       		.uleb128 0xd
 6816 04a8 0C       		.byte	0xc
 6817 04a9 09       		.byte	0x9
 6818 04aa 58       		.byte	0x58
 6819 04ab D4040000 		.4byte	0x4d4
 6820 04af 0E       		.uleb128 0xe
 6821 04b0 650D0000 		.4byte	.LASF91
 6822 04b4 09       		.byte	0x9
 6823 04b5 5A       		.byte	0x5a
 6824 04b6 A2000000 		.4byte	0xa2
 6825 04ba 00       		.byte	0
 6826 04bb 0E       		.uleb128 0xe
 6827 04bc 920D0000 		.4byte	.LASF92
 6828 04c0 09       		.byte	0x9
 6829 04c1 5C       		.byte	0x5c
 6830 04c2 A2000000 		.4byte	0xa2
 6831 04c6 04       		.byte	0x4
 6832 04c7 0E       		.uleb128 0xe
 6833 04c8 6E070000 		.4byte	.LASF93
 6834 04cc 09       		.byte	0x9
 6835 04cd 5E       		.byte	0x5e
 6836 04ce A2000000 		.4byte	0xa2
 6837 04d2 08       		.byte	0x8
 6838 04d3 00       		.byte	0
 6839 04d4 03       		.uleb128 0x3
 6840 04d5 340F0000 		.4byte	.LASF94
 6841 04d9 09       		.byte	0x9
 6842 04da 60       		.byte	0x60
 6843 04db A7040000 		.4byte	0x4a7
ARM GAS  /tmp/ccjyqKqb.s 			page 122


 6844 04df 0D       		.uleb128 0xd
 6845 04e0 08       		.byte	0x8
 6846 04e1 09       		.byte	0x9
 6847 04e2 65       		.byte	0x65
 6848 04e3 00050000 		.4byte	0x500
 6849 04e7 0E       		.uleb128 0xe
 6850 04e8 F4080000 		.4byte	.LASF95
 6851 04ec 09       		.byte	0x9
 6852 04ed 67       		.byte	0x67
 6853 04ee A2000000 		.4byte	0xa2
 6854 04f2 00       		.byte	0
 6855 04f3 0E       		.uleb128 0xe
 6856 04f4 A40B0000 		.4byte	.LASF96
 6857 04f8 09       		.byte	0x9
 6858 04f9 69       		.byte	0x69
 6859 04fa A2000000 		.4byte	0xa2
 6860 04fe 04       		.byte	0x4
 6861 04ff 00       		.byte	0
 6862 0500 03       		.uleb128 0x3
 6863 0501 9D050000 		.4byte	.LASF97
 6864 0505 09       		.byte	0x9
 6865 0506 6B       		.byte	0x6b
 6866 0507 DF040000 		.4byte	0x4df
 6867 050b 0D       		.uleb128 0xd
 6868 050c 08       		.byte	0x8
 6869 050d 09       		.byte	0x9
 6870 050e 70       		.byte	0x70
 6871 050f 2C050000 		.4byte	0x52c
 6872 0513 0E       		.uleb128 0xe
 6873 0514 10020000 		.4byte	.LASF98
 6874 0518 09       		.byte	0x9
 6875 0519 72       		.byte	0x72
 6876 051a A2000000 		.4byte	0xa2
 6877 051e 00       		.byte	0
 6878 051f 0E       		.uleb128 0xe
 6879 0520 770C0000 		.4byte	.LASF99
 6880 0524 09       		.byte	0x9
 6881 0525 74       		.byte	0x74
 6882 0526 A2000000 		.4byte	0xa2
 6883 052a 04       		.byte	0x4
 6884 052b 00       		.byte	0
 6885 052c 03       		.uleb128 0x3
 6886 052d EB030000 		.4byte	.LASF100
 6887 0531 09       		.byte	0x9
 6888 0532 76       		.byte	0x76
 6889 0533 0B050000 		.4byte	0x50b
 6890 0537 0D       		.uleb128 0xd
 6891 0538 30       		.byte	0x30
 6892 0539 09       		.byte	0x9
 6893 053a 7B       		.byte	0x7b
 6894 053b 88050000 		.4byte	0x588
 6895 053f 0E       		.uleb128 0xe
 6896 0540 5B060000 		.4byte	.LASF101
 6897 0544 09       		.byte	0x9
 6898 0545 7D       		.byte	0x7d
 6899 0546 9C040000 		.4byte	0x49c
 6900 054a 00       		.byte	0
ARM GAS  /tmp/ccjyqKqb.s 			page 123


 6901 054b 0E       		.uleb128 0xe
 6902 054c 4D0B0000 		.4byte	.LASF102
 6903 0550 09       		.byte	0x9
 6904 0551 7E       		.byte	0x7e
 6905 0552 D4040000 		.4byte	0x4d4
 6906 0556 0C       		.byte	0xc
 6907 0557 0E       		.uleb128 0xe
 6908 0558 4F0F0000 		.4byte	.LASF103
 6909 055c 09       		.byte	0x9
 6910 055d 7F       		.byte	0x7f
 6911 055e 00050000 		.4byte	0x500
 6912 0562 18       		.byte	0x18
 6913 0563 13       		.uleb128 0x13
 6914 0564 41776400 		.ascii	"Awd\000"
 6915 0568 09       		.byte	0x9
 6916 0569 80       		.byte	0x80
 6917 056a 2C050000 		.4byte	0x52c
 6918 056e 20       		.byte	0x20
 6919 056f 0E       		.uleb128 0xe
 6920 0570 FE0F0000 		.4byte	.LASF104
 6921 0574 09       		.byte	0x9
 6922 0575 81       		.byte	0x81
 6923 0576 97000000 		.4byte	0x97
 6924 057a 28       		.byte	0x28
 6925 057b 0E       		.uleb128 0xe
 6926 057c 8A090000 		.4byte	.LASF105
 6927 0580 09       		.byte	0x9
 6928 0581 83       		.byte	0x83
 6929 0582 A2000000 		.4byte	0xa2
 6930 0586 2C       		.byte	0x2c
 6931 0587 00       		.byte	0
 6932 0588 03       		.uleb128 0x3
 6933 0589 AA0C0000 		.4byte	.LASF106
 6934 058d 09       		.byte	0x9
 6935 058e 85       		.byte	0x85
 6936 058f 37050000 		.4byte	0x537
 6937 0593 0D       		.uleb128 0xd
 6938 0594 38       		.byte	0x38
 6939 0595 09       		.byte	0x9
 6940 0596 8A       		.byte	0x8a
 6941 0597 C0050000 		.4byte	0x5c0
 6942 059b 0E       		.uleb128 0xe
 6943 059c AD0B0000 		.4byte	.LASF70
 6944 05a0 09       		.byte	0x9
 6945 05a1 8C       		.byte	0x8c
 6946 05a2 C0050000 		.4byte	0x5c0
 6947 05a6 00       		.byte	0
 6948 05a7 0E       		.uleb128 0xe
 6949 05a8 45090000 		.4byte	.LASF71
 6950 05ac 09       		.byte	0x9
 6951 05ad 8D       		.byte	0x8d
 6952 05ae 88050000 		.4byte	0x588
 6953 05b2 04       		.byte	0x4
 6954 05b3 0E       		.uleb128 0xe
 6955 05b4 AC0E0000 		.4byte	.LASF73
 6956 05b8 09       		.byte	0x9
 6957 05b9 8E       		.byte	0x8e
ARM GAS  /tmp/ccjyqKqb.s 			page 124


 6958 05ba 64040000 		.4byte	0x464
 6959 05be 34       		.byte	0x34
 6960 05bf 00       		.byte	0
 6961 05c0 10       		.uleb128 0x10
 6962 05c1 04       		.byte	0x4
 6963 05c2 DD010000 		.4byte	0x1dd
 6964 05c6 03       		.uleb128 0x3
 6965 05c7 45080000 		.4byte	.LASF107
 6966 05cb 09       		.byte	0x9
 6967 05cc 8F       		.byte	0x8f
 6968 05cd 93050000 		.4byte	0x593
 6969 05d1 0A       		.uleb128 0xa
 6970 05d2 01       		.byte	0x1
 6971 05d3 09       		.byte	0x9
 6972 05d4 95       		.byte	0x95
 6973 05d5 FF050000 		.4byte	0x5ff
 6974 05d9 0B       		.uleb128 0xb
 6975 05da E1040000 		.4byte	.LASF108
 6976 05de 00       		.sleb128 0
 6977 05df 0B       		.uleb128 0xb
 6978 05e0 E5060000 		.4byte	.LASF109
 6979 05e4 01       		.sleb128 1
 6980 05e5 0B       		.uleb128 0xb
 6981 05e6 36070000 		.4byte	.LASF110
 6982 05ea 02       		.sleb128 2
 6983 05eb 0B       		.uleb128 0xb
 6984 05ec 74040000 		.4byte	.LASF111
 6985 05f0 03       		.sleb128 3
 6986 05f1 0B       		.uleb128 0xb
 6987 05f2 59000000 		.4byte	.LASF112
 6988 05f6 04       		.sleb128 4
 6989 05f7 0B       		.uleb128 0xb
 6990 05f8 8D020000 		.4byte	.LASF113
 6991 05fc FF01     		.sleb128 255
 6992 05fe 00       		.byte	0
 6993 05ff 03       		.uleb128 0x3
 6994 0600 FE040000 		.4byte	.LASF114
 6995 0604 09       		.byte	0x9
 6996 0605 9C       		.byte	0x9c
 6997 0606 D1050000 		.4byte	0x5d1
 6998 060a 0D       		.uleb128 0xd
 6999 060b 08       		.byte	0x8
 7000 060c 09       		.byte	0x9
 7001 060d A1       		.byte	0xa1
 7002 060e 37060000 		.4byte	0x637
 7003 0612 0E       		.uleb128 0xe
 7004 0613 06110000 		.4byte	.LASF115
 7005 0617 09       		.byte	0x9
 7006 0618 A3       		.byte	0xa3
 7007 0619 A2000000 		.4byte	0xa2
 7008 061d 00       		.byte	0
 7009 061e 0E       		.uleb128 0xe
 7010 061f E50C0000 		.4byte	.LASF116
 7011 0623 09       		.byte	0x9
 7012 0624 A5       		.byte	0xa5
 7013 0625 78020000 		.4byte	0x278
 7014 0629 04       		.byte	0x4
ARM GAS  /tmp/ccjyqKqb.s 			page 125


 7015 062a 0E       		.uleb128 0xe
 7016 062b 27070000 		.4byte	.LASF117
 7017 062f 09       		.byte	0x9
 7018 0630 A6       		.byte	0xa6
 7019 0631 78020000 		.4byte	0x278
 7020 0635 05       		.byte	0x5
 7021 0636 00       		.byte	0
 7022 0637 03       		.uleb128 0x3
 7023 0638 78000000 		.4byte	.LASF118
 7024 063c 09       		.byte	0x9
 7025 063d A7       		.byte	0xa7
 7026 063e 0A060000 		.4byte	0x60a
 7027 0642 0D       		.uleb128 0xd
 7028 0643 10       		.byte	0x10
 7029 0644 09       		.byte	0x9
 7030 0645 AC       		.byte	0xac
 7031 0646 87060000 		.4byte	0x687
 7032 064a 0E       		.uleb128 0xe
 7033 064b 06110000 		.4byte	.LASF115
 7034 064f 09       		.byte	0x9
 7035 0650 AE       		.byte	0xae
 7036 0651 A2000000 		.4byte	0xa2
 7037 0655 00       		.byte	0
 7038 0656 0E       		.uleb128 0xe
 7039 0657 640B0000 		.4byte	.LASF119
 7040 065b 09       		.byte	0x9
 7041 065c B0       		.byte	0xb0
 7042 065d 78020000 		.4byte	0x278
 7043 0661 04       		.byte	0x4
 7044 0662 0E       		.uleb128 0xe
 7045 0663 27070000 		.4byte	.LASF117
 7046 0667 09       		.byte	0x9
 7047 0668 B1       		.byte	0xb1
 7048 0669 78020000 		.4byte	0x278
 7049 066d 05       		.byte	0x5
 7050 066e 0E       		.uleb128 0xe
 7051 066f 05020000 		.4byte	.LASF120
 7052 0673 09       		.byte	0x9
 7053 0674 B2       		.byte	0xb2
 7054 0675 A2000000 		.4byte	0xa2
 7055 0679 08       		.byte	0x8
 7056 067a 0E       		.uleb128 0xe
 7057 067b 1D040000 		.4byte	.LASF121
 7058 067f 09       		.byte	0x9
 7059 0680 B4       		.byte	0xb4
 7060 0681 A2000000 		.4byte	0xa2
 7061 0685 0C       		.byte	0xc
 7062 0686 00       		.byte	0
 7063 0687 03       		.uleb128 0x3
 7064 0688 E2020000 		.4byte	.LASF122
 7065 068c 09       		.byte	0x9
 7066 068d B6       		.byte	0xb6
 7067 068e 42060000 		.4byte	0x642
 7068 0692 0D       		.uleb128 0xd
 7069 0693 0C       		.byte	0xc
 7070 0694 09       		.byte	0x9
 7071 0695 BB       		.byte	0xbb
ARM GAS  /tmp/ccjyqKqb.s 			page 126


 7072 0696 BF060000 		.4byte	0x6bf
 7073 069a 0E       		.uleb128 0xe
 7074 069b E1030000 		.4byte	.LASF123
 7075 069f 09       		.byte	0x9
 7076 06a0 BD       		.byte	0xbd
 7077 06a1 A2000000 		.4byte	0xa2
 7078 06a5 00       		.byte	0
 7079 06a6 0E       		.uleb128 0xe
 7080 06a7 770C0000 		.4byte	.LASF99
 7081 06ab 09       		.byte	0x9
 7082 06ac BF       		.byte	0xbf
 7083 06ad A2000000 		.4byte	0xa2
 7084 06b1 04       		.byte	0x4
 7085 06b2 0E       		.uleb128 0xe
 7086 06b3 D2080000 		.4byte	.LASF124
 7087 06b7 09       		.byte	0x9
 7088 06b8 C1       		.byte	0xc1
 7089 06b9 A2000000 		.4byte	0xa2
 7090 06bd 08       		.byte	0x8
 7091 06be 00       		.byte	0
 7092 06bf 03       		.uleb128 0x3
 7093 06c0 270A0000 		.4byte	.LASF125
 7094 06c4 09       		.byte	0x9
 7095 06c5 C3       		.byte	0xc3
 7096 06c6 92060000 		.4byte	0x692
 7097 06ca 0D       		.uleb128 0xd
 7098 06cb 24       		.byte	0x24
 7099 06cc 09       		.byte	0x9
 7100 06cd C8       		.byte	0xc8
 7101 06ce F7060000 		.4byte	0x6f7
 7102 06d2 0E       		.uleb128 0xe
 7103 06d3 E10A0000 		.4byte	.LASF126
 7104 06d7 09       		.byte	0x9
 7105 06d8 CA       		.byte	0xca
 7106 06d9 37060000 		.4byte	0x637
 7107 06dd 00       		.byte	0
 7108 06de 0E       		.uleb128 0xe
 7109 06df 190E0000 		.4byte	.LASF127
 7110 06e3 09       		.byte	0x9
 7111 06e4 CB       		.byte	0xcb
 7112 06e5 87060000 		.4byte	0x687
 7113 06e9 08       		.byte	0x8
 7114 06ea 0E       		.uleb128 0xe
 7115 06eb FD0E0000 		.4byte	.LASF128
 7116 06ef 09       		.byte	0x9
 7117 06f0 CC       		.byte	0xcc
 7118 06f1 BF060000 		.4byte	0x6bf
 7119 06f5 18       		.byte	0x18
 7120 06f6 00       		.byte	0
 7121 06f7 03       		.uleb128 0x3
 7122 06f8 4E0E0000 		.4byte	.LASF129
 7123 06fc 09       		.byte	0x9
 7124 06fd CD       		.byte	0xcd
 7125 06fe CA060000 		.4byte	0x6ca
 7126 0702 0D       		.uleb128 0xd
 7127 0703 54       		.byte	0x54
 7128 0704 09       		.byte	0x9
ARM GAS  /tmp/ccjyqKqb.s 			page 127


 7129 0705 D2       		.byte	0xd2
 7130 0706 A7070000 		.4byte	0x7a7
 7131 070a 0E       		.uleb128 0xe
 7132 070b AD0B0000 		.4byte	.LASF70
 7133 070f 09       		.byte	0x9
 7134 0710 D4       		.byte	0xd4
 7135 0711 A7070000 		.4byte	0x7a7
 7136 0715 00       		.byte	0
 7137 0716 0E       		.uleb128 0xe
 7138 0717 45090000 		.4byte	.LASF71
 7139 071b 09       		.byte	0x9
 7140 071c D5       		.byte	0xd5
 7141 071d F7060000 		.4byte	0x6f7
 7142 0721 04       		.byte	0x4
 7143 0722 0E       		.uleb128 0xe
 7144 0723 53060000 		.4byte	.LASF130
 7145 0727 09       		.byte	0x9
 7146 0728 D6       		.byte	0xd6
 7147 0729 AD070000 		.4byte	0x7ad
 7148 072d 28       		.byte	0x28
 7149 072e 0E       		.uleb128 0xe
 7150 072f DD060000 		.4byte	.LASF131
 7151 0733 09       		.byte	0x9
 7152 0734 D7       		.byte	0xd7
 7153 0735 AD070000 		.4byte	0x7ad
 7154 0739 2C       		.byte	0x2c
 7155 073a 0E       		.uleb128 0xe
 7156 073b 890B0000 		.4byte	.LASF132
 7157 073f 09       		.byte	0x9
 7158 0740 D8       		.byte	0xd8
 7159 0741 A2000000 		.4byte	0xa2
 7160 0745 30       		.byte	0x30
 7161 0746 0E       		.uleb128 0xe
 7162 0747 9C110000 		.4byte	.LASF133
 7163 074b 09       		.byte	0x9
 7164 074c D9       		.byte	0xd9
 7165 074d A2000000 		.4byte	0xa2
 7166 0751 34       		.byte	0x34
 7167 0752 0E       		.uleb128 0xe
 7168 0753 D10A0000 		.4byte	.LASF134
 7169 0757 09       		.byte	0x9
 7170 0758 DA       		.byte	0xda
 7171 0759 A2000000 		.4byte	0xa2
 7172 075d 38       		.byte	0x38
 7173 075e 0E       		.uleb128 0xe
 7174 075f 1D040000 		.4byte	.LASF121
 7175 0763 09       		.byte	0x9
 7176 0764 DB       		.byte	0xdb
 7177 0765 A2000000 		.4byte	0xa2
 7178 0769 3C       		.byte	0x3c
 7179 076a 0E       		.uleb128 0xe
 7180 076b BC070000 		.4byte	.LASF135
 7181 076f 09       		.byte	0x9
 7182 0770 DC       		.byte	0xdc
 7183 0771 78020000 		.4byte	0x278
 7184 0775 40       		.byte	0x40
 7185 0776 0E       		.uleb128 0xe
ARM GAS  /tmp/ccjyqKqb.s 			page 128


 7186 0777 8E120000 		.4byte	.LASF136
 7187 077b 09       		.byte	0x9
 7188 077c DD       		.byte	0xdd
 7189 077d A2000000 		.4byte	0xa2
 7190 0781 44       		.byte	0x44
 7191 0782 0E       		.uleb128 0xe
 7192 0783 530B0000 		.4byte	.LASF137
 7193 0787 09       		.byte	0x9
 7194 0788 DE       		.byte	0xde
 7195 0789 A2000000 		.4byte	0xa2
 7196 078d 48       		.byte	0x48
 7197 078e 0E       		.uleb128 0xe
 7198 078f AC0E0000 		.4byte	.LASF73
 7199 0793 09       		.byte	0x9
 7200 0794 DF       		.byte	0xdf
 7201 0795 FF050000 		.4byte	0x5ff
 7202 0799 4C       		.byte	0x4c
 7203 079a 0E       		.uleb128 0xe
 7204 079b 3B080000 		.4byte	.LASF79
 7205 079f 09       		.byte	0x9
 7206 07a0 E0       		.byte	0xe0
 7207 07a1 A2000000 		.4byte	0xa2
 7208 07a5 50       		.byte	0x50
 7209 07a6 00       		.byte	0
 7210 07a7 10       		.uleb128 0x10
 7211 07a8 04       		.byte	0x4
 7212 07a9 86010000 		.4byte	0x186
 7213 07ad 10       		.uleb128 0x10
 7214 07ae 04       		.byte	0x4
 7215 07af 3D040000 		.4byte	0x43d
 7216 07b3 03       		.uleb128 0x3
 7217 07b4 FE0D0000 		.4byte	.LASF138
 7218 07b8 09       		.byte	0x9
 7219 07b9 E1       		.byte	0xe1
 7220 07ba 02070000 		.4byte	0x702
 7221 07be 0D       		.uleb128 0xd
 7222 07bf 18       		.byte	0x18
 7223 07c0 09       		.byte	0x9
 7224 07c1 E6       		.byte	0xe6
 7225 07c2 0F080000 		.4byte	0x80f
 7226 07c6 0E       		.uleb128 0xe
 7227 07c7 C90E0000 		.4byte	.LASF139
 7228 07cb 09       		.byte	0x9
 7229 07cc E8       		.byte	0xe8
 7230 07cd A2000000 		.4byte	0xa2
 7231 07d1 00       		.byte	0
 7232 07d2 0E       		.uleb128 0xe
 7233 07d3 140C0000 		.4byte	.LASF140
 7234 07d7 09       		.byte	0x9
 7235 07d8 EA       		.byte	0xea
 7236 07d9 A2000000 		.4byte	0xa2
 7237 07dd 04       		.byte	0x4
 7238 07de 0E       		.uleb128 0xe
 7239 07df B2080000 		.4byte	.LASF141
 7240 07e3 09       		.byte	0x9
 7241 07e4 EC       		.byte	0xec
 7242 07e5 97000000 		.4byte	0x97
ARM GAS  /tmp/ccjyqKqb.s 			page 129


 7243 07e9 08       		.byte	0x8
 7244 07ea 0E       		.uleb128 0xe
 7245 07eb 13060000 		.4byte	.LASF142
 7246 07ef 09       		.byte	0x9
 7247 07f0 EE       		.byte	0xee
 7248 07f1 97000000 		.4byte	0x97
 7249 07f5 0C       		.byte	0xc
 7250 07f6 0E       		.uleb128 0xe
 7251 07f7 ED090000 		.4byte	.LASF143
 7252 07fb 09       		.byte	0x9
 7253 07fc F0       		.byte	0xf0
 7254 07fd A2000000 		.4byte	0xa2
 7255 0801 10       		.byte	0x10
 7256 0802 0E       		.uleb128 0xe
 7257 0803 9D0E0000 		.4byte	.LASF144
 7258 0807 09       		.byte	0x9
 7259 0808 F2       		.byte	0xf2
 7260 0809 A2000000 		.4byte	0xa2
 7261 080d 14       		.byte	0x14
 7262 080e 00       		.byte	0
 7263 080f 03       		.uleb128 0x3
 7264 0810 E10F0000 		.4byte	.LASF145
 7265 0814 09       		.byte	0x9
 7266 0815 F4       		.byte	0xf4
 7267 0816 BE070000 		.4byte	0x7be
 7268 081a 14       		.uleb128 0x14
 7269 081b 6A020000 		.4byte	.LASF242
 7270 081f 02       		.byte	0x2
 7271 0820 4502     		.2byte	0x245
 7272 0822 A2000000 		.4byte	0xa2
 7273 0826 03       		.byte	0x3
 7274 0827 44080000 		.4byte	0x844
 7275 082b 15       		.uleb128 0x15
 7276 082c 84060000 		.4byte	.LASF191
 7277 0830 02       		.byte	0x2
 7278 0831 4502     		.2byte	0x245
 7279 0833 A2000000 		.4byte	0xa2
 7280 0837 16       		.uleb128 0x16
 7281 0838 53120000 		.4byte	.LASF243
 7282 083c 02       		.byte	0x2
 7283 083d 4702     		.2byte	0x247
 7284 083f A2000000 		.4byte	0xa2
 7285 0843 00       		.byte	0
 7286 0844 17       		.uleb128 0x17
 7287 0845 86110000 		.4byte	.LASF146
 7288 0849 01       		.byte	0x1
 7289 084a 2501     		.2byte	0x125
 7290 084c AD020000 		.4byte	0x2ad
 7291 0850 00000000 		.4byte	.LFB125
 7292 0854 D4010000 		.4byte	.LFE125-.LFB125
 7293 0858 01       		.uleb128 0x1
 7294 0859 9C       		.byte	0x9c
 7295 085a 26090000 		.4byte	0x926
 7296 085e 18       		.uleb128 0x18
 7297 085f C20A0000 		.4byte	.LASF148
 7298 0863 01       		.byte	0x1
 7299 0864 2501     		.2byte	0x125
ARM GAS  /tmp/ccjyqKqb.s 			page 130


 7300 0866 26090000 		.4byte	0x926
 7301 086a 02       		.uleb128 0x2
 7302 086b 91       		.byte	0x91
 7303 086c 54       		.sleb128 -44
 7304 086d 19       		.uleb128 0x19
 7305 086e 1A080000 		.4byte	0x81a
 7306 0872 82000000 		.4byte	.LBB75
 7307 0876 0A000000 		.4byte	.LBE75-.LBB75
 7308 087a 01       		.byte	0x1
 7309 087b 5501     		.2byte	0x155
 7310 087d 9C080000 		.4byte	0x89c
 7311 0881 1A       		.uleb128 0x1a
 7312 0882 2B080000 		.4byte	0x82b
 7313 0886 02       		.uleb128 0x2
 7314 0887 91       		.byte	0x91
 7315 0888 74       		.sleb128 -12
 7316 0889 1B       		.uleb128 0x1b
 7317 088a 82000000 		.4byte	.LBB76
 7318 088e 0A000000 		.4byte	.LBE76-.LBB76
 7319 0892 1C       		.uleb128 0x1c
 7320 0893 37080000 		.4byte	0x837
 7321 0897 02       		.uleb128 0x2
 7322 0898 91       		.byte	0x91
 7323 0899 70       		.sleb128 -16
 7324 089a 00       		.byte	0
 7325 089b 00       		.byte	0
 7326 089c 19       		.uleb128 0x19
 7327 089d 1A080000 		.4byte	0x81a
 7328 08a1 24010000 		.4byte	.LBB77
 7329 08a5 0A000000 		.4byte	.LBE77-.LBB77
 7330 08a9 01       		.byte	0x1
 7331 08aa 6B01     		.2byte	0x16b
 7332 08ac CB080000 		.4byte	0x8cb
 7333 08b0 1A       		.uleb128 0x1a
 7334 08b1 2B080000 		.4byte	0x82b
 7335 08b5 02       		.uleb128 0x2
 7336 08b6 91       		.byte	0x91
 7337 08b7 6C       		.sleb128 -20
 7338 08b8 1B       		.uleb128 0x1b
 7339 08b9 24010000 		.4byte	.LBB78
 7340 08bd 0A000000 		.4byte	.LBE78-.LBB78
 7341 08c1 1C       		.uleb128 0x1c
 7342 08c2 37080000 		.4byte	0x837
 7343 08c6 02       		.uleb128 0x2
 7344 08c7 91       		.byte	0x91
 7345 08c8 68       		.sleb128 -24
 7346 08c9 00       		.byte	0
 7347 08ca 00       		.byte	0
 7348 08cb 19       		.uleb128 0x19
 7349 08cc 1A080000 		.4byte	0x81a
 7350 08d0 62010000 		.4byte	.LBB79
 7351 08d4 0A000000 		.4byte	.LBE79-.LBB79
 7352 08d8 01       		.byte	0x1
 7353 08d9 6F01     		.2byte	0x16f
 7354 08db FA080000 		.4byte	0x8fa
 7355 08df 1A       		.uleb128 0x1a
 7356 08e0 2B080000 		.4byte	0x82b
ARM GAS  /tmp/ccjyqKqb.s 			page 131


 7357 08e4 02       		.uleb128 0x2
 7358 08e5 91       		.byte	0x91
 7359 08e6 64       		.sleb128 -28
 7360 08e7 1B       		.uleb128 0x1b
 7361 08e8 62010000 		.4byte	.LBB80
 7362 08ec 0A000000 		.4byte	.LBE80-.LBB80
 7363 08f0 1C       		.uleb128 0x1c
 7364 08f1 37080000 		.4byte	0x837
 7365 08f5 02       		.uleb128 0x2
 7366 08f6 91       		.byte	0x91
 7367 08f7 60       		.sleb128 -32
 7368 08f8 00       		.byte	0
 7369 08f9 00       		.byte	0
 7370 08fa 1D       		.uleb128 0x1d
 7371 08fb 1A080000 		.4byte	0x81a
 7372 08ff 7A010000 		.4byte	.LBB81
 7373 0903 0A000000 		.4byte	.LBE81-.LBB81
 7374 0907 01       		.byte	0x1
 7375 0908 7001     		.2byte	0x170
 7376 090a 1A       		.uleb128 0x1a
 7377 090b 2B080000 		.4byte	0x82b
 7378 090f 02       		.uleb128 0x2
 7379 0910 91       		.byte	0x91
 7380 0911 5C       		.sleb128 -36
 7381 0912 1B       		.uleb128 0x1b
 7382 0913 7A010000 		.4byte	.LBB82
 7383 0917 0A000000 		.4byte	.LBE82-.LBB82
 7384 091b 1C       		.uleb128 0x1c
 7385 091c 37080000 		.4byte	0x837
 7386 0920 02       		.uleb128 0x2
 7387 0921 91       		.byte	0x91
 7388 0922 58       		.sleb128 -40
 7389 0923 00       		.byte	0
 7390 0924 00       		.byte	0
 7391 0925 00       		.byte	0
 7392 0926 10       		.uleb128 0x10
 7393 0927 04       		.byte	0x4
 7394 0928 C6050000 		.4byte	0x5c6
 7395 092c 17       		.uleb128 0x17
 7396 092d 44050000 		.4byte	.LASF147
 7397 0931 01       		.byte	0x1
 7398 0932 8301     		.2byte	0x183
 7399 0934 AD020000 		.4byte	0x2ad
 7400 0938 E0010000 		.4byte	.LFB126
 7401 093c 90000000 		.4byte	.LFE126-.LFB126
 7402 0940 01       		.uleb128 0x1
 7403 0941 9C       		.byte	0x9c
 7404 0942 56090000 		.4byte	0x956
 7405 0946 18       		.uleb128 0x18
 7406 0947 C20A0000 		.4byte	.LASF148
 7407 094b 01       		.byte	0x1
 7408 094c 8301     		.2byte	0x183
 7409 094e 26090000 		.4byte	0x926
 7410 0952 02       		.uleb128 0x2
 7411 0953 91       		.byte	0x91
 7412 0954 74       		.sleb128 -12
 7413 0955 00       		.byte	0
ARM GAS  /tmp/ccjyqKqb.s 			page 132


 7414 0956 1E       		.uleb128 0x1e
 7415 0957 AB110000 		.4byte	.LASF149
 7416 095b 01       		.byte	0x1
 7417 095c B101     		.2byte	0x1b1
 7418 095e 70020000 		.4byte	.LFB127
 7419 0962 08000000 		.4byte	.LFE127-.LFB127
 7420 0966 01       		.uleb128 0x1
 7421 0967 9C       		.byte	0x9c
 7422 0968 7C090000 		.4byte	0x97c
 7423 096c 18       		.uleb128 0x18
 7424 096d C20A0000 		.4byte	.LASF148
 7425 0971 01       		.byte	0x1
 7426 0972 B101     		.2byte	0x1b1
 7427 0974 26090000 		.4byte	0x926
 7428 0978 02       		.uleb128 0x2
 7429 0979 91       		.byte	0x91
 7430 097a 7C       		.sleb128 -4
 7431 097b 00       		.byte	0
 7432 097c 1E       		.uleb128 0x1e
 7433 097d DD110000 		.4byte	.LASF150
 7434 0981 01       		.byte	0x1
 7435 0982 C001     		.2byte	0x1c0
 7436 0984 80020000 		.4byte	.LFB128
 7437 0988 08000000 		.4byte	.LFE128-.LFB128
 7438 098c 01       		.uleb128 0x1
 7439 098d 9C       		.byte	0x9c
 7440 098e A2090000 		.4byte	0x9a2
 7441 0992 18       		.uleb128 0x18
 7442 0993 C20A0000 		.4byte	.LASF148
 7443 0997 01       		.byte	0x1
 7444 0998 C001     		.2byte	0x1c0
 7445 099a 26090000 		.4byte	0x926
 7446 099e 02       		.uleb128 0x2
 7447 099f 91       		.byte	0x91
 7448 09a0 7C       		.sleb128 -4
 7449 09a1 00       		.byte	0
 7450 09a2 17       		.uleb128 0x17
 7451 09a3 D4070000 		.4byte	.LASF151
 7452 09a7 01       		.byte	0x1
 7453 09a8 E701     		.2byte	0x1e7
 7454 09aa AD020000 		.4byte	0x2ad
 7455 09ae 90020000 		.4byte	.LFB129
 7456 09b2 C8000000 		.4byte	.LFE129-.LFB129
 7457 09b6 01       		.uleb128 0x1
 7458 09b7 9C       		.byte	0x9c
 7459 09b8 530A0000 		.4byte	0xa53
 7460 09bc 18       		.uleb128 0x18
 7461 09bd C20A0000 		.4byte	.LASF148
 7462 09c1 01       		.byte	0x1
 7463 09c2 E701     		.2byte	0x1e7
 7464 09c4 26090000 		.4byte	0x926
 7465 09c8 02       		.uleb128 0x2
 7466 09c9 91       		.byte	0x91
 7467 09ca 54       		.sleb128 -44
 7468 09cb 1F       		.uleb128 0x1f
 7469 09cc F4100000 		.4byte	.LASF152
 7470 09d0 01       		.byte	0x1
ARM GAS  /tmp/ccjyqKqb.s 			page 133


 7471 09d1 E901     		.2byte	0x1e9
 7472 09d3 AD020000 		.4byte	0x2ad
 7473 09d7 02       		.uleb128 0x2
 7474 09d8 91       		.byte	0x91
 7475 09d9 77       		.sleb128 -9
 7476 09da 1F       		.uleb128 0x1f
 7477 09db A60D0000 		.4byte	.LASF153
 7478 09df 01       		.byte	0x1
 7479 09e0 EA01     		.2byte	0x1ea
 7480 09e2 A2000000 		.4byte	0xa2
 7481 09e6 02       		.uleb128 0x2
 7482 09e7 91       		.byte	0x91
 7483 09e8 70       		.sleb128 -16
 7484 09e9 1F       		.uleb128 0x1f
 7485 09ea EE0C0000 		.4byte	.LASF154
 7486 09ee 01       		.byte	0x1
 7487 09ef EB01     		.2byte	0x1eb
 7488 09f1 A2000000 		.4byte	0xa2
 7489 09f5 02       		.uleb128 0x2
 7490 09f6 91       		.byte	0x91
 7491 09f7 6C       		.sleb128 -20
 7492 09f8 19       		.uleb128 0x19
 7493 09f9 1A080000 		.4byte	0x81a
 7494 09fd CA020000 		.4byte	.LBB83
 7495 0a01 0A000000 		.4byte	.LBE83-.LBB83
 7496 0a05 01       		.byte	0x1
 7497 0a06 0102     		.2byte	0x201
 7498 0a08 270A0000 		.4byte	0xa27
 7499 0a0c 1A       		.uleb128 0x1a
 7500 0a0d 2B080000 		.4byte	0x82b
 7501 0a11 02       		.uleb128 0x2
 7502 0a12 91       		.byte	0x91
 7503 0a13 68       		.sleb128 -24
 7504 0a14 1B       		.uleb128 0x1b
 7505 0a15 CA020000 		.4byte	.LBB84
 7506 0a19 0A000000 		.4byte	.LBE84-.LBB84
 7507 0a1d 1C       		.uleb128 0x1c
 7508 0a1e 37080000 		.4byte	0x837
 7509 0a22 02       		.uleb128 0x2
 7510 0a23 91       		.byte	0x91
 7511 0a24 64       		.sleb128 -28
 7512 0a25 00       		.byte	0
 7513 0a26 00       		.byte	0
 7514 0a27 1D       		.uleb128 0x1d
 7515 0a28 1A080000 		.4byte	0x81a
 7516 0a2c 0E030000 		.4byte	.LBB85
 7517 0a30 0A000000 		.4byte	.LBE85-.LBB85
 7518 0a34 01       		.byte	0x1
 7519 0a35 FF01     		.2byte	0x1ff
 7520 0a37 1A       		.uleb128 0x1a
 7521 0a38 2B080000 		.4byte	0x82b
 7522 0a3c 02       		.uleb128 0x2
 7523 0a3d 91       		.byte	0x91
 7524 0a3e 60       		.sleb128 -32
 7525 0a3f 1B       		.uleb128 0x1b
 7526 0a40 0E030000 		.4byte	.LBB86
 7527 0a44 0A000000 		.4byte	.LBE86-.LBB86
ARM GAS  /tmp/ccjyqKqb.s 			page 134


 7528 0a48 1C       		.uleb128 0x1c
 7529 0a49 37080000 		.4byte	0x837
 7530 0a4d 02       		.uleb128 0x2
 7531 0a4e 91       		.byte	0x91
 7532 0a4f 5C       		.sleb128 -36
 7533 0a50 00       		.byte	0
 7534 0a51 00       		.byte	0
 7535 0a52 00       		.byte	0
 7536 0a53 17       		.uleb128 0x17
 7537 0a54 99000000 		.4byte	.LASF155
 7538 0a58 01       		.byte	0x1
 7539 0a59 1C02     		.2byte	0x21c
 7540 0a5b AD020000 		.4byte	0x2ad
 7541 0a5f 60030000 		.4byte	.LFB130
 7542 0a63 AC000000 		.4byte	.LFE130-.LFB130
 7543 0a67 01       		.uleb128 0x1
 7544 0a68 9C       		.byte	0x9c
 7545 0a69 040B0000 		.4byte	0xb04
 7546 0a6d 18       		.uleb128 0x18
 7547 0a6e C20A0000 		.4byte	.LASF148
 7548 0a72 01       		.byte	0x1
 7549 0a73 1C02     		.2byte	0x21c
 7550 0a75 26090000 		.4byte	0x926
 7551 0a79 02       		.uleb128 0x2
 7552 0a7a 91       		.byte	0x91
 7553 0a7b 5C       		.sleb128 -36
 7554 0a7c 18       		.uleb128 0x18
 7555 0a7d 9E0D0000 		.4byte	.LASF156
 7556 0a81 01       		.byte	0x1
 7557 0a82 1D02     		.2byte	0x21d
 7558 0a84 A2000000 		.4byte	0xa2
 7559 0a88 02       		.uleb128 0x2
 7560 0a89 91       		.byte	0x91
 7561 0a8a 58       		.sleb128 -40
 7562 0a8b 1F       		.uleb128 0x1f
 7563 0a8c EE0C0000 		.4byte	.LASF154
 7564 0a90 01       		.byte	0x1
 7565 0a91 1F02     		.2byte	0x21f
 7566 0a93 A2000000 		.4byte	0xa2
 7567 0a97 02       		.uleb128 0x2
 7568 0a98 91       		.byte	0x91
 7569 0a99 70       		.sleb128 -16
 7570 0a9a 1F       		.uleb128 0x1f
 7571 0a9b A60D0000 		.4byte	.LASF153
 7572 0a9f 01       		.byte	0x1
 7573 0aa0 2002     		.2byte	0x220
 7574 0aa2 A2000000 		.4byte	0xa2
 7575 0aa6 02       		.uleb128 0x2
 7576 0aa7 91       		.byte	0x91
 7577 0aa8 74       		.sleb128 -12
 7578 0aa9 19       		.uleb128 0x19
 7579 0aaa 1A080000 		.4byte	0x81a
 7580 0aae BA030000 		.4byte	.LBB87
 7581 0ab2 0A000000 		.4byte	.LBE87-.LBB87
 7582 0ab6 01       		.byte	0x1
 7583 0ab7 3402     		.2byte	0x234
 7584 0ab9 D80A0000 		.4byte	0xad8
ARM GAS  /tmp/ccjyqKqb.s 			page 135


 7585 0abd 1A       		.uleb128 0x1a
 7586 0abe 2B080000 		.4byte	0x82b
 7587 0ac2 02       		.uleb128 0x2
 7588 0ac3 91       		.byte	0x91
 7589 0ac4 6C       		.sleb128 -20
 7590 0ac5 1B       		.uleb128 0x1b
 7591 0ac6 BA030000 		.4byte	.LBB88
 7592 0aca 0A000000 		.4byte	.LBE88-.LBB88
 7593 0ace 1C       		.uleb128 0x1c
 7594 0acf 37080000 		.4byte	0x837
 7595 0ad3 02       		.uleb128 0x2
 7596 0ad4 91       		.byte	0x91
 7597 0ad5 68       		.sleb128 -24
 7598 0ad6 00       		.byte	0
 7599 0ad7 00       		.byte	0
 7600 0ad8 1D       		.uleb128 0x1d
 7601 0ad9 1A080000 		.4byte	0x81a
 7602 0add E2030000 		.4byte	.LBB89
 7603 0ae1 0A000000 		.4byte	.LBE89-.LBB89
 7604 0ae5 01       		.byte	0x1
 7605 0ae6 4202     		.2byte	0x242
 7606 0ae8 1A       		.uleb128 0x1a
 7607 0ae9 2B080000 		.4byte	0x82b
 7608 0aed 02       		.uleb128 0x2
 7609 0aee 91       		.byte	0x91
 7610 0aef 64       		.sleb128 -28
 7611 0af0 1B       		.uleb128 0x1b
 7612 0af1 E2030000 		.4byte	.LBB90
 7613 0af5 0A000000 		.4byte	.LBE90-.LBB90
 7614 0af9 1C       		.uleb128 0x1c
 7615 0afa 37080000 		.4byte	0x837
 7616 0afe 02       		.uleb128 0x2
 7617 0aff 91       		.byte	0x91
 7618 0b00 60       		.sleb128 -32
 7619 0b01 00       		.byte	0
 7620 0b02 00       		.byte	0
 7621 0b03 00       		.byte	0
 7622 0b04 17       		.uleb128 0x17
 7623 0b05 B2030000 		.4byte	.LASF157
 7624 0b09 01       		.byte	0x1
 7625 0b0a 4E02     		.2byte	0x24e
 7626 0b0c AD020000 		.4byte	0x2ad
 7627 0b10 10040000 		.4byte	.LFB131
 7628 0b14 70000000 		.4byte	.LFE131-.LFB131
 7629 0b18 01       		.uleb128 0x1
 7630 0b19 9C       		.byte	0x9c
 7631 0b1a 770B0000 		.4byte	0xb77
 7632 0b1e 18       		.uleb128 0x18
 7633 0b1f C20A0000 		.4byte	.LASF148
 7634 0b23 01       		.byte	0x1
 7635 0b24 4E02     		.2byte	0x24e
 7636 0b26 26090000 		.4byte	0x926
 7637 0b2a 02       		.uleb128 0x2
 7638 0b2b 91       		.byte	0x91
 7639 0b2c 64       		.sleb128 -28
 7640 0b2d 1F       		.uleb128 0x1f
 7641 0b2e F4100000 		.4byte	.LASF152
ARM GAS  /tmp/ccjyqKqb.s 			page 136


 7642 0b32 01       		.byte	0x1
 7643 0b33 5002     		.2byte	0x250
 7644 0b35 AD020000 		.4byte	0x2ad
 7645 0b39 02       		.uleb128 0x2
 7646 0b3a 91       		.byte	0x91
 7647 0b3b 77       		.sleb128 -9
 7648 0b3c 1F       		.uleb128 0x1f
 7649 0b3d A60D0000 		.4byte	.LASF153
 7650 0b41 01       		.byte	0x1
 7651 0b42 5102     		.2byte	0x251
 7652 0b44 A2000000 		.4byte	0xa2
 7653 0b48 02       		.uleb128 0x2
 7654 0b49 91       		.byte	0x91
 7655 0b4a 70       		.sleb128 -16
 7656 0b4b 1D       		.uleb128 0x1d
 7657 0b4c 1A080000 		.4byte	0x81a
 7658 0b50 52040000 		.4byte	.LBB91
 7659 0b54 0A000000 		.4byte	.LBE91-.LBB91
 7660 0b58 01       		.byte	0x1
 7661 0b59 6302     		.2byte	0x263
 7662 0b5b 1A       		.uleb128 0x1a
 7663 0b5c 2B080000 		.4byte	0x82b
 7664 0b60 02       		.uleb128 0x2
 7665 0b61 91       		.byte	0x91
 7666 0b62 6C       		.sleb128 -20
 7667 0b63 1B       		.uleb128 0x1b
 7668 0b64 52040000 		.4byte	.LBB92
 7669 0b68 0A000000 		.4byte	.LBE92-.LBB92
 7670 0b6c 1C       		.uleb128 0x1c
 7671 0b6d 37080000 		.4byte	0x837
 7672 0b71 02       		.uleb128 0x2
 7673 0b72 91       		.byte	0x91
 7674 0b73 68       		.sleb128 -24
 7675 0b74 00       		.byte	0
 7676 0b75 00       		.byte	0
 7677 0b76 00       		.byte	0
 7678 0b77 17       		.uleb128 0x17
 7679 0b78 94080000 		.4byte	.LASF158
 7680 0b7c 01       		.byte	0x1
 7681 0b7d 7202     		.2byte	0x272
 7682 0b7f AD020000 		.4byte	0x2ad
 7683 0b83 80040000 		.4byte	.LFB132
 7684 0b87 D4000000 		.4byte	.LFE132-.LFB132
 7685 0b8b 01       		.uleb128 0x1
 7686 0b8c 9C       		.byte	0x9c
 7687 0b8d 280C0000 		.4byte	0xc28
 7688 0b91 18       		.uleb128 0x18
 7689 0b92 C20A0000 		.4byte	.LASF148
 7690 0b96 01       		.byte	0x1
 7691 0b97 7202     		.2byte	0x272
 7692 0b99 26090000 		.4byte	0x926
 7693 0b9d 02       		.uleb128 0x2
 7694 0b9e 91       		.byte	0x91
 7695 0b9f 54       		.sleb128 -44
 7696 0ba0 1F       		.uleb128 0x1f
 7697 0ba1 F4100000 		.4byte	.LASF152
 7698 0ba5 01       		.byte	0x1
ARM GAS  /tmp/ccjyqKqb.s 			page 137


 7699 0ba6 7402     		.2byte	0x274
 7700 0ba8 AD020000 		.4byte	0x2ad
 7701 0bac 02       		.uleb128 0x2
 7702 0bad 91       		.byte	0x91
 7703 0bae 77       		.sleb128 -9
 7704 0baf 1F       		.uleb128 0x1f
 7705 0bb0 A60D0000 		.4byte	.LASF153
 7706 0bb4 01       		.byte	0x1
 7707 0bb5 7502     		.2byte	0x275
 7708 0bb7 A2000000 		.4byte	0xa2
 7709 0bbb 02       		.uleb128 0x2
 7710 0bbc 91       		.byte	0x91
 7711 0bbd 70       		.sleb128 -16
 7712 0bbe 1F       		.uleb128 0x1f
 7713 0bbf EE0C0000 		.4byte	.LASF154
 7714 0bc3 01       		.byte	0x1
 7715 0bc4 7602     		.2byte	0x276
 7716 0bc6 A2000000 		.4byte	0xa2
 7717 0bca 02       		.uleb128 0x2
 7718 0bcb 91       		.byte	0x91
 7719 0bcc 6C       		.sleb128 -20
 7720 0bcd 19       		.uleb128 0x19
 7721 0bce 1A080000 		.4byte	0x81a
 7722 0bd2 BA040000 		.4byte	.LBB93
 7723 0bd6 0A000000 		.4byte	.LBE93-.LBB93
 7724 0bda 01       		.byte	0x1
 7725 0bdb 8C02     		.2byte	0x28c
 7726 0bdd FC0B0000 		.4byte	0xbfc
 7727 0be1 1A       		.uleb128 0x1a
 7728 0be2 2B080000 		.4byte	0x82b
 7729 0be6 02       		.uleb128 0x2
 7730 0be7 91       		.byte	0x91
 7731 0be8 68       		.sleb128 -24
 7732 0be9 1B       		.uleb128 0x1b
 7733 0bea BA040000 		.4byte	.LBB94
 7734 0bee 0A000000 		.4byte	.LBE94-.LBB94
 7735 0bf2 1C       		.uleb128 0x1c
 7736 0bf3 37080000 		.4byte	0x837
 7737 0bf7 02       		.uleb128 0x2
 7738 0bf8 91       		.byte	0x91
 7739 0bf9 64       		.sleb128 -28
 7740 0bfa 00       		.byte	0
 7741 0bfb 00       		.byte	0
 7742 0bfc 1D       		.uleb128 0x1d
 7743 0bfd 1A080000 		.4byte	0x81a
 7744 0c01 FE040000 		.4byte	.LBB95
 7745 0c05 0A000000 		.4byte	.LBE95-.LBB95
 7746 0c09 01       		.byte	0x1
 7747 0c0a 8A02     		.2byte	0x28a
 7748 0c0c 1A       		.uleb128 0x1a
 7749 0c0d 2B080000 		.4byte	0x82b
 7750 0c11 02       		.uleb128 0x2
 7751 0c12 91       		.byte	0x91
 7752 0c13 60       		.sleb128 -32
 7753 0c14 1B       		.uleb128 0x1b
 7754 0c15 FE040000 		.4byte	.LBB96
 7755 0c19 0A000000 		.4byte	.LBE96-.LBB96
ARM GAS  /tmp/ccjyqKqb.s 			page 138


 7756 0c1d 1C       		.uleb128 0x1c
 7757 0c1e 37080000 		.4byte	0x837
 7758 0c22 02       		.uleb128 0x2
 7759 0c23 91       		.byte	0x91
 7760 0c24 5C       		.sleb128 -36
 7761 0c25 00       		.byte	0
 7762 0c26 00       		.byte	0
 7763 0c27 00       		.byte	0
 7764 0c28 1E       		.uleb128 0x1e
 7765 0c29 48030000 		.4byte	.LASF159
 7766 0c2d 01       		.byte	0x1
 7767 0c2e A902     		.2byte	0x2a9
 7768 0c30 60050000 		.4byte	.LFB133
 7769 0c34 08000000 		.4byte	.LFE133-.LFB133
 7770 0c38 01       		.uleb128 0x1
 7771 0c39 9C       		.byte	0x9c
 7772 0c3a 4E0C0000 		.4byte	0xc4e
 7773 0c3e 18       		.uleb128 0x18
 7774 0c3f C20A0000 		.4byte	.LASF148
 7775 0c43 01       		.byte	0x1
 7776 0c44 A902     		.2byte	0x2a9
 7777 0c46 26090000 		.4byte	0x926
 7778 0c4a 02       		.uleb128 0x2
 7779 0c4b 91       		.byte	0x91
 7780 0c4c 7C       		.sleb128 -4
 7781 0c4d 00       		.byte	0
 7782 0c4e 17       		.uleb128 0x17
 7783 0c4f 61080000 		.4byte	.LASF160
 7784 0c53 01       		.byte	0x1
 7785 0c54 B902     		.2byte	0x2b9
 7786 0c56 AD020000 		.4byte	0x2ad
 7787 0c5a 70050000 		.4byte	.LFB134
 7788 0c5e 7C000000 		.4byte	.LFE134-.LFB134
 7789 0c62 01       		.uleb128 0x1
 7790 0c63 9C       		.byte	0x9c
 7791 0c64 C10C0000 		.4byte	0xcc1
 7792 0c68 18       		.uleb128 0x18
 7793 0c69 C20A0000 		.4byte	.LASF148
 7794 0c6d 01       		.byte	0x1
 7795 0c6e B902     		.2byte	0x2b9
 7796 0c70 26090000 		.4byte	0x926
 7797 0c74 02       		.uleb128 0x2
 7798 0c75 91       		.byte	0x91
 7799 0c76 64       		.sleb128 -28
 7800 0c77 1F       		.uleb128 0x1f
 7801 0c78 F4100000 		.4byte	.LASF152
 7802 0c7c 01       		.byte	0x1
 7803 0c7d BB02     		.2byte	0x2bb
 7804 0c7f AD020000 		.4byte	0x2ad
 7805 0c83 02       		.uleb128 0x2
 7806 0c84 91       		.byte	0x91
 7807 0c85 77       		.sleb128 -9
 7808 0c86 1F       		.uleb128 0x1f
 7809 0c87 A60D0000 		.4byte	.LASF153
 7810 0c8b 01       		.byte	0x1
 7811 0c8c BC02     		.2byte	0x2bc
 7812 0c8e A2000000 		.4byte	0xa2
ARM GAS  /tmp/ccjyqKqb.s 			page 139


 7813 0c92 02       		.uleb128 0x2
 7814 0c93 91       		.byte	0x91
 7815 0c94 70       		.sleb128 -16
 7816 0c95 1D       		.uleb128 0x1d
 7817 0c96 1A080000 		.4byte	0x81a
 7818 0c9a B2050000 		.4byte	.LBB97
 7819 0c9e 0A000000 		.4byte	.LBE97-.LBB97
 7820 0ca2 01       		.byte	0x1
 7821 0ca3 CE02     		.2byte	0x2ce
 7822 0ca5 1A       		.uleb128 0x1a
 7823 0ca6 2B080000 		.4byte	0x82b
 7824 0caa 02       		.uleb128 0x2
 7825 0cab 91       		.byte	0x91
 7826 0cac 6C       		.sleb128 -20
 7827 0cad 1B       		.uleb128 0x1b
 7828 0cae B2050000 		.4byte	.LBB98
 7829 0cb2 0A000000 		.4byte	.LBE98-.LBB98
 7830 0cb6 1C       		.uleb128 0x1c
 7831 0cb7 37080000 		.4byte	0x837
 7832 0cbb 02       		.uleb128 0x2
 7833 0cbc 91       		.byte	0x91
 7834 0cbd 68       		.sleb128 -24
 7835 0cbe 00       		.byte	0
 7836 0cbf 00       		.byte	0
 7837 0cc0 00       		.byte	0
 7838 0cc1 20       		.uleb128 0x20
 7839 0cc2 7A050000 		.4byte	.LASF161
 7840 0cc6 01       		.byte	0x1
 7841 0cc7 E102     		.2byte	0x2e1
 7842 0cc9 AD020000 		.4byte	0x2ad
 7843 0ccd F0050000 		.4byte	.LFB135
 7844 0cd1 78000000 		.4byte	.LFE135-.LFB135
 7845 0cd5 01       		.uleb128 0x1
 7846 0cd6 9C       		.byte	0x9c
 7847 0cd7 430D0000 		.4byte	0xd43
 7848 0cdb 18       		.uleb128 0x18
 7849 0cdc C20A0000 		.4byte	.LASF148
 7850 0ce0 01       		.byte	0x1
 7851 0ce1 E102     		.2byte	0x2e1
 7852 0ce3 26090000 		.4byte	0x926
 7853 0ce7 02       		.uleb128 0x2
 7854 0ce8 91       		.byte	0x91
 7855 0ce9 6C       		.sleb128 -20
 7856 0cea 18       		.uleb128 0x18
 7857 0ceb 58100000 		.4byte	.LASF162
 7858 0cef 01       		.byte	0x1
 7859 0cf0 E202     		.2byte	0x2e2
 7860 0cf2 A2000000 		.4byte	0xa2
 7861 0cf6 02       		.uleb128 0x2
 7862 0cf7 91       		.byte	0x91
 7863 0cf8 68       		.sleb128 -24
 7864 0cf9 18       		.uleb128 0x18
 7865 0cfa 2A0B0000 		.4byte	.LASF163
 7866 0cfe 01       		.byte	0x1
 7867 0cff E302     		.2byte	0x2e3
 7868 0d01 A2000000 		.4byte	0xa2
 7869 0d05 02       		.uleb128 0x2
ARM GAS  /tmp/ccjyqKqb.s 			page 140


 7870 0d06 91       		.byte	0x91
 7871 0d07 64       		.sleb128 -28
 7872 0d08 1F       		.uleb128 0x1f
 7873 0d09 F4100000 		.4byte	.LASF152
 7874 0d0d 01       		.byte	0x1
 7875 0d0e E502     		.2byte	0x2e5
 7876 0d10 AD020000 		.4byte	0x2ad
 7877 0d14 02       		.uleb128 0x2
 7878 0d15 91       		.byte	0x91
 7879 0d16 7F       		.sleb128 -1
 7880 0d17 1D       		.uleb128 0x1d
 7881 0d18 1A080000 		.4byte	0x81a
 7882 0d1c 34060000 		.4byte	.LBB99
 7883 0d20 0A000000 		.4byte	.LBE99-.LBB99
 7884 0d24 01       		.byte	0x1
 7885 0d25 F602     		.2byte	0x2f6
 7886 0d27 1A       		.uleb128 0x1a
 7887 0d28 2B080000 		.4byte	0x82b
 7888 0d2c 02       		.uleb128 0x2
 7889 0d2d 91       		.byte	0x91
 7890 0d2e 78       		.sleb128 -8
 7891 0d2f 1B       		.uleb128 0x1b
 7892 0d30 34060000 		.4byte	.LBB100
 7893 0d34 0A000000 		.4byte	.LBE100-.LBB100
 7894 0d38 1C       		.uleb128 0x1c
 7895 0d39 37080000 		.4byte	0x837
 7896 0d3d 02       		.uleb128 0x2
 7897 0d3e 91       		.byte	0x91
 7898 0d3f 74       		.sleb128 -12
 7899 0d40 00       		.byte	0
 7900 0d41 00       		.byte	0
 7901 0d42 00       		.byte	0
 7902 0d43 17       		.uleb128 0x17
 7903 0d44 71020000 		.4byte	.LASF164
 7904 0d48 01       		.byte	0x1
 7905 0d49 0603     		.2byte	0x306
 7906 0d4b AD020000 		.4byte	0x2ad
 7907 0d4f 70060000 		.4byte	.LFB136
 7908 0d53 A8000000 		.4byte	.LFE136-.LFB136
 7909 0d57 01       		.uleb128 0x1
 7910 0d58 9C       		.byte	0x9c
 7911 0d59 F40D0000 		.4byte	0xdf4
 7912 0d5d 18       		.uleb128 0x18
 7913 0d5e C20A0000 		.4byte	.LASF148
 7914 0d62 01       		.byte	0x1
 7915 0d63 0603     		.2byte	0x306
 7916 0d65 26090000 		.4byte	0x926
 7917 0d69 02       		.uleb128 0x2
 7918 0d6a 91       		.byte	0x91
 7919 0d6b 5C       		.sleb128 -36
 7920 0d6c 18       		.uleb128 0x18
 7921 0d6d 9E0D0000 		.4byte	.LASF156
 7922 0d71 01       		.byte	0x1
 7923 0d72 0703     		.2byte	0x307
 7924 0d74 A2000000 		.4byte	0xa2
 7925 0d78 02       		.uleb128 0x2
 7926 0d79 91       		.byte	0x91
ARM GAS  /tmp/ccjyqKqb.s 			page 141


 7927 0d7a 58       		.sleb128 -40
 7928 0d7b 1F       		.uleb128 0x1f
 7929 0d7c EE0C0000 		.4byte	.LASF154
 7930 0d80 01       		.byte	0x1
 7931 0d81 0903     		.2byte	0x309
 7932 0d83 A2000000 		.4byte	0xa2
 7933 0d87 02       		.uleb128 0x2
 7934 0d88 91       		.byte	0x91
 7935 0d89 70       		.sleb128 -16
 7936 0d8a 1F       		.uleb128 0x1f
 7937 0d8b A60D0000 		.4byte	.LASF153
 7938 0d8f 01       		.byte	0x1
 7939 0d90 0A03     		.2byte	0x30a
 7940 0d92 A2000000 		.4byte	0xa2
 7941 0d96 02       		.uleb128 0x2
 7942 0d97 91       		.byte	0x91
 7943 0d98 74       		.sleb128 -12
 7944 0d99 19       		.uleb128 0x19
 7945 0d9a 1A080000 		.4byte	0x81a
 7946 0d9e CA060000 		.4byte	.LBB101
 7947 0da2 0A000000 		.4byte	.LBE101-.LBB101
 7948 0da6 01       		.byte	0x1
 7949 0da7 1E03     		.2byte	0x31e
 7950 0da9 C80D0000 		.4byte	0xdc8
 7951 0dad 1A       		.uleb128 0x1a
 7952 0dae 2B080000 		.4byte	0x82b
 7953 0db2 02       		.uleb128 0x2
 7954 0db3 91       		.byte	0x91
 7955 0db4 6C       		.sleb128 -20
 7956 0db5 1B       		.uleb128 0x1b
 7957 0db6 CA060000 		.4byte	.LBB102
 7958 0dba 0A000000 		.4byte	.LBE102-.LBB102
 7959 0dbe 1C       		.uleb128 0x1c
 7960 0dbf 37080000 		.4byte	0x837
 7961 0dc3 02       		.uleb128 0x2
 7962 0dc4 91       		.byte	0x91
 7963 0dc5 68       		.sleb128 -24
 7964 0dc6 00       		.byte	0
 7965 0dc7 00       		.byte	0
 7966 0dc8 1D       		.uleb128 0x1d
 7967 0dc9 1A080000 		.4byte	0x81a
 7968 0dcd EE060000 		.4byte	.LBB103
 7969 0dd1 0A000000 		.4byte	.LBE103-.LBB103
 7970 0dd5 01       		.byte	0x1
 7971 0dd6 2C03     		.2byte	0x32c
 7972 0dd8 1A       		.uleb128 0x1a
 7973 0dd9 2B080000 		.4byte	0x82b
 7974 0ddd 02       		.uleb128 0x2
 7975 0dde 91       		.byte	0x91
 7976 0ddf 64       		.sleb128 -28
 7977 0de0 1B       		.uleb128 0x1b
 7978 0de1 EE060000 		.4byte	.LBB104
 7979 0de5 0A000000 		.4byte	.LBE104-.LBB104
 7980 0de9 1C       		.uleb128 0x1c
 7981 0dea 37080000 		.4byte	0x837
 7982 0dee 02       		.uleb128 0x2
 7983 0def 91       		.byte	0x91
ARM GAS  /tmp/ccjyqKqb.s 			page 142


 7984 0df0 60       		.sleb128 -32
 7985 0df1 00       		.byte	0
 7986 0df2 00       		.byte	0
 7987 0df3 00       		.byte	0
 7988 0df4 17       		.uleb128 0x17
 7989 0df5 54110000 		.4byte	.LASF165
 7990 0df9 01       		.byte	0x1
 7991 0dfa 3803     		.2byte	0x338
 7992 0dfc AD020000 		.4byte	0x2ad
 7993 0e00 20070000 		.4byte	.LFB137
 7994 0e04 70000000 		.4byte	.LFE137-.LFB137
 7995 0e08 01       		.uleb128 0x1
 7996 0e09 9C       		.byte	0x9c
 7997 0e0a 670E0000 		.4byte	0xe67
 7998 0e0e 18       		.uleb128 0x18
 7999 0e0f C20A0000 		.4byte	.LASF148
 8000 0e13 01       		.byte	0x1
 8001 0e14 3803     		.2byte	0x338
 8002 0e16 26090000 		.4byte	0x926
 8003 0e1a 02       		.uleb128 0x2
 8004 0e1b 91       		.byte	0x91
 8005 0e1c 64       		.sleb128 -28
 8006 0e1d 1F       		.uleb128 0x1f
 8007 0e1e F4100000 		.4byte	.LASF152
 8008 0e22 01       		.byte	0x1
 8009 0e23 3A03     		.2byte	0x33a
 8010 0e25 AD020000 		.4byte	0x2ad
 8011 0e29 02       		.uleb128 0x2
 8012 0e2a 91       		.byte	0x91
 8013 0e2b 77       		.sleb128 -9
 8014 0e2c 1F       		.uleb128 0x1f
 8015 0e2d A60D0000 		.4byte	.LASF153
 8016 0e31 01       		.byte	0x1
 8017 0e32 3B03     		.2byte	0x33b
 8018 0e34 A2000000 		.4byte	0xa2
 8019 0e38 02       		.uleb128 0x2
 8020 0e39 91       		.byte	0x91
 8021 0e3a 70       		.sleb128 -16
 8022 0e3b 1D       		.uleb128 0x1d
 8023 0e3c 1A080000 		.4byte	0x81a
 8024 0e40 62070000 		.4byte	.LBB105
 8025 0e44 0A000000 		.4byte	.LBE105-.LBB105
 8026 0e48 01       		.byte	0x1
 8027 0e49 4D03     		.2byte	0x34d
 8028 0e4b 1A       		.uleb128 0x1a
 8029 0e4c 2B080000 		.4byte	0x82b
 8030 0e50 02       		.uleb128 0x2
 8031 0e51 91       		.byte	0x91
 8032 0e52 6C       		.sleb128 -20
 8033 0e53 1B       		.uleb128 0x1b
 8034 0e54 62070000 		.4byte	.LBB106
 8035 0e58 0A000000 		.4byte	.LBE106-.LBB106
 8036 0e5c 1C       		.uleb128 0x1c
 8037 0e5d 37080000 		.4byte	0x837
 8038 0e61 02       		.uleb128 0x2
 8039 0e62 91       		.byte	0x91
 8040 0e63 68       		.sleb128 -24
ARM GAS  /tmp/ccjyqKqb.s 			page 143


 8041 0e64 00       		.byte	0
 8042 0e65 00       		.byte	0
 8043 0e66 00       		.byte	0
 8044 0e67 20       		.uleb128 0x20
 8045 0e68 5A0C0000 		.4byte	.LASF166
 8046 0e6c 01       		.byte	0x1
 8047 0e6d 5D03     		.2byte	0x35d
 8048 0e6f AD020000 		.4byte	0x2ad
 8049 0e73 90070000 		.4byte	.LFB138
 8050 0e77 88000000 		.4byte	.LFE138-.LFB138
 8051 0e7b 01       		.uleb128 0x1
 8052 0e7c 9C       		.byte	0x9c
 8053 0e7d E90E0000 		.4byte	0xee9
 8054 0e81 18       		.uleb128 0x18
 8055 0e82 C20A0000 		.4byte	.LASF148
 8056 0e86 01       		.byte	0x1
 8057 0e87 5D03     		.2byte	0x35d
 8058 0e89 26090000 		.4byte	0x926
 8059 0e8d 02       		.uleb128 0x2
 8060 0e8e 91       		.byte	0x91
 8061 0e8f 6C       		.sleb128 -20
 8062 0e90 18       		.uleb128 0x18
 8063 0e91 58100000 		.4byte	.LASF162
 8064 0e95 01       		.byte	0x1
 8065 0e96 5E03     		.2byte	0x35e
 8066 0e98 A2000000 		.4byte	0xa2
 8067 0e9c 02       		.uleb128 0x2
 8068 0e9d 91       		.byte	0x91
 8069 0e9e 68       		.sleb128 -24
 8070 0e9f 18       		.uleb128 0x18
 8071 0ea0 2A0B0000 		.4byte	.LASF163
 8072 0ea4 01       		.byte	0x1
 8073 0ea5 5F03     		.2byte	0x35f
 8074 0ea7 A2000000 		.4byte	0xa2
 8075 0eab 02       		.uleb128 0x2
 8076 0eac 91       		.byte	0x91
 8077 0ead 64       		.sleb128 -28
 8078 0eae 1F       		.uleb128 0x1f
 8079 0eaf F4100000 		.4byte	.LASF152
 8080 0eb3 01       		.byte	0x1
 8081 0eb4 6103     		.2byte	0x361
 8082 0eb6 AD020000 		.4byte	0x2ad
 8083 0eba 02       		.uleb128 0x2
 8084 0ebb 91       		.byte	0x91
 8085 0ebc 7F       		.sleb128 -1
 8086 0ebd 1D       		.uleb128 0x1d
 8087 0ebe 1A080000 		.4byte	0x81a
 8088 0ec2 E0070000 		.4byte	.LBB107
 8089 0ec6 0A000000 		.4byte	.LBE107-.LBB107
 8090 0eca 01       		.byte	0x1
 8091 0ecb 7503     		.2byte	0x375
 8092 0ecd 1A       		.uleb128 0x1a
 8093 0ece 2B080000 		.4byte	0x82b
 8094 0ed2 02       		.uleb128 0x2
 8095 0ed3 91       		.byte	0x91
 8096 0ed4 78       		.sleb128 -8
 8097 0ed5 1B       		.uleb128 0x1b
ARM GAS  /tmp/ccjyqKqb.s 			page 144


 8098 0ed6 E0070000 		.4byte	.LBB108
 8099 0eda 0A000000 		.4byte	.LBE108-.LBB108
 8100 0ede 1C       		.uleb128 0x1c
 8101 0edf 37080000 		.4byte	0x837
 8102 0ee3 02       		.uleb128 0x2
 8103 0ee4 91       		.byte	0x91
 8104 0ee5 74       		.sleb128 -12
 8105 0ee6 00       		.byte	0
 8106 0ee7 00       		.byte	0
 8107 0ee8 00       		.byte	0
 8108 0ee9 1E       		.uleb128 0x1e
 8109 0eea 51070000 		.4byte	.LASF167
 8110 0eee 01       		.byte	0x1
 8111 0eef 8403     		.2byte	0x384
 8112 0ef1 20080000 		.4byte	.LFB139
 8113 0ef5 08000000 		.4byte	.LFE139-.LFB139
 8114 0ef9 01       		.uleb128 0x1
 8115 0efa 9C       		.byte	0x9c
 8116 0efb 0F0F0000 		.4byte	0xf0f
 8117 0eff 18       		.uleb128 0x18
 8118 0f00 C20A0000 		.4byte	.LASF148
 8119 0f04 01       		.byte	0x1
 8120 0f05 8403     		.2byte	0x384
 8121 0f07 26090000 		.4byte	0x926
 8122 0f0b 02       		.uleb128 0x2
 8123 0f0c 91       		.byte	0x91
 8124 0f0d 7C       		.sleb128 -4
 8125 0f0e 00       		.byte	0
 8126 0f0f 17       		.uleb128 0x17
 8127 0f10 D60B0000 		.4byte	.LASF168
 8128 0f14 01       		.byte	0x1
 8129 0f15 9403     		.2byte	0x394
 8130 0f17 AD020000 		.4byte	0x2ad
 8131 0f1b 30080000 		.4byte	.LFB140
 8132 0f1f 7C000000 		.4byte	.LFE140-.LFB140
 8133 0f23 01       		.uleb128 0x1
 8134 0f24 9C       		.byte	0x9c
 8135 0f25 820F0000 		.4byte	0xf82
 8136 0f29 18       		.uleb128 0x18
 8137 0f2a C20A0000 		.4byte	.LASF148
 8138 0f2e 01       		.byte	0x1
 8139 0f2f 9403     		.2byte	0x394
 8140 0f31 26090000 		.4byte	0x926
 8141 0f35 02       		.uleb128 0x2
 8142 0f36 91       		.byte	0x91
 8143 0f37 64       		.sleb128 -28
 8144 0f38 1F       		.uleb128 0x1f
 8145 0f39 F4100000 		.4byte	.LASF152
 8146 0f3d 01       		.byte	0x1
 8147 0f3e 9603     		.2byte	0x396
 8148 0f40 AD020000 		.4byte	0x2ad
 8149 0f44 02       		.uleb128 0x2
 8150 0f45 91       		.byte	0x91
 8151 0f46 77       		.sleb128 -9
 8152 0f47 1F       		.uleb128 0x1f
 8153 0f48 A60D0000 		.4byte	.LASF153
 8154 0f4c 01       		.byte	0x1
ARM GAS  /tmp/ccjyqKqb.s 			page 145


 8155 0f4d 9703     		.2byte	0x397
 8156 0f4f A2000000 		.4byte	0xa2
 8157 0f53 02       		.uleb128 0x2
 8158 0f54 91       		.byte	0x91
 8159 0f55 70       		.sleb128 -16
 8160 0f56 1D       		.uleb128 0x1d
 8161 0f57 1A080000 		.4byte	0x81a
 8162 0f5b 72080000 		.4byte	.LBB109
 8163 0f5f 0A000000 		.4byte	.LBE109-.LBB109
 8164 0f63 01       		.byte	0x1
 8165 0f64 A903     		.2byte	0x3a9
 8166 0f66 1A       		.uleb128 0x1a
 8167 0f67 2B080000 		.4byte	0x82b
 8168 0f6b 02       		.uleb128 0x2
 8169 0f6c 91       		.byte	0x91
 8170 0f6d 6C       		.sleb128 -20
 8171 0f6e 1B       		.uleb128 0x1b
 8172 0f6f 72080000 		.4byte	.LBB110
 8173 0f73 0A000000 		.4byte	.LBE110-.LBB110
 8174 0f77 1C       		.uleb128 0x1c
 8175 0f78 37080000 		.4byte	0x837
 8176 0f7c 02       		.uleb128 0x2
 8177 0f7d 91       		.byte	0x91
 8178 0f7e 68       		.sleb128 -24
 8179 0f7f 00       		.byte	0
 8180 0f80 00       		.byte	0
 8181 0f81 00       		.byte	0
 8182 0f82 20       		.uleb128 0x20
 8183 0f83 6D090000 		.4byte	.LASF169
 8184 0f87 01       		.byte	0x1
 8185 0f88 B703     		.2byte	0x3b7
 8186 0f8a 8C000000 		.4byte	0x8c
 8187 0f8e B0080000 		.4byte	.LFB141
 8188 0f92 14000000 		.4byte	.LFE141-.LFB141
 8189 0f96 01       		.uleb128 0x1
 8190 0f97 9C       		.byte	0x9c
 8191 0f98 AC0F0000 		.4byte	0xfac
 8192 0f9c 18       		.uleb128 0x18
 8193 0f9d C20A0000 		.4byte	.LASF148
 8194 0fa1 01       		.byte	0x1
 8195 0fa2 B703     		.2byte	0x3b7
 8196 0fa4 26090000 		.4byte	0x926
 8197 0fa8 02       		.uleb128 0x2
 8198 0fa9 91       		.byte	0x91
 8199 0faa 7C       		.sleb128 -4
 8200 0fab 00       		.byte	0
 8201 0fac 20       		.uleb128 0x20
 8202 0fad 4F090000 		.4byte	.LASF170
 8203 0fb1 01       		.byte	0x1
 8204 0fb2 C303     		.2byte	0x3c3
 8205 0fb4 AD020000 		.4byte	0x2ad
 8206 0fb8 D0080000 		.4byte	.LFB142
 8207 0fbc 5E000000 		.4byte	.LFE142-.LFB142
 8208 0fc0 01       		.uleb128 0x1
 8209 0fc1 9C       		.byte	0x9c
 8210 0fc2 1F100000 		.4byte	0x101f
 8211 0fc6 18       		.uleb128 0x18
ARM GAS  /tmp/ccjyqKqb.s 			page 146


 8212 0fc7 C20A0000 		.4byte	.LASF148
 8213 0fcb 01       		.byte	0x1
 8214 0fcc C303     		.2byte	0x3c3
 8215 0fce 26090000 		.4byte	0x926
 8216 0fd2 02       		.uleb128 0x2
 8217 0fd3 91       		.byte	0x91
 8218 0fd4 6C       		.sleb128 -20
 8219 0fd5 18       		.uleb128 0x18
 8220 0fd6 FE0F0000 		.4byte	.LASF104
 8221 0fda 01       		.byte	0x1
 8222 0fdb C403     		.2byte	0x3c4
 8223 0fdd 97000000 		.4byte	0x97
 8224 0fe1 02       		.uleb128 0x2
 8225 0fe2 91       		.byte	0x91
 8226 0fe3 68       		.sleb128 -24
 8227 0fe4 1F       		.uleb128 0x1f
 8228 0fe5 F4100000 		.4byte	.LASF152
 8229 0fe9 01       		.byte	0x1
 8230 0fea C603     		.2byte	0x3c6
 8231 0fec AD020000 		.4byte	0x2ad
 8232 0ff0 02       		.uleb128 0x2
 8233 0ff1 91       		.byte	0x91
 8234 0ff2 7F       		.sleb128 -1
 8235 0ff3 1D       		.uleb128 0x1d
 8236 0ff4 1A080000 		.4byte	0x81a
 8237 0ff8 0E090000 		.4byte	.LBB111
 8238 0ffc 0A000000 		.4byte	.LBE111-.LBB111
 8239 1000 01       		.byte	0x1
 8240 1001 D603     		.2byte	0x3d6
 8241 1003 1A       		.uleb128 0x1a
 8242 1004 2B080000 		.4byte	0x82b
 8243 1008 02       		.uleb128 0x2
 8244 1009 91       		.byte	0x91
 8245 100a 78       		.sleb128 -8
 8246 100b 1B       		.uleb128 0x1b
 8247 100c 0E090000 		.4byte	.LBB112
 8248 1010 0A000000 		.4byte	.LBE112-.LBB112
 8249 1014 1C       		.uleb128 0x1c
 8250 1015 37080000 		.4byte	0x837
 8251 1019 02       		.uleb128 0x2
 8252 101a 91       		.byte	0x91
 8253 101b 74       		.sleb128 -12
 8254 101c 00       		.byte	0
 8255 101d 00       		.byte	0
 8256 101e 00       		.byte	0
 8257 101f 20       		.uleb128 0x20
 8258 1020 74120000 		.4byte	.LASF171
 8259 1024 01       		.byte	0x1
 8260 1025 F203     		.2byte	0x3f2
 8261 1027 64040000 		.4byte	0x464
 8262 102b 30090000 		.4byte	.LFB143
 8263 102f 10000000 		.4byte	.LFE143-.LFB143
 8264 1033 01       		.uleb128 0x1
 8265 1034 9C       		.byte	0x9c
 8266 1035 49100000 		.4byte	0x1049
 8267 1039 18       		.uleb128 0x18
 8268 103a C20A0000 		.4byte	.LASF148
ARM GAS  /tmp/ccjyqKqb.s 			page 147


 8269 103e 01       		.byte	0x1
 8270 103f F203     		.2byte	0x3f2
 8271 1041 26090000 		.4byte	0x926
 8272 1045 02       		.uleb128 0x2
 8273 1046 91       		.byte	0x91
 8274 1047 7C       		.sleb128 -4
 8275 1048 00       		.byte	0
 8276 1049 17       		.uleb128 0x17
 8277 104a 450C0000 		.4byte	.LASF172
 8278 104e 01       		.byte	0x1
 8279 104f 1004     		.2byte	0x410
 8280 1051 AD020000 		.4byte	0x2ad
 8281 1055 40090000 		.4byte	.LFB144
 8282 1059 C8010000 		.4byte	.LFE144-.LFB144
 8283 105d 01       		.uleb128 0x1
 8284 105e 9C       		.byte	0x9c
 8285 105f 9E100000 		.4byte	0x109e
 8286 1063 18       		.uleb128 0x18
 8287 1064 3A030000 		.4byte	.LASF173
 8288 1068 01       		.byte	0x1
 8289 1069 1004     		.2byte	0x410
 8290 106b 9E100000 		.4byte	0x109e
 8291 106f 02       		.uleb128 0x2
 8292 1070 91       		.byte	0x91
 8293 1071 6C       		.sleb128 -20
 8294 1072 1D       		.uleb128 0x1d
 8295 1073 1A080000 		.4byte	0x81a
 8296 1077 9E0A0000 		.4byte	.LBB113
 8297 107b 0A000000 		.4byte	.LBE113-.LBB113
 8298 107f 01       		.byte	0x1
 8299 1080 6704     		.2byte	0x467
 8300 1082 1A       		.uleb128 0x1a
 8301 1083 2B080000 		.4byte	0x82b
 8302 1087 02       		.uleb128 0x2
 8303 1088 91       		.byte	0x91
 8304 1089 74       		.sleb128 -12
 8305 108a 1B       		.uleb128 0x1b
 8306 108b 9E0A0000 		.4byte	.LBB114
 8307 108f 0A000000 		.4byte	.LBE114-.LBB114
 8308 1093 1C       		.uleb128 0x1c
 8309 1094 37080000 		.4byte	0x837
 8310 1098 02       		.uleb128 0x2
 8311 1099 91       		.byte	0x91
 8312 109a 70       		.sleb128 -16
 8313 109b 00       		.byte	0
 8314 109c 00       		.byte	0
 8315 109d 00       		.byte	0
 8316 109e 10       		.uleb128 0x10
 8317 109f 04       		.byte	0x4
 8318 10a0 B3070000 		.4byte	0x7b3
 8319 10a4 17       		.uleb128 0x17
 8320 10a5 B20E0000 		.4byte	.LASF174
 8321 10a9 01       		.byte	0x1
 8322 10aa 7E04     		.2byte	0x47e
 8323 10ac AD020000 		.4byte	0x2ad
 8324 10b0 100B0000 		.4byte	.LFB145
 8325 10b4 38000000 		.4byte	.LFE145-.LFB145
ARM GAS  /tmp/ccjyqKqb.s 			page 148


 8326 10b8 01       		.uleb128 0x1
 8327 10b9 9C       		.byte	0x9c
 8328 10ba CE100000 		.4byte	0x10ce
 8329 10be 18       		.uleb128 0x18
 8330 10bf 3A030000 		.4byte	.LASF173
 8331 10c3 01       		.byte	0x1
 8332 10c4 7E04     		.2byte	0x47e
 8333 10c6 9E100000 		.4byte	0x109e
 8334 10ca 02       		.uleb128 0x2
 8335 10cb 91       		.byte	0x91
 8336 10cc 74       		.sleb128 -12
 8337 10cd 00       		.byte	0
 8338 10ce 1E       		.uleb128 0x1e
 8339 10cf ED010000 		.4byte	.LASF175
 8340 10d3 01       		.byte	0x1
 8341 10d4 9A04     		.2byte	0x49a
 8342 10d6 500B0000 		.4byte	.LFB146
 8343 10da 08000000 		.4byte	.LFE146-.LFB146
 8344 10de 01       		.uleb128 0x1
 8345 10df 9C       		.byte	0x9c
 8346 10e0 F4100000 		.4byte	0x10f4
 8347 10e4 18       		.uleb128 0x18
 8348 10e5 3A030000 		.4byte	.LASF173
 8349 10e9 01       		.byte	0x1
 8350 10ea 9A04     		.2byte	0x49a
 8351 10ec 9E100000 		.4byte	0x109e
 8352 10f0 02       		.uleb128 0x2
 8353 10f1 91       		.byte	0x91
 8354 10f2 7C       		.sleb128 -4
 8355 10f3 00       		.byte	0
 8356 10f4 1E       		.uleb128 0x1e
 8357 10f5 4B0D0000 		.4byte	.LASF176
 8358 10f9 01       		.byte	0x1
 8359 10fa A904     		.2byte	0x4a9
 8360 10fc 600B0000 		.4byte	.LFB147
 8361 1100 08000000 		.4byte	.LFE147-.LFB147
 8362 1104 01       		.uleb128 0x1
 8363 1105 9C       		.byte	0x9c
 8364 1106 1A110000 		.4byte	0x111a
 8365 110a 18       		.uleb128 0x18
 8366 110b 3A030000 		.4byte	.LASF173
 8367 110f 01       		.byte	0x1
 8368 1110 A904     		.2byte	0x4a9
 8369 1112 9E100000 		.4byte	0x109e
 8370 1116 02       		.uleb128 0x2
 8371 1117 91       		.byte	0x91
 8372 1118 7C       		.sleb128 -4
 8373 1119 00       		.byte	0
 8374 111a 20       		.uleb128 0x20
 8375 111b 20120000 		.4byte	.LASF177
 8376 111f 01       		.byte	0x1
 8377 1120 CF04     		.2byte	0x4cf
 8378 1122 AD020000 		.4byte	0x2ad
 8379 1126 700B0000 		.4byte	.LFB148
 8380 112a 86000000 		.4byte	.LFE148-.LFB148
 8381 112e 01       		.uleb128 0x1
 8382 112f 9C       		.byte	0x9c
ARM GAS  /tmp/ccjyqKqb.s 			page 149


 8383 1130 71110000 		.4byte	0x1171
 8384 1134 18       		.uleb128 0x18
 8385 1135 3A030000 		.4byte	.LASF173
 8386 1139 01       		.byte	0x1
 8387 113a CF04     		.2byte	0x4cf
 8388 113c 9E100000 		.4byte	0x109e
 8389 1140 02       		.uleb128 0x2
 8390 1141 91       		.byte	0x91
 8391 1142 74       		.sleb128 -12
 8392 1143 18       		.uleb128 0x18
 8393 1144 140C0000 		.4byte	.LASF140
 8394 1148 01       		.byte	0x1
 8395 1149 D004     		.2byte	0x4d0
 8396 114b A2000000 		.4byte	0xa2
 8397 114f 02       		.uleb128 0x2
 8398 1150 91       		.byte	0x91
 8399 1151 70       		.sleb128 -16
 8400 1152 18       		.uleb128 0x18
 8401 1153 88010000 		.4byte	.LASF178
 8402 1157 01       		.byte	0x1
 8403 1158 D104     		.2byte	0x4d1
 8404 115a A2000000 		.4byte	0xa2
 8405 115e 02       		.uleb128 0x2
 8406 115f 91       		.byte	0x91
 8407 1160 6C       		.sleb128 -20
 8408 1161 1F       		.uleb128 0x1f
 8409 1162 F4100000 		.4byte	.LASF152
 8410 1166 01       		.byte	0x1
 8411 1167 D304     		.2byte	0x4d3
 8412 1169 AD020000 		.4byte	0x2ad
 8413 116d 02       		.uleb128 0x2
 8414 116e 91       		.byte	0x91
 8415 116f 7F       		.sleb128 -1
 8416 1170 00       		.byte	0
 8417 1171 17       		.uleb128 0x17
 8418 1172 C40C0000 		.4byte	.LASF179
 8419 1176 01       		.byte	0x1
 8420 1177 FC04     		.2byte	0x4fc
 8421 1179 AD020000 		.4byte	0x2ad
 8422 117d 000C0000 		.4byte	.LFB149
 8423 1181 62000000 		.4byte	.LFE149-.LFB149
 8424 1185 01       		.uleb128 0x1
 8425 1186 9C       		.byte	0x9c
 8426 1187 B9110000 		.4byte	0x11b9
 8427 118b 18       		.uleb128 0x18
 8428 118c 3A030000 		.4byte	.LASF173
 8429 1190 01       		.byte	0x1
 8430 1191 FC04     		.2byte	0x4fc
 8431 1193 9E100000 		.4byte	0x109e
 8432 1197 02       		.uleb128 0x2
 8433 1198 91       		.byte	0x91
 8434 1199 6C       		.sleb128 -20
 8435 119a 18       		.uleb128 0x18
 8436 119b 140C0000 		.4byte	.LASF140
 8437 119f 01       		.byte	0x1
 8438 11a0 FD04     		.2byte	0x4fd
 8439 11a2 A2000000 		.4byte	0xa2
ARM GAS  /tmp/ccjyqKqb.s 			page 150


 8440 11a6 02       		.uleb128 0x2
 8441 11a7 91       		.byte	0x91
 8442 11a8 68       		.sleb128 -24
 8443 11a9 1F       		.uleb128 0x1f
 8444 11aa F4100000 		.4byte	.LASF152
 8445 11ae 01       		.byte	0x1
 8446 11af FF04     		.2byte	0x4ff
 8447 11b1 AD020000 		.4byte	0x2ad
 8448 11b5 02       		.uleb128 0x2
 8449 11b6 91       		.byte	0x91
 8450 11b7 77       		.sleb128 -9
 8451 11b8 00       		.byte	0
 8452 11b9 17       		.uleb128 0x17
 8453 11ba 1B000000 		.4byte	.LASF180
 8454 11be 01       		.byte	0x1
 8455 11bf 4205     		.2byte	0x542
 8456 11c1 AD020000 		.4byte	0x2ad
 8457 11c5 700C0000 		.4byte	.LFB150
 8458 11c9 3A000000 		.4byte	.LFE150-.LFB150
 8459 11cd 01       		.uleb128 0x1
 8460 11ce 9C       		.byte	0x9c
 8461 11cf F2110000 		.4byte	0x11f2
 8462 11d3 18       		.uleb128 0x18
 8463 11d4 3A030000 		.4byte	.LASF173
 8464 11d8 01       		.byte	0x1
 8465 11d9 4205     		.2byte	0x542
 8466 11db 9E100000 		.4byte	0x109e
 8467 11df 02       		.uleb128 0x2
 8468 11e0 91       		.byte	0x91
 8469 11e1 6C       		.sleb128 -20
 8470 11e2 1F       		.uleb128 0x1f
 8471 11e3 F4100000 		.4byte	.LASF152
 8472 11e7 01       		.byte	0x1
 8473 11e8 4405     		.2byte	0x544
 8474 11ea AD020000 		.4byte	0x2ad
 8475 11ee 02       		.uleb128 0x2
 8476 11ef 91       		.byte	0x91
 8477 11f0 77       		.sleb128 -9
 8478 11f1 00       		.byte	0
 8479 11f2 17       		.uleb128 0x17
 8480 11f3 C8090000 		.4byte	.LASF181
 8481 11f7 01       		.byte	0x1
 8482 11f8 5F05     		.2byte	0x55f
 8483 11fa AD020000 		.4byte	0x2ad
 8484 11fe B00C0000 		.4byte	.LFB151
 8485 1202 AA000000 		.4byte	.LFE151-.LFB151
 8486 1206 01       		.uleb128 0x1
 8487 1207 9C       		.byte	0x9c
 8488 1208 3A120000 		.4byte	0x123a
 8489 120c 18       		.uleb128 0x18
 8490 120d 3A030000 		.4byte	.LASF173
 8491 1211 01       		.byte	0x1
 8492 1212 5F05     		.2byte	0x55f
 8493 1214 9E100000 		.4byte	0x109e
 8494 1218 02       		.uleb128 0x2
 8495 1219 91       		.byte	0x91
 8496 121a 6C       		.sleb128 -20
ARM GAS  /tmp/ccjyqKqb.s 			page 151


 8497 121b 18       		.uleb128 0x18
 8498 121c 9E0D0000 		.4byte	.LASF156
 8499 1220 01       		.byte	0x1
 8500 1221 6005     		.2byte	0x560
 8501 1223 A2000000 		.4byte	0xa2
 8502 1227 02       		.uleb128 0x2
 8503 1228 91       		.byte	0x91
 8504 1229 68       		.sleb128 -24
 8505 122a 1F       		.uleb128 0x1f
 8506 122b EE0C0000 		.4byte	.LASF154
 8507 122f 01       		.byte	0x1
 8508 1230 6205     		.2byte	0x562
 8509 1232 A2000000 		.4byte	0xa2
 8510 1236 02       		.uleb128 0x2
 8511 1237 91       		.byte	0x91
 8512 1238 74       		.sleb128 -12
 8513 1239 00       		.byte	0
 8514 123a 17       		.uleb128 0x17
 8515 123b 73070000 		.4byte	.LASF182
 8516 123f 01       		.byte	0x1
 8517 1240 9C05     		.2byte	0x59c
 8518 1242 AD020000 		.4byte	0x2ad
 8519 1246 600D0000 		.4byte	.LFB152
 8520 124a 3A000000 		.4byte	.LFE152-.LFB152
 8521 124e 01       		.uleb128 0x1
 8522 124f 9C       		.byte	0x9c
 8523 1250 73120000 		.4byte	0x1273
 8524 1254 18       		.uleb128 0x18
 8525 1255 3A030000 		.4byte	.LASF173
 8526 1259 01       		.byte	0x1
 8527 125a 9C05     		.2byte	0x59c
 8528 125c 9E100000 		.4byte	0x109e
 8529 1260 02       		.uleb128 0x2
 8530 1261 91       		.byte	0x91
 8531 1262 6C       		.sleb128 -20
 8532 1263 1F       		.uleb128 0x1f
 8533 1264 F4100000 		.4byte	.LASF152
 8534 1268 01       		.byte	0x1
 8535 1269 9E05     		.2byte	0x59e
 8536 126b AD020000 		.4byte	0x2ad
 8537 126f 02       		.uleb128 0x2
 8538 1270 91       		.byte	0x91
 8539 1271 77       		.sleb128 -9
 8540 1272 00       		.byte	0
 8541 1273 17       		.uleb128 0x17
 8542 1274 EE0A0000 		.4byte	.LASF183
 8543 1278 01       		.byte	0x1
 8544 1279 BA05     		.2byte	0x5ba
 8545 127b AD020000 		.4byte	0x2ad
 8546 127f A00D0000 		.4byte	.LFB153
 8547 1283 4A000000 		.4byte	.LFE153-.LFB153
 8548 1287 01       		.uleb128 0x1
 8549 1288 9C       		.byte	0x9c
 8550 1289 AC120000 		.4byte	0x12ac
 8551 128d 18       		.uleb128 0x18
 8552 128e 3A030000 		.4byte	.LASF173
 8553 1292 01       		.byte	0x1
ARM GAS  /tmp/ccjyqKqb.s 			page 152


 8554 1293 BA05     		.2byte	0x5ba
 8555 1295 9E100000 		.4byte	0x109e
 8556 1299 02       		.uleb128 0x2
 8557 129a 91       		.byte	0x91
 8558 129b 6C       		.sleb128 -20
 8559 129c 1F       		.uleb128 0x1f
 8560 129d F4100000 		.4byte	.LASF152
 8561 12a1 01       		.byte	0x1
 8562 12a2 BC05     		.2byte	0x5bc
 8563 12a4 AD020000 		.4byte	0x2ad
 8564 12a8 02       		.uleb128 0x2
 8565 12a9 91       		.byte	0x91
 8566 12aa 77       		.sleb128 -9
 8567 12ab 00       		.byte	0
 8568 12ac 17       		.uleb128 0x17
 8569 12ad 20060000 		.4byte	.LASF184
 8570 12b1 01       		.byte	0x1
 8571 12b2 D905     		.2byte	0x5d9
 8572 12b4 AD020000 		.4byte	0x2ad
 8573 12b8 F00D0000 		.4byte	.LFB154
 8574 12bc 4A000000 		.4byte	.LFE154-.LFB154
 8575 12c0 01       		.uleb128 0x1
 8576 12c1 9C       		.byte	0x9c
 8577 12c2 E5120000 		.4byte	0x12e5
 8578 12c6 18       		.uleb128 0x18
 8579 12c7 3A030000 		.4byte	.LASF173
 8580 12cb 01       		.byte	0x1
 8581 12cc D905     		.2byte	0x5d9
 8582 12ce 9E100000 		.4byte	0x109e
 8583 12d2 02       		.uleb128 0x2
 8584 12d3 91       		.byte	0x91
 8585 12d4 6C       		.sleb128 -20
 8586 12d5 1F       		.uleb128 0x1f
 8587 12d6 F4100000 		.4byte	.LASF152
 8588 12da 01       		.byte	0x1
 8589 12db DB05     		.2byte	0x5db
 8590 12dd AD020000 		.4byte	0x2ad
 8591 12e1 02       		.uleb128 0x2
 8592 12e2 91       		.byte	0x91
 8593 12e3 77       		.sleb128 -9
 8594 12e4 00       		.byte	0
 8595 12e5 17       		.uleb128 0x17
 8596 12e6 710D0000 		.4byte	.LASF185
 8597 12ea 01       		.byte	0x1
 8598 12eb FF05     		.2byte	0x5ff
 8599 12ed AD020000 		.4byte	0x2ad
 8600 12f1 400E0000 		.4byte	.LFB155
 8601 12f5 14010000 		.4byte	.LFE155-.LFB155
 8602 12f9 01       		.uleb128 0x1
 8603 12fa 9C       		.byte	0x9c
 8604 12fb 3C130000 		.4byte	0x133c
 8605 12ff 18       		.uleb128 0x18
 8606 1300 3A030000 		.4byte	.LASF173
 8607 1304 01       		.byte	0x1
 8608 1305 FF05     		.2byte	0x5ff
 8609 1307 9E100000 		.4byte	0x109e
 8610 130b 02       		.uleb128 0x2
ARM GAS  /tmp/ccjyqKqb.s 			page 153


 8611 130c 91       		.byte	0x91
 8612 130d 6C       		.sleb128 -20
 8613 130e 18       		.uleb128 0x18
 8614 130f E1050000 		.4byte	.LASF186
 8615 1313 01       		.byte	0x1
 8616 1314 0006     		.2byte	0x600
 8617 1316 3C130000 		.4byte	0x133c
 8618 131a 02       		.uleb128 0x2
 8619 131b 91       		.byte	0x91
 8620 131c 68       		.sleb128 -24
 8621 131d 18       		.uleb128 0x18
 8622 131e D30F0000 		.4byte	.LASF187
 8623 1322 01       		.byte	0x1
 8624 1323 0106     		.2byte	0x601
 8625 1325 A2000000 		.4byte	0xa2
 8626 1329 02       		.uleb128 0x2
 8627 132a 91       		.byte	0x91
 8628 132b 64       		.sleb128 -28
 8629 132c 1F       		.uleb128 0x1f
 8630 132d F4100000 		.4byte	.LASF152
 8631 1331 01       		.byte	0x1
 8632 1332 0306     		.2byte	0x603
 8633 1334 AD020000 		.4byte	0x2ad
 8634 1338 02       		.uleb128 0x2
 8635 1339 91       		.byte	0x91
 8636 133a 77       		.sleb128 -9
 8637 133b 00       		.byte	0
 8638 133c 10       		.uleb128 0x10
 8639 133d 04       		.byte	0x4
 8640 133e 97000000 		.4byte	0x97
 8641 1342 17       		.uleb128 0x17
 8642 1343 AF0F0000 		.4byte	.LASF188
 8643 1347 01       		.byte	0x1
 8644 1348 4C06     		.2byte	0x64c
 8645 134a AD020000 		.4byte	0x2ad
 8646 134e 600F0000 		.4byte	.LFB156
 8647 1352 14010000 		.4byte	.LFE156-.LFB156
 8648 1356 01       		.uleb128 0x1
 8649 1357 9C       		.byte	0x9c
 8650 1358 99130000 		.4byte	0x1399
 8651 135c 18       		.uleb128 0x18
 8652 135d 3A030000 		.4byte	.LASF173
 8653 1361 01       		.byte	0x1
 8654 1362 4C06     		.2byte	0x64c
 8655 1364 9E100000 		.4byte	0x109e
 8656 1368 02       		.uleb128 0x2
 8657 1369 91       		.byte	0x91
 8658 136a 6C       		.sleb128 -20
 8659 136b 18       		.uleb128 0x18
 8660 136c E1050000 		.4byte	.LASF186
 8661 1370 01       		.byte	0x1
 8662 1371 4D06     		.2byte	0x64d
 8663 1373 99130000 		.4byte	0x1399
 8664 1377 02       		.uleb128 0x2
 8665 1378 91       		.byte	0x91
 8666 1379 68       		.sleb128 -24
 8667 137a 18       		.uleb128 0x18
ARM GAS  /tmp/ccjyqKqb.s 			page 154


 8668 137b D30F0000 		.4byte	.LASF187
 8669 137f 01       		.byte	0x1
 8670 1380 4E06     		.2byte	0x64e
 8671 1382 A2000000 		.4byte	0xa2
 8672 1386 02       		.uleb128 0x2
 8673 1387 91       		.byte	0x91
 8674 1388 64       		.sleb128 -28
 8675 1389 1F       		.uleb128 0x1f
 8676 138a F4100000 		.4byte	.LASF152
 8677 138e 01       		.byte	0x1
 8678 138f 5006     		.2byte	0x650
 8679 1391 AD020000 		.4byte	0x2ad
 8680 1395 02       		.uleb128 0x2
 8681 1396 91       		.byte	0x91
 8682 1397 77       		.sleb128 -9
 8683 1398 00       		.byte	0
 8684 1399 10       		.uleb128 0x10
 8685 139a 04       		.byte	0x4
 8686 139b 8C000000 		.4byte	0x8c
 8687 139f 17       		.uleb128 0x17
 8688 13a0 AE0D0000 		.4byte	.LASF189
 8689 13a4 01       		.byte	0x1
 8690 13a5 9306     		.2byte	0x693
 8691 13a7 AD020000 		.4byte	0x2ad
 8692 13ab 80100000 		.4byte	.LFB157
 8693 13af 5A000000 		.4byte	.LFE157-.LFB157
 8694 13b3 01       		.uleb128 0x1
 8695 13b4 9C       		.byte	0x9c
 8696 13b5 D8130000 		.4byte	0x13d8
 8697 13b9 18       		.uleb128 0x18
 8698 13ba 3A030000 		.4byte	.LASF173
 8699 13be 01       		.byte	0x1
 8700 13bf 9306     		.2byte	0x693
 8701 13c1 9E100000 		.4byte	0x109e
 8702 13c5 02       		.uleb128 0x2
 8703 13c6 91       		.byte	0x91
 8704 13c7 6C       		.sleb128 -20
 8705 13c8 1F       		.uleb128 0x1f
 8706 13c9 F4100000 		.4byte	.LASF152
 8707 13cd 01       		.byte	0x1
 8708 13ce 9506     		.2byte	0x695
 8709 13d0 AD020000 		.4byte	0x2ad
 8710 13d4 02       		.uleb128 0x2
 8711 13d5 91       		.byte	0x91
 8712 13d6 77       		.sleb128 -9
 8713 13d7 00       		.byte	0
 8714 13d8 20       		.uleb128 0x20
 8715 13d9 AD040000 		.4byte	.LASF190
 8716 13dd 01       		.byte	0x1
 8717 13de BA06     		.2byte	0x6ba
 8718 13e0 97000000 		.4byte	0x97
 8719 13e4 E0100000 		.4byte	.LFB158
 8720 13e8 48000000 		.4byte	.LFE158-.LFB158
 8721 13ec 01       		.uleb128 0x1
 8722 13ed 9C       		.byte	0x9c
 8723 13ee 5A140000 		.4byte	0x145a
 8724 13f2 18       		.uleb128 0x18
ARM GAS  /tmp/ccjyqKqb.s 			page 155


 8725 13f3 3A030000 		.4byte	.LASF173
 8726 13f7 01       		.byte	0x1
 8727 13f8 BA06     		.2byte	0x6ba
 8728 13fa 9E100000 		.4byte	0x109e
 8729 13fe 02       		.uleb128 0x2
 8730 13ff 91       		.byte	0x91
 8731 1400 6C       		.sleb128 -20
 8732 1401 18       		.uleb128 0x18
 8733 1402 140C0000 		.4byte	.LASF140
 8734 1406 01       		.byte	0x1
 8735 1407 BB06     		.2byte	0x6bb
 8736 1409 5A140000 		.4byte	0x145a
 8737 140d 02       		.uleb128 0x2
 8738 140e 91       		.byte	0x91
 8739 140f 68       		.sleb128 -24
 8740 1410 21       		.uleb128 0x21
 8741 1411 72656700 		.ascii	"reg\000"
 8742 1415 01       		.byte	0x1
 8743 1416 BD06     		.2byte	0x6bd
 8744 1418 A2000000 		.4byte	0xa2
 8745 141c 02       		.uleb128 0x2
 8746 141d 91       		.byte	0x91
 8747 141e 7C       		.sleb128 -4
 8748 141f 1F       		.uleb128 0x1f
 8749 1420 84060000 		.4byte	.LASF191
 8750 1424 01       		.byte	0x1
 8751 1425 BE06     		.2byte	0x6be
 8752 1427 97000000 		.4byte	0x97
 8753 142b 02       		.uleb128 0x2
 8754 142c 91       		.byte	0x91
 8755 142d 78       		.sleb128 -8
 8756 142e 1D       		.uleb128 0x1d
 8757 142f 1A080000 		.4byte	0x81a
 8758 1433 0C110000 		.4byte	.LBB115
 8759 1437 0A000000 		.4byte	.LBE115-.LBB115
 8760 143b 01       		.byte	0x1
 8761 143c C906     		.2byte	0x6c9
 8762 143e 1A       		.uleb128 0x1a
 8763 143f 2B080000 		.4byte	0x82b
 8764 1443 02       		.uleb128 0x2
 8765 1444 91       		.byte	0x91
 8766 1445 74       		.sleb128 -12
 8767 1446 1B       		.uleb128 0x1b
 8768 1447 0C110000 		.4byte	.LBB116
 8769 144b 0A000000 		.4byte	.LBE116-.LBB116
 8770 144f 1C       		.uleb128 0x1c
 8771 1450 37080000 		.4byte	0x837
 8772 1454 02       		.uleb128 0x2
 8773 1455 91       		.byte	0x91
 8774 1456 70       		.sleb128 -16
 8775 1457 00       		.byte	0
 8776 1458 00       		.byte	0
 8777 1459 00       		.byte	0
 8778 145a 10       		.uleb128 0x10
 8779 145b 04       		.byte	0x4
 8780 145c A2000000 		.4byte	0xa2
 8781 1460 17       		.uleb128 0x17
ARM GAS  /tmp/ccjyqKqb.s 			page 156


 8782 1461 26100000 		.4byte	.LASF192
 8783 1465 01       		.byte	0x1
 8784 1466 D606     		.2byte	0x6d6
 8785 1468 AD020000 		.4byte	0x2ad
 8786 146c 30110000 		.4byte	.LFB159
 8787 1470 3A000000 		.4byte	.LFE159-.LFB159
 8788 1474 01       		.uleb128 0x1
 8789 1475 9C       		.byte	0x9c
 8790 1476 99140000 		.4byte	0x1499
 8791 147a 18       		.uleb128 0x18
 8792 147b 3A030000 		.4byte	.LASF173
 8793 147f 01       		.byte	0x1
 8794 1480 D606     		.2byte	0x6d6
 8795 1482 9E100000 		.4byte	0x109e
 8796 1486 02       		.uleb128 0x2
 8797 1487 91       		.byte	0x91
 8798 1488 6C       		.sleb128 -20
 8799 1489 1F       		.uleb128 0x1f
 8800 148a F4100000 		.4byte	.LASF152
 8801 148e 01       		.byte	0x1
 8802 148f D806     		.2byte	0x6d8
 8803 1491 AD020000 		.4byte	0x2ad
 8804 1495 02       		.uleb128 0x2
 8805 1496 91       		.byte	0x91
 8806 1497 77       		.sleb128 -9
 8807 1498 00       		.byte	0
 8808 1499 17       		.uleb128 0x17
 8809 149a 97010000 		.4byte	.LASF193
 8810 149e 01       		.byte	0x1
 8811 149f F306     		.2byte	0x6f3
 8812 14a1 AD020000 		.4byte	0x2ad
 8813 14a5 70110000 		.4byte	.LFB160
 8814 14a9 CA000000 		.4byte	.LFE160-.LFB160
 8815 14ad 01       		.uleb128 0x1
 8816 14ae 9C       		.byte	0x9c
 8817 14af E1140000 		.4byte	0x14e1
 8818 14b3 18       		.uleb128 0x18
 8819 14b4 3A030000 		.4byte	.LASF173
 8820 14b8 01       		.byte	0x1
 8821 14b9 F306     		.2byte	0x6f3
 8822 14bb 9E100000 		.4byte	0x109e
 8823 14bf 02       		.uleb128 0x2
 8824 14c0 91       		.byte	0x91
 8825 14c1 6C       		.sleb128 -20
 8826 14c2 18       		.uleb128 0x18
 8827 14c3 9E0D0000 		.4byte	.LASF156
 8828 14c7 01       		.byte	0x1
 8829 14c8 F406     		.2byte	0x6f4
 8830 14ca A2000000 		.4byte	0xa2
 8831 14ce 02       		.uleb128 0x2
 8832 14cf 91       		.byte	0x91
 8833 14d0 68       		.sleb128 -24
 8834 14d1 1F       		.uleb128 0x1f
 8835 14d2 EE0C0000 		.4byte	.LASF154
 8836 14d6 01       		.byte	0x1
 8837 14d7 F606     		.2byte	0x6f6
 8838 14d9 A2000000 		.4byte	0xa2
ARM GAS  /tmp/ccjyqKqb.s 			page 157


 8839 14dd 02       		.uleb128 0x2
 8840 14de 91       		.byte	0x91
 8841 14df 74       		.sleb128 -12
 8842 14e0 00       		.byte	0
 8843 14e1 17       		.uleb128 0x17
 8844 14e2 1C020000 		.4byte	.LASF194
 8845 14e6 01       		.byte	0x1
 8846 14e7 3A07     		.2byte	0x73a
 8847 14e9 AD020000 		.4byte	0x2ad
 8848 14ed 40120000 		.4byte	.LFB161
 8849 14f1 3A000000 		.4byte	.LFE161-.LFB161
 8850 14f5 01       		.uleb128 0x1
 8851 14f6 9C       		.byte	0x9c
 8852 14f7 1A150000 		.4byte	0x151a
 8853 14fb 18       		.uleb128 0x18
 8854 14fc 3A030000 		.4byte	.LASF173
 8855 1500 01       		.byte	0x1
 8856 1501 3A07     		.2byte	0x73a
 8857 1503 9E100000 		.4byte	0x109e
 8858 1507 02       		.uleb128 0x2
 8859 1508 91       		.byte	0x91
 8860 1509 6C       		.sleb128 -20
 8861 150a 1F       		.uleb128 0x1f
 8862 150b F4100000 		.4byte	.LASF152
 8863 150f 01       		.byte	0x1
 8864 1510 3C07     		.2byte	0x73c
 8865 1512 AD020000 		.4byte	0x2ad
 8866 1516 02       		.uleb128 0x2
 8867 1517 91       		.byte	0x91
 8868 1518 77       		.sleb128 -9
 8869 1519 00       		.byte	0
 8870 151a 17       		.uleb128 0x17
 8871 151b 670E0000 		.4byte	.LASF195
 8872 151f 01       		.byte	0x1
 8873 1520 5807     		.2byte	0x758
 8874 1522 AD020000 		.4byte	0x2ad
 8875 1526 80120000 		.4byte	.LFB162
 8876 152a 4A000000 		.4byte	.LFE162-.LFB162
 8877 152e 01       		.uleb128 0x1
 8878 152f 9C       		.byte	0x9c
 8879 1530 53150000 		.4byte	0x1553
 8880 1534 18       		.uleb128 0x18
 8881 1535 3A030000 		.4byte	.LASF173
 8882 1539 01       		.byte	0x1
 8883 153a 5807     		.2byte	0x758
 8884 153c 9E100000 		.4byte	0x109e
 8885 1540 02       		.uleb128 0x2
 8886 1541 91       		.byte	0x91
 8887 1542 6C       		.sleb128 -20
 8888 1543 1F       		.uleb128 0x1f
 8889 1544 F4100000 		.4byte	.LASF152
 8890 1548 01       		.byte	0x1
 8891 1549 5A07     		.2byte	0x75a
 8892 154b AD020000 		.4byte	0x2ad
 8893 154f 02       		.uleb128 0x2
 8894 1550 91       		.byte	0x91
 8895 1551 77       		.sleb128 -9
ARM GAS  /tmp/ccjyqKqb.s 			page 158


 8896 1552 00       		.byte	0
 8897 1553 17       		.uleb128 0x17
 8898 1554 25090000 		.4byte	.LASF196
 8899 1558 01       		.byte	0x1
 8900 1559 7707     		.2byte	0x777
 8901 155b AD020000 		.4byte	0x2ad
 8902 155f D0120000 		.4byte	.LFB163
 8903 1563 4A000000 		.4byte	.LFE163-.LFB163
 8904 1567 01       		.uleb128 0x1
 8905 1568 9C       		.byte	0x9c
 8906 1569 8C150000 		.4byte	0x158c
 8907 156d 18       		.uleb128 0x18
 8908 156e 3A030000 		.4byte	.LASF173
 8909 1572 01       		.byte	0x1
 8910 1573 7707     		.2byte	0x777
 8911 1575 9E100000 		.4byte	0x109e
 8912 1579 02       		.uleb128 0x2
 8913 157a 91       		.byte	0x91
 8914 157b 6C       		.sleb128 -20
 8915 157c 1F       		.uleb128 0x1f
 8916 157d F4100000 		.4byte	.LASF152
 8917 1581 01       		.byte	0x1
 8918 1582 7907     		.2byte	0x779
 8919 1584 AD020000 		.4byte	0x2ad
 8920 1588 02       		.uleb128 0x2
 8921 1589 91       		.byte	0x91
 8922 158a 77       		.sleb128 -9
 8923 158b 00       		.byte	0
 8924 158c 17       		.uleb128 0x17
 8925 158d 90030000 		.4byte	.LASF197
 8926 1591 01       		.byte	0x1
 8927 1592 9D07     		.2byte	0x79d
 8928 1594 AD020000 		.4byte	0x2ad
 8929 1598 20130000 		.4byte	.LFB164
 8930 159c 08010000 		.4byte	.LFE164-.LFB164
 8931 15a0 01       		.uleb128 0x1
 8932 15a1 9C       		.byte	0x9c
 8933 15a2 E3150000 		.4byte	0x15e3
 8934 15a6 18       		.uleb128 0x18
 8935 15a7 3A030000 		.4byte	.LASF173
 8936 15ab 01       		.byte	0x1
 8937 15ac 9D07     		.2byte	0x79d
 8938 15ae 9E100000 		.4byte	0x109e
 8939 15b2 02       		.uleb128 0x2
 8940 15b3 91       		.byte	0x91
 8941 15b4 6C       		.sleb128 -20
 8942 15b5 18       		.uleb128 0x18
 8943 15b6 E1050000 		.4byte	.LASF186
 8944 15ba 01       		.byte	0x1
 8945 15bb 9E07     		.2byte	0x79e
 8946 15bd 3C130000 		.4byte	0x133c
 8947 15c1 02       		.uleb128 0x2
 8948 15c2 91       		.byte	0x91
 8949 15c3 68       		.sleb128 -24
 8950 15c4 18       		.uleb128 0x18
 8951 15c5 D30F0000 		.4byte	.LASF187
 8952 15c9 01       		.byte	0x1
ARM GAS  /tmp/ccjyqKqb.s 			page 159


 8953 15ca 9F07     		.2byte	0x79f
 8954 15cc A2000000 		.4byte	0xa2
 8955 15d0 02       		.uleb128 0x2
 8956 15d1 91       		.byte	0x91
 8957 15d2 64       		.sleb128 -28
 8958 15d3 1F       		.uleb128 0x1f
 8959 15d4 F4100000 		.4byte	.LASF152
 8960 15d8 01       		.byte	0x1
 8961 15d9 A107     		.2byte	0x7a1
 8962 15db AD020000 		.4byte	0x2ad
 8963 15df 02       		.uleb128 0x2
 8964 15e0 91       		.byte	0x91
 8965 15e1 77       		.sleb128 -9
 8966 15e2 00       		.byte	0
 8967 15e3 17       		.uleb128 0x17
 8968 15e4 D90D0000 		.4byte	.LASF198
 8969 15e8 01       		.byte	0x1
 8970 15e9 E807     		.2byte	0x7e8
 8971 15eb AD020000 		.4byte	0x2ad
 8972 15ef 30140000 		.4byte	.LFB165
 8973 15f3 08010000 		.4byte	.LFE165-.LFB165
 8974 15f7 01       		.uleb128 0x1
 8975 15f8 9C       		.byte	0x9c
 8976 15f9 3A160000 		.4byte	0x163a
 8977 15fd 18       		.uleb128 0x18
 8978 15fe 3A030000 		.4byte	.LASF173
 8979 1602 01       		.byte	0x1
 8980 1603 E807     		.2byte	0x7e8
 8981 1605 9E100000 		.4byte	0x109e
 8982 1609 02       		.uleb128 0x2
 8983 160a 91       		.byte	0x91
 8984 160b 6C       		.sleb128 -20
 8985 160c 18       		.uleb128 0x18
 8986 160d E1050000 		.4byte	.LASF186
 8987 1611 01       		.byte	0x1
 8988 1612 E907     		.2byte	0x7e9
 8989 1614 99130000 		.4byte	0x1399
 8990 1618 02       		.uleb128 0x2
 8991 1619 91       		.byte	0x91
 8992 161a 68       		.sleb128 -24
 8993 161b 18       		.uleb128 0x18
 8994 161c D30F0000 		.4byte	.LASF187
 8995 1620 01       		.byte	0x1
 8996 1621 EA07     		.2byte	0x7ea
 8997 1623 A2000000 		.4byte	0xa2
 8998 1627 02       		.uleb128 0x2
 8999 1628 91       		.byte	0x91
 9000 1629 64       		.sleb128 -28
 9001 162a 1F       		.uleb128 0x1f
 9002 162b F4100000 		.4byte	.LASF152
 9003 162f 01       		.byte	0x1
 9004 1630 EC07     		.2byte	0x7ec
 9005 1632 AD020000 		.4byte	0x2ad
 9006 1636 02       		.uleb128 0x2
 9007 1637 91       		.byte	0x91
 9008 1638 77       		.sleb128 -9
 9009 1639 00       		.byte	0
ARM GAS  /tmp/ccjyqKqb.s 			page 160


 9010 163a 17       		.uleb128 0x17
 9011 163b E7050000 		.4byte	.LASF199
 9012 163f 01       		.byte	0x1
 9013 1640 2D08     		.2byte	0x82d
 9014 1642 AD020000 		.4byte	0x2ad
 9015 1646 40150000 		.4byte	.LFB166
 9016 164a 5A000000 		.4byte	.LFE166-.LFB166
 9017 164e 01       		.uleb128 0x1
 9018 164f 9C       		.byte	0x9c
 9019 1650 73160000 		.4byte	0x1673
 9020 1654 18       		.uleb128 0x18
 9021 1655 3A030000 		.4byte	.LASF173
 9022 1659 01       		.byte	0x1
 9023 165a 2D08     		.2byte	0x82d
 9024 165c 9E100000 		.4byte	0x109e
 9025 1660 02       		.uleb128 0x2
 9026 1661 91       		.byte	0x91
 9027 1662 6C       		.sleb128 -20
 9028 1663 1F       		.uleb128 0x1f
 9029 1664 F4100000 		.4byte	.LASF152
 9030 1668 01       		.byte	0x1
 9031 1669 2F08     		.2byte	0x82f
 9032 166b AD020000 		.4byte	0x2ad
 9033 166f 02       		.uleb128 0x2
 9034 1670 91       		.byte	0x91
 9035 1671 77       		.sleb128 -9
 9036 1672 00       		.byte	0
 9037 1673 20       		.uleb128 0x20
 9038 1674 05100000 		.4byte	.LASF200
 9039 1678 01       		.byte	0x1
 9040 1679 5408     		.2byte	0x854
 9041 167b 97000000 		.4byte	0x97
 9042 167f A0150000 		.4byte	.LFB167
 9043 1683 48000000 		.4byte	.LFE167-.LFB167
 9044 1687 01       		.uleb128 0x1
 9045 1688 9C       		.byte	0x9c
 9046 1689 F5160000 		.4byte	0x16f5
 9047 168d 18       		.uleb128 0x18
 9048 168e 3A030000 		.4byte	.LASF173
 9049 1692 01       		.byte	0x1
 9050 1693 5408     		.2byte	0x854
 9051 1695 9E100000 		.4byte	0x109e
 9052 1699 02       		.uleb128 0x2
 9053 169a 91       		.byte	0x91
 9054 169b 6C       		.sleb128 -20
 9055 169c 18       		.uleb128 0x18
 9056 169d 140C0000 		.4byte	.LASF140
 9057 16a1 01       		.byte	0x1
 9058 16a2 5508     		.2byte	0x855
 9059 16a4 5A140000 		.4byte	0x145a
 9060 16a8 02       		.uleb128 0x2
 9061 16a9 91       		.byte	0x91
 9062 16aa 68       		.sleb128 -24
 9063 16ab 21       		.uleb128 0x21
 9064 16ac 72656700 		.ascii	"reg\000"
 9065 16b0 01       		.byte	0x1
 9066 16b1 5708     		.2byte	0x857
ARM GAS  /tmp/ccjyqKqb.s 			page 161


 9067 16b3 A2000000 		.4byte	0xa2
 9068 16b7 02       		.uleb128 0x2
 9069 16b8 91       		.byte	0x91
 9070 16b9 7C       		.sleb128 -4
 9071 16ba 1F       		.uleb128 0x1f
 9072 16bb 84060000 		.4byte	.LASF191
 9073 16bf 01       		.byte	0x1
 9074 16c0 5808     		.2byte	0x858
 9075 16c2 97000000 		.4byte	0x97
 9076 16c6 02       		.uleb128 0x2
 9077 16c7 91       		.byte	0x91
 9078 16c8 78       		.sleb128 -8
 9079 16c9 1D       		.uleb128 0x1d
 9080 16ca 1A080000 		.4byte	0x81a
 9081 16ce CC150000 		.4byte	.LBB117
 9082 16d2 0A000000 		.4byte	.LBE117-.LBB117
 9083 16d6 01       		.byte	0x1
 9084 16d7 6308     		.2byte	0x863
 9085 16d9 1A       		.uleb128 0x1a
 9086 16da 2B080000 		.4byte	0x82b
 9087 16de 02       		.uleb128 0x2
 9088 16df 91       		.byte	0x91
 9089 16e0 74       		.sleb128 -12
 9090 16e1 1B       		.uleb128 0x1b
 9091 16e2 CC150000 		.4byte	.LBB118
 9092 16e6 0A000000 		.4byte	.LBE118-.LBB118
 9093 16ea 1C       		.uleb128 0x1c
 9094 16eb 37080000 		.4byte	0x837
 9095 16ef 02       		.uleb128 0x2
 9096 16f0 91       		.byte	0x91
 9097 16f1 70       		.sleb128 -16
 9098 16f2 00       		.byte	0
 9099 16f3 00       		.byte	0
 9100 16f4 00       		.byte	0
 9101 16f5 20       		.uleb128 0x20
 9102 16f6 0E0B0000 		.4byte	.LASF201
 9103 16fa 01       		.byte	0x1
 9104 16fb 6F08     		.2byte	0x86f
 9105 16fd AD020000 		.4byte	0x2ad
 9106 1701 F0150000 		.4byte	.LFB168
 9107 1705 14010000 		.4byte	.LFE168-.LFB168
 9108 1709 01       		.uleb128 0x1
 9109 170a 9C       		.byte	0x9c
 9110 170b C6170000 		.4byte	0x17c6
 9111 170f 18       		.uleb128 0x18
 9112 1710 3A030000 		.4byte	.LASF173
 9113 1714 01       		.byte	0x1
 9114 1715 6F08     		.2byte	0x86f
 9115 1717 9E100000 		.4byte	0x109e
 9116 171b 02       		.uleb128 0x2
 9117 171c 91       		.byte	0x91
 9118 171d 5C       		.sleb128 -36
 9119 171e 18       		.uleb128 0x18
 9120 171f 94050000 		.4byte	.LASF202
 9121 1723 01       		.byte	0x1
 9122 1724 7008     		.2byte	0x870
 9123 1726 C6170000 		.4byte	0x17c6
ARM GAS  /tmp/ccjyqKqb.s 			page 162


 9124 172a 02       		.uleb128 0x2
 9125 172b 91       		.byte	0x91
 9126 172c 58       		.sleb128 -40
 9127 172d 1F       		.uleb128 0x1f
 9128 172e F4100000 		.4byte	.LASF152
 9129 1732 01       		.byte	0x1
 9130 1733 7208     		.2byte	0x872
 9131 1735 AD020000 		.4byte	0x2ad
 9132 1739 02       		.uleb128 0x2
 9133 173a 91       		.byte	0x91
 9134 173b 7F       		.sleb128 -1
 9135 173c 19       		.uleb128 0x19
 9136 173d 1A080000 		.4byte	0x81a
 9137 1741 60160000 		.4byte	.LBB119
 9138 1745 0A000000 		.4byte	.LBE119-.LBB119
 9139 1749 01       		.byte	0x1
 9140 174a 8C08     		.2byte	0x88c
 9141 174c 6B170000 		.4byte	0x176b
 9142 1750 1A       		.uleb128 0x1a
 9143 1751 2B080000 		.4byte	0x82b
 9144 1755 02       		.uleb128 0x2
 9145 1756 91       		.byte	0x91
 9146 1757 78       		.sleb128 -8
 9147 1758 1B       		.uleb128 0x1b
 9148 1759 60160000 		.4byte	.LBB120
 9149 175d 0A000000 		.4byte	.LBE120-.LBB120
 9150 1761 1C       		.uleb128 0x1c
 9151 1762 37080000 		.4byte	0x837
 9152 1766 02       		.uleb128 0x2
 9153 1767 91       		.byte	0x91
 9154 1768 74       		.sleb128 -12
 9155 1769 00       		.byte	0
 9156 176a 00       		.byte	0
 9157 176b 19       		.uleb128 0x19
 9158 176c 1A080000 		.4byte	0x81a
 9159 1770 A0160000 		.4byte	.LBB121
 9160 1774 0A000000 		.4byte	.LBE121-.LBB121
 9161 1778 01       		.byte	0x1
 9162 1779 8F08     		.2byte	0x88f
 9163 177b 9A170000 		.4byte	0x179a
 9164 177f 1A       		.uleb128 0x1a
 9165 1780 2B080000 		.4byte	0x82b
 9166 1784 02       		.uleb128 0x2
 9167 1785 91       		.byte	0x91
 9168 1786 70       		.sleb128 -16
 9169 1787 1B       		.uleb128 0x1b
 9170 1788 A0160000 		.4byte	.LBB122
 9171 178c 0A000000 		.4byte	.LBE122-.LBB122
 9172 1790 1C       		.uleb128 0x1c
 9173 1791 37080000 		.4byte	0x837
 9174 1795 02       		.uleb128 0x2
 9175 1796 91       		.byte	0x91
 9176 1797 6C       		.sleb128 -20
 9177 1798 00       		.byte	0
 9178 1799 00       		.byte	0
 9179 179a 1D       		.uleb128 0x1d
 9180 179b 1A080000 		.4byte	0x81a
ARM GAS  /tmp/ccjyqKqb.s 			page 163


 9181 179f E0160000 		.4byte	.LBB123
 9182 17a3 0A000000 		.4byte	.LBE123-.LBB123
 9183 17a7 01       		.byte	0x1
 9184 17a8 9408     		.2byte	0x894
 9185 17aa 1A       		.uleb128 0x1a
 9186 17ab 2B080000 		.4byte	0x82b
 9187 17af 02       		.uleb128 0x2
 9188 17b0 91       		.byte	0x91
 9189 17b1 68       		.sleb128 -24
 9190 17b2 1B       		.uleb128 0x1b
 9191 17b3 E0160000 		.4byte	.LBB124
 9192 17b7 0A000000 		.4byte	.LBE124-.LBB124
 9193 17bb 1C       		.uleb128 0x1c
 9194 17bc 37080000 		.4byte	0x837
 9195 17c0 02       		.uleb128 0x2
 9196 17c1 91       		.byte	0x91
 9197 17c2 64       		.sleb128 -28
 9198 17c3 00       		.byte	0
 9199 17c4 00       		.byte	0
 9200 17c5 00       		.byte	0
 9201 17c6 10       		.uleb128 0x10
 9202 17c7 04       		.byte	0x4
 9203 17c8 0F080000 		.4byte	0x80f
 9204 17cc 20       		.uleb128 0x20
 9205 17cd 00000000 		.4byte	.LASF203
 9206 17d1 01       		.byte	0x1
 9207 17d2 A008     		.2byte	0x8a0
 9208 17d4 AD020000 		.4byte	0x2ad
 9209 17d8 10170000 		.4byte	.LFB169
 9210 17dc 7E000000 		.4byte	.LFE169-.LFB169
 9211 17e0 01       		.uleb128 0x1
 9212 17e1 9C       		.byte	0x9c
 9213 17e2 05180000 		.4byte	0x1805
 9214 17e6 18       		.uleb128 0x18
 9215 17e7 3A030000 		.4byte	.LASF173
 9216 17eb 01       		.byte	0x1
 9217 17ec A008     		.2byte	0x8a0
 9218 17ee 9E100000 		.4byte	0x109e
 9219 17f2 02       		.uleb128 0x2
 9220 17f3 91       		.byte	0x91
 9221 17f4 74       		.sleb128 -12
 9222 17f5 1F       		.uleb128 0x1f
 9223 17f6 F4100000 		.4byte	.LASF152
 9224 17fa 01       		.byte	0x1
 9225 17fb A208     		.2byte	0x8a2
 9226 17fd AD020000 		.4byte	0x2ad
 9227 1801 02       		.uleb128 0x2
 9228 1802 91       		.byte	0x91
 9229 1803 7F       		.sleb128 -1
 9230 1804 00       		.byte	0
 9231 1805 20       		.uleb128 0x20
 9232 1806 04040000 		.4byte	.LASF204
 9233 180a 01       		.byte	0x1
 9234 180b C808     		.2byte	0x8c8
 9235 180d AD020000 		.4byte	0x2ad
 9236 1811 90170000 		.4byte	.LFB170
 9237 1815 6C000000 		.4byte	.LFE170-.LFB170
ARM GAS  /tmp/ccjyqKqb.s 			page 164


 9238 1819 01       		.uleb128 0x1
 9239 181a 9C       		.byte	0x9c
 9240 181b 78180000 		.4byte	0x1878
 9241 181f 18       		.uleb128 0x18
 9242 1820 3A030000 		.4byte	.LASF173
 9243 1824 01       		.byte	0x1
 9244 1825 C808     		.2byte	0x8c8
 9245 1827 9E100000 		.4byte	0x109e
 9246 182b 02       		.uleb128 0x2
 9247 182c 91       		.byte	0x91
 9248 182d 6C       		.sleb128 -20
 9249 182e 18       		.uleb128 0x18
 9250 182f 140C0000 		.4byte	.LASF140
 9251 1833 01       		.byte	0x1
 9252 1834 C908     		.2byte	0x8c9
 9253 1836 A2000000 		.4byte	0xa2
 9254 183a 02       		.uleb128 0x2
 9255 183b 91       		.byte	0x91
 9256 183c 68       		.sleb128 -24
 9257 183d 1F       		.uleb128 0x1f
 9258 183e F4100000 		.4byte	.LASF152
 9259 1842 01       		.byte	0x1
 9260 1843 CB08     		.2byte	0x8cb
 9261 1845 AD020000 		.4byte	0x2ad
 9262 1849 02       		.uleb128 0x2
 9263 184a 91       		.byte	0x91
 9264 184b 7F       		.sleb128 -1
 9265 184c 1D       		.uleb128 0x1d
 9266 184d 1A080000 		.4byte	0x81a
 9267 1851 DC170000 		.4byte	.LBB125
 9268 1855 0A000000 		.4byte	.LBE125-.LBB125
 9269 1859 01       		.byte	0x1
 9270 185a DC08     		.2byte	0x8dc
 9271 185c 1A       		.uleb128 0x1a
 9272 185d 2B080000 		.4byte	0x82b
 9273 1861 02       		.uleb128 0x2
 9274 1862 91       		.byte	0x91
 9275 1863 78       		.sleb128 -8
 9276 1864 1B       		.uleb128 0x1b
 9277 1865 DC170000 		.4byte	.LBB126
 9278 1869 0A000000 		.4byte	.LBE126-.LBB126
 9279 186d 1C       		.uleb128 0x1c
 9280 186e 37080000 		.4byte	0x837
 9281 1872 02       		.uleb128 0x2
 9282 1873 91       		.byte	0x91
 9283 1874 74       		.sleb128 -12
 9284 1875 00       		.byte	0
 9285 1876 00       		.byte	0
 9286 1877 00       		.byte	0
 9287 1878 20       		.uleb128 0x20
 9288 1879 F9080000 		.4byte	.LASF205
 9289 187d 01       		.byte	0x1
 9290 187e E708     		.2byte	0x8e7
 9291 1880 AD020000 		.4byte	0x2ad
 9292 1884 00180000 		.4byte	.LFB171
 9293 1888 54000000 		.4byte	.LFE171-.LFB171
 9294 188c 01       		.uleb128 0x1
ARM GAS  /tmp/ccjyqKqb.s 			page 165


 9295 188d 9C       		.byte	0x9c
 9296 188e CF180000 		.4byte	0x18cf
 9297 1892 18       		.uleb128 0x18
 9298 1893 3A030000 		.4byte	.LASF173
 9299 1897 01       		.byte	0x1
 9300 1898 E708     		.2byte	0x8e7
 9301 189a 9E100000 		.4byte	0x109e
 9302 189e 02       		.uleb128 0x2
 9303 189f 91       		.byte	0x91
 9304 18a0 6C       		.sleb128 -20
 9305 18a1 1F       		.uleb128 0x1f
 9306 18a2 F4100000 		.4byte	.LASF152
 9307 18a6 01       		.byte	0x1
 9308 18a7 E908     		.2byte	0x8e9
 9309 18a9 AD020000 		.4byte	0x2ad
 9310 18ad 02       		.uleb128 0x2
 9311 18ae 91       		.byte	0x91
 9312 18af 7F       		.sleb128 -1
 9313 18b0 1F       		.uleb128 0x1f
 9314 18b1 CC0B0000 		.4byte	.LASF206
 9315 18b5 01       		.byte	0x1
 9316 18b6 EA08     		.2byte	0x8ea
 9317 18b8 B4000000 		.4byte	0xb4
 9318 18bc 02       		.uleb128 0x2
 9319 18bd 91       		.byte	0x91
 9320 18be 78       		.sleb128 -8
 9321 18bf 1F       		.uleb128 0x1f
 9322 18c0 D10B0000 		.4byte	.LASF207
 9323 18c4 01       		.byte	0x1
 9324 18c5 EB08     		.2byte	0x8eb
 9325 18c7 B4000000 		.4byte	0xb4
 9326 18cb 02       		.uleb128 0x2
 9327 18cc 91       		.byte	0x91
 9328 18cd 74       		.sleb128 -12
 9329 18ce 00       		.byte	0
 9330 18cf 20       		.uleb128 0x20
 9331 18d0 FD090000 		.4byte	.LASF208
 9332 18d4 01       		.byte	0x1
 9333 18d5 0D09     		.2byte	0x90d
 9334 18d7 97000000 		.4byte	0x97
 9335 18db 60180000 		.4byte	.LFB172
 9336 18df 48000000 		.4byte	.LFE172-.LFB172
 9337 18e3 01       		.uleb128 0x1
 9338 18e4 9C       		.byte	0x9c
 9339 18e5 51190000 		.4byte	0x1951
 9340 18e9 18       		.uleb128 0x18
 9341 18ea 3A030000 		.4byte	.LASF173
 9342 18ee 01       		.byte	0x1
 9343 18ef 0D09     		.2byte	0x90d
 9344 18f1 9E100000 		.4byte	0x109e
 9345 18f5 02       		.uleb128 0x2
 9346 18f6 91       		.byte	0x91
 9347 18f7 6C       		.sleb128 -20
 9348 18f8 18       		.uleb128 0x18
 9349 18f9 140C0000 		.4byte	.LASF140
 9350 18fd 01       		.byte	0x1
 9351 18fe 0E09     		.2byte	0x90e
ARM GAS  /tmp/ccjyqKqb.s 			page 166


 9352 1900 5A140000 		.4byte	0x145a
 9353 1904 02       		.uleb128 0x2
 9354 1905 91       		.byte	0x91
 9355 1906 68       		.sleb128 -24
 9356 1907 21       		.uleb128 0x21
 9357 1908 72656700 		.ascii	"reg\000"
 9358 190c 01       		.byte	0x1
 9359 190d 1009     		.2byte	0x910
 9360 190f A2000000 		.4byte	0xa2
 9361 1913 02       		.uleb128 0x2
 9362 1914 91       		.byte	0x91
 9363 1915 7C       		.sleb128 -4
 9364 1916 1F       		.uleb128 0x1f
 9365 1917 84060000 		.4byte	.LASF191
 9366 191b 01       		.byte	0x1
 9367 191c 1109     		.2byte	0x911
 9368 191e 97000000 		.4byte	0x97
 9369 1922 02       		.uleb128 0x2
 9370 1923 91       		.byte	0x91
 9371 1924 78       		.sleb128 -8
 9372 1925 1D       		.uleb128 0x1d
 9373 1926 1A080000 		.4byte	0x81a
 9374 192a 8C180000 		.4byte	.LBB127
 9375 192e 0A000000 		.4byte	.LBE127-.LBB127
 9376 1932 01       		.byte	0x1
 9377 1933 1C09     		.2byte	0x91c
 9378 1935 1A       		.uleb128 0x1a
 9379 1936 2B080000 		.4byte	0x82b
 9380 193a 02       		.uleb128 0x2
 9381 193b 91       		.byte	0x91
 9382 193c 74       		.sleb128 -12
 9383 193d 1B       		.uleb128 0x1b
 9384 193e 8C180000 		.4byte	.LBB128
 9385 1942 0A000000 		.4byte	.LBE128-.LBB128
 9386 1946 1C       		.uleb128 0x1c
 9387 1947 37080000 		.4byte	0x837
 9388 194b 02       		.uleb128 0x2
 9389 194c 91       		.byte	0x91
 9390 194d 70       		.sleb128 -16
 9391 194e 00       		.byte	0
 9392 194f 00       		.byte	0
 9393 1950 00       		.byte	0
 9394 1951 20       		.uleb128 0x20
 9395 1952 840A0000 		.4byte	.LASF209
 9396 1956 01       		.byte	0x1
 9397 1957 2909     		.2byte	0x929
 9398 1959 97000000 		.4byte	0x97
 9399 195d B0180000 		.4byte	.LFB173
 9400 1961 48000000 		.4byte	.LFE173-.LFB173
 9401 1965 01       		.uleb128 0x1
 9402 1966 9C       		.byte	0x9c
 9403 1967 D3190000 		.4byte	0x19d3
 9404 196b 18       		.uleb128 0x18
 9405 196c 3A030000 		.4byte	.LASF173
 9406 1970 01       		.byte	0x1
 9407 1971 2909     		.2byte	0x929
 9408 1973 9E100000 		.4byte	0x109e
ARM GAS  /tmp/ccjyqKqb.s 			page 167


 9409 1977 02       		.uleb128 0x2
 9410 1978 91       		.byte	0x91
 9411 1979 6C       		.sleb128 -20
 9412 197a 18       		.uleb128 0x18
 9413 197b 140C0000 		.4byte	.LASF140
 9414 197f 01       		.byte	0x1
 9415 1980 2A09     		.2byte	0x92a
 9416 1982 5A140000 		.4byte	0x145a
 9417 1986 02       		.uleb128 0x2
 9418 1987 91       		.byte	0x91
 9419 1988 68       		.sleb128 -24
 9420 1989 21       		.uleb128 0x21
 9421 198a 72656700 		.ascii	"reg\000"
 9422 198e 01       		.byte	0x1
 9423 198f 2C09     		.2byte	0x92c
 9424 1991 A2000000 		.4byte	0xa2
 9425 1995 02       		.uleb128 0x2
 9426 1996 91       		.byte	0x91
 9427 1997 7C       		.sleb128 -4
 9428 1998 1F       		.uleb128 0x1f
 9429 1999 84060000 		.4byte	.LASF191
 9430 199d 01       		.byte	0x1
 9431 199e 2D09     		.2byte	0x92d
 9432 19a0 97000000 		.4byte	0x97
 9433 19a4 02       		.uleb128 0x2
 9434 19a5 91       		.byte	0x91
 9435 19a6 78       		.sleb128 -8
 9436 19a7 1D       		.uleb128 0x1d
 9437 19a8 1A080000 		.4byte	0x81a
 9438 19ac DC180000 		.4byte	.LBB129
 9439 19b0 0A000000 		.4byte	.LBE129-.LBB129
 9440 19b4 01       		.byte	0x1
 9441 19b5 3809     		.2byte	0x938
 9442 19b7 1A       		.uleb128 0x1a
 9443 19b8 2B080000 		.4byte	0x82b
 9444 19bc 02       		.uleb128 0x2
 9445 19bd 91       		.byte	0x91
 9446 19be 74       		.sleb128 -12
 9447 19bf 1B       		.uleb128 0x1b
 9448 19c0 DC180000 		.4byte	.LBB130
 9449 19c4 0A000000 		.4byte	.LBE130-.LBB130
 9450 19c8 1C       		.uleb128 0x1c
 9451 19c9 37080000 		.4byte	0x837
 9452 19cd 02       		.uleb128 0x2
 9453 19ce 91       		.byte	0x91
 9454 19cf 70       		.sleb128 -16
 9455 19d0 00       		.byte	0
 9456 19d1 00       		.byte	0
 9457 19d2 00       		.byte	0
 9458 19d3 20       		.uleb128 0x20
 9459 19d4 38000000 		.4byte	.LASF210
 9460 19d8 01       		.byte	0x1
 9461 19d9 4409     		.2byte	0x944
 9462 19db A2000000 		.4byte	0xa2
 9463 19df 00190000 		.4byte	.LFB174
 9464 19e3 3C000000 		.4byte	.LFE174-.LFB174
 9465 19e7 01       		.uleb128 0x1
ARM GAS  /tmp/ccjyqKqb.s 			page 168


 9466 19e8 9C       		.byte	0x9c
 9467 19e9 461A0000 		.4byte	0x1a46
 9468 19ed 18       		.uleb128 0x18
 9469 19ee 3A030000 		.4byte	.LASF173
 9470 19f2 01       		.byte	0x1
 9471 19f3 4409     		.2byte	0x944
 9472 19f5 9E100000 		.4byte	0x109e
 9473 19f9 02       		.uleb128 0x2
 9474 19fa 91       		.byte	0x91
 9475 19fb 6C       		.sleb128 -20
 9476 19fc 21       		.uleb128 0x21
 9477 19fd 72656700 		.ascii	"reg\000"
 9478 1a01 01       		.byte	0x1
 9479 1a02 4609     		.2byte	0x946
 9480 1a04 A2000000 		.4byte	0xa2
 9481 1a08 02       		.uleb128 0x2
 9482 1a09 91       		.byte	0x91
 9483 1a0a 7C       		.sleb128 -4
 9484 1a0b 1F       		.uleb128 0x1f
 9485 1a0c 84060000 		.4byte	.LASF191
 9486 1a10 01       		.byte	0x1
 9487 1a11 4709     		.2byte	0x947
 9488 1a13 A2000000 		.4byte	0xa2
 9489 1a17 02       		.uleb128 0x2
 9490 1a18 91       		.byte	0x91
 9491 1a19 78       		.sleb128 -8
 9492 1a1a 1D       		.uleb128 0x1d
 9493 1a1b 1A080000 		.4byte	0x81a
 9494 1a1f 20190000 		.4byte	.LBB131
 9495 1a23 0A000000 		.4byte	.LBE131-.LBB131
 9496 1a27 01       		.byte	0x1
 9497 1a28 5009     		.2byte	0x950
 9498 1a2a 1A       		.uleb128 0x1a
 9499 1a2b 2B080000 		.4byte	0x82b
 9500 1a2f 02       		.uleb128 0x2
 9501 1a30 91       		.byte	0x91
 9502 1a31 74       		.sleb128 -12
 9503 1a32 1B       		.uleb128 0x1b
 9504 1a33 20190000 		.4byte	.LBB132
 9505 1a37 0A000000 		.4byte	.LBE132-.LBB132
 9506 1a3b 1C       		.uleb128 0x1c
 9507 1a3c 37080000 		.4byte	0x837
 9508 1a40 02       		.uleb128 0x2
 9509 1a41 91       		.byte	0x91
 9510 1a42 70       		.sleb128 -16
 9511 1a43 00       		.byte	0
 9512 1a44 00       		.byte	0
 9513 1a45 00       		.byte	0
 9514 1a46 22       		.uleb128 0x22
 9515 1a47 98090000 		.4byte	.LASF211
 9516 1a4b 01       		.byte	0x1
 9517 1a4c 5B09     		.2byte	0x95b
 9518 1a4e 40190000 		.4byte	.LFB175
 9519 1a52 74030000 		.4byte	.LFE175-.LFB175
 9520 1a56 01       		.uleb128 0x1
 9521 1a57 9C       		.byte	0x9c
 9522 1a58 0F1C0000 		.4byte	0x1c0f
ARM GAS  /tmp/ccjyqKqb.s 			page 169


 9523 1a5c 18       		.uleb128 0x18
 9524 1a5d 3A030000 		.4byte	.LASF173
 9525 1a61 01       		.byte	0x1
 9526 1a62 5B09     		.2byte	0x95b
 9527 1a64 9E100000 		.4byte	0x109e
 9528 1a68 03       		.uleb128 0x3
 9529 1a69 91       		.byte	0x91
 9530 1a6a A47F     		.sleb128 -92
 9531 1a6c 23       		.uleb128 0x23
 9532 1a6d 9E1A0000 		.4byte	.LBB133
 9533 1a71 A0000000 		.4byte	.LBE133-.LBB133
 9534 1a75 011B0000 		.4byte	0x1b01
 9535 1a79 21       		.uleb128 0x21
 9536 1a7a 72656700 		.ascii	"reg\000"
 9537 1a7e 01       		.byte	0x1
 9538 1a7f A809     		.2byte	0x9a8
 9539 1a81 A2000000 		.4byte	0xa2
 9540 1a85 02       		.uleb128 0x2
 9541 1a86 91       		.byte	0x91
 9542 1a87 74       		.sleb128 -12
 9543 1a88 1F       		.uleb128 0x1f
 9544 1a89 1C0C0000 		.4byte	.LASF212
 9545 1a8d 01       		.byte	0x1
 9546 1a8e A909     		.2byte	0x9a9
 9547 1a90 A2000000 		.4byte	0xa2
 9548 1a94 02       		.uleb128 0x2
 9549 1a95 91       		.byte	0x91
 9550 1a96 5C       		.sleb128 -36
 9551 1a97 1F       		.uleb128 0x1f
 9552 1a98 A60D0000 		.4byte	.LASF153
 9553 1a9c 01       		.byte	0x1
 9554 1a9d AA09     		.2byte	0x9aa
 9555 1a9f A2000000 		.4byte	0xa2
 9556 1aa3 02       		.uleb128 0x2
 9557 1aa4 91       		.byte	0x91
 9558 1aa5 70       		.sleb128 -16
 9559 1aa6 19       		.uleb128 0x19
 9560 1aa7 1A080000 		.4byte	0x81a
 9561 1aab CE1A0000 		.4byte	.LBB134
 9562 1aaf 0A000000 		.4byte	.LBE134-.LBB134
 9563 1ab3 01       		.byte	0x1
 9564 1ab4 B109     		.2byte	0x9b1
 9565 1ab6 D51A0000 		.4byte	0x1ad5
 9566 1aba 1A       		.uleb128 0x1a
 9567 1abb 2B080000 		.4byte	0x82b
 9568 1abf 02       		.uleb128 0x2
 9569 1ac0 91       		.byte	0x91
 9570 1ac1 58       		.sleb128 -40
 9571 1ac2 1B       		.uleb128 0x1b
 9572 1ac3 CE1A0000 		.4byte	.LBB135
 9573 1ac7 0A000000 		.4byte	.LBE135-.LBB135
 9574 1acb 1C       		.uleb128 0x1c
 9575 1acc 37080000 		.4byte	0x837
 9576 1ad0 02       		.uleb128 0x2
 9577 1ad1 91       		.byte	0x91
 9578 1ad2 54       		.sleb128 -44
 9579 1ad3 00       		.byte	0
ARM GAS  /tmp/ccjyqKqb.s 			page 170


 9580 1ad4 00       		.byte	0
 9581 1ad5 1D       		.uleb128 0x1d
 9582 1ad6 1A080000 		.4byte	0x81a
 9583 1ada 0E1B0000 		.4byte	.LBB136
 9584 1ade 0A000000 		.4byte	.LBE136-.LBB136
 9585 1ae2 01       		.byte	0x1
 9586 1ae3 BA09     		.2byte	0x9ba
 9587 1ae5 1A       		.uleb128 0x1a
 9588 1ae6 2B080000 		.4byte	0x82b
 9589 1aea 02       		.uleb128 0x2
 9590 1aeb 91       		.byte	0x91
 9591 1aec 50       		.sleb128 -48
 9592 1aed 1B       		.uleb128 0x1b
 9593 1aee 0E1B0000 		.4byte	.LBB137
 9594 1af2 0A000000 		.4byte	.LBE137-.LBB137
 9595 1af6 1C       		.uleb128 0x1c
 9596 1af7 37080000 		.4byte	0x837
 9597 1afb 02       		.uleb128 0x2
 9598 1afc 91       		.byte	0x91
 9599 1afd 4C       		.sleb128 -52
 9600 1afe 00       		.byte	0
 9601 1aff 00       		.byte	0
 9602 1b00 00       		.byte	0
 9603 1b01 23       		.uleb128 0x23
 9604 1b02 661B0000 		.4byte	.LBB138
 9605 1b06 9E000000 		.4byte	.LBE138-.LBB138
 9606 1b0a 881B0000 		.4byte	0x1b88
 9607 1b0e 21       		.uleb128 0x21
 9608 1b0f 72656700 		.ascii	"reg\000"
 9609 1b13 01       		.byte	0x1
 9610 1b14 C509     		.2byte	0x9c5
 9611 1b16 A2000000 		.4byte	0xa2
 9612 1b1a 02       		.uleb128 0x2
 9613 1b1b 91       		.byte	0x91
 9614 1b1c 6C       		.sleb128 -20
 9615 1b1d 1F       		.uleb128 0x1f
 9616 1b1e A60D0000 		.4byte	.LASF153
 9617 1b22 01       		.byte	0x1
 9618 1b23 C609     		.2byte	0x9c6
 9619 1b25 A2000000 		.4byte	0xa2
 9620 1b29 02       		.uleb128 0x2
 9621 1b2a 91       		.byte	0x91
 9622 1b2b 68       		.sleb128 -24
 9623 1b2c 19       		.uleb128 0x19
 9624 1b2d 1A080000 		.4byte	0x81a
 9625 1b31 7E1B0000 		.4byte	.LBB139
 9626 1b35 0A000000 		.4byte	.LBE139-.LBB139
 9627 1b39 01       		.byte	0x1
 9628 1b3a C809     		.2byte	0x9c8
 9629 1b3c 5B1B0000 		.4byte	0x1b5b
 9630 1b40 1A       		.uleb128 0x1a
 9631 1b41 2B080000 		.4byte	0x82b
 9632 1b45 02       		.uleb128 0x2
 9633 1b46 91       		.byte	0x91
 9634 1b47 48       		.sleb128 -56
 9635 1b48 1B       		.uleb128 0x1b
 9636 1b49 7E1B0000 		.4byte	.LBB140
ARM GAS  /tmp/ccjyqKqb.s 			page 171


 9637 1b4d 0A000000 		.4byte	.LBE140-.LBB140
 9638 1b51 1C       		.uleb128 0x1c
 9639 1b52 37080000 		.4byte	0x837
 9640 1b56 02       		.uleb128 0x2
 9641 1b57 91       		.byte	0x91
 9642 1b58 44       		.sleb128 -60
 9643 1b59 00       		.byte	0
 9644 1b5a 00       		.byte	0
 9645 1b5b 1D       		.uleb128 0x1d
 9646 1b5c 1A080000 		.4byte	0x81a
 9647 1b60 C81B0000 		.4byte	.LBB141
 9648 1b64 0A000000 		.4byte	.LBE141-.LBB141
 9649 1b68 01       		.byte	0x1
 9650 1b69 D309     		.2byte	0x9d3
 9651 1b6b 1A       		.uleb128 0x1a
 9652 1b6c 2B080000 		.4byte	0x82b
 9653 1b70 02       		.uleb128 0x2
 9654 1b71 91       		.byte	0x91
 9655 1b72 40       		.sleb128 -64
 9656 1b73 1B       		.uleb128 0x1b
 9657 1b74 C81B0000 		.4byte	.LBB142
 9658 1b78 0A000000 		.4byte	.LBE142-.LBB142
 9659 1b7c 1C       		.uleb128 0x1c
 9660 1b7d 37080000 		.4byte	0x837
 9661 1b81 03       		.uleb128 0x3
 9662 1b82 91       		.byte	0x91
 9663 1b83 BC7F     		.sleb128 -68
 9664 1b85 00       		.byte	0
 9665 1b86 00       		.byte	0
 9666 1b87 00       		.byte	0
 9667 1b88 1B       		.uleb128 0x1b
 9668 1b89 2C1C0000 		.4byte	.LBB143
 9669 1b8d 78000000 		.4byte	.LBE143-.LBB143
 9670 1b91 21       		.uleb128 0x21
 9671 1b92 72656700 		.ascii	"reg\000"
 9672 1b96 01       		.byte	0x1
 9673 1b97 E209     		.2byte	0x9e2
 9674 1b99 A2000000 		.4byte	0xa2
 9675 1b9d 02       		.uleb128 0x2
 9676 1b9e 91       		.byte	0x91
 9677 1b9f 64       		.sleb128 -28
 9678 1ba0 1F       		.uleb128 0x1f
 9679 1ba1 A60D0000 		.4byte	.LASF153
 9680 1ba5 01       		.byte	0x1
 9681 1ba6 E309     		.2byte	0x9e3
 9682 1ba8 A2000000 		.4byte	0xa2
 9683 1bac 02       		.uleb128 0x2
 9684 1bad 91       		.byte	0x91
 9685 1bae 60       		.sleb128 -32
 9686 1baf 19       		.uleb128 0x19
 9687 1bb0 1A080000 		.4byte	0x81a
 9688 1bb4 441C0000 		.4byte	.LBB144
 9689 1bb8 0A000000 		.4byte	.LBE144-.LBB144
 9690 1bbc 01       		.byte	0x1
 9691 1bbd E609     		.2byte	0x9e6
 9692 1bbf E01B0000 		.4byte	0x1be0
 9693 1bc3 1A       		.uleb128 0x1a
ARM GAS  /tmp/ccjyqKqb.s 			page 172


 9694 1bc4 2B080000 		.4byte	0x82b
 9695 1bc8 03       		.uleb128 0x3
 9696 1bc9 91       		.byte	0x91
 9697 1bca B87F     		.sleb128 -72
 9698 1bcc 1B       		.uleb128 0x1b
 9699 1bcd 441C0000 		.4byte	.LBB145
 9700 1bd1 0A000000 		.4byte	.LBE145-.LBB145
 9701 1bd5 1C       		.uleb128 0x1c
 9702 1bd6 37080000 		.4byte	0x837
 9703 1bda 03       		.uleb128 0x3
 9704 1bdb 91       		.byte	0x91
 9705 1bdc B47F     		.sleb128 -76
 9706 1bde 00       		.byte	0
 9707 1bdf 00       		.byte	0
 9708 1be0 1D       		.uleb128 0x1d
 9709 1be1 1A080000 		.4byte	0x81a
 9710 1be5 7A1C0000 		.4byte	.LBB146
 9711 1be9 0A000000 		.4byte	.LBE146-.LBB146
 9712 1bed 01       		.byte	0x1
 9713 1bee EE09     		.2byte	0x9ee
 9714 1bf0 1A       		.uleb128 0x1a
 9715 1bf1 2B080000 		.4byte	0x82b
 9716 1bf5 03       		.uleb128 0x3
 9717 1bf6 91       		.byte	0x91
 9718 1bf7 B07F     		.sleb128 -80
 9719 1bf9 1B       		.uleb128 0x1b
 9720 1bfa 7A1C0000 		.4byte	.LBB147
 9721 1bfe 0A000000 		.4byte	.LBE147-.LBB147
 9722 1c02 1C       		.uleb128 0x1c
 9723 1c03 37080000 		.4byte	0x837
 9724 1c07 03       		.uleb128 0x3
 9725 1c08 91       		.byte	0x91
 9726 1c09 AC7F     		.sleb128 -84
 9727 1c0b 00       		.byte	0
 9728 1c0c 00       		.byte	0
 9729 1c0d 00       		.byte	0
 9730 1c0e 00       		.byte	0
 9731 1c0f 1E       		.uleb128 0x1e
 9732 1c10 AA020000 		.4byte	.LASF213
 9733 1c14 01       		.byte	0x1
 9734 1c15 FC09     		.2byte	0x9fc
 9735 1c17 C01C0000 		.4byte	.LFB176
 9736 1c1b 08000000 		.4byte	.LFE176-.LFB176
 9737 1c1f 01       		.uleb128 0x1
 9738 1c20 9C       		.byte	0x9c
 9739 1c21 351C0000 		.4byte	0x1c35
 9740 1c25 18       		.uleb128 0x18
 9741 1c26 3A030000 		.4byte	.LASF173
 9742 1c2a 01       		.byte	0x1
 9743 1c2b FC09     		.2byte	0x9fc
 9744 1c2d 9E100000 		.4byte	0x109e
 9745 1c31 02       		.uleb128 0x2
 9746 1c32 91       		.byte	0x91
 9747 1c33 7C       		.sleb128 -4
 9748 1c34 00       		.byte	0
 9749 1c35 1E       		.uleb128 0x1e
 9750 1c36 13080000 		.4byte	.LASF214
ARM GAS  /tmp/ccjyqKqb.s 			page 173


 9751 1c3a 01       		.byte	0x1
 9752 1c3b 0B0A     		.2byte	0xa0b
 9753 1c3d D01C0000 		.4byte	.LFB177
 9754 1c41 08000000 		.4byte	.LFE177-.LFB177
 9755 1c45 01       		.uleb128 0x1
 9756 1c46 9C       		.byte	0x9c
 9757 1c47 5B1C0000 		.4byte	0x1c5b
 9758 1c4b 18       		.uleb128 0x18
 9759 1c4c 3A030000 		.4byte	.LASF173
 9760 1c50 01       		.byte	0x1
 9761 1c51 0B0A     		.2byte	0xa0b
 9762 1c53 9E100000 		.4byte	0x109e
 9763 1c57 02       		.uleb128 0x2
 9764 1c58 91       		.byte	0x91
 9765 1c59 7C       		.sleb128 -4
 9766 1c5a 00       		.byte	0
 9767 1c5b 1E       		.uleb128 0x1e
 9768 1c5c 98070000 		.4byte	.LASF215
 9769 1c60 01       		.byte	0x1
 9770 1c61 1C0A     		.2byte	0xa1c
 9771 1c63 E01C0000 		.4byte	.LFB178
 9772 1c67 08000000 		.4byte	.LFE178-.LFB178
 9773 1c6b 01       		.uleb128 0x1
 9774 1c6c 9C       		.byte	0x9c
 9775 1c6d 811C0000 		.4byte	0x1c81
 9776 1c71 18       		.uleb128 0x18
 9777 1c72 3A030000 		.4byte	.LASF173
 9778 1c76 01       		.byte	0x1
 9779 1c77 1C0A     		.2byte	0xa1c
 9780 1c79 9E100000 		.4byte	0x109e
 9781 1c7d 02       		.uleb128 0x2
 9782 1c7e 91       		.byte	0x91
 9783 1c7f 7C       		.sleb128 -4
 9784 1c80 00       		.byte	0
 9785 1c81 1E       		.uleb128 0x1e
 9786 1c82 BC010000 		.4byte	.LASF216
 9787 1c86 01       		.byte	0x1
 9788 1c87 2B0A     		.2byte	0xa2b
 9789 1c89 F01C0000 		.4byte	.LFB179
 9790 1c8d 08000000 		.4byte	.LFE179-.LFB179
 9791 1c91 01       		.uleb128 0x1
 9792 1c92 9C       		.byte	0x9c
 9793 1c93 A71C0000 		.4byte	0x1ca7
 9794 1c97 18       		.uleb128 0x18
 9795 1c98 3A030000 		.4byte	.LASF173
 9796 1c9c 01       		.byte	0x1
 9797 1c9d 2B0A     		.2byte	0xa2b
 9798 1c9f 9E100000 		.4byte	0x109e
 9799 1ca3 02       		.uleb128 0x2
 9800 1ca4 91       		.byte	0x91
 9801 1ca5 7C       		.sleb128 -4
 9802 1ca6 00       		.byte	0
 9803 1ca7 1E       		.uleb128 0x1e
 9804 1ca8 6D0B0000 		.4byte	.LASF217
 9805 1cac 01       		.byte	0x1
 9806 1cad 3C0A     		.2byte	0xa3c
 9807 1caf 001D0000 		.4byte	.LFB180
ARM GAS  /tmp/ccjyqKqb.s 			page 174


 9808 1cb3 0C000000 		.4byte	.LFE180-.LFB180
 9809 1cb7 01       		.uleb128 0x1
 9810 1cb8 9C       		.byte	0x9c
 9811 1cb9 EB1C0000 		.4byte	0x1ceb
 9812 1cbd 18       		.uleb128 0x18
 9813 1cbe 3A030000 		.4byte	.LASF173
 9814 1cc2 01       		.byte	0x1
 9815 1cc3 3C0A     		.2byte	0xa3c
 9816 1cc5 9E100000 		.4byte	0x109e
 9817 1cc9 02       		.uleb128 0x2
 9818 1cca 91       		.byte	0x91
 9819 1ccb 7C       		.sleb128 -4
 9820 1ccc 18       		.uleb128 0x18
 9821 1ccd 140C0000 		.4byte	.LASF140
 9822 1cd1 01       		.byte	0x1
 9823 1cd2 3D0A     		.2byte	0xa3d
 9824 1cd4 A2000000 		.4byte	0xa2
 9825 1cd8 02       		.uleb128 0x2
 9826 1cd9 91       		.byte	0x91
 9827 1cda 78       		.sleb128 -8
 9828 1cdb 18       		.uleb128 0x18
 9829 1cdc 58100000 		.4byte	.LASF162
 9830 1ce0 01       		.byte	0x1
 9831 1ce1 3D0A     		.2byte	0xa3d
 9832 1ce3 A2000000 		.4byte	0xa2
 9833 1ce7 02       		.uleb128 0x2
 9834 1ce8 91       		.byte	0x91
 9835 1ce9 74       		.sleb128 -12
 9836 1cea 00       		.byte	0
 9837 1ceb 1E       		.uleb128 0x1e
 9838 1cec F80C0000 		.4byte	.LASF218
 9839 1cf0 01       		.byte	0x1
 9840 1cf1 4E0A     		.2byte	0xa4e
 9841 1cf3 101D0000 		.4byte	.LFB181
 9842 1cf7 08000000 		.4byte	.LFE181-.LFB181
 9843 1cfb 01       		.uleb128 0x1
 9844 1cfc 9C       		.byte	0x9c
 9845 1cfd 111D0000 		.4byte	0x1d11
 9846 1d01 18       		.uleb128 0x18
 9847 1d02 3A030000 		.4byte	.LASF173
 9848 1d06 01       		.byte	0x1
 9849 1d07 4E0A     		.2byte	0xa4e
 9850 1d09 9E100000 		.4byte	0x109e
 9851 1d0d 02       		.uleb128 0x2
 9852 1d0e 91       		.byte	0x91
 9853 1d0f 7C       		.sleb128 -4
 9854 1d10 00       		.byte	0
 9855 1d11 20       		.uleb128 0x20
 9856 1d12 5B040000 		.4byte	.LASF219
 9857 1d16 01       		.byte	0x1
 9858 1d17 6F0A     		.2byte	0xa6f
 9859 1d19 FF050000 		.4byte	0x5ff
 9860 1d1d 201D0000 		.4byte	.LFB182
 9861 1d21 10000000 		.4byte	.LFE182-.LFB182
 9862 1d25 01       		.uleb128 0x1
 9863 1d26 9C       		.byte	0x9c
 9864 1d27 3B1D0000 		.4byte	0x1d3b
ARM GAS  /tmp/ccjyqKqb.s 			page 175


 9865 1d2b 18       		.uleb128 0x18
 9866 1d2c 3A030000 		.4byte	.LASF173
 9867 1d30 01       		.byte	0x1
 9868 1d31 6F0A     		.2byte	0xa6f
 9869 1d33 9E100000 		.4byte	0x109e
 9870 1d37 02       		.uleb128 0x2
 9871 1d38 91       		.byte	0x91
 9872 1d39 7C       		.sleb128 -4
 9873 1d3a 00       		.byte	0
 9874 1d3b 20       		.uleb128 0x20
 9875 1d3c 6D110000 		.4byte	.LASF220
 9876 1d40 01       		.byte	0x1
 9877 1d41 7A0A     		.2byte	0xa7a
 9878 1d43 A2000000 		.4byte	0xa2
 9879 1d47 301D0000 		.4byte	.LFB183
 9880 1d4b 0E000000 		.4byte	.LFE183-.LFB183
 9881 1d4f 01       		.uleb128 0x1
 9882 1d50 9C       		.byte	0x9c
 9883 1d51 651D0000 		.4byte	0x1d65
 9884 1d55 18       		.uleb128 0x18
 9885 1d56 3A030000 		.4byte	.LASF173
 9886 1d5a 01       		.byte	0x1
 9887 1d5b 7A0A     		.2byte	0xa7a
 9888 1d5d 9E100000 		.4byte	0x109e
 9889 1d61 02       		.uleb128 0x2
 9890 1d62 91       		.byte	0x91
 9891 1d63 7C       		.sleb128 -4
 9892 1d64 00       		.byte	0
 9893 1d65 24       		.uleb128 0x24
 9894 1d66 F70B0000 		.4byte	.LASF222
 9895 1d6a 01       		.byte	0x1
 9896 1d6b 920A     		.2byte	0xa92
 9897 1d6d 401D0000 		.4byte	.LFB184
 9898 1d71 18000000 		.4byte	.LFE184-.LFB184
 9899 1d75 01       		.uleb128 0x1
 9900 1d76 9C       		.byte	0x9c
 9901 1d77 9A1D0000 		.4byte	0x1d9a
 9902 1d7b 18       		.uleb128 0x18
 9903 1d7c 4A090000 		.4byte	.LASF221
 9904 1d80 01       		.byte	0x1
 9905 1d81 920A     		.2byte	0xa92
 9906 1d83 AD070000 		.4byte	0x7ad
 9907 1d87 02       		.uleb128 0x2
 9908 1d88 91       		.byte	0x91
 9909 1d89 6C       		.sleb128 -20
 9910 1d8a 1F       		.uleb128 0x1f
 9911 1d8b 3A030000 		.4byte	.LASF173
 9912 1d8f 01       		.byte	0x1
 9913 1d90 950A     		.2byte	0xa95
 9914 1d92 9E100000 		.4byte	0x109e
 9915 1d96 02       		.uleb128 0x2
 9916 1d97 91       		.byte	0x91
 9917 1d98 74       		.sleb128 -12
 9918 1d99 00       		.byte	0
 9919 1d9a 24       		.uleb128 0x24
 9920 1d9b C4110000 		.4byte	.LASF223
 9921 1d9f 01       		.byte	0x1
ARM GAS  /tmp/ccjyqKqb.s 			page 176


 9922 1da0 A00A     		.2byte	0xaa0
 9923 1da2 601D0000 		.4byte	.LFB185
 9924 1da6 18000000 		.4byte	.LFE185-.LFB185
 9925 1daa 01       		.uleb128 0x1
 9926 1dab 9C       		.byte	0x9c
 9927 1dac CF1D0000 		.4byte	0x1dcf
 9928 1db0 18       		.uleb128 0x18
 9929 1db1 4A090000 		.4byte	.LASF221
 9930 1db5 01       		.byte	0x1
 9931 1db6 A00A     		.2byte	0xaa0
 9932 1db8 AD070000 		.4byte	0x7ad
 9933 1dbc 02       		.uleb128 0x2
 9934 1dbd 91       		.byte	0x91
 9935 1dbe 6C       		.sleb128 -20
 9936 1dbf 1F       		.uleb128 0x1f
 9937 1dc0 3A030000 		.4byte	.LASF173
 9938 1dc4 01       		.byte	0x1
 9939 1dc5 A30A     		.2byte	0xaa3
 9940 1dc7 9E100000 		.4byte	0x109e
 9941 1dcb 02       		.uleb128 0x2
 9942 1dcc 91       		.byte	0x91
 9943 1dcd 74       		.sleb128 -12
 9944 1dce 00       		.byte	0
 9945 1dcf 24       		.uleb128 0x24
 9946 1dd0 5C050000 		.4byte	.LASF224
 9947 1dd4 01       		.byte	0x1
 9948 1dd5 AE0A     		.2byte	0xaae
 9949 1dd7 801D0000 		.4byte	.LFB186
 9950 1ddb 18000000 		.4byte	.LFE186-.LFB186
 9951 1ddf 01       		.uleb128 0x1
 9952 1de0 9C       		.byte	0x9c
 9953 1de1 041E0000 		.4byte	0x1e04
 9954 1de5 18       		.uleb128 0x18
 9955 1de6 4A090000 		.4byte	.LASF221
 9956 1dea 01       		.byte	0x1
 9957 1deb AE0A     		.2byte	0xaae
 9958 1ded AD070000 		.4byte	0x7ad
 9959 1df1 02       		.uleb128 0x2
 9960 1df2 91       		.byte	0x91
 9961 1df3 6C       		.sleb128 -20
 9962 1df4 1F       		.uleb128 0x1f
 9963 1df5 3A030000 		.4byte	.LASF173
 9964 1df9 01       		.byte	0x1
 9965 1dfa B10A     		.2byte	0xab1
 9966 1dfc 9E100000 		.4byte	0x109e
 9967 1e00 02       		.uleb128 0x2
 9968 1e01 91       		.byte	0x91
 9969 1e02 74       		.sleb128 -12
 9970 1e03 00       		.byte	0
 9971 1e04 24       		.uleb128 0x24
 9972 1e05 96060000 		.4byte	.LASF225
 9973 1e09 01       		.byte	0x1
 9974 1e0a BC0A     		.2byte	0xabc
 9975 1e0c A01D0000 		.4byte	.LFB187
 9976 1e10 18000000 		.4byte	.LFE187-.LFB187
 9977 1e14 01       		.uleb128 0x1
 9978 1e15 9C       		.byte	0x9c
ARM GAS  /tmp/ccjyqKqb.s 			page 177


 9979 1e16 391E0000 		.4byte	0x1e39
 9980 1e1a 18       		.uleb128 0x18
 9981 1e1b 4A090000 		.4byte	.LASF221
 9982 1e1f 01       		.byte	0x1
 9983 1e20 BC0A     		.2byte	0xabc
 9984 1e22 AD070000 		.4byte	0x7ad
 9985 1e26 02       		.uleb128 0x2
 9986 1e27 91       		.byte	0x91
 9987 1e28 6C       		.sleb128 -20
 9988 1e29 1F       		.uleb128 0x1f
 9989 1e2a 3A030000 		.4byte	.LASF173
 9990 1e2e 01       		.byte	0x1
 9991 1e2f BF0A     		.2byte	0xabf
 9992 1e31 9E100000 		.4byte	0x109e
 9993 1e35 02       		.uleb128 0x2
 9994 1e36 91       		.byte	0x91
 9995 1e37 74       		.sleb128 -12
 9996 1e38 00       		.byte	0
 9997 1e39 24       		.uleb128 0x24
 9998 1e3a 79010000 		.4byte	.LASF226
 9999 1e3e 01       		.byte	0x1
 10000 1e3f CA0A     		.2byte	0xaca
 10001 1e41 C01D0000 		.4byte	.LFB188
 10002 1e45 1E000000 		.4byte	.LFE188-.LFB188
 10003 1e49 01       		.uleb128 0x1
 10004 1e4a 9C       		.byte	0x9c
 10005 1e4b 6E1E0000 		.4byte	0x1e6e
 10006 1e4f 18       		.uleb128 0x18
 10007 1e50 4A090000 		.4byte	.LASF221
 10008 1e54 01       		.byte	0x1
 10009 1e55 CA0A     		.2byte	0xaca
 10010 1e57 AD070000 		.4byte	0x7ad
 10011 1e5b 02       		.uleb128 0x2
 10012 1e5c 91       		.byte	0x91
 10013 1e5d 6C       		.sleb128 -20
 10014 1e5e 1F       		.uleb128 0x1f
 10015 1e5f 3A030000 		.4byte	.LASF173
 10016 1e63 01       		.byte	0x1
 10017 1e64 CD0A     		.2byte	0xacd
 10018 1e66 9E100000 		.4byte	0x109e
 10019 1e6a 02       		.uleb128 0x2
 10020 1e6b 91       		.byte	0x91
 10021 1e6c 74       		.sleb128 -12
 10022 1e6d 00       		.byte	0
 10023 1e6e 25       		.uleb128 0x25
 10024 1e6f 04030000 		.4byte	.LASF229
 10025 1e73 01       		.byte	0x1
 10026 1e74 DB0A     		.2byte	0xadb
 10027 1e76 A2000000 		.4byte	0xa2
 10028 1e7a E01D0000 		.4byte	.LFB189
 10029 1e7e 34000000 		.4byte	.LFE189-.LFB189
 10030 1e82 01       		.uleb128 0x1
 10031 1e83 9C       		.byte	0x9c
 10032 1e84 B61E0000 		.4byte	0x1eb6
 10033 1e88 18       		.uleb128 0x18
 10034 1e89 840C0000 		.4byte	.LASF227
 10035 1e8d 01       		.byte	0x1
ARM GAS  /tmp/ccjyqKqb.s 			page 178


 10036 1e8e DB0A     		.2byte	0xadb
 10037 1e90 A2000000 		.4byte	0xa2
 10038 1e94 02       		.uleb128 0x2
 10039 1e95 91       		.byte	0x91
 10040 1e96 74       		.sleb128 -12
 10041 1e97 1F       		.uleb128 0x1f
 10042 1e98 CE0D0000 		.4byte	.LASF228
 10043 1e9c 01       		.byte	0x1
 10044 1e9d DD0A     		.2byte	0xadd
 10045 1e9f A2000000 		.4byte	0xa2
 10046 1ea3 02       		.uleb128 0x2
 10047 1ea4 91       		.byte	0x91
 10048 1ea5 7C       		.sleb128 -4
 10049 1ea6 21       		.uleb128 0x21
 10050 1ea7 746D7000 		.ascii	"tmp\000"
 10051 1eab 01       		.byte	0x1
 10052 1eac DE0A     		.2byte	0xade
 10053 1eae A2000000 		.4byte	0xa2
 10054 1eb2 02       		.uleb128 0x2
 10055 1eb3 91       		.byte	0x91
 10056 1eb4 78       		.sleb128 -8
 10057 1eb5 00       		.byte	0
 10058 1eb6 25       		.uleb128 0x25
 10059 1eb7 67060000 		.4byte	.LASF230
 10060 1ebb 01       		.byte	0x1
 10061 1ebc F20A     		.2byte	0xaf2
 10062 1ebe A2000000 		.4byte	0xa2
 10063 1ec2 201E0000 		.4byte	.LFB190
 10064 1ec6 A0000000 		.4byte	.LFE190-.LFB190
 10065 1eca 01       		.uleb128 0x1
 10066 1ecb 9C       		.byte	0x9c
 10067 1ecc EF1E0000 		.4byte	0x1eef
 10068 1ed0 18       		.uleb128 0x18
 10069 1ed1 AD0B0000 		.4byte	.LASF70
 10070 1ed5 01       		.byte	0x1
 10071 1ed6 F20A     		.2byte	0xaf2
 10072 1ed8 C0050000 		.4byte	0x5c0
 10073 1edc 02       		.uleb128 0x2
 10074 1edd 91       		.byte	0x91
 10075 1ede 74       		.sleb128 -12
 10076 1edf 1F       		.uleb128 0x1f
 10077 1ee0 A60D0000 		.4byte	.LASF153
 10078 1ee4 01       		.byte	0x1
 10079 1ee5 F40A     		.2byte	0xaf4
 10080 1ee7 A2000000 		.4byte	0xa2
 10081 1eeb 02       		.uleb128 0x2
 10082 1eec 91       		.byte	0x91
 10083 1eed 7C       		.sleb128 -4
 10084 1eee 00       		.byte	0
 10085 1eef 26       		.uleb128 0x26
 10086 1ef0 CE050000 		.4byte	.LASF231
 10087 1ef4 01       		.byte	0x1
 10088 1ef5 200B     		.2byte	0xb20
 10089 1ef7 C01E0000 		.4byte	.LFB191
 10090 1efb A0000000 		.4byte	.LFE191-.LFB191
 10091 1eff 01       		.uleb128 0x1
 10092 1f00 9C       		.byte	0x9c
ARM GAS  /tmp/ccjyqKqb.s 			page 179


 10093 1f01 151F0000 		.4byte	0x1f15
 10094 1f05 18       		.uleb128 0x18
 10095 1f06 3A030000 		.4byte	.LASF173
 10096 1f0a 01       		.byte	0x1
 10097 1f0b 200B     		.2byte	0xb20
 10098 1f0d 9E100000 		.4byte	0x109e
 10099 1f11 02       		.uleb128 0x2
 10100 1f12 91       		.byte	0x91
 10101 1f13 7C       		.sleb128 -4
 10102 1f14 00       		.byte	0
 10103 1f15 26       		.uleb128 0x26
 10104 1f16 39020000 		.4byte	.LASF232
 10105 1f1a 01       		.byte	0x1
 10106 1f1b 490B     		.2byte	0xb49
 10107 1f1d 601F0000 		.4byte	.LFB192
 10108 1f21 8E000000 		.4byte	.LFE192-.LFB192
 10109 1f25 01       		.uleb128 0x1
 10110 1f26 9C       		.byte	0x9c
 10111 1f27 3B1F0000 		.4byte	0x1f3b
 10112 1f2b 18       		.uleb128 0x18
 10113 1f2c 3A030000 		.4byte	.LASF173
 10114 1f30 01       		.byte	0x1
 10115 1f31 490B     		.2byte	0xb49
 10116 1f33 9E100000 		.4byte	0x109e
 10117 1f37 02       		.uleb128 0x2
 10118 1f38 91       		.byte	0x91
 10119 1f39 7C       		.sleb128 -4
 10120 1f3a 00       		.byte	0
 10121 1f3b 26       		.uleb128 0x26
 10122 1f3c 31050000 		.4byte	.LASF233
 10123 1f40 01       		.byte	0x1
 10124 1f41 6D0B     		.2byte	0xb6d
 10125 1f43 F01F0000 		.4byte	.LFB193
 10126 1f47 A6000000 		.4byte	.LFE193-.LFB193
 10127 1f4b 01       		.uleb128 0x1
 10128 1f4c 9C       		.byte	0x9c
 10129 1f4d 611F0000 		.4byte	0x1f61
 10130 1f51 18       		.uleb128 0x18
 10131 1f52 3A030000 		.4byte	.LASF173
 10132 1f56 01       		.byte	0x1
 10133 1f57 6D0B     		.2byte	0xb6d
 10134 1f59 9E100000 		.4byte	0x109e
 10135 1f5d 02       		.uleb128 0x2
 10136 1f5e 91       		.byte	0x91
 10137 1f5f 7C       		.sleb128 -4
 10138 1f60 00       		.byte	0
 10139 1f61 26       		.uleb128 0x26
 10140 1f62 E2080000 		.4byte	.LASF234
 10141 1f66 01       		.byte	0x1
 10142 1f67 990B     		.2byte	0xb99
 10143 1f69 A0200000 		.4byte	.LFB194
 10144 1f6d A8000000 		.4byte	.LFE194-.LFB194
 10145 1f71 01       		.uleb128 0x1
 10146 1f72 9C       		.byte	0x9c
 10147 1f73 871F0000 		.4byte	0x1f87
 10148 1f77 18       		.uleb128 0x18
 10149 1f78 3A030000 		.4byte	.LASF173
ARM GAS  /tmp/ccjyqKqb.s 			page 180


 10150 1f7c 01       		.byte	0x1
 10151 1f7d 990B     		.2byte	0xb99
 10152 1f7f 9E100000 		.4byte	0x109e
 10153 1f83 02       		.uleb128 0x2
 10154 1f84 91       		.byte	0x91
 10155 1f85 7C       		.sleb128 -4
 10156 1f86 00       		.byte	0
 10157 1f87 27       		.uleb128 0x27
 10158 1f88 D5020000 		.4byte	.LASF235
 10159 1f8c 0A       		.byte	0xa
 10160 1f8d FA06     		.2byte	0x6fa
 10161 1f8f 931F0000 		.4byte	0x1f93
 10162 1f93 05       		.uleb128 0x5
 10163 1f94 97000000 		.4byte	0x97
 10164 1f98 28       		.uleb128 0x28
 10165 1f99 360B0000 		.4byte	.LASF236
 10166 1f9d 01       		.byte	0x1
 10167 1f9e F3       		.byte	0xf3
 10168 1f9f B4000000 		.4byte	0xb4
 10169 1fa3 05       		.uleb128 0x5
 10170 1fa4 03       		.byte	0x3
 10171 1fa5 00000000 		.4byte	v_dfsdm1ChannelCounter
 10172 1fa9 29       		.uleb128 0x29
 10173 1faa 26090000 		.4byte	0x926
 10174 1fae B91F0000 		.4byte	0x1fb9
 10175 1fb2 2A       		.uleb128 0x2a
 10176 1fb3 AD000000 		.4byte	0xad
 10177 1fb7 07       		.byte	0x7
 10178 1fb8 00       		.byte	0
 10179 1fb9 28       		.uleb128 0x28
 10180 1fba B60B0000 		.4byte	.LASF237
 10181 1fbe 01       		.byte	0x1
 10182 1fbf F4       		.byte	0xf4
 10183 1fc0 A91F0000 		.4byte	0x1fa9
 10184 1fc4 05       		.uleb128 0x5
 10185 1fc5 03       		.byte	0x3
 10186 1fc6 00000000 		.4byte	a_dfsdm1ChannelHandle
 10187 1fca 00       		.byte	0
 10188              		.section	.debug_abbrev,"",%progbits
 10189              	.Ldebug_abbrev0:
 10190 0000 01       		.uleb128 0x1
 10191 0001 11       		.uleb128 0x11
 10192 0002 01       		.byte	0x1
 10193 0003 25       		.uleb128 0x25
 10194 0004 0E       		.uleb128 0xe
 10195 0005 13       		.uleb128 0x13
 10196 0006 0B       		.uleb128 0xb
 10197 0007 03       		.uleb128 0x3
 10198 0008 0E       		.uleb128 0xe
 10199 0009 1B       		.uleb128 0x1b
 10200 000a 0E       		.uleb128 0xe
 10201 000b 11       		.uleb128 0x11
 10202 000c 01       		.uleb128 0x1
 10203 000d 12       		.uleb128 0x12
 10204 000e 06       		.uleb128 0x6
 10205 000f 10       		.uleb128 0x10
 10206 0010 17       		.uleb128 0x17
ARM GAS  /tmp/ccjyqKqb.s 			page 181


 10207 0011 00       		.byte	0
 10208 0012 00       		.byte	0
 10209 0013 02       		.uleb128 0x2
 10210 0014 24       		.uleb128 0x24
 10211 0015 00       		.byte	0
 10212 0016 0B       		.uleb128 0xb
 10213 0017 0B       		.uleb128 0xb
 10214 0018 3E       		.uleb128 0x3e
 10215 0019 0B       		.uleb128 0xb
 10216 001a 03       		.uleb128 0x3
 10217 001b 0E       		.uleb128 0xe
 10218 001c 00       		.byte	0
 10219 001d 00       		.byte	0
 10220 001e 03       		.uleb128 0x3
 10221 001f 16       		.uleb128 0x16
 10222 0020 00       		.byte	0
 10223 0021 03       		.uleb128 0x3
 10224 0022 0E       		.uleb128 0xe
 10225 0023 3A       		.uleb128 0x3a
 10226 0024 0B       		.uleb128 0xb
 10227 0025 3B       		.uleb128 0x3b
 10228 0026 0B       		.uleb128 0xb
 10229 0027 49       		.uleb128 0x49
 10230 0028 13       		.uleb128 0x13
 10231 0029 00       		.byte	0
 10232 002a 00       		.byte	0
 10233 002b 04       		.uleb128 0x4
 10234 002c 24       		.uleb128 0x24
 10235 002d 00       		.byte	0
 10236 002e 0B       		.uleb128 0xb
 10237 002f 0B       		.uleb128 0xb
 10238 0030 3E       		.uleb128 0x3e
 10239 0031 0B       		.uleb128 0xb
 10240 0032 03       		.uleb128 0x3
 10241 0033 08       		.uleb128 0x8
 10242 0034 00       		.byte	0
 10243 0035 00       		.byte	0
 10244 0036 05       		.uleb128 0x5
 10245 0037 35       		.uleb128 0x35
 10246 0038 00       		.byte	0
 10247 0039 49       		.uleb128 0x49
 10248 003a 13       		.uleb128 0x13
 10249 003b 00       		.byte	0
 10250 003c 00       		.byte	0
 10251 003d 06       		.uleb128 0x6
 10252 003e 13       		.uleb128 0x13
 10253 003f 01       		.byte	0x1
 10254 0040 0B       		.uleb128 0xb
 10255 0041 0B       		.uleb128 0xb
 10256 0042 3A       		.uleb128 0x3a
 10257 0043 0B       		.uleb128 0xb
 10258 0044 3B       		.uleb128 0x3b
 10259 0045 05       		.uleb128 0x5
 10260 0046 01       		.uleb128 0x1
 10261 0047 13       		.uleb128 0x13
 10262 0048 00       		.byte	0
 10263 0049 00       		.byte	0
ARM GAS  /tmp/ccjyqKqb.s 			page 182


 10264 004a 07       		.uleb128 0x7
 10265 004b 0D       		.uleb128 0xd
 10266 004c 00       		.byte	0
 10267 004d 03       		.uleb128 0x3
 10268 004e 0E       		.uleb128 0xe
 10269 004f 3A       		.uleb128 0x3a
 10270 0050 0B       		.uleb128 0xb
 10271 0051 3B       		.uleb128 0x3b
 10272 0052 05       		.uleb128 0x5
 10273 0053 49       		.uleb128 0x49
 10274 0054 13       		.uleb128 0x13
 10275 0055 38       		.uleb128 0x38
 10276 0056 0B       		.uleb128 0xb
 10277 0057 00       		.byte	0
 10278 0058 00       		.byte	0
 10279 0059 08       		.uleb128 0x8
 10280 005a 16       		.uleb128 0x16
 10281 005b 00       		.byte	0
 10282 005c 03       		.uleb128 0x3
 10283 005d 0E       		.uleb128 0xe
 10284 005e 3A       		.uleb128 0x3a
 10285 005f 0B       		.uleb128 0xb
 10286 0060 3B       		.uleb128 0x3b
 10287 0061 05       		.uleb128 0x5
 10288 0062 49       		.uleb128 0x49
 10289 0063 13       		.uleb128 0x13
 10290 0064 00       		.byte	0
 10291 0065 00       		.byte	0
 10292 0066 09       		.uleb128 0x9
 10293 0067 0D       		.uleb128 0xd
 10294 0068 00       		.byte	0
 10295 0069 03       		.uleb128 0x3
 10296 006a 08       		.uleb128 0x8
 10297 006b 3A       		.uleb128 0x3a
 10298 006c 0B       		.uleb128 0xb
 10299 006d 3B       		.uleb128 0x3b
 10300 006e 05       		.uleb128 0x5
 10301 006f 49       		.uleb128 0x49
 10302 0070 13       		.uleb128 0x13
 10303 0071 38       		.uleb128 0x38
 10304 0072 0B       		.uleb128 0xb
 10305 0073 00       		.byte	0
 10306 0074 00       		.byte	0
 10307 0075 0A       		.uleb128 0xa
 10308 0076 04       		.uleb128 0x4
 10309 0077 01       		.byte	0x1
 10310 0078 0B       		.uleb128 0xb
 10311 0079 0B       		.uleb128 0xb
 10312 007a 3A       		.uleb128 0x3a
 10313 007b 0B       		.uleb128 0xb
 10314 007c 3B       		.uleb128 0x3b
 10315 007d 0B       		.uleb128 0xb
 10316 007e 01       		.uleb128 0x1
 10317 007f 13       		.uleb128 0x13
 10318 0080 00       		.byte	0
 10319 0081 00       		.byte	0
 10320 0082 0B       		.uleb128 0xb
ARM GAS  /tmp/ccjyqKqb.s 			page 183


 10321 0083 28       		.uleb128 0x28
 10322 0084 00       		.byte	0
 10323 0085 03       		.uleb128 0x3
 10324 0086 0E       		.uleb128 0xe
 10325 0087 1C       		.uleb128 0x1c
 10326 0088 0D       		.uleb128 0xd
 10327 0089 00       		.byte	0
 10328 008a 00       		.byte	0
 10329 008b 0C       		.uleb128 0xc
 10330 008c 0F       		.uleb128 0xf
 10331 008d 00       		.byte	0
 10332 008e 0B       		.uleb128 0xb
 10333 008f 0B       		.uleb128 0xb
 10334 0090 00       		.byte	0
 10335 0091 00       		.byte	0
 10336 0092 0D       		.uleb128 0xd
 10337 0093 13       		.uleb128 0x13
 10338 0094 01       		.byte	0x1
 10339 0095 0B       		.uleb128 0xb
 10340 0096 0B       		.uleb128 0xb
 10341 0097 3A       		.uleb128 0x3a
 10342 0098 0B       		.uleb128 0xb
 10343 0099 3B       		.uleb128 0x3b
 10344 009a 0B       		.uleb128 0xb
 10345 009b 01       		.uleb128 0x1
 10346 009c 13       		.uleb128 0x13
 10347 009d 00       		.byte	0
 10348 009e 00       		.byte	0
 10349 009f 0E       		.uleb128 0xe
 10350 00a0 0D       		.uleb128 0xd
 10351 00a1 00       		.byte	0
 10352 00a2 03       		.uleb128 0x3
 10353 00a3 0E       		.uleb128 0xe
 10354 00a4 3A       		.uleb128 0x3a
 10355 00a5 0B       		.uleb128 0xb
 10356 00a6 3B       		.uleb128 0x3b
 10357 00a7 0B       		.uleb128 0xb
 10358 00a8 49       		.uleb128 0x49
 10359 00a9 13       		.uleb128 0x13
 10360 00aa 38       		.uleb128 0x38
 10361 00ab 0B       		.uleb128 0xb
 10362 00ac 00       		.byte	0
 10363 00ad 00       		.byte	0
 10364 00ae 0F       		.uleb128 0xf
 10365 00af 13       		.uleb128 0x13
 10366 00b0 01       		.byte	0x1
 10367 00b1 03       		.uleb128 0x3
 10368 00b2 0E       		.uleb128 0xe
 10369 00b3 0B       		.uleb128 0xb
 10370 00b4 0B       		.uleb128 0xb
 10371 00b5 3A       		.uleb128 0x3a
 10372 00b6 0B       		.uleb128 0xb
 10373 00b7 3B       		.uleb128 0x3b
 10374 00b8 0B       		.uleb128 0xb
 10375 00b9 01       		.uleb128 0x1
 10376 00ba 13       		.uleb128 0x13
 10377 00bb 00       		.byte	0
ARM GAS  /tmp/ccjyqKqb.s 			page 184


 10378 00bc 00       		.byte	0
 10379 00bd 10       		.uleb128 0x10
 10380 00be 0F       		.uleb128 0xf
 10381 00bf 00       		.byte	0
 10382 00c0 0B       		.uleb128 0xb
 10383 00c1 0B       		.uleb128 0xb
 10384 00c2 49       		.uleb128 0x49
 10385 00c3 13       		.uleb128 0x13
 10386 00c4 00       		.byte	0
 10387 00c5 00       		.byte	0
 10388 00c6 11       		.uleb128 0x11
 10389 00c7 15       		.uleb128 0x15
 10390 00c8 01       		.byte	0x1
 10391 00c9 27       		.uleb128 0x27
 10392 00ca 19       		.uleb128 0x19
 10393 00cb 01       		.uleb128 0x1
 10394 00cc 13       		.uleb128 0x13
 10395 00cd 00       		.byte	0
 10396 00ce 00       		.byte	0
 10397 00cf 12       		.uleb128 0x12
 10398 00d0 05       		.uleb128 0x5
 10399 00d1 00       		.byte	0
 10400 00d2 49       		.uleb128 0x49
 10401 00d3 13       		.uleb128 0x13
 10402 00d4 00       		.byte	0
 10403 00d5 00       		.byte	0
 10404 00d6 13       		.uleb128 0x13
 10405 00d7 0D       		.uleb128 0xd
 10406 00d8 00       		.byte	0
 10407 00d9 03       		.uleb128 0x3
 10408 00da 08       		.uleb128 0x8
 10409 00db 3A       		.uleb128 0x3a
 10410 00dc 0B       		.uleb128 0xb
 10411 00dd 3B       		.uleb128 0x3b
 10412 00de 0B       		.uleb128 0xb
 10413 00df 49       		.uleb128 0x49
 10414 00e0 13       		.uleb128 0x13
 10415 00e1 38       		.uleb128 0x38
 10416 00e2 0B       		.uleb128 0xb
 10417 00e3 00       		.byte	0
 10418 00e4 00       		.byte	0
 10419 00e5 14       		.uleb128 0x14
 10420 00e6 2E       		.uleb128 0x2e
 10421 00e7 01       		.byte	0x1
 10422 00e8 03       		.uleb128 0x3
 10423 00e9 0E       		.uleb128 0xe
 10424 00ea 3A       		.uleb128 0x3a
 10425 00eb 0B       		.uleb128 0xb
 10426 00ec 3B       		.uleb128 0x3b
 10427 00ed 05       		.uleb128 0x5
 10428 00ee 27       		.uleb128 0x27
 10429 00ef 19       		.uleb128 0x19
 10430 00f0 49       		.uleb128 0x49
 10431 00f1 13       		.uleb128 0x13
 10432 00f2 20       		.uleb128 0x20
 10433 00f3 0B       		.uleb128 0xb
 10434 00f4 01       		.uleb128 0x1
ARM GAS  /tmp/ccjyqKqb.s 			page 185


 10435 00f5 13       		.uleb128 0x13
 10436 00f6 00       		.byte	0
 10437 00f7 00       		.byte	0
 10438 00f8 15       		.uleb128 0x15
 10439 00f9 05       		.uleb128 0x5
 10440 00fa 00       		.byte	0
 10441 00fb 03       		.uleb128 0x3
 10442 00fc 0E       		.uleb128 0xe
 10443 00fd 3A       		.uleb128 0x3a
 10444 00fe 0B       		.uleb128 0xb
 10445 00ff 3B       		.uleb128 0x3b
 10446 0100 05       		.uleb128 0x5
 10447 0101 49       		.uleb128 0x49
 10448 0102 13       		.uleb128 0x13
 10449 0103 00       		.byte	0
 10450 0104 00       		.byte	0
 10451 0105 16       		.uleb128 0x16
 10452 0106 34       		.uleb128 0x34
 10453 0107 00       		.byte	0
 10454 0108 03       		.uleb128 0x3
 10455 0109 0E       		.uleb128 0xe
 10456 010a 3A       		.uleb128 0x3a
 10457 010b 0B       		.uleb128 0xb
 10458 010c 3B       		.uleb128 0x3b
 10459 010d 05       		.uleb128 0x5
 10460 010e 49       		.uleb128 0x49
 10461 010f 13       		.uleb128 0x13
 10462 0110 00       		.byte	0
 10463 0111 00       		.byte	0
 10464 0112 17       		.uleb128 0x17
 10465 0113 2E       		.uleb128 0x2e
 10466 0114 01       		.byte	0x1
 10467 0115 3F       		.uleb128 0x3f
 10468 0116 19       		.uleb128 0x19
 10469 0117 03       		.uleb128 0x3
 10470 0118 0E       		.uleb128 0xe
 10471 0119 3A       		.uleb128 0x3a
 10472 011a 0B       		.uleb128 0xb
 10473 011b 3B       		.uleb128 0x3b
 10474 011c 05       		.uleb128 0x5
 10475 011d 27       		.uleb128 0x27
 10476 011e 19       		.uleb128 0x19
 10477 011f 49       		.uleb128 0x49
 10478 0120 13       		.uleb128 0x13
 10479 0121 11       		.uleb128 0x11
 10480 0122 01       		.uleb128 0x1
 10481 0123 12       		.uleb128 0x12
 10482 0124 06       		.uleb128 0x6
 10483 0125 40       		.uleb128 0x40
 10484 0126 18       		.uleb128 0x18
 10485 0127 9642     		.uleb128 0x2116
 10486 0129 19       		.uleb128 0x19
 10487 012a 01       		.uleb128 0x1
 10488 012b 13       		.uleb128 0x13
 10489 012c 00       		.byte	0
 10490 012d 00       		.byte	0
 10491 012e 18       		.uleb128 0x18
ARM GAS  /tmp/ccjyqKqb.s 			page 186


 10492 012f 05       		.uleb128 0x5
 10493 0130 00       		.byte	0
 10494 0131 03       		.uleb128 0x3
 10495 0132 0E       		.uleb128 0xe
 10496 0133 3A       		.uleb128 0x3a
 10497 0134 0B       		.uleb128 0xb
 10498 0135 3B       		.uleb128 0x3b
 10499 0136 05       		.uleb128 0x5
 10500 0137 49       		.uleb128 0x49
 10501 0138 13       		.uleb128 0x13
 10502 0139 02       		.uleb128 0x2
 10503 013a 18       		.uleb128 0x18
 10504 013b 00       		.byte	0
 10505 013c 00       		.byte	0
 10506 013d 19       		.uleb128 0x19
 10507 013e 1D       		.uleb128 0x1d
 10508 013f 01       		.byte	0x1
 10509 0140 31       		.uleb128 0x31
 10510 0141 13       		.uleb128 0x13
 10511 0142 11       		.uleb128 0x11
 10512 0143 01       		.uleb128 0x1
 10513 0144 12       		.uleb128 0x12
 10514 0145 06       		.uleb128 0x6
 10515 0146 58       		.uleb128 0x58
 10516 0147 0B       		.uleb128 0xb
 10517 0148 59       		.uleb128 0x59
 10518 0149 05       		.uleb128 0x5
 10519 014a 01       		.uleb128 0x1
 10520 014b 13       		.uleb128 0x13
 10521 014c 00       		.byte	0
 10522 014d 00       		.byte	0
 10523 014e 1A       		.uleb128 0x1a
 10524 014f 05       		.uleb128 0x5
 10525 0150 00       		.byte	0
 10526 0151 31       		.uleb128 0x31
 10527 0152 13       		.uleb128 0x13
 10528 0153 02       		.uleb128 0x2
 10529 0154 18       		.uleb128 0x18
 10530 0155 00       		.byte	0
 10531 0156 00       		.byte	0
 10532 0157 1B       		.uleb128 0x1b
 10533 0158 0B       		.uleb128 0xb
 10534 0159 01       		.byte	0x1
 10535 015a 11       		.uleb128 0x11
 10536 015b 01       		.uleb128 0x1
 10537 015c 12       		.uleb128 0x12
 10538 015d 06       		.uleb128 0x6
 10539 015e 00       		.byte	0
 10540 015f 00       		.byte	0
 10541 0160 1C       		.uleb128 0x1c
 10542 0161 34       		.uleb128 0x34
 10543 0162 00       		.byte	0
 10544 0163 31       		.uleb128 0x31
 10545 0164 13       		.uleb128 0x13
 10546 0165 02       		.uleb128 0x2
 10547 0166 18       		.uleb128 0x18
 10548 0167 00       		.byte	0
ARM GAS  /tmp/ccjyqKqb.s 			page 187


 10549 0168 00       		.byte	0
 10550 0169 1D       		.uleb128 0x1d
 10551 016a 1D       		.uleb128 0x1d
 10552 016b 01       		.byte	0x1
 10553 016c 31       		.uleb128 0x31
 10554 016d 13       		.uleb128 0x13
 10555 016e 11       		.uleb128 0x11
 10556 016f 01       		.uleb128 0x1
 10557 0170 12       		.uleb128 0x12
 10558 0171 06       		.uleb128 0x6
 10559 0172 58       		.uleb128 0x58
 10560 0173 0B       		.uleb128 0xb
 10561 0174 59       		.uleb128 0x59
 10562 0175 05       		.uleb128 0x5
 10563 0176 00       		.byte	0
 10564 0177 00       		.byte	0
 10565 0178 1E       		.uleb128 0x1e
 10566 0179 2E       		.uleb128 0x2e
 10567 017a 01       		.byte	0x1
 10568 017b 3F       		.uleb128 0x3f
 10569 017c 19       		.uleb128 0x19
 10570 017d 03       		.uleb128 0x3
 10571 017e 0E       		.uleb128 0xe
 10572 017f 3A       		.uleb128 0x3a
 10573 0180 0B       		.uleb128 0xb
 10574 0181 3B       		.uleb128 0x3b
 10575 0182 05       		.uleb128 0x5
 10576 0183 27       		.uleb128 0x27
 10577 0184 19       		.uleb128 0x19
 10578 0185 11       		.uleb128 0x11
 10579 0186 01       		.uleb128 0x1
 10580 0187 12       		.uleb128 0x12
 10581 0188 06       		.uleb128 0x6
 10582 0189 40       		.uleb128 0x40
 10583 018a 18       		.uleb128 0x18
 10584 018b 9742     		.uleb128 0x2117
 10585 018d 19       		.uleb128 0x19
 10586 018e 01       		.uleb128 0x1
 10587 018f 13       		.uleb128 0x13
 10588 0190 00       		.byte	0
 10589 0191 00       		.byte	0
 10590 0192 1F       		.uleb128 0x1f
 10591 0193 34       		.uleb128 0x34
 10592 0194 00       		.byte	0
 10593 0195 03       		.uleb128 0x3
 10594 0196 0E       		.uleb128 0xe
 10595 0197 3A       		.uleb128 0x3a
 10596 0198 0B       		.uleb128 0xb
 10597 0199 3B       		.uleb128 0x3b
 10598 019a 05       		.uleb128 0x5
 10599 019b 49       		.uleb128 0x49
 10600 019c 13       		.uleb128 0x13
 10601 019d 02       		.uleb128 0x2
 10602 019e 18       		.uleb128 0x18
 10603 019f 00       		.byte	0
 10604 01a0 00       		.byte	0
 10605 01a1 20       		.uleb128 0x20
ARM GAS  /tmp/ccjyqKqb.s 			page 188


 10606 01a2 2E       		.uleb128 0x2e
 10607 01a3 01       		.byte	0x1
 10608 01a4 3F       		.uleb128 0x3f
 10609 01a5 19       		.uleb128 0x19
 10610 01a6 03       		.uleb128 0x3
 10611 01a7 0E       		.uleb128 0xe
 10612 01a8 3A       		.uleb128 0x3a
 10613 01a9 0B       		.uleb128 0xb
 10614 01aa 3B       		.uleb128 0x3b
 10615 01ab 05       		.uleb128 0x5
 10616 01ac 27       		.uleb128 0x27
 10617 01ad 19       		.uleb128 0x19
 10618 01ae 49       		.uleb128 0x49
 10619 01af 13       		.uleb128 0x13
 10620 01b0 11       		.uleb128 0x11
 10621 01b1 01       		.uleb128 0x1
 10622 01b2 12       		.uleb128 0x12
 10623 01b3 06       		.uleb128 0x6
 10624 01b4 40       		.uleb128 0x40
 10625 01b5 18       		.uleb128 0x18
 10626 01b6 9742     		.uleb128 0x2117
 10627 01b8 19       		.uleb128 0x19
 10628 01b9 01       		.uleb128 0x1
 10629 01ba 13       		.uleb128 0x13
 10630 01bb 00       		.byte	0
 10631 01bc 00       		.byte	0
 10632 01bd 21       		.uleb128 0x21
 10633 01be 34       		.uleb128 0x34
 10634 01bf 00       		.byte	0
 10635 01c0 03       		.uleb128 0x3
 10636 01c1 08       		.uleb128 0x8
 10637 01c2 3A       		.uleb128 0x3a
 10638 01c3 0B       		.uleb128 0xb
 10639 01c4 3B       		.uleb128 0x3b
 10640 01c5 05       		.uleb128 0x5
 10641 01c6 49       		.uleb128 0x49
 10642 01c7 13       		.uleb128 0x13
 10643 01c8 02       		.uleb128 0x2
 10644 01c9 18       		.uleb128 0x18
 10645 01ca 00       		.byte	0
 10646 01cb 00       		.byte	0
 10647 01cc 22       		.uleb128 0x22
 10648 01cd 2E       		.uleb128 0x2e
 10649 01ce 01       		.byte	0x1
 10650 01cf 3F       		.uleb128 0x3f
 10651 01d0 19       		.uleb128 0x19
 10652 01d1 03       		.uleb128 0x3
 10653 01d2 0E       		.uleb128 0xe
 10654 01d3 3A       		.uleb128 0x3a
 10655 01d4 0B       		.uleb128 0xb
 10656 01d5 3B       		.uleb128 0x3b
 10657 01d6 05       		.uleb128 0x5
 10658 01d7 27       		.uleb128 0x27
 10659 01d8 19       		.uleb128 0x19
 10660 01d9 11       		.uleb128 0x11
 10661 01da 01       		.uleb128 0x1
 10662 01db 12       		.uleb128 0x12
ARM GAS  /tmp/ccjyqKqb.s 			page 189


 10663 01dc 06       		.uleb128 0x6
 10664 01dd 40       		.uleb128 0x40
 10665 01de 18       		.uleb128 0x18
 10666 01df 9642     		.uleb128 0x2116
 10667 01e1 19       		.uleb128 0x19
 10668 01e2 01       		.uleb128 0x1
 10669 01e3 13       		.uleb128 0x13
 10670 01e4 00       		.byte	0
 10671 01e5 00       		.byte	0
 10672 01e6 23       		.uleb128 0x23
 10673 01e7 0B       		.uleb128 0xb
 10674 01e8 01       		.byte	0x1
 10675 01e9 11       		.uleb128 0x11
 10676 01ea 01       		.uleb128 0x1
 10677 01eb 12       		.uleb128 0x12
 10678 01ec 06       		.uleb128 0x6
 10679 01ed 01       		.uleb128 0x1
 10680 01ee 13       		.uleb128 0x13
 10681 01ef 00       		.byte	0
 10682 01f0 00       		.byte	0
 10683 01f1 24       		.uleb128 0x24
 10684 01f2 2E       		.uleb128 0x2e
 10685 01f3 01       		.byte	0x1
 10686 01f4 03       		.uleb128 0x3
 10687 01f5 0E       		.uleb128 0xe
 10688 01f6 3A       		.uleb128 0x3a
 10689 01f7 0B       		.uleb128 0xb
 10690 01f8 3B       		.uleb128 0x3b
 10691 01f9 05       		.uleb128 0x5
 10692 01fa 27       		.uleb128 0x27
 10693 01fb 19       		.uleb128 0x19
 10694 01fc 11       		.uleb128 0x11
 10695 01fd 01       		.uleb128 0x1
 10696 01fe 12       		.uleb128 0x12
 10697 01ff 06       		.uleb128 0x6
 10698 0200 40       		.uleb128 0x40
 10699 0201 18       		.uleb128 0x18
 10700 0202 9642     		.uleb128 0x2116
 10701 0204 19       		.uleb128 0x19
 10702 0205 01       		.uleb128 0x1
 10703 0206 13       		.uleb128 0x13
 10704 0207 00       		.byte	0
 10705 0208 00       		.byte	0
 10706 0209 25       		.uleb128 0x25
 10707 020a 2E       		.uleb128 0x2e
 10708 020b 01       		.byte	0x1
 10709 020c 03       		.uleb128 0x3
 10710 020d 0E       		.uleb128 0xe
 10711 020e 3A       		.uleb128 0x3a
 10712 020f 0B       		.uleb128 0xb
 10713 0210 3B       		.uleb128 0x3b
 10714 0211 05       		.uleb128 0x5
 10715 0212 27       		.uleb128 0x27
 10716 0213 19       		.uleb128 0x19
 10717 0214 49       		.uleb128 0x49
 10718 0215 13       		.uleb128 0x13
 10719 0216 11       		.uleb128 0x11
ARM GAS  /tmp/ccjyqKqb.s 			page 190


 10720 0217 01       		.uleb128 0x1
 10721 0218 12       		.uleb128 0x12
 10722 0219 06       		.uleb128 0x6
 10723 021a 40       		.uleb128 0x40
 10724 021b 18       		.uleb128 0x18
 10725 021c 9742     		.uleb128 0x2117
 10726 021e 19       		.uleb128 0x19
 10727 021f 01       		.uleb128 0x1
 10728 0220 13       		.uleb128 0x13
 10729 0221 00       		.byte	0
 10730 0222 00       		.byte	0
 10731 0223 26       		.uleb128 0x26
 10732 0224 2E       		.uleb128 0x2e
 10733 0225 01       		.byte	0x1
 10734 0226 03       		.uleb128 0x3
 10735 0227 0E       		.uleb128 0xe
 10736 0228 3A       		.uleb128 0x3a
 10737 0229 0B       		.uleb128 0xb
 10738 022a 3B       		.uleb128 0x3b
 10739 022b 05       		.uleb128 0x5
 10740 022c 27       		.uleb128 0x27
 10741 022d 19       		.uleb128 0x19
 10742 022e 11       		.uleb128 0x11
 10743 022f 01       		.uleb128 0x1
 10744 0230 12       		.uleb128 0x12
 10745 0231 06       		.uleb128 0x6
 10746 0232 40       		.uleb128 0x40
 10747 0233 18       		.uleb128 0x18
 10748 0234 9742     		.uleb128 0x2117
 10749 0236 19       		.uleb128 0x19
 10750 0237 01       		.uleb128 0x1
 10751 0238 13       		.uleb128 0x13
 10752 0239 00       		.byte	0
 10753 023a 00       		.byte	0
 10754 023b 27       		.uleb128 0x27
 10755 023c 34       		.uleb128 0x34
 10756 023d 00       		.byte	0
 10757 023e 03       		.uleb128 0x3
 10758 023f 0E       		.uleb128 0xe
 10759 0240 3A       		.uleb128 0x3a
 10760 0241 0B       		.uleb128 0xb
 10761 0242 3B       		.uleb128 0x3b
 10762 0243 05       		.uleb128 0x5
 10763 0244 49       		.uleb128 0x49
 10764 0245 13       		.uleb128 0x13
 10765 0246 3F       		.uleb128 0x3f
 10766 0247 19       		.uleb128 0x19
 10767 0248 3C       		.uleb128 0x3c
 10768 0249 19       		.uleb128 0x19
 10769 024a 00       		.byte	0
 10770 024b 00       		.byte	0
 10771 024c 28       		.uleb128 0x28
 10772 024d 34       		.uleb128 0x34
 10773 024e 00       		.byte	0
 10774 024f 03       		.uleb128 0x3
 10775 0250 0E       		.uleb128 0xe
 10776 0251 3A       		.uleb128 0x3a
ARM GAS  /tmp/ccjyqKqb.s 			page 191


 10777 0252 0B       		.uleb128 0xb
 10778 0253 3B       		.uleb128 0x3b
 10779 0254 0B       		.uleb128 0xb
 10780 0255 49       		.uleb128 0x49
 10781 0256 13       		.uleb128 0x13
 10782 0257 3F       		.uleb128 0x3f
 10783 0258 19       		.uleb128 0x19
 10784 0259 02       		.uleb128 0x2
 10785 025a 18       		.uleb128 0x18
 10786 025b 00       		.byte	0
 10787 025c 00       		.byte	0
 10788 025d 29       		.uleb128 0x29
 10789 025e 01       		.uleb128 0x1
 10790 025f 01       		.byte	0x1
 10791 0260 49       		.uleb128 0x49
 10792 0261 13       		.uleb128 0x13
 10793 0262 01       		.uleb128 0x1
 10794 0263 13       		.uleb128 0x13
 10795 0264 00       		.byte	0
 10796 0265 00       		.byte	0
 10797 0266 2A       		.uleb128 0x2a
 10798 0267 21       		.uleb128 0x21
 10799 0268 00       		.byte	0
 10800 0269 49       		.uleb128 0x49
 10801 026a 13       		.uleb128 0x13
 10802 026b 2F       		.uleb128 0x2f
 10803 026c 0B       		.uleb128 0xb
 10804 026d 00       		.byte	0
 10805 026e 00       		.byte	0
 10806 026f 00       		.byte	0
 10807              		.section	.debug_aranges,"",%progbits
 10808 0000 1C000000 		.4byte	0x1c
 10809 0004 0200     		.2byte	0x2
 10810 0006 00000000 		.4byte	.Ldebug_info0
 10811 000a 04       		.byte	0x4
 10812 000b 00       		.byte	0
 10813 000c 0000     		.2byte	0
 10814 000e 0000     		.2byte	0
 10815 0010 00000000 		.4byte	.Ltext0
 10816 0014 48210000 		.4byte	.Letext0-.Ltext0
 10817 0018 00000000 		.4byte	0
 10818 001c 00000000 		.4byte	0
 10819              		.section	.debug_line,"",%progbits
 10820              	.Ldebug_line0:
 10821 0000 B60B0000 		.section	.debug_str,"MS",%progbits,1
 10821      02007202 
 10821      00000201 
 10821      FB0E0D00 
 10821      01010101 
 10822              	.LASF203:
 10823 0000 48414C5F 		.ascii	"HAL_DFSDM_FilterAwdStop_IT\000"
 10823      44465344 
 10823      4D5F4669 
 10823      6C746572 
 10823      41776453 
 10824              	.LASF180:
 10825 001b 48414C5F 		.ascii	"HAL_DFSDM_FilterRegularStart\000"
ARM GAS  /tmp/ccjyqKqb.s 			page 192


 10825      44465344 
 10825      4D5F4669 
 10825      6C746572 
 10825      52656775 
 10826              	.LASF210:
 10827 0038 48414C5F 		.ascii	"HAL_DFSDM_FilterGetConvTimeValue\000"
 10827      44465344 
 10827      4D5F4669 
 10827      6C746572 
 10827      47657443 
 10828              	.LASF112:
 10829 0059 48414C5F 		.ascii	"HAL_DFSDM_FILTER_STATE_REG_INJ\000"
 10829      44465344 
 10829      4D5F4649 
 10829      4C544552 
 10829      5F535441 
 10830              	.LASF118:
 10831 0078 44465344 		.ascii	"DFSDM_Filter_RegularParamTypeDef\000"
 10831      4D5F4669 
 10831      6C746572 
 10831      5F526567 
 10831      756C6172 
 10832              	.LASF155:
 10833 0099 48414C5F 		.ascii	"HAL_DFSDM_ChannelPollForCkab\000"
 10833      44465344 
 10833      4D5F4368 
 10833      616E6E65 
 10833      6C506F6C 
 10834              	.LASF238:
 10835 00b6 474E5520 		.ascii	"GNU C 4.8.4 20140526 (release) [ARM/embedded-4_8-br"
 10835      4320342E 
 10835      382E3420 
 10835      32303134 
 10835      30353236 
 10836 00e9 616E6368 		.ascii	"anch revision 211358] -mcpu=cortex-m4 -mno-thumb-in"
 10836      20726576 
 10836      6973696F 
 10836      6E203231 
 10836      31333538 
 10837 011c 74657277 		.ascii	"terwork -mthumb -ggdb -O0 -std=c99 -fomit-frame-poi"
 10837      6F726B20 
 10837      2D6D7468 
 10837      756D6220 
 10837      2D676764 
 10838 014f 6E746572 		.ascii	"nter -falign-functions=16\000"
 10838      202D6661 
 10838      6C69676E 
 10838      2D66756E 
 10838      6374696F 
 10839              	.LASF64:
 10840 0169 444D415F 		.ascii	"DMA_InitTypeDef\000"
 10840      496E6974 
 10840      54797065 
 10840      44656600 
 10841              	.LASF226:
 10842 0179 44465344 		.ascii	"DFSDM_DMAError\000"
 10842      4D5F444D 
ARM GAS  /tmp/ccjyqKqb.s 			page 193


 10842      41457272 
 10842      6F7200
 10843              	.LASF178:
 10844 0188 436F6E74 		.ascii	"ContinuousMode\000"
 10844      696E756F 
 10844      75734D6F 
 10844      646500
 10845              	.LASF193:
 10846 0197 48414C5F 		.ascii	"HAL_DFSDM_FilterPollForInjConversion\000"
 10846      44465344 
 10846      4D5F4669 
 10846      6C746572 
 10846      506F6C6C 
 10847              	.LASF216:
 10848 01bc 48414C5F 		.ascii	"HAL_DFSDM_FilterInjConvHalfCpltCallback\000"
 10848      44465344 
 10848      4D5F4669 
 10848      6C746572 
 10848      496E6A43 
 10849              	.LASF50:
 10850 01e4 48414C5F 		.ascii	"HAL_BUSY\000"
 10850      42555359 
 10850      00
 10851              	.LASF175:
 10852 01ed 48414C5F 		.ascii	"HAL_DFSDM_FilterMspInit\000"
 10852      44465344 
 10852      4D5F4669 
 10852      6C746572 
 10852      4D737049 
 10853              	.LASF120:
 10854 0205 45787454 		.ascii	"ExtTrigger\000"
 10854      72696767 
 10854      657200
 10855              	.LASF98:
 10856 0210 46696C74 		.ascii	"FilterOrder\000"
 10856      65724F72 
 10856      64657200 
 10857              	.LASF194:
 10858 021c 48414C5F 		.ascii	"HAL_DFSDM_FilterInjectedStop\000"
 10858      44465344 
 10858      4D5F4669 
 10858      6C746572 
 10858      496E6A65 
 10859              	.LASF232:
 10860 0239 44465344 		.ascii	"DFSDM_RegConvStop\000"
 10860      4D5F5265 
 10860      67436F6E 
 10860      7653746F 
 10860      7000
 10861              	.LASF44:
 10862 024b 44495341 		.ascii	"DISABLE\000"
 10862      424C4500 
 10863              	.LASF10:
 10864 0253 6C6F6E67 		.ascii	"long long unsigned int\000"
 10864      206C6F6E 
 10864      6720756E 
 10864      7369676E 
ARM GAS  /tmp/ccjyqKqb.s 			page 194


 10864      65642069 
 10865              	.LASF242:
 10866 026a 5F5F5242 		.ascii	"__RBIT\000"
 10866      495400
 10867              	.LASF164:
 10868 0271 48414C5F 		.ascii	"HAL_DFSDM_ChannelPollForScd\000"
 10868      44465344 
 10868      4D5F4368 
 10868      616E6E65 
 10868      6C506F6C 
 10869              	.LASF113:
 10870 028d 48414C5F 		.ascii	"HAL_DFSDM_FILTER_STATE_ERROR\000"
 10870      44465344 
 10870      4D5F4649 
 10870      4C544552 
 10870      5F535441 
 10871              	.LASF213:
 10872 02aa 48414C5F 		.ascii	"HAL_DFSDM_FilterRegConvCpltCallback\000"
 10872      44465344 
 10872      4D5F4669 
 10872      6C746572 
 10872      52656743 
 10873              	.LASF21:
 10874 02ce 464C5446 		.ascii	"FLTFCR\000"
 10874      435200
 10875              	.LASF235:
 10876 02d5 49544D5F 		.ascii	"ITM_RxBuffer\000"
 10876      52784275 
 10876      66666572 
 10876      00
 10877              	.LASF122:
 10878 02e2 44465344 		.ascii	"DFSDM_Filter_InjectedParamTypeDef\000"
 10878      4D5F4669 
 10878      6C746572 
 10878      5F496E6A 
 10878      65637465 
 10879              	.LASF229:
 10880 0304 44465344 		.ascii	"DFSDM_GetInjChannelsNbr\000"
 10880      4D5F4765 
 10880      74496E6A 
 10880      4368616E 
 10880      6E656C73 
 10881              	.LASF37:
 10882 031c 44465344 		.ascii	"DFSDM_Channel_TypeDef\000"
 10882      4D5F4368 
 10882      616E6E65 
 10882      6C5F5479 
 10882      70654465 
 10883              	.LASF12:
 10884 0332 696E7431 		.ascii	"int16_t\000"
 10884      365F7400 
 10885              	.LASF173:
 10886 033a 68646673 		.ascii	"hdfsdm_filter\000"
 10886      646D5F66 
 10886      696C7465 
 10886      7200
 10887              	.LASF159:
ARM GAS  /tmp/ccjyqKqb.s 			page 195


 10888 0348 48414C5F 		.ascii	"HAL_DFSDM_ChannelCkabCallback\000"
 10888      44465344 
 10888      4D5F4368 
 10888      616E6E65 
 10888      6C436B61 
 10889              	.LASF0:
 10890 0366 7369676E 		.ascii	"signed char\000"
 10890      65642063 
 10890      68617200 
 10891              	.LASF85:
 10892 0372 48414C5F 		.ascii	"HAL_DFSDM_CHANNEL_STATE_ERROR\000"
 10892      44465344 
 10892      4D5F4348 
 10892      414E4E45 
 10892      4C5F5354 
 10893              	.LASF197:
 10894 0390 48414C5F 		.ascii	"HAL_DFSDM_FilterInjectedStart_DMA\000"
 10894      44465344 
 10894      4D5F4669 
 10894      6C746572 
 10894      496E6A65 
 10895              	.LASF157:
 10896 03b2 48414C5F 		.ascii	"HAL_DFSDM_ChannelCkabStop\000"
 10896      44465344 
 10896      4D5F4368 
 10896      616E6E65 
 10896      6C436B61 
 10897              	.LASF76:
 10898 03cc 58666572 		.ascii	"XferHalfCpltCallback\000"
 10898      48616C66 
 10898      43706C74 
 10898      43616C6C 
 10898      6261636B 
 10899              	.LASF123:
 10900 03e1 53696E63 		.ascii	"SincOrder\000"
 10900      4F726465 
 10900      7200
 10901              	.LASF100:
 10902 03eb 44465344 		.ascii	"DFSDM_Channel_AwdTypeDef\000"
 10902      4D5F4368 
 10902      616E6E65 
 10902      6C5F4177 
 10902      64547970 
 10903              	.LASF204:
 10904 0404 48414C5F 		.ascii	"HAL_DFSDM_FilterExdStart\000"
 10904      44465344 
 10904      4D5F4669 
 10904      6C746572 
 10904      45786453 
 10905              	.LASF121:
 10906 041d 45787454 		.ascii	"ExtTriggerEdge\000"
 10906      72696767 
 10906      65724564 
 10906      676500
 10907              	.LASF86:
 10908 042c 48414C5F 		.ascii	"HAL_DFSDM_Channel_StateTypeDef\000"
 10908      44465344 
ARM GAS  /tmp/ccjyqKqb.s 			page 196


 10908      4D5F4368 
 10908      616E6E65 
 10908      6C5F5374 
 10909              	.LASF55:
 10910 044b 48414C5F 		.ascii	"HAL_LockTypeDef\000"
 10910      4C6F636B 
 10910      54797065 
 10910      44656600 
 10911              	.LASF219:
 10912 045b 48414C5F 		.ascii	"HAL_DFSDM_FilterGetState\000"
 10912      44465344 
 10912      4D5F4669 
 10912      6C746572 
 10912      47657453 
 10913              	.LASF111:
 10914 0474 48414C5F 		.ascii	"HAL_DFSDM_FILTER_STATE_INJ\000"
 10914      44465344 
 10914      4D5F4649 
 10914      4C544552 
 10914      5F535441 
 10915              	.LASF69:
 10916 048f 48414C5F 		.ascii	"HAL_DMA_StateTypeDef\000"
 10916      444D415F 
 10916      53746174 
 10916      65547970 
 10916      65446566 
 10917              	.LASF6:
 10918 04a4 6C6F6E67 		.ascii	"long int\000"
 10918      20696E74 
 10918      00
 10919              	.LASF190:
 10920 04ad 48414C5F 		.ascii	"HAL_DFSDM_FilterGetRegularValue\000"
 10920      44465344 
 10920      4D5F4669 
 10920      6C746572 
 10920      47657452 
 10921              	.LASF22:
 10922 04cd 464C544A 		.ascii	"FLTJDATAR\000"
 10922      44415441 
 10922      5200
 10923              	.LASF58:
 10924 04d7 50657269 		.ascii	"PeriphInc\000"
 10924      7068496E 
 10924      6300
 10925              	.LASF108:
 10926 04e1 48414C5F 		.ascii	"HAL_DFSDM_FILTER_STATE_RESET\000"
 10926      44465344 
 10926      4D5F4649 
 10926      4C544552 
 10926      5F535441 
 10927              	.LASF114:
 10928 04fe 48414C5F 		.ascii	"HAL_DFSDM_Filter_StateTypeDef\000"
 10928      44465344 
 10928      4D5F4669 
 10928      6C746572 
 10928      5F537461 
 10929              	.LASF45:
ARM GAS  /tmp/ccjyqKqb.s 			page 197


 10930 051c 454E4142 		.ascii	"ENABLE\000"
 10930      4C4500
 10931              	.LASF9:
 10932 0523 6C6F6E67 		.ascii	"long long int\000"
 10932      206C6F6E 
 10932      6720696E 
 10932      7400
 10933              	.LASF233:
 10934 0531 44465344 		.ascii	"DFSDM_InjConvStart\000"
 10934      4D5F496E 
 10934      6A436F6E 
 10934      76537461 
 10934      727400
 10935              	.LASF147:
 10936 0544 48414C5F 		.ascii	"HAL_DFSDM_ChannelDeInit\000"
 10936      44465344 
 10936      4D5F4368 
 10936      616E6E65 
 10936      6C446549 
 10937              	.LASF224:
 10938 055c 44465344 		.ascii	"DFSDM_DMAInjectedHalfConvCplt\000"
 10938      4D5F444D 
 10938      41496E6A 
 10938      65637465 
 10938      6448616C 
 10939              	.LASF161:
 10940 057a 48414C5F 		.ascii	"HAL_DFSDM_ChannelScdStart\000"
 10940      44465344 
 10940      4D5F4368 
 10940      616E6E65 
 10940      6C536364 
 10941              	.LASF202:
 10942 0594 61776450 		.ascii	"awdParam\000"
 10942      6172616D 
 10942      00
 10943              	.LASF97:
 10944 059d 44465344 		.ascii	"DFSDM_Channel_SerialInterfaceTypeDef\000"
 10944      4D5F4368 
 10944      616E6E65 
 10944      6C5F5365 
 10944      7269616C 
 10945              	.LASF62:
 10946 05c2 4D6F6465 		.ascii	"Mode\000"
 10946      00
 10947              	.LASF74:
 10948 05c7 50617265 		.ascii	"Parent\000"
 10948      6E7400
 10949              	.LASF231:
 10950 05ce 44465344 		.ascii	"DFSDM_RegConvStart\000"
 10950      4D5F5265 
 10950      67436F6E 
 10950      76537461 
 10950      727400
 10951              	.LASF186:
 10952 05e1 70446174 		.ascii	"pData\000"
 10952      6100
 10953              	.LASF199:
ARM GAS  /tmp/ccjyqKqb.s 			page 198


 10954 05e7 48414C5F 		.ascii	"HAL_DFSDM_FilterInjectedStop_DMA\000"
 10954      44465344 
 10954      4D5F4669 
 10954      6C746572 
 10954      496E6A65 
 10955              	.LASF7:
 10956 0608 5F5F7569 		.ascii	"__uint32_t\000"
 10956      6E743332 
 10956      5F7400
 10957              	.LASF142:
 10958 0613 4C6F7754 		.ascii	"LowThreshold\000"
 10958      68726573 
 10958      686F6C64 
 10958      00
 10959              	.LASF184:
 10960 0620 48414C5F 		.ascii	"HAL_DFSDM_FilterRegularStop_IT\000"
 10960      44465344 
 10960      4D5F4669 
 10960      6C746572 
 10960      52656775 
 10961              	.LASF57:
 10962 063f 44697265 		.ascii	"Direction\000"
 10962      6374696F 
 10962      6E00
 10963              	.LASF4:
 10964 0649 5F5F696E 		.ascii	"__int16_t\000"
 10964      7431365F 
 10964      7400
 10965              	.LASF130:
 10966 0653 68646D61 		.ascii	"hdmaReg\000"
 10966      52656700 
 10967              	.LASF101:
 10968 065b 4F757470 		.ascii	"OutputClock\000"
 10968      7574436C 
 10968      6F636B00 
 10969              	.LASF230:
 10970 0667 44465344 		.ascii	"DFSDM_GetChannelFromInstance\000"
 10970      4D5F4765 
 10970      74436861 
 10970      6E6E656C 
 10970      46726F6D 
 10971              	.LASF191:
 10972 0684 76616C75 		.ascii	"value\000"
 10972      6500
 10973              	.LASF51:
 10974 068a 48414C5F 		.ascii	"HAL_TIMEOUT\000"
 10974      54494D45 
 10974      4F555400 
 10975              	.LASF225:
 10976 0696 44465344 		.ascii	"DFSDM_DMAInjectedConvCplt\000"
 10976      4D5F444D 
 10976      41496E6A 
 10976      65637465 
 10976      64436F6E 
 10977              	.LASF43:
 10978 06b0 444D415F 		.ascii	"DMA_TypeDef\000"
 10978      54797065 
ARM GAS  /tmp/ccjyqKqb.s 			page 199


 10978      44656600 
 10979              	.LASF11:
 10980 06bc 756E7369 		.ascii	"unsigned int\000"
 10980      676E6564 
 10980      20696E74 
 10980      00
 10981              	.LASF65:
 10982 06c9 48414C5F 		.ascii	"HAL_DMA_STATE_RESET\000"
 10982      444D415F 
 10982      53544154 
 10982      455F5245 
 10982      53455400 
 10983              	.LASF131:
 10984 06dd 68646D61 		.ascii	"hdmaInj\000"
 10984      496E6A00 
 10985              	.LASF109:
 10986 06e5 48414C5F 		.ascii	"HAL_DFSDM_FILTER_STATE_READY\000"
 10986      44465344 
 10986      4D5F4649 
 10986      4C544552 
 10986      5F535441 
 10987              	.LASF88:
 10988 0702 53656C65 		.ascii	"Selection\000"
 10988      6374696F 
 10988      6E00
 10989              	.LASF8:
 10990 070c 6C6F6E67 		.ascii	"long unsigned int\000"
 10990      20756E73 
 10990      69676E65 
 10990      6420696E 
 10990      7400
 10991              	.LASF35:
 10992 071e 43485744 		.ascii	"CHWDATAR\000"
 10992      41544152 
 10992      00
 10993              	.LASF117:
 10994 0727 446D614D 		.ascii	"DmaMode\000"
 10994      6F646500 
 10995              	.LASF48:
 10996 072f 48414C5F 		.ascii	"HAL_OK\000"
 10996      4F4B00
 10997              	.LASF110:
 10998 0736 48414C5F 		.ascii	"HAL_DFSDM_FILTER_STATE_REG\000"
 10998      44465344 
 10998      4D5F4649 
 10998      4C544552 
 10998      5F535441 
 10999              	.LASF167:
 11000 0751 48414C5F 		.ascii	"HAL_DFSDM_ChannelScdCallback\000"
 11000      44465344 
 11000      4D5F4368 
 11000      616E6E65 
 11000      6C536364 
 11001              	.LASF93:
 11002 076e 50696E73 		.ascii	"Pins\000"
 11002      00
 11003              	.LASF182:
ARM GAS  /tmp/ccjyqKqb.s 			page 200


 11004 0773 48414C5F 		.ascii	"HAL_DFSDM_FilterRegularStop\000"
 11004      44465344 
 11004      4D5F4669 
 11004      6C746572 
 11004      52656775 
 11005              	.LASF63:
 11006 078f 5072696F 		.ascii	"Priority\000"
 11006      72697479 
 11006      00
 11007              	.LASF215:
 11008 0798 48414C5F 		.ascii	"HAL_DFSDM_FilterInjConvCpltCallback\000"
 11008      44465344 
 11008      4D5F4669 
 11008      6C746572 
 11008      496E6A43 
 11009              	.LASF135:
 11010 07bc 496E6A65 		.ascii	"InjectedScanMode\000"
 11010      63746564 
 11010      5363616E 
 11010      4D6F6465 
 11010      00
 11011              	.LASF17:
 11012 07cd 464C5443 		.ascii	"FLTCR2\000"
 11012      523200
 11013              	.LASF151:
 11014 07d4 48414C5F 		.ascii	"HAL_DFSDM_ChannelCkabStart\000"
 11014      44465344 
 11014      4D5F4368 
 11014      616E6E65 
 11014      6C436B61 
 11015              	.LASF80:
 11016 07ef 446D6142 		.ascii	"DmaBaseAddress\000"
 11016      61736541 
 11016      64647265 
 11016      737300
 11017              	.LASF31:
 11018 07fe 44465344 		.ascii	"DFSDM_Filter_TypeDef\000"
 11018      4D5F4669 
 11018      6C746572 
 11018      5F547970 
 11018      65446566 
 11019              	.LASF214:
 11020 0813 48414C5F 		.ascii	"HAL_DFSDM_FilterRegConvHalfCpltCallback\000"
 11020      44465344 
 11020      4D5F4669 
 11020      6C746572 
 11020      52656743 
 11021              	.LASF79:
 11022 083b 4572726F 		.ascii	"ErrorCode\000"
 11022      72436F64 
 11022      6500
 11023              	.LASF107:
 11024 0845 44465344 		.ascii	"DFSDM_Channel_HandleTypeDef\000"
 11024      4D5F4368 
 11024      616E6E65 
 11024      6C5F4861 
 11024      6E646C65 
ARM GAS  /tmp/ccjyqKqb.s 			page 201


 11025              	.LASF160:
 11026 0861 48414C5F 		.ascii	"HAL_DFSDM_ChannelCkabStop_IT\000"
 11026      44465344 
 11026      4D5F4368 
 11026      616E6E65 
 11026      6C436B61 
 11027              	.LASF61:
 11028 087e 4D656D44 		.ascii	"MemDataAlignment\000"
 11028      61746141 
 11028      6C69676E 
 11028      6D656E74 
 11028      00
 11029              	.LASF72:
 11030 088f 4C6F636B 		.ascii	"Lock\000"
 11030      00
 11031              	.LASF158:
 11032 0894 48414C5F 		.ascii	"HAL_DFSDM_ChannelCkabStart_IT\000"
 11032      44465344 
 11032      4D5F4368 
 11032      616E6E65 
 11032      6C436B61 
 11033              	.LASF141:
 11034 08b2 48696768 		.ascii	"HighThreshold\000"
 11034      54687265 
 11034      73686F6C 
 11034      6400
 11035              	.LASF52:
 11036 08c0 48414C5F 		.ascii	"HAL_StatusTypeDef\000"
 11036      53746174 
 11036      75735479 
 11036      70654465 
 11036      6600
 11037              	.LASF124:
 11038 08d2 496E744F 		.ascii	"IntOversampling\000"
 11038      76657273 
 11038      616D706C 
 11038      696E6700 
 11039              	.LASF234:
 11040 08e2 44465344 		.ascii	"DFSDM_InjConvStop\000"
 11040      4D5F496E 
 11040      6A436F6E 
 11040      7653746F 
 11040      7000
 11041              	.LASF95:
 11042 08f4 54797065 		.ascii	"Type\000"
 11042      00
 11043              	.LASF205:
 11044 08f9 48414C5F 		.ascii	"HAL_DFSDM_FilterExdStop\000"
 11044      44465344 
 11044      4D5F4669 
 11044      6C746572 
 11044      45786453 
 11045              	.LASF66:
 11046 0911 48414C5F 		.ascii	"HAL_DMA_STATE_READY\000"
 11046      444D415F 
 11046      53544154 
 11046      455F5245 
ARM GAS  /tmp/ccjyqKqb.s 			page 202


 11046      41445900 
 11047              	.LASF196:
 11048 0925 48414C5F 		.ascii	"HAL_DFSDM_FilterInjectedStop_IT\000"
 11048      44465344 
 11048      4D5F4669 
 11048      6C746572 
 11048      496E6A65 
 11049              	.LASF71:
 11050 0945 496E6974 		.ascii	"Init\000"
 11050      00
 11051              	.LASF221:
 11052 094a 68646D61 		.ascii	"hdma\000"
 11052      00
 11053              	.LASF170:
 11054 094f 48414C5F 		.ascii	"HAL_DFSDM_ChannelModifyOffset\000"
 11054      44465344 
 11054      4D5F4368 
 11054      616E6E65 
 11054      6C4D6F64 
 11055              	.LASF169:
 11056 096d 48414C5F 		.ascii	"HAL_DFSDM_ChannelGetAwdValue\000"
 11056      44465344 
 11056      4D5F4368 
 11056      616E6E65 
 11056      6C476574 
 11057              	.LASF105:
 11058 098a 52696768 		.ascii	"RightBitShift\000"
 11058      74426974 
 11058      53686966 
 11058      7400
 11059              	.LASF211:
 11060 0998 48414C5F 		.ascii	"HAL_DFSDM_IRQHandler\000"
 11060      44465344 
 11060      4D5F4952 
 11060      5148616E 
 11060      646C6572 
 11061              	.LASF15:
 11062 09ad 73697A65 		.ascii	"sizetype\000"
 11062      74797065 
 11062      00
 11063              	.LASF24:
 11064 09b6 464C5441 		.ascii	"FLTAWHTR\000"
 11064      57485452 
 11064      00
 11065              	.LASF28:
 11066 09bf 464C5445 		.ascii	"FLTEXMAX\000"
 11066      584D4158 
 11066      00
 11067              	.LASF181:
 11068 09c8 48414C5F 		.ascii	"HAL_DFSDM_FilterPollForRegConversion\000"
 11068      44465344 
 11068      4D5F4669 
 11068      6C746572 
 11068      506F6C6C 
 11069              	.LASF143:
 11070 09ed 48696768 		.ascii	"HighBreakSignal\000"
 11070      42726561 
ARM GAS  /tmp/ccjyqKqb.s 			page 203


 11070      6B536967 
 11070      6E616C00 
 11071              	.LASF208:
 11072 09fd 48414C5F 		.ascii	"HAL_DFSDM_FilterGetExdMaxValue\000"
 11072      44465344 
 11072      4D5F4669 
 11072      6C746572 
 11072      47657445 
 11073              	.LASF54:
 11074 0a1c 48414C5F 		.ascii	"HAL_LOCKED\000"
 11074      4C4F434B 
 11074      454400
 11075              	.LASF125:
 11076 0a27 44465344 		.ascii	"DFSDM_Filter_FilterParamTypeDef\000"
 11076      4D5F4669 
 11076      6C746572 
 11076      5F46696C 
 11076      74657250 
 11077              	.LASF82:
 11078 0a47 444D415F 		.ascii	"DMA_HandleTypeDef\000"
 11078      48616E64 
 11078      6C655479 
 11078      70654465 
 11078      6600
 11079              	.LASF77:
 11080 0a59 58666572 		.ascii	"XferErrorCallback\000"
 11080      4572726F 
 11080      7243616C 
 11080      6C626163 
 11080      6B00
 11081              	.LASF29:
 11082 0a6b 464C5445 		.ascii	"FLTEXMIN\000"
 11082      584D494E 
 11082      00
 11083              	.LASF46:
 11084 0a74 46756E63 		.ascii	"FunctionalState\000"
 11084      74696F6E 
 11084      616C5374 
 11084      61746500 
 11085              	.LASF209:
 11086 0a84 48414C5F 		.ascii	"HAL_DFSDM_FilterGetExdMinValue\000"
 11086      44465344 
 11086      4D5F4669 
 11086      6C746572 
 11086      47657445 
 11087              	.LASF26:
 11088 0aa3 464C5441 		.ascii	"FLTAWSR\000"
 11088      57535200 
 11089              	.LASF16:
 11090 0aab 464C5443 		.ascii	"FLTCR1\000"
 11090      523100
 11091              	.LASF27:
 11092 0ab2 464C5441 		.ascii	"FLTAWCFR\000"
 11092      57434652 
 11092      00
 11093              	.LASF19:
 11094 0abb 464C5449 		.ascii	"FLTICR\000"
ARM GAS  /tmp/ccjyqKqb.s 			page 204


 11094      435200
 11095              	.LASF148:
 11096 0ac2 68646673 		.ascii	"hdfsdm_channel\000"
 11096      646D5F63 
 11096      68616E6E 
 11096      656C00
 11097              	.LASF134:
 11098 0ad1 496E6A65 		.ascii	"InjectedTrigger\000"
 11098      63746564 
 11098      54726967 
 11098      67657200 
 11099              	.LASF126:
 11100 0ae1 52656775 		.ascii	"RegularParam\000"
 11100      6C617250 
 11100      6172616D 
 11100      00
 11101              	.LASF183:
 11102 0aee 48414C5F 		.ascii	"HAL_DFSDM_FilterRegularStart_IT\000"
 11102      44465344 
 11102      4D5F4669 
 11102      6C746572 
 11102      52656775 
 11103              	.LASF201:
 11104 0b0e 48414C5F 		.ascii	"HAL_DFSDM_FilterAwdStart_IT\000"
 11104      44465344 
 11104      4D5F4669 
 11104      6C746572 
 11104      41776453 
 11105              	.LASF163:
 11106 0b2a 42726561 		.ascii	"BreakSignal\000"
 11106      6B536967 
 11106      6E616C00 
 11107              	.LASF236:
 11108 0b36 765F6466 		.ascii	"v_dfsdm1ChannelCounter\000"
 11108      73646D31 
 11108      4368616E 
 11108      6E656C43 
 11108      6F756E74 
 11109              	.LASF102:
 11110 0b4d 496E7075 		.ascii	"Input\000"
 11110      7400
 11111              	.LASF137:
 11112 0b53 496E6A43 		.ascii	"InjConvRemaining\000"
 11112      6F6E7652 
 11112      656D6169 
 11112      6E696E67 
 11112      00
 11113              	.LASF119:
 11114 0b64 5363616E 		.ascii	"ScanMode\000"
 11114      4D6F6465 
 11114      00
 11115              	.LASF217:
 11116 0b6d 48414C5F 		.ascii	"HAL_DFSDM_FilterAwdCallback\000"
 11116      44465344 
 11116      4D5F4669 
 11116      6C746572 
 11116      41776443 
ARM GAS  /tmp/ccjyqKqb.s 			page 205


 11117              	.LASF132:
 11118 0b89 52656775 		.ascii	"RegularContMode\000"
 11118      6C617243 
 11118      6F6E744D 
 11118      6F646500 
 11119              	.LASF87:
 11120 0b99 41637469 		.ascii	"Activation\000"
 11120      76617469 
 11120      6F6E00
 11121              	.LASF96:
 11122 0ba4 53706943 		.ascii	"SpiClock\000"
 11122      6C6F636B 
 11122      00
 11123              	.LASF70:
 11124 0bad 496E7374 		.ascii	"Instance\000"
 11124      616E6365 
 11124      00
 11125              	.LASF237:
 11126 0bb6 615F6466 		.ascii	"a_dfsdm1ChannelHandle\000"
 11126      73646D31 
 11126      4368616E 
 11126      6E656C48 
 11126      616E646C 
 11127              	.LASF206:
 11128 0bcc 72656731 		.ascii	"reg1\000"
 11128      00
 11129              	.LASF207:
 11130 0bd1 72656732 		.ascii	"reg2\000"
 11130      00
 11131              	.LASF168:
 11132 0bd6 48414C5F 		.ascii	"HAL_DFSDM_ChannelScdStop_IT\000"
 11132      44465344 
 11132      4D5F4368 
 11132      616E6E65 
 11132      6C536364 
 11133              	.LASF39:
 11134 0bf2 43504152 		.ascii	"CPAR\000"
 11134      00
 11135              	.LASF222:
 11136 0bf7 44465344 		.ascii	"DFSDM_DMARegularHalfConvCplt\000"
 11136      4D5F444D 
 11136      41526567 
 11136      756C6172 
 11136      48616C66 
 11137              	.LASF140:
 11138 0c14 4368616E 		.ascii	"Channel\000"
 11138      6E656C00 
 11139              	.LASF212:
 11140 0c1c 74687265 		.ascii	"threshold\000"
 11140      73686F6C 
 11140      6400
 11141              	.LASF13:
 11142 0c26 696E7433 		.ascii	"int32_t\000"
 11142      325F7400 
 11143              	.LASF1:
 11144 0c2e 756E7369 		.ascii	"unsigned char\000"
 11144      676E6564 
ARM GAS  /tmp/ccjyqKqb.s 			page 206


 11144      20636861 
 11144      7200
 11145              	.LASF20:
 11146 0c3c 464C544A 		.ascii	"FLTJCHGR\000"
 11146      43484752 
 11146      00
 11147              	.LASF172:
 11148 0c45 48414C5F 		.ascii	"HAL_DFSDM_FilterInit\000"
 11148      44465344 
 11148      4D5F4669 
 11148      6C746572 
 11148      496E6974 
 11149              	.LASF166:
 11150 0c5a 48414C5F 		.ascii	"HAL_DFSDM_ChannelScdStart_IT\000"
 11150      44465344 
 11150      4D5F4368 
 11150      616E6E65 
 11150      6C536364 
 11151              	.LASF99:
 11152 0c77 4F766572 		.ascii	"Oversampling\000"
 11152      73616D70 
 11152      6C696E67 
 11152      00
 11153              	.LASF227:
 11154 0c84 4368616E 		.ascii	"Channels\000"
 11154      6E656C73 
 11154      00
 11155              	.LASF2:
 11156 0c8d 73686F72 		.ascii	"short int\000"
 11156      7420696E 
 11156      7400
 11157              	.LASF67:
 11158 0c97 48414C5F 		.ascii	"HAL_DMA_STATE_BUSY\000"
 11158      444D415F 
 11158      53544154 
 11158      455F4255 
 11158      535900
 11159              	.LASF106:
 11160 0caa 44465344 		.ascii	"DFSDM_Channel_InitTypeDef\000"
 11160      4D5F4368 
 11160      616E6E65 
 11160      6C5F496E 
 11160      69745479 
 11161              	.LASF179:
 11162 0cc4 48414C5F 		.ascii	"HAL_DFSDM_FilterConfigInjChannel\000"
 11162      44465344 
 11162      4D5F4669 
 11162      6C746572 
 11162      436F6E66 
 11163              	.LASF116:
 11164 0ce5 46617374 		.ascii	"FastMode\000"
 11164      4D6F6465 
 11164      00
 11165              	.LASF154:
 11166 0cee 7469636B 		.ascii	"tickstart\000"
 11166      73746172 
 11166      7400
ARM GAS  /tmp/ccjyqKqb.s 			page 207


 11167              	.LASF218:
 11168 0cf8 48414C5F 		.ascii	"HAL_DFSDM_FilterErrorCallback\000"
 11168      44465344 
 11168      4D5F4669 
 11168      6C746572 
 11168      4572726F 
 11169              	.LASF32:
 11170 0d16 43484346 		.ascii	"CHCFGR1\000"
 11170      47523100 
 11171              	.LASF33:
 11172 0d1e 43484346 		.ascii	"CHCFGR2\000"
 11172      47523200 
 11173              	.LASF59:
 11174 0d26 4D656D49 		.ascii	"MemInc\000"
 11174      6E6300
 11175              	.LASF83:
 11176 0d2d 48414C5F 		.ascii	"HAL_DFSDM_CHANNEL_STATE_RESET\000"
 11176      44465344 
 11176      4D5F4348 
 11176      414E4E45 
 11176      4C5F5354 
 11177              	.LASF176:
 11178 0d4b 48414C5F 		.ascii	"HAL_DFSDM_FilterMspDeInit\000"
 11178      44465344 
 11178      4D5F4669 
 11178      6C746572 
 11178      4D737044 
 11179              	.LASF91:
 11180 0d65 4D756C74 		.ascii	"Multiplexer\000"
 11180      69706C65 
 11180      78657200 
 11181              	.LASF185:
 11182 0d71 48414C5F 		.ascii	"HAL_DFSDM_FilterRegularStart_DMA\000"
 11182      44465344 
 11182      4D5F4669 
 11182      6C746572 
 11182      52656775 
 11183              	.LASF92:
 11184 0d92 44617461 		.ascii	"DataPacking\000"
 11184      5061636B 
 11184      696E6700 
 11185              	.LASF156:
 11186 0d9e 54696D65 		.ascii	"Timeout\000"
 11186      6F757400 
 11187              	.LASF153:
 11188 0da6 6368616E 		.ascii	"channel\000"
 11188      6E656C00 
 11189              	.LASF189:
 11190 0dae 48414C5F 		.ascii	"HAL_DFSDM_FilterRegularStop_DMA\000"
 11190      44465344 
 11190      4D5F4669 
 11190      6C746572 
 11190      52656775 
 11191              	.LASF228:
 11192 0dce 6E624368 		.ascii	"nbChannels\000"
 11192      616E6E65 
 11192      6C7300
ARM GAS  /tmp/ccjyqKqb.s 			page 208


 11193              	.LASF198:
 11194 0dd9 48414C5F 		.ascii	"HAL_DFSDM_FilterInjectedMsbStart_DMA\000"
 11194      44465344 
 11194      4D5F4669 
 11194      6C746572 
 11194      496E6A65 
 11195              	.LASF138:
 11196 0dfe 44465344 		.ascii	"DFSDM_Filter_HandleTypeDef\000"
 11196      4D5F4669 
 11196      6C746572 
 11196      5F48616E 
 11196      646C6554 
 11197              	.LASF127:
 11198 0e19 496E6A65 		.ascii	"InjectedParam\000"
 11198      63746564 
 11198      50617261 
 11198      6D00
 11199              	.LASF241:
 11200 0e27 5F5F444D 		.ascii	"__DMA_HandleTypeDef\000"
 11200      415F4861 
 11200      6E646C65 
 11200      54797065 
 11200      44656600 
 11201              	.LASF14:
 11202 0e3b 75696E74 		.ascii	"uint32_t\000"
 11202      33325F74 
 11202      00
 11203              	.LASF49:
 11204 0e44 48414C5F 		.ascii	"HAL_ERROR\000"
 11204      4552524F 
 11204      5200
 11205              	.LASF129:
 11206 0e4e 44465344 		.ascii	"DFSDM_Filter_InitTypeDef\000"
 11206      4D5F4669 
 11206      6C746572 
 11206      5F496E69 
 11206      74547970 
 11207              	.LASF195:
 11208 0e67 48414C5F 		.ascii	"HAL_DFSDM_FilterInjectedStart_IT\000"
 11208      44465344 
 11208      4D5F4669 
 11208      6C746572 
 11208      496E6A65 
 11209              	.LASF89:
 11210 0e88 44697669 		.ascii	"Divider\000"
 11210      64657200 
 11211              	.LASF47:
 11212 0e90 63686172 		.ascii	"char\000"
 11212      00
 11213              	.LASF56:
 11214 0e95 52657175 		.ascii	"Request\000"
 11214      65737400 
 11215              	.LASF144:
 11216 0e9d 4C6F7742 		.ascii	"LowBreakSignal\000"
 11216      7265616B 
 11216      5369676E 
 11216      616C00
ARM GAS  /tmp/ccjyqKqb.s 			page 209


 11217              	.LASF73:
 11218 0eac 53746174 		.ascii	"State\000"
 11218      6500
 11219              	.LASF174:
 11220 0eb2 48414C5F 		.ascii	"HAL_DFSDM_FilterDeInit\000"
 11220      44465344 
 11220      4D5F4669 
 11220      6C746572 
 11220      4465496E 
 11221              	.LASF139:
 11222 0ec9 44617461 		.ascii	"DataSource\000"
 11222      536F7572 
 11222      636500
 11223              	.LASF68:
 11224 0ed4 48414C5F 		.ascii	"HAL_DMA_STATE_TIMEOUT\000"
 11224      444D415F 
 11224      53544154 
 11224      455F5449 
 11224      4D454F55 
 11225              	.LASF23:
 11226 0eea 464C5452 		.ascii	"FLTRDATAR\000"
 11226      44415441 
 11226      5200
 11227              	.LASF25:
 11228 0ef4 464C5441 		.ascii	"FLTAWLTR\000"
 11228      574C5452 
 11228      00
 11229              	.LASF128:
 11230 0efd 46696C74 		.ascii	"FilterParam\000"
 11230      65725061 
 11230      72616D00 
 11231              	.LASF90:
 11232 0f09 44465344 		.ascii	"DFSDM_Channel_OutputClockTypeDef\000"
 11232      4D5F4368 
 11232      616E6E65 
 11232      6C5F4F75 
 11232      74707574 
 11233              	.LASF5:
 11234 0f2a 5F5F696E 		.ascii	"__int32_t\000"
 11234      7433325F 
 11234      7400
 11235              	.LASF94:
 11236 0f34 44465344 		.ascii	"DFSDM_Channel_InputTypeDef\000"
 11236      4D5F4368 
 11236      616E6E65 
 11236      6C5F496E 
 11236      70757454 
 11237              	.LASF103:
 11238 0f4f 53657269 		.ascii	"SerialInterface\000"
 11238      616C496E 
 11238      74657266 
 11238      61636500 
 11239              	.LASF41:
 11240 0f5f 444D415F 		.ascii	"DMA_Channel_TypeDef\000"
 11240      4368616E 
 11240      6E656C5F 
 11240      54797065 
ARM GAS  /tmp/ccjyqKqb.s 			page 210


 11240      44656600 
 11241              	.LASF84:
 11242 0f73 48414C5F 		.ascii	"HAL_DFSDM_CHANNEL_STATE_READY\000"
 11242      44465344 
 11242      4D5F4348 
 11242      414E4E45 
 11242      4C5F5354 
 11243              	.LASF3:
 11244 0f91 73686F72 		.ascii	"short unsigned int\000"
 11244      7420756E 
 11244      7369676E 
 11244      65642069 
 11244      6E7400
 11245              	.LASF30:
 11246 0fa4 464C5443 		.ascii	"FLTCNVTIMR\000"
 11246      4E565449 
 11246      4D5200
 11247              	.LASF188:
 11248 0faf 48414C5F 		.ascii	"HAL_DFSDM_FilterRegularMsbStart_DMA\000"
 11248      44465344 
 11248      4D5F4669 
 11248      6C746572 
 11248      52656775 
 11249              	.LASF187:
 11250 0fd3 4C656E67 		.ascii	"Length\000"
 11250      746800
 11251              	.LASF18:
 11252 0fda 464C5449 		.ascii	"FLTISR\000"
 11252      535200
 11253              	.LASF145:
 11254 0fe1 44465344 		.ascii	"DFSDM_Filter_AwdParamTypeDef\000"
 11254      4D5F4669 
 11254      6C746572 
 11254      5F417764 
 11254      50617261 
 11255              	.LASF104:
 11256 0ffe 4F666673 		.ascii	"Offset\000"
 11256      657400
 11257              	.LASF200:
 11258 1005 48414C5F 		.ascii	"HAL_DFSDM_FilterGetInjectedValue\000"
 11258      44465344 
 11258      4D5F4669 
 11258      6C746572 
 11258      47657449 
 11259              	.LASF192:
 11260 1026 48414C5F 		.ascii	"HAL_DFSDM_FilterInjectedStart\000"
 11260      44465344 
 11260      4D5F4669 
 11260      6C746572 
 11260      496E6A65 
 11261              	.LASF60:
 11262 1044 50657269 		.ascii	"PeriphDataAlignment\000"
 11262      70684461 
 11262      7461416C 
 11262      69676E6D 
 11262      656E7400 
 11263              	.LASF162:
ARM GAS  /tmp/ccjyqKqb.s 			page 211


 11264 1058 54687265 		.ascii	"Threshold\000"
 11264      73686F6C 
 11264      6400
 11265              	.LASF240:
 11266 1062 2F752F65 		.ascii	"/u/elawton2/p442-submissions/sensortile/reference/b"
 11266      6C617774 
 11266      6F6E322F 
 11266      70343432 
 11266      2D737562 
 11267 1095 6C75656D 		.ascii	"luemicrosystem2/BlueMicrosystem2_V2.2.0/Projects/Mu"
 11267      6963726F 
 11267      73797374 
 11267      656D322F 
 11267      426C7565 
 11268 10c8 6C74692F 		.ascii	"lti/Applications/BlueMicrosystem2/bluechibi\000"
 11268      4170706C 
 11268      69636174 
 11268      696F6E73 
 11268      2F426C75 
 11269              	.LASF152:
 11270 10f4 73746174 		.ascii	"status\000"
 11270      757300
 11271              	.LASF38:
 11272 10fb 434E4454 		.ascii	"CNDTR\000"
 11272      5200
 11273              	.LASF40:
 11274 1101 434D4152 		.ascii	"CMAR\000"
 11274      00
 11275              	.LASF115:
 11276 1106 54726967 		.ascii	"Trigger\000"
 11276      67657200 
 11277              	.LASF239:
 11278 110e 2E2E2F2E 		.ascii	"../../../../../Drivers/STM32L4xx_HAL_Driver/Src/stm"
 11278      2E2F2E2E 
 11278      2F2E2E2F 
 11278      2E2E2F44 
 11278      72697665 
 11279 1141 33326C34 		.ascii	"32l4xx_hal_dfsdm.c\000"
 11279      78785F68 
 11279      616C5F64 
 11279      6673646D 
 11279      2E6300
 11280              	.LASF165:
 11281 1154 48414C5F 		.ascii	"HAL_DFSDM_ChannelScdStop\000"
 11281      44465344 
 11281      4D5F4368 
 11281      616E6E65 
 11281      6C536364 
 11282              	.LASF220:
 11283 116d 48414C5F 		.ascii	"HAL_DFSDM_FilterGetError\000"
 11283      44465344 
 11283      4D5F4669 
 11283      6C746572 
 11283      47657445 
 11284              	.LASF146:
 11285 1186 48414C5F 		.ascii	"HAL_DFSDM_ChannelInit\000"
 11285      44465344 
ARM GAS  /tmp/ccjyqKqb.s 			page 212


 11285      4D5F4368 
 11285      616E6E65 
 11285      6C496E69 
 11286              	.LASF133:
 11287 119c 52656775 		.ascii	"RegularTrigger\000"
 11287      6C617254 
 11287      72696767 
 11287      657200
 11288              	.LASF149:
 11289 11ab 48414C5F 		.ascii	"HAL_DFSDM_ChannelMspInit\000"
 11289      44465344 
 11289      4D5F4368 
 11289      616E6E65 
 11289      6C4D7370 
 11290              	.LASF223:
 11291 11c4 44465344 		.ascii	"DFSDM_DMARegularConvCplt\000"
 11291      4D5F444D 
 11291      41526567 
 11291      756C6172 
 11291      436F6E76 
 11292              	.LASF150:
 11293 11dd 48414C5F 		.ascii	"HAL_DFSDM_ChannelMspDeInit\000"
 11293      44465344 
 11293      4D5F4368 
 11293      616E6E65 
 11293      6C4D7370 
 11294              	.LASF42:
 11295 11f8 49464352 		.ascii	"IFCR\000"
 11295      00
 11296              	.LASF36:
 11297 11fd 43484441 		.ascii	"CHDATINR\000"
 11297      54494E52 
 11297      00
 11298              	.LASF53:
 11299 1206 48414C5F 		.ascii	"HAL_UNLOCKED\000"
 11299      554E4C4F 
 11299      434B4544 
 11299      00
 11300              	.LASF81:
 11301 1213 4368616E 		.ascii	"ChannelIndex\000"
 11301      6E656C49 
 11301      6E646578 
 11301      00
 11302              	.LASF177:
 11303 1220 48414C5F 		.ascii	"HAL_DFSDM_FilterConfigRegChannel\000"
 11303      44465344 
 11303      4D5F4669 
 11303      6C746572 
 11303      436F6E66 
 11304              	.LASF78:
 11305 1241 58666572 		.ascii	"XferAbortCallback\000"
 11305      41626F72 
 11305      7443616C 
 11305      6C626163 
 11305      6B00
 11306              	.LASF243:
 11307 1253 72657375 		.ascii	"result\000"
ARM GAS  /tmp/ccjyqKqb.s 			page 213


 11307      6C7400
 11308              	.LASF75:
 11309 125a 58666572 		.ascii	"XferCpltCallback\000"
 11309      43706C74 
 11309      43616C6C 
 11309      6261636B 
 11309      00
 11310              	.LASF34:
 11311 126b 43484157 		.ascii	"CHAWSCDR\000"
 11311      53434452 
 11311      00
 11312              	.LASF171:
 11313 1274 48414C5F 		.ascii	"HAL_DFSDM_ChannelGetState\000"
 11313      44465344 
 11313      4D5F4368 
 11313      616E6E65 
 11313      6C476574 
 11314              	.LASF136:
 11315 128e 496E6A65 		.ascii	"InjectedChannelsNbr\000"
 11315      63746564 
 11315      4368616E 
 11315      6E656C73 
 11315      4E627200 
 11316              		.ident	"GCC: (GNU Tools for ARM Embedded Processors) 4.8.4 20140526 (release) [ARM/embedded-4_8-br
ARM GAS  /tmp/ccjyqKqb.s 			page 214


DEFINED SYMBOLS
                            *ABS*:00000000 stm32l4xx_hal_dfsdm.c
     /tmp/ccjyqKqb.s:23     .bss:00000000 v_dfsdm1ChannelCounter
     /tmp/ccjyqKqb.s:20     .bss:00000000 $d
     /tmp/ccjyqKqb.s:29     .bss:00000004 a_dfsdm1ChannelHandle
     /tmp/ccjyqKqb.s:32     .text:00000000 $t
     /tmp/ccjyqKqb.s:38     .text:00000000 HAL_DFSDM_ChannelInit
     /tmp/ccjyqKqb.s:5656   .text:00001e20 DFSDM_GetChannelFromInstance
     /tmp/ccjyqKqb.s:447    .text:00000270 HAL_DFSDM_ChannelMspInit
     /tmp/ccjyqKqb.s:336    .text:000001c8 $d
     /tmp/ccjyqKqb.s:342    .text:000001d4 $t
     /tmp/ccjyqKqb.s:348    .text:000001e0 HAL_DFSDM_ChannelDeInit
     /tmp/ccjyqKqb.s:470    .text:00000280 HAL_DFSDM_ChannelMspDeInit
     /tmp/ccjyqKqb.s:435    .text:00000264 $d
     /tmp/ccjyqKqb.s:441    .text:00000270 $t
     /tmp/ccjyqKqb.s:493    .text:00000290 HAL_DFSDM_ChannelCkabStart
     /tmp/ccjyqKqb.s:621    .text:00000354 $d
     /tmp/ccjyqKqb.s:625    .text:00000358 $t
     /tmp/ccjyqKqb.s:631    .text:00000360 HAL_DFSDM_ChannelPollForCkab
     /tmp/ccjyqKqb.s:750    .text:00000408 $d
     /tmp/ccjyqKqb.s:754    .text:0000040c $t
     /tmp/ccjyqKqb.s:760    .text:00000410 HAL_DFSDM_ChannelCkabStop
     /tmp/ccjyqKqb.s:835    .text:0000047c $d
     /tmp/ccjyqKqb.s:839    .text:00000480 $t
     /tmp/ccjyqKqb.s:845    .text:00000480 HAL_DFSDM_ChannelCkabStart_IT
     /tmp/ccjyqKqb.s:979    .text:00000550 $d
     /tmp/ccjyqKqb.s:983    .text:00000554 $t
     /tmp/ccjyqKqb.s:989    .text:00000560 HAL_DFSDM_ChannelCkabCallback
     /tmp/ccjyqKqb.s:1012   .text:00000570 HAL_DFSDM_ChannelCkabStop_IT
     /tmp/ccjyqKqb.s:1093   .text:000005e8 $d
     /tmp/ccjyqKqb.s:1097   .text:000005ec $t
     /tmp/ccjyqKqb.s:1103   .text:000005f0 HAL_DFSDM_ChannelScdStart
     /tmp/ccjyqKqb.s:1191   .text:00000670 HAL_DFSDM_ChannelPollForScd
     /tmp/ccjyqKqb.s:1309   .text:00000714 $d
     /tmp/ccjyqKqb.s:1313   .text:00000718 $t
     /tmp/ccjyqKqb.s:1319   .text:00000720 HAL_DFSDM_ChannelScdStop
     /tmp/ccjyqKqb.s:1394   .text:0000078c $d
     /tmp/ccjyqKqb.s:1398   .text:00000790 $t
     /tmp/ccjyqKqb.s:1404   .text:00000790 HAL_DFSDM_ChannelScdStart_IT
     /tmp/ccjyqKqb.s:1492   .text:00000814 $d
     /tmp/ccjyqKqb.s:1496   .text:00000818 $t
     /tmp/ccjyqKqb.s:1502   .text:00000820 HAL_DFSDM_ChannelScdCallback
     /tmp/ccjyqKqb.s:1525   .text:00000830 HAL_DFSDM_ChannelScdStop_IT
     /tmp/ccjyqKqb.s:1606   .text:000008a8 $d
     /tmp/ccjyqKqb.s:1610   .text:000008ac $t
     /tmp/ccjyqKqb.s:1616   .text:000008b0 HAL_DFSDM_ChannelGetAwdValue
     /tmp/ccjyqKqb.s:1646   .text:000008d0 HAL_DFSDM_ChannelModifyOffset
     /tmp/ccjyqKqb.s:1722   .text:00000930 HAL_DFSDM_ChannelGetState
     /tmp/ccjyqKqb.s:1749   .text:00000940 HAL_DFSDM_FilterInit
     /tmp/ccjyqKqb.s:2097   .text:00000b50 HAL_DFSDM_FilterMspInit
     /tmp/ccjyqKqb.s:2034   .text:00000b00 $d
     /tmp/ccjyqKqb.s:2039   .text:00000b08 $t
     /tmp/ccjyqKqb.s:2045   .text:00000b10 HAL_DFSDM_FilterDeInit
     /tmp/ccjyqKqb.s:2120   .text:00000b60 HAL_DFSDM_FilterMspDeInit
     /tmp/ccjyqKqb.s:2143   .text:00000b70 HAL_DFSDM_FilterConfigRegChannel
     /tmp/ccjyqKqb.s:2236   .text:00000c00 HAL_DFSDM_FilterConfigInjChannel
     /tmp/ccjyqKqb.s:5602   .text:00001de0 DFSDM_GetInjChannelsNbr
ARM GAS  /tmp/ccjyqKqb.s 			page 215


     /tmp/ccjyqKqb.s:2314   .text:00000c70 HAL_DFSDM_FilterRegularStart
     /tmp/ccjyqKqb.s:5774   .text:00001ec0 DFSDM_RegConvStart
     /tmp/ccjyqKqb.s:2366   .text:00000cb0 HAL_DFSDM_FilterPollForRegConversion
     /tmp/ccjyqKqb.s:5367   .text:00001d10 HAL_DFSDM_FilterErrorCallback
     /tmp/ccjyqKqb.s:2492   .text:00000d60 HAL_DFSDM_FilterRegularStop
     /tmp/ccjyqKqb.s:5887   .text:00001f60 DFSDM_RegConvStop
     /tmp/ccjyqKqb.s:2543   .text:00000da0 HAL_DFSDM_FilterRegularStart_IT
     /tmp/ccjyqKqb.s:2603   .text:00000df0 HAL_DFSDM_FilterRegularStop_IT
     /tmp/ccjyqKqb.s:2662   .text:00000e40 HAL_DFSDM_FilterRegularStart_DMA
     /tmp/ccjyqKqb.s:2841   .text:00000f48 $d
     /tmp/ccjyqKqb.s:5474   .text:00001d60 DFSDM_DMARegularConvCplt
     /tmp/ccjyqKqb.s:5567   .text:00001dc0 DFSDM_DMAError
     /tmp/ccjyqKqb.s:5443   .text:00001d40 DFSDM_DMARegularHalfConvCplt
     /tmp/ccjyqKqb.s:2847   .text:00000f54 $t
     /tmp/ccjyqKqb.s:2853   .text:00000f60 HAL_DFSDM_FilterRegularMsbStart_DMA
     /tmp/ccjyqKqb.s:3032   .text:00001068 $d
     /tmp/ccjyqKqb.s:3038   .text:00001074 $t
     /tmp/ccjyqKqb.s:3044   .text:00001080 HAL_DFSDM_FilterRegularStop_DMA
     /tmp/ccjyqKqb.s:3112   .text:000010e0 HAL_DFSDM_FilterGetRegularValue
     /tmp/ccjyqKqb.s:3177   .text:00001130 HAL_DFSDM_FilterInjectedStart
     /tmp/ccjyqKqb.s:5991   .text:00001ff0 DFSDM_InjConvStart
     /tmp/ccjyqKqb.s:3229   .text:00001170 HAL_DFSDM_FilterPollForInjConversion
     /tmp/ccjyqKqb.s:3378   .text:00001240 HAL_DFSDM_FilterInjectedStop
     /tmp/ccjyqKqb.s:6105   .text:000020a0 DFSDM_InjConvStop
     /tmp/ccjyqKqb.s:3429   .text:00001280 HAL_DFSDM_FilterInjectedStart_IT
     /tmp/ccjyqKqb.s:3489   .text:000012d0 HAL_DFSDM_FilterInjectedStop_IT
     /tmp/ccjyqKqb.s:3548   .text:00001320 HAL_DFSDM_FilterInjectedStart_DMA
     /tmp/ccjyqKqb.s:3718   .text:0000141c $d
     /tmp/ccjyqKqb.s:5536   .text:00001da0 DFSDM_DMAInjectedConvCplt
     /tmp/ccjyqKqb.s:5505   .text:00001d80 DFSDM_DMAInjectedHalfConvCplt
     /tmp/ccjyqKqb.s:3724   .text:00001428 $t
     /tmp/ccjyqKqb.s:3730   .text:00001430 HAL_DFSDM_FilterInjectedMsbStart_DMA
     /tmp/ccjyqKqb.s:3900   .text:0000152c $d
     /tmp/ccjyqKqb.s:3906   .text:00001538 $t
     /tmp/ccjyqKqb.s:3912   .text:00001540 HAL_DFSDM_FilterInjectedStop_DMA
     /tmp/ccjyqKqb.s:3980   .text:000015a0 HAL_DFSDM_FilterGetInjectedValue
     /tmp/ccjyqKqb.s:4045   .text:000015f0 HAL_DFSDM_FilterAwdStart_IT
     /tmp/ccjyqKqb.s:4233   .text:00001710 HAL_DFSDM_FilterAwdStop_IT
     /tmp/ccjyqKqb.s:4318   .text:00001790 HAL_DFSDM_FilterExdStart
     /tmp/ccjyqKqb.s:4402   .text:00001800 HAL_DFSDM_FilterExdStop
     /tmp/ccjyqKqb.s:4471   .text:00001860 HAL_DFSDM_FilterGetExdMaxValue
     /tmp/ccjyqKqb.s:4536   .text:000018b0 HAL_DFSDM_FilterGetExdMinValue
     /tmp/ccjyqKqb.s:4601   .text:00001900 HAL_DFSDM_FilterGetConvTimeValue
     /tmp/ccjyqKqb.s:4660   .text:00001940 HAL_DFSDM_IRQHandler
     /tmp/ccjyqKqb.s:5250   .text:00001cc0 HAL_DFSDM_FilterRegConvCpltCallback
     /tmp/ccjyqKqb.s:5296   .text:00001ce0 HAL_DFSDM_FilterInjConvCpltCallback
     /tmp/ccjyqKqb.s:5342   .text:00001d00 HAL_DFSDM_FilterAwdCallback
     /tmp/ccjyqKqb.s:5239   .text:00001cac $d
     /tmp/ccjyqKqb.s:5244   .text:00001cb4 $t
     /tmp/ccjyqKqb.s:5273   .text:00001cd0 HAL_DFSDM_FilterRegConvHalfCpltCallback
     /tmp/ccjyqKqb.s:5319   .text:00001cf0 HAL_DFSDM_FilterInjConvHalfCpltCallback
     /tmp/ccjyqKqb.s:5390   .text:00001d20 HAL_DFSDM_FilterGetState
     /tmp/ccjyqKqb.s:5417   .text:00001d30 HAL_DFSDM_FilterGetError
     /tmp/ccjyqKqb.s:5758   .text:00001ea0 $d
     /tmp/ccjyqKqb.s:5769   .text:00001ec0 $t
                     .debug_frame:00000010 $d

ARM GAS  /tmp/ccjyqKqb.s 			page 216


UNDEFINED SYMBOLS
HAL_GetTick
HAL_DMA_Start_IT
HAL_DMA_Abort
