ARM GAS  /tmp/ccUiHCLc.s 			page 1


   1              		.syntax unified
   2              		.cpu cortex-m4
   3              		.fpu softvfp
   4              		.eabi_attribute 20, 1
   5              		.eabi_attribute 21, 1
   6              		.eabi_attribute 23, 3
   7              		.eabi_attribute 24, 1
   8              		.eabi_attribute 25, 1
   9              		.eabi_attribute 26, 1
  10              		.eabi_attribute 30, 6
  11              		.eabi_attribute 34, 1
  12              		.eabi_attribute 18, 4
  13              		.thumb
  14              		.file	"stm32l4xx_hal_tim_ex.c"
  15              		.text
  16              	.Ltext0:
  17              		.cfi_sections	.debug_frame
  18              		.align	2
  19              		.p2align 4,,15
  20              		.global	HAL_TIMEx_HallSensor_Init
  21              		.thumb
  22              		.thumb_func
  23              		.type	HAL_TIMEx_HallSensor_Init, %function
  24              	HAL_TIMEx_HallSensor_Init:
  25              	.LFB125:
  26              		.file 1 "../../../../../Drivers/STM32L4xx_HAL_Driver/Src/stm32l4xx_hal_tim_ex.c"
  27              		.loc 1 158 0
  28              		.cfi_startproc
  29              		@ args = 0, pretend = 0, frame = 40
  30              		@ frame_needed = 0, uses_anonymous_args = 0
  31 0000 00B5     		push	{lr}
  32              		.cfi_def_cfa_offset 4
  33              		.cfi_offset 14, -4
  34 0002 8BB0     		sub	sp, sp, #44
  35              		.cfi_def_cfa_offset 48
  36 0004 0190     		str	r0, [sp, #4]
  37 0006 0091     		str	r1, [sp]
  38              		.loc 1 162 0
  39 0008 019B     		ldr	r3, [sp, #4]
  40 000a 002B     		cmp	r3, #0
  41 000c 01D1     		bne	.L2
  42              		.loc 1 164 0
  43 000e 0123     		movs	r3, #1
  44 0010 89E0     		b	.L5
  45              	.L2:
  46              		.loc 1 174 0
  47 0012 019B     		ldr	r3, [sp, #4]
  48 0014 93F83930 		ldrb	r3, [r3, #57]
  49 0018 DBB2     		uxtb	r3, r3
  50 001a 002B     		cmp	r3, #0
  51 001c 06D1     		bne	.L4
  52              		.loc 1 177 0
  53 001e 019B     		ldr	r3, [sp, #4]
  54 0020 0022     		movs	r2, #0
  55 0022 83F83820 		strb	r2, [r3, #56]
  56              		.loc 1 180 0
  57 0026 0198     		ldr	r0, [sp, #4]
ARM GAS  /tmp/ccUiHCLc.s 			page 2


  58 0028 FFF7FEFF 		bl	HAL_TIMEx_HallSensor_MspInit
  59              	.L4:
  60              		.loc 1 184 0
  61 002c 019B     		ldr	r3, [sp, #4]
  62 002e 0222     		movs	r2, #2
  63 0030 83F83920 		strb	r2, [r3, #57]
  64              		.loc 1 187 0
  65 0034 019B     		ldr	r3, [sp, #4]
  66 0036 1A68     		ldr	r2, [r3]
  67 0038 019B     		ldr	r3, [sp, #4]
  68 003a 0433     		adds	r3, r3, #4
  69 003c 1046     		mov	r0, r2
  70 003e 1946     		mov	r1, r3
  71 0040 FFF7FEFF 		bl	TIM_Base_SetConfig
  72              		.loc 1 190 0
  73 0044 019B     		ldr	r3, [sp, #4]
  74 0046 1968     		ldr	r1, [r3]
  75 0048 009B     		ldr	r3, [sp]
  76 004a 1A68     		ldr	r2, [r3]
  77 004c 009B     		ldr	r3, [sp]
  78 004e 9B68     		ldr	r3, [r3, #8]
  79 0050 0846     		mov	r0, r1
  80 0052 1146     		mov	r1, r2
  81 0054 0322     		movs	r2, #3
  82 0056 FFF7FEFF 		bl	TIM_TI1_SetConfig
  83              		.loc 1 193 0
  84 005a 019B     		ldr	r3, [sp, #4]
  85 005c 1B68     		ldr	r3, [r3]
  86 005e 019A     		ldr	r2, [sp, #4]
  87 0060 1268     		ldr	r2, [r2]
  88 0062 9269     		ldr	r2, [r2, #24]
  89 0064 22F00C02 		bic	r2, r2, #12
  90 0068 9A61     		str	r2, [r3, #24]
  91              		.loc 1 195 0
  92 006a 019B     		ldr	r3, [sp, #4]
  93 006c 1B68     		ldr	r3, [r3]
  94 006e 019A     		ldr	r2, [sp, #4]
  95 0070 1268     		ldr	r2, [r2]
  96 0072 9169     		ldr	r1, [r2, #24]
  97 0074 009A     		ldr	r2, [sp]
  98 0076 5268     		ldr	r2, [r2, #4]
  99 0078 0A43     		orrs	r2, r2, r1
 100 007a 9A61     		str	r2, [r3, #24]
 101              		.loc 1 198 0
 102 007c 019B     		ldr	r3, [sp, #4]
 103 007e 1B68     		ldr	r3, [r3]
 104 0080 019A     		ldr	r2, [sp, #4]
 105 0082 1268     		ldr	r2, [r2]
 106 0084 5268     		ldr	r2, [r2, #4]
 107 0086 42F08002 		orr	r2, r2, #128
 108 008a 5A60     		str	r2, [r3, #4]
 109              		.loc 1 201 0
 110 008c 019B     		ldr	r3, [sp, #4]
 111 008e 1B68     		ldr	r3, [r3]
 112 0090 019A     		ldr	r2, [sp, #4]
 113 0092 1268     		ldr	r2, [r2]
 114 0094 9268     		ldr	r2, [r2, #8]
ARM GAS  /tmp/ccUiHCLc.s 			page 3


 115 0096 22F07002 		bic	r2, r2, #112
 116 009a 9A60     		str	r2, [r3, #8]
 117              		.loc 1 202 0
 118 009c 019B     		ldr	r3, [sp, #4]
 119 009e 1B68     		ldr	r3, [r3]
 120 00a0 019A     		ldr	r2, [sp, #4]
 121 00a2 1268     		ldr	r2, [r2]
 122 00a4 9268     		ldr	r2, [r2, #8]
 123 00a6 42F04002 		orr	r2, r2, #64
 124 00aa 9A60     		str	r2, [r3, #8]
 125              		.loc 1 205 0
 126 00ac 019B     		ldr	r3, [sp, #4]
 127 00ae 1A68     		ldr	r2, [r3]
 128 00b0 019B     		ldr	r3, [sp, #4]
 129 00b2 1B68     		ldr	r3, [r3]
 130 00b4 9B68     		ldr	r3, [r3, #8]
 131 00b6 23F48033 		bic	r3, r3, #65536
 132 00ba 23F00703 		bic	r3, r3, #7
 133 00be 9360     		str	r3, [r2, #8]
 134              		.loc 1 206 0
 135 00c0 019B     		ldr	r3, [sp, #4]
 136 00c2 1B68     		ldr	r3, [r3]
 137 00c4 019A     		ldr	r2, [sp, #4]
 138 00c6 1268     		ldr	r2, [r2]
 139 00c8 9268     		ldr	r2, [r2, #8]
 140 00ca 42F00402 		orr	r2, r2, #4
 141 00ce 9A60     		str	r2, [r3, #8]
 142              		.loc 1 209 0
 143 00d0 0023     		movs	r3, #0
 144 00d2 0793     		str	r3, [sp, #28]
 145              		.loc 1 210 0
 146 00d4 0023     		movs	r3, #0
 147 00d6 0893     		str	r3, [sp, #32]
 148              		.loc 1 211 0
 149 00d8 7023     		movs	r3, #112
 150 00da 0393     		str	r3, [sp, #12]
 151              		.loc 1 212 0
 152 00dc 0023     		movs	r3, #0
 153 00de 0993     		str	r3, [sp, #36]
 154              		.loc 1 213 0
 155 00e0 0023     		movs	r3, #0
 156 00e2 0693     		str	r3, [sp, #24]
 157              		.loc 1 214 0
 158 00e4 0023     		movs	r3, #0
 159 00e6 0593     		str	r3, [sp, #20]
 160              		.loc 1 215 0
 161 00e8 009B     		ldr	r3, [sp]
 162 00ea DB68     		ldr	r3, [r3, #12]
 163 00ec 0493     		str	r3, [sp, #16]
 164              		.loc 1 217 0
 165 00ee 019B     		ldr	r3, [sp, #4]
 166 00f0 1A68     		ldr	r2, [r3]
 167 00f2 03AB     		add	r3, sp, #12
 168 00f4 1046     		mov	r0, r2
 169 00f6 1946     		mov	r1, r3
 170 00f8 FFF7FEFF 		bl	TIM_OC2_SetConfig
 171              		.loc 1 221 0
ARM GAS  /tmp/ccUiHCLc.s 			page 4


 172 00fc 019B     		ldr	r3, [sp, #4]
 173 00fe 1B68     		ldr	r3, [r3]
 174 0100 019A     		ldr	r2, [sp, #4]
 175 0102 1268     		ldr	r2, [r2]
 176 0104 5268     		ldr	r2, [r2, #4]
 177 0106 22F07002 		bic	r2, r2, #112
 178 010a 5A60     		str	r2, [r3, #4]
 179              		.loc 1 222 0
 180 010c 019B     		ldr	r3, [sp, #4]
 181 010e 1B68     		ldr	r3, [r3]
 182 0110 019A     		ldr	r2, [sp, #4]
 183 0112 1268     		ldr	r2, [r2]
 184 0114 5268     		ldr	r2, [r2, #4]
 185 0116 42F05002 		orr	r2, r2, #80
 186 011a 5A60     		str	r2, [r3, #4]
 187              		.loc 1 225 0
 188 011c 019B     		ldr	r3, [sp, #4]
 189 011e 0122     		movs	r2, #1
 190 0120 83F83920 		strb	r2, [r3, #57]
 191              		.loc 1 227 0
 192 0124 0023     		movs	r3, #0
 193              	.L5:
 194              		.loc 1 228 0
 195 0126 1846     		mov	r0, r3
 196 0128 0BB0     		add	sp, sp, #44
 197              		@ sp needed
 198 012a 5DF804FB 		ldr	pc, [sp], #4
 199              		.cfi_endproc
 200              	.LFE125:
 201              		.size	HAL_TIMEx_HallSensor_Init, .-HAL_TIMEx_HallSensor_Init
 202 012e 00BF     		.align	2
 203              		.p2align 4,,15
 204              		.global	HAL_TIMEx_HallSensor_DeInit
 205              		.thumb
 206              		.thumb_func
 207              		.type	HAL_TIMEx_HallSensor_DeInit, %function
 208              	HAL_TIMEx_HallSensor_DeInit:
 209              	.LFB126:
 210              		.loc 1 236 0
 211              		.cfi_startproc
 212              		@ args = 0, pretend = 0, frame = 8
 213              		@ frame_needed = 0, uses_anonymous_args = 0
 214 0130 00B5     		push	{lr}
 215              		.cfi_def_cfa_offset 4
 216              		.cfi_offset 14, -4
 217 0132 83B0     		sub	sp, sp, #12
 218              		.cfi_def_cfa_offset 16
 219 0134 0190     		str	r0, [sp, #4]
 220              		.loc 1 240 0
 221 0136 019B     		ldr	r3, [sp, #4]
 222 0138 0222     		movs	r2, #2
 223 013a 83F83920 		strb	r2, [r3, #57]
 224              		.loc 1 243 0
 225 013e 019B     		ldr	r3, [sp, #4]
 226 0140 1B68     		ldr	r3, [r3]
 227 0142 1A6A     		ldr	r2, [r3, #32]
 228 0144 41F21113 		movw	r3, #4369
ARM GAS  /tmp/ccUiHCLc.s 			page 5


 229 0148 1340     		ands	r3, r3, r2
 230 014a 002B     		cmp	r3, #0
 231 014c 0FD1     		bne	.L7
 232              		.loc 1 243 0 is_stmt 0 discriminator 1
 233 014e 019B     		ldr	r3, [sp, #4]
 234 0150 1B68     		ldr	r3, [r3]
 235 0152 1A6A     		ldr	r2, [r3, #32]
 236 0154 40F24443 		movw	r3, #1092
 237 0158 1340     		ands	r3, r3, r2
 238 015a 002B     		cmp	r3, #0
 239 015c 07D1     		bne	.L7
 240 015e 019B     		ldr	r3, [sp, #4]
 241 0160 1B68     		ldr	r3, [r3]
 242 0162 019A     		ldr	r2, [sp, #4]
 243 0164 1268     		ldr	r2, [r2]
 244 0166 1268     		ldr	r2, [r2]
 245 0168 22F00102 		bic	r2, r2, #1
 246 016c 1A60     		str	r2, [r3]
 247              	.L7:
 248              		.loc 1 246 0 is_stmt 1
 249 016e 0198     		ldr	r0, [sp, #4]
 250 0170 FFF7FEFF 		bl	HAL_TIMEx_HallSensor_MspDeInit
 251              		.loc 1 249 0
 252 0174 019B     		ldr	r3, [sp, #4]
 253 0176 0022     		movs	r2, #0
 254 0178 83F83920 		strb	r2, [r3, #57]
 255              		.loc 1 252 0
 256 017c 019B     		ldr	r3, [sp, #4]
 257 017e 0022     		movs	r2, #0
 258 0180 83F83820 		strb	r2, [r3, #56]
 259              		.loc 1 254 0
 260 0184 0023     		movs	r3, #0
 261              		.loc 1 255 0
 262 0186 1846     		mov	r0, r3
 263 0188 03B0     		add	sp, sp, #12
 264              		@ sp needed
 265 018a 5DF804FB 		ldr	pc, [sp], #4
 266              		.cfi_endproc
 267              	.LFE126:
 268              		.size	HAL_TIMEx_HallSensor_DeInit, .-HAL_TIMEx_HallSensor_DeInit
 269 018e 00BF     		.align	2
 270              		.p2align 4,,15
 271              		.weak	HAL_TIMEx_HallSensor_MspInit
 272              		.thumb
 273              		.thumb_func
 274              		.type	HAL_TIMEx_HallSensor_MspInit, %function
 275              	HAL_TIMEx_HallSensor_MspInit:
 276              	.LFB127:
 277              		.loc 1 263 0
 278              		.cfi_startproc
 279              		@ args = 0, pretend = 0, frame = 8
 280              		@ frame_needed = 0, uses_anonymous_args = 0
 281              		@ link register save eliminated.
 282 0190 82B0     		sub	sp, sp, #8
 283              		.cfi_def_cfa_offset 8
 284 0192 0190     		str	r0, [sp, #4]
 285              		.loc 1 270 0
ARM GAS  /tmp/ccUiHCLc.s 			page 6


 286 0194 02B0     		add	sp, sp, #8
 287              		@ sp needed
 288 0196 7047     		bx	lr
 289              		.cfi_endproc
 290              	.LFE127:
 291              		.size	HAL_TIMEx_HallSensor_MspInit, .-HAL_TIMEx_HallSensor_MspInit
 292              		.align	2
 293 0198 AFF30080 		.p2align 4,,15
 293      AFF30080 
 294              		.weak	HAL_TIMEx_HallSensor_MspDeInit
 295              		.thumb
 296              		.thumb_func
 297              		.type	HAL_TIMEx_HallSensor_MspDeInit, %function
 298              	HAL_TIMEx_HallSensor_MspDeInit:
 299              	.LFB128:
 300              		.loc 1 278 0
 301              		.cfi_startproc
 302              		@ args = 0, pretend = 0, frame = 8
 303              		@ frame_needed = 0, uses_anonymous_args = 0
 304              		@ link register save eliminated.
 305 01a0 82B0     		sub	sp, sp, #8
 306              		.cfi_def_cfa_offset 8
 307 01a2 0190     		str	r0, [sp, #4]
 308              		.loc 1 285 0
 309 01a4 02B0     		add	sp, sp, #8
 310              		@ sp needed
 311 01a6 7047     		bx	lr
 312              		.cfi_endproc
 313              	.LFE128:
 314              		.size	HAL_TIMEx_HallSensor_MspDeInit, .-HAL_TIMEx_HallSensor_MspDeInit
 315              		.align	2
 316 01a8 AFF30080 		.p2align 4,,15
 316      AFF30080 
 317              		.global	HAL_TIMEx_HallSensor_Start
 318              		.thumb
 319              		.thumb_func
 320              		.type	HAL_TIMEx_HallSensor_Start, %function
 321              	HAL_TIMEx_HallSensor_Start:
 322              	.LFB129:
 323              		.loc 1 293 0
 324              		.cfi_startproc
 325              		@ args = 0, pretend = 0, frame = 8
 326              		@ frame_needed = 0, uses_anonymous_args = 0
 327 01b0 00B5     		push	{lr}
 328              		.cfi_def_cfa_offset 4
 329              		.cfi_offset 14, -4
 330 01b2 83B0     		sub	sp, sp, #12
 331              		.cfi_def_cfa_offset 16
 332 01b4 0190     		str	r0, [sp, #4]
 333              		.loc 1 299 0
 334 01b6 019B     		ldr	r3, [sp, #4]
 335 01b8 1B68     		ldr	r3, [r3]
 336 01ba 1846     		mov	r0, r3
 337 01bc 0021     		movs	r1, #0
 338 01be 0122     		movs	r2, #1
 339 01c0 FFF7FEFF 		bl	TIM_CCxChannelCmd
 340              		.loc 1 302 0
ARM GAS  /tmp/ccUiHCLc.s 			page 7


 341 01c4 019B     		ldr	r3, [sp, #4]
 342 01c6 1B68     		ldr	r3, [r3]
 343 01c8 019A     		ldr	r2, [sp, #4]
 344 01ca 1268     		ldr	r2, [r2]
 345 01cc 1268     		ldr	r2, [r2]
 346 01ce 42F00102 		orr	r2, r2, #1
 347 01d2 1A60     		str	r2, [r3]
 348              		.loc 1 305 0
 349 01d4 0023     		movs	r3, #0
 350              		.loc 1 306 0
 351 01d6 1846     		mov	r0, r3
 352 01d8 03B0     		add	sp, sp, #12
 353              		@ sp needed
 354 01da 5DF804FB 		ldr	pc, [sp], #4
 355              		.cfi_endproc
 356              	.LFE129:
 357              		.size	HAL_TIMEx_HallSensor_Start, .-HAL_TIMEx_HallSensor_Start
 358 01de 00BF     		.align	2
 359              		.p2align 4,,15
 360              		.global	HAL_TIMEx_HallSensor_Stop
 361              		.thumb
 362              		.thumb_func
 363              		.type	HAL_TIMEx_HallSensor_Stop, %function
 364              	HAL_TIMEx_HallSensor_Stop:
 365              	.LFB130:
 366              		.loc 1 314 0
 367              		.cfi_startproc
 368              		@ args = 0, pretend = 0, frame = 8
 369              		@ frame_needed = 0, uses_anonymous_args = 0
 370 01e0 00B5     		push	{lr}
 371              		.cfi_def_cfa_offset 4
 372              		.cfi_offset 14, -4
 373 01e2 83B0     		sub	sp, sp, #12
 374              		.cfi_def_cfa_offset 16
 375 01e4 0190     		str	r0, [sp, #4]
 376              		.loc 1 320 0
 377 01e6 019B     		ldr	r3, [sp, #4]
 378 01e8 1B68     		ldr	r3, [r3]
 379 01ea 1846     		mov	r0, r3
 380 01ec 0021     		movs	r1, #0
 381 01ee 0022     		movs	r2, #0
 382 01f0 FFF7FEFF 		bl	TIM_CCxChannelCmd
 383              		.loc 1 323 0
 384 01f4 019B     		ldr	r3, [sp, #4]
 385 01f6 1B68     		ldr	r3, [r3]
 386 01f8 1A6A     		ldr	r2, [r3, #32]
 387 01fa 41F21113 		movw	r3, #4369
 388 01fe 1340     		ands	r3, r3, r2
 389 0200 002B     		cmp	r3, #0
 390 0202 0FD1     		bne	.L14
 391              		.loc 1 323 0 is_stmt 0 discriminator 1
 392 0204 019B     		ldr	r3, [sp, #4]
 393 0206 1B68     		ldr	r3, [r3]
 394 0208 1A6A     		ldr	r2, [r3, #32]
 395 020a 40F24443 		movw	r3, #1092
 396 020e 1340     		ands	r3, r3, r2
 397 0210 002B     		cmp	r3, #0
ARM GAS  /tmp/ccUiHCLc.s 			page 8


 398 0212 07D1     		bne	.L14
 399 0214 019B     		ldr	r3, [sp, #4]
 400 0216 1B68     		ldr	r3, [r3]
 401 0218 019A     		ldr	r2, [sp, #4]
 402 021a 1268     		ldr	r2, [r2]
 403 021c 1268     		ldr	r2, [r2]
 404 021e 22F00102 		bic	r2, r2, #1
 405 0222 1A60     		str	r2, [r3]
 406              	.L14:
 407              		.loc 1 326 0 is_stmt 1
 408 0224 0023     		movs	r3, #0
 409              		.loc 1 327 0
 410 0226 1846     		mov	r0, r3
 411 0228 03B0     		add	sp, sp, #12
 412              		@ sp needed
 413 022a 5DF804FB 		ldr	pc, [sp], #4
 414              		.cfi_endproc
 415              	.LFE130:
 416              		.size	HAL_TIMEx_HallSensor_Stop, .-HAL_TIMEx_HallSensor_Stop
 417 022e 00BF     		.align	2
 418              		.p2align 4,,15
 419              		.global	HAL_TIMEx_HallSensor_Start_IT
 420              		.thumb
 421              		.thumb_func
 422              		.type	HAL_TIMEx_HallSensor_Start_IT, %function
 423              	HAL_TIMEx_HallSensor_Start_IT:
 424              	.LFB131:
 425              		.loc 1 335 0
 426              		.cfi_startproc
 427              		@ args = 0, pretend = 0, frame = 8
 428              		@ frame_needed = 0, uses_anonymous_args = 0
 429 0230 00B5     		push	{lr}
 430              		.cfi_def_cfa_offset 4
 431              		.cfi_offset 14, -4
 432 0232 83B0     		sub	sp, sp, #12
 433              		.cfi_def_cfa_offset 16
 434 0234 0190     		str	r0, [sp, #4]
 435              		.loc 1 340 0
 436 0236 019B     		ldr	r3, [sp, #4]
 437 0238 1B68     		ldr	r3, [r3]
 438 023a 019A     		ldr	r2, [sp, #4]
 439 023c 1268     		ldr	r2, [r2]
 440 023e D268     		ldr	r2, [r2, #12]
 441 0240 42F00202 		orr	r2, r2, #2
 442 0244 DA60     		str	r2, [r3, #12]
 443              		.loc 1 344 0
 444 0246 019B     		ldr	r3, [sp, #4]
 445 0248 1B68     		ldr	r3, [r3]
 446 024a 1846     		mov	r0, r3
 447 024c 0021     		movs	r1, #0
 448 024e 0122     		movs	r2, #1
 449 0250 FFF7FEFF 		bl	TIM_CCxChannelCmd
 450              		.loc 1 347 0
 451 0254 019B     		ldr	r3, [sp, #4]
 452 0256 1B68     		ldr	r3, [r3]
 453 0258 019A     		ldr	r2, [sp, #4]
 454 025a 1268     		ldr	r2, [r2]
ARM GAS  /tmp/ccUiHCLc.s 			page 9


 455 025c 1268     		ldr	r2, [r2]
 456 025e 42F00102 		orr	r2, r2, #1
 457 0262 1A60     		str	r2, [r3]
 458              		.loc 1 350 0
 459 0264 0023     		movs	r3, #0
 460              		.loc 1 351 0
 461 0266 1846     		mov	r0, r3
 462 0268 03B0     		add	sp, sp, #12
 463              		@ sp needed
 464 026a 5DF804FB 		ldr	pc, [sp], #4
 465              		.cfi_endproc
 466              	.LFE131:
 467              		.size	HAL_TIMEx_HallSensor_Start_IT, .-HAL_TIMEx_HallSensor_Start_IT
 468 026e 00BF     		.align	2
 469              		.p2align 4,,15
 470              		.global	HAL_TIMEx_HallSensor_Stop_IT
 471              		.thumb
 472              		.thumb_func
 473              		.type	HAL_TIMEx_HallSensor_Stop_IT, %function
 474              	HAL_TIMEx_HallSensor_Stop_IT:
 475              	.LFB132:
 476              		.loc 1 359 0
 477              		.cfi_startproc
 478              		@ args = 0, pretend = 0, frame = 8
 479              		@ frame_needed = 0, uses_anonymous_args = 0
 480 0270 00B5     		push	{lr}
 481              		.cfi_def_cfa_offset 4
 482              		.cfi_offset 14, -4
 483 0272 83B0     		sub	sp, sp, #12
 484              		.cfi_def_cfa_offset 16
 485 0274 0190     		str	r0, [sp, #4]
 486              		.loc 1 365 0
 487 0276 019B     		ldr	r3, [sp, #4]
 488 0278 1B68     		ldr	r3, [r3]
 489 027a 1846     		mov	r0, r3
 490 027c 0021     		movs	r1, #0
 491 027e 0022     		movs	r2, #0
 492 0280 FFF7FEFF 		bl	TIM_CCxChannelCmd
 493              		.loc 1 368 0
 494 0284 019B     		ldr	r3, [sp, #4]
 495 0286 1B68     		ldr	r3, [r3]
 496 0288 019A     		ldr	r2, [sp, #4]
 497 028a 1268     		ldr	r2, [r2]
 498 028c D268     		ldr	r2, [r2, #12]
 499 028e 22F00202 		bic	r2, r2, #2
 500 0292 DA60     		str	r2, [r3, #12]
 501              		.loc 1 371 0
 502 0294 019B     		ldr	r3, [sp, #4]
 503 0296 1B68     		ldr	r3, [r3]
 504 0298 1A6A     		ldr	r2, [r3, #32]
 505 029a 41F21113 		movw	r3, #4369
 506 029e 1340     		ands	r3, r3, r2
 507 02a0 002B     		cmp	r3, #0
 508 02a2 0FD1     		bne	.L19
 509              		.loc 1 371 0 is_stmt 0 discriminator 1
 510 02a4 019B     		ldr	r3, [sp, #4]
 511 02a6 1B68     		ldr	r3, [r3]
ARM GAS  /tmp/ccUiHCLc.s 			page 10


 512 02a8 1A6A     		ldr	r2, [r3, #32]
 513 02aa 40F24443 		movw	r3, #1092
 514 02ae 1340     		ands	r3, r3, r2
 515 02b0 002B     		cmp	r3, #0
 516 02b2 07D1     		bne	.L19
 517 02b4 019B     		ldr	r3, [sp, #4]
 518 02b6 1B68     		ldr	r3, [r3]
 519 02b8 019A     		ldr	r2, [sp, #4]
 520 02ba 1268     		ldr	r2, [r2]
 521 02bc 1268     		ldr	r2, [r2]
 522 02be 22F00102 		bic	r2, r2, #1
 523 02c2 1A60     		str	r2, [r3]
 524              	.L19:
 525              		.loc 1 374 0 is_stmt 1
 526 02c4 0023     		movs	r3, #0
 527              		.loc 1 375 0
 528 02c6 1846     		mov	r0, r3
 529 02c8 03B0     		add	sp, sp, #12
 530              		@ sp needed
 531 02ca 5DF804FB 		ldr	pc, [sp], #4
 532              		.cfi_endproc
 533              	.LFE132:
 534              		.size	HAL_TIMEx_HallSensor_Stop_IT, .-HAL_TIMEx_HallSensor_Stop_IT
 535 02ce 00BF     		.align	2
 536              		.p2align 4,,15
 537              		.global	HAL_TIMEx_HallSensor_Start_DMA
 538              		.thumb
 539              		.thumb_func
 540              		.type	HAL_TIMEx_HallSensor_Start_DMA, %function
 541              	HAL_TIMEx_HallSensor_Start_DMA:
 542              	.LFB133:
 543              		.loc 1 385 0
 544              		.cfi_startproc
 545              		@ args = 0, pretend = 0, frame = 16
 546              		@ frame_needed = 0, uses_anonymous_args = 0
 547 02d0 00B5     		push	{lr}
 548              		.cfi_def_cfa_offset 4
 549              		.cfi_offset 14, -4
 550 02d2 85B0     		sub	sp, sp, #20
 551              		.cfi_def_cfa_offset 24
 552 02d4 0390     		str	r0, [sp, #12]
 553 02d6 0291     		str	r1, [sp, #8]
 554 02d8 1346     		mov	r3, r2
 555 02da ADF80630 		strh	r3, [sp, #6]	@ movhi
 556              		.loc 1 389 0
 557 02de 039B     		ldr	r3, [sp, #12]
 558 02e0 93F83930 		ldrb	r3, [r3, #57]
 559 02e4 DBB2     		uxtb	r3, r3
 560 02e6 022B     		cmp	r3, #2
 561 02e8 01D1     		bne	.L22
 562              		.loc 1 391 0
 563 02ea 0223     		movs	r3, #2
 564 02ec 3DE0     		b	.L23
 565              	.L22:
 566              		.loc 1 393 0
 567 02ee 039B     		ldr	r3, [sp, #12]
 568 02f0 93F83930 		ldrb	r3, [r3, #57]
ARM GAS  /tmp/ccUiHCLc.s 			page 11


 569 02f4 DBB2     		uxtb	r3, r3
 570 02f6 012B     		cmp	r3, #1
 571 02f8 0CD1     		bne	.L24
 572              		.loc 1 395 0
 573 02fa 029B     		ldr	r3, [sp, #8]
 574 02fc 002B     		cmp	r3, #0
 575 02fe 05D1     		bne	.L25
 576              		.loc 1 395 0 is_stmt 0 discriminator 1
 577 0300 BDF80630 		ldrh	r3, [sp, #6]
 578 0304 002B     		cmp	r3, #0
 579 0306 01D0     		beq	.L25
 580              		.loc 1 397 0 is_stmt 1
 581 0308 0123     		movs	r3, #1
 582 030a 2EE0     		b	.L23
 583              	.L25:
 584              		.loc 1 401 0
 585 030c 039B     		ldr	r3, [sp, #12]
 586 030e 0222     		movs	r2, #2
 587 0310 83F83920 		strb	r2, [r3, #57]
 588              	.L24:
 589              		.loc 1 406 0
 590 0314 039B     		ldr	r3, [sp, #12]
 591 0316 1B68     		ldr	r3, [r3]
 592 0318 1846     		mov	r0, r3
 593 031a 0021     		movs	r1, #0
 594 031c 0122     		movs	r2, #1
 595 031e FFF7FEFF 		bl	TIM_CCxChannelCmd
 596              		.loc 1 409 0
 597 0322 039B     		ldr	r3, [sp, #12]
 598 0324 1B6A     		ldr	r3, [r3, #32]
 599 0326 134A     		ldr	r2, .L26
 600 0328 DA62     		str	r2, [r3, #44]
 601              		.loc 1 411 0
 602 032a 039B     		ldr	r3, [sp, #12]
 603 032c 1B6A     		ldr	r3, [r3, #32]
 604 032e 124A     		ldr	r2, .L26+4
 605 0330 5A63     		str	r2, [r3, #52]
 606              		.loc 1 414 0
 607 0332 039B     		ldr	r3, [sp, #12]
 608 0334 186A     		ldr	r0, [r3, #32]
 609 0336 039B     		ldr	r3, [sp, #12]
 610 0338 1B68     		ldr	r3, [r3]
 611 033a 3433     		adds	r3, r3, #52
 612 033c 1946     		mov	r1, r3
 613 033e 029A     		ldr	r2, [sp, #8]
 614 0340 BDF80630 		ldrh	r3, [sp, #6]
 615 0344 FFF7FEFF 		bl	HAL_DMA_Start_IT
 616              		.loc 1 417 0
 617 0348 039B     		ldr	r3, [sp, #12]
 618 034a 1B68     		ldr	r3, [r3]
 619 034c 039A     		ldr	r2, [sp, #12]
 620 034e 1268     		ldr	r2, [r2]
 621 0350 D268     		ldr	r2, [r2, #12]
 622 0352 42F40072 		orr	r2, r2, #512
 623 0356 DA60     		str	r2, [r3, #12]
 624              		.loc 1 420 0
 625 0358 039B     		ldr	r3, [sp, #12]
ARM GAS  /tmp/ccUiHCLc.s 			page 12


 626 035a 1B68     		ldr	r3, [r3]
 627 035c 039A     		ldr	r2, [sp, #12]
 628 035e 1268     		ldr	r2, [r2]
 629 0360 1268     		ldr	r2, [r2]
 630 0362 42F00102 		orr	r2, r2, #1
 631 0366 1A60     		str	r2, [r3]
 632              		.loc 1 423 0
 633 0368 0023     		movs	r3, #0
 634              	.L23:
 635              		.loc 1 424 0
 636 036a 1846     		mov	r0, r3
 637 036c 05B0     		add	sp, sp, #20
 638              		@ sp needed
 639 036e 5DF804FB 		ldr	pc, [sp], #4
 640              	.L27:
 641 0372 00BF     		.align	2
 642              	.L26:
 643 0374 00000000 		.word	TIM_DMACaptureCplt
 644 0378 00000000 		.word	TIM_DMAError
 645              		.cfi_endproc
 646              	.LFE133:
 647              		.size	HAL_TIMEx_HallSensor_Start_DMA, .-HAL_TIMEx_HallSensor_Start_DMA
 648              		.align	2
 649 037c AFF30080 		.p2align 4,,15
 650              		.global	HAL_TIMEx_HallSensor_Stop_DMA
 651              		.thumb
 652              		.thumb_func
 653              		.type	HAL_TIMEx_HallSensor_Stop_DMA, %function
 654              	HAL_TIMEx_HallSensor_Stop_DMA:
 655              	.LFB134:
 656              		.loc 1 432 0
 657              		.cfi_startproc
 658              		@ args = 0, pretend = 0, frame = 8
 659              		@ frame_needed = 0, uses_anonymous_args = 0
 660 0380 00B5     		push	{lr}
 661              		.cfi_def_cfa_offset 4
 662              		.cfi_offset 14, -4
 663 0382 83B0     		sub	sp, sp, #12
 664              		.cfi_def_cfa_offset 16
 665 0384 0190     		str	r0, [sp, #4]
 666              		.loc 1 438 0
 667 0386 019B     		ldr	r3, [sp, #4]
 668 0388 1B68     		ldr	r3, [r3]
 669 038a 1846     		mov	r0, r3
 670 038c 0021     		movs	r1, #0
 671 038e 0022     		movs	r2, #0
 672 0390 FFF7FEFF 		bl	TIM_CCxChannelCmd
 673              		.loc 1 442 0
 674 0394 019B     		ldr	r3, [sp, #4]
 675 0396 1B68     		ldr	r3, [r3]
 676 0398 019A     		ldr	r2, [sp, #4]
 677 039a 1268     		ldr	r2, [r2]
 678 039c D268     		ldr	r2, [r2, #12]
 679 039e 22F40072 		bic	r2, r2, #512
 680 03a2 DA60     		str	r2, [r3, #12]
 681              		.loc 1 445 0
 682 03a4 019B     		ldr	r3, [sp, #4]
ARM GAS  /tmp/ccUiHCLc.s 			page 13


 683 03a6 1B68     		ldr	r3, [r3]
 684 03a8 1A6A     		ldr	r2, [r3, #32]
 685 03aa 41F21113 		movw	r3, #4369
 686 03ae 1340     		ands	r3, r3, r2
 687 03b0 002B     		cmp	r3, #0
 688 03b2 0FD1     		bne	.L29
 689              		.loc 1 445 0 is_stmt 0 discriminator 1
 690 03b4 019B     		ldr	r3, [sp, #4]
 691 03b6 1B68     		ldr	r3, [r3]
 692 03b8 1A6A     		ldr	r2, [r3, #32]
 693 03ba 40F24443 		movw	r3, #1092
 694 03be 1340     		ands	r3, r3, r2
 695 03c0 002B     		cmp	r3, #0
 696 03c2 07D1     		bne	.L29
 697 03c4 019B     		ldr	r3, [sp, #4]
 698 03c6 1B68     		ldr	r3, [r3]
 699 03c8 019A     		ldr	r2, [sp, #4]
 700 03ca 1268     		ldr	r2, [r2]
 701 03cc 1268     		ldr	r2, [r2]
 702 03ce 22F00102 		bic	r2, r2, #1
 703 03d2 1A60     		str	r2, [r3]
 704              	.L29:
 705              		.loc 1 448 0 is_stmt 1
 706 03d4 0023     		movs	r3, #0
 707              		.loc 1 449 0
 708 03d6 1846     		mov	r0, r3
 709 03d8 03B0     		add	sp, sp, #12
 710              		@ sp needed
 711 03da 5DF804FB 		ldr	pc, [sp], #4
 712              		.cfi_endproc
 713              	.LFE134:
 714              		.size	HAL_TIMEx_HallSensor_Stop_DMA, .-HAL_TIMEx_HallSensor_Stop_DMA
 715 03de 00BF     		.align	2
 716              		.p2align 4,,15
 717              		.global	HAL_TIMEx_OCN_Start
 718              		.thumb
 719              		.thumb_func
 720              		.type	HAL_TIMEx_OCN_Start, %function
 721              	HAL_TIMEx_OCN_Start:
 722              	.LFB135:
 723              		.loc 1 488 0
 724              		.cfi_startproc
 725              		@ args = 0, pretend = 0, frame = 8
 726              		@ frame_needed = 0, uses_anonymous_args = 0
 727 03e0 00B5     		push	{lr}
 728              		.cfi_def_cfa_offset 4
 729              		.cfi_offset 14, -4
 730 03e2 83B0     		sub	sp, sp, #12
 731              		.cfi_def_cfa_offset 16
 732 03e4 0190     		str	r0, [sp, #4]
 733 03e6 0091     		str	r1, [sp]
 734              		.loc 1 493 0
 735 03e8 019B     		ldr	r3, [sp, #4]
 736 03ea 1B68     		ldr	r3, [r3]
 737 03ec 1846     		mov	r0, r3
 738 03ee 0099     		ldr	r1, [sp]
 739 03f0 0422     		movs	r2, #4
ARM GAS  /tmp/ccUiHCLc.s 			page 14


 740 03f2 01F0D5F9 		bl	TIM_CCxNChannelCmd
 741              		.loc 1 496 0
 742 03f6 019B     		ldr	r3, [sp, #4]
 743 03f8 1B68     		ldr	r3, [r3]
 744 03fa 019A     		ldr	r2, [sp, #4]
 745 03fc 1268     		ldr	r2, [r2]
 746 03fe 526C     		ldr	r2, [r2, #68]
 747 0400 42F40042 		orr	r2, r2, #32768
 748 0404 5A64     		str	r2, [r3, #68]
 749              		.loc 1 499 0
 750 0406 019B     		ldr	r3, [sp, #4]
 751 0408 1B68     		ldr	r3, [r3]
 752 040a 019A     		ldr	r2, [sp, #4]
 753 040c 1268     		ldr	r2, [r2]
 754 040e 1268     		ldr	r2, [r2]
 755 0410 42F00102 		orr	r2, r2, #1
 756 0414 1A60     		str	r2, [r3]
 757              		.loc 1 502 0
 758 0416 0023     		movs	r3, #0
 759              		.loc 1 503 0
 760 0418 1846     		mov	r0, r3
 761 041a 03B0     		add	sp, sp, #12
 762              		@ sp needed
 763 041c 5DF804FB 		ldr	pc, [sp], #4
 764              		.cfi_endproc
 765              	.LFE135:
 766              		.size	HAL_TIMEx_OCN_Start, .-HAL_TIMEx_OCN_Start
 767              		.align	2
 768              		.p2align 4,,15
 769              		.global	HAL_TIMEx_OCN_Stop
 770              		.thumb
 771              		.thumb_func
 772              		.type	HAL_TIMEx_OCN_Stop, %function
 773              	HAL_TIMEx_OCN_Stop:
 774              	.LFB136:
 775              		.loc 1 518 0
 776              		.cfi_startproc
 777              		@ args = 0, pretend = 0, frame = 8
 778              		@ frame_needed = 0, uses_anonymous_args = 0
 779 0420 00B5     		push	{lr}
 780              		.cfi_def_cfa_offset 4
 781              		.cfi_offset 14, -4
 782 0422 83B0     		sub	sp, sp, #12
 783              		.cfi_def_cfa_offset 16
 784 0424 0190     		str	r0, [sp, #4]
 785 0426 0091     		str	r1, [sp]
 786              		.loc 1 523 0
 787 0428 019B     		ldr	r3, [sp, #4]
 788 042a 1B68     		ldr	r3, [r3]
 789 042c 1846     		mov	r0, r3
 790 042e 0099     		ldr	r1, [sp]
 791 0430 0022     		movs	r2, #0
 792 0432 01F0B5F9 		bl	TIM_CCxNChannelCmd
 793              		.loc 1 526 0
 794 0436 019B     		ldr	r3, [sp, #4]
 795 0438 1B68     		ldr	r3, [r3]
 796 043a 1A6A     		ldr	r2, [r3, #32]
ARM GAS  /tmp/ccUiHCLc.s 			page 15


 797 043c 41F21113 		movw	r3, #4369
 798 0440 1340     		ands	r3, r3, r2
 799 0442 002B     		cmp	r3, #0
 800 0444 0FD1     		bne	.L34
 801              		.loc 1 526 0 is_stmt 0 discriminator 1
 802 0446 019B     		ldr	r3, [sp, #4]
 803 0448 1B68     		ldr	r3, [r3]
 804 044a 1A6A     		ldr	r2, [r3, #32]
 805 044c 40F24443 		movw	r3, #1092
 806 0450 1340     		ands	r3, r3, r2
 807 0452 002B     		cmp	r3, #0
 808 0454 07D1     		bne	.L34
 809 0456 019B     		ldr	r3, [sp, #4]
 810 0458 1B68     		ldr	r3, [r3]
 811 045a 019A     		ldr	r2, [sp, #4]
 812 045c 1268     		ldr	r2, [r2]
 813 045e 526C     		ldr	r2, [r2, #68]
 814 0460 22F40042 		bic	r2, r2, #32768
 815 0464 5A64     		str	r2, [r3, #68]
 816              	.L34:
 817              		.loc 1 529 0 is_stmt 1
 818 0466 019B     		ldr	r3, [sp, #4]
 819 0468 1B68     		ldr	r3, [r3]
 820 046a 1A6A     		ldr	r2, [r3, #32]
 821 046c 41F21113 		movw	r3, #4369
 822 0470 1340     		ands	r3, r3, r2
 823 0472 002B     		cmp	r3, #0
 824 0474 0FD1     		bne	.L35
 825              		.loc 1 529 0 is_stmt 0 discriminator 1
 826 0476 019B     		ldr	r3, [sp, #4]
 827 0478 1B68     		ldr	r3, [r3]
 828 047a 1A6A     		ldr	r2, [r3, #32]
 829 047c 40F24443 		movw	r3, #1092
 830 0480 1340     		ands	r3, r3, r2
 831 0482 002B     		cmp	r3, #0
 832 0484 07D1     		bne	.L35
 833 0486 019B     		ldr	r3, [sp, #4]
 834 0488 1B68     		ldr	r3, [r3]
 835 048a 019A     		ldr	r2, [sp, #4]
 836 048c 1268     		ldr	r2, [r2]
 837 048e 1268     		ldr	r2, [r2]
 838 0490 22F00102 		bic	r2, r2, #1
 839 0494 1A60     		str	r2, [r3]
 840              	.L35:
 841              		.loc 1 532 0 is_stmt 1
 842 0496 0023     		movs	r3, #0
 843              		.loc 1 533 0
 844 0498 1846     		mov	r0, r3
 845 049a 03B0     		add	sp, sp, #12
 846              		@ sp needed
 847 049c 5DF804FB 		ldr	pc, [sp], #4
 848              		.cfi_endproc
 849              	.LFE136:
 850              		.size	HAL_TIMEx_OCN_Stop, .-HAL_TIMEx_OCN_Stop
 851              		.align	2
 852              		.p2align 4,,15
 853              		.global	HAL_TIMEx_OCN_Start_IT
ARM GAS  /tmp/ccUiHCLc.s 			page 16


 854              		.thumb
 855              		.thumb_func
 856              		.type	HAL_TIMEx_OCN_Start_IT, %function
 857              	HAL_TIMEx_OCN_Start_IT:
 858              	.LFB137:
 859              		.loc 1 548 0
 860              		.cfi_startproc
 861              		@ args = 0, pretend = 0, frame = 8
 862              		@ frame_needed = 0, uses_anonymous_args = 0
 863 04a0 00B5     		push	{lr}
 864              		.cfi_def_cfa_offset 4
 865              		.cfi_offset 14, -4
 866 04a2 83B0     		sub	sp, sp, #12
 867              		.cfi_def_cfa_offset 16
 868 04a4 0190     		str	r0, [sp, #4]
 869 04a6 0091     		str	r1, [sp]
 870              		.loc 1 552 0
 871 04a8 009B     		ldr	r3, [sp]
 872 04aa 0C2B     		cmp	r3, #12
 873 04ac 40D8     		bhi	.L46
 874 04ae 01A2     		adr	r2, .L40
 875 04b0 52F823F0 		ldr	pc, [r2, r3, lsl #2]
 876              		.p2align 2
 877              	.L40:
 878 04b4 E9040000 		.word	.L39+1
 879 04b8 31050000 		.word	.L46+1
 880 04bc 31050000 		.word	.L46+1
 881 04c0 31050000 		.word	.L46+1
 882 04c4 FB040000 		.word	.L41+1
 883 04c8 31050000 		.word	.L46+1
 884 04cc 31050000 		.word	.L46+1
 885 04d0 31050000 		.word	.L46+1
 886 04d4 0D050000 		.word	.L42+1
 887 04d8 31050000 		.word	.L46+1
 888 04dc 31050000 		.word	.L46+1
 889 04e0 31050000 		.word	.L46+1
 890 04e4 1F050000 		.word	.L43+1
 891              		.p2align 1
 892              	.L39:
 893              		.loc 1 557 0
 894 04e8 019B     		ldr	r3, [sp, #4]
 895 04ea 1B68     		ldr	r3, [r3]
 896 04ec 019A     		ldr	r2, [sp, #4]
 897 04ee 1268     		ldr	r2, [r2]
 898 04f0 D268     		ldr	r2, [r2, #12]
 899 04f2 42F00202 		orr	r2, r2, #2
 900 04f6 DA60     		str	r2, [r3, #12]
 901              		.loc 1 559 0
 902 04f8 1BE0     		b	.L44
 903              	.L41:
 904              		.loc 1 564 0
 905 04fa 019B     		ldr	r3, [sp, #4]
 906 04fc 1B68     		ldr	r3, [r3]
 907 04fe 019A     		ldr	r2, [sp, #4]
 908 0500 1268     		ldr	r2, [r2]
 909 0502 D268     		ldr	r2, [r2, #12]
 910 0504 42F00402 		orr	r2, r2, #4
ARM GAS  /tmp/ccUiHCLc.s 			page 17


 911 0508 DA60     		str	r2, [r3, #12]
 912              		.loc 1 566 0
 913 050a 12E0     		b	.L44
 914              	.L42:
 915              		.loc 1 571 0
 916 050c 019B     		ldr	r3, [sp, #4]
 917 050e 1B68     		ldr	r3, [r3]
 918 0510 019A     		ldr	r2, [sp, #4]
 919 0512 1268     		ldr	r2, [r2]
 920 0514 D268     		ldr	r2, [r2, #12]
 921 0516 42F00802 		orr	r2, r2, #8
 922 051a DA60     		str	r2, [r3, #12]
 923              		.loc 1 573 0
 924 051c 09E0     		b	.L44
 925              	.L43:
 926              		.loc 1 578 0
 927 051e 019B     		ldr	r3, [sp, #4]
 928 0520 1B68     		ldr	r3, [r3]
 929 0522 019A     		ldr	r2, [sp, #4]
 930 0524 1268     		ldr	r2, [r2]
 931 0526 D268     		ldr	r2, [r2, #12]
 932 0528 42F01002 		orr	r2, r2, #16
 933 052c DA60     		str	r2, [r3, #12]
 934              		.loc 1 580 0
 935 052e 00E0     		b	.L44
 936              	.L46:
 937              		.loc 1 583 0
 938 0530 00BF     		nop
 939              	.L44:
 940              		.loc 1 587 0
 941 0532 019B     		ldr	r3, [sp, #4]
 942 0534 1B68     		ldr	r3, [r3]
 943 0536 019A     		ldr	r2, [sp, #4]
 944 0538 1268     		ldr	r2, [r2]
 945 053a D268     		ldr	r2, [r2, #12]
 946 053c 42F08002 		orr	r2, r2, #128
 947 0540 DA60     		str	r2, [r3, #12]
 948              		.loc 1 590 0
 949 0542 019B     		ldr	r3, [sp, #4]
 950 0544 1B68     		ldr	r3, [r3]
 951 0546 1846     		mov	r0, r3
 952 0548 0099     		ldr	r1, [sp]
 953 054a 0422     		movs	r2, #4
 954 054c 01F028F9 		bl	TIM_CCxNChannelCmd
 955              		.loc 1 593 0
 956 0550 019B     		ldr	r3, [sp, #4]
 957 0552 1B68     		ldr	r3, [r3]
 958 0554 019A     		ldr	r2, [sp, #4]
 959 0556 1268     		ldr	r2, [r2]
 960 0558 526C     		ldr	r2, [r2, #68]
 961 055a 42F40042 		orr	r2, r2, #32768
 962 055e 5A64     		str	r2, [r3, #68]
 963              		.loc 1 596 0
 964 0560 019B     		ldr	r3, [sp, #4]
 965 0562 1B68     		ldr	r3, [r3]
 966 0564 019A     		ldr	r2, [sp, #4]
 967 0566 1268     		ldr	r2, [r2]
ARM GAS  /tmp/ccUiHCLc.s 			page 18


 968 0568 1268     		ldr	r2, [r2]
 969 056a 42F00102 		orr	r2, r2, #1
 970 056e 1A60     		str	r2, [r3]
 971              		.loc 1 599 0
 972 0570 0023     		movs	r3, #0
 973              		.loc 1 600 0
 974 0572 1846     		mov	r0, r3
 975 0574 03B0     		add	sp, sp, #12
 976              		@ sp needed
 977 0576 5DF804FB 		ldr	pc, [sp], #4
 978              		.cfi_endproc
 979              	.LFE137:
 980              		.size	HAL_TIMEx_OCN_Start_IT, .-HAL_TIMEx_OCN_Start_IT
 981 057a 00BF     		.align	2
 982 057c AFF30080 		.p2align 4,,15
 983              		.global	HAL_TIMEx_OCN_Stop_IT
 984              		.thumb
 985              		.thumb_func
 986              		.type	HAL_TIMEx_OCN_Stop_IT, %function
 987              	HAL_TIMEx_OCN_Stop_IT:
 988              	.LFB138:
 989              		.loc 1 615 0
 990              		.cfi_startproc
 991              		@ args = 0, pretend = 0, frame = 16
 992              		@ frame_needed = 0, uses_anonymous_args = 0
 993 0580 00B5     		push	{lr}
 994              		.cfi_def_cfa_offset 4
 995              		.cfi_offset 14, -4
 996 0582 85B0     		sub	sp, sp, #20
 997              		.cfi_def_cfa_offset 24
 998 0584 0190     		str	r0, [sp, #4]
 999 0586 0091     		str	r1, [sp]
 1000              		.loc 1 616 0
 1001 0588 0023     		movs	r3, #0
 1002 058a 0393     		str	r3, [sp, #12]
 1003              		.loc 1 621 0
 1004 058c 009B     		ldr	r3, [sp]
 1005 058e 0C2B     		cmp	r3, #12
 1006 0590 40D8     		bhi	.L59
 1007 0592 01A2     		adr	r2, .L50
 1008 0594 52F823F0 		ldr	pc, [r2, r3, lsl #2]
 1009              		.p2align 2
 1010              	.L50:
 1011 0598 CD050000 		.word	.L49+1
 1012 059c 15060000 		.word	.L59+1
 1013 05a0 15060000 		.word	.L59+1
 1014 05a4 15060000 		.word	.L59+1
 1015 05a8 DF050000 		.word	.L51+1
 1016 05ac 15060000 		.word	.L59+1
 1017 05b0 15060000 		.word	.L59+1
 1018 05b4 15060000 		.word	.L59+1
 1019 05b8 F1050000 		.word	.L52+1
 1020 05bc 15060000 		.word	.L59+1
 1021 05c0 15060000 		.word	.L59+1
 1022 05c4 15060000 		.word	.L59+1
 1023 05c8 03060000 		.word	.L53+1
 1024              		.p2align 1
ARM GAS  /tmp/ccUiHCLc.s 			page 19


 1025              	.L49:
 1026              		.loc 1 626 0
 1027 05cc 019B     		ldr	r3, [sp, #4]
 1028 05ce 1B68     		ldr	r3, [r3]
 1029 05d0 019A     		ldr	r2, [sp, #4]
 1030 05d2 1268     		ldr	r2, [r2]
 1031 05d4 D268     		ldr	r2, [r2, #12]
 1032 05d6 22F00202 		bic	r2, r2, #2
 1033 05da DA60     		str	r2, [r3, #12]
 1034              		.loc 1 628 0
 1035 05dc 1BE0     		b	.L54
 1036              	.L51:
 1037              		.loc 1 633 0
 1038 05de 019B     		ldr	r3, [sp, #4]
 1039 05e0 1B68     		ldr	r3, [r3]
 1040 05e2 019A     		ldr	r2, [sp, #4]
 1041 05e4 1268     		ldr	r2, [r2]
 1042 05e6 D268     		ldr	r2, [r2, #12]
 1043 05e8 22F00402 		bic	r2, r2, #4
 1044 05ec DA60     		str	r2, [r3, #12]
 1045              		.loc 1 635 0
 1046 05ee 12E0     		b	.L54
 1047              	.L52:
 1048              		.loc 1 640 0
 1049 05f0 019B     		ldr	r3, [sp, #4]
 1050 05f2 1B68     		ldr	r3, [r3]
 1051 05f4 019A     		ldr	r2, [sp, #4]
 1052 05f6 1268     		ldr	r2, [r2]
 1053 05f8 D268     		ldr	r2, [r2, #12]
 1054 05fa 22F00802 		bic	r2, r2, #8
 1055 05fe DA60     		str	r2, [r3, #12]
 1056              		.loc 1 642 0
 1057 0600 09E0     		b	.L54
 1058              	.L53:
 1059              		.loc 1 647 0
 1060 0602 019B     		ldr	r3, [sp, #4]
 1061 0604 1B68     		ldr	r3, [r3]
 1062 0606 019A     		ldr	r2, [sp, #4]
 1063 0608 1268     		ldr	r2, [r2]
 1064 060a D268     		ldr	r2, [r2, #12]
 1065 060c 22F01002 		bic	r2, r2, #16
 1066 0610 DA60     		str	r2, [r3, #12]
 1067              		.loc 1 649 0
 1068 0612 00E0     		b	.L54
 1069              	.L59:
 1070              		.loc 1 652 0
 1071 0614 00BF     		nop
 1072              	.L54:
 1073              		.loc 1 656 0
 1074 0616 019B     		ldr	r3, [sp, #4]
 1075 0618 1B68     		ldr	r3, [r3]
 1076 061a 1846     		mov	r0, r3
 1077 061c 0099     		ldr	r1, [sp]
 1078 061e 0022     		movs	r2, #0
 1079 0620 01F0BEF8 		bl	TIM_CCxNChannelCmd
 1080              		.loc 1 659 0
 1081 0624 019B     		ldr	r3, [sp, #4]
ARM GAS  /tmp/ccUiHCLc.s 			page 20


 1082 0626 1B68     		ldr	r3, [r3]
 1083 0628 1B6A     		ldr	r3, [r3, #32]
 1084 062a 0393     		str	r3, [sp, #12]
 1085              		.loc 1 660 0
 1086 062c 039A     		ldr	r2, [sp, #12]
 1087 062e 40F24443 		movw	r3, #1092
 1088 0632 1340     		ands	r3, r3, r2
 1089 0634 002B     		cmp	r3, #0
 1090 0636 07D1     		bne	.L55
 1091              		.loc 1 662 0
 1092 0638 019B     		ldr	r3, [sp, #4]
 1093 063a 1B68     		ldr	r3, [r3]
 1094 063c 019A     		ldr	r2, [sp, #4]
 1095 063e 1268     		ldr	r2, [r2]
 1096 0640 D268     		ldr	r2, [r2, #12]
 1097 0642 22F08002 		bic	r2, r2, #128
 1098 0646 DA60     		str	r2, [r3, #12]
 1099              	.L55:
 1100              		.loc 1 666 0
 1101 0648 019B     		ldr	r3, [sp, #4]
 1102 064a 1B68     		ldr	r3, [r3]
 1103 064c 1A6A     		ldr	r2, [r3, #32]
 1104 064e 41F21113 		movw	r3, #4369
 1105 0652 1340     		ands	r3, r3, r2
 1106 0654 002B     		cmp	r3, #0
 1107 0656 0FD1     		bne	.L56
 1108              		.loc 1 666 0 is_stmt 0 discriminator 1
 1109 0658 019B     		ldr	r3, [sp, #4]
 1110 065a 1B68     		ldr	r3, [r3]
 1111 065c 1A6A     		ldr	r2, [r3, #32]
 1112 065e 40F24443 		movw	r3, #1092
 1113 0662 1340     		ands	r3, r3, r2
 1114 0664 002B     		cmp	r3, #0
 1115 0666 07D1     		bne	.L56
 1116 0668 019B     		ldr	r3, [sp, #4]
 1117 066a 1B68     		ldr	r3, [r3]
 1118 066c 019A     		ldr	r2, [sp, #4]
 1119 066e 1268     		ldr	r2, [r2]
 1120 0670 526C     		ldr	r2, [r2, #68]
 1121 0672 22F40042 		bic	r2, r2, #32768
 1122 0676 5A64     		str	r2, [r3, #68]
 1123              	.L56:
 1124              		.loc 1 669 0 is_stmt 1
 1125 0678 019B     		ldr	r3, [sp, #4]
 1126 067a 1B68     		ldr	r3, [r3]
 1127 067c 1A6A     		ldr	r2, [r3, #32]
 1128 067e 41F21113 		movw	r3, #4369
 1129 0682 1340     		ands	r3, r3, r2
 1130 0684 002B     		cmp	r3, #0
 1131 0686 0FD1     		bne	.L57
 1132              		.loc 1 669 0 is_stmt 0 discriminator 1
 1133 0688 019B     		ldr	r3, [sp, #4]
 1134 068a 1B68     		ldr	r3, [r3]
 1135 068c 1A6A     		ldr	r2, [r3, #32]
 1136 068e 40F24443 		movw	r3, #1092
 1137 0692 1340     		ands	r3, r3, r2
 1138 0694 002B     		cmp	r3, #0
ARM GAS  /tmp/ccUiHCLc.s 			page 21


 1139 0696 07D1     		bne	.L57
 1140 0698 019B     		ldr	r3, [sp, #4]
 1141 069a 1B68     		ldr	r3, [r3]
 1142 069c 019A     		ldr	r2, [sp, #4]
 1143 069e 1268     		ldr	r2, [r2]
 1144 06a0 1268     		ldr	r2, [r2]
 1145 06a2 22F00102 		bic	r2, r2, #1
 1146 06a6 1A60     		str	r2, [r3]
 1147              	.L57:
 1148              		.loc 1 672 0 is_stmt 1
 1149 06a8 0023     		movs	r3, #0
 1150              		.loc 1 673 0
 1151 06aa 1846     		mov	r0, r3
 1152 06ac 05B0     		add	sp, sp, #20
 1153              		@ sp needed
 1154 06ae 5DF804FB 		ldr	pc, [sp], #4
 1155              		.cfi_endproc
 1156              	.LFE138:
 1157              		.size	HAL_TIMEx_OCN_Stop_IT, .-HAL_TIMEx_OCN_Stop_IT
 1158 06b2 00BF     		.align	2
 1159 06b4 AFF30080 		.p2align 4,,15
 1159      AFF30080 
 1159      AFF30080 
 1160              		.global	HAL_TIMEx_OCN_Start_DMA
 1161              		.thumb
 1162              		.thumb_func
 1163              		.type	HAL_TIMEx_OCN_Start_DMA, %function
 1164              	HAL_TIMEx_OCN_Start_DMA:
 1165              	.LFB139:
 1166              		.loc 1 690 0
 1167              		.cfi_startproc
 1168              		@ args = 0, pretend = 0, frame = 16
 1169              		@ frame_needed = 0, uses_anonymous_args = 0
 1170 06c0 00B5     		push	{lr}
 1171              		.cfi_def_cfa_offset 4
 1172              		.cfi_offset 14, -4
 1173 06c2 85B0     		sub	sp, sp, #20
 1174              		.cfi_def_cfa_offset 24
 1175 06c4 0390     		str	r0, [sp, #12]
 1176 06c6 0291     		str	r1, [sp, #8]
 1177 06c8 0192     		str	r2, [sp, #4]
 1178 06ca ADF80230 		strh	r3, [sp, #2]	@ movhi
 1179              		.loc 1 694 0
 1180 06ce 039B     		ldr	r3, [sp, #12]
 1181 06d0 93F83930 		ldrb	r3, [r3, #57]
 1182 06d4 DBB2     		uxtb	r3, r3
 1183 06d6 022B     		cmp	r3, #2
 1184 06d8 01D1     		bne	.L61
 1185              		.loc 1 696 0
 1186 06da 0223     		movs	r3, #2
 1187 06dc BDE0     		b	.L62
 1188              	.L61:
 1189              		.loc 1 698 0
 1190 06de 039B     		ldr	r3, [sp, #12]
 1191 06e0 93F83930 		ldrb	r3, [r3, #57]
 1192 06e4 DBB2     		uxtb	r3, r3
 1193 06e6 012B     		cmp	r3, #1
ARM GAS  /tmp/ccUiHCLc.s 			page 22


 1194 06e8 0CD1     		bne	.L63
 1195              		.loc 1 700 0
 1196 06ea 019B     		ldr	r3, [sp, #4]
 1197 06ec 002B     		cmp	r3, #0
 1198 06ee 05D1     		bne	.L64
 1199              		.loc 1 700 0 is_stmt 0 discriminator 1
 1200 06f0 BDF80230 		ldrh	r3, [sp, #2]
 1201 06f4 002B     		cmp	r3, #0
 1202 06f6 01D0     		beq	.L64
 1203              		.loc 1 702 0 is_stmt 1
 1204 06f8 0123     		movs	r3, #1
 1205 06fa AEE0     		b	.L62
 1206              	.L64:
 1207              		.loc 1 706 0
 1208 06fc 039B     		ldr	r3, [sp, #12]
 1209 06fe 0222     		movs	r2, #2
 1210 0700 83F83920 		strb	r2, [r3, #57]
 1211              	.L63:
 1212              		.loc 1 709 0
 1213 0704 029B     		ldr	r3, [sp, #8]
 1214 0706 0C2B     		cmp	r3, #12
 1215 0708 00F28E80 		bhi	.L72
 1216 070c 01A2     		adr	r2, .L67
 1217 070e 52F823F0 		ldr	pc, [r2, r3, lsl #2]
 1218 0712 00BF     		.p2align 2
 1219              	.L67:
 1220 0714 49070000 		.word	.L66+1
 1221 0718 29080000 		.word	.L72+1
 1222 071c 29080000 		.word	.L72+1
 1223 0720 29080000 		.word	.L72+1
 1224 0724 81070000 		.word	.L68+1
 1225 0728 29080000 		.word	.L72+1
 1226 072c 29080000 		.word	.L72+1
 1227 0730 29080000 		.word	.L72+1
 1228 0734 B9070000 		.word	.L69+1
 1229 0738 29080000 		.word	.L72+1
 1230 073c 29080000 		.word	.L72+1
 1231 0740 29080000 		.word	.L72+1
 1232 0744 F1070000 		.word	.L70+1
 1233              		.p2align 1
 1234              	.L66:
 1235              		.loc 1 714 0
 1236 0748 039B     		ldr	r3, [sp, #12]
 1237 074a 1B6A     		ldr	r3, [r3, #32]
 1238 074c 454A     		ldr	r2, .L73
 1239 074e DA62     		str	r2, [r3, #44]
 1240              		.loc 1 717 0
 1241 0750 039B     		ldr	r3, [sp, #12]
 1242 0752 1B6A     		ldr	r3, [r3, #32]
 1243 0754 444A     		ldr	r2, .L73+4
 1244 0756 5A63     		str	r2, [r3, #52]
 1245              		.loc 1 720 0
 1246 0758 039B     		ldr	r3, [sp, #12]
 1247 075a 186A     		ldr	r0, [r3, #32]
 1248 075c 0199     		ldr	r1, [sp, #4]
 1249 075e 039B     		ldr	r3, [sp, #12]
 1250 0760 1B68     		ldr	r3, [r3]
ARM GAS  /tmp/ccUiHCLc.s 			page 23


 1251 0762 3433     		adds	r3, r3, #52
 1252 0764 1A46     		mov	r2, r3
 1253 0766 BDF80230 		ldrh	r3, [sp, #2]
 1254 076a FFF7FEFF 		bl	HAL_DMA_Start_IT
 1255              		.loc 1 723 0
 1256 076e 039B     		ldr	r3, [sp, #12]
 1257 0770 1B68     		ldr	r3, [r3]
 1258 0772 039A     		ldr	r2, [sp, #12]
 1259 0774 1268     		ldr	r2, [r2]
 1260 0776 D268     		ldr	r2, [r2, #12]
 1261 0778 42F40072 		orr	r2, r2, #512
 1262 077c DA60     		str	r2, [r3, #12]
 1263              		.loc 1 725 0
 1264 077e 54E0     		b	.L71
 1265              	.L68:
 1266              		.loc 1 730 0
 1267 0780 039B     		ldr	r3, [sp, #12]
 1268 0782 5B6A     		ldr	r3, [r3, #36]
 1269 0784 374A     		ldr	r2, .L73
 1270 0786 DA62     		str	r2, [r3, #44]
 1271              		.loc 1 733 0
 1272 0788 039B     		ldr	r3, [sp, #12]
 1273 078a 5B6A     		ldr	r3, [r3, #36]
 1274 078c 364A     		ldr	r2, .L73+4
 1275 078e 5A63     		str	r2, [r3, #52]
 1276              		.loc 1 736 0
 1277 0790 039B     		ldr	r3, [sp, #12]
 1278 0792 586A     		ldr	r0, [r3, #36]
 1279 0794 0199     		ldr	r1, [sp, #4]
 1280 0796 039B     		ldr	r3, [sp, #12]
 1281 0798 1B68     		ldr	r3, [r3]
 1282 079a 3833     		adds	r3, r3, #56
 1283 079c 1A46     		mov	r2, r3
 1284 079e BDF80230 		ldrh	r3, [sp, #2]
 1285 07a2 FFF7FEFF 		bl	HAL_DMA_Start_IT
 1286              		.loc 1 739 0
 1287 07a6 039B     		ldr	r3, [sp, #12]
 1288 07a8 1B68     		ldr	r3, [r3]
 1289 07aa 039A     		ldr	r2, [sp, #12]
 1290 07ac 1268     		ldr	r2, [r2]
 1291 07ae D268     		ldr	r2, [r2, #12]
 1292 07b0 42F48062 		orr	r2, r2, #1024
 1293 07b4 DA60     		str	r2, [r3, #12]
 1294              		.loc 1 741 0
 1295 07b6 38E0     		b	.L71
 1296              	.L69:
 1297              		.loc 1 746 0
 1298 07b8 039B     		ldr	r3, [sp, #12]
 1299 07ba 9B6A     		ldr	r3, [r3, #40]
 1300 07bc 294A     		ldr	r2, .L73
 1301 07be DA62     		str	r2, [r3, #44]
 1302              		.loc 1 749 0
 1303 07c0 039B     		ldr	r3, [sp, #12]
 1304 07c2 9B6A     		ldr	r3, [r3, #40]
 1305 07c4 284A     		ldr	r2, .L73+4
 1306 07c6 5A63     		str	r2, [r3, #52]
 1307              		.loc 1 752 0
ARM GAS  /tmp/ccUiHCLc.s 			page 24


 1308 07c8 039B     		ldr	r3, [sp, #12]
 1309 07ca 986A     		ldr	r0, [r3, #40]
 1310 07cc 0199     		ldr	r1, [sp, #4]
 1311 07ce 039B     		ldr	r3, [sp, #12]
 1312 07d0 1B68     		ldr	r3, [r3]
 1313 07d2 3C33     		adds	r3, r3, #60
 1314 07d4 1A46     		mov	r2, r3
 1315 07d6 BDF80230 		ldrh	r3, [sp, #2]
 1316 07da FFF7FEFF 		bl	HAL_DMA_Start_IT
 1317              		.loc 1 755 0
 1318 07de 039B     		ldr	r3, [sp, #12]
 1319 07e0 1B68     		ldr	r3, [r3]
 1320 07e2 039A     		ldr	r2, [sp, #12]
 1321 07e4 1268     		ldr	r2, [r2]
 1322 07e6 D268     		ldr	r2, [r2, #12]
 1323 07e8 42F40062 		orr	r2, r2, #2048
 1324 07ec DA60     		str	r2, [r3, #12]
 1325              		.loc 1 757 0
 1326 07ee 1CE0     		b	.L71
 1327              	.L70:
 1328              		.loc 1 762 0
 1329 07f0 039B     		ldr	r3, [sp, #12]
 1330 07f2 DB6A     		ldr	r3, [r3, #44]
 1331 07f4 1B4A     		ldr	r2, .L73
 1332 07f6 DA62     		str	r2, [r3, #44]
 1333              		.loc 1 765 0
 1334 07f8 039B     		ldr	r3, [sp, #12]
 1335 07fa DB6A     		ldr	r3, [r3, #44]
 1336 07fc 1A4A     		ldr	r2, .L73+4
 1337 07fe 5A63     		str	r2, [r3, #52]
 1338              		.loc 1 768 0
 1339 0800 039B     		ldr	r3, [sp, #12]
 1340 0802 D86A     		ldr	r0, [r3, #44]
 1341 0804 0199     		ldr	r1, [sp, #4]
 1342 0806 039B     		ldr	r3, [sp, #12]
 1343 0808 1B68     		ldr	r3, [r3]
 1344 080a 4033     		adds	r3, r3, #64
 1345 080c 1A46     		mov	r2, r3
 1346 080e BDF80230 		ldrh	r3, [sp, #2]
 1347 0812 FFF7FEFF 		bl	HAL_DMA_Start_IT
 1348              		.loc 1 771 0
 1349 0816 039B     		ldr	r3, [sp, #12]
 1350 0818 1B68     		ldr	r3, [r3]
 1351 081a 039A     		ldr	r2, [sp, #12]
 1352 081c 1268     		ldr	r2, [r2]
 1353 081e D268     		ldr	r2, [r2, #12]
 1354 0820 42F48052 		orr	r2, r2, #4096
 1355 0824 DA60     		str	r2, [r3, #12]
 1356              		.loc 1 773 0
 1357 0826 00E0     		b	.L71
 1358              	.L72:
 1359              		.loc 1 776 0
 1360 0828 00BF     		nop
 1361              	.L71:
 1362              		.loc 1 780 0
 1363 082a 039B     		ldr	r3, [sp, #12]
 1364 082c 1B68     		ldr	r3, [r3]
ARM GAS  /tmp/ccUiHCLc.s 			page 25


 1365 082e 1846     		mov	r0, r3
 1366 0830 0299     		ldr	r1, [sp, #8]
 1367 0832 0422     		movs	r2, #4
 1368 0834 00F0B4FF 		bl	TIM_CCxNChannelCmd
 1369              		.loc 1 783 0
 1370 0838 039B     		ldr	r3, [sp, #12]
 1371 083a 1B68     		ldr	r3, [r3]
 1372 083c 039A     		ldr	r2, [sp, #12]
 1373 083e 1268     		ldr	r2, [r2]
 1374 0840 526C     		ldr	r2, [r2, #68]
 1375 0842 42F40042 		orr	r2, r2, #32768
 1376 0846 5A64     		str	r2, [r3, #68]
 1377              		.loc 1 786 0
 1378 0848 039B     		ldr	r3, [sp, #12]
 1379 084a 1B68     		ldr	r3, [r3]
 1380 084c 039A     		ldr	r2, [sp, #12]
 1381 084e 1268     		ldr	r2, [r2]
 1382 0850 1268     		ldr	r2, [r2]
 1383 0852 42F00102 		orr	r2, r2, #1
 1384 0856 1A60     		str	r2, [r3]
 1385              		.loc 1 789 0
 1386 0858 0023     		movs	r3, #0
 1387              	.L62:
 1388              		.loc 1 790 0
 1389 085a 1846     		mov	r0, r3
 1390 085c 05B0     		add	sp, sp, #20
 1391              		@ sp needed
 1392 085e 5DF804FB 		ldr	pc, [sp], #4
 1393              	.L74:
 1394 0862 00BF     		.align	2
 1395              	.L73:
 1396 0864 00000000 		.word	TIM_DMADelayPulseCplt
 1397 0868 00000000 		.word	TIM_DMAError
 1398              		.cfi_endproc
 1399              	.LFE139:
 1400              		.size	HAL_TIMEx_OCN_Start_DMA, .-HAL_TIMEx_OCN_Start_DMA
 1401              		.align	2
 1402 086c AFF30080 		.p2align 4,,15
 1403              		.global	HAL_TIMEx_OCN_Stop_DMA
 1404              		.thumb
 1405              		.thumb_func
 1406              		.type	HAL_TIMEx_OCN_Stop_DMA, %function
 1407              	HAL_TIMEx_OCN_Stop_DMA:
 1408              	.LFB140:
 1409              		.loc 1 805 0
 1410              		.cfi_startproc
 1411              		@ args = 0, pretend = 0, frame = 8
 1412              		@ frame_needed = 0, uses_anonymous_args = 0
 1413 0870 00B5     		push	{lr}
 1414              		.cfi_def_cfa_offset 4
 1415              		.cfi_offset 14, -4
 1416 0872 83B0     		sub	sp, sp, #12
 1417              		.cfi_def_cfa_offset 16
 1418 0874 0190     		str	r0, [sp, #4]
 1419 0876 0091     		str	r1, [sp]
 1420              		.loc 1 809 0
 1421 0878 009B     		ldr	r3, [sp]
ARM GAS  /tmp/ccUiHCLc.s 			page 26


 1422 087a 0C2B     		cmp	r3, #12
 1423 087c 40D8     		bhi	.L86
 1424 087e 01A2     		adr	r2, .L78
 1425 0880 52F823F0 		ldr	pc, [r2, r3, lsl #2]
 1426              		.p2align 2
 1427              	.L78:
 1428 0884 B9080000 		.word	.L77+1
 1429 0888 01090000 		.word	.L86+1
 1430 088c 01090000 		.word	.L86+1
 1431 0890 01090000 		.word	.L86+1
 1432 0894 CB080000 		.word	.L79+1
 1433 0898 01090000 		.word	.L86+1
 1434 089c 01090000 		.word	.L86+1
 1435 08a0 01090000 		.word	.L86+1
 1436 08a4 DD080000 		.word	.L80+1
 1437 08a8 01090000 		.word	.L86+1
 1438 08ac 01090000 		.word	.L86+1
 1439 08b0 01090000 		.word	.L86+1
 1440 08b4 EF080000 		.word	.L81+1
 1441              		.p2align 1
 1442              	.L77:
 1443              		.loc 1 814 0
 1444 08b8 019B     		ldr	r3, [sp, #4]
 1445 08ba 1B68     		ldr	r3, [r3]
 1446 08bc 019A     		ldr	r2, [sp, #4]
 1447 08be 1268     		ldr	r2, [r2]
 1448 08c0 D268     		ldr	r2, [r2, #12]
 1449 08c2 22F40072 		bic	r2, r2, #512
 1450 08c6 DA60     		str	r2, [r3, #12]
 1451              		.loc 1 816 0
 1452 08c8 1BE0     		b	.L82
 1453              	.L79:
 1454              		.loc 1 821 0
 1455 08ca 019B     		ldr	r3, [sp, #4]
 1456 08cc 1B68     		ldr	r3, [r3]
 1457 08ce 019A     		ldr	r2, [sp, #4]
 1458 08d0 1268     		ldr	r2, [r2]
 1459 08d2 D268     		ldr	r2, [r2, #12]
 1460 08d4 22F48062 		bic	r2, r2, #1024
 1461 08d8 DA60     		str	r2, [r3, #12]
 1462              		.loc 1 823 0
 1463 08da 12E0     		b	.L82
 1464              	.L80:
 1465              		.loc 1 828 0
 1466 08dc 019B     		ldr	r3, [sp, #4]
 1467 08de 1B68     		ldr	r3, [r3]
 1468 08e0 019A     		ldr	r2, [sp, #4]
 1469 08e2 1268     		ldr	r2, [r2]
 1470 08e4 D268     		ldr	r2, [r2, #12]
 1471 08e6 22F40062 		bic	r2, r2, #2048
 1472 08ea DA60     		str	r2, [r3, #12]
 1473              		.loc 1 830 0
 1474 08ec 09E0     		b	.L82
 1475              	.L81:
 1476              		.loc 1 835 0
 1477 08ee 019B     		ldr	r3, [sp, #4]
 1478 08f0 1B68     		ldr	r3, [r3]
ARM GAS  /tmp/ccUiHCLc.s 			page 27


 1479 08f2 019A     		ldr	r2, [sp, #4]
 1480 08f4 1268     		ldr	r2, [r2]
 1481 08f6 D268     		ldr	r2, [r2, #12]
 1482 08f8 22F48052 		bic	r2, r2, #4096
 1483 08fc DA60     		str	r2, [r3, #12]
 1484              		.loc 1 837 0
 1485 08fe 00E0     		b	.L82
 1486              	.L86:
 1487              		.loc 1 840 0
 1488 0900 00BF     		nop
 1489              	.L82:
 1490              		.loc 1 844 0
 1491 0902 019B     		ldr	r3, [sp, #4]
 1492 0904 1B68     		ldr	r3, [r3]
 1493 0906 1846     		mov	r0, r3
 1494 0908 0099     		ldr	r1, [sp]
 1495 090a 0022     		movs	r2, #0
 1496 090c 00F048FF 		bl	TIM_CCxNChannelCmd
 1497              		.loc 1 847 0
 1498 0910 019B     		ldr	r3, [sp, #4]
 1499 0912 1B68     		ldr	r3, [r3]
 1500 0914 1A6A     		ldr	r2, [r3, #32]
 1501 0916 41F21113 		movw	r3, #4369
 1502 091a 1340     		ands	r3, r3, r2
 1503 091c 002B     		cmp	r3, #0
 1504 091e 0FD1     		bne	.L83
 1505              		.loc 1 847 0 is_stmt 0 discriminator 1
 1506 0920 019B     		ldr	r3, [sp, #4]
 1507 0922 1B68     		ldr	r3, [r3]
 1508 0924 1A6A     		ldr	r2, [r3, #32]
 1509 0926 40F24443 		movw	r3, #1092
 1510 092a 1340     		ands	r3, r3, r2
 1511 092c 002B     		cmp	r3, #0
 1512 092e 07D1     		bne	.L83
 1513 0930 019B     		ldr	r3, [sp, #4]
 1514 0932 1B68     		ldr	r3, [r3]
 1515 0934 019A     		ldr	r2, [sp, #4]
 1516 0936 1268     		ldr	r2, [r2]
 1517 0938 526C     		ldr	r2, [r2, #68]
 1518 093a 22F40042 		bic	r2, r2, #32768
 1519 093e 5A64     		str	r2, [r3, #68]
 1520              	.L83:
 1521              		.loc 1 850 0 is_stmt 1
 1522 0940 019B     		ldr	r3, [sp, #4]
 1523 0942 1B68     		ldr	r3, [r3]
 1524 0944 1A6A     		ldr	r2, [r3, #32]
 1525 0946 41F21113 		movw	r3, #4369
 1526 094a 1340     		ands	r3, r3, r2
 1527 094c 002B     		cmp	r3, #0
 1528 094e 0FD1     		bne	.L84
 1529              		.loc 1 850 0 is_stmt 0 discriminator 1
 1530 0950 019B     		ldr	r3, [sp, #4]
 1531 0952 1B68     		ldr	r3, [r3]
 1532 0954 1A6A     		ldr	r2, [r3, #32]
 1533 0956 40F24443 		movw	r3, #1092
 1534 095a 1340     		ands	r3, r3, r2
 1535 095c 002B     		cmp	r3, #0
ARM GAS  /tmp/ccUiHCLc.s 			page 28


 1536 095e 07D1     		bne	.L84
 1537 0960 019B     		ldr	r3, [sp, #4]
 1538 0962 1B68     		ldr	r3, [r3]
 1539 0964 019A     		ldr	r2, [sp, #4]
 1540 0966 1268     		ldr	r2, [r2]
 1541 0968 1268     		ldr	r2, [r2]
 1542 096a 22F00102 		bic	r2, r2, #1
 1543 096e 1A60     		str	r2, [r3]
 1544              	.L84:
 1545              		.loc 1 853 0 is_stmt 1
 1546 0970 019B     		ldr	r3, [sp, #4]
 1547 0972 0122     		movs	r2, #1
 1548 0974 83F83920 		strb	r2, [r3, #57]
 1549              		.loc 1 856 0
 1550 0978 0023     		movs	r3, #0
 1551              		.loc 1 857 0
 1552 097a 1846     		mov	r0, r3
 1553 097c 03B0     		add	sp, sp, #12
 1554              		@ sp needed
 1555 097e 5DF804FB 		ldr	pc, [sp], #4
 1556              		.cfi_endproc
 1557              	.LFE140:
 1558              		.size	HAL_TIMEx_OCN_Stop_DMA, .-HAL_TIMEx_OCN_Stop_DMA
 1559 0982 00BF     		.align	2
 1560 0984 AFF30080 		.p2align 4,,15
 1560      AFF30080 
 1560      AFF30080 
 1561              		.global	HAL_TIMEx_PWMN_Start
 1562              		.thumb
 1563              		.thumb_func
 1564              		.type	HAL_TIMEx_PWMN_Start, %function
 1565              	HAL_TIMEx_PWMN_Start:
 1566              	.LFB141:
 1567              		.loc 1 905 0
 1568              		.cfi_startproc
 1569              		@ args = 0, pretend = 0, frame = 8
 1570              		@ frame_needed = 0, uses_anonymous_args = 0
 1571 0990 00B5     		push	{lr}
 1572              		.cfi_def_cfa_offset 4
 1573              		.cfi_offset 14, -4
 1574 0992 83B0     		sub	sp, sp, #12
 1575              		.cfi_def_cfa_offset 16
 1576 0994 0190     		str	r0, [sp, #4]
 1577 0996 0091     		str	r1, [sp]
 1578              		.loc 1 910 0
 1579 0998 019B     		ldr	r3, [sp, #4]
 1580 099a 1B68     		ldr	r3, [r3]
 1581 099c 1846     		mov	r0, r3
 1582 099e 0099     		ldr	r1, [sp]
 1583 09a0 0422     		movs	r2, #4
 1584 09a2 00F0FDFE 		bl	TIM_CCxNChannelCmd
 1585              		.loc 1 913 0
 1586 09a6 019B     		ldr	r3, [sp, #4]
 1587 09a8 1B68     		ldr	r3, [r3]
 1588 09aa 019A     		ldr	r2, [sp, #4]
 1589 09ac 1268     		ldr	r2, [r2]
 1590 09ae 526C     		ldr	r2, [r2, #68]
ARM GAS  /tmp/ccUiHCLc.s 			page 29


 1591 09b0 42F40042 		orr	r2, r2, #32768
 1592 09b4 5A64     		str	r2, [r3, #68]
 1593              		.loc 1 916 0
 1594 09b6 019B     		ldr	r3, [sp, #4]
 1595 09b8 1B68     		ldr	r3, [r3]
 1596 09ba 019A     		ldr	r2, [sp, #4]
 1597 09bc 1268     		ldr	r2, [r2]
 1598 09be 1268     		ldr	r2, [r2]
 1599 09c0 42F00102 		orr	r2, r2, #1
 1600 09c4 1A60     		str	r2, [r3]
 1601              		.loc 1 919 0
 1602 09c6 0023     		movs	r3, #0
 1603              		.loc 1 920 0
 1604 09c8 1846     		mov	r0, r3
 1605 09ca 03B0     		add	sp, sp, #12
 1606              		@ sp needed
 1607 09cc 5DF804FB 		ldr	pc, [sp], #4
 1608              		.cfi_endproc
 1609              	.LFE141:
 1610              		.size	HAL_TIMEx_PWMN_Start, .-HAL_TIMEx_PWMN_Start
 1611              		.align	2
 1612              		.p2align 4,,15
 1613              		.global	HAL_TIMEx_PWMN_Stop
 1614              		.thumb
 1615              		.thumb_func
 1616              		.type	HAL_TIMEx_PWMN_Stop, %function
 1617              	HAL_TIMEx_PWMN_Stop:
 1618              	.LFB142:
 1619              		.loc 1 934 0
 1620              		.cfi_startproc
 1621              		@ args = 0, pretend = 0, frame = 8
 1622              		@ frame_needed = 0, uses_anonymous_args = 0
 1623 09d0 00B5     		push	{lr}
 1624              		.cfi_def_cfa_offset 4
 1625              		.cfi_offset 14, -4
 1626 09d2 83B0     		sub	sp, sp, #12
 1627              		.cfi_def_cfa_offset 16
 1628 09d4 0190     		str	r0, [sp, #4]
 1629 09d6 0091     		str	r1, [sp]
 1630              		.loc 1 939 0
 1631 09d8 019B     		ldr	r3, [sp, #4]
 1632 09da 1B68     		ldr	r3, [r3]
 1633 09dc 1846     		mov	r0, r3
 1634 09de 0099     		ldr	r1, [sp]
 1635 09e0 0022     		movs	r2, #0
 1636 09e2 00F0DDFE 		bl	TIM_CCxNChannelCmd
 1637              		.loc 1 942 0
 1638 09e6 019B     		ldr	r3, [sp, #4]
 1639 09e8 1B68     		ldr	r3, [r3]
 1640 09ea 1A6A     		ldr	r2, [r3, #32]
 1641 09ec 41F21113 		movw	r3, #4369
 1642 09f0 1340     		ands	r3, r3, r2
 1643 09f2 002B     		cmp	r3, #0
 1644 09f4 0FD1     		bne	.L90
 1645              		.loc 1 942 0 is_stmt 0 discriminator 1
 1646 09f6 019B     		ldr	r3, [sp, #4]
 1647 09f8 1B68     		ldr	r3, [r3]
ARM GAS  /tmp/ccUiHCLc.s 			page 30


 1648 09fa 1A6A     		ldr	r2, [r3, #32]
 1649 09fc 40F24443 		movw	r3, #1092
 1650 0a00 1340     		ands	r3, r3, r2
 1651 0a02 002B     		cmp	r3, #0
 1652 0a04 07D1     		bne	.L90
 1653 0a06 019B     		ldr	r3, [sp, #4]
 1654 0a08 1B68     		ldr	r3, [r3]
 1655 0a0a 019A     		ldr	r2, [sp, #4]
 1656 0a0c 1268     		ldr	r2, [r2]
 1657 0a0e 526C     		ldr	r2, [r2, #68]
 1658 0a10 22F40042 		bic	r2, r2, #32768
 1659 0a14 5A64     		str	r2, [r3, #68]
 1660              	.L90:
 1661              		.loc 1 945 0 is_stmt 1
 1662 0a16 019B     		ldr	r3, [sp, #4]
 1663 0a18 1B68     		ldr	r3, [r3]
 1664 0a1a 1A6A     		ldr	r2, [r3, #32]
 1665 0a1c 41F21113 		movw	r3, #4369
 1666 0a20 1340     		ands	r3, r3, r2
 1667 0a22 002B     		cmp	r3, #0
 1668 0a24 0FD1     		bne	.L91
 1669              		.loc 1 945 0 is_stmt 0 discriminator 1
 1670 0a26 019B     		ldr	r3, [sp, #4]
 1671 0a28 1B68     		ldr	r3, [r3]
 1672 0a2a 1A6A     		ldr	r2, [r3, #32]
 1673 0a2c 40F24443 		movw	r3, #1092
 1674 0a30 1340     		ands	r3, r3, r2
 1675 0a32 002B     		cmp	r3, #0
 1676 0a34 07D1     		bne	.L91
 1677 0a36 019B     		ldr	r3, [sp, #4]
 1678 0a38 1B68     		ldr	r3, [r3]
 1679 0a3a 019A     		ldr	r2, [sp, #4]
 1680 0a3c 1268     		ldr	r2, [r2]
 1681 0a3e 1268     		ldr	r2, [r2]
 1682 0a40 22F00102 		bic	r2, r2, #1
 1683 0a44 1A60     		str	r2, [r3]
 1684              	.L91:
 1685              		.loc 1 948 0 is_stmt 1
 1686 0a46 0023     		movs	r3, #0
 1687              		.loc 1 949 0
 1688 0a48 1846     		mov	r0, r3
 1689 0a4a 03B0     		add	sp, sp, #12
 1690              		@ sp needed
 1691 0a4c 5DF804FB 		ldr	pc, [sp], #4
 1692              		.cfi_endproc
 1693              	.LFE142:
 1694              		.size	HAL_TIMEx_PWMN_Stop, .-HAL_TIMEx_PWMN_Stop
 1695              		.align	2
 1696              		.p2align 4,,15
 1697              		.global	HAL_TIMEx_PWMN_Start_IT
 1698              		.thumb
 1699              		.thumb_func
 1700              		.type	HAL_TIMEx_PWMN_Start_IT, %function
 1701              	HAL_TIMEx_PWMN_Start_IT:
 1702              	.LFB143:
 1703              		.loc 1 964 0
 1704              		.cfi_startproc
ARM GAS  /tmp/ccUiHCLc.s 			page 31


 1705              		@ args = 0, pretend = 0, frame = 8
 1706              		@ frame_needed = 0, uses_anonymous_args = 0
 1707 0a50 00B5     		push	{lr}
 1708              		.cfi_def_cfa_offset 4
 1709              		.cfi_offset 14, -4
 1710 0a52 83B0     		sub	sp, sp, #12
 1711              		.cfi_def_cfa_offset 16
 1712 0a54 0190     		str	r0, [sp, #4]
 1713 0a56 0091     		str	r1, [sp]
 1714              		.loc 1 968 0
 1715 0a58 009B     		ldr	r3, [sp]
 1716 0a5a 0C2B     		cmp	r3, #12
 1717 0a5c 40D8     		bhi	.L102
 1718 0a5e 01A2     		adr	r2, .L96
 1719 0a60 52F823F0 		ldr	pc, [r2, r3, lsl #2]
 1720              		.p2align 2
 1721              	.L96:
 1722 0a64 990A0000 		.word	.L95+1
 1723 0a68 E10A0000 		.word	.L102+1
 1724 0a6c E10A0000 		.word	.L102+1
 1725 0a70 E10A0000 		.word	.L102+1
 1726 0a74 AB0A0000 		.word	.L97+1
 1727 0a78 E10A0000 		.word	.L102+1
 1728 0a7c E10A0000 		.word	.L102+1
 1729 0a80 E10A0000 		.word	.L102+1
 1730 0a84 BD0A0000 		.word	.L98+1
 1731 0a88 E10A0000 		.word	.L102+1
 1732 0a8c E10A0000 		.word	.L102+1
 1733 0a90 E10A0000 		.word	.L102+1
 1734 0a94 CF0A0000 		.word	.L99+1
 1735              		.p2align 1
 1736              	.L95:
 1737              		.loc 1 973 0
 1738 0a98 019B     		ldr	r3, [sp, #4]
 1739 0a9a 1B68     		ldr	r3, [r3]
 1740 0a9c 019A     		ldr	r2, [sp, #4]
 1741 0a9e 1268     		ldr	r2, [r2]
 1742 0aa0 D268     		ldr	r2, [r2, #12]
 1743 0aa2 42F00202 		orr	r2, r2, #2
 1744 0aa6 DA60     		str	r2, [r3, #12]
 1745              		.loc 1 975 0
 1746 0aa8 1BE0     		b	.L100
 1747              	.L97:
 1748              		.loc 1 980 0
 1749 0aaa 019B     		ldr	r3, [sp, #4]
 1750 0aac 1B68     		ldr	r3, [r3]
 1751 0aae 019A     		ldr	r2, [sp, #4]
 1752 0ab0 1268     		ldr	r2, [r2]
 1753 0ab2 D268     		ldr	r2, [r2, #12]
 1754 0ab4 42F00402 		orr	r2, r2, #4
 1755 0ab8 DA60     		str	r2, [r3, #12]
 1756              		.loc 1 982 0
 1757 0aba 12E0     		b	.L100
 1758              	.L98:
 1759              		.loc 1 987 0
 1760 0abc 019B     		ldr	r3, [sp, #4]
 1761 0abe 1B68     		ldr	r3, [r3]
ARM GAS  /tmp/ccUiHCLc.s 			page 32


 1762 0ac0 019A     		ldr	r2, [sp, #4]
 1763 0ac2 1268     		ldr	r2, [r2]
 1764 0ac4 D268     		ldr	r2, [r2, #12]
 1765 0ac6 42F00802 		orr	r2, r2, #8
 1766 0aca DA60     		str	r2, [r3, #12]
 1767              		.loc 1 989 0
 1768 0acc 09E0     		b	.L100
 1769              	.L99:
 1770              		.loc 1 994 0
 1771 0ace 019B     		ldr	r3, [sp, #4]
 1772 0ad0 1B68     		ldr	r3, [r3]
 1773 0ad2 019A     		ldr	r2, [sp, #4]
 1774 0ad4 1268     		ldr	r2, [r2]
 1775 0ad6 D268     		ldr	r2, [r2, #12]
 1776 0ad8 42F01002 		orr	r2, r2, #16
 1777 0adc DA60     		str	r2, [r3, #12]
 1778              		.loc 1 996 0
 1779 0ade 00E0     		b	.L100
 1780              	.L102:
 1781              		.loc 1 999 0
 1782 0ae0 00BF     		nop
 1783              	.L100:
 1784              		.loc 1 1003 0
 1785 0ae2 019B     		ldr	r3, [sp, #4]
 1786 0ae4 1B68     		ldr	r3, [r3]
 1787 0ae6 019A     		ldr	r2, [sp, #4]
 1788 0ae8 1268     		ldr	r2, [r2]
 1789 0aea D268     		ldr	r2, [r2, #12]
 1790 0aec 42F08002 		orr	r2, r2, #128
 1791 0af0 DA60     		str	r2, [r3, #12]
 1792              		.loc 1 1006 0
 1793 0af2 019B     		ldr	r3, [sp, #4]
 1794 0af4 1B68     		ldr	r3, [r3]
 1795 0af6 1846     		mov	r0, r3
 1796 0af8 0099     		ldr	r1, [sp]
 1797 0afa 0422     		movs	r2, #4
 1798 0afc 00F050FE 		bl	TIM_CCxNChannelCmd
 1799              		.loc 1 1009 0
 1800 0b00 019B     		ldr	r3, [sp, #4]
 1801 0b02 1B68     		ldr	r3, [r3]
 1802 0b04 019A     		ldr	r2, [sp, #4]
 1803 0b06 1268     		ldr	r2, [r2]
 1804 0b08 526C     		ldr	r2, [r2, #68]
 1805 0b0a 42F40042 		orr	r2, r2, #32768
 1806 0b0e 5A64     		str	r2, [r3, #68]
 1807              		.loc 1 1012 0
 1808 0b10 019B     		ldr	r3, [sp, #4]
 1809 0b12 1B68     		ldr	r3, [r3]
 1810 0b14 019A     		ldr	r2, [sp, #4]
 1811 0b16 1268     		ldr	r2, [r2]
 1812 0b18 1268     		ldr	r2, [r2]
 1813 0b1a 42F00102 		orr	r2, r2, #1
 1814 0b1e 1A60     		str	r2, [r3]
 1815              		.loc 1 1015 0
 1816 0b20 0023     		movs	r3, #0
 1817              		.loc 1 1016 0
 1818 0b22 1846     		mov	r0, r3
ARM GAS  /tmp/ccUiHCLc.s 			page 33


 1819 0b24 03B0     		add	sp, sp, #12
 1820              		@ sp needed
 1821 0b26 5DF804FB 		ldr	pc, [sp], #4
 1822              		.cfi_endproc
 1823              	.LFE143:
 1824              		.size	HAL_TIMEx_PWMN_Start_IT, .-HAL_TIMEx_PWMN_Start_IT
 1825 0b2a 00BF     		.align	2
 1826 0b2c AFF30080 		.p2align 4,,15
 1827              		.global	HAL_TIMEx_PWMN_Stop_IT
 1828              		.thumb
 1829              		.thumb_func
 1830              		.type	HAL_TIMEx_PWMN_Stop_IT, %function
 1831              	HAL_TIMEx_PWMN_Stop_IT:
 1832              	.LFB144:
 1833              		.loc 1 1031 0
 1834              		.cfi_startproc
 1835              		@ args = 0, pretend = 0, frame = 16
 1836              		@ frame_needed = 0, uses_anonymous_args = 0
 1837 0b30 00B5     		push	{lr}
 1838              		.cfi_def_cfa_offset 4
 1839              		.cfi_offset 14, -4
 1840 0b32 85B0     		sub	sp, sp, #20
 1841              		.cfi_def_cfa_offset 24
 1842 0b34 0190     		str	r0, [sp, #4]
 1843 0b36 0091     		str	r1, [sp]
 1844              		.loc 1 1032 0
 1845 0b38 0023     		movs	r3, #0
 1846 0b3a 0393     		str	r3, [sp, #12]
 1847              		.loc 1 1037 0
 1848 0b3c 009B     		ldr	r3, [sp]
 1849 0b3e 0C2B     		cmp	r3, #12
 1850 0b40 40D8     		bhi	.L115
 1851 0b42 01A2     		adr	r2, .L106
 1852 0b44 52F823F0 		ldr	pc, [r2, r3, lsl #2]
 1853              		.p2align 2
 1854              	.L106:
 1855 0b48 7D0B0000 		.word	.L105+1
 1856 0b4c C50B0000 		.word	.L115+1
 1857 0b50 C50B0000 		.word	.L115+1
 1858 0b54 C50B0000 		.word	.L115+1
 1859 0b58 8F0B0000 		.word	.L107+1
 1860 0b5c C50B0000 		.word	.L115+1
 1861 0b60 C50B0000 		.word	.L115+1
 1862 0b64 C50B0000 		.word	.L115+1
 1863 0b68 A10B0000 		.word	.L108+1
 1864 0b6c C50B0000 		.word	.L115+1
 1865 0b70 C50B0000 		.word	.L115+1
 1866 0b74 C50B0000 		.word	.L115+1
 1867 0b78 B30B0000 		.word	.L109+1
 1868              		.p2align 1
 1869              	.L105:
 1870              		.loc 1 1042 0
 1871 0b7c 019B     		ldr	r3, [sp, #4]
 1872 0b7e 1B68     		ldr	r3, [r3]
 1873 0b80 019A     		ldr	r2, [sp, #4]
 1874 0b82 1268     		ldr	r2, [r2]
 1875 0b84 D268     		ldr	r2, [r2, #12]
ARM GAS  /tmp/ccUiHCLc.s 			page 34


 1876 0b86 22F00202 		bic	r2, r2, #2
 1877 0b8a DA60     		str	r2, [r3, #12]
 1878              		.loc 1 1044 0
 1879 0b8c 1BE0     		b	.L110
 1880              	.L107:
 1881              		.loc 1 1049 0
 1882 0b8e 019B     		ldr	r3, [sp, #4]
 1883 0b90 1B68     		ldr	r3, [r3]
 1884 0b92 019A     		ldr	r2, [sp, #4]
 1885 0b94 1268     		ldr	r2, [r2]
 1886 0b96 D268     		ldr	r2, [r2, #12]
 1887 0b98 22F00402 		bic	r2, r2, #4
 1888 0b9c DA60     		str	r2, [r3, #12]
 1889              		.loc 1 1051 0
 1890 0b9e 12E0     		b	.L110
 1891              	.L108:
 1892              		.loc 1 1056 0
 1893 0ba0 019B     		ldr	r3, [sp, #4]
 1894 0ba2 1B68     		ldr	r3, [r3]
 1895 0ba4 019A     		ldr	r2, [sp, #4]
 1896 0ba6 1268     		ldr	r2, [r2]
 1897 0ba8 D268     		ldr	r2, [r2, #12]
 1898 0baa 22F00802 		bic	r2, r2, #8
 1899 0bae DA60     		str	r2, [r3, #12]
 1900              		.loc 1 1058 0
 1901 0bb0 09E0     		b	.L110
 1902              	.L109:
 1903              		.loc 1 1063 0
 1904 0bb2 019B     		ldr	r3, [sp, #4]
 1905 0bb4 1B68     		ldr	r3, [r3]
 1906 0bb6 019A     		ldr	r2, [sp, #4]
 1907 0bb8 1268     		ldr	r2, [r2]
 1908 0bba D268     		ldr	r2, [r2, #12]
 1909 0bbc 22F01002 		bic	r2, r2, #16
 1910 0bc0 DA60     		str	r2, [r3, #12]
 1911              		.loc 1 1065 0
 1912 0bc2 00E0     		b	.L110
 1913              	.L115:
 1914              		.loc 1 1068 0
 1915 0bc4 00BF     		nop
 1916              	.L110:
 1917              		.loc 1 1072 0
 1918 0bc6 019B     		ldr	r3, [sp, #4]
 1919 0bc8 1B68     		ldr	r3, [r3]
 1920 0bca 1846     		mov	r0, r3
 1921 0bcc 0099     		ldr	r1, [sp]
 1922 0bce 0022     		movs	r2, #0
 1923 0bd0 00F0E6FD 		bl	TIM_CCxNChannelCmd
 1924              		.loc 1 1076 0
 1925 0bd4 019B     		ldr	r3, [sp, #4]
 1926 0bd6 1B68     		ldr	r3, [r3]
 1927 0bd8 1B6A     		ldr	r3, [r3, #32]
 1928 0bda 0393     		str	r3, [sp, #12]
 1929              		.loc 1 1077 0
 1930 0bdc 039A     		ldr	r2, [sp, #12]
 1931 0bde 40F24443 		movw	r3, #1092
 1932 0be2 1340     		ands	r3, r3, r2
ARM GAS  /tmp/ccUiHCLc.s 			page 35


 1933 0be4 002B     		cmp	r3, #0
 1934 0be6 07D1     		bne	.L111
 1935              		.loc 1 1079 0
 1936 0be8 019B     		ldr	r3, [sp, #4]
 1937 0bea 1B68     		ldr	r3, [r3]
 1938 0bec 019A     		ldr	r2, [sp, #4]
 1939 0bee 1268     		ldr	r2, [r2]
 1940 0bf0 D268     		ldr	r2, [r2, #12]
 1941 0bf2 22F08002 		bic	r2, r2, #128
 1942 0bf6 DA60     		str	r2, [r3, #12]
 1943              	.L111:
 1944              		.loc 1 1083 0
 1945 0bf8 019B     		ldr	r3, [sp, #4]
 1946 0bfa 1B68     		ldr	r3, [r3]
 1947 0bfc 1A6A     		ldr	r2, [r3, #32]
 1948 0bfe 41F21113 		movw	r3, #4369
 1949 0c02 1340     		ands	r3, r3, r2
 1950 0c04 002B     		cmp	r3, #0
 1951 0c06 0FD1     		bne	.L112
 1952              		.loc 1 1083 0 is_stmt 0 discriminator 1
 1953 0c08 019B     		ldr	r3, [sp, #4]
 1954 0c0a 1B68     		ldr	r3, [r3]
 1955 0c0c 1A6A     		ldr	r2, [r3, #32]
 1956 0c0e 40F24443 		movw	r3, #1092
 1957 0c12 1340     		ands	r3, r3, r2
 1958 0c14 002B     		cmp	r3, #0
 1959 0c16 07D1     		bne	.L112
 1960 0c18 019B     		ldr	r3, [sp, #4]
 1961 0c1a 1B68     		ldr	r3, [r3]
 1962 0c1c 019A     		ldr	r2, [sp, #4]
 1963 0c1e 1268     		ldr	r2, [r2]
 1964 0c20 526C     		ldr	r2, [r2, #68]
 1965 0c22 22F40042 		bic	r2, r2, #32768
 1966 0c26 5A64     		str	r2, [r3, #68]
 1967              	.L112:
 1968              		.loc 1 1086 0 is_stmt 1
 1969 0c28 019B     		ldr	r3, [sp, #4]
 1970 0c2a 1B68     		ldr	r3, [r3]
 1971 0c2c 1A6A     		ldr	r2, [r3, #32]
 1972 0c2e 41F21113 		movw	r3, #4369
 1973 0c32 1340     		ands	r3, r3, r2
 1974 0c34 002B     		cmp	r3, #0
 1975 0c36 0FD1     		bne	.L113
 1976              		.loc 1 1086 0 is_stmt 0 discriminator 1
 1977 0c38 019B     		ldr	r3, [sp, #4]
 1978 0c3a 1B68     		ldr	r3, [r3]
 1979 0c3c 1A6A     		ldr	r2, [r3, #32]
 1980 0c3e 40F24443 		movw	r3, #1092
 1981 0c42 1340     		ands	r3, r3, r2
 1982 0c44 002B     		cmp	r3, #0
 1983 0c46 07D1     		bne	.L113
 1984 0c48 019B     		ldr	r3, [sp, #4]
 1985 0c4a 1B68     		ldr	r3, [r3]
 1986 0c4c 019A     		ldr	r2, [sp, #4]
 1987 0c4e 1268     		ldr	r2, [r2]
 1988 0c50 1268     		ldr	r2, [r2]
 1989 0c52 22F00102 		bic	r2, r2, #1
ARM GAS  /tmp/ccUiHCLc.s 			page 36


 1990 0c56 1A60     		str	r2, [r3]
 1991              	.L113:
 1992              		.loc 1 1089 0 is_stmt 1
 1993 0c58 0023     		movs	r3, #0
 1994              		.loc 1 1090 0
 1995 0c5a 1846     		mov	r0, r3
 1996 0c5c 05B0     		add	sp, sp, #20
 1997              		@ sp needed
 1998 0c5e 5DF804FB 		ldr	pc, [sp], #4
 1999              		.cfi_endproc
 2000              	.LFE144:
 2001              		.size	HAL_TIMEx_PWMN_Stop_IT, .-HAL_TIMEx_PWMN_Stop_IT
 2002 0c62 00BF     		.align	2
 2003 0c64 AFF30080 		.p2align 4,,15
 2003      AFF30080 
 2003      AFF30080 
 2004              		.global	HAL_TIMEx_PWMN_Start_DMA
 2005              		.thumb
 2006              		.thumb_func
 2007              		.type	HAL_TIMEx_PWMN_Start_DMA, %function
 2008              	HAL_TIMEx_PWMN_Start_DMA:
 2009              	.LFB145:
 2010              		.loc 1 1107 0
 2011              		.cfi_startproc
 2012              		@ args = 0, pretend = 0, frame = 16
 2013              		@ frame_needed = 0, uses_anonymous_args = 0
 2014 0c70 00B5     		push	{lr}
 2015              		.cfi_def_cfa_offset 4
 2016              		.cfi_offset 14, -4
 2017 0c72 85B0     		sub	sp, sp, #20
 2018              		.cfi_def_cfa_offset 24
 2019 0c74 0390     		str	r0, [sp, #12]
 2020 0c76 0291     		str	r1, [sp, #8]
 2021 0c78 0192     		str	r2, [sp, #4]
 2022 0c7a ADF80230 		strh	r3, [sp, #2]	@ movhi
 2023              		.loc 1 1111 0
 2024 0c7e 039B     		ldr	r3, [sp, #12]
 2025 0c80 93F83930 		ldrb	r3, [r3, #57]
 2026 0c84 DBB2     		uxtb	r3, r3
 2027 0c86 022B     		cmp	r3, #2
 2028 0c88 01D1     		bne	.L117
 2029              		.loc 1 1113 0
 2030 0c8a 0223     		movs	r3, #2
 2031 0c8c BDE0     		b	.L118
 2032              	.L117:
 2033              		.loc 1 1115 0
 2034 0c8e 039B     		ldr	r3, [sp, #12]
 2035 0c90 93F83930 		ldrb	r3, [r3, #57]
 2036 0c94 DBB2     		uxtb	r3, r3
 2037 0c96 012B     		cmp	r3, #1
 2038 0c98 0CD1     		bne	.L119
 2039              		.loc 1 1117 0
 2040 0c9a 019B     		ldr	r3, [sp, #4]
 2041 0c9c 002B     		cmp	r3, #0
 2042 0c9e 05D1     		bne	.L120
 2043              		.loc 1 1117 0 is_stmt 0 discriminator 1
 2044 0ca0 BDF80230 		ldrh	r3, [sp, #2]
ARM GAS  /tmp/ccUiHCLc.s 			page 37


 2045 0ca4 002B     		cmp	r3, #0
 2046 0ca6 01D0     		beq	.L120
 2047              		.loc 1 1119 0 is_stmt 1
 2048 0ca8 0123     		movs	r3, #1
 2049 0caa AEE0     		b	.L118
 2050              	.L120:
 2051              		.loc 1 1123 0
 2052 0cac 039B     		ldr	r3, [sp, #12]
 2053 0cae 0222     		movs	r2, #2
 2054 0cb0 83F83920 		strb	r2, [r3, #57]
 2055              	.L119:
 2056              		.loc 1 1126 0
 2057 0cb4 029B     		ldr	r3, [sp, #8]
 2058 0cb6 0C2B     		cmp	r3, #12
 2059 0cb8 00F28E80 		bhi	.L128
 2060 0cbc 01A2     		adr	r2, .L123
 2061 0cbe 52F823F0 		ldr	pc, [r2, r3, lsl #2]
 2062 0cc2 00BF     		.p2align 2
 2063              	.L123:
 2064 0cc4 F90C0000 		.word	.L122+1
 2065 0cc8 D90D0000 		.word	.L128+1
 2066 0ccc D90D0000 		.word	.L128+1
 2067 0cd0 D90D0000 		.word	.L128+1
 2068 0cd4 310D0000 		.word	.L124+1
 2069 0cd8 D90D0000 		.word	.L128+1
 2070 0cdc D90D0000 		.word	.L128+1
 2071 0ce0 D90D0000 		.word	.L128+1
 2072 0ce4 690D0000 		.word	.L125+1
 2073 0ce8 D90D0000 		.word	.L128+1
 2074 0cec D90D0000 		.word	.L128+1
 2075 0cf0 D90D0000 		.word	.L128+1
 2076 0cf4 A10D0000 		.word	.L126+1
 2077              		.p2align 1
 2078              	.L122:
 2079              		.loc 1 1131 0
 2080 0cf8 039B     		ldr	r3, [sp, #12]
 2081 0cfa 1B6A     		ldr	r3, [r3, #32]
 2082 0cfc 454A     		ldr	r2, .L129
 2083 0cfe DA62     		str	r2, [r3, #44]
 2084              		.loc 1 1134 0
 2085 0d00 039B     		ldr	r3, [sp, #12]
 2086 0d02 1B6A     		ldr	r3, [r3, #32]
 2087 0d04 444A     		ldr	r2, .L129+4
 2088 0d06 5A63     		str	r2, [r3, #52]
 2089              		.loc 1 1137 0
 2090 0d08 039B     		ldr	r3, [sp, #12]
 2091 0d0a 186A     		ldr	r0, [r3, #32]
 2092 0d0c 0199     		ldr	r1, [sp, #4]
 2093 0d0e 039B     		ldr	r3, [sp, #12]
 2094 0d10 1B68     		ldr	r3, [r3]
 2095 0d12 3433     		adds	r3, r3, #52
 2096 0d14 1A46     		mov	r2, r3
 2097 0d16 BDF80230 		ldrh	r3, [sp, #2]
 2098 0d1a FFF7FEFF 		bl	HAL_DMA_Start_IT
 2099              		.loc 1 1140 0
 2100 0d1e 039B     		ldr	r3, [sp, #12]
 2101 0d20 1B68     		ldr	r3, [r3]
ARM GAS  /tmp/ccUiHCLc.s 			page 38


 2102 0d22 039A     		ldr	r2, [sp, #12]
 2103 0d24 1268     		ldr	r2, [r2]
 2104 0d26 D268     		ldr	r2, [r2, #12]
 2105 0d28 42F40072 		orr	r2, r2, #512
 2106 0d2c DA60     		str	r2, [r3, #12]
 2107              		.loc 1 1142 0
 2108 0d2e 54E0     		b	.L127
 2109              	.L124:
 2110              		.loc 1 1147 0
 2111 0d30 039B     		ldr	r3, [sp, #12]
 2112 0d32 5B6A     		ldr	r3, [r3, #36]
 2113 0d34 374A     		ldr	r2, .L129
 2114 0d36 DA62     		str	r2, [r3, #44]
 2115              		.loc 1 1150 0
 2116 0d38 039B     		ldr	r3, [sp, #12]
 2117 0d3a 5B6A     		ldr	r3, [r3, #36]
 2118 0d3c 364A     		ldr	r2, .L129+4
 2119 0d3e 5A63     		str	r2, [r3, #52]
 2120              		.loc 1 1153 0
 2121 0d40 039B     		ldr	r3, [sp, #12]
 2122 0d42 586A     		ldr	r0, [r3, #36]
 2123 0d44 0199     		ldr	r1, [sp, #4]
 2124 0d46 039B     		ldr	r3, [sp, #12]
 2125 0d48 1B68     		ldr	r3, [r3]
 2126 0d4a 3833     		adds	r3, r3, #56
 2127 0d4c 1A46     		mov	r2, r3
 2128 0d4e BDF80230 		ldrh	r3, [sp, #2]
 2129 0d52 FFF7FEFF 		bl	HAL_DMA_Start_IT
 2130              		.loc 1 1156 0
 2131 0d56 039B     		ldr	r3, [sp, #12]
 2132 0d58 1B68     		ldr	r3, [r3]
 2133 0d5a 039A     		ldr	r2, [sp, #12]
 2134 0d5c 1268     		ldr	r2, [r2]
 2135 0d5e D268     		ldr	r2, [r2, #12]
 2136 0d60 42F48062 		orr	r2, r2, #1024
 2137 0d64 DA60     		str	r2, [r3, #12]
 2138              		.loc 1 1158 0
 2139 0d66 38E0     		b	.L127
 2140              	.L125:
 2141              		.loc 1 1163 0
 2142 0d68 039B     		ldr	r3, [sp, #12]
 2143 0d6a 9B6A     		ldr	r3, [r3, #40]
 2144 0d6c 294A     		ldr	r2, .L129
 2145 0d6e DA62     		str	r2, [r3, #44]
 2146              		.loc 1 1166 0
 2147 0d70 039B     		ldr	r3, [sp, #12]
 2148 0d72 9B6A     		ldr	r3, [r3, #40]
 2149 0d74 284A     		ldr	r2, .L129+4
 2150 0d76 5A63     		str	r2, [r3, #52]
 2151              		.loc 1 1169 0
 2152 0d78 039B     		ldr	r3, [sp, #12]
 2153 0d7a 986A     		ldr	r0, [r3, #40]
 2154 0d7c 0199     		ldr	r1, [sp, #4]
 2155 0d7e 039B     		ldr	r3, [sp, #12]
 2156 0d80 1B68     		ldr	r3, [r3]
 2157 0d82 3C33     		adds	r3, r3, #60
 2158 0d84 1A46     		mov	r2, r3
ARM GAS  /tmp/ccUiHCLc.s 			page 39


 2159 0d86 BDF80230 		ldrh	r3, [sp, #2]
 2160 0d8a FFF7FEFF 		bl	HAL_DMA_Start_IT
 2161              		.loc 1 1172 0
 2162 0d8e 039B     		ldr	r3, [sp, #12]
 2163 0d90 1B68     		ldr	r3, [r3]
 2164 0d92 039A     		ldr	r2, [sp, #12]
 2165 0d94 1268     		ldr	r2, [r2]
 2166 0d96 D268     		ldr	r2, [r2, #12]
 2167 0d98 42F40062 		orr	r2, r2, #2048
 2168 0d9c DA60     		str	r2, [r3, #12]
 2169              		.loc 1 1174 0
 2170 0d9e 1CE0     		b	.L127
 2171              	.L126:
 2172              		.loc 1 1179 0
 2173 0da0 039B     		ldr	r3, [sp, #12]
 2174 0da2 DB6A     		ldr	r3, [r3, #44]
 2175 0da4 1B4A     		ldr	r2, .L129
 2176 0da6 DA62     		str	r2, [r3, #44]
 2177              		.loc 1 1182 0
 2178 0da8 039B     		ldr	r3, [sp, #12]
 2179 0daa DB6A     		ldr	r3, [r3, #44]
 2180 0dac 1A4A     		ldr	r2, .L129+4
 2181 0dae 5A63     		str	r2, [r3, #52]
 2182              		.loc 1 1185 0
 2183 0db0 039B     		ldr	r3, [sp, #12]
 2184 0db2 D86A     		ldr	r0, [r3, #44]
 2185 0db4 0199     		ldr	r1, [sp, #4]
 2186 0db6 039B     		ldr	r3, [sp, #12]
 2187 0db8 1B68     		ldr	r3, [r3]
 2188 0dba 4033     		adds	r3, r3, #64
 2189 0dbc 1A46     		mov	r2, r3
 2190 0dbe BDF80230 		ldrh	r3, [sp, #2]
 2191 0dc2 FFF7FEFF 		bl	HAL_DMA_Start_IT
 2192              		.loc 1 1188 0
 2193 0dc6 039B     		ldr	r3, [sp, #12]
 2194 0dc8 1B68     		ldr	r3, [r3]
 2195 0dca 039A     		ldr	r2, [sp, #12]
 2196 0dcc 1268     		ldr	r2, [r2]
 2197 0dce D268     		ldr	r2, [r2, #12]
 2198 0dd0 42F48052 		orr	r2, r2, #4096
 2199 0dd4 DA60     		str	r2, [r3, #12]
 2200              		.loc 1 1190 0
 2201 0dd6 00E0     		b	.L127
 2202              	.L128:
 2203              		.loc 1 1193 0
 2204 0dd8 00BF     		nop
 2205              	.L127:
 2206              		.loc 1 1197 0
 2207 0dda 039B     		ldr	r3, [sp, #12]
 2208 0ddc 1B68     		ldr	r3, [r3]
 2209 0dde 1846     		mov	r0, r3
 2210 0de0 0299     		ldr	r1, [sp, #8]
 2211 0de2 0422     		movs	r2, #4
 2212 0de4 00F0DCFC 		bl	TIM_CCxNChannelCmd
 2213              		.loc 1 1200 0
 2214 0de8 039B     		ldr	r3, [sp, #12]
 2215 0dea 1B68     		ldr	r3, [r3]
ARM GAS  /tmp/ccUiHCLc.s 			page 40


 2216 0dec 039A     		ldr	r2, [sp, #12]
 2217 0dee 1268     		ldr	r2, [r2]
 2218 0df0 526C     		ldr	r2, [r2, #68]
 2219 0df2 42F40042 		orr	r2, r2, #32768
 2220 0df6 5A64     		str	r2, [r3, #68]
 2221              		.loc 1 1203 0
 2222 0df8 039B     		ldr	r3, [sp, #12]
 2223 0dfa 1B68     		ldr	r3, [r3]
 2224 0dfc 039A     		ldr	r2, [sp, #12]
 2225 0dfe 1268     		ldr	r2, [r2]
 2226 0e00 1268     		ldr	r2, [r2]
 2227 0e02 42F00102 		orr	r2, r2, #1
 2228 0e06 1A60     		str	r2, [r3]
 2229              		.loc 1 1206 0
 2230 0e08 0023     		movs	r3, #0
 2231              	.L118:
 2232              		.loc 1 1207 0
 2233 0e0a 1846     		mov	r0, r3
 2234 0e0c 05B0     		add	sp, sp, #20
 2235              		@ sp needed
 2236 0e0e 5DF804FB 		ldr	pc, [sp], #4
 2237              	.L130:
 2238 0e12 00BF     		.align	2
 2239              	.L129:
 2240 0e14 00000000 		.word	TIM_DMADelayPulseCplt
 2241 0e18 00000000 		.word	TIM_DMAError
 2242              		.cfi_endproc
 2243              	.LFE145:
 2244              		.size	HAL_TIMEx_PWMN_Start_DMA, .-HAL_TIMEx_PWMN_Start_DMA
 2245              		.align	2
 2246 0e1c AFF30080 		.p2align 4,,15
 2247              		.global	HAL_TIMEx_PWMN_Stop_DMA
 2248              		.thumb
 2249              		.thumb_func
 2250              		.type	HAL_TIMEx_PWMN_Stop_DMA, %function
 2251              	HAL_TIMEx_PWMN_Stop_DMA:
 2252              	.LFB146:
 2253              		.loc 1 1222 0
 2254              		.cfi_startproc
 2255              		@ args = 0, pretend = 0, frame = 8
 2256              		@ frame_needed = 0, uses_anonymous_args = 0
 2257 0e20 00B5     		push	{lr}
 2258              		.cfi_def_cfa_offset 4
 2259              		.cfi_offset 14, -4
 2260 0e22 83B0     		sub	sp, sp, #12
 2261              		.cfi_def_cfa_offset 16
 2262 0e24 0190     		str	r0, [sp, #4]
 2263 0e26 0091     		str	r1, [sp]
 2264              		.loc 1 1226 0
 2265 0e28 009B     		ldr	r3, [sp]
 2266 0e2a 0C2B     		cmp	r3, #12
 2267 0e2c 40D8     		bhi	.L142
 2268 0e2e 01A2     		adr	r2, .L134
 2269 0e30 52F823F0 		ldr	pc, [r2, r3, lsl #2]
 2270              		.p2align 2
 2271              	.L134:
 2272 0e34 690E0000 		.word	.L133+1
ARM GAS  /tmp/ccUiHCLc.s 			page 41


 2273 0e38 B10E0000 		.word	.L142+1
 2274 0e3c B10E0000 		.word	.L142+1
 2275 0e40 B10E0000 		.word	.L142+1
 2276 0e44 7B0E0000 		.word	.L135+1
 2277 0e48 B10E0000 		.word	.L142+1
 2278 0e4c B10E0000 		.word	.L142+1
 2279 0e50 B10E0000 		.word	.L142+1
 2280 0e54 8D0E0000 		.word	.L136+1
 2281 0e58 B10E0000 		.word	.L142+1
 2282 0e5c B10E0000 		.word	.L142+1
 2283 0e60 B10E0000 		.word	.L142+1
 2284 0e64 9F0E0000 		.word	.L137+1
 2285              		.p2align 1
 2286              	.L133:
 2287              		.loc 1 1231 0
 2288 0e68 019B     		ldr	r3, [sp, #4]
 2289 0e6a 1B68     		ldr	r3, [r3]
 2290 0e6c 019A     		ldr	r2, [sp, #4]
 2291 0e6e 1268     		ldr	r2, [r2]
 2292 0e70 D268     		ldr	r2, [r2, #12]
 2293 0e72 22F40072 		bic	r2, r2, #512
 2294 0e76 DA60     		str	r2, [r3, #12]
 2295              		.loc 1 1233 0
 2296 0e78 1BE0     		b	.L138
 2297              	.L135:
 2298              		.loc 1 1238 0
 2299 0e7a 019B     		ldr	r3, [sp, #4]
 2300 0e7c 1B68     		ldr	r3, [r3]
 2301 0e7e 019A     		ldr	r2, [sp, #4]
 2302 0e80 1268     		ldr	r2, [r2]
 2303 0e82 D268     		ldr	r2, [r2, #12]
 2304 0e84 22F48062 		bic	r2, r2, #1024
 2305 0e88 DA60     		str	r2, [r3, #12]
 2306              		.loc 1 1240 0
 2307 0e8a 12E0     		b	.L138
 2308              	.L136:
 2309              		.loc 1 1245 0
 2310 0e8c 019B     		ldr	r3, [sp, #4]
 2311 0e8e 1B68     		ldr	r3, [r3]
 2312 0e90 019A     		ldr	r2, [sp, #4]
 2313 0e92 1268     		ldr	r2, [r2]
 2314 0e94 D268     		ldr	r2, [r2, #12]
 2315 0e96 22F40062 		bic	r2, r2, #2048
 2316 0e9a DA60     		str	r2, [r3, #12]
 2317              		.loc 1 1247 0
 2318 0e9c 09E0     		b	.L138
 2319              	.L137:
 2320              		.loc 1 1252 0
 2321 0e9e 019B     		ldr	r3, [sp, #4]
 2322 0ea0 1B68     		ldr	r3, [r3]
 2323 0ea2 019A     		ldr	r2, [sp, #4]
 2324 0ea4 1268     		ldr	r2, [r2]
 2325 0ea6 D268     		ldr	r2, [r2, #12]
 2326 0ea8 22F48052 		bic	r2, r2, #4096
 2327 0eac DA60     		str	r2, [r3, #12]
 2328              		.loc 1 1254 0
 2329 0eae 00E0     		b	.L138
ARM GAS  /tmp/ccUiHCLc.s 			page 42


 2330              	.L142:
 2331              		.loc 1 1257 0
 2332 0eb0 00BF     		nop
 2333              	.L138:
 2334              		.loc 1 1261 0
 2335 0eb2 019B     		ldr	r3, [sp, #4]
 2336 0eb4 1B68     		ldr	r3, [r3]
 2337 0eb6 1846     		mov	r0, r3
 2338 0eb8 0099     		ldr	r1, [sp]
 2339 0eba 0022     		movs	r2, #0
 2340 0ebc 00F070FC 		bl	TIM_CCxNChannelCmd
 2341              		.loc 1 1264 0
 2342 0ec0 019B     		ldr	r3, [sp, #4]
 2343 0ec2 1B68     		ldr	r3, [r3]
 2344 0ec4 1A6A     		ldr	r2, [r3, #32]
 2345 0ec6 41F21113 		movw	r3, #4369
 2346 0eca 1340     		ands	r3, r3, r2
 2347 0ecc 002B     		cmp	r3, #0
 2348 0ece 0FD1     		bne	.L139
 2349              		.loc 1 1264 0 is_stmt 0 discriminator 1
 2350 0ed0 019B     		ldr	r3, [sp, #4]
 2351 0ed2 1B68     		ldr	r3, [r3]
 2352 0ed4 1A6A     		ldr	r2, [r3, #32]
 2353 0ed6 40F24443 		movw	r3, #1092
 2354 0eda 1340     		ands	r3, r3, r2
 2355 0edc 002B     		cmp	r3, #0
 2356 0ede 07D1     		bne	.L139
 2357 0ee0 019B     		ldr	r3, [sp, #4]
 2358 0ee2 1B68     		ldr	r3, [r3]
 2359 0ee4 019A     		ldr	r2, [sp, #4]
 2360 0ee6 1268     		ldr	r2, [r2]
 2361 0ee8 526C     		ldr	r2, [r2, #68]
 2362 0eea 22F40042 		bic	r2, r2, #32768
 2363 0eee 5A64     		str	r2, [r3, #68]
 2364              	.L139:
 2365              		.loc 1 1267 0 is_stmt 1
 2366 0ef0 019B     		ldr	r3, [sp, #4]
 2367 0ef2 1B68     		ldr	r3, [r3]
 2368 0ef4 1A6A     		ldr	r2, [r3, #32]
 2369 0ef6 41F21113 		movw	r3, #4369
 2370 0efa 1340     		ands	r3, r3, r2
 2371 0efc 002B     		cmp	r3, #0
 2372 0efe 0FD1     		bne	.L140
 2373              		.loc 1 1267 0 is_stmt 0 discriminator 1
 2374 0f00 019B     		ldr	r3, [sp, #4]
 2375 0f02 1B68     		ldr	r3, [r3]
 2376 0f04 1A6A     		ldr	r2, [r3, #32]
 2377 0f06 40F24443 		movw	r3, #1092
 2378 0f0a 1340     		ands	r3, r3, r2
 2379 0f0c 002B     		cmp	r3, #0
 2380 0f0e 07D1     		bne	.L140
 2381 0f10 019B     		ldr	r3, [sp, #4]
 2382 0f12 1B68     		ldr	r3, [r3]
 2383 0f14 019A     		ldr	r2, [sp, #4]
 2384 0f16 1268     		ldr	r2, [r2]
 2385 0f18 1268     		ldr	r2, [r2]
 2386 0f1a 22F00102 		bic	r2, r2, #1
ARM GAS  /tmp/ccUiHCLc.s 			page 43


 2387 0f1e 1A60     		str	r2, [r3]
 2388              	.L140:
 2389              		.loc 1 1270 0 is_stmt 1
 2390 0f20 019B     		ldr	r3, [sp, #4]
 2391 0f22 0122     		movs	r2, #1
 2392 0f24 83F83920 		strb	r2, [r3, #57]
 2393              		.loc 1 1273 0
 2394 0f28 0023     		movs	r3, #0
 2395              		.loc 1 1274 0
 2396 0f2a 1846     		mov	r0, r3
 2397 0f2c 03B0     		add	sp, sp, #12
 2398              		@ sp needed
 2399 0f2e 5DF804FB 		ldr	pc, [sp], #4
 2400              		.cfi_endproc
 2401              	.LFE146:
 2402              		.size	HAL_TIMEx_PWMN_Stop_DMA, .-HAL_TIMEx_PWMN_Stop_DMA
 2403 0f32 00BF     		.align	2
 2404 0f34 AFF30080 		.p2align 4,,15
 2404      AFF30080 
 2404      AFF30080 
 2405              		.global	HAL_TIMEx_OnePulseN_Start
 2406              		.thumb
 2407              		.thumb_func
 2408              		.type	HAL_TIMEx_OnePulseN_Start, %function
 2409              	HAL_TIMEx_OnePulseN_Start:
 2410              	.LFB147:
 2411              		.loc 1 1309 0
 2412              		.cfi_startproc
 2413              		@ args = 0, pretend = 0, frame = 8
 2414              		@ frame_needed = 0, uses_anonymous_args = 0
 2415 0f40 00B5     		push	{lr}
 2416              		.cfi_def_cfa_offset 4
 2417              		.cfi_offset 14, -4
 2418 0f42 83B0     		sub	sp, sp, #12
 2419              		.cfi_def_cfa_offset 16
 2420 0f44 0190     		str	r0, [sp, #4]
 2421 0f46 0091     		str	r1, [sp]
 2422              		.loc 1 1314 0
 2423 0f48 019B     		ldr	r3, [sp, #4]
 2424 0f4a 1B68     		ldr	r3, [r3]
 2425 0f4c 1846     		mov	r0, r3
 2426 0f4e 0099     		ldr	r1, [sp]
 2427 0f50 0422     		movs	r2, #4
 2428 0f52 00F025FC 		bl	TIM_CCxNChannelCmd
 2429              		.loc 1 1317 0
 2430 0f56 019B     		ldr	r3, [sp, #4]
 2431 0f58 1B68     		ldr	r3, [r3]
 2432 0f5a 019A     		ldr	r2, [sp, #4]
 2433 0f5c 1268     		ldr	r2, [r2]
 2434 0f5e 526C     		ldr	r2, [r2, #68]
 2435 0f60 42F40042 		orr	r2, r2, #32768
 2436 0f64 5A64     		str	r2, [r3, #68]
 2437              		.loc 1 1320 0
 2438 0f66 0023     		movs	r3, #0
 2439              		.loc 1 1321 0
 2440 0f68 1846     		mov	r0, r3
 2441 0f6a 03B0     		add	sp, sp, #12
ARM GAS  /tmp/ccUiHCLc.s 			page 44


 2442              		@ sp needed
 2443 0f6c 5DF804FB 		ldr	pc, [sp], #4
 2444              		.cfi_endproc
 2445              	.LFE147:
 2446              		.size	HAL_TIMEx_OnePulseN_Start, .-HAL_TIMEx_OnePulseN_Start
 2447              		.align	2
 2448              		.p2align 4,,15
 2449              		.global	HAL_TIMEx_OnePulseN_Stop
 2450              		.thumb
 2451              		.thumb_func
 2452              		.type	HAL_TIMEx_OnePulseN_Stop, %function
 2453              	HAL_TIMEx_OnePulseN_Stop:
 2454              	.LFB148:
 2455              		.loc 1 1334 0
 2456              		.cfi_startproc
 2457              		@ args = 0, pretend = 0, frame = 8
 2458              		@ frame_needed = 0, uses_anonymous_args = 0
 2459 0f70 00B5     		push	{lr}
 2460              		.cfi_def_cfa_offset 4
 2461              		.cfi_offset 14, -4
 2462 0f72 83B0     		sub	sp, sp, #12
 2463              		.cfi_def_cfa_offset 16
 2464 0f74 0190     		str	r0, [sp, #4]
 2465 0f76 0091     		str	r1, [sp]
 2466              		.loc 1 1340 0
 2467 0f78 019B     		ldr	r3, [sp, #4]
 2468 0f7a 1B68     		ldr	r3, [r3]
 2469 0f7c 1846     		mov	r0, r3
 2470 0f7e 0099     		ldr	r1, [sp]
 2471 0f80 0022     		movs	r2, #0
 2472 0f82 00F00DFC 		bl	TIM_CCxNChannelCmd
 2473              		.loc 1 1343 0
 2474 0f86 019B     		ldr	r3, [sp, #4]
 2475 0f88 1B68     		ldr	r3, [r3]
 2476 0f8a 1A6A     		ldr	r2, [r3, #32]
 2477 0f8c 41F21113 		movw	r3, #4369
 2478 0f90 1340     		ands	r3, r3, r2
 2479 0f92 002B     		cmp	r3, #0
 2480 0f94 0FD1     		bne	.L146
 2481              		.loc 1 1343 0 is_stmt 0 discriminator 1
 2482 0f96 019B     		ldr	r3, [sp, #4]
 2483 0f98 1B68     		ldr	r3, [r3]
 2484 0f9a 1A6A     		ldr	r2, [r3, #32]
 2485 0f9c 40F24443 		movw	r3, #1092
 2486 0fa0 1340     		ands	r3, r3, r2
 2487 0fa2 002B     		cmp	r3, #0
 2488 0fa4 07D1     		bne	.L146
 2489 0fa6 019B     		ldr	r3, [sp, #4]
 2490 0fa8 1B68     		ldr	r3, [r3]
 2491 0faa 019A     		ldr	r2, [sp, #4]
 2492 0fac 1268     		ldr	r2, [r2]
 2493 0fae 526C     		ldr	r2, [r2, #68]
 2494 0fb0 22F40042 		bic	r2, r2, #32768
 2495 0fb4 5A64     		str	r2, [r3, #68]
 2496              	.L146:
 2497              		.loc 1 1346 0 is_stmt 1
 2498 0fb6 019B     		ldr	r3, [sp, #4]
ARM GAS  /tmp/ccUiHCLc.s 			page 45


 2499 0fb8 1B68     		ldr	r3, [r3]
 2500 0fba 1A6A     		ldr	r2, [r3, #32]
 2501 0fbc 41F21113 		movw	r3, #4369
 2502 0fc0 1340     		ands	r3, r3, r2
 2503 0fc2 002B     		cmp	r3, #0
 2504 0fc4 0FD1     		bne	.L147
 2505              		.loc 1 1346 0 is_stmt 0 discriminator 1
 2506 0fc6 019B     		ldr	r3, [sp, #4]
 2507 0fc8 1B68     		ldr	r3, [r3]
 2508 0fca 1A6A     		ldr	r2, [r3, #32]
 2509 0fcc 40F24443 		movw	r3, #1092
 2510 0fd0 1340     		ands	r3, r3, r2
 2511 0fd2 002B     		cmp	r3, #0
 2512 0fd4 07D1     		bne	.L147
 2513 0fd6 019B     		ldr	r3, [sp, #4]
 2514 0fd8 1B68     		ldr	r3, [r3]
 2515 0fda 019A     		ldr	r2, [sp, #4]
 2516 0fdc 1268     		ldr	r2, [r2]
 2517 0fde 1268     		ldr	r2, [r2]
 2518 0fe0 22F00102 		bic	r2, r2, #1
 2519 0fe4 1A60     		str	r2, [r3]
 2520              	.L147:
 2521              		.loc 1 1349 0 is_stmt 1
 2522 0fe6 0023     		movs	r3, #0
 2523              		.loc 1 1350 0
 2524 0fe8 1846     		mov	r0, r3
 2525 0fea 03B0     		add	sp, sp, #12
 2526              		@ sp needed
 2527 0fec 5DF804FB 		ldr	pc, [sp], #4
 2528              		.cfi_endproc
 2529              	.LFE148:
 2530              		.size	HAL_TIMEx_OnePulseN_Stop, .-HAL_TIMEx_OnePulseN_Stop
 2531              		.align	2
 2532              		.p2align 4,,15
 2533              		.global	HAL_TIMEx_OnePulseN_Start_IT
 2534              		.thumb
 2535              		.thumb_func
 2536              		.type	HAL_TIMEx_OnePulseN_Start_IT, %function
 2537              	HAL_TIMEx_OnePulseN_Start_IT:
 2538              	.LFB149:
 2539              		.loc 1 1363 0
 2540              		.cfi_startproc
 2541              		@ args = 0, pretend = 0, frame = 8
 2542              		@ frame_needed = 0, uses_anonymous_args = 0
 2543 0ff0 00B5     		push	{lr}
 2544              		.cfi_def_cfa_offset 4
 2545              		.cfi_offset 14, -4
 2546 0ff2 83B0     		sub	sp, sp, #12
 2547              		.cfi_def_cfa_offset 16
 2548 0ff4 0190     		str	r0, [sp, #4]
 2549 0ff6 0091     		str	r1, [sp]
 2550              		.loc 1 1368 0
 2551 0ff8 019B     		ldr	r3, [sp, #4]
 2552 0ffa 1B68     		ldr	r3, [r3]
 2553 0ffc 019A     		ldr	r2, [sp, #4]
 2554 0ffe 1268     		ldr	r2, [r2]
 2555 1000 D268     		ldr	r2, [r2, #12]
ARM GAS  /tmp/ccUiHCLc.s 			page 46


 2556 1002 42F00202 		orr	r2, r2, #2
 2557 1006 DA60     		str	r2, [r3, #12]
 2558              		.loc 1 1371 0
 2559 1008 019B     		ldr	r3, [sp, #4]
 2560 100a 1B68     		ldr	r3, [r3]
 2561 100c 019A     		ldr	r2, [sp, #4]
 2562 100e 1268     		ldr	r2, [r2]
 2563 1010 D268     		ldr	r2, [r2, #12]
 2564 1012 42F00402 		orr	r2, r2, #4
 2565 1016 DA60     		str	r2, [r3, #12]
 2566              		.loc 1 1374 0
 2567 1018 019B     		ldr	r3, [sp, #4]
 2568 101a 1B68     		ldr	r3, [r3]
 2569 101c 1846     		mov	r0, r3
 2570 101e 0099     		ldr	r1, [sp]
 2571 1020 0422     		movs	r2, #4
 2572 1022 00F0BDFB 		bl	TIM_CCxNChannelCmd
 2573              		.loc 1 1377 0
 2574 1026 019B     		ldr	r3, [sp, #4]
 2575 1028 1B68     		ldr	r3, [r3]
 2576 102a 019A     		ldr	r2, [sp, #4]
 2577 102c 1268     		ldr	r2, [r2]
 2578 102e 526C     		ldr	r2, [r2, #68]
 2579 1030 42F40042 		orr	r2, r2, #32768
 2580 1034 5A64     		str	r2, [r3, #68]
 2581              		.loc 1 1380 0
 2582 1036 0023     		movs	r3, #0
 2583              		.loc 1 1381 0
 2584 1038 1846     		mov	r0, r3
 2585 103a 03B0     		add	sp, sp, #12
 2586              		@ sp needed
 2587 103c 5DF804FB 		ldr	pc, [sp], #4
 2588              		.cfi_endproc
 2589              	.LFE149:
 2590              		.size	HAL_TIMEx_OnePulseN_Start_IT, .-HAL_TIMEx_OnePulseN_Start_IT
 2591              		.align	2
 2592              		.p2align 4,,15
 2593              		.global	HAL_TIMEx_OnePulseN_Stop_IT
 2594              		.thumb
 2595              		.thumb_func
 2596              		.type	HAL_TIMEx_OnePulseN_Stop_IT, %function
 2597              	HAL_TIMEx_OnePulseN_Stop_IT:
 2598              	.LFB150:
 2599              		.loc 1 1394 0
 2600              		.cfi_startproc
 2601              		@ args = 0, pretend = 0, frame = 8
 2602              		@ frame_needed = 0, uses_anonymous_args = 0
 2603 1040 00B5     		push	{lr}
 2604              		.cfi_def_cfa_offset 4
 2605              		.cfi_offset 14, -4
 2606 1042 83B0     		sub	sp, sp, #12
 2607              		.cfi_def_cfa_offset 16
 2608 1044 0190     		str	r0, [sp, #4]
 2609 1046 0091     		str	r1, [sp]
 2610              		.loc 1 1399 0
 2611 1048 019B     		ldr	r3, [sp, #4]
 2612 104a 1B68     		ldr	r3, [r3]
ARM GAS  /tmp/ccUiHCLc.s 			page 47


 2613 104c 019A     		ldr	r2, [sp, #4]
 2614 104e 1268     		ldr	r2, [r2]
 2615 1050 D268     		ldr	r2, [r2, #12]
 2616 1052 22F00202 		bic	r2, r2, #2
 2617 1056 DA60     		str	r2, [r3, #12]
 2618              		.loc 1 1402 0
 2619 1058 019B     		ldr	r3, [sp, #4]
 2620 105a 1B68     		ldr	r3, [r3]
 2621 105c 019A     		ldr	r2, [sp, #4]
 2622 105e 1268     		ldr	r2, [r2]
 2623 1060 D268     		ldr	r2, [r2, #12]
 2624 1062 22F00402 		bic	r2, r2, #4
 2625 1066 DA60     		str	r2, [r3, #12]
 2626              		.loc 1 1405 0
 2627 1068 019B     		ldr	r3, [sp, #4]
 2628 106a 1B68     		ldr	r3, [r3]
 2629 106c 1846     		mov	r0, r3
 2630 106e 0099     		ldr	r1, [sp]
 2631 1070 0022     		movs	r2, #0
 2632 1072 00F095FB 		bl	TIM_CCxNChannelCmd
 2633              		.loc 1 1408 0
 2634 1076 019B     		ldr	r3, [sp, #4]
 2635 1078 1B68     		ldr	r3, [r3]
 2636 107a 1A6A     		ldr	r2, [r3, #32]
 2637 107c 41F21113 		movw	r3, #4369
 2638 1080 1340     		ands	r3, r3, r2
 2639 1082 002B     		cmp	r3, #0
 2640 1084 0FD1     		bne	.L152
 2641              		.loc 1 1408 0 is_stmt 0 discriminator 1
 2642 1086 019B     		ldr	r3, [sp, #4]
 2643 1088 1B68     		ldr	r3, [r3]
 2644 108a 1A6A     		ldr	r2, [r3, #32]
 2645 108c 40F24443 		movw	r3, #1092
 2646 1090 1340     		ands	r3, r3, r2
 2647 1092 002B     		cmp	r3, #0
 2648 1094 07D1     		bne	.L152
 2649 1096 019B     		ldr	r3, [sp, #4]
 2650 1098 1B68     		ldr	r3, [r3]
 2651 109a 019A     		ldr	r2, [sp, #4]
 2652 109c 1268     		ldr	r2, [r2]
 2653 109e 526C     		ldr	r2, [r2, #68]
 2654 10a0 22F40042 		bic	r2, r2, #32768
 2655 10a4 5A64     		str	r2, [r3, #68]
 2656              	.L152:
 2657              		.loc 1 1411 0 is_stmt 1
 2658 10a6 019B     		ldr	r3, [sp, #4]
 2659 10a8 1B68     		ldr	r3, [r3]
 2660 10aa 1A6A     		ldr	r2, [r3, #32]
 2661 10ac 41F21113 		movw	r3, #4369
 2662 10b0 1340     		ands	r3, r3, r2
 2663 10b2 002B     		cmp	r3, #0
 2664 10b4 0FD1     		bne	.L153
 2665              		.loc 1 1411 0 is_stmt 0 discriminator 1
 2666 10b6 019B     		ldr	r3, [sp, #4]
 2667 10b8 1B68     		ldr	r3, [r3]
 2668 10ba 1A6A     		ldr	r2, [r3, #32]
 2669 10bc 40F24443 		movw	r3, #1092
ARM GAS  /tmp/ccUiHCLc.s 			page 48


 2670 10c0 1340     		ands	r3, r3, r2
 2671 10c2 002B     		cmp	r3, #0
 2672 10c4 07D1     		bne	.L153
 2673 10c6 019B     		ldr	r3, [sp, #4]
 2674 10c8 1B68     		ldr	r3, [r3]
 2675 10ca 019A     		ldr	r2, [sp, #4]
 2676 10cc 1268     		ldr	r2, [r2]
 2677 10ce 1268     		ldr	r2, [r2]
 2678 10d0 22F00102 		bic	r2, r2, #1
 2679 10d4 1A60     		str	r2, [r3]
 2680              	.L153:
 2681              		.loc 1 1414 0 is_stmt 1
 2682 10d6 0023     		movs	r3, #0
 2683              		.loc 1 1415 0
 2684 10d8 1846     		mov	r0, r3
 2685 10da 03B0     		add	sp, sp, #12
 2686              		@ sp needed
 2687 10dc 5DF804FB 		ldr	pc, [sp], #4
 2688              		.cfi_endproc
 2689              	.LFE150:
 2690              		.size	HAL_TIMEx_OnePulseN_Stop_IT, .-HAL_TIMEx_OnePulseN_Stop_IT
 2691              		.align	2
 2692              		.p2align 4,,15
 2693              		.global	HAL_TIMEx_ConfigCommutationEvent
 2694              		.thumb
 2695              		.thumb_func
 2696              		.type	HAL_TIMEx_ConfigCommutationEvent, %function
 2697              	HAL_TIMEx_ConfigCommutationEvent:
 2698              	.LFB151:
 2699              		.loc 1 1465 0
 2700              		.cfi_startproc
 2701              		@ args = 0, pretend = 0, frame = 16
 2702              		@ frame_needed = 0, uses_anonymous_args = 0
 2703              		@ link register save eliminated.
 2704 10e0 84B0     		sub	sp, sp, #16
 2705              		.cfi_def_cfa_offset 16
 2706 10e2 0390     		str	r0, [sp, #12]
 2707 10e4 0291     		str	r1, [sp, #8]
 2708 10e6 0192     		str	r2, [sp, #4]
 2709              		.loc 1 1470 0
 2710 10e8 039B     		ldr	r3, [sp, #12]
 2711 10ea 93F83830 		ldrb	r3, [r3, #56]	@ zero_extendqisi2
 2712 10ee 012B     		cmp	r3, #1
 2713 10f0 01D1     		bne	.L156
 2714              		.loc 1 1470 0 is_stmt 0 discriminator 1
 2715 10f2 0223     		movs	r3, #2
 2716 10f4 3CE0     		b	.L157
 2717              	.L156:
 2718              		.loc 1 1470 0 discriminator 2
 2719 10f6 039B     		ldr	r3, [sp, #12]
 2720 10f8 0122     		movs	r2, #1
 2721 10fa 83F83820 		strb	r2, [r3, #56]
 2722              		.loc 1 1472 0 is_stmt 1 discriminator 2
 2723 10fe 029B     		ldr	r3, [sp, #8]
 2724 1100 002B     		cmp	r3, #0
 2725 1102 08D0     		beq	.L158
 2726              		.loc 1 1472 0 is_stmt 0 discriminator 1
ARM GAS  /tmp/ccUiHCLc.s 			page 49


 2727 1104 029B     		ldr	r3, [sp, #8]
 2728 1106 102B     		cmp	r3, #16
 2729 1108 05D0     		beq	.L158
 2730 110a 029B     		ldr	r3, [sp, #8]
 2731 110c 202B     		cmp	r3, #32
 2732 110e 02D0     		beq	.L158
 2733              		.loc 1 1473 0 is_stmt 1
 2734 1110 029B     		ldr	r3, [sp, #8]
 2735 1112 302B     		cmp	r3, #48
 2736 1114 0FD1     		bne	.L159
 2737              	.L158:
 2738              		.loc 1 1476 0
 2739 1116 039B     		ldr	r3, [sp, #12]
 2740 1118 1B68     		ldr	r3, [r3]
 2741 111a 039A     		ldr	r2, [sp, #12]
 2742 111c 1268     		ldr	r2, [r2]
 2743 111e 9268     		ldr	r2, [r2, #8]
 2744 1120 22F07002 		bic	r2, r2, #112
 2745 1124 9A60     		str	r2, [r3, #8]
 2746              		.loc 1 1477 0
 2747 1126 039B     		ldr	r3, [sp, #12]
 2748 1128 1B68     		ldr	r3, [r3]
 2749 112a 039A     		ldr	r2, [sp, #12]
 2750 112c 1268     		ldr	r2, [r2]
 2751 112e 9168     		ldr	r1, [r2, #8]
 2752 1130 029A     		ldr	r2, [sp, #8]
 2753 1132 0A43     		orrs	r2, r2, r1
 2754 1134 9A60     		str	r2, [r3, #8]
 2755              	.L159:
 2756              		.loc 1 1481 0
 2757 1136 039B     		ldr	r3, [sp, #12]
 2758 1138 1B68     		ldr	r3, [r3]
 2759 113a 039A     		ldr	r2, [sp, #12]
 2760 113c 1268     		ldr	r2, [r2]
 2761 113e 5268     		ldr	r2, [r2, #4]
 2762 1140 42F00102 		orr	r2, r2, #1
 2763 1144 5A60     		str	r2, [r3, #4]
 2764              		.loc 1 1483 0
 2765 1146 039B     		ldr	r3, [sp, #12]
 2766 1148 1B68     		ldr	r3, [r3]
 2767 114a 039A     		ldr	r2, [sp, #12]
 2768 114c 1268     		ldr	r2, [r2]
 2769 114e 5268     		ldr	r2, [r2, #4]
 2770 1150 22F00402 		bic	r2, r2, #4
 2771 1154 5A60     		str	r2, [r3, #4]
 2772              		.loc 1 1484 0
 2773 1156 039B     		ldr	r3, [sp, #12]
 2774 1158 1B68     		ldr	r3, [r3]
 2775 115a 039A     		ldr	r2, [sp, #12]
 2776 115c 1268     		ldr	r2, [r2]
 2777 115e 5168     		ldr	r1, [r2, #4]
 2778 1160 019A     		ldr	r2, [sp, #4]
 2779 1162 0A43     		orrs	r2, r2, r1
 2780 1164 5A60     		str	r2, [r3, #4]
 2781              		.loc 1 1486 0
 2782 1166 039B     		ldr	r3, [sp, #12]
 2783 1168 0022     		movs	r2, #0
ARM GAS  /tmp/ccUiHCLc.s 			page 50


 2784 116a 83F83820 		strb	r2, [r3, #56]
 2785              		.loc 1 1488 0
 2786 116e 0023     		movs	r3, #0
 2787              	.L157:
 2788              		.loc 1 1489 0
 2789 1170 1846     		mov	r0, r3
 2790 1172 04B0     		add	sp, sp, #16
 2791              		@ sp needed
 2792 1174 7047     		bx	lr
 2793              		.cfi_endproc
 2794              	.LFE151:
 2795              		.size	HAL_TIMEx_ConfigCommutationEvent, .-HAL_TIMEx_ConfigCommutationEvent
 2796 1176 00BF     		.align	2
 2797 1178 AFF30080 		.p2align 4,,15
 2797      AFF30080 
 2798              		.global	HAL_TIMEx_ConfigCommutationEvent_IT
 2799              		.thumb
 2800              		.thumb_func
 2801              		.type	HAL_TIMEx_ConfigCommutationEvent_IT, %function
 2802              	HAL_TIMEx_ConfigCommutationEvent_IT:
 2803              	.LFB152:
 2804              		.loc 1 1514 0
 2805              		.cfi_startproc
 2806              		@ args = 0, pretend = 0, frame = 16
 2807              		@ frame_needed = 0, uses_anonymous_args = 0
 2808              		@ link register save eliminated.
 2809 1180 84B0     		sub	sp, sp, #16
 2810              		.cfi_def_cfa_offset 16
 2811 1182 0390     		str	r0, [sp, #12]
 2812 1184 0291     		str	r1, [sp, #8]
 2813 1186 0192     		str	r2, [sp, #4]
 2814              		.loc 1 1519 0
 2815 1188 039B     		ldr	r3, [sp, #12]
 2816 118a 93F83830 		ldrb	r3, [r3, #56]	@ zero_extendqisi2
 2817 118e 012B     		cmp	r3, #1
 2818 1190 01D1     		bne	.L161
 2819              		.loc 1 1519 0 is_stmt 0 discriminator 1
 2820 1192 0223     		movs	r3, #2
 2821 1194 44E0     		b	.L162
 2822              	.L161:
 2823              		.loc 1 1519 0 discriminator 2
 2824 1196 039B     		ldr	r3, [sp, #12]
 2825 1198 0122     		movs	r2, #1
 2826 119a 83F83820 		strb	r2, [r3, #56]
 2827              		.loc 1 1521 0 is_stmt 1 discriminator 2
 2828 119e 029B     		ldr	r3, [sp, #8]
 2829 11a0 002B     		cmp	r3, #0
 2830 11a2 08D0     		beq	.L163
 2831              		.loc 1 1521 0 is_stmt 0 discriminator 1
 2832 11a4 029B     		ldr	r3, [sp, #8]
 2833 11a6 102B     		cmp	r3, #16
 2834 11a8 05D0     		beq	.L163
 2835 11aa 029B     		ldr	r3, [sp, #8]
 2836 11ac 202B     		cmp	r3, #32
 2837 11ae 02D0     		beq	.L163
 2838              		.loc 1 1522 0 is_stmt 1
 2839 11b0 029B     		ldr	r3, [sp, #8]
ARM GAS  /tmp/ccUiHCLc.s 			page 51


 2840 11b2 302B     		cmp	r3, #48
 2841 11b4 0FD1     		bne	.L164
 2842              	.L163:
 2843              		.loc 1 1525 0
 2844 11b6 039B     		ldr	r3, [sp, #12]
 2845 11b8 1B68     		ldr	r3, [r3]
 2846 11ba 039A     		ldr	r2, [sp, #12]
 2847 11bc 1268     		ldr	r2, [r2]
 2848 11be 9268     		ldr	r2, [r2, #8]
 2849 11c0 22F07002 		bic	r2, r2, #112
 2850 11c4 9A60     		str	r2, [r3, #8]
 2851              		.loc 1 1526 0
 2852 11c6 039B     		ldr	r3, [sp, #12]
 2853 11c8 1B68     		ldr	r3, [r3]
 2854 11ca 039A     		ldr	r2, [sp, #12]
 2855 11cc 1268     		ldr	r2, [r2]
 2856 11ce 9168     		ldr	r1, [r2, #8]
 2857 11d0 029A     		ldr	r2, [sp, #8]
 2858 11d2 0A43     		orrs	r2, r2, r1
 2859 11d4 9A60     		str	r2, [r3, #8]
 2860              	.L164:
 2861              		.loc 1 1530 0
 2862 11d6 039B     		ldr	r3, [sp, #12]
 2863 11d8 1B68     		ldr	r3, [r3]
 2864 11da 039A     		ldr	r2, [sp, #12]
 2865 11dc 1268     		ldr	r2, [r2]
 2866 11de 5268     		ldr	r2, [r2, #4]
 2867 11e0 42F00102 		orr	r2, r2, #1
 2868 11e4 5A60     		str	r2, [r3, #4]
 2869              		.loc 1 1532 0
 2870 11e6 039B     		ldr	r3, [sp, #12]
 2871 11e8 1B68     		ldr	r3, [r3]
 2872 11ea 039A     		ldr	r2, [sp, #12]
 2873 11ec 1268     		ldr	r2, [r2]
 2874 11ee 5268     		ldr	r2, [r2, #4]
 2875 11f0 22F00402 		bic	r2, r2, #4
 2876 11f4 5A60     		str	r2, [r3, #4]
 2877              		.loc 1 1533 0
 2878 11f6 039B     		ldr	r3, [sp, #12]
 2879 11f8 1B68     		ldr	r3, [r3]
 2880 11fa 039A     		ldr	r2, [sp, #12]
 2881 11fc 1268     		ldr	r2, [r2]
 2882 11fe 5168     		ldr	r1, [r2, #4]
 2883 1200 019A     		ldr	r2, [sp, #4]
 2884 1202 0A43     		orrs	r2, r2, r1
 2885 1204 5A60     		str	r2, [r3, #4]
 2886              		.loc 1 1536 0
 2887 1206 039B     		ldr	r3, [sp, #12]
 2888 1208 1B68     		ldr	r3, [r3]
 2889 120a 039A     		ldr	r2, [sp, #12]
 2890 120c 1268     		ldr	r2, [r2]
 2891 120e D268     		ldr	r2, [r2, #12]
 2892 1210 42F02002 		orr	r2, r2, #32
 2893 1214 DA60     		str	r2, [r3, #12]
 2894              		.loc 1 1538 0
 2895 1216 039B     		ldr	r3, [sp, #12]
 2896 1218 0022     		movs	r2, #0
ARM GAS  /tmp/ccUiHCLc.s 			page 52


 2897 121a 83F83820 		strb	r2, [r3, #56]
 2898              		.loc 1 1540 0
 2899 121e 0023     		movs	r3, #0
 2900              	.L162:
 2901              		.loc 1 1541 0
 2902 1220 1846     		mov	r0, r3
 2903 1222 04B0     		add	sp, sp, #16
 2904              		@ sp needed
 2905 1224 7047     		bx	lr
 2906              		.cfi_endproc
 2907              	.LFE152:
 2908              		.size	HAL_TIMEx_ConfigCommutationEvent_IT, .-HAL_TIMEx_ConfigCommutationEvent_IT
 2909 1226 00BF     		.align	2
 2910 1228 AFF30080 		.p2align 4,,15
 2910      AFF30080 
 2911              		.global	HAL_TIMEx_ConfigCommutationEvent_DMA
 2912              		.thumb
 2913              		.thumb_func
 2914              		.type	HAL_TIMEx_ConfigCommutationEvent_DMA, %function
 2915              	HAL_TIMEx_ConfigCommutationEvent_DMA:
 2916              	.LFB153:
 2917              		.loc 1 1567 0
 2918              		.cfi_startproc
 2919              		@ args = 0, pretend = 0, frame = 16
 2920              		@ frame_needed = 0, uses_anonymous_args = 0
 2921              		@ link register save eliminated.
 2922 1230 84B0     		sub	sp, sp, #16
 2923              		.cfi_def_cfa_offset 16
 2924 1232 0390     		str	r0, [sp, #12]
 2925 1234 0291     		str	r1, [sp, #8]
 2926 1236 0192     		str	r2, [sp, #4]
 2927              		.loc 1 1572 0
 2928 1238 039B     		ldr	r3, [sp, #12]
 2929 123a 93F83830 		ldrb	r3, [r3, #56]	@ zero_extendqisi2
 2930 123e 012B     		cmp	r3, #1
 2931 1240 01D1     		bne	.L166
 2932              		.loc 1 1572 0 is_stmt 0 discriminator 1
 2933 1242 0223     		movs	r3, #2
 2934 1244 4CE0     		b	.L167
 2935              	.L166:
 2936              		.loc 1 1572 0 discriminator 2
 2937 1246 039B     		ldr	r3, [sp, #12]
 2938 1248 0122     		movs	r2, #1
 2939 124a 83F83820 		strb	r2, [r3, #56]
 2940              		.loc 1 1574 0 is_stmt 1 discriminator 2
 2941 124e 029B     		ldr	r3, [sp, #8]
 2942 1250 002B     		cmp	r3, #0
 2943 1252 08D0     		beq	.L168
 2944              		.loc 1 1574 0 is_stmt 0 discriminator 1
 2945 1254 029B     		ldr	r3, [sp, #8]
 2946 1256 102B     		cmp	r3, #16
 2947 1258 05D0     		beq	.L168
 2948 125a 029B     		ldr	r3, [sp, #8]
 2949 125c 202B     		cmp	r3, #32
 2950 125e 02D0     		beq	.L168
 2951              		.loc 1 1575 0 is_stmt 1
 2952 1260 029B     		ldr	r3, [sp, #8]
ARM GAS  /tmp/ccUiHCLc.s 			page 53


 2953 1262 302B     		cmp	r3, #48
 2954 1264 0FD1     		bne	.L169
 2955              	.L168:
 2956              		.loc 1 1578 0
 2957 1266 039B     		ldr	r3, [sp, #12]
 2958 1268 1B68     		ldr	r3, [r3]
 2959 126a 039A     		ldr	r2, [sp, #12]
 2960 126c 1268     		ldr	r2, [r2]
 2961 126e 9268     		ldr	r2, [r2, #8]
 2962 1270 22F07002 		bic	r2, r2, #112
 2963 1274 9A60     		str	r2, [r3, #8]
 2964              		.loc 1 1579 0
 2965 1276 039B     		ldr	r3, [sp, #12]
 2966 1278 1B68     		ldr	r3, [r3]
 2967 127a 039A     		ldr	r2, [sp, #12]
 2968 127c 1268     		ldr	r2, [r2]
 2969 127e 9168     		ldr	r1, [r2, #8]
 2970 1280 029A     		ldr	r2, [sp, #8]
 2971 1282 0A43     		orrs	r2, r2, r1
 2972 1284 9A60     		str	r2, [r3, #8]
 2973              	.L169:
 2974              		.loc 1 1583 0
 2975 1286 039B     		ldr	r3, [sp, #12]
 2976 1288 1B68     		ldr	r3, [r3]
 2977 128a 039A     		ldr	r2, [sp, #12]
 2978 128c 1268     		ldr	r2, [r2]
 2979 128e 5268     		ldr	r2, [r2, #4]
 2980 1290 42F00102 		orr	r2, r2, #1
 2981 1294 5A60     		str	r2, [r3, #4]
 2982              		.loc 1 1585 0
 2983 1296 039B     		ldr	r3, [sp, #12]
 2984 1298 1B68     		ldr	r3, [r3]
 2985 129a 039A     		ldr	r2, [sp, #12]
 2986 129c 1268     		ldr	r2, [r2]
 2987 129e 5268     		ldr	r2, [r2, #4]
 2988 12a0 22F00402 		bic	r2, r2, #4
 2989 12a4 5A60     		str	r2, [r3, #4]
 2990              		.loc 1 1586 0
 2991 12a6 039B     		ldr	r3, [sp, #12]
 2992 12a8 1B68     		ldr	r3, [r3]
 2993 12aa 039A     		ldr	r2, [sp, #12]
 2994 12ac 1268     		ldr	r2, [r2]
 2995 12ae 5168     		ldr	r1, [r2, #4]
 2996 12b0 019A     		ldr	r2, [sp, #4]
 2997 12b2 0A43     		orrs	r2, r2, r1
 2998 12b4 5A60     		str	r2, [r3, #4]
 2999              		.loc 1 1590 0
 3000 12b6 039B     		ldr	r3, [sp, #12]
 3001 12b8 1B6B     		ldr	r3, [r3, #48]
 3002 12ba 0B4A     		ldr	r2, .L170
 3003 12bc DA62     		str	r2, [r3, #44]
 3004              		.loc 1 1592 0
 3005 12be 039B     		ldr	r3, [sp, #12]
 3006 12c0 1B6B     		ldr	r3, [r3, #48]
 3007 12c2 0A4A     		ldr	r2, .L170+4
 3008 12c4 5A63     		str	r2, [r3, #52]
 3009              		.loc 1 1595 0
ARM GAS  /tmp/ccUiHCLc.s 			page 54


 3010 12c6 039B     		ldr	r3, [sp, #12]
 3011 12c8 1B68     		ldr	r3, [r3]
 3012 12ca 039A     		ldr	r2, [sp, #12]
 3013 12cc 1268     		ldr	r2, [r2]
 3014 12ce D268     		ldr	r2, [r2, #12]
 3015 12d0 42F40052 		orr	r2, r2, #8192
 3016 12d4 DA60     		str	r2, [r3, #12]
 3017              		.loc 1 1597 0
 3018 12d6 039B     		ldr	r3, [sp, #12]
 3019 12d8 0022     		movs	r2, #0
 3020 12da 83F83820 		strb	r2, [r3, #56]
 3021              		.loc 1 1599 0
 3022 12de 0023     		movs	r3, #0
 3023              	.L167:
 3024              		.loc 1 1600 0
 3025 12e0 1846     		mov	r0, r3
 3026 12e2 04B0     		add	sp, sp, #16
 3027              		@ sp needed
 3028 12e4 7047     		bx	lr
 3029              	.L171:
 3030 12e6 00BF     		.align	2
 3031              	.L170:
 3032 12e8 00000000 		.word	TIMEx_DMACommutationCplt
 3033 12ec 00000000 		.word	TIM_DMAError
 3034              		.cfi_endproc
 3035              	.LFE153:
 3036              		.size	HAL_TIMEx_ConfigCommutationEvent_DMA, .-HAL_TIMEx_ConfigCommutationEvent_DMA
 3037              		.align	2
 3038              		.p2align 4,,15
 3039              		.global	HAL_TIMEx_MasterConfigSynchronization
 3040              		.thumb
 3041              		.thumb_func
 3042              		.type	HAL_TIMEx_MasterConfigSynchronization, %function
 3043              	HAL_TIMEx_MasterConfigSynchronization:
 3044              	.LFB154:
 3045              		.loc 1 1612 0
 3046              		.cfi_startproc
 3047              		@ args = 0, pretend = 0, frame = 16
 3048              		@ frame_needed = 0, uses_anonymous_args = 0
 3049              		@ link register save eliminated.
 3050 12f0 84B0     		sub	sp, sp, #16
 3051              		.cfi_def_cfa_offset 16
 3052 12f2 0190     		str	r0, [sp, #4]
 3053 12f4 0091     		str	r1, [sp]
 3054              		.loc 1 1622 0
 3055 12f6 019B     		ldr	r3, [sp, #4]
 3056 12f8 93F83830 		ldrb	r3, [r3, #56]	@ zero_extendqisi2
 3057 12fc 012B     		cmp	r3, #1
 3058 12fe 01D1     		bne	.L173
 3059              		.loc 1 1622 0 is_stmt 0 discriminator 1
 3060 1300 0223     		movs	r3, #2
 3061 1302 3DE0     		b	.L174
 3062              	.L173:
 3063              		.loc 1 1622 0 discriminator 2
 3064 1304 019B     		ldr	r3, [sp, #4]
 3065 1306 0122     		movs	r2, #1
 3066 1308 83F83820 		strb	r2, [r3, #56]
ARM GAS  /tmp/ccUiHCLc.s 			page 55


 3067              		.loc 1 1625 0 is_stmt 1 discriminator 2
 3068 130c 019B     		ldr	r3, [sp, #4]
 3069 130e 1B68     		ldr	r3, [r3]
 3070 1310 5B68     		ldr	r3, [r3, #4]
 3071 1312 0393     		str	r3, [sp, #12]
 3072              		.loc 1 1628 0 discriminator 2
 3073 1314 019B     		ldr	r3, [sp, #4]
 3074 1316 1B68     		ldr	r3, [r3]
 3075 1318 9B68     		ldr	r3, [r3, #8]
 3076 131a 0293     		str	r3, [sp, #8]
 3077              		.loc 1 1631 0 discriminator 2
 3078 131c 019B     		ldr	r3, [sp, #4]
 3079 131e 1A68     		ldr	r2, [r3]
 3080 1320 194B     		ldr	r3, .L177
 3081 1322 9A42     		cmp	r2, r3
 3082 1324 04D0     		beq	.L175
 3083              		.loc 1 1631 0 is_stmt 0 discriminator 1
 3084 1326 019B     		ldr	r3, [sp, #4]
 3085 1328 1A68     		ldr	r2, [r3]
 3086 132a 184B     		ldr	r3, .L177+4
 3087 132c 9A42     		cmp	r2, r3
 3088 132e 08D1     		bne	.L176
 3089              	.L175:
 3090              		.loc 1 1637 0 is_stmt 1
 3091 1330 039B     		ldr	r3, [sp, #12]
 3092 1332 23F47003 		bic	r3, r3, #15728640
 3093 1336 0393     		str	r3, [sp, #12]
 3094              		.loc 1 1639 0
 3095 1338 009B     		ldr	r3, [sp]
 3096 133a 5B68     		ldr	r3, [r3, #4]
 3097 133c 039A     		ldr	r2, [sp, #12]
 3098 133e 1343     		orrs	r3, r3, r2
 3099 1340 0393     		str	r3, [sp, #12]
 3100              	.L176:
 3101              		.loc 1 1643 0
 3102 1342 039B     		ldr	r3, [sp, #12]
 3103 1344 23F07003 		bic	r3, r3, #112
 3104 1348 0393     		str	r3, [sp, #12]
 3105              		.loc 1 1645 0
 3106 134a 009B     		ldr	r3, [sp]
 3107 134c 1B68     		ldr	r3, [r3]
 3108 134e 039A     		ldr	r2, [sp, #12]
 3109 1350 1343     		orrs	r3, r3, r2
 3110 1352 0393     		str	r3, [sp, #12]
 3111              		.loc 1 1648 0
 3112 1354 029B     		ldr	r3, [sp, #8]
 3113 1356 23F08003 		bic	r3, r3, #128
 3114 135a 0293     		str	r3, [sp, #8]
 3115              		.loc 1 1650 0
 3116 135c 009B     		ldr	r3, [sp]
 3117 135e 9B68     		ldr	r3, [r3, #8]
 3118 1360 029A     		ldr	r2, [sp, #8]
 3119 1362 1343     		orrs	r3, r3, r2
 3120 1364 0293     		str	r3, [sp, #8]
 3121              		.loc 1 1653 0
 3122 1366 019B     		ldr	r3, [sp, #4]
 3123 1368 1B68     		ldr	r3, [r3]
ARM GAS  /tmp/ccUiHCLc.s 			page 56


 3124 136a 039A     		ldr	r2, [sp, #12]
 3125 136c 5A60     		str	r2, [r3, #4]
 3126              		.loc 1 1656 0
 3127 136e 019B     		ldr	r3, [sp, #4]
 3128 1370 1B68     		ldr	r3, [r3]
 3129 1372 029A     		ldr	r2, [sp, #8]
 3130 1374 9A60     		str	r2, [r3, #8]
 3131              		.loc 1 1658 0
 3132 1376 019B     		ldr	r3, [sp, #4]
 3133 1378 0022     		movs	r2, #0
 3134 137a 83F83820 		strb	r2, [r3, #56]
 3135              		.loc 1 1660 0
 3136 137e 0023     		movs	r3, #0
 3137              	.L174:
 3138              		.loc 1 1661 0
 3139 1380 1846     		mov	r0, r3
 3140 1382 04B0     		add	sp, sp, #16
 3141              		@ sp needed
 3142 1384 7047     		bx	lr
 3143              	.L178:
 3144 1386 00BF     		.align	2
 3145              	.L177:
 3146 1388 002C0140 		.word	1073818624
 3147 138c 00340140 		.word	1073820672
 3148              		.cfi_endproc
 3149              	.LFE154:
 3150              		.size	HAL_TIMEx_MasterConfigSynchronization, .-HAL_TIMEx_MasterConfigSynchronization
 3151              		.align	2
 3152              		.p2align 4,,15
 3153              		.global	HAL_TIMEx_ConfigBreakDeadTime
 3154              		.thumb
 3155              		.thumb_func
 3156              		.type	HAL_TIMEx_ConfigBreakDeadTime, %function
 3157              	HAL_TIMEx_ConfigBreakDeadTime:
 3158              	.LFB155:
 3159              		.loc 1 1673 0
 3160              		.cfi_startproc
 3161              		@ args = 0, pretend = 0, frame = 16
 3162              		@ frame_needed = 0, uses_anonymous_args = 0
 3163              		@ link register save eliminated.
 3164 1390 84B0     		sub	sp, sp, #16
 3165              		.cfi_def_cfa_offset 16
 3166 1392 0190     		str	r0, [sp, #4]
 3167 1394 0091     		str	r1, [sp]
 3168              		.loc 1 1674 0
 3169 1396 0023     		movs	r3, #0
 3170 1398 0393     		str	r3, [sp, #12]
 3171              		.loc 1 1688 0
 3172 139a 019B     		ldr	r3, [sp, #4]
 3173 139c 93F83830 		ldrb	r3, [r3, #56]	@ zero_extendqisi2
 3174 13a0 012B     		cmp	r3, #1
 3175 13a2 01D1     		bne	.L180
 3176              		.loc 1 1688 0 is_stmt 0 discriminator 1
 3177 13a4 0223     		movs	r3, #2
 3178 13a6 81E0     		b	.L181
 3179              	.L180:
 3180              		.loc 1 1688 0 discriminator 2
ARM GAS  /tmp/ccUiHCLc.s 			page 57


 3181 13a8 019B     		ldr	r3, [sp, #4]
 3182 13aa 0122     		movs	r2, #1
 3183 13ac 83F83820 		strb	r2, [r3, #56]
 3184              		.loc 1 1692 0 is_stmt 1 discriminator 2
 3185 13b0 019B     		ldr	r3, [sp, #4]
 3186 13b2 1A68     		ldr	r2, [r3]
 3187 13b4 3F4B     		ldr	r3, .L185
 3188 13b6 9A42     		cmp	r2, r3
 3189 13b8 04D0     		beq	.L182
 3190              		.loc 1 1692 0 is_stmt 0 discriminator 1
 3191 13ba 019B     		ldr	r3, [sp, #4]
 3192 13bc 1A68     		ldr	r2, [r3]
 3193 13be 3E4B     		ldr	r3, .L185+4
 3194 13c0 9A42     		cmp	r2, r3
 3195 13c2 3DD1     		bne	.L183
 3196              	.L182:
 3197              		.loc 1 1699 0 is_stmt 1
 3198 13c4 039B     		ldr	r3, [sp, #12]
 3199 13c6 03F07C43 		and	r3, r3, #-67108864
 3200 13ca 0393     		str	r3, [sp, #12]
 3201              		.loc 1 1705 0
 3202 13cc 009B     		ldr	r3, [sp]
 3203 13ce DB68     		ldr	r3, [r3, #12]
 3204 13d0 039A     		ldr	r2, [sp, #12]
 3205 13d2 1343     		orrs	r3, r3, r2
 3206 13d4 0393     		str	r3, [sp, #12]
 3207              		.loc 1 1706 0
 3208 13d6 009B     		ldr	r3, [sp]
 3209 13d8 9B68     		ldr	r3, [r3, #8]
 3210 13da 039A     		ldr	r2, [sp, #12]
 3211 13dc 1343     		orrs	r3, r3, r2
 3212 13de 0393     		str	r3, [sp, #12]
 3213              		.loc 1 1707 0
 3214 13e0 009B     		ldr	r3, [sp]
 3215 13e2 5B68     		ldr	r3, [r3, #4]
 3216 13e4 039A     		ldr	r2, [sp, #12]
 3217 13e6 1343     		orrs	r3, r3, r2
 3218 13e8 0393     		str	r3, [sp, #12]
 3219              		.loc 1 1708 0
 3220 13ea 009B     		ldr	r3, [sp]
 3221 13ec 1B68     		ldr	r3, [r3]
 3222 13ee 039A     		ldr	r2, [sp, #12]
 3223 13f0 1343     		orrs	r3, r3, r2
 3224 13f2 0393     		str	r3, [sp, #12]
 3225              		.loc 1 1709 0
 3226 13f4 009B     		ldr	r3, [sp]
 3227 13f6 1B69     		ldr	r3, [r3, #16]
 3228 13f8 039A     		ldr	r2, [sp, #12]
 3229 13fa 1343     		orrs	r3, r3, r2
 3230 13fc 0393     		str	r3, [sp, #12]
 3231              		.loc 1 1710 0
 3232 13fe 009B     		ldr	r3, [sp]
 3233 1400 5B69     		ldr	r3, [r3, #20]
 3234 1402 039A     		ldr	r2, [sp, #12]
 3235 1404 1343     		orrs	r3, r3, r2
 3236 1406 0393     		str	r3, [sp, #12]
 3237              		.loc 1 1711 0
ARM GAS  /tmp/ccUiHCLc.s 			page 58


 3238 1408 009B     		ldr	r3, [sp]
 3239 140a 9B6A     		ldr	r3, [r3, #40]
 3240 140c 039A     		ldr	r2, [sp, #12]
 3241 140e 1343     		orrs	r3, r3, r2
 3242 1410 0393     		str	r3, [sp, #12]
 3243              		.loc 1 1712 0
 3244 1412 009B     		ldr	r3, [sp]
 3245 1414 9B69     		ldr	r3, [r3, #24]
 3246 1416 1B04     		lsls	r3, r3, #16
 3247 1418 039A     		ldr	r2, [sp, #12]
 3248 141a 1343     		orrs	r3, r3, r2
 3249 141c 0393     		str	r3, [sp, #12]
 3250              		.loc 1 1713 0
 3251 141e 009B     		ldr	r3, [sp]
 3252 1420 5B6A     		ldr	r3, [r3, #36]
 3253 1422 1B05     		lsls	r3, r3, #20
 3254 1424 039A     		ldr	r2, [sp, #12]
 3255 1426 1343     		orrs	r3, r3, r2
 3256 1428 0393     		str	r3, [sp, #12]
 3257              		.loc 1 1714 0
 3258 142a 009B     		ldr	r3, [sp]
 3259 142c DB69     		ldr	r3, [r3, #28]
 3260 142e 039A     		ldr	r2, [sp, #12]
 3261 1430 1343     		orrs	r3, r3, r2
 3262 1432 0393     		str	r3, [sp, #12]
 3263              		.loc 1 1715 0
 3264 1434 009B     		ldr	r3, [sp]
 3265 1436 1B6A     		ldr	r3, [r3, #32]
 3266 1438 039A     		ldr	r2, [sp, #12]
 3267 143a 1343     		orrs	r3, r3, r2
 3268 143c 0393     		str	r3, [sp, #12]
 3269 143e 2CE0     		b	.L184
 3270              	.L183:
 3271              		.loc 1 1720 0
 3272 1440 039B     		ldr	r3, [sp, #12]
 3273 1442 1B0D     		lsrs	r3, r3, #20
 3274 1444 1B05     		lsls	r3, r3, #20
 3275 1446 0393     		str	r3, [sp, #12]
 3276              		.loc 1 1725 0
 3277 1448 009B     		ldr	r3, [sp]
 3278 144a DB68     		ldr	r3, [r3, #12]
 3279 144c 039A     		ldr	r2, [sp, #12]
 3280 144e 1343     		orrs	r3, r3, r2
 3281 1450 0393     		str	r3, [sp, #12]
 3282              		.loc 1 1726 0
 3283 1452 009B     		ldr	r3, [sp]
 3284 1454 9B68     		ldr	r3, [r3, #8]
 3285 1456 039A     		ldr	r2, [sp, #12]
 3286 1458 1343     		orrs	r3, r3, r2
 3287 145a 0393     		str	r3, [sp, #12]
 3288              		.loc 1 1727 0
 3289 145c 009B     		ldr	r3, [sp]
 3290 145e 5B68     		ldr	r3, [r3, #4]
 3291 1460 039A     		ldr	r2, [sp, #12]
 3292 1462 1343     		orrs	r3, r3, r2
 3293 1464 0393     		str	r3, [sp, #12]
 3294              		.loc 1 1728 0
ARM GAS  /tmp/ccUiHCLc.s 			page 59


 3295 1466 009B     		ldr	r3, [sp]
 3296 1468 1B68     		ldr	r3, [r3]
 3297 146a 039A     		ldr	r2, [sp, #12]
 3298 146c 1343     		orrs	r3, r3, r2
 3299 146e 0393     		str	r3, [sp, #12]
 3300              		.loc 1 1729 0
 3301 1470 009B     		ldr	r3, [sp]
 3302 1472 1B69     		ldr	r3, [r3, #16]
 3303 1474 039A     		ldr	r2, [sp, #12]
 3304 1476 1343     		orrs	r3, r3, r2
 3305 1478 0393     		str	r3, [sp, #12]
 3306              		.loc 1 1730 0
 3307 147a 009B     		ldr	r3, [sp]
 3308 147c 5B69     		ldr	r3, [r3, #20]
 3309 147e 039A     		ldr	r2, [sp, #12]
 3310 1480 1343     		orrs	r3, r3, r2
 3311 1482 0393     		str	r3, [sp, #12]
 3312              		.loc 1 1731 0
 3313 1484 009B     		ldr	r3, [sp]
 3314 1486 9B6A     		ldr	r3, [r3, #40]
 3315 1488 039A     		ldr	r2, [sp, #12]
 3316 148a 1343     		orrs	r3, r3, r2
 3317 148c 0393     		str	r3, [sp, #12]
 3318              		.loc 1 1732 0
 3319 148e 009B     		ldr	r3, [sp]
 3320 1490 9B69     		ldr	r3, [r3, #24]
 3321 1492 1B04     		lsls	r3, r3, #16
 3322 1494 039A     		ldr	r2, [sp, #12]
 3323 1496 1343     		orrs	r3, r3, r2
 3324 1498 0393     		str	r3, [sp, #12]
 3325              	.L184:
 3326              		.loc 1 1736 0
 3327 149a 019B     		ldr	r3, [sp, #4]
 3328 149c 1B68     		ldr	r3, [r3]
 3329 149e 039A     		ldr	r2, [sp, #12]
 3330 14a0 5A64     		str	r2, [r3, #68]
 3331              		.loc 1 1738 0
 3332 14a2 019B     		ldr	r3, [sp, #4]
 3333 14a4 0022     		movs	r2, #0
 3334 14a6 83F83820 		strb	r2, [r3, #56]
 3335              		.loc 1 1740 0
 3336 14aa 0023     		movs	r3, #0
 3337              	.L181:
 3338              		.loc 1 1741 0
 3339 14ac 1846     		mov	r0, r3
 3340 14ae 04B0     		add	sp, sp, #16
 3341              		@ sp needed
 3342 14b0 7047     		bx	lr
 3343              	.L186:
 3344 14b2 00BF     		.align	2
 3345              	.L185:
 3346 14b4 002C0140 		.word	1073818624
 3347 14b8 00340140 		.word	1073820672
 3348              		.cfi_endproc
 3349              	.LFE155:
 3350              		.size	HAL_TIMEx_ConfigBreakDeadTime, .-HAL_TIMEx_ConfigBreakDeadTime
 3351              		.align	2
ARM GAS  /tmp/ccUiHCLc.s 			page 60


 3352 14bc AFF30080 		.p2align 4,,15
 3353              		.global	HAL_TIMEx_ConfigBreakInput
 3354              		.thumb
 3355              		.thumb_func
 3356              		.type	HAL_TIMEx_ConfigBreakInput, %function
 3357              	HAL_TIMEx_ConfigBreakInput:
 3358              	.LFB156:
 3359              		.loc 1 1757 0
 3360              		.cfi_startproc
 3361              		@ args = 0, pretend = 0, frame = 40
 3362              		@ frame_needed = 0, uses_anonymous_args = 0
 3363              		@ link register save eliminated.
 3364 14c0 8AB0     		sub	sp, sp, #40
 3365              		.cfi_def_cfa_offset 40
 3366 14c2 0390     		str	r0, [sp, #12]
 3367 14c4 0291     		str	r1, [sp, #8]
 3368 14c6 0192     		str	r2, [sp, #4]
 3369              		.loc 1 1758 0
 3370 14c8 0023     		movs	r3, #0
 3371 14ca 0993     		str	r3, [sp, #36]
 3372              		.loc 1 1759 0
 3373 14cc 0023     		movs	r3, #0
 3374 14ce 0893     		str	r3, [sp, #32]
 3375              		.loc 1 1760 0
 3376 14d0 0023     		movs	r3, #0
 3377 14d2 0793     		str	r3, [sp, #28]
 3378              		.loc 1 1761 0
 3379 14d4 0023     		movs	r3, #0
 3380 14d6 0693     		str	r3, [sp, #24]
 3381              		.loc 1 1762 0
 3382 14d8 0023     		movs	r3, #0
 3383 14da 0593     		str	r3, [sp, #20]
 3384              		.loc 1 1780 0
 3385 14dc 039B     		ldr	r3, [sp, #12]
 3386 14de 93F83830 		ldrb	r3, [r3, #56]	@ zero_extendqisi2
 3387 14e2 012B     		cmp	r3, #1
 3388 14e4 01D1     		bne	.L188
 3389              		.loc 1 1780 0 is_stmt 0 discriminator 1
 3390 14e6 0223     		movs	r3, #2
 3391 14e8 9EE0     		b	.L189
 3392              	.L188:
 3393              		.loc 1 1780 0 discriminator 2
 3394 14ea 039B     		ldr	r3, [sp, #12]
 3395 14ec 0122     		movs	r2, #1
 3396 14ee 83F83820 		strb	r2, [r3, #56]
 3397              		.loc 1 1782 0 is_stmt 1 discriminator 2
 3398 14f2 019B     		ldr	r3, [sp, #4]
 3399 14f4 1B68     		ldr	r3, [r3]
 3400 14f6 013B     		subs	r3, r3, #1
 3401 14f8 072B     		cmp	r3, #7
 3402 14fa 37D8     		bhi	.L203
 3403 14fc 01A2     		adr	r2, .L192
 3404 14fe 52F823F0 		ldr	pc, [r2, r3, lsl #2]
 3405 1502 00BF     		.p2align 2
 3406              	.L192:
 3407 1504 25150000 		.word	.L191+1
 3408 1508 39150000 		.word	.L193+1
ARM GAS  /tmp/ccUiHCLc.s 			page 61


 3409 150c 6D150000 		.word	.L203+1
 3410 1510 4D150000 		.word	.L194+1
 3411 1514 6D150000 		.word	.L203+1
 3412 1518 6D150000 		.word	.L203+1
 3413 151c 6D150000 		.word	.L203+1
 3414 1520 61150000 		.word	.L195+1
 3415              		.p2align 1
 3416              	.L191:
 3417              		.loc 1 1786 0
 3418 1524 0123     		movs	r3, #1
 3419 1526 0893     		str	r3, [sp, #32]
 3420              		.loc 1 1787 0
 3421 1528 0023     		movs	r3, #0
 3422 152a 0693     		str	r3, [sp, #24]
 3423              		.loc 1 1788 0
 3424 152c 4FF40073 		mov	r3, #512
 3425 1530 0793     		str	r3, [sp, #28]
 3426              		.loc 1 1789 0
 3427 1532 0923     		movs	r3, #9
 3428 1534 0593     		str	r3, [sp, #20]
 3429              		.loc 1 1791 0
 3430 1536 1AE0     		b	.L196
 3431              	.L193:
 3432              		.loc 1 1794 0
 3433 1538 0223     		movs	r3, #2
 3434 153a 0893     		str	r3, [sp, #32]
 3435              		.loc 1 1795 0
 3436 153c 0123     		movs	r3, #1
 3437 153e 0693     		str	r3, [sp, #24]
 3438              		.loc 1 1796 0
 3439 1540 4FF48063 		mov	r3, #1024
 3440 1544 0793     		str	r3, [sp, #28]
 3441              		.loc 1 1797 0
 3442 1546 0A23     		movs	r3, #10
 3443 1548 0593     		str	r3, [sp, #20]
 3444              		.loc 1 1799 0
 3445 154a 10E0     		b	.L196
 3446              	.L194:
 3447              		.loc 1 1802 0
 3448 154c 0423     		movs	r3, #4
 3449 154e 0893     		str	r3, [sp, #32]
 3450              		.loc 1 1803 0
 3451 1550 0223     		movs	r3, #2
 3452 1552 0693     		str	r3, [sp, #24]
 3453              		.loc 1 1804 0
 3454 1554 4FF40063 		mov	r3, #2048
 3455 1558 0793     		str	r3, [sp, #28]
 3456              		.loc 1 1805 0
 3457 155a 0B23     		movs	r3, #11
 3458 155c 0593     		str	r3, [sp, #20]
 3459              		.loc 1 1807 0
 3460 155e 06E0     		b	.L196
 3461              	.L195:
 3462              		.loc 1 1812 0
 3463 1560 4FF48073 		mov	r3, #256
 3464 1564 0893     		str	r3, [sp, #32]
 3465              		.loc 1 1813 0
ARM GAS  /tmp/ccUiHCLc.s 			page 62


 3466 1566 0823     		movs	r3, #8
 3467 1568 0693     		str	r3, [sp, #24]
 3468              		.loc 1 1815 0
 3469 156a 00E0     		b	.L196
 3470              	.L203:
 3471              		.loc 1 1819 0
 3472 156c 00BF     		nop
 3473              	.L196:
 3474              		.loc 1 1822 0
 3475 156e 029B     		ldr	r3, [sp, #8]
 3476 1570 012B     		cmp	r3, #1
 3477 1572 02D0     		beq	.L198
 3478 1574 022B     		cmp	r3, #2
 3479 1576 29D0     		beq	.L199
 3480              		.loc 1 1869 0
 3481 1578 51E0     		b	.L201
 3482              	.L198:
 3483              		.loc 1 1827 0
 3484 157a 039B     		ldr	r3, [sp, #12]
 3485 157c 1B68     		ldr	r3, [r3]
 3486 157e 1B6E     		ldr	r3, [r3, #96]
 3487 1580 0993     		str	r3, [sp, #36]
 3488              		.loc 1 1830 0
 3489 1582 089B     		ldr	r3, [sp, #32]
 3490 1584 DB43     		mvns	r3, r3
 3491 1586 099A     		ldr	r2, [sp, #36]
 3492 1588 1340     		ands	r3, r3, r2
 3493 158a 0993     		str	r3, [sp, #36]
 3494              		.loc 1 1831 0
 3495 158c 019B     		ldr	r3, [sp, #4]
 3496 158e 5A68     		ldr	r2, [r3, #4]
 3497 1590 069B     		ldr	r3, [sp, #24]
 3498 1592 9A40     		lsls	r2, r2, r3
 3499 1594 089B     		ldr	r3, [sp, #32]
 3500 1596 1340     		ands	r3, r3, r2
 3501 1598 099A     		ldr	r2, [sp, #36]
 3502 159a 1343     		orrs	r3, r3, r2
 3503 159c 0993     		str	r3, [sp, #36]
 3504              		.loc 1 1835 0
 3505 159e 019B     		ldr	r3, [sp, #4]
 3506 15a0 1B68     		ldr	r3, [r3]
 3507 15a2 082B     		cmp	r3, #8
 3508 15a4 0DD0     		beq	.L200
 3509              		.loc 1 1838 0
 3510 15a6 079B     		ldr	r3, [sp, #28]
 3511 15a8 DB43     		mvns	r3, r3
 3512 15aa 099A     		ldr	r2, [sp, #36]
 3513 15ac 1340     		ands	r3, r3, r2
 3514 15ae 0993     		str	r3, [sp, #36]
 3515              		.loc 1 1839 0
 3516 15b0 019B     		ldr	r3, [sp, #4]
 3517 15b2 9A68     		ldr	r2, [r3, #8]
 3518 15b4 059B     		ldr	r3, [sp, #20]
 3519 15b6 9A40     		lsls	r2, r2, r3
 3520 15b8 079B     		ldr	r3, [sp, #28]
 3521 15ba 1340     		ands	r3, r3, r2
 3522 15bc 099A     		ldr	r2, [sp, #36]
ARM GAS  /tmp/ccUiHCLc.s 			page 63


 3523 15be 1343     		orrs	r3, r3, r2
 3524 15c0 0993     		str	r3, [sp, #36]
 3525              	.L200:
 3526              		.loc 1 1843 0
 3527 15c2 039B     		ldr	r3, [sp, #12]
 3528 15c4 1B68     		ldr	r3, [r3]
 3529 15c6 099A     		ldr	r2, [sp, #36]
 3530 15c8 1A66     		str	r2, [r3, #96]
 3531              		.loc 1 1845 0
 3532 15ca 28E0     		b	.L201
 3533              	.L199:
 3534              		.loc 1 1849 0
 3535 15cc 039B     		ldr	r3, [sp, #12]
 3536 15ce 1B68     		ldr	r3, [r3]
 3537 15d0 5B6E     		ldr	r3, [r3, #100]
 3538 15d2 0993     		str	r3, [sp, #36]
 3539              		.loc 1 1852 0
 3540 15d4 089B     		ldr	r3, [sp, #32]
 3541 15d6 DB43     		mvns	r3, r3
 3542 15d8 099A     		ldr	r2, [sp, #36]
 3543 15da 1340     		ands	r3, r3, r2
 3544 15dc 0993     		str	r3, [sp, #36]
 3545              		.loc 1 1853 0
 3546 15de 019B     		ldr	r3, [sp, #4]
 3547 15e0 5A68     		ldr	r2, [r3, #4]
 3548 15e2 069B     		ldr	r3, [sp, #24]
 3549 15e4 9A40     		lsls	r2, r2, r3
 3550 15e6 089B     		ldr	r3, [sp, #32]
 3551 15e8 1340     		ands	r3, r3, r2
 3552 15ea 099A     		ldr	r2, [sp, #36]
 3553 15ec 1343     		orrs	r3, r3, r2
 3554 15ee 0993     		str	r3, [sp, #36]
 3555              		.loc 1 1857 0
 3556 15f0 019B     		ldr	r3, [sp, #4]
 3557 15f2 1B68     		ldr	r3, [r3]
 3558 15f4 082B     		cmp	r3, #8
 3559 15f6 0DD0     		beq	.L202
 3560              		.loc 1 1860 0
 3561 15f8 079B     		ldr	r3, [sp, #28]
 3562 15fa DB43     		mvns	r3, r3
 3563 15fc 099A     		ldr	r2, [sp, #36]
 3564 15fe 1340     		ands	r3, r3, r2
 3565 1600 0993     		str	r3, [sp, #36]
 3566              		.loc 1 1861 0
 3567 1602 019B     		ldr	r3, [sp, #4]
 3568 1604 9A68     		ldr	r2, [r3, #8]
 3569 1606 059B     		ldr	r3, [sp, #20]
 3570 1608 9A40     		lsls	r2, r2, r3
 3571 160a 079B     		ldr	r3, [sp, #28]
 3572 160c 1340     		ands	r3, r3, r2
 3573 160e 099A     		ldr	r2, [sp, #36]
 3574 1610 1343     		orrs	r3, r3, r2
 3575 1612 0993     		str	r3, [sp, #36]
 3576              	.L202:
 3577              		.loc 1 1865 0
 3578 1614 039B     		ldr	r3, [sp, #12]
 3579 1616 1B68     		ldr	r3, [r3]
ARM GAS  /tmp/ccUiHCLc.s 			page 64


 3580 1618 099A     		ldr	r2, [sp, #36]
 3581 161a 5A66     		str	r2, [r3, #100]
 3582              		.loc 1 1867 0
 3583 161c 00BF     		nop
 3584              	.L201:
 3585              		.loc 1 1872 0
 3586 161e 039B     		ldr	r3, [sp, #12]
 3587 1620 0022     		movs	r2, #0
 3588 1622 83F83820 		strb	r2, [r3, #56]
 3589              		.loc 1 1874 0
 3590 1626 0023     		movs	r3, #0
 3591              	.L189:
 3592              		.loc 1 1875 0
 3593 1628 1846     		mov	r0, r3
 3594 162a 0AB0     		add	sp, sp, #40
 3595              		@ sp needed
 3596 162c 7047     		bx	lr
 3597              		.cfi_endproc
 3598              	.LFE156:
 3599              		.size	HAL_TIMEx_ConfigBreakInput, .-HAL_TIMEx_ConfigBreakInput
 3600 162e 00BF     		.align	2
 3601              		.p2align 4,,15
 3602              		.global	HAL_TIMEx_RemapConfig
 3603              		.thumb
 3604              		.thumb_func
 3605              		.type	HAL_TIMEx_RemapConfig, %function
 3606              	HAL_TIMEx_RemapConfig:
 3607              	.LFB157:
 3608              		.loc 1 2045 0
 3609              		.cfi_startproc
 3610              		@ args = 0, pretend = 0, frame = 16
 3611              		@ frame_needed = 0, uses_anonymous_args = 0
 3612              		@ link register save eliminated.
 3613 1630 84B0     		sub	sp, sp, #16
 3614              		.cfi_def_cfa_offset 16
 3615 1632 0190     		str	r0, [sp, #4]
 3616 1634 0091     		str	r1, [sp]
 3617              		.loc 1 2046 0
 3618 1636 0023     		movs	r3, #0
 3619 1638 0393     		str	r3, [sp, #12]
 3620              		.loc 1 2047 0
 3621 163a 0023     		movs	r3, #0
 3622 163c 0293     		str	r3, [sp, #8]
 3623              		.loc 1 2049 0
 3624 163e 019B     		ldr	r3, [sp, #4]
 3625 1640 93F83830 		ldrb	r3, [r3, #56]	@ zero_extendqisi2
 3626 1644 012B     		cmp	r3, #1
 3627 1646 01D1     		bne	.L205
 3628              		.loc 1 2049 0 is_stmt 0 discriminator 1
 3629 1648 0223     		movs	r3, #2
 3630 164a 40E0     		b	.L206
 3631              	.L205:
 3632              		.loc 1 2049 0 discriminator 2
 3633 164c 019B     		ldr	r3, [sp, #4]
 3634 164e 0122     		movs	r2, #1
 3635 1650 83F83820 		strb	r2, [r3, #56]
 3636              		.loc 1 2056 0 is_stmt 1 discriminator 2
ARM GAS  /tmp/ccUiHCLc.s 			page 65


 3637 1654 019B     		ldr	r3, [sp, #4]
 3638 1656 1A68     		ldr	r2, [r3]
 3639 1658 1E4B     		ldr	r3, .L209
 3640 165a 9A42     		cmp	r2, r3
 3641 165c 0ED0     		beq	.L207
 3642              		.loc 1 2056 0 is_stmt 0 discriminator 1
 3643 165e 019B     		ldr	r3, [sp, #4]
 3644 1660 1B68     		ldr	r3, [r3]
 3645 1662 B3F1804F 		cmp	r3, #1073741824
 3646 1666 09D0     		beq	.L207
 3647 1668 019B     		ldr	r3, [sp, #4]
 3648 166a 1A68     		ldr	r2, [r3]
 3649 166c 1A4B     		ldr	r3, .L209+4
 3650 166e 9A42     		cmp	r2, r3
 3651 1670 04D0     		beq	.L207
 3652 1672 019B     		ldr	r3, [sp, #4]
 3653 1674 1A68     		ldr	r2, [r3]
 3654 1676 194B     		ldr	r3, .L209+8
 3655 1678 9A42     		cmp	r2, r3
 3656 167a 11D1     		bne	.L208
 3657              	.L207:
 3658              		.loc 1 2058 0 is_stmt 1
 3659 167c 019B     		ldr	r3, [sp, #4]
 3660 167e 1B68     		ldr	r3, [r3]
 3661 1680 1B6E     		ldr	r3, [r3, #96]
 3662 1682 0293     		str	r3, [sp, #8]
 3663              		.loc 1 2059 0
 3664 1684 029B     		ldr	r3, [sp, #8]
 3665 1686 23F4E033 		bic	r3, r3, #114688
 3666 168a 0293     		str	r3, [sp, #8]
 3667              		.loc 1 2060 0
 3668 168c 009B     		ldr	r3, [sp]
 3669 168e 03F4E033 		and	r3, r3, #114688
 3670 1692 029A     		ldr	r2, [sp, #8]
 3671 1694 1343     		orrs	r3, r3, r2
 3672 1696 0293     		str	r3, [sp, #8]
 3673              		.loc 1 2063 0
 3674 1698 019B     		ldr	r3, [sp, #4]
 3675 169a 1B68     		ldr	r3, [r3]
 3676 169c 029A     		ldr	r2, [sp, #8]
 3677 169e 1A66     		str	r2, [r3, #96]
 3678              	.L208:
 3679              		.loc 1 2067 0
 3680 16a0 009B     		ldr	r3, [sp]
 3681 16a2 0393     		str	r3, [sp, #12]
 3682              		.loc 1 2068 0
 3683 16a4 039B     		ldr	r3, [sp, #12]
 3684 16a6 23F4E033 		bic	r3, r3, #114688
 3685 16aa 0393     		str	r3, [sp, #12]
 3686              		.loc 1 2071 0
 3687 16ac 019B     		ldr	r3, [sp, #4]
 3688 16ae 1B68     		ldr	r3, [r3]
 3689 16b0 009A     		ldr	r2, [sp]
 3690 16b2 1A65     		str	r2, [r3, #80]
 3691              		.loc 1 2074 0
 3692 16b4 019B     		ldr	r3, [sp, #4]
 3693 16b6 1B68     		ldr	r3, [r3]
ARM GAS  /tmp/ccUiHCLc.s 			page 66


 3694 16b8 039A     		ldr	r2, [sp, #12]
 3695 16ba 1A65     		str	r2, [r3, #80]
 3696              		.loc 1 2076 0
 3697 16bc 019B     		ldr	r3, [sp, #4]
 3698 16be 0122     		movs	r2, #1
 3699 16c0 83F83920 		strb	r2, [r3, #57]
 3700              		.loc 1 2078 0
 3701 16c4 019B     		ldr	r3, [sp, #4]
 3702 16c6 0022     		movs	r2, #0
 3703 16c8 83F83820 		strb	r2, [r3, #56]
 3704              		.loc 1 2080 0
 3705 16cc 0023     		movs	r3, #0
 3706              	.L206:
 3707              		.loc 1 2081 0
 3708 16ce 1846     		mov	r0, r3
 3709 16d0 04B0     		add	sp, sp, #16
 3710              		@ sp needed
 3711 16d2 7047     		bx	lr
 3712              	.L210:
 3713              		.align	2
 3714              	.L209:
 3715 16d4 002C0140 		.word	1073818624
 3716 16d8 00040040 		.word	1073742848
 3717 16dc 00340140 		.word	1073820672
 3718              		.cfi_endproc
 3719              	.LFE157:
 3720              		.size	HAL_TIMEx_RemapConfig, .-HAL_TIMEx_RemapConfig
 3721              		.align	2
 3722              		.p2align 4,,15
 3723              		.global	HAL_TIMEx_GroupChannel5
 3724              		.thumb
 3725              		.thumb_func
 3726              		.type	HAL_TIMEx_GroupChannel5, %function
 3727              	HAL_TIMEx_GroupChannel5:
 3728              	.LFB158:
 3729              		.loc 1 2095 0
 3730              		.cfi_startproc
 3731              		@ args = 0, pretend = 0, frame = 8
 3732              		@ frame_needed = 0, uses_anonymous_args = 0
 3733              		@ link register save eliminated.
 3734 16e0 82B0     		sub	sp, sp, #8
 3735              		.cfi_def_cfa_offset 8
 3736 16e2 0190     		str	r0, [sp, #4]
 3737 16e4 0091     		str	r1, [sp]
 3738              		.loc 1 2101 0
 3739 16e6 019B     		ldr	r3, [sp, #4]
 3740 16e8 93F83830 		ldrb	r3, [r3, #56]	@ zero_extendqisi2
 3741 16ec 012B     		cmp	r3, #1
 3742 16ee 01D1     		bne	.L212
 3743              		.loc 1 2101 0 is_stmt 0 discriminator 1
 3744 16f0 0223     		movs	r3, #2
 3745 16f2 20E0     		b	.L213
 3746              	.L212:
 3747              		.loc 1 2101 0 discriminator 2
 3748 16f4 019B     		ldr	r3, [sp, #4]
 3749 16f6 0122     		movs	r2, #1
 3750 16f8 83F83820 		strb	r2, [r3, #56]
ARM GAS  /tmp/ccUiHCLc.s 			page 67


 3751              		.loc 1 2103 0 is_stmt 1 discriminator 2
 3752 16fc 019B     		ldr	r3, [sp, #4]
 3753 16fe 0222     		movs	r2, #2
 3754 1700 83F83920 		strb	r2, [r3, #57]
 3755              		.loc 1 2106 0 discriminator 2
 3756 1704 019B     		ldr	r3, [sp, #4]
 3757 1706 1B68     		ldr	r3, [r3]
 3758 1708 019A     		ldr	r2, [sp, #4]
 3759 170a 1268     		ldr	r2, [r2]
 3760 170c 926D     		ldr	r2, [r2, #88]
 3761 170e 22F06042 		bic	r2, r2, #-536870912
 3762 1712 9A65     		str	r2, [r3, #88]
 3763              		.loc 1 2109 0 discriminator 2
 3764 1714 019B     		ldr	r3, [sp, #4]
 3765 1716 1B68     		ldr	r3, [r3]
 3766 1718 019A     		ldr	r2, [sp, #4]
 3767 171a 1268     		ldr	r2, [r2]
 3768 171c 916D     		ldr	r1, [r2, #88]
 3769 171e 009A     		ldr	r2, [sp]
 3770 1720 0A43     		orrs	r2, r2, r1
 3771 1722 9A65     		str	r2, [r3, #88]
 3772              		.loc 1 2111 0 discriminator 2
 3773 1724 019B     		ldr	r3, [sp, #4]
 3774 1726 0122     		movs	r2, #1
 3775 1728 83F83920 		strb	r2, [r3, #57]
 3776              		.loc 1 2113 0 discriminator 2
 3777 172c 019B     		ldr	r3, [sp, #4]
 3778 172e 0022     		movs	r2, #0
 3779 1730 83F83820 		strb	r2, [r3, #56]
 3780              		.loc 1 2115 0 discriminator 2
 3781 1734 0023     		movs	r3, #0
 3782              	.L213:
 3783              		.loc 1 2116 0
 3784 1736 1846     		mov	r0, r3
 3785 1738 02B0     		add	sp, sp, #8
 3786              		@ sp needed
 3787 173a 7047     		bx	lr
 3788              		.cfi_endproc
 3789              	.LFE158:
 3790              		.size	HAL_TIMEx_GroupChannel5, .-HAL_TIMEx_GroupChannel5
 3791              		.align	2
 3792 173c AFF30080 		.p2align 4,,15
 3793              		.weak	HAL_TIMEx_CommutationCallback
 3794              		.thumb
 3795              		.thumb_func
 3796              		.type	HAL_TIMEx_CommutationCallback, %function
 3797              	HAL_TIMEx_CommutationCallback:
 3798              	.LFB159:
 3799              		.loc 1 2144 0
 3800              		.cfi_startproc
 3801              		@ args = 0, pretend = 0, frame = 8
 3802              		@ frame_needed = 0, uses_anonymous_args = 0
 3803              		@ link register save eliminated.
 3804 1740 82B0     		sub	sp, sp, #8
 3805              		.cfi_def_cfa_offset 8
 3806 1742 0190     		str	r0, [sp, #4]
 3807              		.loc 1 2151 0
ARM GAS  /tmp/ccUiHCLc.s 			page 68


 3808 1744 02B0     		add	sp, sp, #8
 3809              		@ sp needed
 3810 1746 7047     		bx	lr
 3811              		.cfi_endproc
 3812              	.LFE159:
 3813              		.size	HAL_TIMEx_CommutationCallback, .-HAL_TIMEx_CommutationCallback
 3814              		.align	2
 3815 1748 AFF30080 		.p2align 4,,15
 3815      AFF30080 
 3816              		.weak	HAL_TIMEx_BreakCallback
 3817              		.thumb
 3818              		.thumb_func
 3819              		.type	HAL_TIMEx_BreakCallback, %function
 3820              	HAL_TIMEx_BreakCallback:
 3821              	.LFB160:
 3822              		.loc 1 2159 0
 3823              		.cfi_startproc
 3824              		@ args = 0, pretend = 0, frame = 8
 3825              		@ frame_needed = 0, uses_anonymous_args = 0
 3826              		@ link register save eliminated.
 3827 1750 82B0     		sub	sp, sp, #8
 3828              		.cfi_def_cfa_offset 8
 3829 1752 0190     		str	r0, [sp, #4]
 3830              		.loc 1 2166 0
 3831 1754 02B0     		add	sp, sp, #8
 3832              		@ sp needed
 3833 1756 7047     		bx	lr
 3834              		.cfi_endproc
 3835              	.LFE160:
 3836              		.size	HAL_TIMEx_BreakCallback, .-HAL_TIMEx_BreakCallback
 3837              		.align	2
 3838 1758 AFF30080 		.p2align 4,,15
 3838      AFF30080 
 3839              		.global	HAL_TIMEx_HallSensor_GetState
 3840              		.thumb
 3841              		.thumb_func
 3842              		.type	HAL_TIMEx_HallSensor_GetState, %function
 3843              	HAL_TIMEx_HallSensor_GetState:
 3844              	.LFB161:
 3845              		.loc 1 2193 0
 3846              		.cfi_startproc
 3847              		@ args = 0, pretend = 0, frame = 8
 3848              		@ frame_needed = 0, uses_anonymous_args = 0
 3849              		@ link register save eliminated.
 3850 1760 82B0     		sub	sp, sp, #8
 3851              		.cfi_def_cfa_offset 8
 3852 1762 0190     		str	r0, [sp, #4]
 3853              		.loc 1 2194 0
 3854 1764 019B     		ldr	r3, [sp, #4]
 3855 1766 93F83930 		ldrb	r3, [r3, #57]
 3856 176a DBB2     		uxtb	r3, r3
 3857              		.loc 1 2195 0
 3858 176c 1846     		mov	r0, r3
 3859 176e 02B0     		add	sp, sp, #8
 3860              		@ sp needed
 3861 1770 7047     		bx	lr
 3862              		.cfi_endproc
ARM GAS  /tmp/ccUiHCLc.s 			page 69


 3863              	.LFE161:
 3864              		.size	HAL_TIMEx_HallSensor_GetState, .-HAL_TIMEx_HallSensor_GetState
 3865 1772 00BF     		.align	2
 3866 1774 AFF30080 		.p2align 4,,15
 3866      AFF30080 
 3866      AFF30080 
 3867              		.global	TIMEx_DMACommutationCplt
 3868              		.thumb
 3869              		.thumb_func
 3870              		.type	TIMEx_DMACommutationCplt, %function
 3871              	TIMEx_DMACommutationCplt:
 3872              	.LFB162:
 3873              		.loc 1 2207 0
 3874              		.cfi_startproc
 3875              		@ args = 0, pretend = 0, frame = 16
 3876              		@ frame_needed = 0, uses_anonymous_args = 0
 3877 1780 00B5     		push	{lr}
 3878              		.cfi_def_cfa_offset 4
 3879              		.cfi_offset 14, -4
 3880 1782 85B0     		sub	sp, sp, #20
 3881              		.cfi_def_cfa_offset 24
 3882 1784 0190     		str	r0, [sp, #4]
 3883              		.loc 1 2208 0
 3884 1786 019B     		ldr	r3, [sp, #4]
 3885 1788 9B6A     		ldr	r3, [r3, #40]
 3886 178a 0393     		str	r3, [sp, #12]
 3887              		.loc 1 2210 0
 3888 178c 039B     		ldr	r3, [sp, #12]
 3889 178e 0122     		movs	r2, #1
 3890 1790 83F83920 		strb	r2, [r3, #57]
 3891              		.loc 1 2212 0
 3892 1794 0398     		ldr	r0, [sp, #12]
 3893 1796 FFF7FEFF 		bl	HAL_TIMEx_CommutationCallback
 3894              		.loc 1 2213 0
 3895 179a 05B0     		add	sp, sp, #20
 3896              		@ sp needed
 3897 179c 5DF804FB 		ldr	pc, [sp], #4
 3898              		.cfi_endproc
 3899              	.LFE162:
 3900              		.size	TIMEx_DMACommutationCplt, .-TIMEx_DMACommutationCplt
 3901              		.align	2
 3902              		.p2align 4,,15
 3903              		.thumb
 3904              		.thumb_func
 3905              		.type	TIM_CCxNChannelCmd, %function
 3906              	TIM_CCxNChannelCmd:
 3907              	.LFB163:
 3908              		.loc 1 2228 0
 3909              		.cfi_startproc
 3910              		@ args = 0, pretend = 0, frame = 24
 3911              		@ frame_needed = 0, uses_anonymous_args = 0
 3912              		@ link register save eliminated.
 3913 17a0 86B0     		sub	sp, sp, #24
 3914              		.cfi_def_cfa_offset 24
 3915 17a2 0390     		str	r0, [sp, #12]
 3916 17a4 0291     		str	r1, [sp, #8]
 3917 17a6 0192     		str	r2, [sp, #4]
ARM GAS  /tmp/ccUiHCLc.s 			page 70


 3918              		.loc 1 2229 0
 3919 17a8 0023     		movs	r3, #0
 3920 17aa 0593     		str	r3, [sp, #20]
 3921              		.loc 1 2231 0
 3922 17ac 029B     		ldr	r3, [sp, #8]
 3923 17ae 0422     		movs	r2, #4
 3924 17b0 02FA03F3 		lsl	r3, r2, r3
 3925 17b4 0593     		str	r3, [sp, #20]
 3926              		.loc 1 2234 0
 3927 17b6 039B     		ldr	r3, [sp, #12]
 3928 17b8 1A6A     		ldr	r2, [r3, #32]
 3929 17ba 059B     		ldr	r3, [sp, #20]
 3930 17bc DB43     		mvns	r3, r3
 3931 17be 1A40     		ands	r2, r2, r3
 3932 17c0 039B     		ldr	r3, [sp, #12]
 3933 17c2 1A62     		str	r2, [r3, #32]
 3934              		.loc 1 2237 0
 3935 17c4 039B     		ldr	r3, [sp, #12]
 3936 17c6 1A6A     		ldr	r2, [r3, #32]
 3937 17c8 029B     		ldr	r3, [sp, #8]
 3938 17ca 0199     		ldr	r1, [sp, #4]
 3939 17cc 01FA03F3 		lsl	r3, r1, r3
 3940 17d0 1A43     		orrs	r2, r2, r3
 3941 17d2 039B     		ldr	r3, [sp, #12]
 3942 17d4 1A62     		str	r2, [r3, #32]
 3943              		.loc 1 2238 0
 3944 17d6 06B0     		add	sp, sp, #24
 3945              		@ sp needed
 3946 17d8 7047     		bx	lr
 3947              		.cfi_endproc
 3948              	.LFE163:
 3949              		.size	TIM_CCxNChannelCmd, .-TIM_CCxNChannelCmd
 3950              	.Letext0:
 3951              		.file 2 "/nfs/nfs5/home/research/hardware/arm2/gcc-arm-embedded/gcc-arm-none-eabi-4_8-2014q2/arm-n
 3952              		.file 3 "/nfs/nfs5/home/research/hardware/arm2/gcc-arm-embedded/gcc-arm-none-eabi-4_8-2014q2/arm-n
 3953              		.file 4 "../../../../../../ChibiOS/os/ext/CMSIS/ST/STM32L4xx/stm32l476xx.h"
 3954              		.file 5 "../../../../../../ChibiOS/os/ext/CMSIS/ST/STM32L4xx/stm32l4xx.h"
 3955              		.file 6 "../../../../../Drivers/STM32L4xx_HAL_Driver/Inc/stm32l4xx_hal_def.h"
 3956              		.file 7 "../../../../../Drivers/STM32L4xx_HAL_Driver/Inc/stm32l4xx_hal_dma.h"
 3957              		.file 8 "../../../../../Drivers/STM32L4xx_HAL_Driver/Inc/stm32l4xx_hal_tim.h"
 3958              		.file 9 "../../../../../Drivers/STM32L4xx_HAL_Driver/Inc/stm32l4xx_hal_tim_ex.h"
 3959              		.file 10 "../../../../../../ChibiOS/os/ext/CMSIS/include/core_cm4.h"
 3960 17da 00BFAFF3 		.section	.debug_info,"",%progbits
 3960      0080
 3961              	.Ldebug_info0:
 3962 0000 04110000 		.4byte	0x1104
 3963 0004 0400     		.2byte	0x4
 3964 0006 00000000 		.4byte	.Ldebug_abbrev0
 3965 000a 04       		.byte	0x4
 3966 000b 01       		.uleb128 0x1
 3967 000c BD080000 		.4byte	.LASF195
 3968 0010 01       		.byte	0x1
 3969 0011 56000000 		.4byte	.LASF196
 3970 0015 FD010000 		.4byte	.LASF197
 3971 0019 00000000 		.4byte	.Ltext0
 3972 001d DA170000 		.4byte	.Letext0-.Ltext0
 3973 0021 00000000 		.4byte	.Ldebug_line0
ARM GAS  /tmp/ccUiHCLc.s 			page 71


 3974 0025 02       		.uleb128 0x2
 3975 0026 01       		.byte	0x1
 3976 0027 06       		.byte	0x6
 3977 0028 AC010000 		.4byte	.LASF0
 3978 002c 02       		.uleb128 0x2
 3979 002d 01       		.byte	0x1
 3980 002e 08       		.byte	0x8
 3981 002f 7E080000 		.4byte	.LASF1
 3982 0033 02       		.uleb128 0x2
 3983 0034 02       		.byte	0x2
 3984 0035 05       		.byte	0x5
 3985 0036 2F060000 		.4byte	.LASF2
 3986 003a 03       		.uleb128 0x3
 3987 003b 3C0B0000 		.4byte	.LASF4
 3988 003f 02       		.byte	0x2
 3989 0040 26       		.byte	0x26
 3990 0041 45000000 		.4byte	0x45
 3991 0045 02       		.uleb128 0x2
 3992 0046 02       		.byte	0x2
 3993 0047 07       		.byte	0x7
 3994 0048 90050000 		.4byte	.LASF3
 3995 004c 03       		.uleb128 0x3
 3996 004d 820B0000 		.4byte	.LASF5
 3997 0051 02       		.byte	0x2
 3998 0052 37       		.byte	0x37
 3999 0053 57000000 		.4byte	0x57
 4000 0057 02       		.uleb128 0x2
 4001 0058 04       		.byte	0x4
 4002 0059 05       		.byte	0x5
 4003 005a DF020000 		.4byte	.LASF6
 4004 005e 03       		.uleb128 0x3
 4005 005f 06040000 		.4byte	.LASF7
 4006 0063 02       		.byte	0x2
 4007 0064 38       		.byte	0x38
 4008 0065 69000000 		.4byte	0x69
 4009 0069 02       		.uleb128 0x2
 4010 006a 04       		.byte	0x4
 4011 006b 07       		.byte	0x7
 4012 006c 44050000 		.4byte	.LASF8
 4013 0070 02       		.uleb128 0x2
 4014 0071 08       		.byte	0x8
 4015 0072 05       		.byte	0x5
 4016 0073 4C070000 		.4byte	.LASF9
 4017 0077 02       		.uleb128 0x2
 4018 0078 08       		.byte	0x8
 4019 0079 07       		.byte	0x7
 4020 007a E6010000 		.4byte	.LASF10
 4021 007e 04       		.uleb128 0x4
 4022 007f 04       		.byte	0x4
 4023 0080 05       		.byte	0x5
 4024 0081 696E7400 		.ascii	"int\000"
 4025 0085 02       		.uleb128 0x2
 4026 0086 04       		.byte	0x4
 4027 0087 07       		.byte	0x7
 4028 0088 B7040000 		.4byte	.LASF11
 4029 008c 03       		.uleb128 0x3
 4030 008d 99030000 		.4byte	.LASF12
ARM GAS  /tmp/ccUiHCLc.s 			page 72


 4031 0091 03       		.byte	0x3
 4032 0092 36       		.byte	0x36
 4033 0093 3A000000 		.4byte	0x3a
 4034 0097 03       		.uleb128 0x3
 4035 0098 76080000 		.4byte	.LASF13
 4036 009c 03       		.byte	0x3
 4037 009d 41       		.byte	0x41
 4038 009e 4C000000 		.4byte	0x4c
 4039 00a2 03       		.uleb128 0x3
 4040 00a3 A60A0000 		.4byte	.LASF14
 4041 00a7 03       		.byte	0x3
 4042 00a8 42       		.byte	0x42
 4043 00a9 5E000000 		.4byte	0x5e
 4044 00ad 02       		.uleb128 0x2
 4045 00ae 04       		.byte	0x4
 4046 00af 07       		.byte	0x7
 4047 00b0 D2040000 		.4byte	.LASF15
 4048 00b4 05       		.uleb128 0x5
 4049 00b5 A2000000 		.4byte	0xa2
 4050 00b9 06       		.uleb128 0x6
 4051 00ba 10       		.byte	0x10
 4052 00bb 04       		.byte	0x4
 4053 00bc A701     		.2byte	0x1a7
 4054 00be F7000000 		.4byte	0xf7
 4055 00c2 07       		.uleb128 0x7
 4056 00c3 43435200 		.ascii	"CCR\000"
 4057 00c7 04       		.byte	0x4
 4058 00c8 A901     		.2byte	0x1a9
 4059 00ca B4000000 		.4byte	0xb4
 4060 00ce 00       		.byte	0
 4061 00cf 08       		.uleb128 0x8
 4062 00d0 4D0C0000 		.4byte	.LASF16
 4063 00d4 04       		.byte	0x4
 4064 00d5 AA01     		.2byte	0x1aa
 4065 00d7 B4000000 		.4byte	0xb4
 4066 00db 04       		.byte	0x4
 4067 00dc 08       		.uleb128 0x8
 4068 00dd 01050000 		.4byte	.LASF17
 4069 00e1 04       		.byte	0x4
 4070 00e2 AB01     		.2byte	0x1ab
 4071 00e4 B4000000 		.4byte	0xb4
 4072 00e8 08       		.byte	0x8
 4073 00e9 08       		.uleb128 0x8
 4074 00ea 530C0000 		.4byte	.LASF18
 4075 00ee 04       		.byte	0x4
 4076 00ef AC01     		.2byte	0x1ac
 4077 00f1 B4000000 		.4byte	0xb4
 4078 00f5 0C       		.byte	0xc
 4079 00f6 00       		.byte	0
 4080 00f7 09       		.uleb128 0x9
 4081 00f8 C9070000 		.4byte	.LASF19
 4082 00fc 04       		.byte	0x4
 4083 00fd AD01     		.2byte	0x1ad
 4084 00ff B9000000 		.4byte	0xb9
 4085 0103 06       		.uleb128 0x6
 4086 0104 08       		.byte	0x8
 4087 0105 04       		.byte	0x4
ARM GAS  /tmp/ccUiHCLc.s 			page 73


 4088 0106 AF01     		.2byte	0x1af
 4089 0108 27010000 		.4byte	0x127
 4090 010c 07       		.uleb128 0x7
 4091 010d 49535200 		.ascii	"ISR\000"
 4092 0111 04       		.byte	0x4
 4093 0112 B101     		.2byte	0x1b1
 4094 0114 B4000000 		.4byte	0xb4
 4095 0118 00       		.byte	0
 4096 0119 08       		.uleb128 0x8
 4097 011a 160B0000 		.4byte	.LASF20
 4098 011e 04       		.byte	0x4
 4099 011f B201     		.2byte	0x1b2
 4100 0121 B4000000 		.4byte	0xb4
 4101 0125 04       		.byte	0x4
 4102 0126 00       		.byte	0
 4103 0127 09       		.uleb128 0x9
 4104 0128 9A040000 		.4byte	.LASF21
 4105 012c 04       		.byte	0x4
 4106 012d B301     		.2byte	0x1b3
 4107 012f 03010000 		.4byte	0x103
 4108 0133 06       		.uleb128 0x6
 4109 0134 68       		.byte	0x68
 4110 0135 04       		.byte	0x4
 4111 0136 9303     		.2byte	0x393
 4112 0138 8E020000 		.4byte	0x28e
 4113 013c 07       		.uleb128 0x7
 4114 013d 43523100 		.ascii	"CR1\000"
 4115 0141 04       		.byte	0x4
 4116 0142 9503     		.2byte	0x395
 4117 0144 B4000000 		.4byte	0xb4
 4118 0148 00       		.byte	0
 4119 0149 07       		.uleb128 0x7
 4120 014a 43523200 		.ascii	"CR2\000"
 4121 014e 04       		.byte	0x4
 4122 014f 9603     		.2byte	0x396
 4123 0151 B4000000 		.4byte	0xb4
 4124 0155 04       		.byte	0x4
 4125 0156 08       		.uleb128 0x8
 4126 0157 280B0000 		.4byte	.LASF22
 4127 015b 04       		.byte	0x4
 4128 015c 9703     		.2byte	0x397
 4129 015e B4000000 		.4byte	0xb4
 4130 0162 08       		.byte	0x8
 4131 0163 08       		.uleb128 0x8
 4132 0164 34000000 		.4byte	.LASF23
 4133 0168 04       		.byte	0x4
 4134 0169 9803     		.2byte	0x398
 4135 016b B4000000 		.4byte	0xb4
 4136 016f 0C       		.byte	0xc
 4137 0170 07       		.uleb128 0x7
 4138 0171 535200   		.ascii	"SR\000"
 4139 0174 04       		.byte	0x4
 4140 0175 9903     		.2byte	0x399
 4141 0177 B4000000 		.4byte	0xb4
 4142 017b 10       		.byte	0x10
 4143 017c 07       		.uleb128 0x7
 4144 017d 45475200 		.ascii	"EGR\000"
ARM GAS  /tmp/ccUiHCLc.s 			page 74


 4145 0181 04       		.byte	0x4
 4146 0182 9A03     		.2byte	0x39a
 4147 0184 B4000000 		.4byte	0xb4
 4148 0188 14       		.byte	0x14
 4149 0189 08       		.uleb128 0x8
 4150 018a 9A010000 		.4byte	.LASF24
 4151 018e 04       		.byte	0x4
 4152 018f 9B03     		.2byte	0x39b
 4153 0191 B4000000 		.4byte	0xb4
 4154 0195 18       		.byte	0x18
 4155 0196 08       		.uleb128 0x8
 4156 0197 A0010000 		.4byte	.LASF25
 4157 019b 04       		.byte	0x4
 4158 019c 9C03     		.2byte	0x39c
 4159 019e B4000000 		.4byte	0xb4
 4160 01a2 1C       		.byte	0x1c
 4161 01a3 08       		.uleb128 0x8
 4162 01a4 660B0000 		.4byte	.LASF26
 4163 01a8 04       		.byte	0x4
 4164 01a9 9D03     		.2byte	0x39d
 4165 01ab B4000000 		.4byte	0xb4
 4166 01af 20       		.byte	0x20
 4167 01b0 07       		.uleb128 0x7
 4168 01b1 434E5400 		.ascii	"CNT\000"
 4169 01b5 04       		.byte	0x4
 4170 01b6 9E03     		.2byte	0x39e
 4171 01b8 B4000000 		.4byte	0xb4
 4172 01bc 24       		.byte	0x24
 4173 01bd 07       		.uleb128 0x7
 4174 01be 50534300 		.ascii	"PSC\000"
 4175 01c2 04       		.byte	0x4
 4176 01c3 9F03     		.2byte	0x39f
 4177 01c5 B4000000 		.4byte	0xb4
 4178 01c9 28       		.byte	0x28
 4179 01ca 07       		.uleb128 0x7
 4180 01cb 41525200 		.ascii	"ARR\000"
 4181 01cf 04       		.byte	0x4
 4182 01d0 A003     		.2byte	0x3a0
 4183 01d2 B4000000 		.4byte	0xb4
 4184 01d6 2C       		.byte	0x2c
 4185 01d7 07       		.uleb128 0x7
 4186 01d8 52435200 		.ascii	"RCR\000"
 4187 01dc 04       		.byte	0x4
 4188 01dd A103     		.2byte	0x3a1
 4189 01df B4000000 		.4byte	0xb4
 4190 01e3 30       		.byte	0x30
 4191 01e4 08       		.uleb128 0x8
 4192 01e5 E0000000 		.4byte	.LASF27
 4193 01e9 04       		.byte	0x4
 4194 01ea A203     		.2byte	0x3a2
 4195 01ec B4000000 		.4byte	0xb4
 4196 01f0 34       		.byte	0x34
 4197 01f1 08       		.uleb128 0x8
 4198 01f2 E5000000 		.4byte	.LASF28
 4199 01f6 04       		.byte	0x4
 4200 01f7 A303     		.2byte	0x3a3
 4201 01f9 B4000000 		.4byte	0xb4
ARM GAS  /tmp/ccUiHCLc.s 			page 75


 4202 01fd 38       		.byte	0x38
 4203 01fe 08       		.uleb128 0x8
 4204 01ff 360C0000 		.4byte	.LASF29
 4205 0203 04       		.byte	0x4
 4206 0204 A403     		.2byte	0x3a4
 4207 0206 B4000000 		.4byte	0xb4
 4208 020a 3C       		.byte	0x3c
 4209 020b 08       		.uleb128 0x8
 4210 020c 3B0C0000 		.4byte	.LASF30
 4211 0210 04       		.byte	0x4
 4212 0211 A503     		.2byte	0x3a5
 4213 0213 B4000000 		.4byte	0xb4
 4214 0217 40       		.byte	0x40
 4215 0218 08       		.uleb128 0x8
 4216 0219 7E010000 		.4byte	.LASF31
 4217 021d 04       		.byte	0x4
 4218 021e A603     		.2byte	0x3a6
 4219 0220 B4000000 		.4byte	0xb4
 4220 0224 44       		.byte	0x44
 4221 0225 07       		.uleb128 0x7
 4222 0226 44435200 		.ascii	"DCR\000"
 4223 022a 04       		.byte	0x4
 4224 022b A703     		.2byte	0x3a7
 4225 022d B4000000 		.4byte	0xb4
 4226 0231 48       		.byte	0x48
 4227 0232 08       		.uleb128 0x8
 4228 0233 85070000 		.4byte	.LASF32
 4229 0237 04       		.byte	0x4
 4230 0238 A803     		.2byte	0x3a8
 4231 023a B4000000 		.4byte	0xb4
 4232 023e 4C       		.byte	0x4c
 4233 023f 07       		.uleb128 0x7
 4234 0240 4F523100 		.ascii	"OR1\000"
 4235 0244 04       		.byte	0x4
 4236 0245 A903     		.2byte	0x3a9
 4237 0247 B4000000 		.4byte	0xb4
 4238 024b 50       		.byte	0x50
 4239 024c 08       		.uleb128 0x8
 4240 024d BB000000 		.4byte	.LASF33
 4241 0251 04       		.byte	0x4
 4242 0252 AA03     		.2byte	0x3aa
 4243 0254 B4000000 		.4byte	0xb4
 4244 0258 54       		.byte	0x54
 4245 0259 08       		.uleb128 0x8
 4246 025a 400C0000 		.4byte	.LASF34
 4247 025e 04       		.byte	0x4
 4248 025f AB03     		.2byte	0x3ab
 4249 0261 B4000000 		.4byte	0xb4
 4250 0265 58       		.byte	0x58
 4251 0266 08       		.uleb128 0x8
 4252 0267 28010000 		.4byte	.LASF35
 4253 026b 04       		.byte	0x4
 4254 026c AC03     		.2byte	0x3ac
 4255 026e B4000000 		.4byte	0xb4
 4256 0272 5C       		.byte	0x5c
 4257 0273 07       		.uleb128 0x7
 4258 0274 4F523200 		.ascii	"OR2\000"
ARM GAS  /tmp/ccUiHCLc.s 			page 76


 4259 0278 04       		.byte	0x4
 4260 0279 AD03     		.2byte	0x3ad
 4261 027b B4000000 		.4byte	0xb4
 4262 027f 60       		.byte	0x60
 4263 0280 07       		.uleb128 0x7
 4264 0281 4F523300 		.ascii	"OR3\000"
 4265 0285 04       		.byte	0x4
 4266 0286 AE03     		.2byte	0x3ae
 4267 0288 B4000000 		.4byte	0xb4
 4268 028c 64       		.byte	0x64
 4269 028d 00       		.byte	0
 4270 028e 09       		.uleb128 0x9
 4271 028f C1000000 		.4byte	.LASF36
 4272 0293 04       		.byte	0x4
 4273 0294 AF03     		.2byte	0x3af
 4274 0296 33010000 		.4byte	0x133
 4275 029a 0A       		.uleb128 0xa
 4276 029b 01       		.byte	0x1
 4277 029c 05       		.byte	0x5
 4278 029d AE       		.byte	0xae
 4279 029e AF020000 		.4byte	0x2af
 4280 02a2 0B       		.uleb128 0xb
 4281 02a3 23080000 		.4byte	.LASF37
 4282 02a7 00       		.sleb128 0
 4283 02a8 0C       		.uleb128 0xc
 4284 02a9 53455400 		.ascii	"SET\000"
 4285 02ad 01       		.sleb128 1
 4286 02ae 00       		.byte	0
 4287 02af 0D       		.uleb128 0xd
 4288 02b0 04       		.byte	0x4
 4289 02b1 02       		.uleb128 0x2
 4290 02b2 01       		.byte	0x1
 4291 02b3 08       		.byte	0x8
 4292 02b4 1B0B0000 		.4byte	.LASF38
 4293 02b8 0A       		.uleb128 0xa
 4294 02b9 01       		.byte	0x1
 4295 02ba 06       		.byte	0x6
 4296 02bb 3A       		.byte	0x3a
 4297 02bc D9020000 		.4byte	0x2d9
 4298 02c0 0B       		.uleb128 0xb
 4299 02c1 75050000 		.4byte	.LASF39
 4300 02c5 00       		.sleb128 0
 4301 02c6 0B       		.uleb128 0xb
 4302 02c7 D00A0000 		.4byte	.LASF40
 4303 02cb 01       		.sleb128 1
 4304 02cc 0B       		.uleb128 0xb
 4305 02cd B2000000 		.4byte	.LASF41
 4306 02d1 02       		.sleb128 2
 4307 02d2 0B       		.uleb128 0xb
 4308 02d3 69050000 		.4byte	.LASF42
 4309 02d7 03       		.sleb128 3
 4310 02d8 00       		.byte	0
 4311 02d9 03       		.uleb128 0x3
 4312 02da 11060000 		.4byte	.LASF43
 4313 02de 06       		.byte	0x6
 4314 02df 3F       		.byte	0x3f
 4315 02e0 B8020000 		.4byte	0x2b8
ARM GAS  /tmp/ccUiHCLc.s 			page 77


 4316 02e4 0A       		.uleb128 0xa
 4317 02e5 01       		.byte	0x1
 4318 02e6 06       		.byte	0x6
 4319 02e7 45       		.byte	0x45
 4320 02e8 F9020000 		.4byte	0x2f9
 4321 02ec 0B       		.uleb128 0xb
 4322 02ed 120D0000 		.4byte	.LASF44
 4323 02f1 00       		.sleb128 0
 4324 02f2 0B       		.uleb128 0xb
 4325 02f3 00010000 		.4byte	.LASF45
 4326 02f7 01       		.sleb128 1
 4327 02f8 00       		.byte	0
 4328 02f9 03       		.uleb128 0x3
 4329 02fa 4B0D0000 		.4byte	.LASF46
 4330 02fe 06       		.byte	0x6
 4331 02ff 48       		.byte	0x48
 4332 0300 E4020000 		.4byte	0x2e4
 4333 0304 0E       		.uleb128 0xe
 4334 0305 20       		.byte	0x20
 4335 0306 07       		.byte	0x7
 4336 0307 42       		.byte	0x42
 4337 0308 6D030000 		.4byte	0x36d
 4338 030c 0F       		.uleb128 0xf
 4339 030d 200B0000 		.4byte	.LASF47
 4340 0311 07       		.byte	0x7
 4341 0312 44       		.byte	0x44
 4342 0313 A2000000 		.4byte	0xa2
 4343 0317 00       		.byte	0
 4344 0318 0F       		.uleb128 0xf
 4345 0319 16040000 		.4byte	.LASF48
 4346 031d 07       		.byte	0x7
 4347 031e 47       		.byte	0x47
 4348 031f A2000000 		.4byte	0xa2
 4349 0323 04       		.byte	0x4
 4350 0324 0F       		.uleb128 0xf
 4351 0325 10030000 		.4byte	.LASF49
 4352 0329 07       		.byte	0x7
 4353 032a 4B       		.byte	0x4b
 4354 032b A2000000 		.4byte	0xa2
 4355 032f 08       		.byte	0x8
 4356 0330 0F       		.uleb128 0xf
 4357 0331 5F0B0000 		.4byte	.LASF50
 4358 0335 07       		.byte	0x7
 4359 0336 4E       		.byte	0x4e
 4360 0337 A2000000 		.4byte	0xa2
 4361 033b 0C       		.byte	0xc
 4362 033c 0F       		.uleb128 0xf
 4363 033d EE0B0000 		.4byte	.LASF51
 4364 0341 07       		.byte	0x7
 4365 0342 51       		.byte	0x51
 4366 0343 A2000000 		.4byte	0xa2
 4367 0347 10       		.byte	0x10
 4368 0348 0F       		.uleb128 0xf
 4369 0349 D5050000 		.4byte	.LASF52
 4370 034d 07       		.byte	0x7
 4371 034e 54       		.byte	0x54
 4372 034f A2000000 		.4byte	0xa2
ARM GAS  /tmp/ccUiHCLc.s 			page 78


 4373 0353 14       		.byte	0x14
 4374 0354 0F       		.uleb128 0xf
 4375 0355 11040000 		.4byte	.LASF53
 4376 0359 07       		.byte	0x7
 4377 035a 57       		.byte	0x57
 4378 035b A2000000 		.4byte	0xa2
 4379 035f 18       		.byte	0x18
 4380 0360 0F       		.uleb128 0xf
 4381 0361 A3050000 		.4byte	.LASF54
 4382 0365 07       		.byte	0x7
 4383 0366 5C       		.byte	0x5c
 4384 0367 A2000000 		.4byte	0xa2
 4385 036b 1C       		.byte	0x1c
 4386 036c 00       		.byte	0
 4387 036d 03       		.uleb128 0x3
 4388 036e 46000000 		.4byte	.LASF55
 4389 0372 07       		.byte	0x7
 4390 0373 5E       		.byte	0x5e
 4391 0374 04030000 		.4byte	0x304
 4392 0378 0A       		.uleb128 0xa
 4393 0379 01       		.byte	0x1
 4394 037a 07       		.byte	0x7
 4395 037b 64       		.byte	0x64
 4396 037c 99030000 		.4byte	0x399
 4397 0380 0B       		.uleb128 0xb
 4398 0381 57010000 		.4byte	.LASF56
 4399 0385 00       		.sleb128 0
 4400 0386 0B       		.uleb128 0xb
 4401 0387 39060000 		.4byte	.LASF57
 4402 038b 01       		.sleb128 1
 4403 038c 0B       		.uleb128 0xb
 4404 038d 95090000 		.4byte	.LASF58
 4405 0391 02       		.sleb128 2
 4406 0392 0B       		.uleb128 0xb
 4407 0393 770C0000 		.4byte	.LASF59
 4408 0397 03       		.sleb128 3
 4409 0398 00       		.byte	0
 4410 0399 03       		.uleb128 0x3
 4411 039a 70090000 		.4byte	.LASF60
 4412 039e 07       		.byte	0x7
 4413 039f 69       		.byte	0x69
 4414 03a0 78030000 		.4byte	0x378
 4415 03a4 10       		.uleb128 0x10
 4416 03a5 920A0000 		.4byte	.LASF198
 4417 03a9 48       		.byte	0x48
 4418 03aa 07       		.byte	0x7
 4419 03ab 85       		.byte	0x85
 4420 03ac 41040000 		.4byte	0x441
 4421 03b0 0F       		.uleb128 0xf
 4422 03b1 FC070000 		.4byte	.LASF61
 4423 03b5 07       		.byte	0x7
 4424 03b6 87       		.byte	0x87
 4425 03b7 41040000 		.4byte	0x441
 4426 03bb 00       		.byte	0
 4427 03bc 0F       		.uleb128 0xf
 4428 03bd 60060000 		.4byte	.LASF62
 4429 03c1 07       		.byte	0x7
ARM GAS  /tmp/ccUiHCLc.s 			page 79


 4430 03c2 89       		.byte	0x89
 4431 03c3 6D030000 		.4byte	0x36d
 4432 03c7 04       		.byte	0x4
 4433 03c8 0F       		.uleb128 0xf
 4434 03c9 6C070000 		.4byte	.LASF63
 4435 03cd 07       		.byte	0x7
 4436 03ce 8B       		.byte	0x8b
 4437 03cf F9020000 		.4byte	0x2f9
 4438 03d3 24       		.byte	0x24
 4439 03d4 0F       		.uleb128 0xf
 4440 03d5 2D0B0000 		.4byte	.LASF64
 4441 03d9 07       		.byte	0x7
 4442 03da 8D       		.byte	0x8d
 4443 03db 47040000 		.4byte	0x447
 4444 03df 25       		.byte	0x25
 4445 03e0 0F       		.uleb128 0xf
 4446 03e1 C1030000 		.4byte	.LASF65
 4447 03e5 07       		.byte	0x7
 4448 03e6 8F       		.byte	0x8f
 4449 03e7 AF020000 		.4byte	0x2af
 4450 03eb 28       		.byte	0x28
 4451 03ec 0F       		.uleb128 0xf
 4452 03ed 6D0D0000 		.4byte	.LASF66
 4453 03f1 07       		.byte	0x7
 4454 03f2 91       		.byte	0x91
 4455 03f3 5D040000 		.4byte	0x45d
 4456 03f7 2C       		.byte	0x2c
 4457 03f8 0F       		.uleb128 0xf
 4458 03f9 84030000 		.4byte	.LASF67
 4459 03fd 07       		.byte	0x7
 4460 03fe 93       		.byte	0x93
 4461 03ff 5D040000 		.4byte	0x45d
 4462 0403 30       		.byte	0x30
 4463 0404 0F       		.uleb128 0xf
 4464 0405 3A070000 		.4byte	.LASF68
 4465 0409 07       		.byte	0x7
 4466 040a 95       		.byte	0x95
 4467 040b 5D040000 		.4byte	0x45d
 4468 040f 34       		.byte	0x34
 4469 0410 0F       		.uleb128 0xf
 4470 0411 5B0D0000 		.4byte	.LASF69
 4471 0415 07       		.byte	0x7
 4472 0416 97       		.byte	0x97
 4473 0417 5D040000 		.4byte	0x45d
 4474 041b 38       		.byte	0x38
 4475 041c 0F       		.uleb128 0xf
 4476 041d CB050000 		.4byte	.LASF70
 4477 0421 07       		.byte	0x7
 4478 0422 99       		.byte	0x99
 4479 0423 B4000000 		.4byte	0xb4
 4480 0427 3C       		.byte	0x3c
 4481 0428 0F       		.uleb128 0xf
 4482 0429 BC050000 		.4byte	.LASF71
 4483 042d 07       		.byte	0x7
 4484 042e 9B       		.byte	0x9b
 4485 042f 63040000 		.4byte	0x463
 4486 0433 40       		.byte	0x40
ARM GAS  /tmp/ccUiHCLc.s 			page 80


 4487 0434 0F       		.uleb128 0xf
 4488 0435 B4030000 		.4byte	.LASF72
 4489 0439 07       		.byte	0x7
 4490 043a 9D       		.byte	0x9d
 4491 043b A2000000 		.4byte	0xa2
 4492 043f 44       		.byte	0x44
 4493 0440 00       		.byte	0
 4494 0441 11       		.uleb128 0x11
 4495 0442 04       		.byte	0x4
 4496 0443 F7000000 		.4byte	0xf7
 4497 0447 05       		.uleb128 0x5
 4498 0448 99030000 		.4byte	0x399
 4499 044c 12       		.uleb128 0x12
 4500 044d 57040000 		.4byte	0x457
 4501 0451 13       		.uleb128 0x13
 4502 0452 57040000 		.4byte	0x457
 4503 0456 00       		.byte	0
 4504 0457 11       		.uleb128 0x11
 4505 0458 04       		.byte	0x4
 4506 0459 A4030000 		.4byte	0x3a4
 4507 045d 11       		.uleb128 0x11
 4508 045e 04       		.byte	0x4
 4509 045f 4C040000 		.4byte	0x44c
 4510 0463 11       		.uleb128 0x11
 4511 0464 04       		.byte	0x4
 4512 0465 27010000 		.4byte	0x127
 4513 0469 03       		.uleb128 0x3
 4514 046a 14070000 		.4byte	.LASF73
 4515 046e 07       		.byte	0x7
 4516 046f 9E       		.byte	0x9e
 4517 0470 A4030000 		.4byte	0x3a4
 4518 0474 11       		.uleb128 0x11
 4519 0475 04       		.byte	0x4
 4520 0476 69040000 		.4byte	0x469
 4521 047a 0E       		.uleb128 0xe
 4522 047b 14       		.byte	0x14
 4523 047c 08       		.byte	0x8
 4524 047d 41       		.byte	0x41
 4525 047e BF040000 		.4byte	0x4bf
 4526 0482 0F       		.uleb128 0xf
 4527 0483 8C0B0000 		.4byte	.LASF74
 4528 0487 08       		.byte	0x8
 4529 0488 43       		.byte	0x43
 4530 0489 A2000000 		.4byte	0xa2
 4531 048d 00       		.byte	0
 4532 048e 0F       		.uleb128 0xf
 4533 048f 23060000 		.4byte	.LASF75
 4534 0493 08       		.byte	0x8
 4535 0494 46       		.byte	0x46
 4536 0495 A2000000 		.4byte	0xa2
 4537 0499 04       		.byte	0x4
 4538 049a 0F       		.uleb128 0xf
 4539 049b DF010000 		.4byte	.LASF76
 4540 049f 08       		.byte	0x8
 4541 04a0 49       		.byte	0x49
 4542 04a1 A2000000 		.4byte	0xa2
 4543 04a5 08       		.byte	0x8
ARM GAS  /tmp/ccUiHCLc.s 			page 81


 4544 04a6 0F       		.uleb128 0xf
 4545 04a7 F00C0000 		.4byte	.LASF77
 4546 04ab 08       		.byte	0x8
 4547 04ac 4D       		.byte	0x4d
 4548 04ad A2000000 		.4byte	0xa2
 4549 04b1 0C       		.byte	0xc
 4550 04b2 0F       		.uleb128 0xf
 4551 04b3 5A070000 		.4byte	.LASF78
 4552 04b7 08       		.byte	0x8
 4553 04b8 50       		.byte	0x50
 4554 04b9 A2000000 		.4byte	0xa2
 4555 04bd 10       		.byte	0x10
 4556 04be 00       		.byte	0
 4557 04bf 03       		.uleb128 0x3
 4558 04c0 D90B0000 		.4byte	.LASF79
 4559 04c4 08       		.byte	0x8
 4560 04c5 58       		.byte	0x58
 4561 04c6 7A040000 		.4byte	0x47a
 4562 04ca 0E       		.uleb128 0xe
 4563 04cb 1C       		.byte	0x1c
 4564 04cc 08       		.byte	0x8
 4565 04cd 5D       		.byte	0x5d
 4566 04ce 27050000 		.4byte	0x527
 4567 04d2 0F       		.uleb128 0xf
 4568 04d3 09030000 		.4byte	.LASF80
 4569 04d7 08       		.byte	0x8
 4570 04d8 5F       		.byte	0x5f
 4571 04d9 A2000000 		.4byte	0xa2
 4572 04dd 00       		.byte	0
 4573 04de 0F       		.uleb128 0xf
 4574 04df 450D0000 		.4byte	.LASF81
 4575 04e3 08       		.byte	0x8
 4576 04e4 62       		.byte	0x62
 4577 04e5 A2000000 		.4byte	0xa2
 4578 04e9 04       		.byte	0x4
 4579 04ea 0F       		.uleb128 0xf
 4580 04eb 35040000 		.4byte	.LASF82
 4581 04ef 08       		.byte	0x8
 4582 04f0 65       		.byte	0x65
 4583 04f1 A2000000 		.4byte	0xa2
 4584 04f5 08       		.byte	0x8
 4585 04f6 0F       		.uleb128 0xf
 4586 04f7 4D060000 		.4byte	.LASF83
 4587 04fb 08       		.byte	0x8
 4588 04fc 68       		.byte	0x68
 4589 04fd A2000000 		.4byte	0xa2
 4590 0501 0C       		.byte	0xc
 4591 0502 0F       		.uleb128 0xf
 4592 0503 9F070000 		.4byte	.LASF84
 4593 0507 08       		.byte	0x8
 4594 0508 6C       		.byte	0x6c
 4595 0509 A2000000 		.4byte	0xa2
 4596 050d 10       		.byte	0x10
 4597 050e 0F       		.uleb128 0xf
 4598 050f A4080000 		.4byte	.LASF85
 4599 0513 08       		.byte	0x8
 4600 0514 71       		.byte	0x71
ARM GAS  /tmp/ccUiHCLc.s 			page 82


 4601 0515 A2000000 		.4byte	0xa2
 4602 0519 14       		.byte	0x14
 4603 051a 0F       		.uleb128 0xf
 4604 051b B5060000 		.4byte	.LASF86
 4605 051f 08       		.byte	0x8
 4606 0520 75       		.byte	0x75
 4607 0521 A2000000 		.4byte	0xa2
 4608 0525 18       		.byte	0x18
 4609 0526 00       		.byte	0
 4610 0527 03       		.uleb128 0x3
 4611 0528 7F0A0000 		.4byte	.LASF87
 4612 052c 08       		.byte	0x8
 4613 052d 78       		.byte	0x78
 4614 052e CA040000 		.4byte	0x4ca
 4615 0532 0E       		.uleb128 0xe
 4616 0533 0C       		.byte	0xc
 4617 0534 08       		.byte	0x8
 4618 0535 F8       		.byte	0xf8
 4619 0536 5F050000 		.4byte	0x55f
 4620 053a 0F       		.uleb128 0xf
 4621 053b FE0C0000 		.4byte	.LASF88
 4622 053f 08       		.byte	0x8
 4623 0540 F9       		.byte	0xf9
 4624 0541 A2000000 		.4byte	0xa2
 4625 0545 00       		.byte	0
 4626 0546 0F       		.uleb128 0xf
 4627 0547 9D000000 		.4byte	.LASF89
 4628 054b 08       		.byte	0x8
 4629 054c FB       		.byte	0xfb
 4630 054d A2000000 		.4byte	0xa2
 4631 0551 04       		.byte	0x4
 4632 0552 0F       		.uleb128 0xf
 4633 0553 B8010000 		.4byte	.LASF90
 4634 0557 08       		.byte	0x8
 4635 0558 FD       		.byte	0xfd
 4636 0559 A2000000 		.4byte	0xa2
 4637 055d 08       		.byte	0x8
 4638 055e 00       		.byte	0
 4639 055f 03       		.uleb128 0x3
 4640 0560 470B0000 		.4byte	.LASF91
 4641 0564 08       		.byte	0x8
 4642 0565 FF       		.byte	0xff
 4643 0566 32050000 		.4byte	0x532
 4644 056a 06       		.uleb128 0x6
 4645 056b 2C       		.byte	0x2c
 4646 056c 08       		.byte	0x8
 4647 056d 1701     		.2byte	0x117
 4648 056f 03060000 		.4byte	0x603
 4649 0573 08       		.uleb128 0x8
 4650 0574 85090000 		.4byte	.LASF92
 4651 0578 08       		.byte	0x8
 4652 0579 1901     		.2byte	0x119
 4653 057b A2000000 		.4byte	0xa2
 4654 057f 00       		.byte	0
 4655 0580 08       		.uleb128 0x8
 4656 0581 A6040000 		.4byte	.LASF93
 4657 0585 08       		.byte	0x8
ARM GAS  /tmp/ccUiHCLc.s 			page 83


 4658 0586 1B01     		.2byte	0x11b
 4659 0588 A2000000 		.4byte	0xa2
 4660 058c 04       		.byte	0x4
 4661 058d 08       		.uleb128 0x8
 4662 058e AB060000 		.4byte	.LASF94
 4663 0592 08       		.byte	0x8
 4664 0593 1D01     		.2byte	0x11d
 4665 0595 A2000000 		.4byte	0xa2
 4666 0599 08       		.byte	0x8
 4667 059a 08       		.uleb128 0x8
 4668 059b 330B0000 		.4byte	.LASF95
 4669 059f 08       		.byte	0x8
 4670 05a0 1F01     		.2byte	0x11f
 4671 05a2 A2000000 		.4byte	0xa2
 4672 05a6 0C       		.byte	0xc
 4673 05a7 08       		.uleb128 0x8
 4674 05a8 B1050000 		.4byte	.LASF96
 4675 05ac 08       		.byte	0x8
 4676 05ad 2101     		.2byte	0x121
 4677 05af A2000000 		.4byte	0xa2
 4678 05b3 10       		.byte	0x10
 4679 05b4 08       		.uleb128 0x8
 4680 05b5 0E0C0000 		.4byte	.LASF97
 4681 05b9 08       		.byte	0x8
 4682 05ba 2301     		.2byte	0x123
 4683 05bc A2000000 		.4byte	0xa2
 4684 05c0 14       		.byte	0x14
 4685 05c1 08       		.uleb128 0x8
 4686 05c2 DD090000 		.4byte	.LASF98
 4687 05c6 08       		.byte	0x8
 4688 05c7 2501     		.2byte	0x125
 4689 05c9 A2000000 		.4byte	0xa2
 4690 05cd 18       		.byte	0x18
 4691 05ce 08       		.uleb128 0x8
 4692 05cf 4B010000 		.4byte	.LASF99
 4693 05d3 08       		.byte	0x8
 4694 05d4 2701     		.2byte	0x127
 4695 05d6 A2000000 		.4byte	0xa2
 4696 05da 1C       		.byte	0x1c
 4697 05db 08       		.uleb128 0x8
 4698 05dc AF0A0000 		.4byte	.LASF100
 4699 05e0 08       		.byte	0x8
 4700 05e1 2901     		.2byte	0x129
 4701 05e3 A2000000 		.4byte	0xa2
 4702 05e7 20       		.byte	0x20
 4703 05e8 08       		.uleb128 0x8
 4704 05e9 380D0000 		.4byte	.LASF101
 4705 05ed 08       		.byte	0x8
 4706 05ee 2B01     		.2byte	0x12b
 4707 05f0 A2000000 		.4byte	0xa2
 4708 05f4 24       		.byte	0x24
 4709 05f5 08       		.uleb128 0x8
 4710 05f6 E6050000 		.4byte	.LASF102
 4711 05fa 08       		.byte	0x8
 4712 05fb 2D01     		.2byte	0x12d
 4713 05fd A2000000 		.4byte	0xa2
 4714 0601 28       		.byte	0x28
ARM GAS  /tmp/ccUiHCLc.s 			page 84


 4715 0602 00       		.byte	0
 4716 0603 09       		.uleb128 0x9
 4717 0604 580C0000 		.4byte	.LASF103
 4718 0608 08       		.byte	0x8
 4719 0609 2F01     		.2byte	0x12f
 4720 060b 6A050000 		.4byte	0x56a
 4721 060f 14       		.uleb128 0x14
 4722 0610 01       		.byte	0x1
 4723 0611 08       		.byte	0x8
 4724 0612 3501     		.2byte	0x135
 4725 0614 37060000 		.4byte	0x637
 4726 0618 0B       		.uleb128 0xb
 4727 0619 97060000 		.4byte	.LASF104
 4728 061d 00       		.sleb128 0
 4729 061e 0B       		.uleb128 0xb
 4730 061f 26070000 		.4byte	.LASF105
 4731 0623 01       		.sleb128 1
 4732 0624 0B       		.uleb128 0xb
 4733 0625 84060000 		.4byte	.LASF106
 4734 0629 02       		.sleb128 2
 4735 062a 0B       		.uleb128 0xb
 4736 062b DD070000 		.4byte	.LASF107
 4737 062f 03       		.sleb128 3
 4738 0630 0B       		.uleb128 0xb
 4739 0631 7C050000 		.4byte	.LASF108
 4740 0635 04       		.sleb128 4
 4741 0636 00       		.byte	0
 4742 0637 09       		.uleb128 0x9
 4743 0638 20040000 		.4byte	.LASF109
 4744 063c 08       		.byte	0x8
 4745 063d 3B01     		.2byte	0x13b
 4746 063f 0F060000 		.4byte	0x60f
 4747 0643 14       		.uleb128 0x14
 4748 0644 01       		.byte	0x1
 4749 0645 08       		.byte	0x8
 4750 0646 4101     		.2byte	0x141
 4751 0648 77060000 		.4byte	0x677
 4752 064c 0B       		.uleb128 0xb
 4753 064d E9090000 		.4byte	.LASF110
 4754 0651 01       		.sleb128 1
 4755 0652 0B       		.uleb128 0xb
 4756 0653 020A0000 		.4byte	.LASF111
 4757 0657 02       		.sleb128 2
 4758 0658 0B       		.uleb128 0xb
 4759 0659 1B0A0000 		.4byte	.LASF112
 4760 065d 04       		.sleb128 4
 4761 065e 0B       		.uleb128 0xb
 4762 065f 340A0000 		.4byte	.LASF113
 4763 0663 08       		.sleb128 8
 4764 0664 0B       		.uleb128 0xb
 4765 0665 4D0A0000 		.4byte	.LASF114
 4766 0669 10       		.sleb128 16
 4767 066a 0B       		.uleb128 0xb
 4768 066b 660A0000 		.4byte	.LASF115
 4769 066f 20       		.sleb128 32
 4770 0670 0B       		.uleb128 0xb
 4771 0671 960B0000 		.4byte	.LASF116
ARM GAS  /tmp/ccUiHCLc.s 			page 85


 4772 0675 00       		.sleb128 0
 4773 0676 00       		.byte	0
 4774 0677 09       		.uleb128 0x9
 4775 0678 A4020000 		.4byte	.LASF117
 4776 067c 08       		.byte	0x8
 4777 067d 4901     		.2byte	0x149
 4778 067f 43060000 		.4byte	0x643
 4779 0683 06       		.uleb128 0x6
 4780 0684 3C       		.byte	0x3c
 4781 0685 08       		.byte	0x8
 4782 0686 4E01     		.2byte	0x14e
 4783 0688 DB060000 		.4byte	0x6db
 4784 068c 08       		.uleb128 0x8
 4785 068d FC070000 		.4byte	.LASF61
 4786 0691 08       		.byte	0x8
 4787 0692 5001     		.2byte	0x150
 4788 0694 DB060000 		.4byte	0x6db
 4789 0698 00       		.byte	0
 4790 0699 08       		.uleb128 0x8
 4791 069a 60060000 		.4byte	.LASF62
 4792 069e 08       		.byte	0x8
 4793 069f 5101     		.2byte	0x151
 4794 06a1 BF040000 		.4byte	0x4bf
 4795 06a5 04       		.byte	0x4
 4796 06a6 08       		.uleb128 0x8
 4797 06a7 6E080000 		.4byte	.LASF118
 4798 06ab 08       		.byte	0x8
 4799 06ac 5201     		.2byte	0x152
 4800 06ae 77060000 		.4byte	0x677
 4801 06b2 18       		.byte	0x18
 4802 06b3 08       		.uleb128 0x8
 4803 06b4 77060000 		.4byte	.LASF119
 4804 06b8 08       		.byte	0x8
 4805 06b9 5301     		.2byte	0x153
 4806 06bb E1060000 		.4byte	0x6e1
 4807 06bf 1C       		.byte	0x1c
 4808 06c0 08       		.uleb128 0x8
 4809 06c1 6C070000 		.4byte	.LASF63
 4810 06c5 08       		.byte	0x8
 4811 06c6 5501     		.2byte	0x155
 4812 06c8 F9020000 		.4byte	0x2f9
 4813 06cc 38       		.byte	0x38
 4814 06cd 08       		.uleb128 0x8
 4815 06ce 2D0B0000 		.4byte	.LASF64
 4816 06d2 08       		.byte	0x8
 4817 06d3 5601     		.2byte	0x156
 4818 06d5 F1060000 		.4byte	0x6f1
 4819 06d9 39       		.byte	0x39
 4820 06da 00       		.byte	0
 4821 06db 11       		.uleb128 0x11
 4822 06dc 04       		.byte	0x4
 4823 06dd 8E020000 		.4byte	0x28e
 4824 06e1 15       		.uleb128 0x15
 4825 06e2 74040000 		.4byte	0x474
 4826 06e6 F1060000 		.4byte	0x6f1
 4827 06ea 16       		.uleb128 0x16
 4828 06eb AD000000 		.4byte	0xad
ARM GAS  /tmp/ccUiHCLc.s 			page 86


 4829 06ef 06       		.byte	0x6
 4830 06f0 00       		.byte	0
 4831 06f1 05       		.uleb128 0x5
 4832 06f2 37060000 		.4byte	0x637
 4833 06f6 09       		.uleb128 0x9
 4834 06f7 A2030000 		.4byte	.LASF120
 4835 06fb 08       		.byte	0x8
 4836 06fc 5701     		.2byte	0x157
 4837 06fe 83060000 		.4byte	0x683
 4838 0702 0E       		.uleb128 0xe
 4839 0703 10       		.byte	0x10
 4840 0704 09       		.byte	0x9
 4841 0705 42       		.byte	0x42
 4842 0706 3B070000 		.4byte	0x73b
 4843 070a 0F       		.uleb128 0xf
 4844 070b 020C0000 		.4byte	.LASF121
 4845 070f 09       		.byte	0x9
 4846 0710 45       		.byte	0x45
 4847 0711 A2000000 		.4byte	0xa2
 4848 0715 00       		.byte	0
 4849 0716 0F       		.uleb128 0xf
 4850 0717 06050000 		.4byte	.LASF122
 4851 071b 09       		.byte	0x9
 4852 071c 48       		.byte	0x48
 4853 071d A2000000 		.4byte	0xa2
 4854 0721 04       		.byte	0x4
 4855 0722 0F       		.uleb128 0xf
 4856 0723 37030000 		.4byte	.LASF123
 4857 0727 09       		.byte	0x9
 4858 0728 4B       		.byte	0x4b
 4859 0729 A2000000 		.4byte	0xa2
 4860 072d 08       		.byte	0x8
 4861 072e 0F       		.uleb128 0xf
 4862 072f 9D0D0000 		.4byte	.LASF124
 4863 0733 09       		.byte	0x9
 4864 0734 4E       		.byte	0x4e
 4865 0735 A2000000 		.4byte	0xa2
 4866 0739 0C       		.byte	0xc
 4867 073a 00       		.byte	0
 4868 073b 03       		.uleb128 0x3
 4869 073c AF090000 		.4byte	.LASF125
 4870 0740 09       		.byte	0x9
 4871 0741 50       		.byte	0x50
 4872 0742 02070000 		.4byte	0x702
 4873 0746 0E       		.uleb128 0xe
 4874 0747 0C       		.byte	0xc
 4875 0748 09       		.byte	0x9
 4876 0749 55       		.byte	0x55
 4877 074a 73070000 		.4byte	0x773
 4878 074e 0F       		.uleb128 0xf
 4879 074f 8A070000 		.4byte	.LASF126
 4880 0753 09       		.byte	0x9
 4881 0754 56       		.byte	0x56
 4882 0755 A2000000 		.4byte	0xa2
 4883 0759 00       		.byte	0
 4884 075a 0F       		.uleb128 0xf
 4885 075b 5B040000 		.4byte	.LASF127
ARM GAS  /tmp/ccUiHCLc.s 			page 87


 4886 075f 09       		.byte	0x9
 4887 0760 58       		.byte	0x58
 4888 0761 A2000000 		.4byte	0xa2
 4889 0765 04       		.byte	0x4
 4890 0766 0F       		.uleb128 0xf
 4891 0767 5A030000 		.4byte	.LASF128
 4892 076b 09       		.byte	0x9
 4893 076c 5A       		.byte	0x5a
 4894 076d A2000000 		.4byte	0xa2
 4895 0771 08       		.byte	0x8
 4896 0772 00       		.byte	0
 4897 0773 03       		.uleb128 0x3
 4898 0774 2D010000 		.4byte	.LASF129
 4899 0778 09       		.byte	0x9
 4900 0779 5D       		.byte	0x5d
 4901 077a 46070000 		.4byte	0x746
 4902 077e 17       		.uleb128 0x17
 4903 077f E6030000 		.4byte	.LASF132
 4904 0783 01       		.byte	0x1
 4905 0784 9D       		.byte	0x9d
 4906 0785 D9020000 		.4byte	0x2d9
 4907 0789 00000000 		.4byte	.LFB125
 4908 078d 2E010000 		.4byte	.LFE125-.LFB125
 4909 0791 01       		.uleb128 0x1
 4910 0792 9C       		.byte	0x9c
 4911 0793 C2070000 		.4byte	0x7c2
 4912 0797 18       		.uleb128 0x18
 4913 0798 DB000000 		.4byte	.LASF130
 4914 079c 01       		.byte	0x1
 4915 079d 9D       		.byte	0x9d
 4916 079e C2070000 		.4byte	0x7c2
 4917 07a2 02       		.uleb128 0x2
 4918 07a3 91       		.byte	0x91
 4919 07a4 54       		.sleb128 -44
 4920 07a5 18       		.uleb128 0x18
 4921 07a6 450C0000 		.4byte	.LASF131
 4922 07aa 01       		.byte	0x1
 4923 07ab 9D       		.byte	0x9d
 4924 07ac C8070000 		.4byte	0x7c8
 4925 07b0 02       		.uleb128 0x2
 4926 07b1 91       		.byte	0x91
 4927 07b2 50       		.sleb128 -48
 4928 07b3 19       		.uleb128 0x19
 4929 07b4 40040000 		.4byte	.LASF148
 4930 07b8 01       		.byte	0x1
 4931 07b9 9F       		.byte	0x9f
 4932 07ba 27050000 		.4byte	0x527
 4933 07be 02       		.uleb128 0x2
 4934 07bf 91       		.byte	0x91
 4935 07c0 5C       		.sleb128 -36
 4936 07c1 00       		.byte	0
 4937 07c2 11       		.uleb128 0x11
 4938 07c3 04       		.byte	0x4
 4939 07c4 F6060000 		.4byte	0x6f6
 4940 07c8 11       		.uleb128 0x11
 4941 07c9 04       		.byte	0x4
 4942 07ca 3B070000 		.4byte	0x73b
ARM GAS  /tmp/ccUiHCLc.s 			page 88


 4943 07ce 17       		.uleb128 0x17
 4944 07cf 00000000 		.4byte	.LASF133
 4945 07d3 01       		.byte	0x1
 4946 07d4 EB       		.byte	0xeb
 4947 07d5 D9020000 		.4byte	0x2d9
 4948 07d9 30010000 		.4byte	.LFB126
 4949 07dd 5E000000 		.4byte	.LFE126-.LFB126
 4950 07e1 01       		.uleb128 0x1
 4951 07e2 9C       		.byte	0x9c
 4952 07e3 F6070000 		.4byte	0x7f6
 4953 07e7 18       		.uleb128 0x18
 4954 07e8 DB000000 		.4byte	.LASF130
 4955 07ec 01       		.byte	0x1
 4956 07ed EB       		.byte	0xeb
 4957 07ee C2070000 		.4byte	0x7c2
 4958 07f2 02       		.uleb128 0x2
 4959 07f3 91       		.byte	0x91
 4960 07f4 74       		.sleb128 -12
 4961 07f5 00       		.byte	0
 4962 07f6 1A       		.uleb128 0x1a
 4963 07f7 0B010000 		.4byte	.LASF134
 4964 07fb 01       		.byte	0x1
 4965 07fc 0601     		.2byte	0x106
 4966 07fe 90010000 		.4byte	.LFB127
 4967 0802 08000000 		.4byte	.LFE127-.LFB127
 4968 0806 01       		.uleb128 0x1
 4969 0807 9C       		.byte	0x9c
 4970 0808 1C080000 		.4byte	0x81c
 4971 080c 1B       		.uleb128 0x1b
 4972 080d DB000000 		.4byte	.LASF130
 4973 0811 01       		.byte	0x1
 4974 0812 0601     		.2byte	0x106
 4975 0814 C2070000 		.4byte	0x7c2
 4976 0818 02       		.uleb128 0x2
 4977 0819 91       		.byte	0x91
 4978 081a 7C       		.sleb128 -4
 4979 081b 00       		.byte	0
 4980 081c 1A       		.uleb128 0x1a
 4981 081d AA070000 		.4byte	.LASF135
 4982 0821 01       		.byte	0x1
 4983 0822 1501     		.2byte	0x115
 4984 0824 A0010000 		.4byte	.LFB128
 4985 0828 08000000 		.4byte	.LFE128-.LFB128
 4986 082c 01       		.uleb128 0x1
 4987 082d 9C       		.byte	0x9c
 4988 082e 42080000 		.4byte	0x842
 4989 0832 1B       		.uleb128 0x1b
 4990 0833 DB000000 		.4byte	.LASF130
 4991 0837 01       		.byte	0x1
 4992 0838 1501     		.2byte	0x115
 4993 083a C2070000 		.4byte	0x7c2
 4994 083e 02       		.uleb128 0x2
 4995 083f 91       		.byte	0x91
 4996 0840 7C       		.sleb128 -4
 4997 0841 00       		.byte	0
 4998 0842 1C       		.uleb128 0x1c
 4999 0843 F6050000 		.4byte	.LASF136
ARM GAS  /tmp/ccUiHCLc.s 			page 89


 5000 0847 01       		.byte	0x1
 5001 0848 2401     		.2byte	0x124
 5002 084a D9020000 		.4byte	0x2d9
 5003 084e B0010000 		.4byte	.LFB129
 5004 0852 2E000000 		.4byte	.LFE129-.LFB129
 5005 0856 01       		.uleb128 0x1
 5006 0857 9C       		.byte	0x9c
 5007 0858 6C080000 		.4byte	0x86c
 5008 085c 1B       		.uleb128 0x1b
 5009 085d DB000000 		.4byte	.LASF130
 5010 0861 01       		.byte	0x1
 5011 0862 2401     		.2byte	0x124
 5012 0864 C2070000 		.4byte	0x7c2
 5013 0868 02       		.uleb128 0x2
 5014 0869 91       		.byte	0x91
 5015 086a 74       		.sleb128 -12
 5016 086b 00       		.byte	0
 5017 086c 1C       		.uleb128 0x1c
 5018 086d 1C0C0000 		.4byte	.LASF137
 5019 0871 01       		.byte	0x1
 5020 0872 3901     		.2byte	0x139
 5021 0874 D9020000 		.4byte	0x2d9
 5022 0878 E0010000 		.4byte	.LFB130
 5023 087c 4E000000 		.4byte	.LFE130-.LFB130
 5024 0880 01       		.uleb128 0x1
 5025 0881 9C       		.byte	0x9c
 5026 0882 96080000 		.4byte	0x896
 5027 0886 1B       		.uleb128 0x1b
 5028 0887 DB000000 		.4byte	.LASF130
 5029 088b 01       		.byte	0x1
 5030 088c 3901     		.2byte	0x139
 5031 088e C2070000 		.4byte	0x7c2
 5032 0892 02       		.uleb128 0x2
 5033 0893 91       		.byte	0x91
 5034 0894 74       		.sleb128 -12
 5035 0895 00       		.byte	0
 5036 0896 1C       		.uleb128 0x1c
 5037 0897 C8030000 		.4byte	.LASF138
 5038 089b 01       		.byte	0x1
 5039 089c 4E01     		.2byte	0x14e
 5040 089e D9020000 		.4byte	0x2d9
 5041 08a2 30020000 		.4byte	.LFB131
 5042 08a6 3E000000 		.4byte	.LFE131-.LFB131
 5043 08aa 01       		.uleb128 0x1
 5044 08ab 9C       		.byte	0x9c
 5045 08ac C0080000 		.4byte	0x8c0
 5046 08b0 1B       		.uleb128 0x1b
 5047 08b1 DB000000 		.4byte	.LASF130
 5048 08b5 01       		.byte	0x1
 5049 08b6 4E01     		.2byte	0x14e
 5050 08b8 C2070000 		.4byte	0x7c2
 5051 08bc 02       		.uleb128 0x2
 5052 08bd 91       		.byte	0x91
 5053 08be 74       		.sleb128 -12
 5054 08bf 00       		.byte	0
 5055 08c0 1C       		.uleb128 0x1c
 5056 08c1 B50B0000 		.4byte	.LASF139
ARM GAS  /tmp/ccUiHCLc.s 			page 90


 5057 08c5 01       		.byte	0x1
 5058 08c6 6601     		.2byte	0x166
 5059 08c8 D9020000 		.4byte	0x2d9
 5060 08cc 70020000 		.4byte	.LFB132
 5061 08d0 5E000000 		.4byte	.LFE132-.LFB132
 5062 08d4 01       		.uleb128 0x1
 5063 08d5 9C       		.byte	0x9c
 5064 08d6 EA080000 		.4byte	0x8ea
 5065 08da 1B       		.uleb128 0x1b
 5066 08db DB000000 		.4byte	.LASF130
 5067 08df 01       		.byte	0x1
 5068 08e0 6601     		.2byte	0x166
 5069 08e2 C2070000 		.4byte	0x7c2
 5070 08e6 02       		.uleb128 0x2
 5071 08e7 91       		.byte	0x91
 5072 08e8 74       		.sleb128 -12
 5073 08e9 00       		.byte	0
 5074 08ea 1C       		.uleb128 0x1c
 5075 08eb 7E0D0000 		.4byte	.LASF140
 5076 08ef 01       		.byte	0x1
 5077 08f0 8001     		.2byte	0x180
 5078 08f2 D9020000 		.4byte	0x2d9
 5079 08f6 D0020000 		.4byte	.LFB133
 5080 08fa AC000000 		.4byte	.LFE133-.LFB133
 5081 08fe 01       		.uleb128 0x1
 5082 08ff 9C       		.byte	0x9c
 5083 0900 32090000 		.4byte	0x932
 5084 0904 1B       		.uleb128 0x1b
 5085 0905 DB000000 		.4byte	.LASF130
 5086 0909 01       		.byte	0x1
 5087 090a 8001     		.2byte	0x180
 5088 090c C2070000 		.4byte	0x7c2
 5089 0910 02       		.uleb128 0x2
 5090 0911 91       		.byte	0x91
 5091 0912 74       		.sleb128 -12
 5092 0913 1B       		.uleb128 0x1b
 5093 0914 00040000 		.4byte	.LASF141
 5094 0918 01       		.byte	0x1
 5095 0919 8001     		.2byte	0x180
 5096 091b 32090000 		.4byte	0x932
 5097 091f 02       		.uleb128 0x2
 5098 0920 91       		.byte	0x91
 5099 0921 70       		.sleb128 -16
 5100 0922 1B       		.uleb128 0x1b
 5101 0923 D20B0000 		.4byte	.LASF142
 5102 0927 01       		.byte	0x1
 5103 0928 8001     		.2byte	0x180
 5104 092a 8C000000 		.4byte	0x8c
 5105 092e 02       		.uleb128 0x2
 5106 092f 91       		.byte	0x91
 5107 0930 6E       		.sleb128 -18
 5108 0931 00       		.byte	0
 5109 0932 11       		.uleb128 0x11
 5110 0933 04       		.byte	0x4
 5111 0934 A2000000 		.4byte	0xa2
 5112 0938 1C       		.uleb128 0x1c
 5113 0939 BC0C0000 		.4byte	.LASF143
ARM GAS  /tmp/ccUiHCLc.s 			page 91


 5114 093d 01       		.byte	0x1
 5115 093e AF01     		.2byte	0x1af
 5116 0940 D9020000 		.4byte	0x2d9
 5117 0944 80030000 		.4byte	.LFB134
 5118 0948 5E000000 		.4byte	.LFE134-.LFB134
 5119 094c 01       		.uleb128 0x1
 5120 094d 9C       		.byte	0x9c
 5121 094e 62090000 		.4byte	0x962
 5122 0952 1B       		.uleb128 0x1b
 5123 0953 DB000000 		.4byte	.LASF130
 5124 0957 01       		.byte	0x1
 5125 0958 AF01     		.2byte	0x1af
 5126 095a C2070000 		.4byte	0x7c2
 5127 095e 02       		.uleb128 0x2
 5128 095f 91       		.byte	0x91
 5129 0960 74       		.sleb128 -12
 5130 0961 00       		.byte	0
 5131 0962 1C       		.uleb128 0x1c
 5132 0963 42080000 		.4byte	.LASF144
 5133 0967 01       		.byte	0x1
 5134 0968 E701     		.2byte	0x1e7
 5135 096a D9020000 		.4byte	0x2d9
 5136 096e E0030000 		.4byte	.LFB135
 5137 0972 40000000 		.4byte	.LFE135-.LFB135
 5138 0976 01       		.uleb128 0x1
 5139 0977 9C       		.byte	0x9c
 5140 0978 9B090000 		.4byte	0x99b
 5141 097c 1B       		.uleb128 0x1b
 5142 097d DB000000 		.4byte	.LASF130
 5143 0981 01       		.byte	0x1
 5144 0982 E701     		.2byte	0x1e7
 5145 0984 C2070000 		.4byte	0x7c2
 5146 0988 02       		.uleb128 0x2
 5147 0989 91       		.byte	0x91
 5148 098a 74       		.sleb128 -12
 5149 098b 1B       		.uleb128 0x1b
 5150 098c 6E080000 		.4byte	.LASF118
 5151 0990 01       		.byte	0x1
 5152 0991 E701     		.2byte	0x1e7
 5153 0993 A2000000 		.4byte	0xa2
 5154 0997 02       		.uleb128 0x2
 5155 0998 91       		.byte	0x91
 5156 0999 70       		.sleb128 -16
 5157 099a 00       		.byte	0
 5158 099b 1C       		.uleb128 0x1c
 5159 099c 6B010000 		.4byte	.LASF145
 5160 09a0 01       		.byte	0x1
 5161 09a1 0502     		.2byte	0x205
 5162 09a3 D9020000 		.4byte	0x2d9
 5163 09a7 20040000 		.4byte	.LFB136
 5164 09ab 80000000 		.4byte	.LFE136-.LFB136
 5165 09af 01       		.uleb128 0x1
 5166 09b0 9C       		.byte	0x9c
 5167 09b1 D4090000 		.4byte	0x9d4
 5168 09b5 1B       		.uleb128 0x1b
 5169 09b6 DB000000 		.4byte	.LASF130
 5170 09ba 01       		.byte	0x1
ARM GAS  /tmp/ccUiHCLc.s 			page 92


 5171 09bb 0502     		.2byte	0x205
 5172 09bd C2070000 		.4byte	0x7c2
 5173 09c1 02       		.uleb128 0x2
 5174 09c2 91       		.byte	0x91
 5175 09c3 74       		.sleb128 -12
 5176 09c4 1B       		.uleb128 0x1b
 5177 09c5 6E080000 		.4byte	.LASF118
 5178 09c9 01       		.byte	0x1
 5179 09ca 0502     		.2byte	0x205
 5180 09cc A2000000 		.4byte	0xa2
 5181 09d0 02       		.uleb128 0x2
 5182 09d1 91       		.byte	0x91
 5183 09d2 70       		.sleb128 -16
 5184 09d3 00       		.byte	0
 5185 09d4 1C       		.uleb128 0x1c
 5186 09d5 6B0B0000 		.4byte	.LASF146
 5187 09d9 01       		.byte	0x1
 5188 09da 2302     		.2byte	0x223
 5189 09dc D9020000 		.4byte	0x2d9
 5190 09e0 A0040000 		.4byte	.LFB137
 5191 09e4 DA000000 		.4byte	.LFE137-.LFB137
 5192 09e8 01       		.uleb128 0x1
 5193 09e9 9C       		.byte	0x9c
 5194 09ea 0D0A0000 		.4byte	0xa0d
 5195 09ee 1B       		.uleb128 0x1b
 5196 09ef DB000000 		.4byte	.LASF130
 5197 09f3 01       		.byte	0x1
 5198 09f4 2302     		.2byte	0x223
 5199 09f6 C2070000 		.4byte	0x7c2
 5200 09fa 02       		.uleb128 0x2
 5201 09fb 91       		.byte	0x91
 5202 09fc 74       		.sleb128 -12
 5203 09fd 1B       		.uleb128 0x1b
 5204 09fe 6E080000 		.4byte	.LASF118
 5205 0a02 01       		.byte	0x1
 5206 0a03 2302     		.2byte	0x223
 5207 0a05 A2000000 		.4byte	0xa2
 5208 0a09 02       		.uleb128 0x2
 5209 0a0a 91       		.byte	0x91
 5210 0a0b 70       		.sleb128 -16
 5211 0a0c 00       		.byte	0
 5212 0a0d 1C       		.uleb128 0x1c
 5213 0a0e EA000000 		.4byte	.LASF147
 5214 0a12 01       		.byte	0x1
 5215 0a13 6602     		.2byte	0x266
 5216 0a15 D9020000 		.4byte	0x2d9
 5217 0a19 80050000 		.4byte	.LFB138
 5218 0a1d 32010000 		.4byte	.LFE138-.LFB138
 5219 0a21 01       		.uleb128 0x1
 5220 0a22 9C       		.byte	0x9c
 5221 0a23 550A0000 		.4byte	0xa55
 5222 0a27 1B       		.uleb128 0x1b
 5223 0a28 DB000000 		.4byte	.LASF130
 5224 0a2c 01       		.byte	0x1
 5225 0a2d 6602     		.2byte	0x266
 5226 0a2f C2070000 		.4byte	0x7c2
 5227 0a33 02       		.uleb128 0x2
ARM GAS  /tmp/ccUiHCLc.s 			page 93


 5228 0a34 91       		.byte	0x91
 5229 0a35 6C       		.sleb128 -20
 5230 0a36 1B       		.uleb128 0x1b
 5231 0a37 6E080000 		.4byte	.LASF118
 5232 0a3b 01       		.byte	0x1
 5233 0a3c 6602     		.2byte	0x266
 5234 0a3e A2000000 		.4byte	0xa2
 5235 0a42 02       		.uleb128 0x2
 5236 0a43 91       		.byte	0x91
 5237 0a44 68       		.sleb128 -24
 5238 0a45 1D       		.uleb128 0x1d
 5239 0a46 92040000 		.4byte	.LASF149
 5240 0a4a 01       		.byte	0x1
 5241 0a4b 6802     		.2byte	0x268
 5242 0a4d A2000000 		.4byte	0xa2
 5243 0a51 02       		.uleb128 0x2
 5244 0a52 91       		.byte	0x91
 5245 0a53 74       		.sleb128 -12
 5246 0a54 00       		.byte	0
 5247 0a55 1C       		.uleb128 0x1c
 5248 0a56 DA0A0000 		.4byte	.LASF150
 5249 0a5a 01       		.byte	0x1
 5250 0a5b B102     		.2byte	0x2b1
 5251 0a5d D9020000 		.4byte	0x2d9
 5252 0a61 C0060000 		.4byte	.LFB139
 5253 0a65 AC010000 		.4byte	.LFE139-.LFB139
 5254 0a69 01       		.uleb128 0x1
 5255 0a6a 9C       		.byte	0x9c
 5256 0a6b AC0A0000 		.4byte	0xaac
 5257 0a6f 1B       		.uleb128 0x1b
 5258 0a70 DB000000 		.4byte	.LASF130
 5259 0a74 01       		.byte	0x1
 5260 0a75 B102     		.2byte	0x2b1
 5261 0a77 C2070000 		.4byte	0x7c2
 5262 0a7b 02       		.uleb128 0x2
 5263 0a7c 91       		.byte	0x91
 5264 0a7d 74       		.sleb128 -12
 5265 0a7e 1B       		.uleb128 0x1b
 5266 0a7f 6E080000 		.4byte	.LASF118
 5267 0a83 01       		.byte	0x1
 5268 0a84 B102     		.2byte	0x2b1
 5269 0a86 A2000000 		.4byte	0xa2
 5270 0a8a 02       		.uleb128 0x2
 5271 0a8b 91       		.byte	0x91
 5272 0a8c 70       		.sleb128 -16
 5273 0a8d 1B       		.uleb128 0x1b
 5274 0a8e 00040000 		.4byte	.LASF141
 5275 0a92 01       		.byte	0x1
 5276 0a93 B102     		.2byte	0x2b1
 5277 0a95 32090000 		.4byte	0x932
 5278 0a99 02       		.uleb128 0x2
 5279 0a9a 91       		.byte	0x91
 5280 0a9b 6C       		.sleb128 -20
 5281 0a9c 1B       		.uleb128 0x1b
 5282 0a9d D20B0000 		.4byte	.LASF142
 5283 0aa1 01       		.byte	0x1
 5284 0aa2 B102     		.2byte	0x2b1
ARM GAS  /tmp/ccUiHCLc.s 			page 94


 5285 0aa4 8C000000 		.4byte	0x8c
 5286 0aa8 02       		.uleb128 0x2
 5287 0aa9 91       		.byte	0x91
 5288 0aaa 6A       		.sleb128 -22
 5289 0aab 00       		.byte	0
 5290 0aac 1C       		.uleb128 0x1c
 5291 0aad 83010000 		.4byte	.LASF151
 5292 0ab1 01       		.byte	0x1
 5293 0ab2 2403     		.2byte	0x324
 5294 0ab4 D9020000 		.4byte	0x2d9
 5295 0ab8 70080000 		.4byte	.LFB140
 5296 0abc 12010000 		.4byte	.LFE140-.LFB140
 5297 0ac0 01       		.uleb128 0x1
 5298 0ac1 9C       		.byte	0x9c
 5299 0ac2 E50A0000 		.4byte	0xae5
 5300 0ac6 1B       		.uleb128 0x1b
 5301 0ac7 DB000000 		.4byte	.LASF130
 5302 0acb 01       		.byte	0x1
 5303 0acc 2403     		.2byte	0x324
 5304 0ace C2070000 		.4byte	0x7c2
 5305 0ad2 02       		.uleb128 0x2
 5306 0ad3 91       		.byte	0x91
 5307 0ad4 74       		.sleb128 -12
 5308 0ad5 1B       		.uleb128 0x1b
 5309 0ad6 6E080000 		.4byte	.LASF118
 5310 0ada 01       		.byte	0x1
 5311 0adb 2403     		.2byte	0x324
 5312 0add A2000000 		.4byte	0xa2
 5313 0ae1 02       		.uleb128 0x2
 5314 0ae2 91       		.byte	0x91
 5315 0ae3 70       		.sleb128 -16
 5316 0ae4 00       		.byte	0
 5317 0ae5 1C       		.uleb128 0x1c
 5318 0ae6 A70C0000 		.4byte	.LASF152
 5319 0aea 01       		.byte	0x1
 5320 0aeb 8803     		.2byte	0x388
 5321 0aed D9020000 		.4byte	0x2d9
 5322 0af1 90090000 		.4byte	.LFB141
 5323 0af5 40000000 		.4byte	.LFE141-.LFB141
 5324 0af9 01       		.uleb128 0x1
 5325 0afa 9C       		.byte	0x9c
 5326 0afb 1E0B0000 		.4byte	0xb1e
 5327 0aff 1B       		.uleb128 0x1b
 5328 0b00 DB000000 		.4byte	.LASF130
 5329 0b04 01       		.byte	0x1
 5330 0b05 8803     		.2byte	0x388
 5331 0b07 C2070000 		.4byte	0x7c2
 5332 0b0b 02       		.uleb128 0x2
 5333 0b0c 91       		.byte	0x91
 5334 0b0d 74       		.sleb128 -12
 5335 0b0e 1B       		.uleb128 0x1b
 5336 0b0f 6E080000 		.4byte	.LASF118
 5337 0b13 01       		.byte	0x1
 5338 0b14 8803     		.2byte	0x388
 5339 0b16 A2000000 		.4byte	0xa2
 5340 0b1a 02       		.uleb128 0x2
 5341 0b1b 91       		.byte	0x91
ARM GAS  /tmp/ccUiHCLc.s 			page 95


 5342 0b1c 70       		.sleb128 -16
 5343 0b1d 00       		.byte	0
 5344 0b1e 1C       		.uleb128 0x1c
 5345 0b1f 71070000 		.4byte	.LASF153
 5346 0b23 01       		.byte	0x1
 5347 0b24 A503     		.2byte	0x3a5
 5348 0b26 D9020000 		.4byte	0x2d9
 5349 0b2a D0090000 		.4byte	.LFB142
 5350 0b2e 80000000 		.4byte	.LFE142-.LFB142
 5351 0b32 01       		.uleb128 0x1
 5352 0b33 9C       		.byte	0x9c
 5353 0b34 570B0000 		.4byte	0xb57
 5354 0b38 1B       		.uleb128 0x1b
 5355 0b39 DB000000 		.4byte	.LASF130
 5356 0b3d 01       		.byte	0x1
 5357 0b3e A503     		.2byte	0x3a5
 5358 0b40 C2070000 		.4byte	0x7c2
 5359 0b44 02       		.uleb128 0x2
 5360 0b45 91       		.byte	0x91
 5361 0b46 74       		.sleb128 -12
 5362 0b47 1B       		.uleb128 0x1b
 5363 0b48 6E080000 		.4byte	.LASF118
 5364 0b4c 01       		.byte	0x1
 5365 0b4d A503     		.2byte	0x3a5
 5366 0b4f A2000000 		.4byte	0xa2
 5367 0b53 02       		.uleb128 0x2
 5368 0b54 91       		.byte	0x91
 5369 0b55 70       		.sleb128 -16
 5370 0b56 00       		.byte	0
 5371 0b57 1C       		.uleb128 0x1c
 5372 0b58 1C000000 		.4byte	.LASF154
 5373 0b5c 01       		.byte	0x1
 5374 0b5d C303     		.2byte	0x3c3
 5375 0b5f D9020000 		.4byte	0x2d9
 5376 0b63 500A0000 		.4byte	.LFB143
 5377 0b67 DA000000 		.4byte	.LFE143-.LFB143
 5378 0b6b 01       		.uleb128 0x1
 5379 0b6c 9C       		.byte	0x9c
 5380 0b6d 900B0000 		.4byte	0xb90
 5381 0b71 1B       		.uleb128 0x1b
 5382 0b72 DB000000 		.4byte	.LASF130
 5383 0b76 01       		.byte	0x1
 5384 0b77 C303     		.2byte	0x3c3
 5385 0b79 C2070000 		.4byte	0x7c2
 5386 0b7d 02       		.uleb128 0x2
 5387 0b7e 91       		.byte	0x91
 5388 0b7f 74       		.sleb128 -12
 5389 0b80 1B       		.uleb128 0x1b
 5390 0b81 6E080000 		.4byte	.LASF118
 5391 0b85 01       		.byte	0x1
 5392 0b86 C303     		.2byte	0x3c3
 5393 0b88 A2000000 		.4byte	0xa2
 5394 0b8c 02       		.uleb128 0x2
 5395 0b8d 91       		.byte	0x91
 5396 0b8e 70       		.sleb128 -16
 5397 0b8f 00       		.byte	0
 5398 0b90 1C       		.uleb128 0x1c
ARM GAS  /tmp/ccUiHCLc.s 			page 96


 5399 0b91 C8010000 		.4byte	.LASF155
 5400 0b95 01       		.byte	0x1
 5401 0b96 0604     		.2byte	0x406
 5402 0b98 D9020000 		.4byte	0x2d9
 5403 0b9c 300B0000 		.4byte	.LFB144
 5404 0ba0 32010000 		.4byte	.LFE144-.LFB144
 5405 0ba4 01       		.uleb128 0x1
 5406 0ba5 9C       		.byte	0x9c
 5407 0ba6 D80B0000 		.4byte	0xbd8
 5408 0baa 1B       		.uleb128 0x1b
 5409 0bab DB000000 		.4byte	.LASF130
 5410 0baf 01       		.byte	0x1
 5411 0bb0 0604     		.2byte	0x406
 5412 0bb2 C2070000 		.4byte	0x7c2
 5413 0bb6 02       		.uleb128 0x2
 5414 0bb7 91       		.byte	0x91
 5415 0bb8 6C       		.sleb128 -20
 5416 0bb9 1B       		.uleb128 0x1b
 5417 0bba 6E080000 		.4byte	.LASF118
 5418 0bbe 01       		.byte	0x1
 5419 0bbf 0604     		.2byte	0x406
 5420 0bc1 A2000000 		.4byte	0xa2
 5421 0bc5 02       		.uleb128 0x2
 5422 0bc6 91       		.byte	0x91
 5423 0bc7 68       		.sleb128 -24
 5424 0bc8 1D       		.uleb128 0x1d
 5425 0bc9 92040000 		.4byte	.LASF149
 5426 0bcd 01       		.byte	0x1
 5427 0bce 0804     		.2byte	0x408
 5428 0bd0 A2000000 		.4byte	0xa2
 5429 0bd4 02       		.uleb128 0x2
 5430 0bd5 91       		.byte	0x91
 5431 0bd6 74       		.sleb128 -12
 5432 0bd7 00       		.byte	0
 5433 0bd8 1C       		.uleb128 0x1c
 5434 0bd9 41030000 		.4byte	.LASF156
 5435 0bdd 01       		.byte	0x1
 5436 0bde 5204     		.2byte	0x452
 5437 0be0 D9020000 		.4byte	0x2d9
 5438 0be4 700C0000 		.4byte	.LFB145
 5439 0be8 AC010000 		.4byte	.LFE145-.LFB145
 5440 0bec 01       		.uleb128 0x1
 5441 0bed 9C       		.byte	0x9c
 5442 0bee 2F0C0000 		.4byte	0xc2f
 5443 0bf2 1B       		.uleb128 0x1b
 5444 0bf3 DB000000 		.4byte	.LASF130
 5445 0bf7 01       		.byte	0x1
 5446 0bf8 5204     		.2byte	0x452
 5447 0bfa C2070000 		.4byte	0x7c2
 5448 0bfe 02       		.uleb128 0x2
 5449 0bff 91       		.byte	0x91
 5450 0c00 74       		.sleb128 -12
 5451 0c01 1B       		.uleb128 0x1b
 5452 0c02 6E080000 		.4byte	.LASF118
 5453 0c06 01       		.byte	0x1
 5454 0c07 5204     		.2byte	0x452
 5455 0c09 A2000000 		.4byte	0xa2
ARM GAS  /tmp/ccUiHCLc.s 			page 97


 5456 0c0d 02       		.uleb128 0x2
 5457 0c0e 91       		.byte	0x91
 5458 0c0f 70       		.sleb128 -16
 5459 0c10 1B       		.uleb128 0x1b
 5460 0c11 00040000 		.4byte	.LASF141
 5461 0c15 01       		.byte	0x1
 5462 0c16 5204     		.2byte	0x452
 5463 0c18 32090000 		.4byte	0x932
 5464 0c1c 02       		.uleb128 0x2
 5465 0c1d 91       		.byte	0x91
 5466 0c1e 6C       		.sleb128 -20
 5467 0c1f 1B       		.uleb128 0x1b
 5468 0c20 D20B0000 		.4byte	.LASF142
 5469 0c24 01       		.byte	0x1
 5470 0c25 5204     		.2byte	0x452
 5471 0c27 8C000000 		.4byte	0x8c
 5472 0c2b 02       		.uleb128 0x2
 5473 0c2c 91       		.byte	0x91
 5474 0c2d 6A       		.sleb128 -22
 5475 0c2e 00       		.byte	0
 5476 0c2f 1C       		.uleb128 0x1c
 5477 0c30 8C080000 		.4byte	.LASF157
 5478 0c34 01       		.byte	0x1
 5479 0c35 C504     		.2byte	0x4c5
 5480 0c37 D9020000 		.4byte	0x2d9
 5481 0c3b 200E0000 		.4byte	.LFB146
 5482 0c3f 12010000 		.4byte	.LFE146-.LFB146
 5483 0c43 01       		.uleb128 0x1
 5484 0c44 9C       		.byte	0x9c
 5485 0c45 680C0000 		.4byte	0xc68
 5486 0c49 1B       		.uleb128 0x1b
 5487 0c4a DB000000 		.4byte	.LASF130
 5488 0c4e 01       		.byte	0x1
 5489 0c4f C504     		.2byte	0x4c5
 5490 0c51 C2070000 		.4byte	0x7c2
 5491 0c55 02       		.uleb128 0x2
 5492 0c56 91       		.byte	0x91
 5493 0c57 74       		.sleb128 -12
 5494 0c58 1B       		.uleb128 0x1b
 5495 0c59 6E080000 		.4byte	.LASF118
 5496 0c5d 01       		.byte	0x1
 5497 0c5e C504     		.2byte	0x4c5
 5498 0c60 A2000000 		.4byte	0xa2
 5499 0c64 02       		.uleb128 0x2
 5500 0c65 91       		.byte	0x91
 5501 0c66 70       		.sleb128 -16
 5502 0c67 00       		.byte	0
 5503 0c68 1C       		.uleb128 0x1c
 5504 0c69 8D0C0000 		.4byte	.LASF158
 5505 0c6d 01       		.byte	0x1
 5506 0c6e 1C05     		.2byte	0x51c
 5507 0c70 D9020000 		.4byte	0x2d9
 5508 0c74 400F0000 		.4byte	.LFB147
 5509 0c78 30000000 		.4byte	.LFE147-.LFB147
 5510 0c7c 01       		.uleb128 0x1
 5511 0c7d 9C       		.byte	0x9c
 5512 0c7e A10C0000 		.4byte	0xca1
ARM GAS  /tmp/ccUiHCLc.s 			page 98


 5513 0c82 1B       		.uleb128 0x1b
 5514 0c83 DB000000 		.4byte	.LASF130
 5515 0c87 01       		.byte	0x1
 5516 0c88 1C05     		.2byte	0x51c
 5517 0c8a C2070000 		.4byte	0x7c2
 5518 0c8e 02       		.uleb128 0x2
 5519 0c8f 91       		.byte	0x91
 5520 0c90 74       		.sleb128 -12
 5521 0c91 1B       		.uleb128 0x1b
 5522 0c92 CD000000 		.4byte	.LASF159
 5523 0c96 01       		.byte	0x1
 5524 0c97 1C05     		.2byte	0x51c
 5525 0c99 A2000000 		.4byte	0xa2
 5526 0c9d 02       		.uleb128 0x2
 5527 0c9e 91       		.byte	0x91
 5528 0c9f 70       		.sleb128 -16
 5529 0ca0 00       		.byte	0
 5530 0ca1 1C       		.uleb128 0x1c
 5531 0ca2 1F0D0000 		.4byte	.LASF160
 5532 0ca6 01       		.byte	0x1
 5533 0ca7 3505     		.2byte	0x535
 5534 0ca9 D9020000 		.4byte	0x2d9
 5535 0cad 700F0000 		.4byte	.LFB148
 5536 0cb1 80000000 		.4byte	.LFE148-.LFB148
 5537 0cb5 01       		.uleb128 0x1
 5538 0cb6 9C       		.byte	0x9c
 5539 0cb7 DA0C0000 		.4byte	0xcda
 5540 0cbb 1B       		.uleb128 0x1b
 5541 0cbc DB000000 		.4byte	.LASF130
 5542 0cc0 01       		.byte	0x1
 5543 0cc1 3505     		.2byte	0x535
 5544 0cc3 C2070000 		.4byte	0x7c2
 5545 0cc7 02       		.uleb128 0x2
 5546 0cc8 91       		.byte	0x91
 5547 0cc9 74       		.sleb128 -12
 5548 0cca 1B       		.uleb128 0x1b
 5549 0ccb CD000000 		.4byte	.LASF159
 5550 0ccf 01       		.byte	0x1
 5551 0cd0 3505     		.2byte	0x535
 5552 0cd2 A2000000 		.4byte	0xa2
 5553 0cd6 02       		.uleb128 0x2
 5554 0cd7 91       		.byte	0x91
 5555 0cd8 70       		.sleb128 -16
 5556 0cd9 00       		.byte	0
 5557 0cda 1C       		.uleb128 0x1c
 5558 0cdb 1A030000 		.4byte	.LASF161
 5559 0cdf 01       		.byte	0x1
 5560 0ce0 5205     		.2byte	0x552
 5561 0ce2 D9020000 		.4byte	0x2d9
 5562 0ce6 F00F0000 		.4byte	.LFB149
 5563 0cea 50000000 		.4byte	.LFE149-.LFB149
 5564 0cee 01       		.uleb128 0x1
 5565 0cef 9C       		.byte	0x9c
 5566 0cf0 130D0000 		.4byte	0xd13
 5567 0cf4 1B       		.uleb128 0x1b
 5568 0cf5 DB000000 		.4byte	.LASF130
 5569 0cf9 01       		.byte	0x1
ARM GAS  /tmp/ccUiHCLc.s 			page 99


 5570 0cfa 5205     		.2byte	0x552
 5571 0cfc C2070000 		.4byte	0x7c2
 5572 0d00 02       		.uleb128 0x2
 5573 0d01 91       		.byte	0x91
 5574 0d02 74       		.sleb128 -12
 5575 0d03 1B       		.uleb128 0x1b
 5576 0d04 CD000000 		.4byte	.LASF159
 5577 0d08 01       		.byte	0x1
 5578 0d09 5205     		.2byte	0x552
 5579 0d0b A2000000 		.4byte	0xa2
 5580 0d0f 02       		.uleb128 0x2
 5581 0d10 91       		.byte	0x91
 5582 0d11 70       		.sleb128 -16
 5583 0d12 00       		.byte	0
 5584 0d13 1C       		.uleb128 0x1c
 5585 0d14 C2060000 		.4byte	.LASF162
 5586 0d18 01       		.byte	0x1
 5587 0d19 7105     		.2byte	0x571
 5588 0d1b D9020000 		.4byte	0x2d9
 5589 0d1f 40100000 		.4byte	.LFB150
 5590 0d23 A0000000 		.4byte	.LFE150-.LFB150
 5591 0d27 01       		.uleb128 0x1
 5592 0d28 9C       		.byte	0x9c
 5593 0d29 4C0D0000 		.4byte	0xd4c
 5594 0d2d 1B       		.uleb128 0x1b
 5595 0d2e DB000000 		.4byte	.LASF130
 5596 0d32 01       		.byte	0x1
 5597 0d33 7105     		.2byte	0x571
 5598 0d35 C2070000 		.4byte	0x7c2
 5599 0d39 02       		.uleb128 0x2
 5600 0d3a 91       		.byte	0x91
 5601 0d3b 74       		.sleb128 -12
 5602 0d3c 1B       		.uleb128 0x1b
 5603 0d3d CD000000 		.4byte	.LASF159
 5604 0d41 01       		.byte	0x1
 5605 0d42 7105     		.2byte	0x571
 5606 0d44 A2000000 		.4byte	0xa2
 5607 0d48 02       		.uleb128 0x2
 5608 0d49 91       		.byte	0x91
 5609 0d4a 70       		.sleb128 -16
 5610 0d4b 00       		.byte	0
 5611 0d4c 1E       		.uleb128 0x1e
 5612 0d4d E8020000 		.4byte	.LASF163
 5613 0d51 01       		.byte	0x1
 5614 0d52 B805     		.2byte	0x5b8
 5615 0d54 D9020000 		.4byte	0x2d9
 5616 0d58 E0100000 		.4byte	.LFB151
 5617 0d5c 96000000 		.4byte	.LFE151-.LFB151
 5618 0d60 01       		.uleb128 0x1
 5619 0d61 9C       		.byte	0x9c
 5620 0d62 940D0000 		.4byte	0xd94
 5621 0d66 1B       		.uleb128 0x1b
 5622 0d67 DB000000 		.4byte	.LASF130
 5623 0d6b 01       		.byte	0x1
 5624 0d6c B805     		.2byte	0x5b8
 5625 0d6e C2070000 		.4byte	0x7c2
 5626 0d72 02       		.uleb128 0x2
ARM GAS  /tmp/ccUiHCLc.s 			page 100


 5627 0d73 91       		.byte	0x91
 5628 0d74 7C       		.sleb128 -4
 5629 0d75 1B       		.uleb128 0x1b
 5630 0d76 39000000 		.4byte	.LASF164
 5631 0d7a 01       		.byte	0x1
 5632 0d7b B805     		.2byte	0x5b8
 5633 0d7d A2000000 		.4byte	0xa2
 5634 0d81 02       		.uleb128 0x2
 5635 0d82 91       		.byte	0x91
 5636 0d83 78       		.sleb128 -8
 5637 0d84 1B       		.uleb128 0x1b
 5638 0d85 BE0A0000 		.4byte	.LASF165
 5639 0d89 01       		.byte	0x1
 5640 0d8a B805     		.2byte	0x5b8
 5641 0d8c A2000000 		.4byte	0xa2
 5642 0d90 02       		.uleb128 0x2
 5643 0d91 91       		.byte	0x91
 5644 0d92 74       		.sleb128 -12
 5645 0d93 00       		.byte	0
 5646 0d94 1E       		.uleb128 0x1e
 5647 0d95 F20A0000 		.4byte	.LASF166
 5648 0d99 01       		.byte	0x1
 5649 0d9a E905     		.2byte	0x5e9
 5650 0d9c D9020000 		.4byte	0x2d9
 5651 0da0 80110000 		.4byte	.LFB152
 5652 0da4 A6000000 		.4byte	.LFE152-.LFB152
 5653 0da8 01       		.uleb128 0x1
 5654 0da9 9C       		.byte	0x9c
 5655 0daa DC0D0000 		.4byte	0xddc
 5656 0dae 1B       		.uleb128 0x1b
 5657 0daf DB000000 		.4byte	.LASF130
 5658 0db3 01       		.byte	0x1
 5659 0db4 E905     		.2byte	0x5e9
 5660 0db6 C2070000 		.4byte	0x7c2
 5661 0dba 02       		.uleb128 0x2
 5662 0dbb 91       		.byte	0x91
 5663 0dbc 7C       		.sleb128 -4
 5664 0dbd 1B       		.uleb128 0x1b
 5665 0dbe 39000000 		.4byte	.LASF164
 5666 0dc2 01       		.byte	0x1
 5667 0dc3 E905     		.2byte	0x5e9
 5668 0dc5 A2000000 		.4byte	0xa2
 5669 0dc9 02       		.uleb128 0x2
 5670 0dca 91       		.byte	0x91
 5671 0dcb 78       		.sleb128 -8
 5672 0dcc 1B       		.uleb128 0x1b
 5673 0dcd BE0A0000 		.4byte	.LASF165
 5674 0dd1 01       		.byte	0x1
 5675 0dd2 E905     		.2byte	0x5e9
 5676 0dd4 A2000000 		.4byte	0xa2
 5677 0dd8 02       		.uleb128 0x2
 5678 0dd9 91       		.byte	0x91
 5679 0dda 74       		.sleb128 -12
 5680 0ddb 00       		.byte	0
 5681 0ddc 1E       		.uleb128 0x1e
 5682 0ddd BA020000 		.4byte	.LASF167
 5683 0de1 01       		.byte	0x1
ARM GAS  /tmp/ccUiHCLc.s 			page 101


 5684 0de2 1E06     		.2byte	0x61e
 5685 0de4 D9020000 		.4byte	0x2d9
 5686 0de8 30120000 		.4byte	.LFB153
 5687 0dec C0000000 		.4byte	.LFE153-.LFB153
 5688 0df0 01       		.uleb128 0x1
 5689 0df1 9C       		.byte	0x9c
 5690 0df2 240E0000 		.4byte	0xe24
 5691 0df6 1B       		.uleb128 0x1b
 5692 0df7 DB000000 		.4byte	.LASF130
 5693 0dfb 01       		.byte	0x1
 5694 0dfc 1E06     		.2byte	0x61e
 5695 0dfe C2070000 		.4byte	0x7c2
 5696 0e02 02       		.uleb128 0x2
 5697 0e03 91       		.byte	0x91
 5698 0e04 7C       		.sleb128 -4
 5699 0e05 1B       		.uleb128 0x1b
 5700 0e06 39000000 		.4byte	.LASF164
 5701 0e0a 01       		.byte	0x1
 5702 0e0b 1E06     		.2byte	0x61e
 5703 0e0d A2000000 		.4byte	0xa2
 5704 0e11 02       		.uleb128 0x2
 5705 0e12 91       		.byte	0x91
 5706 0e13 78       		.sleb128 -8
 5707 0e14 1B       		.uleb128 0x1b
 5708 0e15 BE0A0000 		.4byte	.LASF165
 5709 0e19 01       		.byte	0x1
 5710 0e1a 1E06     		.2byte	0x61e
 5711 0e1c A2000000 		.4byte	0xa2
 5712 0e20 02       		.uleb128 0x2
 5713 0e21 91       		.byte	0x91
 5714 0e22 74       		.sleb128 -12
 5715 0e23 00       		.byte	0
 5716 0e24 1E       		.uleb128 0x1e
 5717 0e25 DB040000 		.4byte	.LASF168
 5718 0e29 01       		.byte	0x1
 5719 0e2a 4A06     		.2byte	0x64a
 5720 0e2c D9020000 		.4byte	0x2d9
 5721 0e30 F0120000 		.4byte	.LFB154
 5722 0e34 A0000000 		.4byte	.LFE154-.LFB154
 5723 0e38 01       		.uleb128 0x1
 5724 0e39 9C       		.byte	0x9c
 5725 0e3a 7B0E0000 		.4byte	0xe7b
 5726 0e3e 1B       		.uleb128 0x1b
 5727 0e3f DB000000 		.4byte	.LASF130
 5728 0e43 01       		.byte	0x1
 5729 0e44 4A06     		.2byte	0x64a
 5730 0e46 C2070000 		.4byte	0x7c2
 5731 0e4a 02       		.uleb128 0x2
 5732 0e4b 91       		.byte	0x91
 5733 0e4c 74       		.sleb128 -12
 5734 0e4d 1B       		.uleb128 0x1b
 5735 0e4e 76030000 		.4byte	.LASF169
 5736 0e52 01       		.byte	0x1
 5737 0e53 4B06     		.2byte	0x64b
 5738 0e55 7B0E0000 		.4byte	0xe7b
 5739 0e59 02       		.uleb128 0x2
 5740 0e5a 91       		.byte	0x91
ARM GAS  /tmp/ccUiHCLc.s 			page 102


 5741 0e5b 70       		.sleb128 -16
 5742 0e5c 1D       		.uleb128 0x1d
 5743 0e5d A8090000 		.4byte	.LASF170
 5744 0e61 01       		.byte	0x1
 5745 0e62 4D06     		.2byte	0x64d
 5746 0e64 A2000000 		.4byte	0xa2
 5747 0e68 02       		.uleb128 0x2
 5748 0e69 91       		.byte	0x91
 5749 0e6a 7C       		.sleb128 -4
 5750 0e6b 1D       		.uleb128 0x1d
 5751 0e6c 7C060000 		.4byte	.LASF171
 5752 0e70 01       		.byte	0x1
 5753 0e71 4E06     		.2byte	0x64e
 5754 0e73 A2000000 		.4byte	0xa2
 5755 0e77 02       		.uleb128 0x2
 5756 0e78 91       		.byte	0x91
 5757 0e79 78       		.sleb128 -8
 5758 0e7a 00       		.byte	0
 5759 0e7b 11       		.uleb128 0x11
 5760 0e7c 04       		.byte	0x4
 5761 0e7d 5F050000 		.4byte	0x55f
 5762 0e81 1E       		.uleb128 0x1e
 5763 0e82 13050000 		.4byte	.LASF172
 5764 0e86 01       		.byte	0x1
 5765 0e87 8706     		.2byte	0x687
 5766 0e89 D9020000 		.4byte	0x2d9
 5767 0e8d 90130000 		.4byte	.LFB155
 5768 0e91 2C010000 		.4byte	.LFE155-.LFB155
 5769 0e95 01       		.uleb128 0x1
 5770 0e96 9C       		.byte	0x9c
 5771 0e97 C90E0000 		.4byte	0xec9
 5772 0e9b 1B       		.uleb128 0x1b
 5773 0e9c DB000000 		.4byte	.LASF130
 5774 0ea0 01       		.byte	0x1
 5775 0ea1 8706     		.2byte	0x687
 5776 0ea3 C2070000 		.4byte	0x7c2
 5777 0ea7 02       		.uleb128 0x2
 5778 0ea8 91       		.byte	0x91
 5779 0ea9 74       		.sleb128 -12
 5780 0eaa 1B       		.uleb128 0x1b
 5781 0eab 62040000 		.4byte	.LASF173
 5782 0eaf 01       		.byte	0x1
 5783 0eb0 8806     		.2byte	0x688
 5784 0eb2 C90E0000 		.4byte	0xec9
 5785 0eb6 02       		.uleb128 0x2
 5786 0eb7 91       		.byte	0x91
 5787 0eb8 70       		.sleb128 -16
 5788 0eb9 1D       		.uleb128 0x1d
 5789 0eba 63030000 		.4byte	.LASF174
 5790 0ebe 01       		.byte	0x1
 5791 0ebf 8A06     		.2byte	0x68a
 5792 0ec1 A2000000 		.4byte	0xa2
 5793 0ec5 02       		.uleb128 0x2
 5794 0ec6 91       		.byte	0x91
 5795 0ec7 7C       		.sleb128 -4
 5796 0ec8 00       		.byte	0
 5797 0ec9 11       		.uleb128 0x11
ARM GAS  /tmp/ccUiHCLc.s 			page 103


 5798 0eca 04       		.byte	0x4
 5799 0ecb 03060000 		.4byte	0x603
 5800 0ecf 1E       		.uleb128 0x1e
 5801 0ed0 77040000 		.4byte	.LASF175
 5802 0ed4 01       		.byte	0x1
 5803 0ed5 D906     		.2byte	0x6d9
 5804 0ed7 D9020000 		.4byte	0x2d9
 5805 0edb C0140000 		.4byte	.LFB156
 5806 0edf 6E010000 		.4byte	.LFE156-.LFB156
 5807 0ee3 01       		.uleb128 0x1
 5808 0ee4 9C       		.byte	0x9c
 5809 0ee5 620F0000 		.4byte	0xf62
 5810 0ee9 1B       		.uleb128 0x1b
 5811 0eea DB000000 		.4byte	.LASF130
 5812 0eee 01       		.byte	0x1
 5813 0eef D906     		.2byte	0x6d9
 5814 0ef1 C2070000 		.4byte	0x7c2
 5815 0ef5 02       		.uleb128 0x2
 5816 0ef6 91       		.byte	0x91
 5817 0ef7 64       		.sleb128 -28
 5818 0ef8 1B       		.uleb128 0x1b
 5819 0ef9 6B030000 		.4byte	.LASF176
 5820 0efd 01       		.byte	0x1
 5821 0efe DA06     		.2byte	0x6da
 5822 0f00 A2000000 		.4byte	0xa2
 5823 0f04 02       		.uleb128 0x2
 5824 0f05 91       		.byte	0x91
 5825 0f06 60       		.sleb128 -32
 5826 0f07 1B       		.uleb128 0x1b
 5827 0f08 65060000 		.4byte	.LASF177
 5828 0f0c 01       		.byte	0x1
 5829 0f0d DB06     		.2byte	0x6db
 5830 0f0f 620F0000 		.4byte	0xf62
 5831 0f13 02       		.uleb128 0x2
 5832 0f14 91       		.byte	0x91
 5833 0f15 5C       		.sleb128 -36
 5834 0f16 1D       		.uleb128 0x1d
 5835 0f17 59060000 		.4byte	.LASF178
 5836 0f1b 01       		.byte	0x1
 5837 0f1c DE06     		.2byte	0x6de
 5838 0f1e A2000000 		.4byte	0xa2
 5839 0f22 02       		.uleb128 0x2
 5840 0f23 91       		.byte	0x91
 5841 0f24 7C       		.sleb128 -4
 5842 0f25 1D       		.uleb128 0x1d
 5843 0f26 4A040000 		.4byte	.LASF179
 5844 0f2a 01       		.byte	0x1
 5845 0f2b DF06     		.2byte	0x6df
 5846 0f2d A2000000 		.4byte	0xa2
 5847 0f31 02       		.uleb128 0x2
 5848 0f32 91       		.byte	0x91
 5849 0f33 78       		.sleb128 -8
 5850 0f34 1D       		.uleb128 0x1d
 5851 0f35 56050000 		.4byte	.LASF180
 5852 0f39 01       		.byte	0x1
 5853 0f3a E006     		.2byte	0x6e0
 5854 0f3c A2000000 		.4byte	0xa2
ARM GAS  /tmp/ccUiHCLc.s 			page 104


 5855 0f40 02       		.uleb128 0x2
 5856 0f41 91       		.byte	0x91
 5857 0f42 74       		.sleb128 -12
 5858 0f43 1D       		.uleb128 0x1d
 5859 0f44 CA090000 		.4byte	.LASF181
 5860 0f48 01       		.byte	0x1
 5861 0f49 E106     		.2byte	0x6e1
 5862 0f4b A2000000 		.4byte	0xa2
 5863 0f4f 02       		.uleb128 0x2
 5864 0f50 91       		.byte	0x91
 5865 0f51 70       		.sleb128 -16
 5866 0f52 1D       		.uleb128 0x1d
 5867 0f53 8F020000 		.4byte	.LASF182
 5868 0f57 01       		.byte	0x1
 5869 0f58 E206     		.2byte	0x6e2
 5870 0f5a A2000000 		.4byte	0xa2
 5871 0f5e 02       		.uleb128 0x2
 5872 0f5f 91       		.byte	0x91
 5873 0f60 6C       		.sleb128 -20
 5874 0f61 00       		.byte	0
 5875 0f62 11       		.uleb128 0x11
 5876 0f63 04       		.byte	0x4
 5877 0f64 73070000 		.4byte	0x773
 5878 0f68 1E       		.uleb128 0x1e
 5879 0f69 DA0C0000 		.4byte	.LASF183
 5880 0f6d 01       		.byte	0x1
 5881 0f6e FC07     		.2byte	0x7fc
 5882 0f70 D9020000 		.4byte	0x2d9
 5883 0f74 30160000 		.4byte	.LFB157
 5884 0f78 B0000000 		.4byte	.LFE157-.LFB157
 5885 0f7c 01       		.uleb128 0x1
 5886 0f7d 9C       		.byte	0x9c
 5887 0f7e BF0F0000 		.4byte	0xfbf
 5888 0f82 1B       		.uleb128 0x1b
 5889 0f83 DB000000 		.4byte	.LASF130
 5890 0f87 01       		.byte	0x1
 5891 0f88 FC07     		.2byte	0x7fc
 5892 0f8a C2070000 		.4byte	0x7c2
 5893 0f8e 02       		.uleb128 0x2
 5894 0f8f 91       		.byte	0x91
 5895 0f90 74       		.sleb128 -12
 5896 0f91 1B       		.uleb128 0x1b
 5897 0f92 A6010000 		.4byte	.LASF184
 5898 0f96 01       		.byte	0x1
 5899 0f97 FC07     		.2byte	0x7fc
 5900 0f99 A2000000 		.4byte	0xa2
 5901 0f9d 02       		.uleb128 0x2
 5902 0f9e 91       		.byte	0x91
 5903 0f9f 70       		.sleb128 -16
 5904 0fa0 1D       		.uleb128 0x1d
 5905 0fa1 C4040000 		.4byte	.LASF185
 5906 0fa5 01       		.byte	0x1
 5907 0fa6 FE07     		.2byte	0x7fe
 5908 0fa8 A2000000 		.4byte	0xa2
 5909 0fac 02       		.uleb128 0x2
 5910 0fad 91       		.byte	0x91
 5911 0fae 7C       		.sleb128 -4
ARM GAS  /tmp/ccUiHCLc.s 			page 105


 5912 0faf 1D       		.uleb128 0x1d
 5913 0fb0 CB040000 		.4byte	.LASF186
 5914 0fb4 01       		.byte	0x1
 5915 0fb5 FF07     		.2byte	0x7ff
 5916 0fb7 A2000000 		.4byte	0xa2
 5917 0fbb 02       		.uleb128 0x2
 5918 0fbc 91       		.byte	0x91
 5919 0fbd 78       		.sleb128 -8
 5920 0fbe 00       		.byte	0
 5921 0fbf 1E       		.uleb128 0x1e
 5922 0fc0 56080000 		.4byte	.LASF187
 5923 0fc4 01       		.byte	0x1
 5924 0fc5 2E08     		.2byte	0x82e
 5925 0fc7 D9020000 		.4byte	0x2d9
 5926 0fcb E0160000 		.4byte	.LFB158
 5927 0fcf 5C000000 		.4byte	.LFE158-.LFB158
 5928 0fd3 01       		.uleb128 0x1
 5929 0fd4 9C       		.byte	0x9c
 5930 0fd5 F80F0000 		.4byte	0xff8
 5931 0fd9 1B       		.uleb128 0x1b
 5932 0fda DB000000 		.4byte	.LASF130
 5933 0fde 01       		.byte	0x1
 5934 0fdf 2E08     		.2byte	0x82e
 5935 0fe1 C2070000 		.4byte	0x7c2
 5936 0fe5 02       		.uleb128 0x2
 5937 0fe6 91       		.byte	0x91
 5938 0fe7 7C       		.sleb128 -4
 5939 0fe8 1B       		.uleb128 0x1b
 5940 0fe9 F3070000 		.4byte	.LASF188
 5941 0fed 01       		.byte	0x1
 5942 0fee 2E08     		.2byte	0x82e
 5943 0ff0 A2000000 		.4byte	0xa2
 5944 0ff4 02       		.uleb128 0x2
 5945 0ff5 91       		.byte	0x91
 5946 0ff6 78       		.sleb128 -8
 5947 0ff7 00       		.byte	0
 5948 0ff8 1A       		.uleb128 0x1a
 5949 0ff9 05080000 		.4byte	.LASF189
 5950 0ffd 01       		.byte	0x1
 5951 0ffe 5F08     		.2byte	0x85f
 5952 1000 40170000 		.4byte	.LFB159
 5953 1004 08000000 		.4byte	.LFE159-.LFB159
 5954 1008 01       		.uleb128 0x1
 5955 1009 9C       		.byte	0x9c
 5956 100a 1E100000 		.4byte	0x101e
 5957 100e 1B       		.uleb128 0x1b
 5958 100f DB000000 		.4byte	.LASF130
 5959 1013 01       		.byte	0x1
 5960 1014 5F08     		.2byte	0x85f
 5961 1016 C2070000 		.4byte	0x7c2
 5962 101a 02       		.uleb128 0x2
 5963 101b 91       		.byte	0x91
 5964 101c 7C       		.sleb128 -4
 5965 101d 00       		.byte	0
 5966 101e 1A       		.uleb128 0x1a
 5967 101f DE060000 		.4byte	.LASF190
 5968 1023 01       		.byte	0x1
ARM GAS  /tmp/ccUiHCLc.s 			page 106


 5969 1024 6E08     		.2byte	0x86e
 5970 1026 50170000 		.4byte	.LFB160
 5971 102a 08000000 		.4byte	.LFE160-.LFB160
 5972 102e 01       		.uleb128 0x1
 5973 102f 9C       		.byte	0x9c
 5974 1030 44100000 		.4byte	0x1044
 5975 1034 1B       		.uleb128 0x1b
 5976 1035 DB000000 		.4byte	.LASF130
 5977 1039 01       		.byte	0x1
 5978 103a 6E08     		.2byte	0x86e
 5979 103c C2070000 		.4byte	0x7c2
 5980 1040 02       		.uleb128 0x2
 5981 1041 91       		.byte	0x91
 5982 1042 7C       		.sleb128 -4
 5983 1043 00       		.byte	0
 5984 1044 1E       		.uleb128 0x1e
 5985 1045 F6060000 		.4byte	.LASF191
 5986 1049 01       		.byte	0x1
 5987 104a 9008     		.2byte	0x890
 5988 104c 37060000 		.4byte	0x637
 5989 1050 60170000 		.4byte	.LFB161
 5990 1054 12000000 		.4byte	.LFE161-.LFB161
 5991 1058 01       		.uleb128 0x1
 5992 1059 9C       		.byte	0x9c
 5993 105a 6E100000 		.4byte	0x106e
 5994 105e 1B       		.uleb128 0x1b
 5995 105f DB000000 		.4byte	.LASF130
 5996 1063 01       		.byte	0x1
 5997 1064 9008     		.2byte	0x890
 5998 1066 C2070000 		.4byte	0x7c2
 5999 106a 02       		.uleb128 0x2
 6000 106b 91       		.byte	0x91
 6001 106c 7C       		.sleb128 -4
 6002 106d 00       		.byte	0
 6003 106e 1F       		.uleb128 0x1f
 6004 106f 29080000 		.4byte	.LASF192
 6005 1073 01       		.byte	0x1
 6006 1074 9E08     		.2byte	0x89e
 6007 1076 80170000 		.4byte	.LFB162
 6008 107a 20000000 		.4byte	.LFE162-.LFB162
 6009 107e 01       		.uleb128 0x1
 6010 107f 9C       		.byte	0x9c
 6011 1080 A3100000 		.4byte	0x10a3
 6012 1084 1B       		.uleb128 0x1b
 6013 1085 77060000 		.4byte	.LASF119
 6014 1089 01       		.byte	0x1
 6015 108a 9E08     		.2byte	0x89e
 6016 108c 74040000 		.4byte	0x474
 6017 1090 02       		.uleb128 0x2
 6018 1091 91       		.byte	0x91
 6019 1092 6C       		.sleb128 -20
 6020 1093 1D       		.uleb128 0x1d
 6021 1094 DB000000 		.4byte	.LASF130
 6022 1098 01       		.byte	0x1
 6023 1099 A008     		.2byte	0x8a0
 6024 109b C2070000 		.4byte	0x7c2
 6025 109f 02       		.uleb128 0x2
ARM GAS  /tmp/ccUiHCLc.s 			page 107


 6026 10a0 91       		.byte	0x91
 6027 10a1 74       		.sleb128 -12
 6028 10a2 00       		.byte	0
 6029 10a3 20       		.uleb128 0x20
 6030 10a4 31050000 		.4byte	.LASF199
 6031 10a8 01       		.byte	0x1
 6032 10a9 B308     		.2byte	0x8b3
 6033 10ab A0170000 		.4byte	.LFB163
 6034 10af 3A000000 		.4byte	.LFE163-.LFB163
 6035 10b3 01       		.uleb128 0x1
 6036 10b4 9C       		.byte	0x9c
 6037 10b5 F6100000 		.4byte	0x10f6
 6038 10b9 1B       		.uleb128 0x1b
 6039 10ba AC050000 		.4byte	.LASF193
 6040 10be 01       		.byte	0x1
 6041 10bf B308     		.2byte	0x8b3
 6042 10c1 DB060000 		.4byte	0x6db
 6043 10c5 02       		.uleb128 0x2
 6044 10c6 91       		.byte	0x91
 6045 10c7 74       		.sleb128 -12
 6046 10c8 1B       		.uleb128 0x1b
 6047 10c9 6E080000 		.4byte	.LASF118
 6048 10cd 01       		.byte	0x1
 6049 10ce B308     		.2byte	0x8b3
 6050 10d0 A2000000 		.4byte	0xa2
 6051 10d4 02       		.uleb128 0x2
 6052 10d5 91       		.byte	0x91
 6053 10d6 70       		.sleb128 -16
 6054 10d7 1B       		.uleb128 0x1b
 6055 10d8 91070000 		.4byte	.LASF194
 6056 10dc 01       		.byte	0x1
 6057 10dd B308     		.2byte	0x8b3
 6058 10df A2000000 		.4byte	0xa2
 6059 10e3 02       		.uleb128 0x2
 6060 10e4 91       		.byte	0x91
 6061 10e5 6C       		.sleb128 -20
 6062 10e6 21       		.uleb128 0x21
 6063 10e7 746D7000 		.ascii	"tmp\000"
 6064 10eb 01       		.byte	0x1
 6065 10ec B508     		.2byte	0x8b5
 6066 10ee A2000000 		.4byte	0xa2
 6067 10f2 02       		.uleb128 0x2
 6068 10f3 91       		.byte	0x91
 6069 10f4 7C       		.sleb128 -4
 6070 10f5 00       		.byte	0
 6071 10f6 22       		.uleb128 0x22
 6072 10f7 B0080000 		.4byte	.LASF200
 6073 10fb 0A       		.byte	0xa
 6074 10fc FA06     		.2byte	0x6fa
 6075 10fe 02110000 		.4byte	0x1102
 6076 1102 05       		.uleb128 0x5
 6077 1103 97000000 		.4byte	0x97
 6078 1107 00       		.byte	0
 6079              		.section	.debug_abbrev,"",%progbits
 6080              	.Ldebug_abbrev0:
 6081 0000 01       		.uleb128 0x1
 6082 0001 11       		.uleb128 0x11
ARM GAS  /tmp/ccUiHCLc.s 			page 108


 6083 0002 01       		.byte	0x1
 6084 0003 25       		.uleb128 0x25
 6085 0004 0E       		.uleb128 0xe
 6086 0005 13       		.uleb128 0x13
 6087 0006 0B       		.uleb128 0xb
 6088 0007 03       		.uleb128 0x3
 6089 0008 0E       		.uleb128 0xe
 6090 0009 1B       		.uleb128 0x1b
 6091 000a 0E       		.uleb128 0xe
 6092 000b 11       		.uleb128 0x11
 6093 000c 01       		.uleb128 0x1
 6094 000d 12       		.uleb128 0x12
 6095 000e 06       		.uleb128 0x6
 6096 000f 10       		.uleb128 0x10
 6097 0010 17       		.uleb128 0x17
 6098 0011 00       		.byte	0
 6099 0012 00       		.byte	0
 6100 0013 02       		.uleb128 0x2
 6101 0014 24       		.uleb128 0x24
 6102 0015 00       		.byte	0
 6103 0016 0B       		.uleb128 0xb
 6104 0017 0B       		.uleb128 0xb
 6105 0018 3E       		.uleb128 0x3e
 6106 0019 0B       		.uleb128 0xb
 6107 001a 03       		.uleb128 0x3
 6108 001b 0E       		.uleb128 0xe
 6109 001c 00       		.byte	0
 6110 001d 00       		.byte	0
 6111 001e 03       		.uleb128 0x3
 6112 001f 16       		.uleb128 0x16
 6113 0020 00       		.byte	0
 6114 0021 03       		.uleb128 0x3
 6115 0022 0E       		.uleb128 0xe
 6116 0023 3A       		.uleb128 0x3a
 6117 0024 0B       		.uleb128 0xb
 6118 0025 3B       		.uleb128 0x3b
 6119 0026 0B       		.uleb128 0xb
 6120 0027 49       		.uleb128 0x49
 6121 0028 13       		.uleb128 0x13
 6122 0029 00       		.byte	0
 6123 002a 00       		.byte	0
 6124 002b 04       		.uleb128 0x4
 6125 002c 24       		.uleb128 0x24
 6126 002d 00       		.byte	0
 6127 002e 0B       		.uleb128 0xb
 6128 002f 0B       		.uleb128 0xb
 6129 0030 3E       		.uleb128 0x3e
 6130 0031 0B       		.uleb128 0xb
 6131 0032 03       		.uleb128 0x3
 6132 0033 08       		.uleb128 0x8
 6133 0034 00       		.byte	0
 6134 0035 00       		.byte	0
 6135 0036 05       		.uleb128 0x5
 6136 0037 35       		.uleb128 0x35
 6137 0038 00       		.byte	0
 6138 0039 49       		.uleb128 0x49
 6139 003a 13       		.uleb128 0x13
ARM GAS  /tmp/ccUiHCLc.s 			page 109


 6140 003b 00       		.byte	0
 6141 003c 00       		.byte	0
 6142 003d 06       		.uleb128 0x6
 6143 003e 13       		.uleb128 0x13
 6144 003f 01       		.byte	0x1
 6145 0040 0B       		.uleb128 0xb
 6146 0041 0B       		.uleb128 0xb
 6147 0042 3A       		.uleb128 0x3a
 6148 0043 0B       		.uleb128 0xb
 6149 0044 3B       		.uleb128 0x3b
 6150 0045 05       		.uleb128 0x5
 6151 0046 01       		.uleb128 0x1
 6152 0047 13       		.uleb128 0x13
 6153 0048 00       		.byte	0
 6154 0049 00       		.byte	0
 6155 004a 07       		.uleb128 0x7
 6156 004b 0D       		.uleb128 0xd
 6157 004c 00       		.byte	0
 6158 004d 03       		.uleb128 0x3
 6159 004e 08       		.uleb128 0x8
 6160 004f 3A       		.uleb128 0x3a
 6161 0050 0B       		.uleb128 0xb
 6162 0051 3B       		.uleb128 0x3b
 6163 0052 05       		.uleb128 0x5
 6164 0053 49       		.uleb128 0x49
 6165 0054 13       		.uleb128 0x13
 6166 0055 38       		.uleb128 0x38
 6167 0056 0B       		.uleb128 0xb
 6168 0057 00       		.byte	0
 6169 0058 00       		.byte	0
 6170 0059 08       		.uleb128 0x8
 6171 005a 0D       		.uleb128 0xd
 6172 005b 00       		.byte	0
 6173 005c 03       		.uleb128 0x3
 6174 005d 0E       		.uleb128 0xe
 6175 005e 3A       		.uleb128 0x3a
 6176 005f 0B       		.uleb128 0xb
 6177 0060 3B       		.uleb128 0x3b
 6178 0061 05       		.uleb128 0x5
 6179 0062 49       		.uleb128 0x49
 6180 0063 13       		.uleb128 0x13
 6181 0064 38       		.uleb128 0x38
 6182 0065 0B       		.uleb128 0xb
 6183 0066 00       		.byte	0
 6184 0067 00       		.byte	0
 6185 0068 09       		.uleb128 0x9
 6186 0069 16       		.uleb128 0x16
 6187 006a 00       		.byte	0
 6188 006b 03       		.uleb128 0x3
 6189 006c 0E       		.uleb128 0xe
 6190 006d 3A       		.uleb128 0x3a
 6191 006e 0B       		.uleb128 0xb
 6192 006f 3B       		.uleb128 0x3b
 6193 0070 05       		.uleb128 0x5
 6194 0071 49       		.uleb128 0x49
 6195 0072 13       		.uleb128 0x13
 6196 0073 00       		.byte	0
ARM GAS  /tmp/ccUiHCLc.s 			page 110


 6197 0074 00       		.byte	0
 6198 0075 0A       		.uleb128 0xa
 6199 0076 04       		.uleb128 0x4
 6200 0077 01       		.byte	0x1
 6201 0078 0B       		.uleb128 0xb
 6202 0079 0B       		.uleb128 0xb
 6203 007a 3A       		.uleb128 0x3a
 6204 007b 0B       		.uleb128 0xb
 6205 007c 3B       		.uleb128 0x3b
 6206 007d 0B       		.uleb128 0xb
 6207 007e 01       		.uleb128 0x1
 6208 007f 13       		.uleb128 0x13
 6209 0080 00       		.byte	0
 6210 0081 00       		.byte	0
 6211 0082 0B       		.uleb128 0xb
 6212 0083 28       		.uleb128 0x28
 6213 0084 00       		.byte	0
 6214 0085 03       		.uleb128 0x3
 6215 0086 0E       		.uleb128 0xe
 6216 0087 1C       		.uleb128 0x1c
 6217 0088 0D       		.uleb128 0xd
 6218 0089 00       		.byte	0
 6219 008a 00       		.byte	0
 6220 008b 0C       		.uleb128 0xc
 6221 008c 28       		.uleb128 0x28
 6222 008d 00       		.byte	0
 6223 008e 03       		.uleb128 0x3
 6224 008f 08       		.uleb128 0x8
 6225 0090 1C       		.uleb128 0x1c
 6226 0091 0D       		.uleb128 0xd
 6227 0092 00       		.byte	0
 6228 0093 00       		.byte	0
 6229 0094 0D       		.uleb128 0xd
 6230 0095 0F       		.uleb128 0xf
 6231 0096 00       		.byte	0
 6232 0097 0B       		.uleb128 0xb
 6233 0098 0B       		.uleb128 0xb
 6234 0099 00       		.byte	0
 6235 009a 00       		.byte	0
 6236 009b 0E       		.uleb128 0xe
 6237 009c 13       		.uleb128 0x13
 6238 009d 01       		.byte	0x1
 6239 009e 0B       		.uleb128 0xb
 6240 009f 0B       		.uleb128 0xb
 6241 00a0 3A       		.uleb128 0x3a
 6242 00a1 0B       		.uleb128 0xb
 6243 00a2 3B       		.uleb128 0x3b
 6244 00a3 0B       		.uleb128 0xb
 6245 00a4 01       		.uleb128 0x1
 6246 00a5 13       		.uleb128 0x13
 6247 00a6 00       		.byte	0
 6248 00a7 00       		.byte	0
 6249 00a8 0F       		.uleb128 0xf
 6250 00a9 0D       		.uleb128 0xd
 6251 00aa 00       		.byte	0
 6252 00ab 03       		.uleb128 0x3
 6253 00ac 0E       		.uleb128 0xe
ARM GAS  /tmp/ccUiHCLc.s 			page 111


 6254 00ad 3A       		.uleb128 0x3a
 6255 00ae 0B       		.uleb128 0xb
 6256 00af 3B       		.uleb128 0x3b
 6257 00b0 0B       		.uleb128 0xb
 6258 00b1 49       		.uleb128 0x49
 6259 00b2 13       		.uleb128 0x13
 6260 00b3 38       		.uleb128 0x38
 6261 00b4 0B       		.uleb128 0xb
 6262 00b5 00       		.byte	0
 6263 00b6 00       		.byte	0
 6264 00b7 10       		.uleb128 0x10
 6265 00b8 13       		.uleb128 0x13
 6266 00b9 01       		.byte	0x1
 6267 00ba 03       		.uleb128 0x3
 6268 00bb 0E       		.uleb128 0xe
 6269 00bc 0B       		.uleb128 0xb
 6270 00bd 0B       		.uleb128 0xb
 6271 00be 3A       		.uleb128 0x3a
 6272 00bf 0B       		.uleb128 0xb
 6273 00c0 3B       		.uleb128 0x3b
 6274 00c1 0B       		.uleb128 0xb
 6275 00c2 01       		.uleb128 0x1
 6276 00c3 13       		.uleb128 0x13
 6277 00c4 00       		.byte	0
 6278 00c5 00       		.byte	0
 6279 00c6 11       		.uleb128 0x11
 6280 00c7 0F       		.uleb128 0xf
 6281 00c8 00       		.byte	0
 6282 00c9 0B       		.uleb128 0xb
 6283 00ca 0B       		.uleb128 0xb
 6284 00cb 49       		.uleb128 0x49
 6285 00cc 13       		.uleb128 0x13
 6286 00cd 00       		.byte	0
 6287 00ce 00       		.byte	0
 6288 00cf 12       		.uleb128 0x12
 6289 00d0 15       		.uleb128 0x15
 6290 00d1 01       		.byte	0x1
 6291 00d2 27       		.uleb128 0x27
 6292 00d3 19       		.uleb128 0x19
 6293 00d4 01       		.uleb128 0x1
 6294 00d5 13       		.uleb128 0x13
 6295 00d6 00       		.byte	0
 6296 00d7 00       		.byte	0
 6297 00d8 13       		.uleb128 0x13
 6298 00d9 05       		.uleb128 0x5
 6299 00da 00       		.byte	0
 6300 00db 49       		.uleb128 0x49
 6301 00dc 13       		.uleb128 0x13
 6302 00dd 00       		.byte	0
 6303 00de 00       		.byte	0
 6304 00df 14       		.uleb128 0x14
 6305 00e0 04       		.uleb128 0x4
 6306 00e1 01       		.byte	0x1
 6307 00e2 0B       		.uleb128 0xb
 6308 00e3 0B       		.uleb128 0xb
 6309 00e4 3A       		.uleb128 0x3a
 6310 00e5 0B       		.uleb128 0xb
ARM GAS  /tmp/ccUiHCLc.s 			page 112


 6311 00e6 3B       		.uleb128 0x3b
 6312 00e7 05       		.uleb128 0x5
 6313 00e8 01       		.uleb128 0x1
 6314 00e9 13       		.uleb128 0x13
 6315 00ea 00       		.byte	0
 6316 00eb 00       		.byte	0
 6317 00ec 15       		.uleb128 0x15
 6318 00ed 01       		.uleb128 0x1
 6319 00ee 01       		.byte	0x1
 6320 00ef 49       		.uleb128 0x49
 6321 00f0 13       		.uleb128 0x13
 6322 00f1 01       		.uleb128 0x1
 6323 00f2 13       		.uleb128 0x13
 6324 00f3 00       		.byte	0
 6325 00f4 00       		.byte	0
 6326 00f5 16       		.uleb128 0x16
 6327 00f6 21       		.uleb128 0x21
 6328 00f7 00       		.byte	0
 6329 00f8 49       		.uleb128 0x49
 6330 00f9 13       		.uleb128 0x13
 6331 00fa 2F       		.uleb128 0x2f
 6332 00fb 0B       		.uleb128 0xb
 6333 00fc 00       		.byte	0
 6334 00fd 00       		.byte	0
 6335 00fe 17       		.uleb128 0x17
 6336 00ff 2E       		.uleb128 0x2e
 6337 0100 01       		.byte	0x1
 6338 0101 3F       		.uleb128 0x3f
 6339 0102 19       		.uleb128 0x19
 6340 0103 03       		.uleb128 0x3
 6341 0104 0E       		.uleb128 0xe
 6342 0105 3A       		.uleb128 0x3a
 6343 0106 0B       		.uleb128 0xb
 6344 0107 3B       		.uleb128 0x3b
 6345 0108 0B       		.uleb128 0xb
 6346 0109 27       		.uleb128 0x27
 6347 010a 19       		.uleb128 0x19
 6348 010b 49       		.uleb128 0x49
 6349 010c 13       		.uleb128 0x13
 6350 010d 11       		.uleb128 0x11
 6351 010e 01       		.uleb128 0x1
 6352 010f 12       		.uleb128 0x12
 6353 0110 06       		.uleb128 0x6
 6354 0111 40       		.uleb128 0x40
 6355 0112 18       		.uleb128 0x18
 6356 0113 9642     		.uleb128 0x2116
 6357 0115 19       		.uleb128 0x19
 6358 0116 01       		.uleb128 0x1
 6359 0117 13       		.uleb128 0x13
 6360 0118 00       		.byte	0
 6361 0119 00       		.byte	0
 6362 011a 18       		.uleb128 0x18
 6363 011b 05       		.uleb128 0x5
 6364 011c 00       		.byte	0
 6365 011d 03       		.uleb128 0x3
 6366 011e 0E       		.uleb128 0xe
 6367 011f 3A       		.uleb128 0x3a
ARM GAS  /tmp/ccUiHCLc.s 			page 113


 6368 0120 0B       		.uleb128 0xb
 6369 0121 3B       		.uleb128 0x3b
 6370 0122 0B       		.uleb128 0xb
 6371 0123 49       		.uleb128 0x49
 6372 0124 13       		.uleb128 0x13
 6373 0125 02       		.uleb128 0x2
 6374 0126 18       		.uleb128 0x18
 6375 0127 00       		.byte	0
 6376 0128 00       		.byte	0
 6377 0129 19       		.uleb128 0x19
 6378 012a 34       		.uleb128 0x34
 6379 012b 00       		.byte	0
 6380 012c 03       		.uleb128 0x3
 6381 012d 0E       		.uleb128 0xe
 6382 012e 3A       		.uleb128 0x3a
 6383 012f 0B       		.uleb128 0xb
 6384 0130 3B       		.uleb128 0x3b
 6385 0131 0B       		.uleb128 0xb
 6386 0132 49       		.uleb128 0x49
 6387 0133 13       		.uleb128 0x13
 6388 0134 02       		.uleb128 0x2
 6389 0135 18       		.uleb128 0x18
 6390 0136 00       		.byte	0
 6391 0137 00       		.byte	0
 6392 0138 1A       		.uleb128 0x1a
 6393 0139 2E       		.uleb128 0x2e
 6394 013a 01       		.byte	0x1
 6395 013b 3F       		.uleb128 0x3f
 6396 013c 19       		.uleb128 0x19
 6397 013d 03       		.uleb128 0x3
 6398 013e 0E       		.uleb128 0xe
 6399 013f 3A       		.uleb128 0x3a
 6400 0140 0B       		.uleb128 0xb
 6401 0141 3B       		.uleb128 0x3b
 6402 0142 05       		.uleb128 0x5
 6403 0143 27       		.uleb128 0x27
 6404 0144 19       		.uleb128 0x19
 6405 0145 11       		.uleb128 0x11
 6406 0146 01       		.uleb128 0x1
 6407 0147 12       		.uleb128 0x12
 6408 0148 06       		.uleb128 0x6
 6409 0149 40       		.uleb128 0x40
 6410 014a 18       		.uleb128 0x18
 6411 014b 9742     		.uleb128 0x2117
 6412 014d 19       		.uleb128 0x19
 6413 014e 01       		.uleb128 0x1
 6414 014f 13       		.uleb128 0x13
 6415 0150 00       		.byte	0
 6416 0151 00       		.byte	0
 6417 0152 1B       		.uleb128 0x1b
 6418 0153 05       		.uleb128 0x5
 6419 0154 00       		.byte	0
 6420 0155 03       		.uleb128 0x3
 6421 0156 0E       		.uleb128 0xe
 6422 0157 3A       		.uleb128 0x3a
 6423 0158 0B       		.uleb128 0xb
 6424 0159 3B       		.uleb128 0x3b
ARM GAS  /tmp/ccUiHCLc.s 			page 114


 6425 015a 05       		.uleb128 0x5
 6426 015b 49       		.uleb128 0x49
 6427 015c 13       		.uleb128 0x13
 6428 015d 02       		.uleb128 0x2
 6429 015e 18       		.uleb128 0x18
 6430 015f 00       		.byte	0
 6431 0160 00       		.byte	0
 6432 0161 1C       		.uleb128 0x1c
 6433 0162 2E       		.uleb128 0x2e
 6434 0163 01       		.byte	0x1
 6435 0164 3F       		.uleb128 0x3f
 6436 0165 19       		.uleb128 0x19
 6437 0166 03       		.uleb128 0x3
 6438 0167 0E       		.uleb128 0xe
 6439 0168 3A       		.uleb128 0x3a
 6440 0169 0B       		.uleb128 0xb
 6441 016a 3B       		.uleb128 0x3b
 6442 016b 05       		.uleb128 0x5
 6443 016c 27       		.uleb128 0x27
 6444 016d 19       		.uleb128 0x19
 6445 016e 49       		.uleb128 0x49
 6446 016f 13       		.uleb128 0x13
 6447 0170 11       		.uleb128 0x11
 6448 0171 01       		.uleb128 0x1
 6449 0172 12       		.uleb128 0x12
 6450 0173 06       		.uleb128 0x6
 6451 0174 40       		.uleb128 0x40
 6452 0175 18       		.uleb128 0x18
 6453 0176 9642     		.uleb128 0x2116
 6454 0178 19       		.uleb128 0x19
 6455 0179 01       		.uleb128 0x1
 6456 017a 13       		.uleb128 0x13
 6457 017b 00       		.byte	0
 6458 017c 00       		.byte	0
 6459 017d 1D       		.uleb128 0x1d
 6460 017e 34       		.uleb128 0x34
 6461 017f 00       		.byte	0
 6462 0180 03       		.uleb128 0x3
 6463 0181 0E       		.uleb128 0xe
 6464 0182 3A       		.uleb128 0x3a
 6465 0183 0B       		.uleb128 0xb
 6466 0184 3B       		.uleb128 0x3b
 6467 0185 05       		.uleb128 0x5
 6468 0186 49       		.uleb128 0x49
 6469 0187 13       		.uleb128 0x13
 6470 0188 02       		.uleb128 0x2
 6471 0189 18       		.uleb128 0x18
 6472 018a 00       		.byte	0
 6473 018b 00       		.byte	0
 6474 018c 1E       		.uleb128 0x1e
 6475 018d 2E       		.uleb128 0x2e
 6476 018e 01       		.byte	0x1
 6477 018f 3F       		.uleb128 0x3f
 6478 0190 19       		.uleb128 0x19
 6479 0191 03       		.uleb128 0x3
 6480 0192 0E       		.uleb128 0xe
 6481 0193 3A       		.uleb128 0x3a
ARM GAS  /tmp/ccUiHCLc.s 			page 115


 6482 0194 0B       		.uleb128 0xb
 6483 0195 3B       		.uleb128 0x3b
 6484 0196 05       		.uleb128 0x5
 6485 0197 27       		.uleb128 0x27
 6486 0198 19       		.uleb128 0x19
 6487 0199 49       		.uleb128 0x49
 6488 019a 13       		.uleb128 0x13
 6489 019b 11       		.uleb128 0x11
 6490 019c 01       		.uleb128 0x1
 6491 019d 12       		.uleb128 0x12
 6492 019e 06       		.uleb128 0x6
 6493 019f 40       		.uleb128 0x40
 6494 01a0 18       		.uleb128 0x18
 6495 01a1 9742     		.uleb128 0x2117
 6496 01a3 19       		.uleb128 0x19
 6497 01a4 01       		.uleb128 0x1
 6498 01a5 13       		.uleb128 0x13
 6499 01a6 00       		.byte	0
 6500 01a7 00       		.byte	0
 6501 01a8 1F       		.uleb128 0x1f
 6502 01a9 2E       		.uleb128 0x2e
 6503 01aa 01       		.byte	0x1
 6504 01ab 3F       		.uleb128 0x3f
 6505 01ac 19       		.uleb128 0x19
 6506 01ad 03       		.uleb128 0x3
 6507 01ae 0E       		.uleb128 0xe
 6508 01af 3A       		.uleb128 0x3a
 6509 01b0 0B       		.uleb128 0xb
 6510 01b1 3B       		.uleb128 0x3b
 6511 01b2 05       		.uleb128 0x5
 6512 01b3 27       		.uleb128 0x27
 6513 01b4 19       		.uleb128 0x19
 6514 01b5 11       		.uleb128 0x11
 6515 01b6 01       		.uleb128 0x1
 6516 01b7 12       		.uleb128 0x12
 6517 01b8 06       		.uleb128 0x6
 6518 01b9 40       		.uleb128 0x40
 6519 01ba 18       		.uleb128 0x18
 6520 01bb 9642     		.uleb128 0x2116
 6521 01bd 19       		.uleb128 0x19
 6522 01be 01       		.uleb128 0x1
 6523 01bf 13       		.uleb128 0x13
 6524 01c0 00       		.byte	0
 6525 01c1 00       		.byte	0
 6526 01c2 20       		.uleb128 0x20
 6527 01c3 2E       		.uleb128 0x2e
 6528 01c4 01       		.byte	0x1
 6529 01c5 03       		.uleb128 0x3
 6530 01c6 0E       		.uleb128 0xe
 6531 01c7 3A       		.uleb128 0x3a
 6532 01c8 0B       		.uleb128 0xb
 6533 01c9 3B       		.uleb128 0x3b
 6534 01ca 05       		.uleb128 0x5
 6535 01cb 27       		.uleb128 0x27
 6536 01cc 19       		.uleb128 0x19
 6537 01cd 11       		.uleb128 0x11
 6538 01ce 01       		.uleb128 0x1
ARM GAS  /tmp/ccUiHCLc.s 			page 116


 6539 01cf 12       		.uleb128 0x12
 6540 01d0 06       		.uleb128 0x6
 6541 01d1 40       		.uleb128 0x40
 6542 01d2 18       		.uleb128 0x18
 6543 01d3 9742     		.uleb128 0x2117
 6544 01d5 19       		.uleb128 0x19
 6545 01d6 01       		.uleb128 0x1
 6546 01d7 13       		.uleb128 0x13
 6547 01d8 00       		.byte	0
 6548 01d9 00       		.byte	0
 6549 01da 21       		.uleb128 0x21
 6550 01db 34       		.uleb128 0x34
 6551 01dc 00       		.byte	0
 6552 01dd 03       		.uleb128 0x3
 6553 01de 08       		.uleb128 0x8
 6554 01df 3A       		.uleb128 0x3a
 6555 01e0 0B       		.uleb128 0xb
 6556 01e1 3B       		.uleb128 0x3b
 6557 01e2 05       		.uleb128 0x5
 6558 01e3 49       		.uleb128 0x49
 6559 01e4 13       		.uleb128 0x13
 6560 01e5 02       		.uleb128 0x2
 6561 01e6 18       		.uleb128 0x18
 6562 01e7 00       		.byte	0
 6563 01e8 00       		.byte	0
 6564 01e9 22       		.uleb128 0x22
 6565 01ea 34       		.uleb128 0x34
 6566 01eb 00       		.byte	0
 6567 01ec 03       		.uleb128 0x3
 6568 01ed 0E       		.uleb128 0xe
 6569 01ee 3A       		.uleb128 0x3a
 6570 01ef 0B       		.uleb128 0xb
 6571 01f0 3B       		.uleb128 0x3b
 6572 01f1 05       		.uleb128 0x5
 6573 01f2 49       		.uleb128 0x49
 6574 01f3 13       		.uleb128 0x13
 6575 01f4 3F       		.uleb128 0x3f
 6576 01f5 19       		.uleb128 0x19
 6577 01f6 3C       		.uleb128 0x3c
 6578 01f7 19       		.uleb128 0x19
 6579 01f8 00       		.byte	0
 6580 01f9 00       		.byte	0
 6581 01fa 00       		.byte	0
 6582              		.section	.debug_aranges,"",%progbits
 6583 0000 1C000000 		.4byte	0x1c
 6584 0004 0200     		.2byte	0x2
 6585 0006 00000000 		.4byte	.Ldebug_info0
 6586 000a 04       		.byte	0x4
 6587 000b 00       		.byte	0
 6588 000c 0000     		.2byte	0
 6589 000e 0000     		.2byte	0
 6590 0010 00000000 		.4byte	.Ltext0
 6591 0014 DA170000 		.4byte	.Letext0-.Ltext0
 6592 0018 00000000 		.4byte	0
 6593 001c 00000000 		.4byte	0
 6594              		.section	.debug_line,"",%progbits
 6595              	.Ldebug_line0:
ARM GAS  /tmp/ccUiHCLc.s 			page 117


 6596 0000 2E060000 		.section	.debug_str,"MS",%progbits,1
 6596      02007902 
 6596      00000201 
 6596      FB0E0D00 
 6596      01010101 
 6597              	.LASF133:
 6598 0000 48414C5F 		.ascii	"HAL_TIMEx_HallSensor_DeInit\000"
 6598      54494D45 
 6598      785F4861 
 6598      6C6C5365 
 6598      6E736F72 
 6599              	.LASF154:
 6600 001c 48414C5F 		.ascii	"HAL_TIMEx_PWMN_Start_IT\000"
 6600      54494D45 
 6600      785F5057 
 6600      4D4E5F53 
 6600      74617274 
 6601              	.LASF23:
 6602 0034 44494552 		.ascii	"DIER\000"
 6602      00
 6603              	.LASF164:
 6604 0039 496E7075 		.ascii	"InputTrigger\000"
 6604      74547269 
 6604      67676572 
 6604      00
 6605              	.LASF55:
 6606 0046 444D415F 		.ascii	"DMA_InitTypeDef\000"
 6606      496E6974 
 6606      54797065 
 6606      44656600 
 6607              	.LASF196:
 6608 0056 2E2E2F2E 		.ascii	"../../../../../Drivers/STM32L4xx_HAL_Driver/Src/stm"
 6608      2E2F2E2E 
 6608      2F2E2E2F 
 6608      2E2E2F44 
 6608      72697665 
 6609 0089 33326C34 		.ascii	"32l4xx_hal_tim_ex.c\000"
 6609      78785F68 
 6609      616C5F74 
 6609      696D5F65 
 6609      782E6300 
 6610              	.LASF89:
 6611 009d 4D617374 		.ascii	"MasterOutputTrigger2\000"
 6611      65724F75 
 6611      74707574 
 6611      54726967 
 6611      67657232 
 6612              	.LASF41:
 6613 00b2 48414C5F 		.ascii	"HAL_BUSY\000"
 6613      42555359 
 6613      00
 6614              	.LASF33:
 6615 00bb 43434D52 		.ascii	"CCMR3\000"
 6615      3300
 6616              	.LASF36:
 6617 00c1 54494D5F 		.ascii	"TIM_TypeDef\000"
 6617      54797065 
ARM GAS  /tmp/ccUiHCLc.s 			page 118


 6617      44656600 
 6618              	.LASF159:
 6619 00cd 4F757470 		.ascii	"OutputChannel\000"
 6619      75744368 
 6619      616E6E65 
 6619      6C00
 6620              	.LASF130:
 6621 00db 6874696D 		.ascii	"htim\000"
 6621      00
 6622              	.LASF27:
 6623 00e0 43435231 		.ascii	"CCR1\000"
 6623      00
 6624              	.LASF28:
 6625 00e5 43435232 		.ascii	"CCR2\000"
 6625      00
 6626              	.LASF147:
 6627 00ea 48414C5F 		.ascii	"HAL_TIMEx_OCN_Stop_IT\000"
 6627      54494D45 
 6627      785F4F43 
 6627      4E5F5374 
 6627      6F705F49 
 6628              	.LASF45:
 6629 0100 48414C5F 		.ascii	"HAL_LOCKED\000"
 6629      4C4F434B 
 6629      454400
 6630              	.LASF134:
 6631 010b 48414C5F 		.ascii	"HAL_TIMEx_HallSensor_MspInit\000"
 6631      54494D45 
 6631      785F4861 
 6631      6C6C5365 
 6631      6E736F72 
 6632              	.LASF35:
 6633 0128 43435236 		.ascii	"CCR6\000"
 6633      00
 6634              	.LASF129:
 6635 012d 54494D45 		.ascii	"TIMEx_BreakInputConfigTypeDef\000"
 6635      785F4272 
 6635      65616B49 
 6635      6E707574 
 6635      436F6E66 
 6636              	.LASF99:
 6637 014b 42726561 		.ascii	"Break2State\000"
 6637      6B325374 
 6637      61746500 
 6638              	.LASF56:
 6639 0157 48414C5F 		.ascii	"HAL_DMA_STATE_RESET\000"
 6639      444D415F 
 6639      53544154 
 6639      455F5245 
 6639      53455400 
 6640              	.LASF145:
 6641 016b 48414C5F 		.ascii	"HAL_TIMEx_OCN_Stop\000"
 6641      54494D45 
 6641      785F4F43 
 6641      4E5F5374 
 6641      6F7000
 6642              	.LASF31:
ARM GAS  /tmp/ccUiHCLc.s 			page 119


 6643 017e 42445452 		.ascii	"BDTR\000"
 6643      00
 6644              	.LASF151:
 6645 0183 48414C5F 		.ascii	"HAL_TIMEx_OCN_Stop_DMA\000"
 6645      54494D45 
 6645      785F4F43 
 6645      4E5F5374 
 6645      6F705F44 
 6646              	.LASF24:
 6647 019a 43434D52 		.ascii	"CCMR1\000"
 6647      3100
 6648              	.LASF25:
 6649 01a0 43434D52 		.ascii	"CCMR2\000"
 6649      3200
 6650              	.LASF184:
 6651 01a6 52656D61 		.ascii	"Remap\000"
 6651      7000
 6652              	.LASF0:
 6653 01ac 7369676E 		.ascii	"signed char\000"
 6653      65642063 
 6653      68617200 
 6654              	.LASF90:
 6655 01b8 4D617374 		.ascii	"MasterSlaveMode\000"
 6655      6572536C 
 6655      6176654D 
 6655      6F646500 
 6656              	.LASF155:
 6657 01c8 48414C5F 		.ascii	"HAL_TIMEx_PWMN_Stop_IT\000"
 6657      54494D45 
 6657      785F5057 
 6657      4D4E5F53 
 6657      746F705F 
 6658              	.LASF76:
 6659 01df 50657269 		.ascii	"Period\000"
 6659      6F6400
 6660              	.LASF10:
 6661 01e6 6C6F6E67 		.ascii	"long long unsigned int\000"
 6661      206C6F6E 
 6661      6720756E 
 6661      7369676E 
 6661      65642069 
 6662              	.LASF197:
 6663 01fd 2F752F65 		.ascii	"/u/elawton2/p442-submissions/sensortile/reference/b"
 6663      6C617774 
 6663      6F6E322F 
 6663      70343432 
 6663      2D737562 
 6664 0230 6C75656D 		.ascii	"luemicrosystem2/BlueMicrosystem2_V2.2.0/Projects/Mu"
 6664      6963726F 
 6664      73797374 
 6664      656D322F 
 6664      426C7565 
 6665 0263 6C74692F 		.ascii	"lti/Applications/BlueMicrosystem2/bluechibi\000"
 6665      4170706C 
 6665      69636174 
 6665      696F6E73 
 6665      2F426C75 
ARM GAS  /tmp/ccUiHCLc.s 			page 120


 6666              	.LASF182:
 6667 028f 626B696E 		.ascii	"bkin_polarity_bitpos\000"
 6667      5F706F6C 
 6667      61726974 
 6667      795F6269 
 6667      74706F73 
 6668              	.LASF117:
 6669 02a4 48414C5F 		.ascii	"HAL_TIM_ActiveChannel\000"
 6669      54494D5F 
 6669      41637469 
 6669      76654368 
 6669      616E6E65 
 6670              	.LASF167:
 6671 02ba 48414C5F 		.ascii	"HAL_TIMEx_ConfigCommutationEvent_DMA\000"
 6671      54494D45 
 6671      785F436F 
 6671      6E666967 
 6671      436F6D6D 
 6672              	.LASF6:
 6673 02df 6C6F6E67 		.ascii	"long int\000"
 6673      20696E74 
 6673      00
 6674              	.LASF163:
 6675 02e8 48414C5F 		.ascii	"HAL_TIMEx_ConfigCommutationEvent\000"
 6675      54494D45 
 6675      785F436F 
 6675      6E666967 
 6675      436F6D6D 
 6676              	.LASF80:
 6677 0309 4F434D6F 		.ascii	"OCMode\000"
 6677      646500
 6678              	.LASF49:
 6679 0310 50657269 		.ascii	"PeriphInc\000"
 6679      7068496E 
 6679      6300
 6680              	.LASF161:
 6681 031a 48414C5F 		.ascii	"HAL_TIMEx_OnePulseN_Start_IT\000"
 6681      54494D45 
 6681      785F4F6E 
 6681      6550756C 
 6681      73654E5F 
 6682              	.LASF123:
 6683 0337 49433146 		.ascii	"IC1Filter\000"
 6683      696C7465 
 6683      7200
 6684              	.LASF156:
 6685 0341 48414C5F 		.ascii	"HAL_TIMEx_PWMN_Start_DMA\000"
 6685      54494D45 
 6685      785F5057 
 6685      4D4E5F53 
 6685      74617274 
 6686              	.LASF128:
 6687 035a 506F6C61 		.ascii	"Polarity\000"
 6687      72697479 
 6687      00
 6688              	.LASF174:
 6689 0363 746D7062 		.ascii	"tmpbdtr\000"
ARM GAS  /tmp/ccUiHCLc.s 			page 121


 6689      64747200 
 6690              	.LASF176:
 6691 036b 42726561 		.ascii	"BreakInput\000"
 6691      6B496E70 
 6691      757400
 6692              	.LASF169:
 6693 0376 734D6173 		.ascii	"sMasterConfig\000"
 6693      74657243 
 6693      6F6E6669 
 6693      6700
 6694              	.LASF67:
 6695 0384 58666572 		.ascii	"XferHalfCpltCallback\000"
 6695      48616C66 
 6695      43706C74 
 6695      43616C6C 
 6695      6261636B 
 6696              	.LASF12:
 6697 0399 75696E74 		.ascii	"uint16_t\000"
 6697      31365F74 
 6697      00
 6698              	.LASF120:
 6699 03a2 54494D5F 		.ascii	"TIM_HandleTypeDef\000"
 6699      48616E64 
 6699      6C655479 
 6699      70654465 
 6699      6600
 6700              	.LASF72:
 6701 03b4 4368616E 		.ascii	"ChannelIndex\000"
 6701      6E656C49 
 6701      6E646578 
 6701      00
 6702              	.LASF65:
 6703 03c1 50617265 		.ascii	"Parent\000"
 6703      6E7400
 6704              	.LASF138:
 6705 03c8 48414C5F 		.ascii	"HAL_TIMEx_HallSensor_Start_IT\000"
 6705      54494D45 
 6705      785F4861 
 6705      6C6C5365 
 6705      6E736F72 
 6706              	.LASF132:
 6707 03e6 48414C5F 		.ascii	"HAL_TIMEx_HallSensor_Init\000"
 6707      54494D45 
 6707      785F4861 
 6707      6C6C5365 
 6707      6E736F72 
 6708              	.LASF141:
 6709 0400 70446174 		.ascii	"pData\000"
 6709      6100
 6710              	.LASF7:
 6711 0406 5F5F7569 		.ascii	"__uint32_t\000"
 6711      6E743332 
 6711      5F7400
 6712              	.LASF53:
 6713 0411 4D6F6465 		.ascii	"Mode\000"
 6713      00
 6714              	.LASF48:
ARM GAS  /tmp/ccUiHCLc.s 			page 122


 6715 0416 44697265 		.ascii	"Direction\000"
 6715      6374696F 
 6715      6E00
 6716              	.LASF109:
 6717 0420 48414C5F 		.ascii	"HAL_TIM_StateTypeDef\000"
 6717      54494D5F 
 6717      53746174 
 6717      65547970 
 6717      65446566 
 6718              	.LASF82:
 6719 0435 4F43506F 		.ascii	"OCPolarity\000"
 6719      6C617269 
 6719      747900
 6720              	.LASF148:
 6721 0440 4F435F43 		.ascii	"OC_Config\000"
 6721      6F6E6669 
 6721      6700
 6722              	.LASF179:
 6723 044a 626B696E 		.ascii	"bkin_enable_mask\000"
 6723      5F656E61 
 6723      626C655F 
 6723      6D61736B 
 6723      00
 6724              	.LASF127:
 6725 045b 456E6162 		.ascii	"Enable\000"
 6725      6C6500
 6726              	.LASF173:
 6727 0462 73427265 		.ascii	"sBreakDeadTimeConfig\000"
 6727      616B4465 
 6727      61645469 
 6727      6D65436F 
 6727      6E666967 
 6728              	.LASF175:
 6729 0477 48414C5F 		.ascii	"HAL_TIMEx_ConfigBreakInput\000"
 6729      54494D45 
 6729      785F436F 
 6729      6E666967 
 6729      42726561 
 6730              	.LASF149:
 6731 0492 746D7063 		.ascii	"tmpccer\000"
 6731      63657200 
 6732              	.LASF21:
 6733 049a 444D415F 		.ascii	"DMA_TypeDef\000"
 6733      54797065 
 6733      44656600 
 6734              	.LASF93:
 6735 04a6 4F666653 		.ascii	"OffStateIDLEMode\000"
 6735      74617465 
 6735      49444C45 
 6735      4D6F6465 
 6735      00
 6736              	.LASF11:
 6737 04b7 756E7369 		.ascii	"unsigned int\000"
 6737      676E6564 
 6737      20696E74 
 6737      00
 6738              	.LASF185:
ARM GAS  /tmp/ccUiHCLc.s 			page 123


 6739 04c4 746D706F 		.ascii	"tmpor1\000"
 6739      723100
 6740              	.LASF186:
 6741 04cb 746D706F 		.ascii	"tmpor2\000"
 6741      723200
 6742              	.LASF15:
 6743 04d2 73697A65 		.ascii	"sizetype\000"
 6743      74797065 
 6743      00
 6744              	.LASF168:
 6745 04db 48414C5F 		.ascii	"HAL_TIMEx_MasterConfigSynchronization\000"
 6745      54494D45 
 6745      785F4D61 
 6745      73746572 
 6745      436F6E66 
 6746              	.LASF17:
 6747 0501 43504152 		.ascii	"CPAR\000"
 6747      00
 6748              	.LASF122:
 6749 0506 49433150 		.ascii	"IC1Prescaler\000"
 6749      72657363 
 6749      616C6572 
 6749      00
 6750              	.LASF172:
 6751 0513 48414C5F 		.ascii	"HAL_TIMEx_ConfigBreakDeadTime\000"
 6751      54494D45 
 6751      785F436F 
 6751      6E666967 
 6751      42726561 
 6752              	.LASF199:
 6753 0531 54494D5F 		.ascii	"TIM_CCxNChannelCmd\000"
 6753      4343784E 
 6753      4368616E 
 6753      6E656C43 
 6753      6D6400
 6754              	.LASF8:
 6755 0544 6C6F6E67 		.ascii	"long unsigned int\000"
 6755      20756E73 
 6755      69676E65 
 6755      6420696E 
 6755      7400
 6756              	.LASF180:
 6757 0556 626B696E 		.ascii	"bkin_polarity_mask\000"
 6757      5F706F6C 
 6757      61726974 
 6757      795F6D61 
 6757      736B00
 6758              	.LASF42:
 6759 0569 48414C5F 		.ascii	"HAL_TIMEOUT\000"
 6759      54494D45 
 6759      4F555400 
 6760              	.LASF39:
 6761 0575 48414C5F 		.ascii	"HAL_OK\000"
 6761      4F4B00
 6762              	.LASF108:
 6763 057c 48414C5F 		.ascii	"HAL_TIM_STATE_ERROR\000"
 6763      54494D5F 
ARM GAS  /tmp/ccUiHCLc.s 			page 124


 6763      53544154 
 6763      455F4552 
 6763      524F5200 
 6764              	.LASF3:
 6765 0590 73686F72 		.ascii	"short unsigned int\000"
 6765      7420756E 
 6765      7369676E 
 6765      65642069 
 6765      6E7400
 6766              	.LASF54:
 6767 05a3 5072696F 		.ascii	"Priority\000"
 6767      72697479 
 6767      00
 6768              	.LASF193:
 6769 05ac 54494D78 		.ascii	"TIMx\000"
 6769      00
 6770              	.LASF96:
 6771 05b1 42726561 		.ascii	"BreakState\000"
 6771      6B537461 
 6771      746500
 6772              	.LASF71:
 6773 05bc 446D6142 		.ascii	"DmaBaseAddress\000"
 6773      61736541 
 6773      64647265 
 6773      737300
 6774              	.LASF70:
 6775 05cb 4572726F 		.ascii	"ErrorCode\000"
 6775      72436F64 
 6775      6500
 6776              	.LASF52:
 6777 05d5 4D656D44 		.ascii	"MemDataAlignment\000"
 6777      61746141 
 6777      6C69676E 
 6777      6D656E74 
 6777      00
 6778              	.LASF102:
 6779 05e6 4175746F 		.ascii	"AutomaticOutput\000"
 6779      6D617469 
 6779      634F7574 
 6779      70757400 
 6780              	.LASF136:
 6781 05f6 48414C5F 		.ascii	"HAL_TIMEx_HallSensor_Start\000"
 6781      54494D45 
 6781      785F4861 
 6781      6C6C5365 
 6781      6E736F72 
 6782              	.LASF43:
 6783 0611 48414C5F 		.ascii	"HAL_StatusTypeDef\000"
 6783      53746174 
 6783      75735479 
 6783      70654465 
 6783      6600
 6784              	.LASF75:
 6785 0623 436F756E 		.ascii	"CounterMode\000"
 6785      7465724D 
 6785      6F646500 
 6786              	.LASF2:
ARM GAS  /tmp/ccUiHCLc.s 			page 125


 6787 062f 73686F72 		.ascii	"short int\000"
 6787      7420696E 
 6787      7400
 6788              	.LASF57:
 6789 0639 48414C5F 		.ascii	"HAL_DMA_STATE_READY\000"
 6789      444D415F 
 6789      53544154 
 6789      455F5245 
 6789      41445900 
 6790              	.LASF83:
 6791 064d 4F434E50 		.ascii	"OCNPolarity\000"
 6791      6F6C6172 
 6791      69747900 
 6792              	.LASF178:
 6793 0659 746D706F 		.ascii	"tmporx\000"
 6793      727800
 6794              	.LASF62:
 6795 0660 496E6974 		.ascii	"Init\000"
 6795      00
 6796              	.LASF177:
 6797 0665 73427265 		.ascii	"sBreakInputConfig\000"
 6797      616B496E 
 6797      70757443 
 6797      6F6E6669 
 6797      6700
 6798              	.LASF119:
 6799 0677 68646D61 		.ascii	"hdma\000"
 6799      00
 6800              	.LASF171:
 6801 067c 746D7073 		.ascii	"tmpsmcr\000"
 6801      6D637200 
 6802              	.LASF106:
 6803 0684 48414C5F 		.ascii	"HAL_TIM_STATE_BUSY\000"
 6803      54494D5F 
 6803      53544154 
 6803      455F4255 
 6803      535900
 6804              	.LASF104:
 6805 0697 48414C5F 		.ascii	"HAL_TIM_STATE_RESET\000"
 6805      54494D5F 
 6805      53544154 
 6805      455F5245 
 6805      53455400 
 6806              	.LASF94:
 6807 06ab 4C6F636B 		.ascii	"LockLevel\000"
 6807      4C657665 
 6807      6C00
 6808              	.LASF86:
 6809 06b5 4F434E49 		.ascii	"OCNIdleState\000"
 6809      646C6553 
 6809      74617465 
 6809      00
 6810              	.LASF162:
 6811 06c2 48414C5F 		.ascii	"HAL_TIMEx_OnePulseN_Stop_IT\000"
 6811      54494D45 
 6811      785F4F6E 
 6811      6550756C 
ARM GAS  /tmp/ccUiHCLc.s 			page 126


 6811      73654E5F 
 6812              	.LASF190:
 6813 06de 48414C5F 		.ascii	"HAL_TIMEx_BreakCallback\000"
 6813      54494D45 
 6813      785F4272 
 6813      65616B43 
 6813      616C6C62 
 6814              	.LASF191:
 6815 06f6 48414C5F 		.ascii	"HAL_TIMEx_HallSensor_GetState\000"
 6815      54494D45 
 6815      785F4861 
 6815      6C6C5365 
 6815      6E736F72 
 6816              	.LASF73:
 6817 0714 444D415F 		.ascii	"DMA_HandleTypeDef\000"
 6817      48616E64 
 6817      6C655479 
 6817      70654465 
 6817      6600
 6818              	.LASF105:
 6819 0726 48414C5F 		.ascii	"HAL_TIM_STATE_READY\000"
 6819      54494D5F 
 6819      53544154 
 6819      455F5245 
 6819      41445900 
 6820              	.LASF68:
 6821 073a 58666572 		.ascii	"XferErrorCallback\000"
 6821      4572726F 
 6821      7243616C 
 6821      6C626163 
 6821      6B00
 6822              	.LASF9:
 6823 074c 6C6F6E67 		.ascii	"long long int\000"
 6823      206C6F6E 
 6823      6720696E 
 6823      7400
 6824              	.LASF78:
 6825 075a 52657065 		.ascii	"RepetitionCounter\000"
 6825      74697469 
 6825      6F6E436F 
 6825      756E7465 
 6825      7200
 6826              	.LASF63:
 6827 076c 4C6F636B 		.ascii	"Lock\000"
 6827      00
 6828              	.LASF153:
 6829 0771 48414C5F 		.ascii	"HAL_TIMEx_PWMN_Stop\000"
 6829      54494D45 
 6829      785F5057 
 6829      4D4E5F53 
 6829      746F7000 
 6830              	.LASF32:
 6831 0785 444D4152 		.ascii	"DMAR\000"
 6831      00
 6832              	.LASF126:
 6833 078a 536F7572 		.ascii	"Source\000"
 6833      636500
ARM GAS  /tmp/ccUiHCLc.s 			page 127


 6834              	.LASF194:
 6835 0791 4368616E 		.ascii	"ChannelNState\000"
 6835      6E656C4E 
 6835      53746174 
 6835      6500
 6836              	.LASF84:
 6837 079f 4F434661 		.ascii	"OCFastMode\000"
 6837      73744D6F 
 6837      646500
 6838              	.LASF135:
 6839 07aa 48414C5F 		.ascii	"HAL_TIMEx_HallSensor_MspDeInit\000"
 6839      54494D45 
 6839      785F4861 
 6839      6C6C5365 
 6839      6E736F72 
 6840              	.LASF19:
 6841 07c9 444D415F 		.ascii	"DMA_Channel_TypeDef\000"
 6841      4368616E 
 6841      6E656C5F 
 6841      54797065 
 6841      44656600 
 6842              	.LASF107:
 6843 07dd 48414C5F 		.ascii	"HAL_TIM_STATE_TIMEOUT\000"
 6843      54494D5F 
 6843      53544154 
 6843      455F5449 
 6843      4D454F55 
 6844              	.LASF188:
 6845 07f3 4368616E 		.ascii	"Channels\000"
 6845      6E656C73 
 6845      00
 6846              	.LASF61:
 6847 07fc 496E7374 		.ascii	"Instance\000"
 6847      616E6365 
 6847      00
 6848              	.LASF189:
 6849 0805 48414C5F 		.ascii	"HAL_TIMEx_CommutationCallback\000"
 6849      54494D45 
 6849      785F436F 
 6849      6D6D7574 
 6849      6174696F 
 6850              	.LASF37:
 6851 0823 52455345 		.ascii	"RESET\000"
 6851      5400
 6852              	.LASF192:
 6853 0829 54494D45 		.ascii	"TIMEx_DMACommutationCplt\000"
 6853      785F444D 
 6853      41436F6D 
 6853      6D757461 
 6853      74696F6E 
 6854              	.LASF144:
 6855 0842 48414C5F 		.ascii	"HAL_TIMEx_OCN_Start\000"
 6855      54494D45 
 6855      785F4F43 
 6855      4E5F5374 
 6855      61727400 
 6856              	.LASF187:
ARM GAS  /tmp/ccUiHCLc.s 			page 128


 6857 0856 48414C5F 		.ascii	"HAL_TIMEx_GroupChannel5\000"
 6857      54494D45 
 6857      785F4772 
 6857      6F757043 
 6857      68616E6E 
 6858              	.LASF118:
 6859 086e 4368616E 		.ascii	"Channel\000"
 6859      6E656C00 
 6860              	.LASF13:
 6861 0876 696E7433 		.ascii	"int32_t\000"
 6861      325F7400 
 6862              	.LASF1:
 6863 087e 756E7369 		.ascii	"unsigned char\000"
 6863      676E6564 
 6863      20636861 
 6863      7200
 6864              	.LASF157:
 6865 088c 48414C5F 		.ascii	"HAL_TIMEx_PWMN_Stop_DMA\000"
 6865      54494D45 
 6865      785F5057 
 6865      4D4E5F53 
 6865      746F705F 
 6866              	.LASF85:
 6867 08a4 4F434964 		.ascii	"OCIdleState\000"
 6867      6C655374 
 6867      61746500 
 6868              	.LASF200:
 6869 08b0 49544D5F 		.ascii	"ITM_RxBuffer\000"
 6869      52784275 
 6869      66666572 
 6869      00
 6870              	.LASF195:
 6871 08bd 474E5520 		.ascii	"GNU C 4.8.4 20140526 (release) [ARM/embedded-4_8-br"
 6871      4320342E 
 6871      382E3420 
 6871      32303134 
 6871      30353236 
 6872 08f0 616E6368 		.ascii	"anch revision 211358] -mcpu=cortex-m4 -mno-thumb-in"
 6872      20726576 
 6872      6973696F 
 6872      6E203231 
 6872      31333538 
 6873 0923 74657277 		.ascii	"terwork -mthumb -ggdb -O0 -std=c99 -fomit-frame-poi"
 6873      6F726B20 
 6873      2D6D7468 
 6873      756D6220 
 6873      2D676764 
 6874 0956 6E746572 		.ascii	"nter -falign-functions=16\000"
 6874      202D6661 
 6874      6C69676E 
 6874      2D66756E 
 6874      6374696F 
 6875              	.LASF60:
 6876 0970 48414C5F 		.ascii	"HAL_DMA_StateTypeDef\000"
 6876      444D415F 
 6876      53746174 
 6876      65547970 
ARM GAS  /tmp/ccUiHCLc.s 			page 129


 6876      65446566 
 6877              	.LASF92:
 6878 0985 4F666653 		.ascii	"OffStateRunMode\000"
 6878      74617465 
 6878      52756E4D 
 6878      6F646500 
 6879              	.LASF58:
 6880 0995 48414C5F 		.ascii	"HAL_DMA_STATE_BUSY\000"
 6880      444D415F 
 6880      53544154 
 6880      455F4255 
 6880      535900
 6881              	.LASF170:
 6882 09a8 746D7063 		.ascii	"tmpcr2\000"
 6882      723200
 6883              	.LASF125:
 6884 09af 54494D5F 		.ascii	"TIM_HallSensor_InitTypeDef\000"
 6884      48616C6C 
 6884      53656E73 
 6884      6F725F49 
 6884      6E697454 
 6885              	.LASF181:
 6886 09ca 626B696E 		.ascii	"bkin_enable_bitpos\000"
 6886      5F656E61 
 6886      626C655F 
 6886      62697470 
 6886      6F7300
 6887              	.LASF98:
 6888 09dd 42726561 		.ascii	"BreakFilter\000"
 6888      6B46696C 
 6888      74657200 
 6889              	.LASF110:
 6890 09e9 48414C5F 		.ascii	"HAL_TIM_ACTIVE_CHANNEL_1\000"
 6890      54494D5F 
 6890      41435449 
 6890      56455F43 
 6890      48414E4E 
 6891              	.LASF111:
 6892 0a02 48414C5F 		.ascii	"HAL_TIM_ACTIVE_CHANNEL_2\000"
 6892      54494D5F 
 6892      41435449 
 6892      56455F43 
 6892      48414E4E 
 6893              	.LASF112:
 6894 0a1b 48414C5F 		.ascii	"HAL_TIM_ACTIVE_CHANNEL_3\000"
 6894      54494D5F 
 6894      41435449 
 6894      56455F43 
 6894      48414E4E 
 6895              	.LASF113:
 6896 0a34 48414C5F 		.ascii	"HAL_TIM_ACTIVE_CHANNEL_4\000"
 6896      54494D5F 
 6896      41435449 
 6896      56455F43 
 6896      48414E4E 
 6897              	.LASF114:
 6898 0a4d 48414C5F 		.ascii	"HAL_TIM_ACTIVE_CHANNEL_5\000"
ARM GAS  /tmp/ccUiHCLc.s 			page 130


 6898      54494D5F 
 6898      41435449 
 6898      56455F43 
 6898      48414E4E 
 6899              	.LASF115:
 6900 0a66 48414C5F 		.ascii	"HAL_TIM_ACTIVE_CHANNEL_6\000"
 6900      54494D5F 
 6900      41435449 
 6900      56455F43 
 6900      48414E4E 
 6901              	.LASF87:
 6902 0a7f 54494D5F 		.ascii	"TIM_OC_InitTypeDef\000"
 6902      4F435F49 
 6902      6E697454 
 6902      79706544 
 6902      656600
 6903              	.LASF198:
 6904 0a92 5F5F444D 		.ascii	"__DMA_HandleTypeDef\000"
 6904      415F4861 
 6904      6E646C65 
 6904      54797065 
 6904      44656600 
 6905              	.LASF14:
 6906 0aa6 75696E74 		.ascii	"uint32_t\000"
 6906      33325F74 
 6906      00
 6907              	.LASF100:
 6908 0aaf 42726561 		.ascii	"Break2Polarity\000"
 6908      6B32506F 
 6908      6C617269 
 6908      747900
 6909              	.LASF165:
 6910 0abe 436F6D6D 		.ascii	"CommutationSource\000"
 6910      75746174 
 6910      696F6E53 
 6910      6F757263 
 6910      6500
 6911              	.LASF40:
 6912 0ad0 48414C5F 		.ascii	"HAL_ERROR\000"
 6912      4552524F 
 6912      5200
 6913              	.LASF150:
 6914 0ada 48414C5F 		.ascii	"HAL_TIMEx_OCN_Start_DMA\000"
 6914      54494D45 
 6914      785F4F43 
 6914      4E5F5374 
 6914      6172745F 
 6915              	.LASF166:
 6916 0af2 48414C5F 		.ascii	"HAL_TIMEx_ConfigCommutationEvent_IT\000"
 6916      54494D45 
 6916      785F436F 
 6916      6E666967 
 6916      436F6D6D 
 6917              	.LASF20:
 6918 0b16 49464352 		.ascii	"IFCR\000"
 6918      00
 6919              	.LASF38:
ARM GAS  /tmp/ccUiHCLc.s 			page 131


 6920 0b1b 63686172 		.ascii	"char\000"
 6920      00
 6921              	.LASF47:
 6922 0b20 52657175 		.ascii	"Request\000"
 6922      65737400 
 6923              	.LASF22:
 6924 0b28 534D4352 		.ascii	"SMCR\000"
 6924      00
 6925              	.LASF64:
 6926 0b2d 53746174 		.ascii	"State\000"
 6926      6500
 6927              	.LASF95:
 6928 0b33 44656164 		.ascii	"DeadTime\000"
 6928      54696D65 
 6928      00
 6929              	.LASF4:
 6930 0b3c 5F5F7569 		.ascii	"__uint16_t\000"
 6930      6E743136 
 6930      5F7400
 6931              	.LASF91:
 6932 0b47 54494D5F 		.ascii	"TIM_MasterConfigTypeDef\000"
 6932      4D617374 
 6932      6572436F 
 6932      6E666967 
 6932      54797065 
 6933              	.LASF50:
 6934 0b5f 4D656D49 		.ascii	"MemInc\000"
 6934      6E6300
 6935              	.LASF26:
 6936 0b66 43434552 		.ascii	"CCER\000"
 6936      00
 6937              	.LASF146:
 6938 0b6b 48414C5F 		.ascii	"HAL_TIMEx_OCN_Start_IT\000"
 6938      54494D45 
 6938      785F4F43 
 6938      4E5F5374 
 6938      6172745F 
 6939              	.LASF5:
 6940 0b82 5F5F696E 		.ascii	"__int32_t\000"
 6940      7433325F 
 6940      7400
 6941              	.LASF74:
 6942 0b8c 50726573 		.ascii	"Prescaler\000"
 6942      63616C65 
 6942      7200
 6943              	.LASF116:
 6944 0b96 48414C5F 		.ascii	"HAL_TIM_ACTIVE_CHANNEL_CLEARED\000"
 6944      54494D5F 
 6944      41435449 
 6944      56455F43 
 6944      48414E4E 
 6945              	.LASF139:
 6946 0bb5 48414C5F 		.ascii	"HAL_TIMEx_HallSensor_Stop_IT\000"
 6946      54494D45 
 6946      785F4861 
 6946      6C6C5365 
 6946      6E736F72 
ARM GAS  /tmp/ccUiHCLc.s 			page 132


 6947              	.LASF142:
 6948 0bd2 4C656E67 		.ascii	"Length\000"
 6948      746800
 6949              	.LASF79:
 6950 0bd9 54494D5F 		.ascii	"TIM_Base_InitTypeDef\000"
 6950      42617365 
 6950      5F496E69 
 6950      74547970 
 6950      65446566 
 6951              	.LASF51:
 6952 0bee 50657269 		.ascii	"PeriphDataAlignment\000"
 6952      70684461 
 6952      7461416C 
 6952      69676E6D 
 6952      656E7400 
 6953              	.LASF121:
 6954 0c02 49433150 		.ascii	"IC1Polarity\000"
 6954      6F6C6172 
 6954      69747900 
 6955              	.LASF97:
 6956 0c0e 42726561 		.ascii	"BreakPolarity\000"
 6956      6B506F6C 
 6956      61726974 
 6956      7900
 6957              	.LASF137:
 6958 0c1c 48414C5F 		.ascii	"HAL_TIMEx_HallSensor_Stop\000"
 6958      54494D45 
 6958      785F4861 
 6958      6C6C5365 
 6958      6E736F72 
 6959              	.LASF29:
 6960 0c36 43435233 		.ascii	"CCR3\000"
 6960      00
 6961              	.LASF30:
 6962 0c3b 43435234 		.ascii	"CCR4\000"
 6962      00
 6963              	.LASF34:
 6964 0c40 43435235 		.ascii	"CCR5\000"
 6964      00
 6965              	.LASF131:
 6966 0c45 73436F6E 		.ascii	"sConfig\000"
 6966      66696700 
 6967              	.LASF16:
 6968 0c4d 434E4454 		.ascii	"CNDTR\000"
 6968      5200
 6969              	.LASF18:
 6970 0c53 434D4152 		.ascii	"CMAR\000"
 6970      00
 6971              	.LASF103:
 6972 0c58 54494D5F 		.ascii	"TIM_BreakDeadTimeConfigTypeDef\000"
 6972      42726561 
 6972      6B446561 
 6972      6454696D 
 6972      65436F6E 
 6973              	.LASF59:
 6974 0c77 48414C5F 		.ascii	"HAL_DMA_STATE_TIMEOUT\000"
 6974      444D415F 
ARM GAS  /tmp/ccUiHCLc.s 			page 133


 6974      53544154 
 6974      455F5449 
 6974      4D454F55 
 6975              	.LASF158:
 6976 0c8d 48414C5F 		.ascii	"HAL_TIMEx_OnePulseN_Start\000"
 6976      54494D45 
 6976      785F4F6E 
 6976      6550756C 
 6976      73654E5F 
 6977              	.LASF152:
 6978 0ca7 48414C5F 		.ascii	"HAL_TIMEx_PWMN_Start\000"
 6978      54494D45 
 6978      785F5057 
 6978      4D4E5F53 
 6978      74617274 
 6979              	.LASF143:
 6980 0cbc 48414C5F 		.ascii	"HAL_TIMEx_HallSensor_Stop_DMA\000"
 6980      54494D45 
 6980      785F4861 
 6980      6C6C5365 
 6980      6E736F72 
 6981              	.LASF183:
 6982 0cda 48414C5F 		.ascii	"HAL_TIMEx_RemapConfig\000"
 6982      54494D45 
 6982      785F5265 
 6982      6D617043 
 6982      6F6E6669 
 6983              	.LASF77:
 6984 0cf0 436C6F63 		.ascii	"ClockDivision\000"
 6984      6B446976 
 6984      6973696F 
 6984      6E00
 6985              	.LASF88:
 6986 0cfe 4D617374 		.ascii	"MasterOutputTrigger\000"
 6986      65724F75 
 6986      74707574 
 6986      54726967 
 6986      67657200 
 6987              	.LASF44:
 6988 0d12 48414C5F 		.ascii	"HAL_UNLOCKED\000"
 6988      554E4C4F 
 6988      434B4544 
 6988      00
 6989              	.LASF160:
 6990 0d1f 48414C5F 		.ascii	"HAL_TIMEx_OnePulseN_Stop\000"
 6990      54494D45 
 6990      785F4F6E 
 6990      6550756C 
 6990      73654E5F 
 6991              	.LASF101:
 6992 0d38 42726561 		.ascii	"Break2Filter\000"
 6992      6B324669 
 6992      6C746572 
 6992      00
 6993              	.LASF81:
 6994 0d45 50756C73 		.ascii	"Pulse\000"
 6994      6500
ARM GAS  /tmp/ccUiHCLc.s 			page 134


 6995              	.LASF46:
 6996 0d4b 48414C5F 		.ascii	"HAL_LockTypeDef\000"
 6996      4C6F636B 
 6996      54797065 
 6996      44656600 
 6997              	.LASF69:
 6998 0d5b 58666572 		.ascii	"XferAbortCallback\000"
 6998      41626F72 
 6998      7443616C 
 6998      6C626163 
 6998      6B00
 6999              	.LASF66:
 7000 0d6d 58666572 		.ascii	"XferCpltCallback\000"
 7000      43706C74 
 7000      43616C6C 
 7000      6261636B 
 7000      00
 7001              	.LASF140:
 7002 0d7e 48414C5F 		.ascii	"HAL_TIMEx_HallSensor_Start_DMA\000"
 7002      54494D45 
 7002      785F4861 
 7002      6C6C5365 
 7002      6E736F72 
 7003              	.LASF124:
 7004 0d9d 436F6D6D 		.ascii	"Commutation_Delay\000"
 7004      75746174 
 7004      696F6E5F 
 7004      44656C61 
 7004      7900
 7005              		.ident	"GCC: (GNU Tools for ARM Embedded Processors) 4.8.4 20140526 (release) [ARM/embedded-4_8-br
ARM GAS  /tmp/ccUiHCLc.s 			page 135


DEFINED SYMBOLS
                            *ABS*:00000000 stm32l4xx_hal_tim_ex.c
     /tmp/ccUiHCLc.s:18     .text:00000000 $t
     /tmp/ccUiHCLc.s:24     .text:00000000 HAL_TIMEx_HallSensor_Init
     /tmp/ccUiHCLc.s:275    .text:00000190 HAL_TIMEx_HallSensor_MspInit
     /tmp/ccUiHCLc.s:208    .text:00000130 HAL_TIMEx_HallSensor_DeInit
     /tmp/ccUiHCLc.s:298    .text:000001a0 HAL_TIMEx_HallSensor_MspDeInit
     /tmp/ccUiHCLc.s:321    .text:000001b0 HAL_TIMEx_HallSensor_Start
     /tmp/ccUiHCLc.s:364    .text:000001e0 HAL_TIMEx_HallSensor_Stop
     /tmp/ccUiHCLc.s:423    .text:00000230 HAL_TIMEx_HallSensor_Start_IT
     /tmp/ccUiHCLc.s:474    .text:00000270 HAL_TIMEx_HallSensor_Stop_IT
     /tmp/ccUiHCLc.s:541    .text:000002d0 HAL_TIMEx_HallSensor_Start_DMA
     /tmp/ccUiHCLc.s:643    .text:00000374 $d
     /tmp/ccUiHCLc.s:648    .text:0000037c $t
     /tmp/ccUiHCLc.s:654    .text:00000380 HAL_TIMEx_HallSensor_Stop_DMA
     /tmp/ccUiHCLc.s:721    .text:000003e0 HAL_TIMEx_OCN_Start
     /tmp/ccUiHCLc.s:3906   .text:000017a0 TIM_CCxNChannelCmd
     /tmp/ccUiHCLc.s:773    .text:00000420 HAL_TIMEx_OCN_Stop
     /tmp/ccUiHCLc.s:857    .text:000004a0 HAL_TIMEx_OCN_Start_IT
     /tmp/ccUiHCLc.s:878    .text:000004b4 $d
     /tmp/ccUiHCLc.s:891    .text:000004e8 $t
     /tmp/ccUiHCLc.s:987    .text:00000580 HAL_TIMEx_OCN_Stop_IT
     /tmp/ccUiHCLc.s:1011   .text:00000598 $d
     /tmp/ccUiHCLc.s:1024   .text:000005cc $t
     /tmp/ccUiHCLc.s:1164   .text:000006c0 HAL_TIMEx_OCN_Start_DMA
     /tmp/ccUiHCLc.s:1220   .text:00000714 $d
     /tmp/ccUiHCLc.s:1233   .text:00000748 $t
     /tmp/ccUiHCLc.s:1396   .text:00000864 $d
     /tmp/ccUiHCLc.s:1401   .text:0000086c $t
     /tmp/ccUiHCLc.s:1407   .text:00000870 HAL_TIMEx_OCN_Stop_DMA
     /tmp/ccUiHCLc.s:1428   .text:00000884 $d
     /tmp/ccUiHCLc.s:1441   .text:000008b8 $t
     /tmp/ccUiHCLc.s:1565   .text:00000990 HAL_TIMEx_PWMN_Start
     /tmp/ccUiHCLc.s:1617   .text:000009d0 HAL_TIMEx_PWMN_Stop
     /tmp/ccUiHCLc.s:1701   .text:00000a50 HAL_TIMEx_PWMN_Start_IT
     /tmp/ccUiHCLc.s:1722   .text:00000a64 $d
     /tmp/ccUiHCLc.s:1735   .text:00000a98 $t
     /tmp/ccUiHCLc.s:1831   .text:00000b30 HAL_TIMEx_PWMN_Stop_IT
     /tmp/ccUiHCLc.s:1855   .text:00000b48 $d
     /tmp/ccUiHCLc.s:1868   .text:00000b7c $t
     /tmp/ccUiHCLc.s:2008   .text:00000c70 HAL_TIMEx_PWMN_Start_DMA
     /tmp/ccUiHCLc.s:2064   .text:00000cc4 $d
     /tmp/ccUiHCLc.s:2077   .text:00000cf8 $t
     /tmp/ccUiHCLc.s:2240   .text:00000e14 $d
     /tmp/ccUiHCLc.s:2245   .text:00000e1c $t
     /tmp/ccUiHCLc.s:2251   .text:00000e20 HAL_TIMEx_PWMN_Stop_DMA
     /tmp/ccUiHCLc.s:2272   .text:00000e34 $d
     /tmp/ccUiHCLc.s:2285   .text:00000e68 $t
     /tmp/ccUiHCLc.s:2409   .text:00000f40 HAL_TIMEx_OnePulseN_Start
     /tmp/ccUiHCLc.s:2453   .text:00000f70 HAL_TIMEx_OnePulseN_Stop
     /tmp/ccUiHCLc.s:2537   .text:00000ff0 HAL_TIMEx_OnePulseN_Start_IT
     /tmp/ccUiHCLc.s:2597   .text:00001040 HAL_TIMEx_OnePulseN_Stop_IT
     /tmp/ccUiHCLc.s:2697   .text:000010e0 HAL_TIMEx_ConfigCommutationEvent
     /tmp/ccUiHCLc.s:2802   .text:00001180 HAL_TIMEx_ConfigCommutationEvent_IT
     /tmp/ccUiHCLc.s:2915   .text:00001230 HAL_TIMEx_ConfigCommutationEvent_DMA
     /tmp/ccUiHCLc.s:3032   .text:000012e8 $d
     /tmp/ccUiHCLc.s:3871   .text:00001780 TIMEx_DMACommutationCplt
ARM GAS  /tmp/ccUiHCLc.s 			page 136


     /tmp/ccUiHCLc.s:3037   .text:000012f0 $t
     /tmp/ccUiHCLc.s:3043   .text:000012f0 HAL_TIMEx_MasterConfigSynchronization
     /tmp/ccUiHCLc.s:3146   .text:00001388 $d
     /tmp/ccUiHCLc.s:3151   .text:00001390 $t
     /tmp/ccUiHCLc.s:3157   .text:00001390 HAL_TIMEx_ConfigBreakDeadTime
     /tmp/ccUiHCLc.s:3346   .text:000014b4 $d
     /tmp/ccUiHCLc.s:3351   .text:000014bc $t
     /tmp/ccUiHCLc.s:3357   .text:000014c0 HAL_TIMEx_ConfigBreakInput
     /tmp/ccUiHCLc.s:3407   .text:00001504 $d
     /tmp/ccUiHCLc.s:3415   .text:00001524 $t
     /tmp/ccUiHCLc.s:3606   .text:00001630 HAL_TIMEx_RemapConfig
     /tmp/ccUiHCLc.s:3715   .text:000016d4 $d
     /tmp/ccUiHCLc.s:3721   .text:000016e0 $t
     /tmp/ccUiHCLc.s:3727   .text:000016e0 HAL_TIMEx_GroupChannel5
     /tmp/ccUiHCLc.s:3797   .text:00001740 HAL_TIMEx_CommutationCallback
     /tmp/ccUiHCLc.s:3820   .text:00001750 HAL_TIMEx_BreakCallback
     /tmp/ccUiHCLc.s:3843   .text:00001760 HAL_TIMEx_HallSensor_GetState
                     .debug_frame:00000010 $d

UNDEFINED SYMBOLS
TIM_Base_SetConfig
TIM_TI1_SetConfig
TIM_OC2_SetConfig
TIM_CCxChannelCmd
HAL_DMA_Start_IT
TIM_DMACaptureCplt
TIM_DMAError
TIM_DMADelayPulseCplt
