ARM GAS  /tmp/ccUrigac.s 			page 1


   1              		.syntax unified
   2              		.cpu cortex-m4
   3              		.fpu softvfp
   4              		.eabi_attribute 20, 1
   5              		.eabi_attribute 21, 1
   6              		.eabi_attribute 23, 3
   7              		.eabi_attribute 24, 1
   8              		.eabi_attribute 25, 1
   9              		.eabi_attribute 26, 1
  10              		.eabi_attribute 30, 6
  11              		.eabi_attribute 34, 1
  12              		.eabi_attribute 18, 4
  13              		.thumb
  14              		.file	"stm32l4xx_hal_pwr.c"
  15              		.text
  16              	.Ltext0:
  17              		.cfi_sections	.debug_frame
  18              		.align	2
  19              		.p2align 4,,15
  20              		.global	HAL_PWR_DeInit
  21              		.thumb
  22              		.thumb_func
  23              		.type	HAL_PWR_DeInit, %function
  24              	HAL_PWR_DeInit:
  25              	.LFB125:
  26              		.file 1 "../../../../../Drivers/STM32L4xx_HAL_Driver/Src/stm32l4xx_hal_pwr.c"
  27              		.loc 1 106 0
  28              		.cfi_startproc
  29              		@ args = 0, pretend = 0, frame = 0
  30              		@ frame_needed = 0, uses_anonymous_args = 0
  31              		@ link register save eliminated.
  32              		.loc 1 107 0
  33 0000 064B     		ldr	r3, .L2
  34 0002 064A     		ldr	r2, .L2
  35 0004 926B     		ldr	r2, [r2, #56]
  36 0006 42F08052 		orr	r2, r2, #268435456
  37 000a 9A63     		str	r2, [r3, #56]
  38              		.loc 1 108 0
  39 000c 034B     		ldr	r3, .L2
  40 000e 034A     		ldr	r2, .L2
  41 0010 926B     		ldr	r2, [r2, #56]
  42 0012 22F08052 		bic	r2, r2, #268435456
  43 0016 9A63     		str	r2, [r3, #56]
  44              		.loc 1 109 0
  45 0018 7047     		bx	lr
  46              	.L3:
  47 001a 00BF     		.align	2
  48              	.L2:
  49 001c 00100240 		.word	1073876992
  50              		.cfi_endproc
  51              	.LFE125:
  52              		.size	HAL_PWR_DeInit, .-HAL_PWR_DeInit
  53              		.align	2
  54              		.p2align 4,,15
  55              		.global	HAL_PWR_EnableBkUpAccess
  56              		.thumb
  57              		.thumb_func
ARM GAS  /tmp/ccUrigac.s 			page 2


  58              		.type	HAL_PWR_EnableBkUpAccess, %function
  59              	HAL_PWR_EnableBkUpAccess:
  60              	.LFB126:
  61              		.loc 1 124 0
  62              		.cfi_startproc
  63              		@ args = 0, pretend = 0, frame = 0
  64              		@ frame_needed = 0, uses_anonymous_args = 0
  65              		@ link register save eliminated.
  66              		.loc 1 125 0
  67 0020 034B     		ldr	r3, .L5
  68 0022 034A     		ldr	r2, .L5
  69 0024 1268     		ldr	r2, [r2]
  70 0026 42F48072 		orr	r2, r2, #256
  71 002a 1A60     		str	r2, [r3]
  72              		.loc 1 126 0
  73 002c 7047     		bx	lr
  74              	.L6:
  75 002e 00BF     		.align	2
  76              	.L5:
  77 0030 00700040 		.word	1073770496
  78              		.cfi_endproc
  79              	.LFE126:
  80              		.size	HAL_PWR_EnableBkUpAccess, .-HAL_PWR_EnableBkUpAccess
  81              		.align	2
  82 0034 AFF30080 		.p2align 4,,15
  82      AFF30080 
  82      AFF30080 
  83              		.global	HAL_PWR_DisableBkUpAccess
  84              		.thumb
  85              		.thumb_func
  86              		.type	HAL_PWR_DisableBkUpAccess, %function
  87              	HAL_PWR_DisableBkUpAccess:
  88              	.LFB127:
  89              		.loc 1 134 0
  90              		.cfi_startproc
  91              		@ args = 0, pretend = 0, frame = 0
  92              		@ frame_needed = 0, uses_anonymous_args = 0
  93              		@ link register save eliminated.
  94              		.loc 1 135 0
  95 0040 034B     		ldr	r3, .L8
  96 0042 034A     		ldr	r2, .L8
  97 0044 1268     		ldr	r2, [r2]
  98 0046 22F48072 		bic	r2, r2, #256
  99 004a 1A60     		str	r2, [r3]
 100              		.loc 1 136 0
 101 004c 7047     		bx	lr
 102              	.L9:
 103 004e 00BF     		.align	2
 104              	.L8:
 105 0050 00700040 		.word	1073770496
 106              		.cfi_endproc
 107              	.LFE127:
 108              		.size	HAL_PWR_DisableBkUpAccess, .-HAL_PWR_DisableBkUpAccess
 109              		.align	2
 110 0054 AFF30080 		.p2align 4,,15
 110      AFF30080 
 110      AFF30080 
ARM GAS  /tmp/ccUrigac.s 			page 3


 111              		.global	HAL_PWR_ConfigPVD
 112              		.thumb
 113              		.thumb_func
 114              		.type	HAL_PWR_ConfigPVD, %function
 115              	HAL_PWR_ConfigPVD:
 116              	.LFB128:
 117              		.loc 1 331 0
 118              		.cfi_startproc
 119              		@ args = 0, pretend = 0, frame = 8
 120              		@ frame_needed = 0, uses_anonymous_args = 0
 121              		@ link register save eliminated.
 122 0060 82B0     		sub	sp, sp, #8
 123              		.cfi_def_cfa_offset 8
 124 0062 0190     		str	r0, [sp, #4]
 125              		.loc 1 337 0
 126 0064 2A4B     		ldr	r3, .L16
 127 0066 2A4A     		ldr	r2, .L16
 128 0068 5268     		ldr	r2, [r2, #4]
 129 006a 22F00E01 		bic	r1, r2, #14
 130 006e 019A     		ldr	r2, [sp, #4]
 131 0070 1268     		ldr	r2, [r2]
 132 0072 0A43     		orrs	r2, r2, r1
 133 0074 5A60     		str	r2, [r3, #4]
 134              		.loc 1 340 0
 135 0076 274B     		ldr	r3, .L16+4
 136 0078 264A     		ldr	r2, .L16+4
 137 007a 5268     		ldr	r2, [r2, #4]
 138 007c 22F48032 		bic	r2, r2, #65536
 139 0080 5A60     		str	r2, [r3, #4]
 140              		.loc 1 341 0
 141 0082 244B     		ldr	r3, .L16+4
 142 0084 234A     		ldr	r2, .L16+4
 143 0086 1268     		ldr	r2, [r2]
 144 0088 22F48032 		bic	r2, r2, #65536
 145 008c 1A60     		str	r2, [r3]
 146              		.loc 1 342 0
 147 008e 214B     		ldr	r3, .L16+4
 148 0090 204A     		ldr	r2, .L16+4
 149 0092 D268     		ldr	r2, [r2, #12]
 150 0094 22F48032 		bic	r2, r2, #65536
 151 0098 DA60     		str	r2, [r3, #12]
 152              		.loc 1 343 0
 153 009a 1E4B     		ldr	r3, .L16+4
 154 009c 1D4A     		ldr	r2, .L16+4
 155 009e 9268     		ldr	r2, [r2, #8]
 156 00a0 22F48032 		bic	r2, r2, #65536
 157 00a4 9A60     		str	r2, [r3, #8]
 158              		.loc 1 346 0
 159 00a6 019B     		ldr	r3, [sp, #4]
 160 00a8 5B68     		ldr	r3, [r3, #4]
 161 00aa 03F48033 		and	r3, r3, #65536
 162 00ae 002B     		cmp	r3, #0
 163 00b0 05D0     		beq	.L11
 164              		.loc 1 348 0
 165 00b2 184B     		ldr	r3, .L16+4
 166 00b4 174A     		ldr	r2, .L16+4
 167 00b6 1268     		ldr	r2, [r2]
ARM GAS  /tmp/ccUrigac.s 			page 4


 168 00b8 42F48032 		orr	r2, r2, #65536
 169 00bc 1A60     		str	r2, [r3]
 170              	.L11:
 171              		.loc 1 352 0
 172 00be 019B     		ldr	r3, [sp, #4]
 173 00c0 5B68     		ldr	r3, [r3, #4]
 174 00c2 03F40033 		and	r3, r3, #131072
 175 00c6 002B     		cmp	r3, #0
 176 00c8 05D0     		beq	.L12
 177              		.loc 1 354 0
 178 00ca 124B     		ldr	r3, .L16+4
 179 00cc 114A     		ldr	r2, .L16+4
 180 00ce 5268     		ldr	r2, [r2, #4]
 181 00d0 42F48032 		orr	r2, r2, #65536
 182 00d4 5A60     		str	r2, [r3, #4]
 183              	.L12:
 184              		.loc 1 358 0
 185 00d6 019B     		ldr	r3, [sp, #4]
 186 00d8 5B68     		ldr	r3, [r3, #4]
 187 00da 03F00103 		and	r3, r3, #1
 188 00de 002B     		cmp	r3, #0
 189 00e0 05D0     		beq	.L13
 190              		.loc 1 360 0
 191 00e2 0C4B     		ldr	r3, .L16+4
 192 00e4 0B4A     		ldr	r2, .L16+4
 193 00e6 9268     		ldr	r2, [r2, #8]
 194 00e8 42F48032 		orr	r2, r2, #65536
 195 00ec 9A60     		str	r2, [r3, #8]
 196              	.L13:
 197              		.loc 1 363 0
 198 00ee 019B     		ldr	r3, [sp, #4]
 199 00f0 5B68     		ldr	r3, [r3, #4]
 200 00f2 03F00203 		and	r3, r3, #2
 201 00f6 002B     		cmp	r3, #0
 202 00f8 05D0     		beq	.L14
 203              		.loc 1 365 0
 204 00fa 064B     		ldr	r3, .L16+4
 205 00fc 054A     		ldr	r2, .L16+4
 206 00fe D268     		ldr	r2, [r2, #12]
 207 0100 42F48032 		orr	r2, r2, #65536
 208 0104 DA60     		str	r2, [r3, #12]
 209              	.L14:
 210              		.loc 1 368 0
 211 0106 0023     		movs	r3, #0
 212              		.loc 1 369 0
 213 0108 1846     		mov	r0, r3
 214 010a 02B0     		add	sp, sp, #8
 215              		@ sp needed
 216 010c 7047     		bx	lr
 217              	.L17:
 218 010e 00BF     		.align	2
 219              	.L16:
 220 0110 00700040 		.word	1073770496
 221 0114 00040140 		.word	1073808384
 222              		.cfi_endproc
 223              	.LFE128:
 224              		.size	HAL_PWR_ConfigPVD, .-HAL_PWR_ConfigPVD
ARM GAS  /tmp/ccUrigac.s 			page 5


 225              		.align	2
 226 0118 AFF30080 		.p2align 4,,15
 226      AFF30080 
 227              		.global	HAL_PWR_EnablePVD
 228              		.thumb
 229              		.thumb_func
 230              		.type	HAL_PWR_EnablePVD, %function
 231              	HAL_PWR_EnablePVD:
 232              	.LFB129:
 233              		.loc 1 377 0
 234              		.cfi_startproc
 235              		@ args = 0, pretend = 0, frame = 0
 236              		@ frame_needed = 0, uses_anonymous_args = 0
 237              		@ link register save eliminated.
 238              		.loc 1 378 0
 239 0120 034B     		ldr	r3, .L19
 240 0122 034A     		ldr	r2, .L19
 241 0124 5268     		ldr	r2, [r2, #4]
 242 0126 42F00102 		orr	r2, r2, #1
 243 012a 5A60     		str	r2, [r3, #4]
 244              		.loc 1 379 0
 245 012c 7047     		bx	lr
 246              	.L20:
 247 012e 00BF     		.align	2
 248              	.L19:
 249 0130 00700040 		.word	1073770496
 250              		.cfi_endproc
 251              	.LFE129:
 252              		.size	HAL_PWR_EnablePVD, .-HAL_PWR_EnablePVD
 253              		.align	2
 254 0134 AFF30080 		.p2align 4,,15
 254      AFF30080 
 254      AFF30080 
 255              		.global	HAL_PWR_DisablePVD
 256              		.thumb
 257              		.thumb_func
 258              		.type	HAL_PWR_DisablePVD, %function
 259              	HAL_PWR_DisablePVD:
 260              	.LFB130:
 261              		.loc 1 386 0
 262              		.cfi_startproc
 263              		@ args = 0, pretend = 0, frame = 0
 264              		@ frame_needed = 0, uses_anonymous_args = 0
 265              		@ link register save eliminated.
 266              		.loc 1 387 0
 267 0140 034B     		ldr	r3, .L22
 268 0142 034A     		ldr	r2, .L22
 269 0144 5268     		ldr	r2, [r2, #4]
 270 0146 22F00102 		bic	r2, r2, #1
 271 014a 5A60     		str	r2, [r3, #4]
 272              		.loc 1 388 0
 273 014c 7047     		bx	lr
 274              	.L23:
 275 014e 00BF     		.align	2
 276              	.L22:
 277 0150 00700040 		.word	1073770496
 278              		.cfi_endproc
ARM GAS  /tmp/ccUrigac.s 			page 6


 279              	.LFE130:
 280              		.size	HAL_PWR_DisablePVD, .-HAL_PWR_DisablePVD
 281              		.align	2
 282 0154 AFF30080 		.p2align 4,,15
 282      AFF30080 
 282      AFF30080 
 283              		.global	HAL_PWR_EnableWakeUpPin
 284              		.thumb
 285              		.thumb_func
 286              		.type	HAL_PWR_EnableWakeUpPin, %function
 287              	HAL_PWR_EnableWakeUpPin:
 288              	.LFB131:
 289              		.loc 1 411 0
 290              		.cfi_startproc
 291              		@ args = 0, pretend = 0, frame = 8
 292              		@ frame_needed = 0, uses_anonymous_args = 0
 293              		@ link register save eliminated.
 294 0160 82B0     		sub	sp, sp, #8
 295              		.cfi_def_cfa_offset 8
 296 0162 0190     		str	r0, [sp, #4]
 297              		.loc 1 416 0
 298 0164 0A4B     		ldr	r3, .L25
 299 0166 0A4A     		ldr	r2, .L25
 300 0168 D168     		ldr	r1, [r2, #12]
 301 016a 019A     		ldr	r2, [sp, #4]
 302 016c 02F01F02 		and	r2, r2, #31
 303 0170 D243     		mvns	r2, r2
 304 0172 1140     		ands	r1, r1, r2
 305 0174 019A     		ldr	r2, [sp, #4]
 306 0176 5209     		lsrs	r2, r2, #5
 307 0178 0A43     		orrs	r2, r2, r1
 308 017a DA60     		str	r2, [r3, #12]
 309              		.loc 1 419 0
 310 017c 044B     		ldr	r3, .L25
 311 017e 044A     		ldr	r2, .L25
 312 0180 9168     		ldr	r1, [r2, #8]
 313 0182 019A     		ldr	r2, [sp, #4]
 314 0184 02F01F02 		and	r2, r2, #31
 315 0188 0A43     		orrs	r2, r2, r1
 316 018a 9A60     		str	r2, [r3, #8]
 317              		.loc 1 422 0
 318 018c 02B0     		add	sp, sp, #8
 319              		@ sp needed
 320 018e 7047     		bx	lr
 321              	.L26:
 322              		.align	2
 323              	.L25:
 324 0190 00700040 		.word	1073770496
 325              		.cfi_endproc
 326              	.LFE131:
 327              		.size	HAL_PWR_EnableWakeUpPin, .-HAL_PWR_EnableWakeUpPin
 328              		.align	2
 329 0194 AFF30080 		.p2align 4,,15
 329      AFF30080 
 329      AFF30080 
 330              		.global	HAL_PWR_DisableWakeUpPin
 331              		.thumb
ARM GAS  /tmp/ccUrigac.s 			page 7


 332              		.thumb_func
 333              		.type	HAL_PWR_DisableWakeUpPin, %function
 334              	HAL_PWR_DisableWakeUpPin:
 335              	.LFB132:
 336              		.loc 1 432 0
 337              		.cfi_startproc
 338              		@ args = 0, pretend = 0, frame = 8
 339              		@ frame_needed = 0, uses_anonymous_args = 0
 340              		@ link register save eliminated.
 341 01a0 82B0     		sub	sp, sp, #8
 342              		.cfi_def_cfa_offset 8
 343 01a2 0190     		str	r0, [sp, #4]
 344              		.loc 1 435 0
 345 01a4 054B     		ldr	r3, .L28
 346 01a6 054A     		ldr	r2, .L28
 347 01a8 9168     		ldr	r1, [r2, #8]
 348 01aa 019A     		ldr	r2, [sp, #4]
 349 01ac 02F01F02 		and	r2, r2, #31
 350 01b0 D243     		mvns	r2, r2
 351 01b2 0A40     		ands	r2, r2, r1
 352 01b4 9A60     		str	r2, [r3, #8]
 353              		.loc 1 436 0
 354 01b6 02B0     		add	sp, sp, #8
 355              		@ sp needed
 356 01b8 7047     		bx	lr
 357              	.L29:
 358 01ba 00BF     		.align	2
 359              	.L28:
 360 01bc 00700040 		.word	1073770496
 361              		.cfi_endproc
 362              	.LFE132:
 363              		.size	HAL_PWR_DisableWakeUpPin, .-HAL_PWR_DisableWakeUpPin
 364              		.align	2
 365              		.p2align 4,,15
 366              		.global	HAL_PWR_EnterSLEEPMode
 367              		.thumb
 368              		.thumb_func
 369              		.type	HAL_PWR_EnterSLEEPMode, %function
 370              	HAL_PWR_EnterSLEEPMode:
 371              	.LFB133:
 372              		.loc 1 464 0
 373              		.cfi_startproc
 374              		@ args = 0, pretend = 0, frame = 8
 375              		@ frame_needed = 0, uses_anonymous_args = 0
 376 01c0 00B5     		push	{lr}
 377              		.cfi_def_cfa_offset 4
 378              		.cfi_offset 14, -4
 379 01c2 83B0     		sub	sp, sp, #12
 380              		.cfi_def_cfa_offset 16
 381 01c4 0190     		str	r0, [sp, #4]
 382 01c6 0B46     		mov	r3, r1
 383 01c8 8DF80330 		strb	r3, [sp, #3]
 384              		.loc 1 470 0
 385 01cc 019B     		ldr	r3, [sp, #4]
 386 01ce 002B     		cmp	r3, #0
 387 01d0 08D1     		bne	.L31
 388              		.loc 1 473 0
ARM GAS  /tmp/ccUrigac.s 			page 8


 389 01d2 114B     		ldr	r3, .L36
 390 01d4 5B69     		ldr	r3, [r3, #20]
 391 01d6 03F40073 		and	r3, r3, #512
 392 01da 002B     		cmp	r3, #0
 393 01dc 0AD0     		beq	.L33
 394              		.loc 1 475 0
 395 01de FFF7FEFF 		bl	HAL_PWREx_DisableLowPowerRunMode
 396 01e2 07E0     		b	.L33
 397              	.L31:
 398              		.loc 1 483 0
 399 01e4 0C4B     		ldr	r3, .L36
 400 01e6 5B69     		ldr	r3, [r3, #20]
 401 01e8 03F40073 		and	r3, r3, #512
 402 01ec 002B     		cmp	r3, #0
 403 01ee 01D1     		bne	.L33
 404              		.loc 1 485 0
 405 01f0 FFF7FEFF 		bl	HAL_PWREx_EnableLowPowerRunMode
 406              	.L33:
 407              		.loc 1 490 0
 408 01f4 094B     		ldr	r3, .L36+4
 409 01f6 094A     		ldr	r2, .L36+4
 410 01f8 1269     		ldr	r2, [r2, #16]
 411 01fa 22F00402 		bic	r2, r2, #4
 412 01fe 1A61     		str	r2, [r3, #16]
 413              		.loc 1 493 0
 414 0200 9DF80330 		ldrb	r3, [sp, #3]	@ zero_extendqisi2
 415 0204 012B     		cmp	r3, #1
 416 0206 01D1     		bne	.L34
 417              	.LBB12:
 418              	.LBB13:
 419              		.file 2 "../../../../../../ChibiOS/os/ext/CMSIS/include/core_cmInstr.h"
 420              		.loc 2 434 0
 421              	@ 434 "../../../../../../ChibiOS/os/ext/CMSIS/include/core_cmInstr.h" 1
 422 0208 30BF     		wfi
 423              	@ 0 "" 2
 424              		.thumb
 425              	.LBE13:
 426              	.LBE12:
 427 020a 02E0     		b	.L30
 428              	.L34:
 429              	.LBB14:
 430              	.LBB15:
 431              		.loc 2 455 0
 432              	@ 455 "../../../../../../ChibiOS/os/ext/CMSIS/include/core_cmInstr.h" 1
 433 020c 40BF     		sev
 434              	@ 0 "" 2
 435              		.thumb
 436              	.LBE15:
 437              	.LBE14:
 438              	.LBB16:
 439              	.LBB17:
 440              		.loc 2 445 0
 441              	@ 445 "../../../../../../ChibiOS/os/ext/CMSIS/include/core_cmInstr.h" 1
 442 020e 20BF     		wfe
 443              	@ 0 "" 2
 444              		.thumb
 445              	.LBE17:
ARM GAS  /tmp/ccUrigac.s 			page 9


 446              	.LBE16:
 447              	.LBB18:
 448              	.LBB19:
 449              	@ 445 "../../../../../../ChibiOS/os/ext/CMSIS/include/core_cmInstr.h" 1
 450 0210 20BF     		wfe
 451              	@ 0 "" 2
 452              		.thumb
 453              	.L30:
 454              	.LBE19:
 455              	.LBE18:
 456              		.loc 1 506 0
 457 0212 03B0     		add	sp, sp, #12
 458              		@ sp needed
 459 0214 5DF804FB 		ldr	pc, [sp], #4
 460              	.L37:
 461              		.align	2
 462              	.L36:
 463 0218 00700040 		.word	1073770496
 464 021c 00ED00E0 		.word	-536810240
 465              		.cfi_endproc
 466              	.LFE133:
 467              		.size	HAL_PWR_EnterSLEEPMode, .-HAL_PWR_EnterSLEEPMode
 468              		.align	2
 469              		.p2align 4,,15
 470              		.global	HAL_PWR_EnterSTOPMode
 471              		.thumb
 472              		.thumb_func
 473              		.type	HAL_PWR_EnterSTOPMode, %function
 474              	HAL_PWR_EnterSTOPMode:
 475              	.LFB134:
 476              		.loc 1 540 0
 477              		.cfi_startproc
 478              		@ args = 0, pretend = 0, frame = 8
 479              		@ frame_needed = 0, uses_anonymous_args = 0
 480 0220 00B5     		push	{lr}
 481              		.cfi_def_cfa_offset 4
 482              		.cfi_offset 14, -4
 483 0222 83B0     		sub	sp, sp, #12
 484              		.cfi_def_cfa_offset 16
 485 0224 0190     		str	r0, [sp, #4]
 486 0226 0B46     		mov	r3, r1
 487 0228 8DF80330 		strb	r3, [sp, #3]
 488              		.loc 1 544 0
 489 022c 019B     		ldr	r3, [sp, #4]
 490 022e B3F5804F 		cmp	r3, #16384
 491 0232 05D1     		bne	.L39
 492              		.loc 1 546 0
 493 0234 9DF80330 		ldrb	r3, [sp, #3]	@ zero_extendqisi2
 494 0238 1846     		mov	r0, r3
 495 023a FFF7FEFF 		bl	HAL_PWREx_EnterSTOP1Mode
 496 023e 04E0     		b	.L38
 497              	.L39:
 498              		.loc 1 550 0
 499 0240 9DF80330 		ldrb	r3, [sp, #3]	@ zero_extendqisi2
 500 0244 1846     		mov	r0, r3
 501 0246 FFF7FEFF 		bl	HAL_PWREx_EnterSTOP0Mode
 502              	.L38:
ARM GAS  /tmp/ccUrigac.s 			page 10


 503              		.loc 1 552 0
 504 024a 03B0     		add	sp, sp, #12
 505              		@ sp needed
 506 024c 5DF804FB 		ldr	pc, [sp], #4
 507              		.cfi_endproc
 508              	.LFE134:
 509              		.size	HAL_PWR_EnterSTOPMode, .-HAL_PWR_EnterSTOPMode
 510              		.align	2
 511              		.p2align 4,,15
 512              		.global	HAL_PWR_EnterSTANDBYMode
 513              		.thumb
 514              		.thumb_func
 515              		.type	HAL_PWR_EnterSTANDBYMode, %function
 516              	HAL_PWR_EnterSTANDBYMode:
 517              	.LFB135:
 518              		.loc 1 573 0
 519              		.cfi_startproc
 520              		@ args = 0, pretend = 0, frame = 0
 521              		@ frame_needed = 0, uses_anonymous_args = 0
 522              		@ link register save eliminated.
 523              		.loc 1 575 0
 524 0250 074B     		ldr	r3, .L42
 525 0252 074A     		ldr	r2, .L42
 526 0254 1268     		ldr	r2, [r2]
 527 0256 22F00702 		bic	r2, r2, #7
 528 025a 42F00302 		orr	r2, r2, #3
 529 025e 1A60     		str	r2, [r3]
 530              		.loc 1 578 0
 531 0260 044B     		ldr	r3, .L42+4
 532 0262 044A     		ldr	r2, .L42+4
 533 0264 1269     		ldr	r2, [r2, #16]
 534 0266 42F00402 		orr	r2, r2, #4
 535 026a 1A61     		str	r2, [r3, #16]
 536              	.LBB20:
 537              	.LBB21:
 538              		.loc 2 434 0
 539              	@ 434 "../../../../../../ChibiOS/os/ext/CMSIS/include/core_cmInstr.h" 1
 540 026c 30BF     		wfi
 541              	@ 0 "" 2
 542              		.thumb
 543              	.LBE21:
 544              	.LBE20:
 545              		.loc 1 586 0
 546 026e 7047     		bx	lr
 547              	.L43:
 548              		.align	2
 549              	.L42:
 550 0270 00700040 		.word	1073770496
 551 0274 00ED00E0 		.word	-536810240
 552              		.cfi_endproc
 553              	.LFE135:
 554              		.size	HAL_PWR_EnterSTANDBYMode, .-HAL_PWR_EnterSTANDBYMode
 555              		.align	2
 556 0278 AFF30080 		.p2align 4,,15
 556      AFF30080 
 557              		.global	HAL_PWR_EnableSleepOnExit
 558              		.thumb
ARM GAS  /tmp/ccUrigac.s 			page 11


 559              		.thumb_func
 560              		.type	HAL_PWR_EnableSleepOnExit, %function
 561              	HAL_PWR_EnableSleepOnExit:
 562              	.LFB136:
 563              		.loc 1 599 0
 564              		.cfi_startproc
 565              		@ args = 0, pretend = 0, frame = 0
 566              		@ frame_needed = 0, uses_anonymous_args = 0
 567              		@ link register save eliminated.
 568              		.loc 1 601 0
 569 0280 034B     		ldr	r3, .L45
 570 0282 034A     		ldr	r2, .L45
 571 0284 1269     		ldr	r2, [r2, #16]
 572 0286 42F00202 		orr	r2, r2, #2
 573 028a 1A61     		str	r2, [r3, #16]
 574              		.loc 1 602 0
 575 028c 7047     		bx	lr
 576              	.L46:
 577 028e 00BF     		.align	2
 578              	.L45:
 579 0290 00ED00E0 		.word	-536810240
 580              		.cfi_endproc
 581              	.LFE136:
 582              		.size	HAL_PWR_EnableSleepOnExit, .-HAL_PWR_EnableSleepOnExit
 583              		.align	2
 584 0294 AFF30080 		.p2align 4,,15
 584      AFF30080 
 584      AFF30080 
 585              		.global	HAL_PWR_DisableSleepOnExit
 586              		.thumb
 587              		.thumb_func
 588              		.type	HAL_PWR_DisableSleepOnExit, %function
 589              	HAL_PWR_DisableSleepOnExit:
 590              	.LFB137:
 591              		.loc 1 612 0
 592              		.cfi_startproc
 593              		@ args = 0, pretend = 0, frame = 0
 594              		@ frame_needed = 0, uses_anonymous_args = 0
 595              		@ link register save eliminated.
 596              		.loc 1 614 0
 597 02a0 034B     		ldr	r3, .L48
 598 02a2 034A     		ldr	r2, .L48
 599 02a4 1269     		ldr	r2, [r2, #16]
 600 02a6 22F00202 		bic	r2, r2, #2
 601 02aa 1A61     		str	r2, [r3, #16]
 602              		.loc 1 615 0
 603 02ac 7047     		bx	lr
 604              	.L49:
 605 02ae 00BF     		.align	2
 606              	.L48:
 607 02b0 00ED00E0 		.word	-536810240
 608              		.cfi_endproc
 609              	.LFE137:
 610              		.size	HAL_PWR_DisableSleepOnExit, .-HAL_PWR_DisableSleepOnExit
 611              		.align	2
 612 02b4 AFF30080 		.p2align 4,,15
 612      AFF30080 
ARM GAS  /tmp/ccUrigac.s 			page 12


 612      AFF30080 
 613              		.global	HAL_PWR_EnableSEVOnPend
 614              		.thumb
 615              		.thumb_func
 616              		.type	HAL_PWR_EnableSEVOnPend, %function
 617              	HAL_PWR_EnableSEVOnPend:
 618              	.LFB138:
 619              		.loc 1 626 0
 620              		.cfi_startproc
 621              		@ args = 0, pretend = 0, frame = 0
 622              		@ frame_needed = 0, uses_anonymous_args = 0
 623              		@ link register save eliminated.
 624              		.loc 1 628 0
 625 02c0 034B     		ldr	r3, .L51
 626 02c2 034A     		ldr	r2, .L51
 627 02c4 1269     		ldr	r2, [r2, #16]
 628 02c6 42F01002 		orr	r2, r2, #16
 629 02ca 1A61     		str	r2, [r3, #16]
 630              		.loc 1 629 0
 631 02cc 7047     		bx	lr
 632              	.L52:
 633 02ce 00BF     		.align	2
 634              	.L51:
 635 02d0 00ED00E0 		.word	-536810240
 636              		.cfi_endproc
 637              	.LFE138:
 638              		.size	HAL_PWR_EnableSEVOnPend, .-HAL_PWR_EnableSEVOnPend
 639              		.align	2
 640 02d4 AFF30080 		.p2align 4,,15
 640      AFF30080 
 640      AFF30080 
 641              		.global	HAL_PWR_DisableSEVOnPend
 642              		.thumb
 643              		.thumb_func
 644              		.type	HAL_PWR_DisableSEVOnPend, %function
 645              	HAL_PWR_DisableSEVOnPend:
 646              	.LFB139:
 647              		.loc 1 639 0
 648              		.cfi_startproc
 649              		@ args = 0, pretend = 0, frame = 0
 650              		@ frame_needed = 0, uses_anonymous_args = 0
 651              		@ link register save eliminated.
 652              		.loc 1 641 0
 653 02e0 034B     		ldr	r3, .L54
 654 02e2 034A     		ldr	r2, .L54
 655 02e4 1269     		ldr	r2, [r2, #16]
 656 02e6 22F01002 		bic	r2, r2, #16
 657 02ea 1A61     		str	r2, [r3, #16]
 658              		.loc 1 642 0
 659 02ec 7047     		bx	lr
 660              	.L55:
 661 02ee 00BF     		.align	2
 662              	.L54:
 663 02f0 00ED00E0 		.word	-536810240
 664              		.cfi_endproc
 665              	.LFE139:
 666              		.size	HAL_PWR_DisableSEVOnPend, .-HAL_PWR_DisableSEVOnPend
ARM GAS  /tmp/ccUrigac.s 			page 13


 667              		.align	2
 668 02f4 AFF30080 		.p2align 4,,15
 668      AFF30080 
 668      AFF30080 
 669              		.weak	HAL_PWR_PVDCallback
 670              		.thumb
 671              		.thumb_func
 672              		.type	HAL_PWR_PVDCallback, %function
 673              	HAL_PWR_PVDCallback:
 674              	.LFB140:
 675              		.loc 1 653 0
 676              		.cfi_startproc
 677              		@ args = 0, pretend = 0, frame = 0
 678              		@ frame_needed = 0, uses_anonymous_args = 0
 679              		@ link register save eliminated.
 680              		.loc 1 657 0
 681 0300 7047     		bx	lr
 682              		.cfi_endproc
 683              	.LFE140:
 684              		.size	HAL_PWR_PVDCallback, .-HAL_PWR_PVDCallback
 685              	.Letext0:
 686              		.file 3 "/nfs/nfs5/home/research/hardware/arm2/gcc-arm-embedded/gcc-arm-none-eabi-4_8-2014q2/arm-n
 687              		.file 4 "/nfs/nfs5/home/research/hardware/arm2/gcc-arm-embedded/gcc-arm-none-eabi-4_8-2014q2/arm-n
 688              		.file 5 "../../../../../../ChibiOS/os/ext/CMSIS/include/core_cm4.h"
 689              		.file 6 "../../../../../../ChibiOS/os/ext/CMSIS/ST/STM32L4xx/stm32l476xx.h"
 690              		.file 7 "../../../../../../ChibiOS/os/ext/CMSIS/ST/STM32L4xx/stm32l4xx.h"
 691              		.file 8 "../../../../../Drivers/STM32L4xx_HAL_Driver/Inc/stm32l4xx_hal_def.h"
 692              		.file 9 "../../../../../Drivers/STM32L4xx_HAL_Driver/Inc/stm32l4xx_hal_pwr.h"