ARM GAS  /tmp/cc34cfqS.s 			page 1


   1              		.syntax unified
   2              		.cpu cortex-m4
   3              		.fpu softvfp
   4              		.eabi_attribute 20, 1
   5              		.eabi_attribute 21, 1
   6              		.eabi_attribute 23, 3
   7              		.eabi_attribute 24, 1
   8              		.eabi_attribute 25, 1
   9              		.eabi_attribute 26, 1
  10              		.eabi_attribute 30, 6
  11              		.eabi_attribute 34, 1
  12              		.eabi_attribute 18, 4
  13              		.thumb
  14              		.file	"stm32l4xx_hal_spi.c"
  15              		.text
  16              	.Ltext0:
  17              		.cfi_sections	.debug_frame
  18              		.align	2
  19              		.p2align 4,,15
  20              		.global	HAL_SPI_Init
  21              		.thumb
  22              		.thumb_func
  23              		.type	HAL_SPI_Init, %function
  24              	HAL_SPI_Init:
  25              	.LFB125:
  26              		.file 1 "../../../../../Drivers/STM32L4xx_HAL_Driver/Src/stm32l4xx_hal_spi.c"
  27              		.loc 1 195 0
  28              		.cfi_startproc
  29              		@ args = 0, pretend = 0, frame = 16
  30              		@ frame_needed = 0, uses_anonymous_args = 0
  31 0000 00B5     		push	{lr}
  32              		.cfi_def_cfa_offset 4
  33              		.cfi_offset 14, -4
  34 0002 85B0     		sub	sp, sp, #20
  35              		.cfi_def_cfa_offset 24
  36 0004 0190     		str	r0, [sp, #4]
  37              		.loc 1 199 0
  38 0006 019B     		ldr	r3, [sp, #4]
  39 0008 002B     		cmp	r3, #0
  40 000a 01D1     		bne	.L2
  41              		.loc 1 201 0
  42 000c 0123     		movs	r3, #1
  43 000e 88E0     		b	.L3
  44              	.L2:
  45              		.loc 1 220 0
  46 0010 019B     		ldr	r3, [sp, #4]
  47 0012 93F85D30 		ldrb	r3, [r3, #93]
  48 0016 DBB2     		uxtb	r3, r3
  49 0018 002B     		cmp	r3, #0
  50 001a 06D1     		bne	.L4
  51              		.loc 1 223 0
  52 001c 019B     		ldr	r3, [sp, #4]
  53 001e 0022     		movs	r2, #0
  54 0020 83F85C20 		strb	r2, [r3, #92]
  55              		.loc 1 226 0
  56 0024 0198     		ldr	r0, [sp, #4]
  57 0026 FFF7FEFF 		bl	HAL_SPI_MspInit
ARM GAS  /tmp/cc34cfqS.s 			page 2


  58              	.L4:
  59              		.loc 1 229 0
  60 002a 019B     		ldr	r3, [sp, #4]
  61 002c 0222     		movs	r2, #2
  62 002e 83F85D20 		strb	r2, [r3, #93]
  63              		.loc 1 232 0
  64 0032 019B     		ldr	r3, [sp, #4]
  65 0034 1B68     		ldr	r3, [r3]
  66 0036 019A     		ldr	r2, [sp, #4]
  67 0038 1268     		ldr	r2, [r2]
  68 003a 1268     		ldr	r2, [r2]
  69 003c 22F04002 		bic	r2, r2, #64
  70 0040 1A60     		str	r2, [r3]
  71              		.loc 1 235 0
  72 0042 019B     		ldr	r3, [sp, #4]
  73 0044 DB68     		ldr	r3, [r3, #12]
  74 0046 B3F5E06F 		cmp	r3, #1792
  75 004a 02D9     		bls	.L5
  76              		.loc 1 237 0
  77 004c 0023     		movs	r3, #0
  78 004e 0393     		str	r3, [sp, #12]
  79 0050 02E0     		b	.L6
  80              	.L5:
  81              		.loc 1 241 0
  82 0052 4FF48053 		mov	r3, #4096
  83 0056 0393     		str	r3, [sp, #12]
  84              	.L6:
  85              		.loc 1 245 0
  86 0058 019B     		ldr	r3, [sp, #4]
  87 005a DB68     		ldr	r3, [r3, #12]
  88 005c B3F5706F 		cmp	r3, #3840
  89 0060 07D0     		beq	.L7
  90              		.loc 1 245 0 is_stmt 0 discriminator 1
  91 0062 019B     		ldr	r3, [sp, #4]
  92 0064 DB68     		ldr	r3, [r3, #12]
  93 0066 B3F5E06F 		cmp	r3, #1792
  94 006a 02D0     		beq	.L7
  95              		.loc 1 248 0 is_stmt 1
  96 006c 019B     		ldr	r3, [sp, #4]
  97 006e 0022     		movs	r2, #0
  98 0070 9A62     		str	r2, [r3, #40]
  99              	.L7:
 100              		.loc 1 252 0
 101 0072 019B     		ldr	r3, [sp, #4]
 102 0074 1B6B     		ldr	r3, [r3, #48]
 103 0076 002B     		cmp	r3, #0
 104 0078 0BD1     		bne	.L8
 105              		.loc 1 255 0
 106 007a 019B     		ldr	r3, [sp, #4]
 107 007c DB68     		ldr	r3, [r3, #12]
 108 007e B3F5E06F 		cmp	r3, #1792
 109 0082 03D9     		bls	.L9
 110              		.loc 1 257 0
 111 0084 019B     		ldr	r3, [sp, #4]
 112 0086 0222     		movs	r2, #2
 113 0088 1A63     		str	r2, [r3, #48]
 114 008a 02E0     		b	.L8
ARM GAS  /tmp/cc34cfqS.s 			page 3


 115              	.L9:
 116              		.loc 1 261 0
 117 008c 019B     		ldr	r3, [sp, #4]
 118 008e 0122     		movs	r2, #1
 119 0090 1A63     		str	r2, [r3, #48]
 120              	.L8:
 121              		.loc 1 268 0
 122 0092 019B     		ldr	r3, [sp, #4]
 123 0094 1B68     		ldr	r3, [r3]
 124 0096 019A     		ldr	r2, [sp, #4]
 125 0098 5168     		ldr	r1, [r2, #4]
 126 009a 019A     		ldr	r2, [sp, #4]
 127 009c 9268     		ldr	r2, [r2, #8]
 128 009e 1143     		orrs	r1, r1, r2
 129              		.loc 1 269 0
 130 00a0 019A     		ldr	r2, [sp, #4]
 131 00a2 1269     		ldr	r2, [r2, #16]
 132              		.loc 1 268 0
 133 00a4 1143     		orrs	r1, r1, r2
 134              		.loc 1 269 0
 135 00a6 019A     		ldr	r2, [sp, #4]
 136 00a8 5269     		ldr	r2, [r2, #20]
 137 00aa 1143     		orrs	r1, r1, r2
 138 00ac 019A     		ldr	r2, [sp, #4]
 139 00ae 9269     		ldr	r2, [r2, #24]
 140 00b0 02F40072 		and	r2, r2, #512
 141 00b4 1143     		orrs	r1, r1, r2
 142              		.loc 1 270 0
 143 00b6 019A     		ldr	r2, [sp, #4]
 144 00b8 D269     		ldr	r2, [r2, #28]
 145              		.loc 1 269 0
 146 00ba 1143     		orrs	r1, r1, r2
 147              		.loc 1 270 0
 148 00bc 019A     		ldr	r2, [sp, #4]
 149 00be 126A     		ldr	r2, [r2, #32]
 150 00c0 1143     		orrs	r1, r1, r2
 151 00c2 019A     		ldr	r2, [sp, #4]
 152 00c4 926A     		ldr	r2, [r2, #40]
 153 00c6 0A43     		orrs	r2, r2, r1
 154              		.loc 1 268 0
 155 00c8 1A60     		str	r2, [r3]
 156              		.loc 1 272 0
 157 00ca 019B     		ldr	r3, [sp, #4]
 158 00cc 1B6B     		ldr	r3, [r3, #48]
 159 00ce 022B     		cmp	r3, #2
 160 00d0 07D1     		bne	.L10
 161              		.loc 1 274 0
 162 00d2 019B     		ldr	r3, [sp, #4]
 163 00d4 1B68     		ldr	r3, [r3]
 164 00d6 019A     		ldr	r2, [sp, #4]
 165 00d8 1268     		ldr	r2, [r2]
 166 00da 1268     		ldr	r2, [r2]
 167 00dc 42F40062 		orr	r2, r2, #2048
 168 00e0 1A60     		str	r2, [r3]
 169              	.L10:
 170              		.loc 1 279 0
 171 00e2 019B     		ldr	r3, [sp, #4]
ARM GAS  /tmp/cc34cfqS.s 			page 4


 172 00e4 1B68     		ldr	r3, [r3]
 173 00e6 019A     		ldr	r2, [sp, #4]
 174 00e8 9269     		ldr	r2, [r2, #24]
 175 00ea 120C     		lsrs	r2, r2, #16
 176 00ec 02F00401 		and	r1, r2, #4
 177 00f0 019A     		ldr	r2, [sp, #4]
 178 00f2 526A     		ldr	r2, [r2, #36]
 179 00f4 1143     		orrs	r1, r1, r2
 180 00f6 019A     		ldr	r2, [sp, #4]
 181 00f8 526B     		ldr	r2, [r2, #52]
 182 00fa 1143     		orrs	r1, r1, r2
 183              		.loc 1 280 0
 184 00fc 019A     		ldr	r2, [sp, #4]
 185 00fe D268     		ldr	r2, [r2, #12]
 186              		.loc 1 279 0
 187 0100 1143     		orrs	r1, r1, r2
 188              		.loc 1 280 0
 189 0102 039A     		ldr	r2, [sp, #12]
 190 0104 0A43     		orrs	r2, r2, r1
 191              		.loc 1 279 0
 192 0106 5A60     		str	r2, [r3, #4]
 193              		.loc 1 284 0
 194 0108 019B     		ldr	r3, [sp, #4]
 195 010a 1B68     		ldr	r3, [r3]
 196 010c 019A     		ldr	r2, [sp, #4]
 197 010e D26A     		ldr	r2, [r2, #44]
 198 0110 1A61     		str	r2, [r3, #16]
 199              		.loc 1 286 0
 200 0112 019B     		ldr	r3, [sp, #4]
 201 0114 0022     		movs	r2, #0
 202 0116 1A66     		str	r2, [r3, #96]
 203              		.loc 1 287 0
 204 0118 019B     		ldr	r3, [sp, #4]
 205 011a 0122     		movs	r2, #1
 206 011c 83F85D20 		strb	r2, [r3, #93]
 207              		.loc 1 289 0
 208 0120 0023     		movs	r3, #0
 209              	.L3:
 210              		.loc 1 290 0
 211 0122 1846     		mov	r0, r3
 212 0124 05B0     		add	sp, sp, #20
 213              		@ sp needed
 214 0126 5DF804FB 		ldr	pc, [sp], #4
 215              		.cfi_endproc
 216              	.LFE125:
 217              		.size	HAL_SPI_Init, .-HAL_SPI_Init
 218 012a 00BF     		.align	2
 219 012c AFF30080 		.p2align 4,,15
 220              		.global	HAL_SPI_DeInit
 221              		.thumb
 222              		.thumb_func
 223              		.type	HAL_SPI_DeInit, %function
 224              	HAL_SPI_DeInit:
 225              	.LFB126:
 226              		.loc 1 299 0
 227              		.cfi_startproc
 228              		@ args = 0, pretend = 0, frame = 8
ARM GAS  /tmp/cc34cfqS.s 			page 5


 229              		@ frame_needed = 0, uses_anonymous_args = 0
 230 0130 00B5     		push	{lr}
 231              		.cfi_def_cfa_offset 4
 232              		.cfi_offset 14, -4
 233 0132 83B0     		sub	sp, sp, #12
 234              		.cfi_def_cfa_offset 16
 235 0134 0190     		str	r0, [sp, #4]
 236              		.loc 1 301 0
 237 0136 019B     		ldr	r3, [sp, #4]
 238 0138 002B     		cmp	r3, #0
 239 013a 01D1     		bne	.L12
 240              		.loc 1 303 0
 241 013c 0123     		movs	r3, #1
 242 013e 1AE0     		b	.L13
 243              	.L12:
 244              		.loc 1 308 0
 245 0140 019B     		ldr	r3, [sp, #4]
 246 0142 0222     		movs	r2, #2
 247 0144 83F85D20 		strb	r2, [r3, #93]
 248              		.loc 1 311 0
 249 0148 019B     		ldr	r3, [sp, #4]
 250 014a 1B68     		ldr	r3, [r3]
 251 014c 019A     		ldr	r2, [sp, #4]
 252 014e 1268     		ldr	r2, [r2]
 253 0150 1268     		ldr	r2, [r2]
 254 0152 22F04002 		bic	r2, r2, #64
 255 0156 1A60     		str	r2, [r3]
 256              		.loc 1 314 0
 257 0158 0198     		ldr	r0, [sp, #4]
 258 015a FFF7FEFF 		bl	HAL_SPI_MspDeInit
 259              		.loc 1 316 0
 260 015e 019B     		ldr	r3, [sp, #4]
 261 0160 0022     		movs	r2, #0
 262 0162 1A66     		str	r2, [r3, #96]
 263              		.loc 1 317 0
 264 0164 019B     		ldr	r3, [sp, #4]
 265 0166 0022     		movs	r2, #0
 266 0168 83F85D20 		strb	r2, [r3, #93]
 267              		.loc 1 319 0
 268 016c 019B     		ldr	r3, [sp, #4]
 269 016e 0022     		movs	r2, #0
 270 0170 83F85C20 		strb	r2, [r3, #92]
 271              		.loc 1 321 0
 272 0174 0023     		movs	r3, #0
 273              	.L13:
 274              		.loc 1 322 0
 275 0176 1846     		mov	r0, r3
 276 0178 03B0     		add	sp, sp, #12
 277              		@ sp needed
 278 017a 5DF804FB 		ldr	pc, [sp], #4
 279              		.cfi_endproc
 280              	.LFE126:
 281              		.size	HAL_SPI_DeInit, .-HAL_SPI_DeInit
 282 017e 00BF     		.align	2
 283              		.p2align 4,,15
 284              		.weak	HAL_SPI_MspInit
 285              		.thumb
ARM GAS  /tmp/cc34cfqS.s 			page 6


 286              		.thumb_func
 287              		.type	HAL_SPI_MspInit, %function
 288              	HAL_SPI_MspInit:
 289              	.LFB127:
 290              		.loc 1 331 0
 291              		.cfi_startproc
 292              		@ args = 0, pretend = 0, frame = 8
 293              		@ frame_needed = 0, uses_anonymous_args = 0
 294              		@ link register save eliminated.
 295 0180 82B0     		sub	sp, sp, #8
 296              		.cfi_def_cfa_offset 8
 297 0182 0190     		str	r0, [sp, #4]
 298              		.loc 1 338 0
 299 0184 02B0     		add	sp, sp, #8
 300              		@ sp needed
 301 0186 7047     		bx	lr
 302              		.cfi_endproc
 303              	.LFE127:
 304              		.size	HAL_SPI_MspInit, .-HAL_SPI_MspInit
 305              		.align	2
 306 0188 AFF30080 		.p2align 4,,15
 306      AFF30080 
 307              		.weak	HAL_SPI_MspDeInit
 308              		.thumb
 309              		.thumb_func
 310              		.type	HAL_SPI_MspDeInit, %function
 311              	HAL_SPI_MspDeInit:
 312              	.LFB128:
 313              		.loc 1 347 0
 314              		.cfi_startproc
 315              		@ args = 0, pretend = 0, frame = 8
 316              		@ frame_needed = 0, uses_anonymous_args = 0
 317              		@ link register save eliminated.
 318 0190 82B0     		sub	sp, sp, #8
 319              		.cfi_def_cfa_offset 8
 320 0192 0190     		str	r0, [sp, #4]
 321              		.loc 1 354 0
 322 0194 02B0     		add	sp, sp, #8
 323              		@ sp needed
 324 0196 7047     		bx	lr
 325              		.cfi_endproc
 326              	.LFE128:
 327              		.size	HAL_SPI_MspDeInit, .-HAL_SPI_MspDeInit
 328              		.align	2
 329 0198 AFF30080 		.p2align 4,,15
 329      AFF30080 
 330              		.global	HAL_SPI_Transmit
 331              		.thumb
 332              		.thumb_func
 333              		.type	HAL_SPI_Transmit, %function
 334              	HAL_SPI_Transmit:
 335              	.LFB129:
 336              		.loc 1 403 0
 337              		.cfi_startproc
 338              		@ args = 0, pretend = 0, frame = 32
 339              		@ frame_needed = 0, uses_anonymous_args = 0
 340 01a0 00B5     		push	{lr}
ARM GAS  /tmp/cc34cfqS.s 			page 7


 341              		.cfi_def_cfa_offset 4
 342              		.cfi_offset 14, -4
 343 01a2 89B0     		sub	sp, sp, #36
 344              		.cfi_def_cfa_offset 40
 345 01a4 0390     		str	r0, [sp, #12]
 346 01a6 0291     		str	r1, [sp, #8]
 347 01a8 0093     		str	r3, [sp]
 348 01aa 1346     		mov	r3, r2	@ movhi
 349 01ac ADF80630 		strh	r3, [sp, #6]	@ movhi
 350              		.loc 1 404 0
 351 01b0 FFF7FEFF 		bl	HAL_GetTick
 352 01b4 0690     		str	r0, [sp, #24]
 353              		.loc 1 405 0
 354 01b6 0023     		movs	r3, #0
 355 01b8 8DF81F30 		strb	r3, [sp, #31]
 356              		.loc 1 410 0
 357 01bc 039B     		ldr	r3, [sp, #12]
 358 01be 93F85C30 		ldrb	r3, [r3, #92]	@ zero_extendqisi2
 359 01c2 012B     		cmp	r3, #1
 360 01c4 01D1     		bne	.L17
 361              		.loc 1 410 0 is_stmt 0 discriminator 1
 362 01c6 0223     		movs	r3, #2
 363 01c8 1AE1     		b	.L18
 364              	.L17:
 365              		.loc 1 410 0 discriminator 2
 366 01ca 039B     		ldr	r3, [sp, #12]
 367 01cc 0122     		movs	r2, #1
 368 01ce 83F85C20 		strb	r2, [r3, #92]
 369              		.loc 1 412 0 is_stmt 1 discriminator 2
 370 01d2 039B     		ldr	r3, [sp, #12]
 371 01d4 93F85D30 		ldrb	r3, [r3, #93]
 372 01d8 DBB2     		uxtb	r3, r3
 373 01da 012B     		cmp	r3, #1
 374 01dc 03D0     		beq	.L19
 375              		.loc 1 414 0
 376 01de 0223     		movs	r3, #2
 377 01e0 8DF81F30 		strb	r3, [sp, #31]
 378              		.loc 1 415 0
 379 01e4 02E1     		b	.L20
 380              	.L19:
 381              		.loc 1 418 0
 382 01e6 029B     		ldr	r3, [sp, #8]
 383 01e8 002B     		cmp	r3, #0
 384 01ea 03D0     		beq	.L21
 385              		.loc 1 418 0 is_stmt 0 discriminator 1
 386 01ec BDF80630 		ldrh	r3, [sp, #6]
 387 01f0 002B     		cmp	r3, #0
 388 01f2 03D1     		bne	.L22
 389              	.L21:
 390              		.loc 1 420 0 is_stmt 1
 391 01f4 0123     		movs	r3, #1
 392 01f6 8DF81F30 		strb	r3, [sp, #31]
 393              		.loc 1 421 0
 394 01fa F7E0     		b	.L20
 395              	.L22:
 396              		.loc 1 425 0
 397 01fc 039B     		ldr	r3, [sp, #12]
ARM GAS  /tmp/cc34cfqS.s 			page 8


 398 01fe 0322     		movs	r2, #3
 399 0200 83F85D20 		strb	r2, [r3, #93]
 400              		.loc 1 426 0
 401 0204 039B     		ldr	r3, [sp, #12]
 402 0206 0022     		movs	r2, #0
 403 0208 1A66     		str	r2, [r3, #96]
 404              		.loc 1 427 0
 405 020a 039B     		ldr	r3, [sp, #12]
 406 020c 029A     		ldr	r2, [sp, #8]
 407 020e 9A63     		str	r2, [r3, #56]
 408              		.loc 1 428 0
 409 0210 039B     		ldr	r3, [sp, #12]
 410 0212 BDF80620 		ldrh	r2, [sp, #6]	@ movhi
 411 0216 9A87     		strh	r2, [r3, #60]	@ movhi
 412              		.loc 1 429 0
 413 0218 039B     		ldr	r3, [sp, #12]
 414 021a BDF80620 		ldrh	r2, [sp, #6]	@ movhi
 415 021e DA87     		strh	r2, [r3, #62]	@ movhi
 416              		.loc 1 430 0
 417 0220 039B     		ldr	r3, [sp, #12]
 418 0222 0022     		movs	r2, #0
 419 0224 1A64     		str	r2, [r3, #64]
 420              		.loc 1 431 0
 421 0226 039B     		ldr	r3, [sp, #12]
 422 0228 0022     		movs	r2, #0
 423 022a A3F84420 		strh	r2, [r3, #68]	@ movhi
 424              		.loc 1 432 0
 425 022e 039B     		ldr	r3, [sp, #12]
 426 0230 0022     		movs	r2, #0
 427 0232 A3F84620 		strh	r2, [r3, #70]	@ movhi
 428              		.loc 1 435 0
 429 0236 039B     		ldr	r3, [sp, #12]
 430 0238 9B68     		ldr	r3, [r3, #8]
 431 023a B3F5004F 		cmp	r3, #32768
 432 023e 07D1     		bne	.L23
 433              		.loc 1 437 0
 434 0240 039B     		ldr	r3, [sp, #12]
 435 0242 1B68     		ldr	r3, [r3]
 436 0244 039A     		ldr	r2, [sp, #12]
 437 0246 1268     		ldr	r2, [r2]
 438 0248 1268     		ldr	r2, [r2]
 439 024a 42F48042 		orr	r2, r2, #16384
 440 024e 1A60     		str	r2, [r3]
 441              	.L23:
 442              		.loc 1 441 0
 443 0250 039B     		ldr	r3, [sp, #12]
 444 0252 9B6A     		ldr	r3, [r3, #40]
 445 0254 B3F5005F 		cmp	r3, #8192
 446 0258 10D1     		bne	.L24
 447              		.loc 1 443 0
 448 025a 039B     		ldr	r3, [sp, #12]
 449 025c 1A68     		ldr	r2, [r3]
 450 025e 039B     		ldr	r3, [sp, #12]
 451 0260 1B68     		ldr	r3, [r3]
 452 0262 1968     		ldr	r1, [r3]
 453 0264 4DF6FF73 		movw	r3, #57343
 454 0268 0B40     		ands	r3, r3, r1
ARM GAS  /tmp/cc34cfqS.s 			page 9


 455 026a 1360     		str	r3, [r2]
 456 026c 039B     		ldr	r3, [sp, #12]
 457 026e 1B68     		ldr	r3, [r3]
 458 0270 039A     		ldr	r2, [sp, #12]
 459 0272 1268     		ldr	r2, [r2]
 460 0274 1268     		ldr	r2, [r2]
 461 0276 42F40052 		orr	r2, r2, #8192
 462 027a 1A60     		str	r2, [r3]
 463              	.L24:
 464              		.loc 1 447 0
 465 027c 039B     		ldr	r3, [sp, #12]
 466 027e 1B68     		ldr	r3, [r3]
 467 0280 1B68     		ldr	r3, [r3]
 468 0282 03F04003 		and	r3, r3, #64
 469 0286 002B     		cmp	r3, #0
 470 0288 07D1     		bne	.L25
 471              		.loc 1 450 0
 472 028a 039B     		ldr	r3, [sp, #12]
 473 028c 1B68     		ldr	r3, [r3]
 474 028e 039A     		ldr	r2, [sp, #12]
 475 0290 1268     		ldr	r2, [r2]
 476 0292 1268     		ldr	r2, [r2]
 477 0294 42F04002 		orr	r2, r2, #64
 478 0298 1A60     		str	r2, [r3]
 479              	.L25:
 480              		.loc 1 454 0
 481 029a 039B     		ldr	r3, [sp, #12]
 482 029c DB68     		ldr	r3, [r3, #12]
 483 029e B3F5E06F 		cmp	r3, #1792
 484 02a2 31D9     		bls	.L26
 485              		.loc 1 457 0
 486 02a4 2BE0     		b	.L27
 487              	.L30:
 488              		.loc 1 460 0
 489 02a6 039B     		ldr	r3, [sp, #12]
 490 02a8 1B68     		ldr	r3, [r3]
 491 02aa 9B68     		ldr	r3, [r3, #8]
 492 02ac 03F00203 		and	r3, r3, #2
 493 02b0 002B     		cmp	r3, #0
 494 02b2 11D0     		beq	.L28
 495              		.loc 1 462 0
 496 02b4 039B     		ldr	r3, [sp, #12]
 497 02b6 1B68     		ldr	r3, [r3]
 498 02b8 039A     		ldr	r2, [sp, #12]
 499 02ba 926B     		ldr	r2, [r2, #56]
 500 02bc 1288     		ldrh	r2, [r2]
 501 02be DA60     		str	r2, [r3, #12]
 502              		.loc 1 463 0
 503 02c0 039B     		ldr	r3, [sp, #12]
 504 02c2 9B6B     		ldr	r3, [r3, #56]
 505 02c4 9A1C     		adds	r2, r3, #2
 506 02c6 039B     		ldr	r3, [sp, #12]
 507 02c8 9A63     		str	r2, [r3, #56]
 508              		.loc 1 464 0
 509 02ca 039B     		ldr	r3, [sp, #12]
 510 02cc DB8F     		ldrh	r3, [r3, #62]
 511 02ce 013B     		subs	r3, r3, #1
ARM GAS  /tmp/cc34cfqS.s 			page 10


 512 02d0 9AB2     		uxth	r2, r3
 513 02d2 039B     		ldr	r3, [sp, #12]
 514 02d4 DA87     		strh	r2, [r3, #62]	@ movhi
 515 02d6 12E0     		b	.L27
 516              	.L28:
 517              		.loc 1 469 0
 518 02d8 009B     		ldr	r3, [sp]
 519 02da 002B     		cmp	r3, #0
 520 02dc 0BD0     		beq	.L29
 521              		.loc 1 469 0 is_stmt 0 discriminator 1
 522 02de 009B     		ldr	r3, [sp]
 523 02e0 B3F1FF3F 		cmp	r3, #-1
 524 02e4 0BD0     		beq	.L27
 525 02e6 FFF7FEFF 		bl	HAL_GetTick
 526 02ea 0246     		mov	r2, r0
 527 02ec 069B     		ldr	r3, [sp, #24]
 528 02ee D21A     		subs	r2, r2, r3
 529 02f0 009B     		ldr	r3, [sp]
 530 02f2 9A42     		cmp	r2, r3
 531 02f4 03D3     		bcc	.L27
 532              	.L29:
 533              		.loc 1 471 0 is_stmt 1
 534 02f6 0323     		movs	r3, #3
 535 02f8 8DF81F30 		strb	r3, [sp, #31]
 536              		.loc 1 472 0
 537 02fc 76E0     		b	.L20
 538              	.L27:
 539              		.loc 1 457 0 discriminator 1
 540 02fe 039B     		ldr	r3, [sp, #12]
 541 0300 DB8F     		ldrh	r3, [r3, #62]
 542 0302 002B     		cmp	r3, #0
 543 0304 CFD1     		bne	.L30
 544 0306 46E0     		b	.L31
 545              	.L26:
 546              		.loc 1 480 0
 547 0308 41E0     		b	.L32
 548              	.L37:
 549              		.loc 1 483 0
 550 030a 039B     		ldr	r3, [sp, #12]
 551 030c 1B68     		ldr	r3, [r3]
 552 030e 9B68     		ldr	r3, [r3, #8]
 553 0310 03F00203 		and	r3, r3, #2
 554 0314 002B     		cmp	r3, #0
 555 0316 27D0     		beq	.L33
 556              		.loc 1 485 0
 557 0318 039B     		ldr	r3, [sp, #12]
 558 031a DB8F     		ldrh	r3, [r3, #62]
 559 031c 012B     		cmp	r3, #1
 560 031e 11D9     		bls	.L34
 561              		.loc 1 488 0
 562 0320 039B     		ldr	r3, [sp, #12]
 563 0322 1B68     		ldr	r3, [r3]
 564 0324 039A     		ldr	r2, [sp, #12]
 565 0326 926B     		ldr	r2, [r2, #56]
 566 0328 1288     		ldrh	r2, [r2]
 567 032a DA60     		str	r2, [r3, #12]
 568              		.loc 1 489 0
ARM GAS  /tmp/cc34cfqS.s 			page 11


 569 032c 039B     		ldr	r3, [sp, #12]
 570 032e 9B6B     		ldr	r3, [r3, #56]
 571 0330 9A1C     		adds	r2, r3, #2
 572 0332 039B     		ldr	r3, [sp, #12]
 573 0334 9A63     		str	r2, [r3, #56]
 574              		.loc 1 490 0
 575 0336 039B     		ldr	r3, [sp, #12]
 576 0338 DB8F     		ldrh	r3, [r3, #62]
 577 033a 023B     		subs	r3, r3, #2
 578 033c 9AB2     		uxth	r2, r3
 579 033e 039B     		ldr	r3, [sp, #12]
 580 0340 DA87     		strh	r2, [r3, #62]	@ movhi
 581 0342 24E0     		b	.L32
 582              	.L34:
 583              		.loc 1 494 0
 584 0344 039B     		ldr	r3, [sp, #12]
 585 0346 1B68     		ldr	r3, [r3]
 586 0348 03F10C02 		add	r2, r3, #12
 587 034c 039B     		ldr	r3, [sp, #12]
 588 034e 9B6B     		ldr	r3, [r3, #56]
 589 0350 581C     		adds	r0, r3, #1
 590 0352 0399     		ldr	r1, [sp, #12]
 591 0354 8863     		str	r0, [r1, #56]
 592 0356 1B78     		ldrb	r3, [r3]	@ zero_extendqisi2
 593 0358 1370     		strb	r3, [r2]
 594              		.loc 1 495 0
 595 035a 039B     		ldr	r3, [sp, #12]
 596 035c DB8F     		ldrh	r3, [r3, #62]
 597 035e 013B     		subs	r3, r3, #1
 598 0360 9AB2     		uxth	r2, r3
 599 0362 039B     		ldr	r3, [sp, #12]
 600 0364 DA87     		strh	r2, [r3, #62]	@ movhi
 601 0366 12E0     		b	.L32
 602              	.L33:
 603              		.loc 1 501 0
 604 0368 009B     		ldr	r3, [sp]
 605 036a 002B     		cmp	r3, #0
 606 036c 0BD0     		beq	.L36
 607              		.loc 1 501 0 is_stmt 0 discriminator 1
 608 036e 009B     		ldr	r3, [sp]
 609 0370 B3F1FF3F 		cmp	r3, #-1
 610 0374 0BD0     		beq	.L32
 611 0376 FFF7FEFF 		bl	HAL_GetTick
 612 037a 0246     		mov	r2, r0
 613 037c 069B     		ldr	r3, [sp, #24]
 614 037e D21A     		subs	r2, r2, r3
 615 0380 009B     		ldr	r3, [sp]
 616 0382 9A42     		cmp	r2, r3
 617 0384 03D3     		bcc	.L32
 618              	.L36:
 619              		.loc 1 503 0 is_stmt 1
 620 0386 0323     		movs	r3, #3
 621 0388 8DF81F30 		strb	r3, [sp, #31]
 622              		.loc 1 504 0
 623 038c 2EE0     		b	.L20
 624              	.L32:
 625              		.loc 1 480 0 discriminator 1
ARM GAS  /tmp/cc34cfqS.s 			page 12


 626 038e 039B     		ldr	r3, [sp, #12]
 627 0390 DB8F     		ldrh	r3, [r3, #62]
 628 0392 002B     		cmp	r3, #0
 629 0394 B9D1     		bne	.L37
 630              	.L31:
 631              		.loc 1 511 0
 632 0396 039B     		ldr	r3, [sp, #12]
 633 0398 9B6A     		ldr	r3, [r3, #40]
 634 039a B3F5005F 		cmp	r3, #8192
 635 039e 07D1     		bne	.L38
 636              		.loc 1 513 0
 637 03a0 039B     		ldr	r3, [sp, #12]
 638 03a2 1B68     		ldr	r3, [r3]
 639 03a4 039A     		ldr	r2, [sp, #12]
 640 03a6 1268     		ldr	r2, [r2]
 641 03a8 1268     		ldr	r2, [r2]
 642 03aa 42F48052 		orr	r2, r2, #4096
 643 03ae 1A60     		str	r2, [r3]
 644              	.L38:
 645              		.loc 1 517 0
 646 03b0 0398     		ldr	r0, [sp, #12]
 647 03b2 0099     		ldr	r1, [sp]
 648 03b4 02F0ACF8 		bl	SPI_EndRxTxTransaction
 649 03b8 0346     		mov	r3, r0
 650 03ba 002B     		cmp	r3, #0
 651 03bc 02D0     		beq	.L39
 652              		.loc 1 519 0
 653 03be 039B     		ldr	r3, [sp, #12]
 654 03c0 2022     		movs	r2, #32
 655 03c2 1A66     		str	r2, [r3, #96]
 656              	.L39:
 657              		.loc 1 523 0
 658 03c4 039B     		ldr	r3, [sp, #12]
 659 03c6 9B68     		ldr	r3, [r3, #8]
 660 03c8 002B     		cmp	r3, #0
 661 03ca 08D1     		bne	.L40
 662              	.LBB2:
 663              		.loc 1 525 0
 664 03cc 039B     		ldr	r3, [sp, #12]
 665 03ce 1B68     		ldr	r3, [r3]
 666 03d0 DB68     		ldr	r3, [r3, #12]
 667 03d2 0593     		str	r3, [sp, #20]
 668 03d4 039B     		ldr	r3, [sp, #12]
 669 03d6 1B68     		ldr	r3, [r3]
 670 03d8 9B68     		ldr	r3, [r3, #8]
 671 03da 0593     		str	r3, [sp, #20]
 672 03dc 059B     		ldr	r3, [sp, #20]
 673              	.L40:
 674              	.LBE2:
 675              		.loc 1 528 0
 676 03de 039B     		ldr	r3, [sp, #12]
 677 03e0 1B6E     		ldr	r3, [r3, #96]
 678 03e2 002B     		cmp	r3, #0
 679 03e4 02D0     		beq	.L20
 680              		.loc 1 530 0
 681 03e6 0123     		movs	r3, #1
 682 03e8 8DF81F30 		strb	r3, [sp, #31]
ARM GAS  /tmp/cc34cfqS.s 			page 13


 683              	.L20:
 684              		.loc 1 534 0
 685 03ec 039B     		ldr	r3, [sp, #12]
 686 03ee 0122     		movs	r2, #1
 687 03f0 83F85D20 		strb	r2, [r3, #93]
 688              		.loc 1 536 0
 689 03f4 039B     		ldr	r3, [sp, #12]
 690 03f6 0022     		movs	r2, #0
 691 03f8 83F85C20 		strb	r2, [r3, #92]
 692              		.loc 1 537 0
 693 03fc 9DF81F30 		ldrb	r3, [sp, #31]	@ zero_extendqisi2
 694              	.L18:
 695              		.loc 1 538 0
 696 0400 1846     		mov	r0, r3
 697 0402 09B0     		add	sp, sp, #36
 698              		@ sp needed
 699 0404 5DF804FB 		ldr	pc, [sp], #4
 700              		.cfi_endproc
 701              	.LFE129:
 702              		.size	HAL_SPI_Transmit, .-HAL_SPI_Transmit
 703              		.align	2
 704 0408 AFF30080 		.p2align 4,,15
 704      AFF30080 
 705              		.global	HAL_SPI_Receive
 706              		.thumb
 707              		.thumb_func
 708              		.type	HAL_SPI_Receive, %function
 709              	HAL_SPI_Receive:
 710              	.LFB130:
 711              		.loc 1 550 0
 712              		.cfi_startproc
 713              		@ args = 0, pretend = 0, frame = 32
 714              		@ frame_needed = 0, uses_anonymous_args = 0
 715 0410 00B5     		push	{lr}
 716              		.cfi_def_cfa_offset 4
 717              		.cfi_offset 14, -4
 718 0412 8BB0     		sub	sp, sp, #44
 719              		.cfi_def_cfa_offset 48
 720 0414 0590     		str	r0, [sp, #20]
 721 0416 0491     		str	r1, [sp, #16]
 722 0418 0293     		str	r3, [sp, #8]
 723 041a 1346     		mov	r3, r2	@ movhi
 724 041c ADF80E30 		strh	r3, [sp, #14]	@ movhi
 725              		.loc 1 552 0
 726 0420 FFF7FEFF 		bl	HAL_GetTick
 727 0424 0890     		str	r0, [sp, #32]
 728              		.loc 1 553 0
 729 0426 0023     		movs	r3, #0
 730 0428 8DF82730 		strb	r3, [sp, #39]
 731              		.loc 1 555 0
 732 042c 059B     		ldr	r3, [sp, #20]
 733 042e 5B68     		ldr	r3, [r3, #4]
 734 0430 B3F5827F 		cmp	r3, #260
 735 0434 0ED1     		bne	.L42
 736              		.loc 1 555 0 is_stmt 0 discriminator 1
 737 0436 059B     		ldr	r3, [sp, #20]
 738 0438 9B68     		ldr	r3, [r3, #8]
ARM GAS  /tmp/cc34cfqS.s 			page 14


 739 043a 002B     		cmp	r3, #0
 740 043c 0AD1     		bne	.L42
 741              		.loc 1 560 0 is_stmt 1
 742 043e BDF80E30 		ldrh	r3, [sp, #14]
 743 0442 029A     		ldr	r2, [sp, #8]
 744 0444 0092     		str	r2, [sp]
 745 0446 0598     		ldr	r0, [sp, #20]
 746 0448 0499     		ldr	r1, [sp, #16]
 747 044a 049A     		ldr	r2, [sp, #16]
 748 044c FFF7FEFF 		bl	HAL_SPI_TransmitReceive
 749 0450 0346     		mov	r3, r0
 750 0452 A0E1     		b	.L43
 751              	.L42:
 752              		.loc 1 564 0
 753 0454 059B     		ldr	r3, [sp, #20]
 754 0456 93F85C30 		ldrb	r3, [r3, #92]	@ zero_extendqisi2
 755 045a 012B     		cmp	r3, #1
 756 045c 01D1     		bne	.L44
 757              		.loc 1 564 0 is_stmt 0 discriminator 1
 758 045e 0223     		movs	r3, #2
 759 0460 99E1     		b	.L43
 760              	.L44:
 761              		.loc 1 564 0 discriminator 2
 762 0462 059B     		ldr	r3, [sp, #20]
 763 0464 0122     		movs	r2, #1
 764 0466 83F85C20 		strb	r2, [r3, #92]
 765              		.loc 1 566 0 is_stmt 1 discriminator 2
 766 046a 059B     		ldr	r3, [sp, #20]
 767 046c 93F85D30 		ldrb	r3, [r3, #93]
 768 0470 DBB2     		uxtb	r3, r3
 769 0472 012B     		cmp	r3, #1
 770 0474 03D0     		beq	.L45
 771              		.loc 1 568 0
 772 0476 0223     		movs	r3, #2
 773 0478 8DF82730 		strb	r3, [sp, #39]
 774              		.loc 1 569 0
 775 047c 81E1     		b	.L46
 776              	.L45:
 777              		.loc 1 572 0
 778 047e 049B     		ldr	r3, [sp, #16]
 779 0480 002B     		cmp	r3, #0
 780 0482 03D0     		beq	.L47
 781              		.loc 1 572 0 is_stmt 0 discriminator 1
 782 0484 BDF80E30 		ldrh	r3, [sp, #14]
 783 0488 002B     		cmp	r3, #0
 784 048a 03D1     		bne	.L48
 785              	.L47:
 786              		.loc 1 574 0 is_stmt 1
 787 048c 0123     		movs	r3, #1
 788 048e 8DF82730 		strb	r3, [sp, #39]
 789              		.loc 1 575 0
 790 0492 76E1     		b	.L46
 791              	.L48:
 792              		.loc 1 578 0
 793 0494 059B     		ldr	r3, [sp, #20]
 794 0496 0422     		movs	r2, #4
 795 0498 83F85D20 		strb	r2, [r3, #93]
ARM GAS  /tmp/cc34cfqS.s 			page 15


 796              		.loc 1 579 0
 797 049c 059B     		ldr	r3, [sp, #20]
 798 049e 0022     		movs	r2, #0
 799 04a0 1A66     		str	r2, [r3, #96]
 800              		.loc 1 580 0
 801 04a2 059B     		ldr	r3, [sp, #20]
 802 04a4 049A     		ldr	r2, [sp, #16]
 803 04a6 1A64     		str	r2, [r3, #64]
 804              		.loc 1 581 0
 805 04a8 059B     		ldr	r3, [sp, #20]
 806 04aa BDF80E20 		ldrh	r2, [sp, #14]	@ movhi
 807 04ae A3F84420 		strh	r2, [r3, #68]	@ movhi
 808              		.loc 1 582 0
 809 04b2 059B     		ldr	r3, [sp, #20]
 810 04b4 BDF80E20 		ldrh	r2, [sp, #14]	@ movhi
 811 04b8 A3F84620 		strh	r2, [r3, #70]	@ movhi
 812              		.loc 1 583 0
 813 04bc 059B     		ldr	r3, [sp, #20]
 814 04be 0022     		movs	r2, #0
 815 04c0 9A63     		str	r2, [r3, #56]
 816              		.loc 1 584 0
 817 04c2 059B     		ldr	r3, [sp, #20]
 818 04c4 0022     		movs	r2, #0
 819 04c6 9A87     		strh	r2, [r3, #60]	@ movhi
 820              		.loc 1 585 0
 821 04c8 059B     		ldr	r3, [sp, #20]
 822 04ca 0022     		movs	r2, #0
 823 04cc DA87     		strh	r2, [r3, #62]	@ movhi
 824              		.loc 1 588 0
 825 04ce 059B     		ldr	r3, [sp, #20]
 826 04d0 9B6A     		ldr	r3, [r3, #40]
 827 04d2 B3F5005F 		cmp	r3, #8192
 828 04d6 18D1     		bne	.L49
 829              		.loc 1 590 0
 830 04d8 059B     		ldr	r3, [sp, #20]
 831 04da 1A68     		ldr	r2, [r3]
 832 04dc 059B     		ldr	r3, [sp, #20]
 833 04de 1B68     		ldr	r3, [r3]
 834 04e0 1968     		ldr	r1, [r3]
 835 04e2 4DF6FF73 		movw	r3, #57343
 836 04e6 0B40     		ands	r3, r3, r1
 837 04e8 1360     		str	r3, [r2]
 838 04ea 059B     		ldr	r3, [sp, #20]
 839 04ec 1B68     		ldr	r3, [r3]
 840 04ee 059A     		ldr	r2, [sp, #20]
 841 04f0 1268     		ldr	r2, [r2]
 842 04f2 1268     		ldr	r2, [r2]
 843 04f4 42F40052 		orr	r2, r2, #8192
 844 04f8 1A60     		str	r2, [r3]
 845              		.loc 1 592 0
 846 04fa 059B     		ldr	r3, [sp, #20]
 847 04fc B3F84630 		ldrh	r3, [r3, #70]
 848 0500 013B     		subs	r3, r3, #1
 849 0502 9AB2     		uxth	r2, r3
 850 0504 059B     		ldr	r3, [sp, #20]
 851 0506 A3F84620 		strh	r2, [r3, #70]	@ movhi
 852              	.L49:
ARM GAS  /tmp/cc34cfqS.s 			page 16


 853              		.loc 1 596 0
 854 050a 059B     		ldr	r3, [sp, #20]
 855 050c DB68     		ldr	r3, [r3, #12]
 856 050e B3F5E06F 		cmp	r3, #1792
 857 0512 08D9     		bls	.L50
 858              		.loc 1 599 0
 859 0514 059B     		ldr	r3, [sp, #20]
 860 0516 1B68     		ldr	r3, [r3]
 861 0518 059A     		ldr	r2, [sp, #20]
 862 051a 1268     		ldr	r2, [r2]
 863 051c 5268     		ldr	r2, [r2, #4]
 864 051e 22F48052 		bic	r2, r2, #4096
 865 0522 5A60     		str	r2, [r3, #4]
 866 0524 07E0     		b	.L51
 867              	.L50:
 868              		.loc 1 604 0
 869 0526 059B     		ldr	r3, [sp, #20]
 870 0528 1B68     		ldr	r3, [r3]
 871 052a 059A     		ldr	r2, [sp, #20]
 872 052c 1268     		ldr	r2, [r2]
 873 052e 5268     		ldr	r2, [r2, #4]
 874 0530 42F48052 		orr	r2, r2, #4096
 875 0534 5A60     		str	r2, [r3, #4]
 876              	.L51:
 877              		.loc 1 608 0
 878 0536 059B     		ldr	r3, [sp, #20]
 879 0538 9B68     		ldr	r3, [r3, #8]
 880 053a B3F5004F 		cmp	r3, #32768
 881 053e 07D1     		bne	.L52
 882              		.loc 1 610 0
 883 0540 059B     		ldr	r3, [sp, #20]
 884 0542 1B68     		ldr	r3, [r3]
 885 0544 059A     		ldr	r2, [sp, #20]
 886 0546 1268     		ldr	r2, [r2]
 887 0548 1268     		ldr	r2, [r2]
 888 054a 22F48042 		bic	r2, r2, #16384
 889 054e 1A60     		str	r2, [r3]
 890              	.L52:
 891              		.loc 1 614 0
 892 0550 059B     		ldr	r3, [sp, #20]
 893 0552 1B68     		ldr	r3, [r3]
 894 0554 1B68     		ldr	r3, [r3]
 895 0556 03F04003 		and	r3, r3, #64
 896 055a 002B     		cmp	r3, #0
 897 055c 07D1     		bne	.L53
 898              		.loc 1 617 0
 899 055e 059B     		ldr	r3, [sp, #20]
 900 0560 1B68     		ldr	r3, [r3]
 901 0562 059A     		ldr	r2, [sp, #20]
 902 0564 1268     		ldr	r2, [r2]
 903 0566 1268     		ldr	r2, [r2]
 904 0568 42F04002 		orr	r2, r2, #64
 905 056c 1A60     		str	r2, [r3]
 906              	.L53:
 907              		.loc 1 620 0
 908 056e 059B     		ldr	r3, [sp, #20]
 909 0570 DB68     		ldr	r3, [r3, #12]
ARM GAS  /tmp/cc34cfqS.s 			page 17


 910 0572 B3F5E06F 		cmp	r3, #1792
 911 0576 34D8     		bhi	.L54
 912              		.loc 1 623 0
 913 0578 2DE0     		b	.L55
 914              	.L58:
 915              		.loc 1 626 0
 916 057a 059B     		ldr	r3, [sp, #20]
 917 057c 1B68     		ldr	r3, [r3]
 918 057e 9B68     		ldr	r3, [r3, #8]
 919 0580 03F00103 		and	r3, r3, #1
 920 0584 002B     		cmp	r3, #0
 921 0586 13D0     		beq	.L56
 922              		.loc 1 629 0
 923 0588 059B     		ldr	r3, [sp, #20]
 924 058a 1B6C     		ldr	r3, [r3, #64]
 925 058c 591C     		adds	r1, r3, #1
 926 058e 059A     		ldr	r2, [sp, #20]
 927 0590 1164     		str	r1, [r2, #64]
 928 0592 059A     		ldr	r2, [sp, #20]
 929 0594 1268     		ldr	r2, [r2]
 930 0596 0C32     		adds	r2, r2, #12
 931 0598 1278     		ldrb	r2, [r2]
 932 059a D2B2     		uxtb	r2, r2
 933 059c 1A70     		strb	r2, [r3]
 934              		.loc 1 630 0
 935 059e 059B     		ldr	r3, [sp, #20]
 936 05a0 B3F84630 		ldrh	r3, [r3, #70]
 937 05a4 013B     		subs	r3, r3, #1
 938 05a6 9AB2     		uxth	r2, r3
 939 05a8 059B     		ldr	r3, [sp, #20]
 940 05aa A3F84620 		strh	r2, [r3, #70]	@ movhi
 941 05ae 12E0     		b	.L55
 942              	.L56:
 943              		.loc 1 635 0
 944 05b0 029B     		ldr	r3, [sp, #8]
 945 05b2 002B     		cmp	r3, #0
 946 05b4 0BD0     		beq	.L57
 947              		.loc 1 635 0 is_stmt 0 discriminator 1
 948 05b6 029B     		ldr	r3, [sp, #8]
 949 05b8 B3F1FF3F 		cmp	r3, #-1
 950 05bc 0BD0     		beq	.L55
 951 05be FFF7FEFF 		bl	HAL_GetTick
 952 05c2 0246     		mov	r2, r0
 953 05c4 089B     		ldr	r3, [sp, #32]
 954 05c6 D21A     		subs	r2, r2, r3
 955 05c8 029B     		ldr	r3, [sp, #8]
 956 05ca 9A42     		cmp	r2, r3
 957 05cc 03D3     		bcc	.L55
 958              	.L57:
 959              		.loc 1 637 0 is_stmt 1
 960 05ce 0323     		movs	r3, #3
 961 05d0 8DF82730 		strb	r3, [sp, #39]
 962              		.loc 1 638 0
 963 05d4 D5E0     		b	.L46
 964              	.L55:
 965              		.loc 1 623 0 discriminator 1
 966 05d6 059B     		ldr	r3, [sp, #20]
ARM GAS  /tmp/cc34cfqS.s 			page 18


 967 05d8 B3F84630 		ldrh	r3, [r3, #70]
 968 05dc 002B     		cmp	r3, #0
 969 05de CCD1     		bne	.L58
 970 05e0 34E0     		b	.L59
 971              	.L54:
 972              		.loc 1 646 0
 973 05e2 2EE0     		b	.L60
 974              	.L63:
 975              		.loc 1 649 0
 976 05e4 059B     		ldr	r3, [sp, #20]
 977 05e6 1B68     		ldr	r3, [r3]
 978 05e8 9B68     		ldr	r3, [r3, #8]
 979 05ea 03F00103 		and	r3, r3, #1
 980 05ee 002B     		cmp	r3, #0
 981 05f0 14D0     		beq	.L61
 982              		.loc 1 651 0
 983 05f2 059B     		ldr	r3, [sp, #20]
 984 05f4 1B6C     		ldr	r3, [r3, #64]
 985 05f6 059A     		ldr	r2, [sp, #20]
 986 05f8 1268     		ldr	r2, [r2]
 987 05fa D268     		ldr	r2, [r2, #12]
 988 05fc 92B2     		uxth	r2, r2
 989 05fe 1A80     		strh	r2, [r3]	@ movhi
 990              		.loc 1 652 0
 991 0600 059B     		ldr	r3, [sp, #20]
 992 0602 1B6C     		ldr	r3, [r3, #64]
 993 0604 9A1C     		adds	r2, r3, #2
 994 0606 059B     		ldr	r3, [sp, #20]
 995 0608 1A64     		str	r2, [r3, #64]
 996              		.loc 1 653 0
 997 060a 059B     		ldr	r3, [sp, #20]
 998 060c B3F84630 		ldrh	r3, [r3, #70]
 999 0610 013B     		subs	r3, r3, #1
 1000 0612 9AB2     		uxth	r2, r3
 1001 0614 059B     		ldr	r3, [sp, #20]
 1002 0616 A3F84620 		strh	r2, [r3, #70]	@ movhi
 1003 061a 12E0     		b	.L60
 1004              	.L61:
 1005              		.loc 1 658 0
 1006 061c 029B     		ldr	r3, [sp, #8]
 1007 061e 002B     		cmp	r3, #0
 1008 0620 0BD0     		beq	.L62
 1009              		.loc 1 658 0 is_stmt 0 discriminator 1
 1010 0622 029B     		ldr	r3, [sp, #8]
 1011 0624 B3F1FF3F 		cmp	r3, #-1
 1012 0628 0BD0     		beq	.L60
 1013 062a FFF7FEFF 		bl	HAL_GetTick
 1014 062e 0246     		mov	r2, r0
 1015 0630 089B     		ldr	r3, [sp, #32]
 1016 0632 D21A     		subs	r2, r2, r3
 1017 0634 029B     		ldr	r3, [sp, #8]
 1018 0636 9A42     		cmp	r2, r3
 1019 0638 03D3     		bcc	.L60
 1020              	.L62:
 1021              		.loc 1 660 0 is_stmt 1
 1022 063a 0323     		movs	r3, #3
 1023 063c 8DF82730 		strb	r3, [sp, #39]
ARM GAS  /tmp/cc34cfqS.s 			page 19


 1024              		.loc 1 661 0
 1025 0640 9FE0     		b	.L46
 1026              	.L60:
 1027              		.loc 1 646 0 discriminator 1
 1028 0642 059B     		ldr	r3, [sp, #20]
 1029 0644 B3F84630 		ldrh	r3, [r3, #70]
 1030 0648 002B     		cmp	r3, #0
 1031 064a CBD1     		bne	.L63
 1032              	.L59:
 1033              		.loc 1 668 0
 1034 064c 059B     		ldr	r3, [sp, #20]
 1035 064e 9B6A     		ldr	r3, [r3, #40]
 1036 0650 B3F5005F 		cmp	r3, #8192
 1037 0654 72D1     		bne	.L64
 1038              		.loc 1 671 0
 1039 0656 059B     		ldr	r3, [sp, #20]
 1040 0658 1B68     		ldr	r3, [r3]
 1041 065a 059A     		ldr	r2, [sp, #20]
 1042 065c 1268     		ldr	r2, [r2]
 1043 065e 1268     		ldr	r2, [r2]
 1044 0660 42F48052 		orr	r2, r2, #4096
 1045 0664 1A60     		str	r2, [r3]
 1046              		.loc 1 674 0
 1047 0666 0598     		ldr	r0, [sp, #20]
 1048 0668 0121     		movs	r1, #1
 1049 066a 0122     		movs	r2, #1
 1050 066c 029B     		ldr	r3, [sp, #8]
 1051 066e 01F017FE 		bl	SPI_WaitFlagStateUntilTimeout
 1052 0672 0346     		mov	r3, r0
 1053 0674 002B     		cmp	r3, #0
 1054 0676 03D0     		beq	.L65
 1055              		.loc 1 677 0
 1056 0678 0323     		movs	r3, #3
 1057 067a 8DF82730 		strb	r3, [sp, #39]
 1058              		.loc 1 678 0
 1059 067e 80E0     		b	.L46
 1060              	.L65:
 1061              		.loc 1 682 0
 1062 0680 059B     		ldr	r3, [sp, #20]
 1063 0682 DB68     		ldr	r3, [r3, #12]
 1064 0684 B3F5E06F 		cmp	r3, #1792
 1065 0688 07D9     		bls	.L66
 1066              		.loc 1 684 0
 1067 068a 059B     		ldr	r3, [sp, #20]
 1068 068c 1B6C     		ldr	r3, [r3, #64]
 1069 068e 059A     		ldr	r2, [sp, #20]
 1070 0690 1268     		ldr	r2, [r2]
 1071 0692 D268     		ldr	r2, [r2, #12]
 1072 0694 92B2     		uxth	r2, r2
 1073 0696 1A80     		strh	r2, [r3]	@ movhi
 1074 0698 07E0     		b	.L67
 1075              	.L66:
 1076              		.loc 1 689 0
 1077 069a 059B     		ldr	r3, [sp, #20]
 1078 069c 1B6C     		ldr	r3, [r3, #64]
 1079 069e 059A     		ldr	r2, [sp, #20]
 1080 06a0 1268     		ldr	r2, [r2]
ARM GAS  /tmp/cc34cfqS.s 			page 20


 1081 06a2 0C32     		adds	r2, r2, #12
 1082 06a4 1278     		ldrb	r2, [r2]
 1083 06a6 D2B2     		uxtb	r2, r2
 1084 06a8 1A70     		strb	r2, [r3]
 1085              	.L67:
 1086              		.loc 1 693 0
 1087 06aa 0598     		ldr	r0, [sp, #20]
 1088 06ac 0121     		movs	r1, #1
 1089 06ae 0122     		movs	r2, #1
 1090 06b0 029B     		ldr	r3, [sp, #8]
 1091 06b2 01F0F5FD 		bl	SPI_WaitFlagStateUntilTimeout
 1092 06b6 0346     		mov	r3, r0
 1093 06b8 002B     		cmp	r3, #0
 1094 06ba 06D0     		beq	.L68
 1095              		.loc 1 696 0
 1096 06bc 059B     		ldr	r3, [sp, #20]
 1097 06be 0222     		movs	r2, #2
 1098 06c0 1A66     		str	r2, [r3, #96]
 1099              		.loc 1 697 0
 1100 06c2 0323     		movs	r3, #3
 1101 06c4 8DF82730 		strb	r3, [sp, #39]
 1102              		.loc 1 698 0
 1103 06c8 5BE0     		b	.L46
 1104              	.L68:
 1105              		.loc 1 701 0
 1106 06ca 059B     		ldr	r3, [sp, #20]
 1107 06cc DB68     		ldr	r3, [r3, #12]
 1108 06ce B3F5706F 		cmp	r3, #3840
 1109 06d2 08D1     		bne	.L69
 1110              		.loc 1 703 0
 1111 06d4 059B     		ldr	r3, [sp, #20]
 1112 06d6 1B68     		ldr	r3, [r3]
 1113 06d8 DB68     		ldr	r3, [r3, #12]
 1114 06da 9BB2     		uxth	r3, r3
 1115 06dc ADF81E30 		strh	r3, [sp, #30]	@ movhi
 1116              		.loc 1 704 0
 1117 06e0 BDF81E30 		ldrh	r3, [sp, #30]	@ movhi
 1118 06e4 2AE0     		b	.L64
 1119              	.L69:
 1120              		.loc 1 708 0
 1121 06e6 059B     		ldr	r3, [sp, #20]
 1122 06e8 1B68     		ldr	r3, [r3]
 1123 06ea 0C33     		adds	r3, r3, #12
 1124 06ec 1B78     		ldrb	r3, [r3]
 1125 06ee DBB2     		uxtb	r3, r3
 1126 06f0 ADF81E30 		strh	r3, [sp, #30]	@ movhi
 1127              		.loc 1 709 0
 1128 06f4 BDF81E30 		ldrh	r3, [sp, #30]	@ movhi
 1129              		.loc 1 711 0
 1130 06f8 059B     		ldr	r3, [sp, #20]
 1131 06fa DB68     		ldr	r3, [r3, #12]
 1132 06fc B3F5E06F 		cmp	r3, #1792
 1133 0700 1CD1     		bne	.L64
 1134              		.loc 1 711 0 is_stmt 0 discriminator 1
 1135 0702 059B     		ldr	r3, [sp, #20]
 1136 0704 1B6B     		ldr	r3, [r3, #48]
 1137 0706 022B     		cmp	r3, #2
ARM GAS  /tmp/cc34cfqS.s 			page 21


 1138 0708 18D1     		bne	.L64
 1139              		.loc 1 713 0 is_stmt 1
 1140 070a 0598     		ldr	r0, [sp, #20]
 1141 070c 0121     		movs	r1, #1
 1142 070e 0122     		movs	r2, #1
 1143 0710 029B     		ldr	r3, [sp, #8]
 1144 0712 01F0C5FD 		bl	SPI_WaitFlagStateUntilTimeout
 1145 0716 0346     		mov	r3, r0
 1146 0718 002B     		cmp	r3, #0
 1147 071a 06D0     		beq	.L70
 1148              		.loc 1 716 0
 1149 071c 059B     		ldr	r3, [sp, #20]
 1150 071e 0222     		movs	r2, #2
 1151 0720 1A66     		str	r2, [r3, #96]
 1152              		.loc 1 717 0
 1153 0722 0323     		movs	r3, #3
 1154 0724 8DF82730 		strb	r3, [sp, #39]
 1155              		.loc 1 718 0
 1156 0728 2BE0     		b	.L46
 1157              	.L70:
 1158              		.loc 1 720 0
 1159 072a 059B     		ldr	r3, [sp, #20]
 1160 072c 1B68     		ldr	r3, [r3]
 1161 072e 0C33     		adds	r3, r3, #12
 1162 0730 1B78     		ldrb	r3, [r3]
 1163 0732 DBB2     		uxtb	r3, r3
 1164 0734 ADF81E30 		strh	r3, [sp, #30]	@ movhi
 1165              		.loc 1 721 0
 1166 0738 BDF81E30 		ldrh	r3, [sp, #30]	@ movhi
 1167              	.L64:
 1168              		.loc 1 727 0
 1169 073c 0598     		ldr	r0, [sp, #20]
 1170 073e 0299     		ldr	r1, [sp, #8]
 1171 0740 01F08EFE 		bl	SPI_EndRxTransaction
 1172 0744 0346     		mov	r3, r0
 1173 0746 002B     		cmp	r3, #0
 1174 0748 02D0     		beq	.L71
 1175              		.loc 1 729 0
 1176 074a 059B     		ldr	r3, [sp, #20]
 1177 074c 2022     		movs	r2, #32
 1178 074e 1A66     		str	r2, [r3, #96]
 1179              	.L71:
 1180              		.loc 1 733 0
 1181 0750 059B     		ldr	r3, [sp, #20]
 1182 0752 1B68     		ldr	r3, [r3]
 1183 0754 9B68     		ldr	r3, [r3, #8]
 1184 0756 03F01003 		and	r3, r3, #16
 1185 075a 002B     		cmp	r3, #0
 1186 075c 0AD0     		beq	.L72
 1187              		.loc 1 735 0
 1188 075e 059B     		ldr	r3, [sp, #20]
 1189 0760 1B6E     		ldr	r3, [r3, #96]
 1190 0762 43F00202 		orr	r2, r3, #2
 1191 0766 059B     		ldr	r3, [sp, #20]
 1192 0768 1A66     		str	r2, [r3, #96]
 1193              		.loc 1 736 0
 1194 076a 059B     		ldr	r3, [sp, #20]
ARM GAS  /tmp/cc34cfqS.s 			page 22


 1195 076c 1B68     		ldr	r3, [r3]
 1196 076e 4FF6EF72 		movw	r2, #65519
 1197 0772 9A60     		str	r2, [r3, #8]
 1198              	.L72:
 1199              		.loc 1 739 0
 1200 0774 059B     		ldr	r3, [sp, #20]
 1201 0776 1B6E     		ldr	r3, [r3, #96]
 1202 0778 002B     		cmp	r3, #0
 1203 077a 02D0     		beq	.L46
 1204              		.loc 1 741 0
 1205 077c 0123     		movs	r3, #1
 1206 077e 8DF82730 		strb	r3, [sp, #39]
 1207              	.L46:
 1208              		.loc 1 745 0
 1209 0782 059B     		ldr	r3, [sp, #20]
 1210 0784 0122     		movs	r2, #1
 1211 0786 83F85D20 		strb	r2, [r3, #93]
 1212              		.loc 1 746 0
 1213 078a 059B     		ldr	r3, [sp, #20]
 1214 078c 0022     		movs	r2, #0
 1215 078e 83F85C20 		strb	r2, [r3, #92]
 1216              		.loc 1 747 0
 1217 0792 9DF82730 		ldrb	r3, [sp, #39]	@ zero_extendqisi2
 1218              	.L43:
 1219              		.loc 1 748 0
 1220 0796 1846     		mov	r0, r3
 1221 0798 0BB0     		add	sp, sp, #44
 1222              		@ sp needed
 1223 079a 5DF804FB 		ldr	pc, [sp], #4
 1224              		.cfi_endproc
 1225              	.LFE130:
 1226              		.size	HAL_SPI_Receive, .-HAL_SPI_Receive
 1227 079e 00BF     		.align	2
 1228              		.p2align 4,,15
 1229              		.global	HAL_SPI_TransmitReceive
 1230              		.thumb
 1231              		.thumb_func
 1232              		.type	HAL_SPI_TransmitReceive, %function
 1233              	HAL_SPI_TransmitReceive:
 1234              	.LFB131:
 1235              		.loc 1 761 0
 1236              		.cfi_startproc
 1237              		@ args = 4, pretend = 0, frame = 32
 1238              		@ frame_needed = 0, uses_anonymous_args = 0
 1239 07a0 00B5     		push	{lr}
 1240              		.cfi_def_cfa_offset 4
 1241              		.cfi_offset 14, -4
 1242 07a2 89B0     		sub	sp, sp, #36
 1243              		.cfi_def_cfa_offset 40
 1244 07a4 0390     		str	r0, [sp, #12]
 1245 07a6 0291     		str	r1, [sp, #8]
 1246 07a8 0192     		str	r2, [sp, #4]
 1247 07aa ADF80230 		strh	r3, [sp, #2]	@ movhi
 1248              		.loc 1 763 0
 1249 07ae FFF7FEFF 		bl	HAL_GetTick
 1250 07b2 0690     		str	r0, [sp, #24]
 1251              		.loc 1 764 0
ARM GAS  /tmp/cc34cfqS.s 			page 23


 1252 07b4 0023     		movs	r3, #0
 1253 07b6 8DF81F30 		strb	r3, [sp, #31]
 1254              		.loc 1 769 0
 1255 07ba 039B     		ldr	r3, [sp, #12]
 1256 07bc 93F85C30 		ldrb	r3, [r3, #92]	@ zero_extendqisi2
 1257 07c0 012B     		cmp	r3, #1
 1258 07c2 01D1     		bne	.L74
 1259              		.loc 1 769 0 is_stmt 0 discriminator 1
 1260 07c4 0223     		movs	r3, #2
 1261 07c6 0BE2     		b	.L75
 1262              	.L74:
 1263              		.loc 1 769 0 discriminator 2
 1264 07c8 039B     		ldr	r3, [sp, #12]
 1265 07ca 0122     		movs	r2, #1
 1266 07cc 83F85C20 		strb	r2, [r3, #92]
 1267              		.loc 1 771 0 is_stmt 1 discriminator 2
 1268 07d0 039B     		ldr	r3, [sp, #12]
 1269 07d2 93F85D30 		ldrb	r3, [r3, #93]
 1270 07d6 DBB2     		uxtb	r3, r3
 1271 07d8 012B     		cmp	r3, #1
 1272 07da 03D0     		beq	.L76
 1273              		.loc 1 773 0
 1274 07dc 0223     		movs	r3, #2
 1275 07de 8DF81F30 		strb	r3, [sp, #31]
 1276              		.loc 1 774 0
 1277 07e2 F3E1     		b	.L77
 1278              	.L76:
 1279              		.loc 1 777 0
 1280 07e4 029B     		ldr	r3, [sp, #8]
 1281 07e6 002B     		cmp	r3, #0
 1282 07e8 06D0     		beq	.L78
 1283              		.loc 1 777 0 is_stmt 0 discriminator 1
 1284 07ea 019B     		ldr	r3, [sp, #4]
 1285 07ec 002B     		cmp	r3, #0
 1286 07ee 03D0     		beq	.L78
 1287 07f0 BDF80230 		ldrh	r3, [sp, #2]
 1288 07f4 002B     		cmp	r3, #0
 1289 07f6 03D1     		bne	.L79
 1290              	.L78:
 1291              		.loc 1 779 0 is_stmt 1
 1292 07f8 0123     		movs	r3, #1
 1293 07fa 8DF81F30 		strb	r3, [sp, #31]
 1294              		.loc 1 780 0
 1295 07fe E5E1     		b	.L77
 1296              	.L79:
 1297              		.loc 1 783 0
 1298 0800 039B     		ldr	r3, [sp, #12]
 1299 0802 0522     		movs	r2, #5
 1300 0804 83F85D20 		strb	r2, [r3, #93]
 1301              		.loc 1 784 0
 1302 0808 039B     		ldr	r3, [sp, #12]
 1303 080a 0022     		movs	r2, #0
 1304 080c 1A66     		str	r2, [r3, #96]
 1305              		.loc 1 785 0
 1306 080e 039B     		ldr	r3, [sp, #12]
 1307 0810 019A     		ldr	r2, [sp, #4]
 1308 0812 1A64     		str	r2, [r3, #64]
ARM GAS  /tmp/cc34cfqS.s 			page 24


 1309              		.loc 1 786 0
 1310 0814 039B     		ldr	r3, [sp, #12]
 1311 0816 BDF80220 		ldrh	r2, [sp, #2]	@ movhi
 1312 081a A3F84620 		strh	r2, [r3, #70]	@ movhi
 1313              		.loc 1 787 0
 1314 081e 039B     		ldr	r3, [sp, #12]
 1315 0820 BDF80220 		ldrh	r2, [sp, #2]	@ movhi
 1316 0824 A3F84420 		strh	r2, [r3, #68]	@ movhi
 1317              		.loc 1 788 0
 1318 0828 039B     		ldr	r3, [sp, #12]
 1319 082a 029A     		ldr	r2, [sp, #8]
 1320 082c 9A63     		str	r2, [r3, #56]
 1321              		.loc 1 789 0
 1322 082e 039B     		ldr	r3, [sp, #12]
 1323 0830 BDF80220 		ldrh	r2, [sp, #2]	@ movhi
 1324 0834 DA87     		strh	r2, [r3, #62]	@ movhi
 1325              		.loc 1 790 0
 1326 0836 039B     		ldr	r3, [sp, #12]
 1327 0838 BDF80220 		ldrh	r2, [sp, #2]	@ movhi
 1328 083c 9A87     		strh	r2, [r3, #60]	@ movhi
 1329              		.loc 1 793 0
 1330 083e 039B     		ldr	r3, [sp, #12]
 1331 0840 9B6A     		ldr	r3, [r3, #40]
 1332 0842 B3F5005F 		cmp	r3, #8192
 1333 0846 10D1     		bne	.L80
 1334              		.loc 1 795 0
 1335 0848 039B     		ldr	r3, [sp, #12]
 1336 084a 1A68     		ldr	r2, [r3]
 1337 084c 039B     		ldr	r3, [sp, #12]
 1338 084e 1B68     		ldr	r3, [r3]
 1339 0850 1968     		ldr	r1, [r3]
 1340 0852 4DF6FF73 		movw	r3, #57343
 1341 0856 0B40     		ands	r3, r3, r1
 1342 0858 1360     		str	r3, [r2]
 1343 085a 039B     		ldr	r3, [sp, #12]
 1344 085c 1B68     		ldr	r3, [r3]
 1345 085e 039A     		ldr	r2, [sp, #12]
 1346 0860 1268     		ldr	r2, [r2]
 1347 0862 1268     		ldr	r2, [r2]
 1348 0864 42F40052 		orr	r2, r2, #8192
 1349 0868 1A60     		str	r2, [r3]
 1350              	.L80:
 1351              		.loc 1 799 0
 1352 086a 039B     		ldr	r3, [sp, #12]
 1353 086c DB68     		ldr	r3, [r3, #12]
 1354 086e B3F5E06F 		cmp	r3, #1792
 1355 0872 04D8     		bhi	.L81
 1356              		.loc 1 799 0 is_stmt 0 discriminator 1
 1357 0874 039B     		ldr	r3, [sp, #12]
 1358 0876 B3F84630 		ldrh	r3, [r3, #70]
 1359 087a 012B     		cmp	r3, #1
 1360 087c 08D9     		bls	.L82
 1361              	.L81:
 1362              		.loc 1 802 0 is_stmt 1
 1363 087e 039B     		ldr	r3, [sp, #12]
 1364 0880 1B68     		ldr	r3, [r3]
 1365 0882 039A     		ldr	r2, [sp, #12]
ARM GAS  /tmp/cc34cfqS.s 			page 25


 1366 0884 1268     		ldr	r2, [r2]
 1367 0886 5268     		ldr	r2, [r2, #4]
 1368 0888 22F48052 		bic	r2, r2, #4096
 1369 088c 5A60     		str	r2, [r3, #4]
 1370 088e 07E0     		b	.L83
 1371              	.L82:
 1372              		.loc 1 807 0
 1373 0890 039B     		ldr	r3, [sp, #12]
 1374 0892 1B68     		ldr	r3, [r3]
 1375 0894 039A     		ldr	r2, [sp, #12]
 1376 0896 1268     		ldr	r2, [r2]
 1377 0898 5268     		ldr	r2, [r2, #4]
 1378 089a 42F48052 		orr	r2, r2, #4096
 1379 089e 5A60     		str	r2, [r3, #4]
 1380              	.L83:
 1381              		.loc 1 811 0
 1382 08a0 039B     		ldr	r3, [sp, #12]
 1383 08a2 1B68     		ldr	r3, [r3]
 1384 08a4 1B68     		ldr	r3, [r3]
 1385 08a6 03F04003 		and	r3, r3, #64
 1386 08aa 002B     		cmp	r3, #0
 1387 08ac 07D1     		bne	.L84
 1388              		.loc 1 814 0
 1389 08ae 039B     		ldr	r3, [sp, #12]
 1390 08b0 1B68     		ldr	r3, [r3]
 1391 08b2 039A     		ldr	r2, [sp, #12]
 1392 08b4 1268     		ldr	r2, [r2]
 1393 08b6 1268     		ldr	r2, [r2]
 1394 08b8 42F04002 		orr	r2, r2, #64
 1395 08bc 1A60     		str	r2, [r3]
 1396              	.L84:
 1397              		.loc 1 818 0
 1398 08be 039B     		ldr	r3, [sp, #12]
 1399 08c0 DB68     		ldr	r3, [r3, #12]
 1400 08c2 B3F5E06F 		cmp	r3, #1792
 1401 08c6 67D9     		bls	.L85
 1402              		.loc 1 820 0
 1403 08c8 5CE0     		b	.L86
 1404              	.L89:
 1405              		.loc 1 823 0
 1406 08ca 039B     		ldr	r3, [sp, #12]
 1407 08cc DB8F     		ldrh	r3, [r3, #62]
 1408 08ce 002B     		cmp	r3, #0
 1409 08d0 28D0     		beq	.L87
 1410              		.loc 1 823 0 is_stmt 0 discriminator 1
 1411 08d2 039B     		ldr	r3, [sp, #12]
 1412 08d4 1B68     		ldr	r3, [r3]
 1413 08d6 9B68     		ldr	r3, [r3, #8]
 1414 08d8 03F00203 		and	r3, r3, #2
 1415 08dc 002B     		cmp	r3, #0
 1416 08de 21D0     		beq	.L87
 1417              		.loc 1 825 0 is_stmt 1
 1418 08e0 039B     		ldr	r3, [sp, #12]
 1419 08e2 1B68     		ldr	r3, [r3]
 1420 08e4 039A     		ldr	r2, [sp, #12]
 1421 08e6 926B     		ldr	r2, [r2, #56]
 1422 08e8 1288     		ldrh	r2, [r2]
ARM GAS  /tmp/cc34cfqS.s 			page 26


 1423 08ea DA60     		str	r2, [r3, #12]
 1424              		.loc 1 826 0
 1425 08ec 039B     		ldr	r3, [sp, #12]
 1426 08ee 9B6B     		ldr	r3, [r3, #56]
 1427 08f0 9A1C     		adds	r2, r3, #2
 1428 08f2 039B     		ldr	r3, [sp, #12]
 1429 08f4 9A63     		str	r2, [r3, #56]
 1430              		.loc 1 827 0
 1431 08f6 039B     		ldr	r3, [sp, #12]
 1432 08f8 DB8F     		ldrh	r3, [r3, #62]
 1433 08fa 013B     		subs	r3, r3, #1
 1434 08fc 9AB2     		uxth	r2, r3
 1435 08fe 039B     		ldr	r3, [sp, #12]
 1436 0900 DA87     		strh	r2, [r3, #62]	@ movhi
 1437              		.loc 1 830 0
 1438 0902 039B     		ldr	r3, [sp, #12]
 1439 0904 DB8F     		ldrh	r3, [r3, #62]
 1440 0906 002B     		cmp	r3, #0
 1441 0908 0CD1     		bne	.L87
 1442              		.loc 1 830 0 is_stmt 0 discriminator 1
 1443 090a 039B     		ldr	r3, [sp, #12]
 1444 090c 9B6A     		ldr	r3, [r3, #40]
 1445 090e B3F5005F 		cmp	r3, #8192
 1446 0912 07D1     		bne	.L87
 1447              		.loc 1 832 0 is_stmt 1
 1448 0914 039B     		ldr	r3, [sp, #12]
 1449 0916 1B68     		ldr	r3, [r3]
 1450 0918 039A     		ldr	r2, [sp, #12]
 1451 091a 1268     		ldr	r2, [r2]
 1452 091c 1268     		ldr	r2, [r2]
 1453 091e 42F48052 		orr	r2, r2, #4096
 1454 0922 1A60     		str	r2, [r3]
 1455              	.L87:
 1456              		.loc 1 837 0
 1457 0924 039B     		ldr	r3, [sp, #12]
 1458 0926 B3F84630 		ldrh	r3, [r3, #70]
 1459 092a 002B     		cmp	r3, #0
 1460 092c 1AD0     		beq	.L88
 1461              		.loc 1 837 0 is_stmt 0 discriminator 1
 1462 092e 039B     		ldr	r3, [sp, #12]
 1463 0930 1B68     		ldr	r3, [r3]
 1464 0932 9B68     		ldr	r3, [r3, #8]
 1465 0934 03F00103 		and	r3, r3, #1
 1466 0938 002B     		cmp	r3, #0
 1467 093a 13D0     		beq	.L88
 1468              		.loc 1 839 0 is_stmt 1
 1469 093c 039B     		ldr	r3, [sp, #12]
 1470 093e 1B6C     		ldr	r3, [r3, #64]
 1471 0940 039A     		ldr	r2, [sp, #12]
 1472 0942 1268     		ldr	r2, [r2]
 1473 0944 D268     		ldr	r2, [r2, #12]
 1474 0946 92B2     		uxth	r2, r2
 1475 0948 1A80     		strh	r2, [r3]	@ movhi
 1476              		.loc 1 840 0
 1477 094a 039B     		ldr	r3, [sp, #12]
 1478 094c 1B6C     		ldr	r3, [r3, #64]
 1479 094e 9A1C     		adds	r2, r3, #2
ARM GAS  /tmp/cc34cfqS.s 			page 27


 1480 0950 039B     		ldr	r3, [sp, #12]
 1481 0952 1A64     		str	r2, [r3, #64]
 1482              		.loc 1 841 0
 1483 0954 039B     		ldr	r3, [sp, #12]
 1484 0956 B3F84630 		ldrh	r3, [r3, #70]
 1485 095a 013B     		subs	r3, r3, #1
 1486 095c 9AB2     		uxth	r2, r3
 1487 095e 039B     		ldr	r3, [sp, #12]
 1488 0960 A3F84620 		strh	r2, [r3, #70]	@ movhi
 1489              	.L88:
 1490              		.loc 1 843 0
 1491 0964 0A9B     		ldr	r3, [sp, #40]
 1492 0966 B3F1FF3F 		cmp	r3, #-1
 1493 096a 0BD0     		beq	.L86
 1494              		.loc 1 843 0 is_stmt 0 discriminator 1
 1495 096c FFF7FEFF 		bl	HAL_GetTick
 1496 0970 0246     		mov	r2, r0
 1497 0972 069B     		ldr	r3, [sp, #24]
 1498 0974 D21A     		subs	r2, r2, r3
 1499 0976 0A9B     		ldr	r3, [sp, #40]
 1500 0978 9A42     		cmp	r2, r3
 1501 097a 03D3     		bcc	.L86
 1502              		.loc 1 845 0 is_stmt 1
 1503 097c 0323     		movs	r3, #3
 1504 097e 8DF81F30 		strb	r3, [sp, #31]
 1505              		.loc 1 846 0
 1506 0982 23E1     		b	.L77
 1507              	.L86:
 1508              		.loc 1 820 0 discriminator 1
 1509 0984 039B     		ldr	r3, [sp, #12]
 1510 0986 DB8F     		ldrh	r3, [r3, #62]
 1511 0988 002B     		cmp	r3, #0
 1512 098a 9ED1     		bne	.L89
 1513              		.loc 1 820 0 is_stmt 0 discriminator 2
 1514 098c 039B     		ldr	r3, [sp, #12]
 1515 098e B3F84630 		ldrh	r3, [r3, #70]
 1516 0992 002B     		cmp	r3, #0
 1517 0994 99D1     		bne	.L89
 1518 0996 A4E0     		b	.L90
 1519              	.L85:
 1520              		.loc 1 853 0 is_stmt 1
 1521 0998 98E0     		b	.L91
 1522              	.L98:
 1523              		.loc 1 856 0
 1524 099a 039B     		ldr	r3, [sp, #12]
 1525 099c DB8F     		ldrh	r3, [r3, #62]
 1526 099e 002B     		cmp	r3, #0
 1527 09a0 3ED0     		beq	.L92
 1528              		.loc 1 856 0 is_stmt 0 discriminator 1
 1529 09a2 039B     		ldr	r3, [sp, #12]
 1530 09a4 1B68     		ldr	r3, [r3]
 1531 09a6 9B68     		ldr	r3, [r3, #8]
 1532 09a8 03F00203 		and	r3, r3, #2
 1533 09ac 002B     		cmp	r3, #0
 1534 09ae 37D0     		beq	.L92
 1535              		.loc 1 858 0 is_stmt 1
 1536 09b0 039B     		ldr	r3, [sp, #12]
ARM GAS  /tmp/cc34cfqS.s 			page 28


 1537 09b2 DB8F     		ldrh	r3, [r3, #62]
 1538 09b4 012B     		cmp	r3, #1
 1539 09b6 11D9     		bls	.L93
 1540              		.loc 1 860 0
 1541 09b8 039B     		ldr	r3, [sp, #12]
 1542 09ba 1B68     		ldr	r3, [r3]
 1543 09bc 039A     		ldr	r2, [sp, #12]
 1544 09be 926B     		ldr	r2, [r2, #56]
 1545 09c0 1288     		ldrh	r2, [r2]
 1546 09c2 DA60     		str	r2, [r3, #12]
 1547              		.loc 1 861 0
 1548 09c4 039B     		ldr	r3, [sp, #12]
 1549 09c6 9B6B     		ldr	r3, [r3, #56]
 1550 09c8 9A1C     		adds	r2, r3, #2
 1551 09ca 039B     		ldr	r3, [sp, #12]
 1552 09cc 9A63     		str	r2, [r3, #56]
 1553              		.loc 1 862 0
 1554 09ce 039B     		ldr	r3, [sp, #12]
 1555 09d0 DB8F     		ldrh	r3, [r3, #62]
 1556 09d2 023B     		subs	r3, r3, #2
 1557 09d4 9AB2     		uxth	r2, r3
 1558 09d6 039B     		ldr	r3, [sp, #12]
 1559 09d8 DA87     		strh	r2, [r3, #62]	@ movhi
 1560 09da 10E0     		b	.L94
 1561              	.L93:
 1562              		.loc 1 866 0
 1563 09dc 039B     		ldr	r3, [sp, #12]
 1564 09de 1B68     		ldr	r3, [r3]
 1565 09e0 03F10C02 		add	r2, r3, #12
 1566 09e4 039B     		ldr	r3, [sp, #12]
 1567 09e6 9B6B     		ldr	r3, [r3, #56]
 1568 09e8 581C     		adds	r0, r3, #1
 1569 09ea 0399     		ldr	r1, [sp, #12]
 1570 09ec 8863     		str	r0, [r1, #56]
 1571 09ee 1B78     		ldrb	r3, [r3]	@ zero_extendqisi2
 1572 09f0 1370     		strb	r3, [r2]
 1573              		.loc 1 867 0
 1574 09f2 039B     		ldr	r3, [sp, #12]
 1575 09f4 DB8F     		ldrh	r3, [r3, #62]
 1576 09f6 013B     		subs	r3, r3, #1
 1577 09f8 9AB2     		uxth	r2, r3
 1578 09fa 039B     		ldr	r3, [sp, #12]
 1579 09fc DA87     		strh	r2, [r3, #62]	@ movhi
 1580              	.L94:
 1581              		.loc 1 871 0
 1582 09fe 039B     		ldr	r3, [sp, #12]
 1583 0a00 DB8F     		ldrh	r3, [r3, #62]
 1584 0a02 002B     		cmp	r3, #0
 1585 0a04 0CD1     		bne	.L92
 1586              		.loc 1 871 0 is_stmt 0 discriminator 1
 1587 0a06 039B     		ldr	r3, [sp, #12]
 1588 0a08 9B6A     		ldr	r3, [r3, #40]
 1589 0a0a B3F5005F 		cmp	r3, #8192
 1590 0a0e 07D1     		bne	.L92
 1591              		.loc 1 873 0 is_stmt 1
 1592 0a10 039B     		ldr	r3, [sp, #12]
 1593 0a12 1B68     		ldr	r3, [r3]
ARM GAS  /tmp/cc34cfqS.s 			page 29


 1594 0a14 039A     		ldr	r2, [sp, #12]
 1595 0a16 1268     		ldr	r2, [r2]
 1596 0a18 1268     		ldr	r2, [r2]
 1597 0a1a 42F48052 		orr	r2, r2, #4096
 1598 0a1e 1A60     		str	r2, [r3]
 1599              	.L92:
 1600              		.loc 1 878 0
 1601 0a20 039B     		ldr	r3, [sp, #12]
 1602 0a22 B3F84630 		ldrh	r3, [r3, #70]
 1603 0a26 002B     		cmp	r3, #0
 1604 0a28 40D0     		beq	.L95
 1605              		.loc 1 878 0 is_stmt 0 discriminator 1
 1606 0a2a 039B     		ldr	r3, [sp, #12]
 1607 0a2c 1B68     		ldr	r3, [r3]
 1608 0a2e 9B68     		ldr	r3, [r3, #8]
 1609 0a30 03F00103 		and	r3, r3, #1
 1610 0a34 002B     		cmp	r3, #0
 1611 0a36 39D0     		beq	.L95
 1612              		.loc 1 880 0 is_stmt 1
 1613 0a38 039B     		ldr	r3, [sp, #12]
 1614 0a3a B3F84630 		ldrh	r3, [r3, #70]
 1615 0a3e 012B     		cmp	r3, #1
 1616 0a40 21D9     		bls	.L96
 1617              		.loc 1 882 0
 1618 0a42 039B     		ldr	r3, [sp, #12]
 1619 0a44 1B6C     		ldr	r3, [r3, #64]
 1620 0a46 039A     		ldr	r2, [sp, #12]
 1621 0a48 1268     		ldr	r2, [r2]
 1622 0a4a D268     		ldr	r2, [r2, #12]
 1623 0a4c 92B2     		uxth	r2, r2
 1624 0a4e 1A80     		strh	r2, [r3]	@ movhi
 1625              		.loc 1 883 0
 1626 0a50 039B     		ldr	r3, [sp, #12]
 1627 0a52 1B6C     		ldr	r3, [r3, #64]
 1628 0a54 9A1C     		adds	r2, r3, #2
 1629 0a56 039B     		ldr	r3, [sp, #12]
 1630 0a58 1A64     		str	r2, [r3, #64]
 1631              		.loc 1 884 0
 1632 0a5a 039B     		ldr	r3, [sp, #12]
 1633 0a5c B3F84630 		ldrh	r3, [r3, #70]
 1634 0a60 023B     		subs	r3, r3, #2
 1635 0a62 9AB2     		uxth	r2, r3
 1636 0a64 039B     		ldr	r3, [sp, #12]
 1637 0a66 A3F84620 		strh	r2, [r3, #70]	@ movhi
 1638              		.loc 1 885 0
 1639 0a6a 039B     		ldr	r3, [sp, #12]
 1640 0a6c B3F84630 		ldrh	r3, [r3, #70]
 1641 0a70 012B     		cmp	r3, #1
 1642 0a72 1BD8     		bhi	.L95
 1643              		.loc 1 888 0
 1644 0a74 039B     		ldr	r3, [sp, #12]
 1645 0a76 1B68     		ldr	r3, [r3]
 1646 0a78 039A     		ldr	r2, [sp, #12]
 1647 0a7a 1268     		ldr	r2, [r2]
 1648 0a7c 5268     		ldr	r2, [r2, #4]
 1649 0a7e 42F48052 		orr	r2, r2, #4096
 1650 0a82 5A60     		str	r2, [r3, #4]
ARM GAS  /tmp/cc34cfqS.s 			page 30


 1651 0a84 12E0     		b	.L95
 1652              	.L96:
 1653              		.loc 1 893 0
 1654 0a86 039B     		ldr	r3, [sp, #12]
 1655 0a88 1B6C     		ldr	r3, [r3, #64]
 1656 0a8a 591C     		adds	r1, r3, #1
 1657 0a8c 039A     		ldr	r2, [sp, #12]
 1658 0a8e 1164     		str	r1, [r2, #64]
 1659 0a90 039A     		ldr	r2, [sp, #12]
 1660 0a92 1268     		ldr	r2, [r2]
 1661 0a94 0C32     		adds	r2, r2, #12
 1662 0a96 1278     		ldrb	r2, [r2]
 1663 0a98 D2B2     		uxtb	r2, r2
 1664 0a9a 1A70     		strb	r2, [r3]
 1665              		.loc 1 894 0
 1666 0a9c 039B     		ldr	r3, [sp, #12]
 1667 0a9e B3F84630 		ldrh	r3, [r3, #70]
 1668 0aa2 013B     		subs	r3, r3, #1
 1669 0aa4 9AB2     		uxth	r2, r3
 1670 0aa6 039B     		ldr	r3, [sp, #12]
 1671 0aa8 A3F84620 		strh	r2, [r3, #70]	@ movhi
 1672              	.L95:
 1673              		.loc 1 897 0
 1674 0aac 0A9B     		ldr	r3, [sp, #40]
 1675 0aae B3F1FF3F 		cmp	r3, #-1
 1676 0ab2 0BD0     		beq	.L91
 1677              		.loc 1 897 0 is_stmt 0 discriminator 1
 1678 0ab4 FFF7FEFF 		bl	HAL_GetTick
 1679 0ab8 0246     		mov	r2, r0
 1680 0aba 069B     		ldr	r3, [sp, #24]
 1681 0abc D21A     		subs	r2, r2, r3
 1682 0abe 0A9B     		ldr	r3, [sp, #40]
 1683 0ac0 9A42     		cmp	r2, r3
 1684 0ac2 03D3     		bcc	.L91
 1685              		.loc 1 899 0 is_stmt 1
 1686 0ac4 0323     		movs	r3, #3
 1687 0ac6 8DF81F30 		strb	r3, [sp, #31]
 1688              		.loc 1 900 0
 1689 0aca 7FE0     		b	.L77
 1690              	.L91:
 1691              		.loc 1 853 0 discriminator 1
 1692 0acc 039B     		ldr	r3, [sp, #12]
 1693 0ace DB8F     		ldrh	r3, [r3, #62]
 1694 0ad0 002B     		cmp	r3, #0
 1695 0ad2 7FF462AF 		bne	.L98
 1696              		.loc 1 853 0 is_stmt 0 discriminator 2
 1697 0ad6 039B     		ldr	r3, [sp, #12]
 1698 0ad8 B3F84630 		ldrh	r3, [r3, #70]
 1699 0adc 002B     		cmp	r3, #0
 1700 0ade 7FF45CAF 		bne	.L98
 1701              	.L90:
 1702              		.loc 1 906 0 is_stmt 1
 1703 0ae2 039B     		ldr	r3, [sp, #12]
 1704 0ae4 9B6A     		ldr	r3, [r3, #40]
 1705 0ae6 B3F5005F 		cmp	r3, #8192
 1706 0aea 49D1     		bne	.L99
 1707              		.loc 1 909 0
ARM GAS  /tmp/cc34cfqS.s 			page 31


 1708 0aec 0398     		ldr	r0, [sp, #12]
 1709 0aee 0121     		movs	r1, #1
 1710 0af0 0122     		movs	r2, #1
 1711 0af2 0A9B     		ldr	r3, [sp, #40]
 1712 0af4 01F0D4FB 		bl	SPI_WaitFlagStateUntilTimeout
 1713 0af8 0346     		mov	r3, r0
 1714 0afa 002B     		cmp	r3, #0
 1715 0afc 09D0     		beq	.L100
 1716              		.loc 1 912 0
 1717 0afe 039B     		ldr	r3, [sp, #12]
 1718 0b00 1B6E     		ldr	r3, [r3, #96]
 1719 0b02 43F00202 		orr	r2, r3, #2
 1720 0b06 039B     		ldr	r3, [sp, #12]
 1721 0b08 1A66     		str	r2, [r3, #96]
 1722              		.loc 1 913 0
 1723 0b0a 0323     		movs	r3, #3
 1724 0b0c 8DF81F30 		strb	r3, [sp, #31]
 1725              		.loc 1 914 0
 1726 0b10 5CE0     		b	.L77
 1727              	.L100:
 1728              		.loc 1 917 0
 1729 0b12 039B     		ldr	r3, [sp, #12]
 1730 0b14 DB68     		ldr	r3, [r3, #12]
 1731 0b16 B3F5706F 		cmp	r3, #3840
 1732 0b1a 08D1     		bne	.L101
 1733              		.loc 1 919 0
 1734 0b1c 039B     		ldr	r3, [sp, #12]
 1735 0b1e 1B68     		ldr	r3, [r3]
 1736 0b20 DB68     		ldr	r3, [r3, #12]
 1737 0b22 9BB2     		uxth	r3, r3
 1738 0b24 ADF81630 		strh	r3, [sp, #22]	@ movhi
 1739              		.loc 1 920 0
 1740 0b28 BDF81630 		ldrh	r3, [sp, #22]	@ movhi
 1741 0b2c 28E0     		b	.L99
 1742              	.L101:
 1743              		.loc 1 924 0
 1744 0b2e 039B     		ldr	r3, [sp, #12]
 1745 0b30 1B68     		ldr	r3, [r3]
 1746 0b32 0C33     		adds	r3, r3, #12
 1747 0b34 1B78     		ldrb	r3, [r3]
 1748 0b36 DBB2     		uxtb	r3, r3
 1749 0b38 ADF81630 		strh	r3, [sp, #22]	@ movhi
 1750              		.loc 1 925 0
 1751 0b3c BDF81630 		ldrh	r3, [sp, #22]	@ movhi
 1752              		.loc 1 927 0
 1753 0b40 039B     		ldr	r3, [sp, #12]
 1754 0b42 1B6B     		ldr	r3, [r3, #48]
 1755 0b44 022B     		cmp	r3, #2
 1756 0b46 1BD1     		bne	.L99
 1757              		.loc 1 929 0
 1758 0b48 0398     		ldr	r0, [sp, #12]
 1759 0b4a 0121     		movs	r1, #1
 1760 0b4c 0122     		movs	r2, #1
 1761 0b4e 0A9B     		ldr	r3, [sp, #40]
 1762 0b50 01F0A6FB 		bl	SPI_WaitFlagStateUntilTimeout
 1763 0b54 0346     		mov	r3, r0
 1764 0b56 002B     		cmp	r3, #0
ARM GAS  /tmp/cc34cfqS.s 			page 32


 1765 0b58 09D0     		beq	.L102
 1766              		.loc 1 932 0
 1767 0b5a 039B     		ldr	r3, [sp, #12]
 1768 0b5c 1B6E     		ldr	r3, [r3, #96]
 1769 0b5e 43F00202 		orr	r2, r3, #2
 1770 0b62 039B     		ldr	r3, [sp, #12]
 1771 0b64 1A66     		str	r2, [r3, #96]
 1772              		.loc 1 933 0
 1773 0b66 0323     		movs	r3, #3
 1774 0b68 8DF81F30 		strb	r3, [sp, #31]
 1775              		.loc 1 934 0
 1776 0b6c 2EE0     		b	.L77
 1777              	.L102:
 1778              		.loc 1 936 0
 1779 0b6e 039B     		ldr	r3, [sp, #12]
 1780 0b70 1B68     		ldr	r3, [r3]
 1781 0b72 0C33     		adds	r3, r3, #12
 1782 0b74 1B78     		ldrb	r3, [r3]
 1783 0b76 DBB2     		uxtb	r3, r3
 1784 0b78 ADF81630 		strh	r3, [sp, #22]	@ movhi
 1785              		.loc 1 937 0
 1786 0b7c BDF81630 		ldrh	r3, [sp, #22]	@ movhi
 1787              	.L99:
 1788              		.loc 1 943 0
 1789 0b80 039B     		ldr	r3, [sp, #12]
 1790 0b82 1B68     		ldr	r3, [r3]
 1791 0b84 9B68     		ldr	r3, [r3, #8]
 1792 0b86 03F01003 		and	r3, r3, #16
 1793 0b8a 002B     		cmp	r3, #0
 1794 0b8c 0DD0     		beq	.L103
 1795              		.loc 1 945 0
 1796 0b8e 039B     		ldr	r3, [sp, #12]
 1797 0b90 1B6E     		ldr	r3, [r3, #96]
 1798 0b92 43F00202 		orr	r2, r3, #2
 1799 0b96 039B     		ldr	r3, [sp, #12]
 1800 0b98 1A66     		str	r2, [r3, #96]
 1801              		.loc 1 947 0
 1802 0b9a 039B     		ldr	r3, [sp, #12]
 1803 0b9c 1B68     		ldr	r3, [r3]
 1804 0b9e 4FF6EF72 		movw	r2, #65519
 1805 0ba2 9A60     		str	r2, [r3, #8]
 1806              		.loc 1 949 0
 1807 0ba4 0123     		movs	r3, #1
 1808 0ba6 8DF81F30 		strb	r3, [sp, #31]
 1809              	.L103:
 1810              		.loc 1 953 0
 1811 0baa 0398     		ldr	r0, [sp, #12]
 1812 0bac 0A99     		ldr	r1, [sp, #40]
 1813 0bae 01F0AFFC 		bl	SPI_EndRxTxTransaction
 1814 0bb2 0346     		mov	r3, r0
 1815 0bb4 002B     		cmp	r3, #0
 1816 0bb6 02D0     		beq	.L104
 1817              		.loc 1 955 0
 1818 0bb8 039B     		ldr	r3, [sp, #12]
 1819 0bba 2022     		movs	r2, #32
 1820 0bbc 1A66     		str	r2, [r3, #96]
 1821              	.L104:
ARM GAS  /tmp/cc34cfqS.s 			page 33


 1822              		.loc 1 958 0
 1823 0bbe 039B     		ldr	r3, [sp, #12]
 1824 0bc0 1B6E     		ldr	r3, [r3, #96]
 1825 0bc2 002B     		cmp	r3, #0
 1826 0bc4 02D0     		beq	.L77
 1827              		.loc 1 960 0
 1828 0bc6 0123     		movs	r3, #1
 1829 0bc8 8DF81F30 		strb	r3, [sp, #31]
 1830              	.L77:
 1831              		.loc 1 964 0
 1832 0bcc 039B     		ldr	r3, [sp, #12]
 1833 0bce 0122     		movs	r2, #1
 1834 0bd0 83F85D20 		strb	r2, [r3, #93]
 1835              		.loc 1 965 0
 1836 0bd4 039B     		ldr	r3, [sp, #12]
 1837 0bd6 0022     		movs	r2, #0
 1838 0bd8 83F85C20 		strb	r2, [r3, #92]
 1839              		.loc 1 966 0
 1840 0bdc 9DF81F30 		ldrb	r3, [sp, #31]	@ zero_extendqisi2
 1841              	.L75:
 1842              		.loc 1 967 0
 1843 0be0 1846     		mov	r0, r3
 1844 0be2 09B0     		add	sp, sp, #36
 1845              		@ sp needed
 1846 0be4 5DF804FB 		ldr	pc, [sp], #4
 1847              		.cfi_endproc
 1848              	.LFE131:
 1849              		.size	HAL_SPI_TransmitReceive, .-HAL_SPI_TransmitReceive
 1850              		.align	2
 1851 0be8 AFF30080 		.p2align 4,,15
 1851      AFF30080 
 1852              		.global	HAL_SPI_Transmit_IT
 1853              		.thumb
 1854              		.thumb_func
 1855              		.type	HAL_SPI_Transmit_IT, %function
 1856              	HAL_SPI_Transmit_IT:
 1857              	.LFB132:
 1858              		.loc 1 978 0
 1859              		.cfi_startproc
 1860              		@ args = 0, pretend = 0, frame = 24
 1861              		@ frame_needed = 0, uses_anonymous_args = 0
 1862              		@ link register save eliminated.
 1863 0bf0 86B0     		sub	sp, sp, #24
 1864              		.cfi_def_cfa_offset 24
 1865 0bf2 0390     		str	r0, [sp, #12]
 1866 0bf4 0291     		str	r1, [sp, #8]
 1867 0bf6 1346     		mov	r3, r2
 1868 0bf8 ADF80630 		strh	r3, [sp, #6]	@ movhi
 1869              		.loc 1 979 0
 1870 0bfc 0023     		movs	r3, #0
 1871 0bfe 8DF81730 		strb	r3, [sp, #23]
 1872              		.loc 1 983 0
 1873 0c02 039B     		ldr	r3, [sp, #12]
 1874 0c04 93F85C30 		ldrb	r3, [r3, #92]	@ zero_extendqisi2
 1875 0c08 012B     		cmp	r3, #1
 1876 0c0a 01D1     		bne	.L106
 1877              		.loc 1 983 0 is_stmt 0 discriminator 1
ARM GAS  /tmp/cc34cfqS.s 			page 34


 1878 0c0c 0223     		movs	r3, #2
 1879 0c0e 84E0     		b	.L107
 1880              	.L106:
 1881              		.loc 1 983 0 discriminator 2
 1882 0c10 039B     		ldr	r3, [sp, #12]
 1883 0c12 0122     		movs	r2, #1
 1884 0c14 83F85C20 		strb	r2, [r3, #92]
 1885              		.loc 1 985 0 is_stmt 1 discriminator 2
 1886 0c18 029B     		ldr	r3, [sp, #8]
 1887 0c1a 002B     		cmp	r3, #0
 1888 0c1c 03D0     		beq	.L108
 1889              		.loc 1 985 0 is_stmt 0 discriminator 1
 1890 0c1e BDF80630 		ldrh	r3, [sp, #6]
 1891 0c22 002B     		cmp	r3, #0
 1892 0c24 03D1     		bne	.L109
 1893              	.L108:
 1894              		.loc 1 987 0 is_stmt 1
 1895 0c26 0123     		movs	r3, #1
 1896 0c28 8DF81730 		strb	r3, [sp, #23]
 1897              		.loc 1 988 0
 1898 0c2c 6FE0     		b	.L110
 1899              	.L109:
 1900              		.loc 1 991 0
 1901 0c2e 039B     		ldr	r3, [sp, #12]
 1902 0c30 93F85D30 		ldrb	r3, [r3, #93]
 1903 0c34 DBB2     		uxtb	r3, r3
 1904 0c36 012B     		cmp	r3, #1
 1905 0c38 03D0     		beq	.L111
 1906              		.loc 1 993 0
 1907 0c3a 0223     		movs	r3, #2
 1908 0c3c 8DF81730 		strb	r3, [sp, #23]
 1909              		.loc 1 994 0
 1910 0c40 65E0     		b	.L110
 1911              	.L111:
 1912              		.loc 1 998 0
 1913 0c42 039B     		ldr	r3, [sp, #12]
 1914 0c44 0322     		movs	r2, #3
 1915 0c46 83F85D20 		strb	r2, [r3, #93]
 1916              		.loc 1 999 0
 1917 0c4a 039B     		ldr	r3, [sp, #12]
 1918 0c4c 0022     		movs	r2, #0
 1919 0c4e 1A66     		str	r2, [r3, #96]
 1920              		.loc 1 1000 0
 1921 0c50 039B     		ldr	r3, [sp, #12]
 1922 0c52 029A     		ldr	r2, [sp, #8]
 1923 0c54 9A63     		str	r2, [r3, #56]
 1924              		.loc 1 1001 0
 1925 0c56 039B     		ldr	r3, [sp, #12]
 1926 0c58 BDF80620 		ldrh	r2, [sp, #6]	@ movhi
 1927 0c5c 9A87     		strh	r2, [r3, #60]	@ movhi
 1928              		.loc 1 1002 0
 1929 0c5e 039B     		ldr	r3, [sp, #12]
 1930 0c60 BDF80620 		ldrh	r2, [sp, #6]	@ movhi
 1931 0c64 DA87     		strh	r2, [r3, #62]	@ movhi
 1932              		.loc 1 1003 0
 1933 0c66 039B     		ldr	r3, [sp, #12]
 1934 0c68 0022     		movs	r2, #0
ARM GAS  /tmp/cc34cfqS.s 			page 35


 1935 0c6a 1A64     		str	r2, [r3, #64]
 1936              		.loc 1 1004 0
 1937 0c6c 039B     		ldr	r3, [sp, #12]
 1938 0c6e 0022     		movs	r2, #0
 1939 0c70 A3F84420 		strh	r2, [r3, #68]	@ movhi
 1940              		.loc 1 1005 0
 1941 0c74 039B     		ldr	r3, [sp, #12]
 1942 0c76 0022     		movs	r2, #0
 1943 0c78 A3F84620 		strh	r2, [r3, #70]	@ movhi
 1944              		.loc 1 1006 0
 1945 0c7c 039B     		ldr	r3, [sp, #12]
 1946 0c7e 0022     		movs	r2, #0
 1947 0c80 DA64     		str	r2, [r3, #76]
 1948              		.loc 1 1009 0
 1949 0c82 039B     		ldr	r3, [sp, #12]
 1950 0c84 DB68     		ldr	r3, [r3, #12]
 1951 0c86 B3F5E06F 		cmp	r3, #1792
 1952 0c8a 03D9     		bls	.L112
 1953              		.loc 1 1011 0
 1954 0c8c 039B     		ldr	r3, [sp, #12]
 1955 0c8e 244A     		ldr	r2, .L116
 1956 0c90 1A65     		str	r2, [r3, #80]
 1957 0c92 02E0     		b	.L113
 1958              	.L112:
 1959              		.loc 1 1015 0
 1960 0c94 039B     		ldr	r3, [sp, #12]
 1961 0c96 234A     		ldr	r2, .L116+4
 1962 0c98 1A65     		str	r2, [r3, #80]
 1963              	.L113:
 1964              		.loc 1 1019 0
 1965 0c9a 039B     		ldr	r3, [sp, #12]
 1966 0c9c 9B68     		ldr	r3, [r3, #8]
 1967 0c9e B3F5004F 		cmp	r3, #32768
 1968 0ca2 07D1     		bne	.L114
 1969              		.loc 1 1021 0
 1970 0ca4 039B     		ldr	r3, [sp, #12]
 1971 0ca6 1B68     		ldr	r3, [r3]
 1972 0ca8 039A     		ldr	r2, [sp, #12]
 1973 0caa 1268     		ldr	r2, [r2]
 1974 0cac 1268     		ldr	r2, [r2]
 1975 0cae 42F48042 		orr	r2, r2, #16384
 1976 0cb2 1A60     		str	r2, [r3]
 1977              	.L114:
 1978              		.loc 1 1025 0
 1979 0cb4 039B     		ldr	r3, [sp, #12]
 1980 0cb6 9B6A     		ldr	r3, [r3, #40]
 1981 0cb8 B3F5005F 		cmp	r3, #8192
 1982 0cbc 10D1     		bne	.L115
 1983              		.loc 1 1027 0
 1984 0cbe 039B     		ldr	r3, [sp, #12]
 1985 0cc0 1A68     		ldr	r2, [r3]
 1986 0cc2 039B     		ldr	r3, [sp, #12]
 1987 0cc4 1B68     		ldr	r3, [r3]
 1988 0cc6 1968     		ldr	r1, [r3]
 1989 0cc8 4DF6FF73 		movw	r3, #57343
 1990 0ccc 0B40     		ands	r3, r3, r1
 1991 0cce 1360     		str	r3, [r2]
ARM GAS  /tmp/cc34cfqS.s 			page 36


 1992 0cd0 039B     		ldr	r3, [sp, #12]
 1993 0cd2 1B68     		ldr	r3, [r3]
 1994 0cd4 039A     		ldr	r2, [sp, #12]
 1995 0cd6 1268     		ldr	r2, [r2]
 1996 0cd8 1268     		ldr	r2, [r2]
 1997 0cda 42F40052 		orr	r2, r2, #8192
 1998 0cde 1A60     		str	r2, [r3]
 1999              	.L115:
 2000              		.loc 1 1031 0
 2001 0ce0 039B     		ldr	r3, [sp, #12]
 2002 0ce2 1B68     		ldr	r3, [r3]
 2003 0ce4 039A     		ldr	r2, [sp, #12]
 2004 0ce6 1268     		ldr	r2, [r2]
 2005 0ce8 5268     		ldr	r2, [r2, #4]
 2006 0cea 42F08002 		orr	r2, r2, #128
 2007 0cee 5A60     		str	r2, [r3, #4]
 2008              		.loc 1 1035 0
 2009 0cf0 039B     		ldr	r3, [sp, #12]
 2010 0cf2 1B68     		ldr	r3, [r3]
 2011 0cf4 1B68     		ldr	r3, [r3]
 2012 0cf6 03F04003 		and	r3, r3, #64
 2013 0cfa 002B     		cmp	r3, #0
 2014 0cfc 07D1     		bne	.L110
 2015              		.loc 1 1038 0
 2016 0cfe 039B     		ldr	r3, [sp, #12]
 2017 0d00 1B68     		ldr	r3, [r3]
 2018 0d02 039A     		ldr	r2, [sp, #12]
 2019 0d04 1268     		ldr	r2, [r2]
 2020 0d06 1268     		ldr	r2, [r2]
 2021 0d08 42F04002 		orr	r2, r2, #64
 2022 0d0c 1A60     		str	r2, [r3]
 2023              	.L110:
 2024              		.loc 1 1042 0
 2025 0d0e 039B     		ldr	r3, [sp, #12]
 2026 0d10 0022     		movs	r2, #0
 2027 0d12 83F85C20 		strb	r2, [r3, #92]
 2028              		.loc 1 1043 0
 2029 0d16 9DF81730 		ldrb	r3, [sp, #23]	@ zero_extendqisi2
 2030              	.L107:
 2031              		.loc 1 1044 0
 2032 0d1a 1846     		mov	r0, r3
 2033 0d1c 06B0     		add	sp, sp, #24
 2034              		@ sp needed
 2035 0d1e 7047     		bx	lr
 2036              	.L117:
 2037              		.align	2
 2038              	.L116:
 2039 0d20 00000000 		.word	SPI_TxISR_16BIT
 2040 0d24 00000000 		.word	SPI_TxISR_8BIT
 2041              		.cfi_endproc
 2042              	.LFE132:
 2043              		.size	HAL_SPI_Transmit_IT, .-HAL_SPI_Transmit_IT
 2044              		.align	2
 2045 0d28 AFF30080 		.p2align 4,,15
 2045      AFF30080 
 2046              		.global	HAL_SPI_Receive_IT
 2047              		.thumb
ARM GAS  /tmp/cc34cfqS.s 			page 37


 2048              		.thumb_func
 2049              		.type	HAL_SPI_Receive_IT, %function
 2050              	HAL_SPI_Receive_IT:
 2051              	.LFB133:
 2052              		.loc 1 1055 0
 2053              		.cfi_startproc
 2054              		@ args = 0, pretend = 0, frame = 24
 2055              		@ frame_needed = 0, uses_anonymous_args = 0
 2056 0d30 00B5     		push	{lr}
 2057              		.cfi_def_cfa_offset 4
 2058              		.cfi_offset 14, -4
 2059 0d32 87B0     		sub	sp, sp, #28
 2060              		.cfi_def_cfa_offset 32
 2061 0d34 0390     		str	r0, [sp, #12]
 2062 0d36 0291     		str	r1, [sp, #8]
 2063 0d38 1346     		mov	r3, r2
 2064 0d3a ADF80630 		strh	r3, [sp, #6]	@ movhi
 2065              		.loc 1 1056 0
 2066 0d3e 0023     		movs	r3, #0
 2067 0d40 8DF81730 		strb	r3, [sp, #23]
 2068              		.loc 1 1059 0
 2069 0d44 039B     		ldr	r3, [sp, #12]
 2070 0d46 93F85C30 		ldrb	r3, [r3, #92]	@ zero_extendqisi2
 2071 0d4a 012B     		cmp	r3, #1
 2072 0d4c 01D1     		bne	.L119
 2073              		.loc 1 1059 0 is_stmt 0 discriminator 1
 2074 0d4e 0223     		movs	r3, #2
 2075 0d50 C2E0     		b	.L120
 2076              	.L119:
 2077              		.loc 1 1059 0 discriminator 2
 2078 0d52 039B     		ldr	r3, [sp, #12]
 2079 0d54 0122     		movs	r2, #1
 2080 0d56 83F85C20 		strb	r2, [r3, #92]
 2081              		.loc 1 1061 0 is_stmt 1 discriminator 2
 2082 0d5a 039B     		ldr	r3, [sp, #12]
 2083 0d5c 93F85D30 		ldrb	r3, [r3, #93]
 2084 0d60 DBB2     		uxtb	r3, r3
 2085 0d62 012B     		cmp	r3, #1
 2086 0d64 03D0     		beq	.L121
 2087              		.loc 1 1063 0
 2088 0d66 0223     		movs	r3, #2
 2089 0d68 8DF81730 		strb	r3, [sp, #23]
 2090              		.loc 1 1064 0
 2091 0d6c AEE0     		b	.L122
 2092              	.L121:
 2093              		.loc 1 1066 0
 2094 0d6e 029B     		ldr	r3, [sp, #8]
 2095 0d70 002B     		cmp	r3, #0
 2096 0d72 03D0     		beq	.L123
 2097              		.loc 1 1066 0 is_stmt 0 discriminator 1
 2098 0d74 BDF80630 		ldrh	r3, [sp, #6]
 2099 0d78 002B     		cmp	r3, #0
 2100 0d7a 03D1     		bne	.L124
 2101              	.L123:
 2102              		.loc 1 1068 0 is_stmt 1
 2103 0d7c 0123     		movs	r3, #1
 2104 0d7e 8DF81730 		strb	r3, [sp, #23]
ARM GAS  /tmp/cc34cfqS.s 			page 38


 2105              		.loc 1 1069 0
 2106 0d82 A3E0     		b	.L122
 2107              	.L124:
 2108              		.loc 1 1073 0
 2109 0d84 039B     		ldr	r3, [sp, #12]
 2110 0d86 0422     		movs	r2, #4
 2111 0d88 83F85D20 		strb	r2, [r3, #93]
 2112              		.loc 1 1074 0
 2113 0d8c 039B     		ldr	r3, [sp, #12]
 2114 0d8e 0022     		movs	r2, #0
 2115 0d90 1A66     		str	r2, [r3, #96]
 2116              		.loc 1 1075 0
 2117 0d92 039B     		ldr	r3, [sp, #12]
 2118 0d94 029A     		ldr	r2, [sp, #8]
 2119 0d96 1A64     		str	r2, [r3, #64]
 2120              		.loc 1 1076 0
 2121 0d98 039B     		ldr	r3, [sp, #12]
 2122 0d9a BDF80620 		ldrh	r2, [sp, #6]	@ movhi
 2123 0d9e A3F84420 		strh	r2, [r3, #68]	@ movhi
 2124              		.loc 1 1077 0
 2125 0da2 039B     		ldr	r3, [sp, #12]
 2126 0da4 BDF80620 		ldrh	r2, [sp, #6]	@ movhi
 2127 0da8 A3F84620 		strh	r2, [r3, #70]	@ movhi
 2128              		.loc 1 1078 0
 2129 0dac 039B     		ldr	r3, [sp, #12]
 2130 0dae 0022     		movs	r2, #0
 2131 0db0 9A63     		str	r2, [r3, #56]
 2132              		.loc 1 1079 0
 2133 0db2 039B     		ldr	r3, [sp, #12]
 2134 0db4 0022     		movs	r2, #0
 2135 0db6 9A87     		strh	r2, [r3, #60]	@ movhi
 2136              		.loc 1 1080 0
 2137 0db8 039B     		ldr	r3, [sp, #12]
 2138 0dba 0022     		movs	r2, #0
 2139 0dbc DA87     		strh	r2, [r3, #62]	@ movhi
 2140              		.loc 1 1082 0
 2141 0dbe 039B     		ldr	r3, [sp, #12]
 2142 0dc0 5B68     		ldr	r3, [r3, #4]
 2143 0dc2 B3F5827F 		cmp	r3, #260
 2144 0dc6 10D1     		bne	.L125
 2145              		.loc 1 1082 0 is_stmt 0 discriminator 1
 2146 0dc8 039B     		ldr	r3, [sp, #12]
 2147 0dca 9B68     		ldr	r3, [r3, #8]
 2148 0dcc 002B     		cmp	r3, #0
 2149 0dce 0CD1     		bne	.L125
 2150              		.loc 1 1085 0 is_stmt 1
 2151 0dd0 039B     		ldr	r3, [sp, #12]
 2152 0dd2 0022     		movs	r2, #0
 2153 0dd4 83F85C20 		strb	r2, [r3, #92]
 2154              		.loc 1 1088 0
 2155 0dd8 BDF80630 		ldrh	r3, [sp, #6]
 2156 0ddc 0398     		ldr	r0, [sp, #12]
 2157 0dde 0299     		ldr	r1, [sp, #8]
 2158 0de0 029A     		ldr	r2, [sp, #8]
 2159 0de2 FFF7FEFF 		bl	HAL_SPI_TransmitReceive_IT
 2160 0de6 0346     		mov	r3, r0
 2161 0de8 76E0     		b	.L120
ARM GAS  /tmp/cc34cfqS.s 			page 39


 2162              	.L125:
 2163              		.loc 1 1091 0
 2164 0dea 039B     		ldr	r3, [sp, #12]
 2165 0dec 9B6A     		ldr	r3, [r3, #40]
 2166 0dee B3F5005F 		cmp	r3, #8192
 2167 0df2 0FD1     		bne	.L126
 2168              		.loc 1 1093 0
 2169 0df4 039B     		ldr	r3, [sp, #12]
 2170 0df6 0122     		movs	r2, #1
 2171 0df8 9A64     		str	r2, [r3, #72]
 2172              		.loc 1 1094 0
 2173 0dfa 039B     		ldr	r3, [sp, #12]
 2174 0dfc DB68     		ldr	r3, [r3, #12]
 2175 0dfe B3F5E06F 		cmp	r3, #1792
 2176 0e02 0AD8     		bhi	.L128
 2177              		.loc 1 1094 0 is_stmt 0 discriminator 1
 2178 0e04 039B     		ldr	r3, [sp, #12]
 2179 0e06 1B6B     		ldr	r3, [r3, #48]
 2180 0e08 022B     		cmp	r3, #2
 2181 0e0a 06D1     		bne	.L128
 2182              		.loc 1 1096 0 is_stmt 1
 2183 0e0c 039B     		ldr	r3, [sp, #12]
 2184 0e0e 0222     		movs	r2, #2
 2185 0e10 9A64     		str	r2, [r3, #72]
 2186 0e12 02E0     		b	.L128
 2187              	.L126:
 2188              		.loc 1 1101 0
 2189 0e14 039B     		ldr	r3, [sp, #12]
 2190 0e16 0022     		movs	r2, #0
 2191 0e18 9A64     		str	r2, [r3, #72]
 2192              	.L128:
 2193              		.loc 1 1104 0
 2194 0e1a 039B     		ldr	r3, [sp, #12]
 2195 0e1c 0022     		movs	r2, #0
 2196 0e1e 1A65     		str	r2, [r3, #80]
 2197              		.loc 1 1106 0
 2198 0e20 039B     		ldr	r3, [sp, #12]
 2199 0e22 DB68     		ldr	r3, [r3, #12]
 2200 0e24 B3F5E06F 		cmp	r3, #1792
 2201 0e28 0BD9     		bls	.L129
 2202              		.loc 1 1109 0
 2203 0e2a 039B     		ldr	r3, [sp, #12]
 2204 0e2c 1B68     		ldr	r3, [r3]
 2205 0e2e 039A     		ldr	r2, [sp, #12]
 2206 0e30 1268     		ldr	r2, [r2]
 2207 0e32 5268     		ldr	r2, [r2, #4]
 2208 0e34 22F48052 		bic	r2, r2, #4096
 2209 0e38 5A60     		str	r2, [r3, #4]
 2210              		.loc 1 1110 0
 2211 0e3a 039B     		ldr	r3, [sp, #12]
 2212 0e3c 284A     		ldr	r2, .L133
 2213 0e3e DA64     		str	r2, [r3, #76]
 2214 0e40 0AE0     		b	.L130
 2215              	.L129:
 2216              		.loc 1 1115 0
 2217 0e42 039B     		ldr	r3, [sp, #12]
 2218 0e44 1B68     		ldr	r3, [r3]
ARM GAS  /tmp/cc34cfqS.s 			page 40


 2219 0e46 039A     		ldr	r2, [sp, #12]
 2220 0e48 1268     		ldr	r2, [r2]
 2221 0e4a 5268     		ldr	r2, [r2, #4]
 2222 0e4c 42F48052 		orr	r2, r2, #4096
 2223 0e50 5A60     		str	r2, [r3, #4]
 2224              		.loc 1 1116 0
 2225 0e52 039B     		ldr	r3, [sp, #12]
 2226 0e54 234A     		ldr	r2, .L133+4
 2227 0e56 DA64     		str	r2, [r3, #76]
 2228              	.L130:
 2229              		.loc 1 1120 0
 2230 0e58 039B     		ldr	r3, [sp, #12]
 2231 0e5a 9B68     		ldr	r3, [r3, #8]
 2232 0e5c B3F5004F 		cmp	r3, #32768
 2233 0e60 07D1     		bne	.L131
 2234              		.loc 1 1122 0
 2235 0e62 039B     		ldr	r3, [sp, #12]
 2236 0e64 1B68     		ldr	r3, [r3]
 2237 0e66 039A     		ldr	r2, [sp, #12]
 2238 0e68 1268     		ldr	r2, [r2]
 2239 0e6a 1268     		ldr	r2, [r2]
 2240 0e6c 22F48042 		bic	r2, r2, #16384
 2241 0e70 1A60     		str	r2, [r3]
 2242              	.L131:
 2243              		.loc 1 1126 0
 2244 0e72 039B     		ldr	r3, [sp, #12]
 2245 0e74 9B6A     		ldr	r3, [r3, #40]
 2246 0e76 B3F5005F 		cmp	r3, #8192
 2247 0e7a 10D1     		bne	.L132
 2248              		.loc 1 1128 0
 2249 0e7c 039B     		ldr	r3, [sp, #12]
 2250 0e7e 1A68     		ldr	r2, [r3]
 2251 0e80 039B     		ldr	r3, [sp, #12]
 2252 0e82 1B68     		ldr	r3, [r3]
 2253 0e84 1968     		ldr	r1, [r3]
 2254 0e86 4DF6FF73 		movw	r3, #57343
 2255 0e8a 0B40     		ands	r3, r3, r1
 2256 0e8c 1360     		str	r3, [r2]
 2257 0e8e 039B     		ldr	r3, [sp, #12]
 2258 0e90 1B68     		ldr	r3, [r3]
 2259 0e92 039A     		ldr	r2, [sp, #12]
 2260 0e94 1268     		ldr	r2, [r2]
 2261 0e96 1268     		ldr	r2, [r2]
 2262 0e98 42F40052 		orr	r2, r2, #8192
 2263 0e9c 1A60     		str	r2, [r3]
 2264              	.L132:
 2265              		.loc 1 1132 0
 2266 0e9e 039B     		ldr	r3, [sp, #12]
 2267 0ea0 1B68     		ldr	r3, [r3]
 2268 0ea2 039A     		ldr	r2, [sp, #12]
 2269 0ea4 1268     		ldr	r2, [r2]
 2270 0ea6 5268     		ldr	r2, [r2, #4]
 2271 0ea8 42F06002 		orr	r2, r2, #96
 2272 0eac 5A60     		str	r2, [r3, #4]
 2273              		.loc 1 1135 0
 2274 0eae 039B     		ldr	r3, [sp, #12]
 2275 0eb0 1B68     		ldr	r3, [r3]
ARM GAS  /tmp/cc34cfqS.s 			page 41


 2276 0eb2 1B68     		ldr	r3, [r3]
 2277 0eb4 03F04003 		and	r3, r3, #64
 2278 0eb8 002B     		cmp	r3, #0
 2279 0eba 07D1     		bne	.L122
 2280              		.loc 1 1138 0
 2281 0ebc 039B     		ldr	r3, [sp, #12]
 2282 0ebe 1B68     		ldr	r3, [r3]
 2283 0ec0 039A     		ldr	r2, [sp, #12]
 2284 0ec2 1268     		ldr	r2, [r2]
 2285 0ec4 1268     		ldr	r2, [r2]
 2286 0ec6 42F04002 		orr	r2, r2, #64
 2287 0eca 1A60     		str	r2, [r3]
 2288              	.L122:
 2289              		.loc 1 1143 0
 2290 0ecc 039B     		ldr	r3, [sp, #12]
 2291 0ece 0022     		movs	r2, #0
 2292 0ed0 83F85C20 		strb	r2, [r3, #92]
 2293              		.loc 1 1144 0
 2294 0ed4 9DF81730 		ldrb	r3, [sp, #23]	@ zero_extendqisi2
 2295              	.L120:
 2296              		.loc 1 1145 0
 2297 0ed8 1846     		mov	r0, r3
 2298 0eda 07B0     		add	sp, sp, #28
 2299              		@ sp needed
 2300 0edc 5DF804FB 		ldr	pc, [sp], #4
 2301              	.L134:
 2302              		.align	2
 2303              	.L133:
 2304 0ee0 00000000 		.word	SPI_RxISR_16BIT
 2305 0ee4 00000000 		.word	SPI_RxISR_8BIT
 2306              		.cfi_endproc
 2307              	.LFE133:
 2308              		.size	HAL_SPI_Receive_IT, .-HAL_SPI_Receive_IT
 2309              		.align	2
 2310 0ee8 AFF30080 		.p2align 4,,15
 2310      AFF30080 
 2311              		.global	HAL_SPI_TransmitReceive_IT
 2312              		.thumb
 2313              		.thumb_func
 2314              		.type	HAL_SPI_TransmitReceive_IT, %function
 2315              	HAL_SPI_TransmitReceive_IT:
 2316              	.LFB134:
 2317              		.loc 1 1157 0
 2318              		.cfi_startproc
 2319              		@ args = 0, pretend = 0, frame = 24
 2320              		@ frame_needed = 0, uses_anonymous_args = 0
 2321              		@ link register save eliminated.
 2322 0ef0 86B0     		sub	sp, sp, #24
 2323              		.cfi_def_cfa_offset 24
 2324 0ef2 0390     		str	r0, [sp, #12]
 2325 0ef4 0291     		str	r1, [sp, #8]
 2326 0ef6 0192     		str	r2, [sp, #4]
 2327 0ef8 ADF80230 		strh	r3, [sp, #2]	@ movhi
 2328              		.loc 1 1158 0
 2329 0efc 0023     		movs	r3, #0
 2330 0efe 8DF81730 		strb	r3, [sp, #23]
 2331              		.loc 1 1162 0
ARM GAS  /tmp/cc34cfqS.s 			page 42


 2332 0f02 039B     		ldr	r3, [sp, #12]
 2333 0f04 93F85C30 		ldrb	r3, [r3, #92]	@ zero_extendqisi2
 2334 0f08 012B     		cmp	r3, #1
 2335 0f0a 01D1     		bne	.L136
 2336              		.loc 1 1162 0 is_stmt 0 discriminator 1
 2337 0f0c 0223     		movs	r3, #2
 2338 0f0e C6E0     		b	.L137
 2339              	.L136:
 2340              		.loc 1 1162 0 discriminator 2
 2341 0f10 039B     		ldr	r3, [sp, #12]
 2342 0f12 0122     		movs	r2, #1
 2343 0f14 83F85C20 		strb	r2, [r3, #92]
 2344              		.loc 1 1164 0 is_stmt 1 discriminator 2
 2345 0f18 039B     		ldr	r3, [sp, #12]
 2346 0f1a 93F85D30 		ldrb	r3, [r3, #93]
 2347 0f1e DBB2     		uxtb	r3, r3
 2348 0f20 012B     		cmp	r3, #1
 2349 0f22 12D0     		beq	.L138
 2350              		.loc 1 1165 0 discriminator 1
 2351 0f24 039B     		ldr	r3, [sp, #12]
 2352 0f26 5B68     		ldr	r3, [r3, #4]
 2353              		.loc 1 1164 0 discriminator 1
 2354 0f28 B3F5827F 		cmp	r3, #260
 2355 0f2c 09D1     		bne	.L139
 2356              		.loc 1 1165 0
 2357 0f2e 039B     		ldr	r3, [sp, #12]
 2358 0f30 9B68     		ldr	r3, [r3, #8]
 2359 0f32 002B     		cmp	r3, #0
 2360 0f34 05D1     		bne	.L139
 2361              		.loc 1 1165 0 is_stmt 0 discriminator 1
 2362 0f36 039B     		ldr	r3, [sp, #12]
 2363 0f38 93F85D30 		ldrb	r3, [r3, #93]
 2364 0f3c DBB2     		uxtb	r3, r3
 2365 0f3e 042B     		cmp	r3, #4
 2366 0f40 03D0     		beq	.L138
 2367              	.L139:
 2368              		.loc 1 1167 0 is_stmt 1
 2369 0f42 0223     		movs	r3, #2
 2370 0f44 8DF81730 		strb	r3, [sp, #23]
 2371              		.loc 1 1168 0
 2372 0f48 A3E0     		b	.L140
 2373              	.L138:
 2374              		.loc 1 1171 0
 2375 0f4a 029B     		ldr	r3, [sp, #8]
 2376 0f4c 002B     		cmp	r3, #0
 2377 0f4e 06D0     		beq	.L141
 2378              		.loc 1 1171 0 is_stmt 0 discriminator 1
 2379 0f50 019B     		ldr	r3, [sp, #4]
 2380 0f52 002B     		cmp	r3, #0
 2381 0f54 03D0     		beq	.L141
 2382 0f56 BDF80230 		ldrh	r3, [sp, #2]
 2383 0f5a 002B     		cmp	r3, #0
 2384 0f5c 03D1     		bne	.L142
 2385              	.L141:
 2386              		.loc 1 1173 0 is_stmt 1
 2387 0f5e 0123     		movs	r3, #1
 2388 0f60 8DF81730 		strb	r3, [sp, #23]
ARM GAS  /tmp/cc34cfqS.s 			page 43


 2389              		.loc 1 1174 0
 2390 0f64 95E0     		b	.L140
 2391              	.L142:
 2392              		.loc 1 1177 0
 2393 0f66 039B     		ldr	r3, [sp, #12]
 2394 0f68 0022     		movs	r2, #0
 2395 0f6a 9A64     		str	r2, [r3, #72]
 2396              		.loc 1 1178 0
 2397 0f6c 039B     		ldr	r3, [sp, #12]
 2398 0f6e 9B6A     		ldr	r3, [r3, #40]
 2399 0f70 B3F5005F 		cmp	r3, #8192
 2400 0f74 0ED1     		bne	.L143
 2401              		.loc 1 1180 0
 2402 0f76 039B     		ldr	r3, [sp, #12]
 2403 0f78 0122     		movs	r2, #1
 2404 0f7a 9A64     		str	r2, [r3, #72]
 2405              		.loc 1 1181 0
 2406 0f7c 039B     		ldr	r3, [sp, #12]
 2407 0f7e DB68     		ldr	r3, [r3, #12]
 2408 0f80 B3F5E06F 		cmp	r3, #1792
 2409 0f84 06D8     		bhi	.L143
 2410              		.loc 1 1181 0 is_stmt 0 discriminator 1
 2411 0f86 039B     		ldr	r3, [sp, #12]
 2412 0f88 1B6B     		ldr	r3, [r3, #48]
 2413 0f8a 022B     		cmp	r3, #2
 2414 0f8c 02D1     		bne	.L143
 2415              		.loc 1 1183 0 is_stmt 1
 2416 0f8e 039B     		ldr	r3, [sp, #12]
 2417 0f90 0222     		movs	r2, #2
 2418 0f92 9A64     		str	r2, [r3, #72]
 2419              	.L143:
 2420              		.loc 1 1187 0
 2421 0f94 039B     		ldr	r3, [sp, #12]
 2422 0f96 93F85D30 		ldrb	r3, [r3, #93]
 2423 0f9a DBB2     		uxtb	r3, r3
 2424 0f9c 042B     		cmp	r3, #4
 2425 0f9e 03D0     		beq	.L144
 2426              		.loc 1 1189 0
 2427 0fa0 039B     		ldr	r3, [sp, #12]
 2428 0fa2 0522     		movs	r2, #5
 2429 0fa4 83F85D20 		strb	r2, [r3, #93]
 2430              	.L144:
 2431              		.loc 1 1192 0
 2432 0fa8 039B     		ldr	r3, [sp, #12]
 2433 0faa 0022     		movs	r2, #0
 2434 0fac 1A66     		str	r2, [r3, #96]
 2435              		.loc 1 1193 0
 2436 0fae 039B     		ldr	r3, [sp, #12]
 2437 0fb0 029A     		ldr	r2, [sp, #8]
 2438 0fb2 9A63     		str	r2, [r3, #56]
 2439              		.loc 1 1194 0
 2440 0fb4 039B     		ldr	r3, [sp, #12]
 2441 0fb6 BDF80220 		ldrh	r2, [sp, #2]	@ movhi
 2442 0fba 9A87     		strh	r2, [r3, #60]	@ movhi
 2443              		.loc 1 1195 0
 2444 0fbc 039B     		ldr	r3, [sp, #12]
 2445 0fbe BDF80220 		ldrh	r2, [sp, #2]	@ movhi
ARM GAS  /tmp/cc34cfqS.s 			page 44


 2446 0fc2 DA87     		strh	r2, [r3, #62]	@ movhi
 2447              		.loc 1 1196 0
 2448 0fc4 039B     		ldr	r3, [sp, #12]
 2449 0fc6 019A     		ldr	r2, [sp, #4]
 2450 0fc8 1A64     		str	r2, [r3, #64]
 2451              		.loc 1 1197 0
 2452 0fca 039B     		ldr	r3, [sp, #12]
 2453 0fcc BDF80220 		ldrh	r2, [sp, #2]	@ movhi
 2454 0fd0 A3F84420 		strh	r2, [r3, #68]	@ movhi
 2455              		.loc 1 1198 0
 2456 0fd4 039B     		ldr	r3, [sp, #12]
 2457 0fd6 BDF80220 		ldrh	r2, [sp, #2]	@ movhi
 2458 0fda A3F84620 		strh	r2, [r3, #70]	@ movhi
 2459              		.loc 1 1201 0
 2460 0fde 039B     		ldr	r3, [sp, #12]
 2461 0fe0 DB68     		ldr	r3, [r3, #12]
 2462 0fe2 B3F5E06F 		cmp	r3, #1792
 2463 0fe6 06D9     		bls	.L145
 2464              		.loc 1 1203 0
 2465 0fe8 039B     		ldr	r3, [sp, #12]
 2466 0fea 2E4A     		ldr	r2, .L151
 2467 0fec DA64     		str	r2, [r3, #76]
 2468              		.loc 1 1204 0
 2469 0fee 039B     		ldr	r3, [sp, #12]
 2470 0ff0 2D4A     		ldr	r2, .L151+4
 2471 0ff2 1A65     		str	r2, [r3, #80]
 2472 0ff4 05E0     		b	.L146
 2473              	.L145:
 2474              		.loc 1 1208 0
 2475 0ff6 039B     		ldr	r3, [sp, #12]
 2476 0ff8 2C4A     		ldr	r2, .L151+8
 2477 0ffa DA64     		str	r2, [r3, #76]
 2478              		.loc 1 1209 0
 2479 0ffc 039B     		ldr	r3, [sp, #12]
 2480 0ffe 2C4A     		ldr	r2, .L151+12
 2481 1000 1A65     		str	r2, [r3, #80]
 2482              	.L146:
 2483              		.loc 1 1213 0
 2484 1002 039B     		ldr	r3, [sp, #12]
 2485 1004 9B6A     		ldr	r3, [r3, #40]
 2486 1006 B3F5005F 		cmp	r3, #8192
 2487 100a 10D1     		bne	.L147
 2488              		.loc 1 1215 0
 2489 100c 039B     		ldr	r3, [sp, #12]
 2490 100e 1A68     		ldr	r2, [r3]
 2491 1010 039B     		ldr	r3, [sp, #12]
 2492 1012 1B68     		ldr	r3, [r3]
 2493 1014 1968     		ldr	r1, [r3]
 2494 1016 4DF6FF73 		movw	r3, #57343
 2495 101a 0B40     		ands	r3, r3, r1
 2496 101c 1360     		str	r3, [r2]
 2497 101e 039B     		ldr	r3, [sp, #12]
 2498 1020 1B68     		ldr	r3, [r3]
 2499 1022 039A     		ldr	r2, [sp, #12]
 2500 1024 1268     		ldr	r2, [r2]
 2501 1026 1268     		ldr	r2, [r2]
 2502 1028 42F40052 		orr	r2, r2, #8192
ARM GAS  /tmp/cc34cfqS.s 			page 45


 2503 102c 1A60     		str	r2, [r3]
 2504              	.L147:
 2505              		.loc 1 1219 0
 2506 102e 039B     		ldr	r3, [sp, #12]
 2507 1030 DB68     		ldr	r3, [r3, #12]
 2508 1032 B3F5E06F 		cmp	r3, #1792
 2509 1036 04D8     		bhi	.L148
 2510              		.loc 1 1219 0 is_stmt 0 discriminator 1
 2511 1038 039B     		ldr	r3, [sp, #12]
 2512 103a B3F84630 		ldrh	r3, [r3, #70]
 2513 103e 012B     		cmp	r3, #1
 2514 1040 08D9     		bls	.L149
 2515              	.L148:
 2516              		.loc 1 1222 0 is_stmt 1
 2517 1042 039B     		ldr	r3, [sp, #12]
 2518 1044 1B68     		ldr	r3, [r3]
 2519 1046 039A     		ldr	r2, [sp, #12]
 2520 1048 1268     		ldr	r2, [r2]
 2521 104a 5268     		ldr	r2, [r2, #4]
 2522 104c 22F48052 		bic	r2, r2, #4096
 2523 1050 5A60     		str	r2, [r3, #4]
 2524 1052 07E0     		b	.L150
 2525              	.L149:
 2526              		.loc 1 1227 0
 2527 1054 039B     		ldr	r3, [sp, #12]
 2528 1056 1B68     		ldr	r3, [r3]
 2529 1058 039A     		ldr	r2, [sp, #12]
 2530 105a 1268     		ldr	r2, [r2]
 2531 105c 5268     		ldr	r2, [r2, #4]
 2532 105e 42F48052 		orr	r2, r2, #4096
 2533 1062 5A60     		str	r2, [r3, #4]
 2534              	.L150:
 2535              		.loc 1 1231 0
 2536 1064 039B     		ldr	r3, [sp, #12]
 2537 1066 1B68     		ldr	r3, [r3]
 2538 1068 039A     		ldr	r2, [sp, #12]
 2539 106a 1268     		ldr	r2, [r2]
 2540 106c 5268     		ldr	r2, [r2, #4]
 2541 106e 42F0E002 		orr	r2, r2, #224
 2542 1072 5A60     		str	r2, [r3, #4]
 2543              		.loc 1 1234 0
 2544 1074 039B     		ldr	r3, [sp, #12]
 2545 1076 1B68     		ldr	r3, [r3]
 2546 1078 1B68     		ldr	r3, [r3]
 2547 107a 03F04003 		and	r3, r3, #64
 2548 107e 002B     		cmp	r3, #0
 2549 1080 07D1     		bne	.L140
 2550              		.loc 1 1237 0
 2551 1082 039B     		ldr	r3, [sp, #12]
 2552 1084 1B68     		ldr	r3, [r3]
 2553 1086 039A     		ldr	r2, [sp, #12]
 2554 1088 1268     		ldr	r2, [r2]
 2555 108a 1268     		ldr	r2, [r2]
 2556 108c 42F04002 		orr	r2, r2, #64
 2557 1090 1A60     		str	r2, [r3]
 2558              	.L140:
 2559              		.loc 1 1242 0
ARM GAS  /tmp/cc34cfqS.s 			page 46


 2560 1092 039B     		ldr	r3, [sp, #12]
 2561 1094 0022     		movs	r2, #0
 2562 1096 83F85C20 		strb	r2, [r3, #92]
 2563              		.loc 1 1243 0
 2564 109a 9DF81730 		ldrb	r3, [sp, #23]	@ zero_extendqisi2
 2565              	.L137:
 2566              		.loc 1 1244 0
 2567 109e 1846     		mov	r0, r3
 2568 10a0 06B0     		add	sp, sp, #24
 2569              		@ sp needed
 2570 10a2 7047     		bx	lr
 2571              	.L152:
 2572              		.align	2
 2573              	.L151:
 2574 10a4 00000000 		.word	SPI_2linesRxISR_16BIT
 2575 10a8 00000000 		.word	SPI_2linesTxISR_16BIT
 2576 10ac 00000000 		.word	SPI_2linesRxISR_8BIT
 2577 10b0 00000000 		.word	SPI_2linesTxISR_8BIT
 2578              		.cfi_endproc
 2579              	.LFE134:
 2580              		.size	HAL_SPI_TransmitReceive_IT, .-HAL_SPI_TransmitReceive_IT
 2581              		.align	2
 2582 10b4 AFF30080 		.p2align 4,,15
 2582      AFF30080 
 2582      AFF30080 
 2583              		.global	HAL_SPI_Transmit_DMA
 2584              		.thumb
 2585              		.thumb_func
 2586              		.type	HAL_SPI_Transmit_DMA, %function
 2587              	HAL_SPI_Transmit_DMA:
 2588              	.LFB135:
 2589              		.loc 1 1255 0
 2590              		.cfi_startproc
 2591              		@ args = 0, pretend = 0, frame = 24
 2592              		@ frame_needed = 0, uses_anonymous_args = 0
 2593 10c0 00B5     		push	{lr}
 2594              		.cfi_def_cfa_offset 4
 2595              		.cfi_offset 14, -4
 2596 10c2 87B0     		sub	sp, sp, #28
 2597              		.cfi_def_cfa_offset 32
 2598 10c4 0390     		str	r0, [sp, #12]
 2599 10c6 0291     		str	r1, [sp, #8]
 2600 10c8 1346     		mov	r3, r2
 2601 10ca ADF80630 		strh	r3, [sp, #6]	@ movhi
 2602              		.loc 1 1256 0
 2603 10ce 0023     		movs	r3, #0
 2604 10d0 8DF81730 		strb	r3, [sp, #23]
 2605              		.loc 1 1260 0
 2606 10d4 039B     		ldr	r3, [sp, #12]
 2607 10d6 93F85C30 		ldrb	r3, [r3, #92]	@ zero_extendqisi2
 2608 10da 012B     		cmp	r3, #1
 2609 10dc 01D1     		bne	.L154
 2610              		.loc 1 1260 0 is_stmt 0 discriminator 1
 2611 10de 0223     		movs	r3, #2
 2612 10e0 C6E0     		b	.L155
 2613              	.L154:
 2614              		.loc 1 1260 0 discriminator 2
ARM GAS  /tmp/cc34cfqS.s 			page 47


 2615 10e2 039B     		ldr	r3, [sp, #12]
 2616 10e4 0122     		movs	r2, #1
 2617 10e6 83F85C20 		strb	r2, [r3, #92]
 2618              		.loc 1 1262 0 is_stmt 1 discriminator 2
 2619 10ea 039B     		ldr	r3, [sp, #12]
 2620 10ec 93F85D30 		ldrb	r3, [r3, #93]
 2621 10f0 DBB2     		uxtb	r3, r3
 2622 10f2 012B     		cmp	r3, #1
 2623 10f4 03D0     		beq	.L156
 2624              		.loc 1 1264 0
 2625 10f6 0223     		movs	r3, #2
 2626 10f8 8DF81730 		strb	r3, [sp, #23]
 2627              		.loc 1 1265 0
 2628 10fc B2E0     		b	.L157
 2629              	.L156:
 2630              		.loc 1 1268 0
 2631 10fe 029B     		ldr	r3, [sp, #8]
 2632 1100 002B     		cmp	r3, #0
 2633 1102 03D0     		beq	.L158
 2634              		.loc 1 1268 0 is_stmt 0 discriminator 1
 2635 1104 BDF80630 		ldrh	r3, [sp, #6]
 2636 1108 002B     		cmp	r3, #0
 2637 110a 03D1     		bne	.L159
 2638              	.L158:
 2639              		.loc 1 1270 0 is_stmt 1
 2640 110c 0123     		movs	r3, #1
 2641 110e 8DF81730 		strb	r3, [sp, #23]
 2642              		.loc 1 1271 0
 2643 1112 A7E0     		b	.L157
 2644              	.L159:
 2645              		.loc 1 1274 0
 2646 1114 039B     		ldr	r3, [sp, #12]
 2647 1116 0322     		movs	r2, #3
 2648 1118 83F85D20 		strb	r2, [r3, #93]
 2649              		.loc 1 1275 0
 2650 111c 039B     		ldr	r3, [sp, #12]
 2651 111e 0022     		movs	r2, #0
 2652 1120 1A66     		str	r2, [r3, #96]
 2653              		.loc 1 1276 0
 2654 1122 039B     		ldr	r3, [sp, #12]
 2655 1124 029A     		ldr	r2, [sp, #8]
 2656 1126 9A63     		str	r2, [r3, #56]
 2657              		.loc 1 1277 0
 2658 1128 039B     		ldr	r3, [sp, #12]
 2659 112a BDF80620 		ldrh	r2, [sp, #6]	@ movhi
 2660 112e 9A87     		strh	r2, [r3, #60]	@ movhi
 2661              		.loc 1 1278 0
 2662 1130 039B     		ldr	r3, [sp, #12]
 2663 1132 BDF80620 		ldrh	r2, [sp, #6]	@ movhi
 2664 1136 DA87     		strh	r2, [r3, #62]	@ movhi
 2665              		.loc 1 1279 0
 2666 1138 039B     		ldr	r3, [sp, #12]
 2667 113a 0022     		movs	r2, #0
 2668 113c 1A64     		str	r2, [r3, #64]
 2669              		.loc 1 1280 0
 2670 113e 039B     		ldr	r3, [sp, #12]
 2671 1140 0022     		movs	r2, #0
ARM GAS  /tmp/cc34cfqS.s 			page 48


 2672 1142 A3F84420 		strh	r2, [r3, #68]	@ movhi
 2673              		.loc 1 1281 0
 2674 1146 039B     		ldr	r3, [sp, #12]
 2675 1148 0022     		movs	r2, #0
 2676 114a A3F84620 		strh	r2, [r3, #70]	@ movhi
 2677              		.loc 1 1284 0
 2678 114e 039B     		ldr	r3, [sp, #12]
 2679 1150 9B68     		ldr	r3, [r3, #8]
 2680 1152 B3F5004F 		cmp	r3, #32768
 2681 1156 07D1     		bne	.L160
 2682              		.loc 1 1286 0
 2683 1158 039B     		ldr	r3, [sp, #12]
 2684 115a 1B68     		ldr	r3, [r3]
 2685 115c 039A     		ldr	r2, [sp, #12]
 2686 115e 1268     		ldr	r2, [r2]
 2687 1160 1268     		ldr	r2, [r2]
 2688 1162 42F48042 		orr	r2, r2, #16384
 2689 1166 1A60     		str	r2, [r3]
 2690              	.L160:
 2691              		.loc 1 1290 0
 2692 1168 039B     		ldr	r3, [sp, #12]
 2693 116a 9B6A     		ldr	r3, [r3, #40]
 2694 116c B3F5005F 		cmp	r3, #8192
 2695 1170 10D1     		bne	.L161
 2696              		.loc 1 1292 0
 2697 1172 039B     		ldr	r3, [sp, #12]
 2698 1174 1A68     		ldr	r2, [r3]
 2699 1176 039B     		ldr	r3, [sp, #12]
 2700 1178 1B68     		ldr	r3, [r3]
 2701 117a 1968     		ldr	r1, [r3]
 2702 117c 4DF6FF73 		movw	r3, #57343
 2703 1180 0B40     		ands	r3, r3, r1
 2704 1182 1360     		str	r3, [r2]
 2705 1184 039B     		ldr	r3, [sp, #12]
 2706 1186 1B68     		ldr	r3, [r3]
 2707 1188 039A     		ldr	r2, [sp, #12]
 2708 118a 1268     		ldr	r2, [r2]
 2709 118c 1268     		ldr	r2, [r2]
 2710 118e 42F40052 		orr	r2, r2, #8192
 2711 1192 1A60     		str	r2, [r3]
 2712              	.L161:
 2713              		.loc 1 1296 0
 2714 1194 039B     		ldr	r3, [sp, #12]
 2715 1196 5B6D     		ldr	r3, [r3, #84]
 2716 1198 374A     		ldr	r2, .L165
 2717 119a 1A63     		str	r2, [r3, #48]
 2718              		.loc 1 1299 0
 2719 119c 039B     		ldr	r3, [sp, #12]
 2720 119e 5B6D     		ldr	r3, [r3, #84]
 2721 11a0 364A     		ldr	r2, .L165+4
 2722 11a2 DA62     		str	r2, [r3, #44]
 2723              		.loc 1 1302 0
 2724 11a4 039B     		ldr	r3, [sp, #12]
 2725 11a6 5B6D     		ldr	r3, [r3, #84]
 2726 11a8 354A     		ldr	r2, .L165+8
 2727 11aa 5A63     		str	r2, [r3, #52]
 2728              		.loc 1 1304 0
ARM GAS  /tmp/cc34cfqS.s 			page 49


 2729 11ac 039B     		ldr	r3, [sp, #12]
 2730 11ae 1B68     		ldr	r3, [r3]
 2731 11b0 039A     		ldr	r2, [sp, #12]
 2732 11b2 1268     		ldr	r2, [r2]
 2733 11b4 5268     		ldr	r2, [r2, #4]
 2734 11b6 22F48042 		bic	r2, r2, #16384
 2735 11ba 5A60     		str	r2, [r3, #4]
 2736              		.loc 1 1306 0
 2737 11bc 039B     		ldr	r3, [sp, #12]
 2738 11be DB68     		ldr	r3, [r3, #12]
 2739 11c0 B3F5E06F 		cmp	r3, #1792
 2740 11c4 2AD8     		bhi	.L162
 2741              		.loc 1 1306 0 is_stmt 0 discriminator 1
 2742 11c6 039B     		ldr	r3, [sp, #12]
 2743 11c8 5B6D     		ldr	r3, [r3, #84]
 2744 11ca 9B69     		ldr	r3, [r3, #24]
 2745 11cc B3F5806F 		cmp	r3, #1024
 2746 11d0 24D1     		bne	.L162
 2747              		.loc 1 1309 0 is_stmt 1
 2748 11d2 039B     		ldr	r3, [sp, #12]
 2749 11d4 DB8F     		ldrh	r3, [r3, #62]
 2750 11d6 03F00103 		and	r3, r3, #1
 2751 11da 002B     		cmp	r3, #0
 2752 11dc 0ED1     		bne	.L163
 2753              		.loc 1 1311 0
 2754 11de 039B     		ldr	r3, [sp, #12]
 2755 11e0 1B68     		ldr	r3, [r3]
 2756 11e2 039A     		ldr	r2, [sp, #12]
 2757 11e4 1268     		ldr	r2, [r2]
 2758 11e6 5268     		ldr	r2, [r2, #4]
 2759 11e8 22F48042 		bic	r2, r2, #16384
 2760 11ec 5A60     		str	r2, [r3, #4]
 2761              		.loc 1 1312 0
 2762 11ee 039B     		ldr	r3, [sp, #12]
 2763 11f0 DB8F     		ldrh	r3, [r3, #62]
 2764 11f2 5B08     		lsrs	r3, r3, #1
 2765 11f4 9AB2     		uxth	r2, r3
 2766 11f6 039B     		ldr	r3, [sp, #12]
 2767 11f8 DA87     		strh	r2, [r3, #62]	@ movhi
 2768 11fa 0FE0     		b	.L162
 2769              	.L163:
 2770              		.loc 1 1316 0
 2771 11fc 039B     		ldr	r3, [sp, #12]
 2772 11fe 1B68     		ldr	r3, [r3]
 2773 1200 039A     		ldr	r2, [sp, #12]
 2774 1202 1268     		ldr	r2, [r2]
 2775 1204 5268     		ldr	r2, [r2, #4]
 2776 1206 42F48042 		orr	r2, r2, #16384
 2777 120a 5A60     		str	r2, [r3, #4]
 2778              		.loc 1 1317 0
 2779 120c 039B     		ldr	r3, [sp, #12]
 2780 120e DB8F     		ldrh	r3, [r3, #62]
 2781 1210 5B08     		lsrs	r3, r3, #1
 2782 1212 9BB2     		uxth	r3, r3
 2783 1214 0133     		adds	r3, r3, #1
 2784 1216 9AB2     		uxth	r2, r3
 2785 1218 039B     		ldr	r3, [sp, #12]
ARM GAS  /tmp/cc34cfqS.s 			page 50


 2786 121a DA87     		strh	r2, [r3, #62]	@ movhi
 2787              	.L162:
 2788              		.loc 1 1322 0
 2789 121c 039B     		ldr	r3, [sp, #12]
 2790 121e 586D     		ldr	r0, [r3, #84]
 2791 1220 039B     		ldr	r3, [sp, #12]
 2792 1222 9B6B     		ldr	r3, [r3, #56]
 2793 1224 1946     		mov	r1, r3
 2794 1226 039B     		ldr	r3, [sp, #12]
 2795 1228 1B68     		ldr	r3, [r3]
 2796 122a 0C33     		adds	r3, r3, #12
 2797 122c 1A46     		mov	r2, r3
 2798 122e 039B     		ldr	r3, [sp, #12]
 2799 1230 DB8F     		ldrh	r3, [r3, #62]
 2800 1232 FFF7FEFF 		bl	HAL_DMA_Start_IT
 2801              		.loc 1 1325 0
 2802 1236 039B     		ldr	r3, [sp, #12]
 2803 1238 1B68     		ldr	r3, [r3]
 2804 123a 1B68     		ldr	r3, [r3]
 2805 123c 03F04003 		and	r3, r3, #64
 2806 1240 002B     		cmp	r3, #0
 2807 1242 07D1     		bne	.L164
 2808              		.loc 1 1328 0
 2809 1244 039B     		ldr	r3, [sp, #12]
 2810 1246 1B68     		ldr	r3, [r3]
 2811 1248 039A     		ldr	r2, [sp, #12]
 2812 124a 1268     		ldr	r2, [r2]
 2813 124c 1268     		ldr	r2, [r2]
 2814 124e 42F04002 		orr	r2, r2, #64
 2815 1252 1A60     		str	r2, [r3]
 2816              	.L164:
 2817              		.loc 1 1332 0
 2818 1254 039B     		ldr	r3, [sp, #12]
 2819 1256 1B68     		ldr	r3, [r3]
 2820 1258 039A     		ldr	r2, [sp, #12]
 2821 125a 1268     		ldr	r2, [r2]
 2822 125c 5268     		ldr	r2, [r2, #4]
 2823 125e 42F00202 		orr	r2, r2, #2
 2824 1262 5A60     		str	r2, [r3, #4]
 2825              	.L157:
 2826              		.loc 1 1336 0
 2827 1264 039B     		ldr	r3, [sp, #12]
 2828 1266 0022     		movs	r2, #0
 2829 1268 83F85C20 		strb	r2, [r3, #92]
 2830              		.loc 1 1337 0
 2831 126c 9DF81730 		ldrb	r3, [sp, #23]	@ zero_extendqisi2
 2832              	.L155:
 2833              		.loc 1 1338 0
 2834 1270 1846     		mov	r0, r3
 2835 1272 07B0     		add	sp, sp, #28
 2836              		@ sp needed
 2837 1274 5DF804FB 		ldr	pc, [sp], #4
 2838              	.L166:
 2839              		.align	2
 2840              	.L165:
 2841 1278 00000000 		.word	SPI_DMAHalfTransmitCplt
 2842 127c 00000000 		.word	SPI_DMATransmitCplt
ARM GAS  /tmp/cc34cfqS.s 			page 51


 2843 1280 00000000 		.word	SPI_DMAError
 2844              		.cfi_endproc
 2845              	.LFE135:
 2846              		.size	HAL_SPI_Transmit_DMA, .-HAL_SPI_Transmit_DMA
 2847              		.align	2
 2848 1284 AFF30080 		.p2align 4,,15
 2848      AFF30080 
 2848      AFF30080 
 2849              		.global	HAL_SPI_Receive_DMA
 2850              		.thumb
 2851              		.thumb_func
 2852              		.type	HAL_SPI_Receive_DMA, %function
 2853              	HAL_SPI_Receive_DMA:
 2854              	.LFB136:
 2855              		.loc 1 1350 0
 2856              		.cfi_startproc
 2857              		@ args = 0, pretend = 0, frame = 24
 2858              		@ frame_needed = 0, uses_anonymous_args = 0
 2859 1290 00B5     		push	{lr}
 2860              		.cfi_def_cfa_offset 4
 2861              		.cfi_offset 14, -4
 2862 1292 87B0     		sub	sp, sp, #28
 2863              		.cfi_def_cfa_offset 32
 2864 1294 0390     		str	r0, [sp, #12]
 2865 1296 0291     		str	r1, [sp, #8]
 2866 1298 1346     		mov	r3, r2
 2867 129a ADF80630 		strh	r3, [sp, #6]	@ movhi
 2868              		.loc 1 1351 0
 2869 129e 0023     		movs	r3, #0
 2870 12a0 8DF81730 		strb	r3, [sp, #23]
 2871              		.loc 1 1354 0
 2872 12a4 039B     		ldr	r3, [sp, #12]
 2873 12a6 93F85C30 		ldrb	r3, [r3, #92]	@ zero_extendqisi2
 2874 12aa 012B     		cmp	r3, #1
 2875 12ac 01D1     		bne	.L168
 2876              		.loc 1 1354 0 is_stmt 0 discriminator 1
 2877 12ae 0223     		movs	r3, #2
 2878 12b0 D2E0     		b	.L169
 2879              	.L168:
 2880              		.loc 1 1354 0 discriminator 2
 2881 12b2 039B     		ldr	r3, [sp, #12]
 2882 12b4 0122     		movs	r2, #1
 2883 12b6 83F85C20 		strb	r2, [r3, #92]
 2884              		.loc 1 1356 0 is_stmt 1 discriminator 2
 2885 12ba 039B     		ldr	r3, [sp, #12]
 2886 12bc 93F85D30 		ldrb	r3, [r3, #93]
 2887 12c0 DBB2     		uxtb	r3, r3
 2888 12c2 012B     		cmp	r3, #1
 2889 12c4 03D0     		beq	.L170
 2890              		.loc 1 1358 0
 2891 12c6 0223     		movs	r3, #2
 2892 12c8 8DF81730 		strb	r3, [sp, #23]
 2893              		.loc 1 1359 0
 2894 12cc BEE0     		b	.L171
 2895              	.L170:
 2896              		.loc 1 1362 0
 2897 12ce 029B     		ldr	r3, [sp, #8]
ARM GAS  /tmp/cc34cfqS.s 			page 52


 2898 12d0 002B     		cmp	r3, #0
 2899 12d2 03D0     		beq	.L172
 2900              		.loc 1 1362 0 is_stmt 0 discriminator 1
 2901 12d4 BDF80630 		ldrh	r3, [sp, #6]
 2902 12d8 002B     		cmp	r3, #0
 2903 12da 03D1     		bne	.L173
 2904              	.L172:
 2905              		.loc 1 1364 0 is_stmt 1
 2906 12dc 0123     		movs	r3, #1
 2907 12de 8DF81730 		strb	r3, [sp, #23]
 2908              		.loc 1 1365 0
 2909 12e2 B3E0     		b	.L171
 2910              	.L173:
 2911              		.loc 1 1368 0
 2912 12e4 039B     		ldr	r3, [sp, #12]
 2913 12e6 0422     		movs	r2, #4
 2914 12e8 83F85D20 		strb	r2, [r3, #93]
 2915              		.loc 1 1369 0
 2916 12ec 039B     		ldr	r3, [sp, #12]
 2917 12ee 0022     		movs	r2, #0
 2918 12f0 1A66     		str	r2, [r3, #96]
 2919              		.loc 1 1370 0
 2920 12f2 039B     		ldr	r3, [sp, #12]
 2921 12f4 029A     		ldr	r2, [sp, #8]
 2922 12f6 1A64     		str	r2, [r3, #64]
 2923              		.loc 1 1371 0
 2924 12f8 039B     		ldr	r3, [sp, #12]
 2925 12fa BDF80620 		ldrh	r2, [sp, #6]	@ movhi
 2926 12fe A3F84420 		strh	r2, [r3, #68]	@ movhi
 2927              		.loc 1 1372 0
 2928 1302 039B     		ldr	r3, [sp, #12]
 2929 1304 BDF80620 		ldrh	r2, [sp, #6]	@ movhi
 2930 1308 A3F84620 		strh	r2, [r3, #70]	@ movhi
 2931              		.loc 1 1373 0
 2932 130c 039B     		ldr	r3, [sp, #12]
 2933 130e 0022     		movs	r2, #0
 2934 1310 9A63     		str	r2, [r3, #56]
 2935              		.loc 1 1374 0
 2936 1312 039B     		ldr	r3, [sp, #12]
 2937 1314 0022     		movs	r2, #0
 2938 1316 9A87     		strh	r2, [r3, #60]	@ movhi
 2939              		.loc 1 1375 0
 2940 1318 039B     		ldr	r3, [sp, #12]
 2941 131a 0022     		movs	r2, #0
 2942 131c DA87     		strh	r2, [r3, #62]	@ movhi
 2943              		.loc 1 1377 0
 2944 131e 039B     		ldr	r3, [sp, #12]
 2945 1320 5B68     		ldr	r3, [r3, #4]
 2946 1322 B3F5827F 		cmp	r3, #260
 2947 1326 10D1     		bne	.L174
 2948              		.loc 1 1377 0 is_stmt 0 discriminator 1
 2949 1328 039B     		ldr	r3, [sp, #12]
 2950 132a 9B68     		ldr	r3, [r3, #8]
 2951 132c 002B     		cmp	r3, #0
 2952 132e 0CD1     		bne	.L174
 2953              		.loc 1 1380 0 is_stmt 1
 2954 1330 039B     		ldr	r3, [sp, #12]
ARM GAS  /tmp/cc34cfqS.s 			page 53


 2955 1332 0022     		movs	r2, #0
 2956 1334 83F85C20 		strb	r2, [r3, #92]
 2957              		.loc 1 1383 0
 2958 1338 BDF80630 		ldrh	r3, [sp, #6]
 2959 133c 0398     		ldr	r0, [sp, #12]
 2960 133e 0299     		ldr	r1, [sp, #8]
 2961 1340 029A     		ldr	r2, [sp, #8]
 2962 1342 FFF7FEFF 		bl	HAL_SPI_TransmitReceive_DMA
 2963 1346 0346     		mov	r3, r0
 2964 1348 86E0     		b	.L169
 2965              	.L174:
 2966              		.loc 1 1387 0
 2967 134a 039B     		ldr	r3, [sp, #12]
 2968 134c 9B68     		ldr	r3, [r3, #8]
 2969 134e B3F5004F 		cmp	r3, #32768
 2970 1352 07D1     		bne	.L175
 2971              		.loc 1 1389 0
 2972 1354 039B     		ldr	r3, [sp, #12]
 2973 1356 1B68     		ldr	r3, [r3]
 2974 1358 039A     		ldr	r2, [sp, #12]
 2975 135a 1268     		ldr	r2, [r2]
 2976 135c 1268     		ldr	r2, [r2]
 2977 135e 22F48042 		bic	r2, r2, #16384
 2978 1362 1A60     		str	r2, [r3]
 2979              	.L175:
 2980              		.loc 1 1393 0
 2981 1364 039B     		ldr	r3, [sp, #12]
 2982 1366 9B6A     		ldr	r3, [r3, #40]
 2983 1368 B3F5005F 		cmp	r3, #8192
 2984 136c 10D1     		bne	.L176
 2985              		.loc 1 1395 0
 2986 136e 039B     		ldr	r3, [sp, #12]
 2987 1370 1A68     		ldr	r2, [r3]
 2988 1372 039B     		ldr	r3, [sp, #12]
 2989 1374 1B68     		ldr	r3, [r3]
 2990 1376 1968     		ldr	r1, [r3]
 2991 1378 4DF6FF73 		movw	r3, #57343
 2992 137c 0B40     		ands	r3, r3, r1
 2993 137e 1360     		str	r3, [r2]
 2994 1380 039B     		ldr	r3, [sp, #12]
 2995 1382 1B68     		ldr	r3, [r3]
 2996 1384 039A     		ldr	r2, [sp, #12]
 2997 1386 1268     		ldr	r2, [r2]
 2998 1388 1268     		ldr	r2, [r2]
 2999 138a 42F40052 		orr	r2, r2, #8192
 3000 138e 1A60     		str	r2, [r3]
 3001              	.L176:
 3002              		.loc 1 1399 0
 3003 1390 039B     		ldr	r3, [sp, #12]
 3004 1392 DB68     		ldr	r3, [r3, #12]
 3005 1394 B3F5E06F 		cmp	r3, #1792
 3006 1398 09D8     		bhi	.L177
 3007              		.loc 1 1399 0 is_stmt 0 discriminator 1
 3008 139a 039B     		ldr	r3, [sp, #12]
 3009 139c 9B6D     		ldr	r3, [r3, #88]
 3010 139e 9B69     		ldr	r3, [r3, #24]
 3011 13a0 B3F5806F 		cmp	r3, #1024
ARM GAS  /tmp/cc34cfqS.s 			page 54


 3012 13a4 03D1     		bne	.L177
 3013              		.loc 1 1402 0 is_stmt 1
 3014 13a6 0123     		movs	r3, #1
 3015 13a8 8DF81730 		strb	r3, [sp, #23]
 3016              		.loc 1 1403 0
 3017 13ac 4EE0     		b	.L171
 3018              	.L177:
 3019              		.loc 1 1406 0
 3020 13ae 039B     		ldr	r3, [sp, #12]
 3021 13b0 1B68     		ldr	r3, [r3]
 3022 13b2 039A     		ldr	r2, [sp, #12]
 3023 13b4 1268     		ldr	r2, [r2]
 3024 13b6 5268     		ldr	r2, [r2, #4]
 3025 13b8 22F40052 		bic	r2, r2, #8192
 3026 13bc 5A60     		str	r2, [r3, #4]
 3027              		.loc 1 1407 0
 3028 13be 039B     		ldr	r3, [sp, #12]
 3029 13c0 DB68     		ldr	r3, [r3, #12]
 3030 13c2 B3F5E06F 		cmp	r3, #1792
 3031 13c6 08D9     		bls	.L178
 3032              		.loc 1 1410 0
 3033 13c8 039B     		ldr	r3, [sp, #12]
 3034 13ca 1B68     		ldr	r3, [r3]
 3035 13cc 039A     		ldr	r2, [sp, #12]
 3036 13ce 1268     		ldr	r2, [r2]
 3037 13d0 5268     		ldr	r2, [r2, #4]
 3038 13d2 22F48052 		bic	r2, r2, #4096
 3039 13d6 5A60     		str	r2, [r3, #4]
 3040 13d8 07E0     		b	.L179
 3041              	.L178:
 3042              		.loc 1 1415 0
 3043 13da 039B     		ldr	r3, [sp, #12]
 3044 13dc 1B68     		ldr	r3, [r3]
 3045 13de 039A     		ldr	r2, [sp, #12]
 3046 13e0 1268     		ldr	r2, [r2]
 3047 13e2 5268     		ldr	r2, [r2, #4]
 3048 13e4 42F48052 		orr	r2, r2, #4096
 3049 13e8 5A60     		str	r2, [r3, #4]
 3050              	.L179:
 3051              		.loc 1 1419 0
 3052 13ea 039B     		ldr	r3, [sp, #12]
 3053 13ec 9B6D     		ldr	r3, [r3, #88]
 3054 13ee 1C4A     		ldr	r2, .L180
 3055 13f0 1A63     		str	r2, [r3, #48]
 3056              		.loc 1 1422 0
 3057 13f2 039B     		ldr	r3, [sp, #12]
 3058 13f4 9B6D     		ldr	r3, [r3, #88]
 3059 13f6 1B4A     		ldr	r2, .L180+4
 3060 13f8 DA62     		str	r2, [r3, #44]
 3061              		.loc 1 1425 0
 3062 13fa 039B     		ldr	r3, [sp, #12]
 3063 13fc 9B6D     		ldr	r3, [r3, #88]
 3064 13fe 1A4A     		ldr	r2, .L180+8
 3065 1400 5A63     		str	r2, [r3, #52]
 3066              		.loc 1 1428 0
 3067 1402 039B     		ldr	r3, [sp, #12]
 3068 1404 1B68     		ldr	r3, [r3]
ARM GAS  /tmp/cc34cfqS.s 			page 55


 3069 1406 039A     		ldr	r2, [sp, #12]
 3070 1408 1268     		ldr	r2, [r2]
 3071 140a 5268     		ldr	r2, [r2, #4]
 3072 140c 42F00102 		orr	r2, r2, #1
 3073 1410 5A60     		str	r2, [r3, #4]
 3074              		.loc 1 1431 0
 3075 1412 039B     		ldr	r3, [sp, #12]
 3076 1414 986D     		ldr	r0, [r3, #88]
 3077 1416 039B     		ldr	r3, [sp, #12]
 3078 1418 1B68     		ldr	r3, [r3]
 3079 141a 0C33     		adds	r3, r3, #12
 3080 141c 1946     		mov	r1, r3
 3081 141e 039B     		ldr	r3, [sp, #12]
 3082 1420 1B6C     		ldr	r3, [r3, #64]
 3083 1422 1A46     		mov	r2, r3
 3084 1424 039B     		ldr	r3, [sp, #12]
 3085 1426 B3F84630 		ldrh	r3, [r3, #70]
 3086 142a FFF7FEFF 		bl	HAL_DMA_Start_IT
 3087              		.loc 1 1434 0
 3088 142e 039B     		ldr	r3, [sp, #12]
 3089 1430 1B68     		ldr	r3, [r3]
 3090 1432 1B68     		ldr	r3, [r3]
 3091 1434 03F04003 		and	r3, r3, #64
 3092 1438 002B     		cmp	r3, #0
 3093 143a 07D1     		bne	.L171
 3094              		.loc 1 1437 0
 3095 143c 039B     		ldr	r3, [sp, #12]
 3096 143e 1B68     		ldr	r3, [r3]
 3097 1440 039A     		ldr	r2, [sp, #12]
 3098 1442 1268     		ldr	r2, [r2]
 3099 1444 1268     		ldr	r2, [r2]
 3100 1446 42F04002 		orr	r2, r2, #64
 3101 144a 1A60     		str	r2, [r3]
 3102              	.L171:
 3103              		.loc 1 1442 0
 3104 144c 039B     		ldr	r3, [sp, #12]
 3105 144e 0022     		movs	r2, #0
 3106 1450 83F85C20 		strb	r2, [r3, #92]
 3107              		.loc 1 1443 0
 3108 1454 9DF81730 		ldrb	r3, [sp, #23]	@ zero_extendqisi2
 3109              	.L169:
 3110              		.loc 1 1444 0
 3111 1458 1846     		mov	r0, r3
 3112 145a 07B0     		add	sp, sp, #28
 3113              		@ sp needed
 3114 145c 5DF804FB 		ldr	pc, [sp], #4
 3115              	.L181:
 3116              		.align	2
 3117              	.L180:
 3118 1460 00000000 		.word	SPI_DMAHalfReceiveCplt
 3119 1464 00000000 		.word	SPI_DMAReceiveCplt
 3120 1468 00000000 		.word	SPI_DMAError
 3121              		.cfi_endproc
 3122              	.LFE136:
 3123              		.size	HAL_SPI_Receive_DMA, .-HAL_SPI_Receive_DMA
 3124              		.align	2
 3125 146c AFF30080 		.p2align 4,,15
ARM GAS  /tmp/cc34cfqS.s 			page 56


 3126              		.global	HAL_SPI_TransmitReceive_DMA
 3127              		.thumb
 3128              		.thumb_func
 3129              		.type	HAL_SPI_TransmitReceive_DMA, %function
 3130              	HAL_SPI_TransmitReceive_DMA:
 3131              	.LFB137:
 3132              		.loc 1 1457 0
 3133              		.cfi_startproc
 3134              		@ args = 0, pretend = 0, frame = 24
 3135              		@ frame_needed = 0, uses_anonymous_args = 0
 3136 1470 00B5     		push	{lr}
 3137              		.cfi_def_cfa_offset 4
 3138              		.cfi_offset 14, -4
 3139 1472 87B0     		sub	sp, sp, #28
 3140              		.cfi_def_cfa_offset 32
 3141 1474 0390     		str	r0, [sp, #12]
 3142 1476 0291     		str	r1, [sp, #8]
 3143 1478 0192     		str	r2, [sp, #4]
 3144 147a ADF80230 		strh	r3, [sp, #2]	@ movhi
 3145              		.loc 1 1458 0
 3146 147e 0023     		movs	r3, #0
 3147 1480 8DF81730 		strb	r3, [sp, #23]
 3148              		.loc 1 1462 0
 3149 1484 039B     		ldr	r3, [sp, #12]
 3150 1486 93F85C30 		ldrb	r3, [r3, #92]	@ zero_extendqisi2
 3151 148a 012B     		cmp	r3, #1
 3152 148c 01D1     		bne	.L183
 3153              		.loc 1 1462 0 is_stmt 0 discriminator 1
 3154 148e 0223     		movs	r3, #2
 3155 1490 51E1     		b	.L184
 3156              	.L183:
 3157              		.loc 1 1462 0 discriminator 2
 3158 1492 039B     		ldr	r3, [sp, #12]
 3159 1494 0122     		movs	r2, #1
 3160 1496 83F85C20 		strb	r2, [r3, #92]
 3161              		.loc 1 1464 0 is_stmt 1 discriminator 2
 3162 149a 039B     		ldr	r3, [sp, #12]
 3163 149c 93F85D30 		ldrb	r3, [r3, #93]
 3164 14a0 DBB2     		uxtb	r3, r3
 3165 14a2 012B     		cmp	r3, #1
 3166 14a4 12D0     		beq	.L185
 3167              		.loc 1 1465 0 discriminator 1
 3168 14a6 039B     		ldr	r3, [sp, #12]
 3169 14a8 5B68     		ldr	r3, [r3, #4]
 3170              		.loc 1 1464 0 discriminator 1
 3171 14aa B3F5827F 		cmp	r3, #260
 3172 14ae 09D1     		bne	.L186
 3173              		.loc 1 1465 0
 3174 14b0 039B     		ldr	r3, [sp, #12]
 3175 14b2 9B68     		ldr	r3, [r3, #8]
 3176 14b4 002B     		cmp	r3, #0
 3177 14b6 05D1     		bne	.L186
 3178              		.loc 1 1465 0 is_stmt 0 discriminator 1
 3179 14b8 039B     		ldr	r3, [sp, #12]
 3180 14ba 93F85D30 		ldrb	r3, [r3, #93]
 3181 14be DBB2     		uxtb	r3, r3
 3182 14c0 042B     		cmp	r3, #4
ARM GAS  /tmp/cc34cfqS.s 			page 57


 3183 14c2 03D0     		beq	.L185
 3184              	.L186:
 3185              		.loc 1 1467 0 is_stmt 1
 3186 14c4 0223     		movs	r3, #2
 3187 14c6 8DF81730 		strb	r3, [sp, #23]
 3188              		.loc 1 1468 0
 3189 14ca 2EE1     		b	.L187
 3190              	.L185:
 3191              		.loc 1 1471 0
 3192 14cc 029B     		ldr	r3, [sp, #8]
 3193 14ce 002B     		cmp	r3, #0
 3194 14d0 06D0     		beq	.L188
 3195              		.loc 1 1471 0 is_stmt 0 discriminator 1
 3196 14d2 019B     		ldr	r3, [sp, #4]
 3197 14d4 002B     		cmp	r3, #0
 3198 14d6 03D0     		beq	.L188
 3199 14d8 BDF80230 		ldrh	r3, [sp, #2]
 3200 14dc 002B     		cmp	r3, #0
 3201 14de 03D1     		bne	.L189
 3202              	.L188:
 3203              		.loc 1 1473 0 is_stmt 1
 3204 14e0 0123     		movs	r3, #1
 3205 14e2 8DF81730 		strb	r3, [sp, #23]
 3206              		.loc 1 1474 0
 3207 14e6 20E1     		b	.L187
 3208              	.L189:
 3209              		.loc 1 1478 0
 3210 14e8 039B     		ldr	r3, [sp, #12]
 3211 14ea 93F85D30 		ldrb	r3, [r3, #93]
 3212 14ee DBB2     		uxtb	r3, r3
 3213 14f0 042B     		cmp	r3, #4
 3214 14f2 03D0     		beq	.L190
 3215              		.loc 1 1480 0
 3216 14f4 039B     		ldr	r3, [sp, #12]
 3217 14f6 0522     		movs	r2, #5
 3218 14f8 83F85D20 		strb	r2, [r3, #93]
 3219              	.L190:
 3220              		.loc 1 1483 0
 3221 14fc 039B     		ldr	r3, [sp, #12]
 3222 14fe 0022     		movs	r2, #0
 3223 1500 1A66     		str	r2, [r3, #96]
 3224              		.loc 1 1484 0
 3225 1502 039B     		ldr	r3, [sp, #12]
 3226 1504 029A     		ldr	r2, [sp, #8]
 3227 1506 9A63     		str	r2, [r3, #56]
 3228              		.loc 1 1485 0
 3229 1508 039B     		ldr	r3, [sp, #12]
 3230 150a BDF80220 		ldrh	r2, [sp, #2]	@ movhi
 3231 150e 9A87     		strh	r2, [r3, #60]	@ movhi
 3232              		.loc 1 1486 0
 3233 1510 039B     		ldr	r3, [sp, #12]
 3234 1512 BDF80220 		ldrh	r2, [sp, #2]	@ movhi
 3235 1516 DA87     		strh	r2, [r3, #62]	@ movhi
 3236              		.loc 1 1487 0
 3237 1518 039B     		ldr	r3, [sp, #12]
 3238 151a 019A     		ldr	r2, [sp, #4]
 3239 151c 1A64     		str	r2, [r3, #64]
ARM GAS  /tmp/cc34cfqS.s 			page 58


 3240              		.loc 1 1488 0
 3241 151e 039B     		ldr	r3, [sp, #12]
 3242 1520 BDF80220 		ldrh	r2, [sp, #2]	@ movhi
 3243 1524 A3F84420 		strh	r2, [r3, #68]	@ movhi
 3244              		.loc 1 1489 0
 3245 1528 039B     		ldr	r3, [sp, #12]
 3246 152a BDF80220 		ldrh	r2, [sp, #2]	@ movhi
 3247 152e A3F84620 		strh	r2, [r3, #70]	@ movhi
 3248              		.loc 1 1492 0
 3249 1532 039B     		ldr	r3, [sp, #12]
 3250 1534 9B6A     		ldr	r3, [r3, #40]
 3251 1536 B3F5005F 		cmp	r3, #8192
 3252 153a 10D1     		bne	.L191
 3253              		.loc 1 1494 0
 3254 153c 039B     		ldr	r3, [sp, #12]
 3255 153e 1A68     		ldr	r2, [r3]
 3256 1540 039B     		ldr	r3, [sp, #12]
 3257 1542 1B68     		ldr	r3, [r3]
 3258 1544 1968     		ldr	r1, [r3]
 3259 1546 4DF6FF73 		movw	r3, #57343
 3260 154a 0B40     		ands	r3, r3, r1
 3261 154c 1360     		str	r3, [r2]
 3262 154e 039B     		ldr	r3, [sp, #12]
 3263 1550 1B68     		ldr	r3, [r3]
 3264 1552 039A     		ldr	r2, [sp, #12]
 3265 1554 1268     		ldr	r2, [r2]
 3266 1556 1268     		ldr	r2, [r2]
 3267 1558 42F40052 		orr	r2, r2, #8192
 3268 155c 1A60     		str	r2, [r3]
 3269              	.L191:
 3270              		.loc 1 1498 0
 3271 155e 039B     		ldr	r3, [sp, #12]
 3272 1560 1B68     		ldr	r3, [r3]
 3273 1562 039A     		ldr	r2, [sp, #12]
 3274 1564 1268     		ldr	r2, [r2]
 3275 1566 5268     		ldr	r2, [r2, #4]
 3276 1568 22F4C042 		bic	r2, r2, #24576
 3277 156c 5A60     		str	r2, [r3, #4]
 3278              		.loc 1 1501 0
 3279 156e 039B     		ldr	r3, [sp, #12]
 3280 1570 DB68     		ldr	r3, [r3, #12]
 3281 1572 B3F5E06F 		cmp	r3, #1792
 3282 1576 08D9     		bls	.L192
 3283              		.loc 1 1504 0
 3284 1578 039B     		ldr	r3, [sp, #12]
 3285 157a 1B68     		ldr	r3, [r3]
 3286 157c 039A     		ldr	r2, [sp, #12]
 3287 157e 1268     		ldr	r2, [r2]
 3288 1580 5268     		ldr	r2, [r2, #4]
 3289 1582 22F48052 		bic	r2, r2, #4096
 3290 1586 5A60     		str	r2, [r3, #4]
 3291 1588 6AE0     		b	.L193
 3292              	.L192:
 3293              		.loc 1 1509 0
 3294 158a 039B     		ldr	r3, [sp, #12]
 3295 158c 1B68     		ldr	r3, [r3]
 3296 158e 039A     		ldr	r2, [sp, #12]
ARM GAS  /tmp/cc34cfqS.s 			page 59


 3297 1590 1268     		ldr	r2, [r2]
 3298 1592 5268     		ldr	r2, [r2, #4]
 3299 1594 42F48052 		orr	r2, r2, #4096
 3300 1598 5A60     		str	r2, [r3, #4]
 3301              		.loc 1 1511 0
 3302 159a 039B     		ldr	r3, [sp, #12]
 3303 159c 5B6D     		ldr	r3, [r3, #84]
 3304 159e 9B69     		ldr	r3, [r3, #24]
 3305 15a0 B3F5806F 		cmp	r3, #1024
 3306 15a4 24D1     		bne	.L194
 3307              		.loc 1 1513 0
 3308 15a6 039B     		ldr	r3, [sp, #12]
 3309 15a8 9B8F     		ldrh	r3, [r3, #60]
 3310 15aa 03F00103 		and	r3, r3, #1
 3311 15ae 002B     		cmp	r3, #0
 3312 15b0 0ED1     		bne	.L195
 3313              		.loc 1 1515 0
 3314 15b2 039B     		ldr	r3, [sp, #12]
 3315 15b4 1B68     		ldr	r3, [r3]
 3316 15b6 039A     		ldr	r2, [sp, #12]
 3317 15b8 1268     		ldr	r2, [r2]
 3318 15ba 5268     		ldr	r2, [r2, #4]
 3319 15bc 22F48042 		bic	r2, r2, #16384
 3320 15c0 5A60     		str	r2, [r3, #4]
 3321              		.loc 1 1516 0
 3322 15c2 039B     		ldr	r3, [sp, #12]
 3323 15c4 DB8F     		ldrh	r3, [r3, #62]
 3324 15c6 5B08     		lsrs	r3, r3, #1
 3325 15c8 9AB2     		uxth	r2, r3
 3326 15ca 039B     		ldr	r3, [sp, #12]
 3327 15cc DA87     		strh	r2, [r3, #62]	@ movhi
 3328 15ce 0FE0     		b	.L194
 3329              	.L195:
 3330              		.loc 1 1520 0
 3331 15d0 039B     		ldr	r3, [sp, #12]
 3332 15d2 1B68     		ldr	r3, [r3]
 3333 15d4 039A     		ldr	r2, [sp, #12]
 3334 15d6 1268     		ldr	r2, [r2]
 3335 15d8 5268     		ldr	r2, [r2, #4]
 3336 15da 42F48042 		orr	r2, r2, #16384
 3337 15de 5A60     		str	r2, [r3, #4]
 3338              		.loc 1 1521 0
 3339 15e0 039B     		ldr	r3, [sp, #12]
 3340 15e2 DB8F     		ldrh	r3, [r3, #62]
 3341 15e4 5B08     		lsrs	r3, r3, #1
 3342 15e6 9BB2     		uxth	r3, r3
 3343 15e8 0133     		adds	r3, r3, #1
 3344 15ea 9AB2     		uxth	r2, r3
 3345 15ec 039B     		ldr	r3, [sp, #12]
 3346 15ee DA87     		strh	r2, [r3, #62]	@ movhi
 3347              	.L194:
 3348              		.loc 1 1525 0
 3349 15f0 039B     		ldr	r3, [sp, #12]
 3350 15f2 9B6D     		ldr	r3, [r3, #88]
 3351 15f4 9B69     		ldr	r3, [r3, #24]
 3352 15f6 B3F5806F 		cmp	r3, #1024
 3353 15fa 31D1     		bne	.L193
ARM GAS  /tmp/cc34cfqS.s 			page 60


 3354              		.loc 1 1528 0
 3355 15fc 039B     		ldr	r3, [sp, #12]
 3356 15fe 1B68     		ldr	r3, [r3]
 3357 1600 039A     		ldr	r2, [sp, #12]
 3358 1602 1268     		ldr	r2, [r2]
 3359 1604 5268     		ldr	r2, [r2, #4]
 3360 1606 22F48052 		bic	r2, r2, #4096
 3361 160a 5A60     		str	r2, [r3, #4]
 3362              		.loc 1 1530 0
 3363 160c 039B     		ldr	r3, [sp, #12]
 3364 160e B3F84630 		ldrh	r3, [r3, #70]
 3365 1612 03F00103 		and	r3, r3, #1
 3366 1616 002B     		cmp	r3, #0
 3367 1618 10D1     		bne	.L196
 3368              		.loc 1 1532 0
 3369 161a 039B     		ldr	r3, [sp, #12]
 3370 161c 1B68     		ldr	r3, [r3]
 3371 161e 039A     		ldr	r2, [sp, #12]
 3372 1620 1268     		ldr	r2, [r2]
 3373 1622 5268     		ldr	r2, [r2, #4]
 3374 1624 22F40052 		bic	r2, r2, #8192
 3375 1628 5A60     		str	r2, [r3, #4]
 3376              		.loc 1 1533 0
 3377 162a 039B     		ldr	r3, [sp, #12]
 3378 162c B3F84630 		ldrh	r3, [r3, #70]
 3379 1630 5B08     		lsrs	r3, r3, #1
 3380 1632 9AB2     		uxth	r2, r3
 3381 1634 039B     		ldr	r3, [sp, #12]
 3382 1636 A3F84620 		strh	r2, [r3, #70]	@ movhi
 3383 163a 11E0     		b	.L193
 3384              	.L196:
 3385              		.loc 1 1537 0
 3386 163c 039B     		ldr	r3, [sp, #12]
 3387 163e 1B68     		ldr	r3, [r3]
 3388 1640 039A     		ldr	r2, [sp, #12]
 3389 1642 1268     		ldr	r2, [r2]
 3390 1644 5268     		ldr	r2, [r2, #4]
 3391 1646 42F40052 		orr	r2, r2, #8192
 3392 164a 5A60     		str	r2, [r3, #4]
 3393              		.loc 1 1538 0
 3394 164c 039B     		ldr	r3, [sp, #12]
 3395 164e B3F84630 		ldrh	r3, [r3, #70]
 3396 1652 5B08     		lsrs	r3, r3, #1
 3397 1654 9BB2     		uxth	r3, r3
 3398 1656 0133     		adds	r3, r3, #1
 3399 1658 9AB2     		uxth	r2, r3
 3400 165a 039B     		ldr	r3, [sp, #12]
 3401 165c A3F84620 		strh	r2, [r3, #70]	@ movhi
 3402              	.L193:
 3403              		.loc 1 1545 0
 3404 1660 039B     		ldr	r3, [sp, #12]
 3405 1662 93F85D30 		ldrb	r3, [r3, #93]
 3406 1666 DBB2     		uxtb	r3, r3
 3407 1668 042B     		cmp	r3, #4
 3408 166a 08D1     		bne	.L197
 3409              		.loc 1 1548 0
 3410 166c 039B     		ldr	r3, [sp, #12]
ARM GAS  /tmp/cc34cfqS.s 			page 61


 3411 166e 9B6D     		ldr	r3, [r3, #88]
 3412 1670 334A     		ldr	r2, .L200
 3413 1672 1A63     		str	r2, [r3, #48]
 3414              		.loc 1 1549 0
 3415 1674 039B     		ldr	r3, [sp, #12]
 3416 1676 9B6D     		ldr	r3, [r3, #88]
 3417 1678 324A     		ldr	r2, .L200+4
 3418 167a DA62     		str	r2, [r3, #44]
 3419 167c 07E0     		b	.L198
 3420              	.L197:
 3421              		.loc 1 1554 0
 3422 167e 039B     		ldr	r3, [sp, #12]
 3423 1680 9B6D     		ldr	r3, [r3, #88]
 3424 1682 314A     		ldr	r2, .L200+8
 3425 1684 1A63     		str	r2, [r3, #48]
 3426              		.loc 1 1555 0
 3427 1686 039B     		ldr	r3, [sp, #12]
 3428 1688 9B6D     		ldr	r3, [r3, #88]
 3429 168a 304A     		ldr	r2, .L200+12
 3430 168c DA62     		str	r2, [r3, #44]
 3431              	.L198:
 3432              		.loc 1 1559 0
 3433 168e 039B     		ldr	r3, [sp, #12]
 3434 1690 9B6D     		ldr	r3, [r3, #88]
 3435 1692 2F4A     		ldr	r2, .L200+16
 3436 1694 5A63     		str	r2, [r3, #52]
 3437              		.loc 1 1562 0
 3438 1696 039B     		ldr	r3, [sp, #12]
 3439 1698 1B68     		ldr	r3, [r3]
 3440 169a 039A     		ldr	r2, [sp, #12]
 3441 169c 1268     		ldr	r2, [r2]
 3442 169e 5268     		ldr	r2, [r2, #4]
 3443 16a0 42F00102 		orr	r2, r2, #1
 3444 16a4 5A60     		str	r2, [r3, #4]
 3445              		.loc 1 1565 0
 3446 16a6 039B     		ldr	r3, [sp, #12]
 3447 16a8 986D     		ldr	r0, [r3, #88]
 3448 16aa 039B     		ldr	r3, [sp, #12]
 3449 16ac 1B68     		ldr	r3, [r3]
 3450 16ae 0C33     		adds	r3, r3, #12
 3451 16b0 1946     		mov	r1, r3
 3452 16b2 039B     		ldr	r3, [sp, #12]
 3453 16b4 1B6C     		ldr	r3, [r3, #64]
 3454 16b6 1A46     		mov	r2, r3
 3455 16b8 039B     		ldr	r3, [sp, #12]
 3456 16ba B3F84630 		ldrh	r3, [r3, #70]
 3457 16be FFF7FEFF 		bl	HAL_DMA_Start_IT
 3458              		.loc 1 1569 0
 3459 16c2 039B     		ldr	r3, [sp, #12]
 3460 16c4 5B6D     		ldr	r3, [r3, #84]
 3461 16c6 0022     		movs	r2, #0
 3462 16c8 9A63     		str	r2, [r3, #56]
 3463              		.loc 1 1570 0
 3464 16ca 039B     		ldr	r3, [sp, #12]
 3465 16cc 5B6D     		ldr	r3, [r3, #84]
 3466 16ce 0022     		movs	r2, #0
 3467 16d0 1A63     		str	r2, [r3, #48]
ARM GAS  /tmp/cc34cfqS.s 			page 62


 3468              		.loc 1 1571 0
 3469 16d2 039B     		ldr	r3, [sp, #12]
 3470 16d4 5B6D     		ldr	r3, [r3, #84]
 3471 16d6 0022     		movs	r2, #0
 3472 16d8 DA62     		str	r2, [r3, #44]
 3473              		.loc 1 1572 0
 3474 16da 039B     		ldr	r3, [sp, #12]
 3475 16dc 5B6D     		ldr	r3, [r3, #84]
 3476 16de 0022     		movs	r2, #0
 3477 16e0 5A63     		str	r2, [r3, #52]
 3478              		.loc 1 1575 0
 3479 16e2 039B     		ldr	r3, [sp, #12]
 3480 16e4 586D     		ldr	r0, [r3, #84]
 3481 16e6 039B     		ldr	r3, [sp, #12]
 3482 16e8 9B6B     		ldr	r3, [r3, #56]
 3483 16ea 1946     		mov	r1, r3
 3484 16ec 039B     		ldr	r3, [sp, #12]
 3485 16ee 1B68     		ldr	r3, [r3]
 3486 16f0 0C33     		adds	r3, r3, #12
 3487 16f2 1A46     		mov	r2, r3
 3488 16f4 039B     		ldr	r3, [sp, #12]
 3489 16f6 DB8F     		ldrh	r3, [r3, #62]
 3490 16f8 FFF7FEFF 		bl	HAL_DMA_Start_IT
 3491              		.loc 1 1578 0
 3492 16fc 039B     		ldr	r3, [sp, #12]
 3493 16fe 1B68     		ldr	r3, [r3]
 3494 1700 1B68     		ldr	r3, [r3]
 3495 1702 03F04003 		and	r3, r3, #64
 3496 1706 002B     		cmp	r3, #0
 3497 1708 07D1     		bne	.L199
 3498              		.loc 1 1581 0
 3499 170a 039B     		ldr	r3, [sp, #12]
 3500 170c 1B68     		ldr	r3, [r3]
 3501 170e 039A     		ldr	r2, [sp, #12]
 3502 1710 1268     		ldr	r2, [r2]
 3503 1712 1268     		ldr	r2, [r2]
 3504 1714 42F04002 		orr	r2, r2, #64
 3505 1718 1A60     		str	r2, [r3]
 3506              	.L199:
 3507              		.loc 1 1585 0
 3508 171a 039B     		ldr	r3, [sp, #12]
 3509 171c 1B68     		ldr	r3, [r3]
 3510 171e 039A     		ldr	r2, [sp, #12]
 3511 1720 1268     		ldr	r2, [r2]
 3512 1722 5268     		ldr	r2, [r2, #4]
 3513 1724 42F00202 		orr	r2, r2, #2
 3514 1728 5A60     		str	r2, [r3, #4]
 3515              	.L187:
 3516              		.loc 1 1589 0
 3517 172a 039B     		ldr	r3, [sp, #12]
 3518 172c 0022     		movs	r2, #0
 3519 172e 83F85C20 		strb	r2, [r3, #92]
 3520              		.loc 1 1590 0
 3521 1732 9DF81730 		ldrb	r3, [sp, #23]	@ zero_extendqisi2
 3522              	.L184:
 3523              		.loc 1 1591 0
 3524 1736 1846     		mov	r0, r3
ARM GAS  /tmp/cc34cfqS.s 			page 63


 3525 1738 07B0     		add	sp, sp, #28
 3526              		@ sp needed
 3527 173a 5DF804FB 		ldr	pc, [sp], #4
 3528              	.L201:
 3529 173e 00BF     		.align	2
 3530              	.L200:
 3531 1740 00000000 		.word	SPI_DMAHalfReceiveCplt
 3532 1744 00000000 		.word	SPI_DMAReceiveCplt
 3533 1748 00000000 		.word	SPI_DMAHalfTransmitReceiveCplt
 3534 174c 00000000 		.word	SPI_DMATransmitReceiveCplt
 3535 1750 00000000 		.word	SPI_DMAError
 3536              		.cfi_endproc
 3537              	.LFE137:
 3538              		.size	HAL_SPI_TransmitReceive_DMA, .-HAL_SPI_TransmitReceive_DMA
 3539              		.align	2
 3540 1754 AFF30080 		.p2align 4,,15
 3540      AFF30080 
 3540      AFF30080 
 3541              		.global	HAL_SPI_DMAPause
 3542              		.thumb
 3543              		.thumb_func
 3544              		.type	HAL_SPI_DMAPause, %function
 3545              	HAL_SPI_DMAPause:
 3546              	.LFB138:
 3547              		.loc 1 1600 0
 3548              		.cfi_startproc
 3549              		@ args = 0, pretend = 0, frame = 8
 3550              		@ frame_needed = 0, uses_anonymous_args = 0
 3551              		@ link register save eliminated.
 3552 1760 82B0     		sub	sp, sp, #8
 3553              		.cfi_def_cfa_offset 8
 3554 1762 0190     		str	r0, [sp, #4]
 3555              		.loc 1 1602 0
 3556 1764 019B     		ldr	r3, [sp, #4]
 3557 1766 93F85C30 		ldrb	r3, [r3, #92]	@ zero_extendqisi2
 3558 176a 012B     		cmp	r3, #1
 3559 176c 01D1     		bne	.L203
 3560              		.loc 1 1602 0 is_stmt 0 discriminator 1
 3561 176e 0223     		movs	r3, #2
 3562 1770 10E0     		b	.L204
 3563              	.L203:
 3564              		.loc 1 1602 0 discriminator 2
 3565 1772 019B     		ldr	r3, [sp, #4]
 3566 1774 0122     		movs	r2, #1
 3567 1776 83F85C20 		strb	r2, [r3, #92]
 3568              		.loc 1 1605 0 is_stmt 1 discriminator 2
 3569 177a 019B     		ldr	r3, [sp, #4]
 3570 177c 1B68     		ldr	r3, [r3]
 3571 177e 019A     		ldr	r2, [sp, #4]
 3572 1780 1268     		ldr	r2, [r2]
 3573 1782 5268     		ldr	r2, [r2, #4]
 3574 1784 22F00302 		bic	r2, r2, #3
 3575 1788 5A60     		str	r2, [r3, #4]
 3576              		.loc 1 1608 0 discriminator 2
 3577 178a 019B     		ldr	r3, [sp, #4]
 3578 178c 0022     		movs	r2, #0
 3579 178e 83F85C20 		strb	r2, [r3, #92]
ARM GAS  /tmp/cc34cfqS.s 			page 64


 3580              		.loc 1 1610 0 discriminator 2
 3581 1792 0023     		movs	r3, #0
 3582              	.L204:
 3583              		.loc 1 1611 0
 3584 1794 1846     		mov	r0, r3
 3585 1796 02B0     		add	sp, sp, #8
 3586              		@ sp needed
 3587 1798 7047     		bx	lr
 3588              		.cfi_endproc
 3589              	.LFE138:
 3590              		.size	HAL_SPI_DMAPause, .-HAL_SPI_DMAPause
 3591 179a 00BF     		.align	2
 3592 179c AFF30080 		.p2align 4,,15
 3593              		.global	HAL_SPI_DMAResume
 3594              		.thumb
 3595              		.thumb_func
 3596              		.type	HAL_SPI_DMAResume, %function
 3597              	HAL_SPI_DMAResume:
 3598              	.LFB139:
 3599              		.loc 1 1620 0
 3600              		.cfi_startproc
 3601              		@ args = 0, pretend = 0, frame = 8
 3602              		@ frame_needed = 0, uses_anonymous_args = 0
 3603              		@ link register save eliminated.
 3604 17a0 82B0     		sub	sp, sp, #8
 3605              		.cfi_def_cfa_offset 8
 3606 17a2 0190     		str	r0, [sp, #4]
 3607              		.loc 1 1622 0
 3608 17a4 019B     		ldr	r3, [sp, #4]
 3609 17a6 93F85C30 		ldrb	r3, [r3, #92]	@ zero_extendqisi2
 3610 17aa 012B     		cmp	r3, #1
 3611 17ac 01D1     		bne	.L206
 3612              		.loc 1 1622 0 is_stmt 0 discriminator 1
 3613 17ae 0223     		movs	r3, #2
 3614 17b0 10E0     		b	.L207
 3615              	.L206:
 3616              		.loc 1 1622 0 discriminator 2
 3617 17b2 019B     		ldr	r3, [sp, #4]
 3618 17b4 0122     		movs	r2, #1
 3619 17b6 83F85C20 		strb	r2, [r3, #92]
 3620              		.loc 1 1625 0 is_stmt 1 discriminator 2
 3621 17ba 019B     		ldr	r3, [sp, #4]
 3622 17bc 1B68     		ldr	r3, [r3]
 3623 17be 019A     		ldr	r2, [sp, #4]
 3624 17c0 1268     		ldr	r2, [r2]
 3625 17c2 5268     		ldr	r2, [r2, #4]
 3626 17c4 42F00302 		orr	r2, r2, #3
 3627 17c8 5A60     		str	r2, [r3, #4]
 3628              		.loc 1 1628 0 discriminator 2
 3629 17ca 019B     		ldr	r3, [sp, #4]
 3630 17cc 0022     		movs	r2, #0
 3631 17ce 83F85C20 		strb	r2, [r3, #92]
 3632              		.loc 1 1630 0 discriminator 2
 3633 17d2 0023     		movs	r3, #0
 3634              	.L207:
 3635              		.loc 1 1631 0
 3636 17d4 1846     		mov	r0, r3
ARM GAS  /tmp/cc34cfqS.s 			page 65


 3637 17d6 02B0     		add	sp, sp, #8
 3638              		@ sp needed
 3639 17d8 7047     		bx	lr
 3640              		.cfi_endproc
 3641              	.LFE139:
 3642              		.size	HAL_SPI_DMAResume, .-HAL_SPI_DMAResume
 3643 17da 00BF     		.align	2
 3644 17dc AFF30080 		.p2align 4,,15
 3645              		.global	HAL_SPI_DMAStop
 3646              		.thumb
 3647              		.thumb_func
 3648              		.type	HAL_SPI_DMAStop, %function
 3649              	HAL_SPI_DMAStop:
 3650              	.LFB140:
 3651              		.loc 1 1640 0
 3652              		.cfi_startproc
 3653              		@ args = 0, pretend = 0, frame = 8
 3654              		@ frame_needed = 0, uses_anonymous_args = 0
 3655 17e0 00B5     		push	{lr}
 3656              		.cfi_def_cfa_offset 4
 3657              		.cfi_offset 14, -4
 3658 17e2 83B0     		sub	sp, sp, #12
 3659              		.cfi_def_cfa_offset 16
 3660 17e4 0190     		str	r0, [sp, #4]
 3661              		.loc 1 1648 0
 3662 17e6 019B     		ldr	r3, [sp, #4]
 3663 17e8 5B6D     		ldr	r3, [r3, #84]
 3664 17ea 002B     		cmp	r3, #0
 3665 17ec 04D0     		beq	.L209
 3666              		.loc 1 1650 0
 3667 17ee 019B     		ldr	r3, [sp, #4]
 3668 17f0 5B6D     		ldr	r3, [r3, #84]
 3669 17f2 1846     		mov	r0, r3
 3670 17f4 FFF7FEFF 		bl	HAL_DMA_Abort
 3671              	.L209:
 3672              		.loc 1 1653 0
 3673 17f8 019B     		ldr	r3, [sp, #4]
 3674 17fa 9B6D     		ldr	r3, [r3, #88]
 3675 17fc 002B     		cmp	r3, #0
 3676 17fe 04D0     		beq	.L210
 3677              		.loc 1 1655 0
 3678 1800 019B     		ldr	r3, [sp, #4]
 3679 1802 9B6D     		ldr	r3, [r3, #88]
 3680 1804 1846     		mov	r0, r3
 3681 1806 FFF7FEFF 		bl	HAL_DMA_Abort
 3682              	.L210:
 3683              		.loc 1 1659 0
 3684 180a 019B     		ldr	r3, [sp, #4]
 3685 180c 1B68     		ldr	r3, [r3]
 3686 180e 019A     		ldr	r2, [sp, #4]
 3687 1810 1268     		ldr	r2, [r2]
 3688 1812 5268     		ldr	r2, [r2, #4]
 3689 1814 22F00302 		bic	r2, r2, #3
 3690 1818 5A60     		str	r2, [r3, #4]
 3691              		.loc 1 1660 0
 3692 181a 019B     		ldr	r3, [sp, #4]
 3693 181c 0122     		movs	r2, #1
ARM GAS  /tmp/cc34cfqS.s 			page 66


 3694 181e 83F85D20 		strb	r2, [r3, #93]
 3695              		.loc 1 1661 0
 3696 1822 0023     		movs	r3, #0
 3697              		.loc 1 1662 0
 3698 1824 1846     		mov	r0, r3
 3699 1826 03B0     		add	sp, sp, #12
 3700              		@ sp needed
 3701 1828 5DF804FB 		ldr	pc, [sp], #4
 3702              		.cfi_endproc
 3703              	.LFE140:
 3704              		.size	HAL_SPI_DMAStop, .-HAL_SPI_DMAStop
 3705              		.align	2
 3706 182c AFF30080 		.p2align 4,,15
 3707              		.global	HAL_SPI_IRQHandler
 3708              		.thumb
 3709              		.thumb_func
 3710              		.type	HAL_SPI_IRQHandler, %function
 3711              	HAL_SPI_IRQHandler:
 3712              	.LFB141:
 3713              		.loc 1 1671 0
 3714              		.cfi_startproc
 3715              		@ args = 0, pretend = 0, frame = 32
 3716              		@ frame_needed = 0, uses_anonymous_args = 0
 3717 1830 00B5     		push	{lr}
 3718              		.cfi_def_cfa_offset 4
 3719              		.cfi_offset 14, -4
 3720 1832 89B0     		sub	sp, sp, #36
 3721              		.cfi_def_cfa_offset 40
 3722 1834 0190     		str	r0, [sp, #4]
 3723              		.loc 1 1672 0
 3724 1836 019B     		ldr	r3, [sp, #4]
 3725 1838 1B68     		ldr	r3, [r3]
 3726 183a 5B68     		ldr	r3, [r3, #4]
 3727 183c 0793     		str	r3, [sp, #28]
 3728              		.loc 1 1673 0
 3729 183e 019B     		ldr	r3, [sp, #4]
 3730 1840 1B68     		ldr	r3, [r3]
 3731 1842 9B68     		ldr	r3, [r3, #8]
 3732 1844 0693     		str	r3, [sp, #24]
 3733              		.loc 1 1676 0
 3734 1846 069B     		ldr	r3, [sp, #24]
 3735 1848 03F04003 		and	r3, r3, #64
 3736 184c 002B     		cmp	r3, #0
 3737 184e 0ED1     		bne	.L213
 3738              		.loc 1 1677 0 discriminator 1
 3739 1850 069B     		ldr	r3, [sp, #24]
 3740 1852 03F00103 		and	r3, r3, #1
 3741              		.loc 1 1676 0 discriminator 1
 3742 1856 002B     		cmp	r3, #0
 3743 1858 09D0     		beq	.L213
 3744              		.loc 1 1677 0
 3745 185a 079B     		ldr	r3, [sp, #28]
 3746 185c 03F04003 		and	r3, r3, #64
 3747 1860 002B     		cmp	r3, #0
 3748 1862 04D0     		beq	.L213
 3749              		.loc 1 1679 0
 3750 1864 019B     		ldr	r3, [sp, #4]
ARM GAS  /tmp/cc34cfqS.s 			page 67


 3751 1866 DB6C     		ldr	r3, [r3, #76]
 3752 1868 0198     		ldr	r0, [sp, #4]
 3753 186a 9847     		blx	r3
 3754              		.loc 1 1680 0
 3755 186c 67E0     		b	.L212
 3756              	.L213:
 3757              		.loc 1 1684 0
 3758 186e 069B     		ldr	r3, [sp, #24]
 3759 1870 03F00203 		and	r3, r3, #2
 3760 1874 002B     		cmp	r3, #0
 3761 1876 09D0     		beq	.L215
 3762              		.loc 1 1684 0 is_stmt 0 discriminator 1
 3763 1878 079B     		ldr	r3, [sp, #28]
 3764 187a 03F08003 		and	r3, r3, #128
 3765 187e 002B     		cmp	r3, #0
 3766 1880 04D0     		beq	.L215
 3767              		.loc 1 1686 0 is_stmt 1
 3768 1882 019B     		ldr	r3, [sp, #4]
 3769 1884 1B6D     		ldr	r3, [r3, #80]
 3770 1886 0198     		ldr	r0, [sp, #4]
 3771 1888 9847     		blx	r3
 3772              		.loc 1 1687 0
 3773 188a 58E0     		b	.L212
 3774              	.L215:
 3775              		.loc 1 1691 0
 3776 188c 069B     		ldr	r3, [sp, #24]
 3777 188e 03F4B073 		and	r3, r3, #352
 3778 1892 002B     		cmp	r3, #0
 3779 1894 53D0     		beq	.L212
 3780              		.loc 1 1694 0
 3781 1896 069B     		ldr	r3, [sp, #24]
 3782 1898 03F04003 		and	r3, r3, #64
 3783 189c 002B     		cmp	r3, #0
 3784 189e 16D0     		beq	.L216
 3785              		.loc 1 1696 0
 3786 18a0 019B     		ldr	r3, [sp, #4]
 3787 18a2 93F85D30 		ldrb	r3, [r3, #93]
 3788 18a6 DBB2     		uxtb	r3, r3
 3789 18a8 032B     		cmp	r3, #3
 3790 18aa 0FD0     		beq	.L217
 3791              		.loc 1 1698 0
 3792 18ac 019B     		ldr	r3, [sp, #4]
 3793 18ae 1B6E     		ldr	r3, [r3, #96]
 3794 18b0 43F00402 		orr	r2, r3, #4
 3795 18b4 019B     		ldr	r3, [sp, #4]
 3796 18b6 1A66     		str	r2, [r3, #96]
 3797              	.LBB3:
 3798              		.loc 1 1699 0
 3799 18b8 019B     		ldr	r3, [sp, #4]
 3800 18ba 1B68     		ldr	r3, [r3]
 3801 18bc DB68     		ldr	r3, [r3, #12]
 3802 18be 0593     		str	r3, [sp, #20]
 3803 18c0 019B     		ldr	r3, [sp, #4]
 3804 18c2 1B68     		ldr	r3, [r3]
 3805 18c4 9B68     		ldr	r3, [r3, #8]
 3806 18c6 0593     		str	r3, [sp, #20]
 3807 18c8 059B     		ldr	r3, [sp, #20]
ARM GAS  /tmp/cc34cfqS.s 			page 68


 3808              	.LBE3:
 3809 18ca 00E0     		b	.L216
 3810              	.L217:
 3811              		.loc 1 1703 0
 3812 18cc 37E0     		b	.L212
 3813              	.L216:
 3814              		.loc 1 1708 0
 3815 18ce 069B     		ldr	r3, [sp, #24]
 3816 18d0 03F02003 		and	r3, r3, #32
 3817 18d4 002B     		cmp	r3, #0
 3818 18d6 12D0     		beq	.L218
 3819              		.loc 1 1710 0
 3820 18d8 019B     		ldr	r3, [sp, #4]
 3821 18da 1B6E     		ldr	r3, [r3, #96]
 3822 18dc 43F00102 		orr	r2, r3, #1
 3823 18e0 019B     		ldr	r3, [sp, #4]
 3824 18e2 1A66     		str	r2, [r3, #96]
 3825              	.LBB4:
 3826              		.loc 1 1711 0
 3827 18e4 019B     		ldr	r3, [sp, #4]
 3828 18e6 1B68     		ldr	r3, [r3]
 3829 18e8 9B68     		ldr	r3, [r3, #8]
 3830 18ea 0493     		str	r3, [sp, #16]
 3831 18ec 019B     		ldr	r3, [sp, #4]
 3832 18ee 1B68     		ldr	r3, [r3]
 3833 18f0 019A     		ldr	r2, [sp, #4]
 3834 18f2 1268     		ldr	r2, [r2]
 3835 18f4 1268     		ldr	r2, [r2]
 3836 18f6 22F04002 		bic	r2, r2, #64
 3837 18fa 1A60     		str	r2, [r3]
 3838 18fc 049B     		ldr	r3, [sp, #16]
 3839              	.L218:
 3840              	.LBE4:
 3841              		.loc 1 1715 0
 3842 18fe 069B     		ldr	r3, [sp, #24]
 3843 1900 03F48073 		and	r3, r3, #256
 3844 1904 002B     		cmp	r3, #0
 3845 1906 0AD0     		beq	.L219
 3846              		.loc 1 1717 0
 3847 1908 019B     		ldr	r3, [sp, #4]
 3848 190a 1B6E     		ldr	r3, [r3, #96]
 3849 190c 43F00802 		orr	r2, r3, #8
 3850 1910 019B     		ldr	r3, [sp, #4]
 3851 1912 1A66     		str	r2, [r3, #96]
 3852              	.LBB5:
 3853              		.loc 1 1718 0
 3854 1914 019B     		ldr	r3, [sp, #4]
 3855 1916 1B68     		ldr	r3, [r3]
 3856 1918 9B68     		ldr	r3, [r3, #8]
 3857 191a 0393     		str	r3, [sp, #12]
 3858 191c 039B     		ldr	r3, [sp, #12]
 3859              	.L219:
 3860              	.LBE5:
 3861              		.loc 1 1721 0
 3862 191e 019B     		ldr	r3, [sp, #4]
 3863 1920 1B68     		ldr	r3, [r3]
 3864 1922 019A     		ldr	r2, [sp, #4]
ARM GAS  /tmp/cc34cfqS.s 			page 69


 3865 1924 1268     		ldr	r2, [r2]
 3866 1926 5268     		ldr	r2, [r2, #4]
 3867 1928 22F0E002 		bic	r2, r2, #224
 3868 192c 5A60     		str	r2, [r3, #4]
 3869              		.loc 1 1722 0
 3870 192e 019B     		ldr	r3, [sp, #4]
 3871 1930 0122     		movs	r2, #1
 3872 1932 83F85D20 		strb	r2, [r3, #93]
 3873              		.loc 1 1723 0
 3874 1936 0198     		ldr	r0, [sp, #4]
 3875 1938 FFF7FEFF 		bl	HAL_SPI_ErrorCallback
 3876              		.loc 1 1724 0
 3877 193c 00BF     		nop
 3878              	.L212:
 3879              		.loc 1 1726 0
 3880 193e 09B0     		add	sp, sp, #36
 3881              		@ sp needed
 3882 1940 5DF804FB 		ldr	pc, [sp], #4
 3883              		.cfi_endproc
 3884              	.LFE141:
 3885              		.size	HAL_SPI_IRQHandler, .-HAL_SPI_IRQHandler
 3886              		.align	2
 3887 1944 AFF30080 		.p2align 4,,15
 3887      AFF30080 
 3887      AFF30080 
 3888              		.weak	HAL_SPI_TxCpltCallback
 3889              		.thumb
 3890              		.thumb_func
 3891              		.type	HAL_SPI_TxCpltCallback, %function
 3892              	HAL_SPI_TxCpltCallback:
 3893              	.LFB142:
 3894              		.loc 1 1735 0
 3895              		.cfi_startproc
 3896              		@ args = 0, pretend = 0, frame = 8
 3897              		@ frame_needed = 0, uses_anonymous_args = 0
 3898              		@ link register save eliminated.
 3899 1950 82B0     		sub	sp, sp, #8
 3900              		.cfi_def_cfa_offset 8
 3901 1952 0190     		str	r0, [sp, #4]
 3902              		.loc 1 1742 0
 3903 1954 02B0     		add	sp, sp, #8
 3904              		@ sp needed
 3905 1956 7047     		bx	lr
 3906              		.cfi_endproc
 3907              	.LFE142:
 3908              		.size	HAL_SPI_TxCpltCallback, .-HAL_SPI_TxCpltCallback
 3909              		.align	2
 3910 1958 AFF30080 		.p2align 4,,15
 3910      AFF30080 
 3911              		.weak	HAL_SPI_RxCpltCallback
 3912              		.thumb
 3913              		.thumb_func
 3914              		.type	HAL_SPI_RxCpltCallback, %function
 3915              	HAL_SPI_RxCpltCallback:
 3916              	.LFB143:
 3917              		.loc 1 1751 0
 3918              		.cfi_startproc
ARM GAS  /tmp/cc34cfqS.s 			page 70


 3919              		@ args = 0, pretend = 0, frame = 8
 3920              		@ frame_needed = 0, uses_anonymous_args = 0
 3921              		@ link register save eliminated.
 3922 1960 82B0     		sub	sp, sp, #8
 3923              		.cfi_def_cfa_offset 8
 3924 1962 0190     		str	r0, [sp, #4]
 3925              		.loc 1 1758 0
 3926 1964 02B0     		add	sp, sp, #8
 3927              		@ sp needed
 3928 1966 7047     		bx	lr
 3929              		.cfi_endproc
 3930              	.LFE143:
 3931              		.size	HAL_SPI_RxCpltCallback, .-HAL_SPI_RxCpltCallback
 3932              		.align	2
 3933 1968 AFF30080 		.p2align 4,,15
 3933      AFF30080 
 3934              		.weak	HAL_SPI_TxRxCpltCallback
 3935              		.thumb
 3936              		.thumb_func
 3937              		.type	HAL_SPI_TxRxCpltCallback, %function
 3938              	HAL_SPI_TxRxCpltCallback:
 3939              	.LFB144:
 3940              		.loc 1 1767 0
 3941              		.cfi_startproc
 3942              		@ args = 0, pretend = 0, frame = 8
 3943              		@ frame_needed = 0, uses_anonymous_args = 0
 3944              		@ link register save eliminated.
 3945 1970 82B0     		sub	sp, sp, #8
 3946              		.cfi_def_cfa_offset 8
 3947 1972 0190     		str	r0, [sp, #4]
 3948              		.loc 1 1774 0
 3949 1974 02B0     		add	sp, sp, #8
 3950              		@ sp needed
 3951 1976 7047     		bx	lr
 3952              		.cfi_endproc
 3953              	.LFE144:
 3954              		.size	HAL_SPI_TxRxCpltCallback, .-HAL_SPI_TxRxCpltCallback
 3955              		.align	2
 3956 1978 AFF30080 		.p2align 4,,15
 3956      AFF30080 
 3957              		.weak	HAL_SPI_TxHalfCpltCallback
 3958              		.thumb
 3959              		.thumb_func
 3960              		.type	HAL_SPI_TxHalfCpltCallback, %function
 3961              	HAL_SPI_TxHalfCpltCallback:
 3962              	.LFB145:
 3963              		.loc 1 1783 0
 3964              		.cfi_startproc
 3965              		@ args = 0, pretend = 0, frame = 8
 3966              		@ frame_needed = 0, uses_anonymous_args = 0
 3967              		@ link register save eliminated.
 3968 1980 82B0     		sub	sp, sp, #8
 3969              		.cfi_def_cfa_offset 8
 3970 1982 0190     		str	r0, [sp, #4]
 3971              		.loc 1 1790 0
 3972 1984 02B0     		add	sp, sp, #8
 3973              		@ sp needed
ARM GAS  /tmp/cc34cfqS.s 			page 71


 3974 1986 7047     		bx	lr
 3975              		.cfi_endproc
 3976              	.LFE145:
 3977              		.size	HAL_SPI_TxHalfCpltCallback, .-HAL_SPI_TxHalfCpltCallback
 3978              		.align	2
 3979 1988 AFF30080 		.p2align 4,,15
 3979      AFF30080 
 3980              		.weak	HAL_SPI_RxHalfCpltCallback
 3981              		.thumb
 3982              		.thumb_func
 3983              		.type	HAL_SPI_RxHalfCpltCallback, %function
 3984              	HAL_SPI_RxHalfCpltCallback:
 3985              	.LFB146:
 3986              		.loc 1 1799 0
 3987              		.cfi_startproc
 3988              		@ args = 0, pretend = 0, frame = 8
 3989              		@ frame_needed = 0, uses_anonymous_args = 0
 3990              		@ link register save eliminated.
 3991 1990 82B0     		sub	sp, sp, #8
 3992              		.cfi_def_cfa_offset 8
 3993 1992 0190     		str	r0, [sp, #4]
 3994              		.loc 1 1806 0
 3995 1994 02B0     		add	sp, sp, #8
 3996              		@ sp needed
 3997 1996 7047     		bx	lr
 3998              		.cfi_endproc
 3999              	.LFE146:
 4000              		.size	HAL_SPI_RxHalfCpltCallback, .-HAL_SPI_RxHalfCpltCallback
 4001              		.align	2
 4002 1998 AFF30080 		.p2align 4,,15
 4002      AFF30080 
 4003              		.weak	HAL_SPI_TxRxHalfCpltCallback
 4004              		.thumb
 4005              		.thumb_func
 4006              		.type	HAL_SPI_TxRxHalfCpltCallback, %function
 4007              	HAL_SPI_TxRxHalfCpltCallback:
 4008              	.LFB147:
 4009              		.loc 1 1815 0
 4010              		.cfi_startproc
 4011              		@ args = 0, pretend = 0, frame = 8
 4012              		@ frame_needed = 0, uses_anonymous_args = 0
 4013              		@ link register save eliminated.
 4014 19a0 82B0     		sub	sp, sp, #8
 4015              		.cfi_def_cfa_offset 8
 4016 19a2 0190     		str	r0, [sp, #4]
 4017              		.loc 1 1822 0
 4018 19a4 02B0     		add	sp, sp, #8
 4019              		@ sp needed
 4020 19a6 7047     		bx	lr
 4021              		.cfi_endproc
 4022              	.LFE147:
 4023              		.size	HAL_SPI_TxRxHalfCpltCallback, .-HAL_SPI_TxRxHalfCpltCallback
 4024              		.align	2
 4025 19a8 AFF30080 		.p2align 4,,15
 4025      AFF30080 
 4026              		.weak	HAL_SPI_ErrorCallback
 4027              		.thumb
ARM GAS  /tmp/cc34cfqS.s 			page 72


 4028              		.thumb_func
 4029              		.type	HAL_SPI_ErrorCallback, %function
 4030              	HAL_SPI_ErrorCallback:
 4031              	.LFB148:
 4032              		.loc 1 1831 0
 4033              		.cfi_startproc
 4034              		@ args = 0, pretend = 0, frame = 8
 4035              		@ frame_needed = 0, uses_anonymous_args = 0
 4036              		@ link register save eliminated.
 4037 19b0 82B0     		sub	sp, sp, #8
 4038              		.cfi_def_cfa_offset 8
 4039 19b2 0190     		str	r0, [sp, #4]
 4040              		.loc 1 1841 0
 4041 19b4 02B0     		add	sp, sp, #8
 4042              		@ sp needed
 4043 19b6 7047     		bx	lr
 4044              		.cfi_endproc
 4045              	.LFE148:
 4046              		.size	HAL_SPI_ErrorCallback, .-HAL_SPI_ErrorCallback
 4047              		.align	2
 4048 19b8 AFF30080 		.p2align 4,,15
 4048      AFF30080 
 4049              		.global	HAL_SPI_GetState
 4050              		.thumb
 4051              		.thumb_func
 4052              		.type	HAL_SPI_GetState, %function
 4053              	HAL_SPI_GetState:
 4054              	.LFB149:
 4055              		.loc 1 1869 0
 4056              		.cfi_startproc
 4057              		@ args = 0, pretend = 0, frame = 8
 4058              		@ frame_needed = 0, uses_anonymous_args = 0
 4059              		@ link register save eliminated.
 4060 19c0 82B0     		sub	sp, sp, #8
 4061              		.cfi_def_cfa_offset 8
 4062 19c2 0190     		str	r0, [sp, #4]
 4063              		.loc 1 1871 0
 4064 19c4 019B     		ldr	r3, [sp, #4]
 4065 19c6 93F85D30 		ldrb	r3, [r3, #93]
 4066 19ca DBB2     		uxtb	r3, r3
 4067              		.loc 1 1872 0
 4068 19cc 1846     		mov	r0, r3
 4069 19ce 02B0     		add	sp, sp, #8
 4070              		@ sp needed
 4071 19d0 7047     		bx	lr
 4072              		.cfi_endproc
 4073              	.LFE149:
 4074              		.size	HAL_SPI_GetState, .-HAL_SPI_GetState
 4075 19d2 00BF     		.align	2
 4076 19d4 AFF30080 		.p2align 4,,15
 4076      AFF30080 
 4076      AFF30080 
 4077              		.global	HAL_SPI_GetError
 4078              		.thumb
 4079              		.thumb_func
 4080              		.type	HAL_SPI_GetError, %function
 4081              	HAL_SPI_GetError:
ARM GAS  /tmp/cc34cfqS.s 			page 73


 4082              	.LFB150:
 4083              		.loc 1 1881 0
 4084              		.cfi_startproc
 4085              		@ args = 0, pretend = 0, frame = 8
 4086              		@ frame_needed = 0, uses_anonymous_args = 0
 4087              		@ link register save eliminated.
 4088 19e0 82B0     		sub	sp, sp, #8
 4089              		.cfi_def_cfa_offset 8
 4090 19e2 0190     		str	r0, [sp, #4]
 4091              		.loc 1 1882 0
 4092 19e4 019B     		ldr	r3, [sp, #4]
 4093 19e6 1B6E     		ldr	r3, [r3, #96]
 4094              		.loc 1 1883 0
 4095 19e8 1846     		mov	r0, r3
 4096 19ea 02B0     		add	sp, sp, #8
 4097              		@ sp needed
 4098 19ec 7047     		bx	lr
 4099              		.cfi_endproc
 4100              	.LFE150:
 4101              		.size	HAL_SPI_GetError, .-HAL_SPI_GetError
 4102 19ee 00BF     		.align	2
 4103              		.p2align 4,,15
 4104              		.thumb
 4105              		.thumb_func
 4106              		.type	SPI_DMATransmitCplt, %function
 4107              	SPI_DMATransmitCplt:
 4108              	.LFB151:
 4109              		.loc 1 1906 0
 4110              		.cfi_startproc
 4111              		@ args = 0, pretend = 0, frame = 16
 4112              		@ frame_needed = 0, uses_anonymous_args = 0
 4113 19f0 00B5     		push	{lr}
 4114              		.cfi_def_cfa_offset 4
 4115              		.cfi_offset 14, -4
 4116 19f2 85B0     		sub	sp, sp, #20
 4117              		.cfi_def_cfa_offset 24
 4118 19f4 0190     		str	r0, [sp, #4]
 4119              		.loc 1 1907 0
 4120 19f6 019B     		ldr	r3, [sp, #4]
 4121 19f8 9B6A     		ldr	r3, [r3, #40]
 4122 19fa 0393     		str	r3, [sp, #12]
 4123              		.loc 1 1909 0
 4124 19fc 019B     		ldr	r3, [sp, #4]
 4125 19fe 1B68     		ldr	r3, [r3]
 4126 1a00 1B68     		ldr	r3, [r3]
 4127 1a02 03F02003 		and	r3, r3, #32
 4128 1a06 002B     		cmp	r3, #0
 4129 1a08 2DD1     		bne	.L232
 4130              		.loc 1 1912 0
 4131 1a0a 039B     		ldr	r3, [sp, #12]
 4132 1a0c 1B68     		ldr	r3, [r3]
 4133 1a0e 039A     		ldr	r2, [sp, #12]
 4134 1a10 1268     		ldr	r2, [r2]
 4135 1a12 5268     		ldr	r2, [r2, #4]
 4136 1a14 22F00202 		bic	r2, r2, #2
 4137 1a18 5A60     		str	r2, [r3, #4]
 4138              		.loc 1 1915 0
ARM GAS  /tmp/cc34cfqS.s 			page 74


 4139 1a1a 0398     		ldr	r0, [sp, #12]
 4140 1a1c 3221     		movs	r1, #50
 4141 1a1e 00F077FD 		bl	SPI_EndRxTxTransaction
 4142 1a22 0346     		mov	r3, r0
 4143 1a24 002B     		cmp	r3, #0
 4144 1a26 02D0     		beq	.L233
 4145              		.loc 1 1917 0
 4146 1a28 039B     		ldr	r3, [sp, #12]
 4147 1a2a 2022     		movs	r2, #32
 4148 1a2c 1A66     		str	r2, [r3, #96]
 4149              	.L233:
 4150              		.loc 1 1921 0
 4151 1a2e 039B     		ldr	r3, [sp, #12]
 4152 1a30 9B68     		ldr	r3, [r3, #8]
 4153 1a32 002B     		cmp	r3, #0
 4154 1a34 08D1     		bne	.L234
 4155              	.LBB6:
 4156              		.loc 1 1923 0
 4157 1a36 039B     		ldr	r3, [sp, #12]
 4158 1a38 1B68     		ldr	r3, [r3]
 4159 1a3a DB68     		ldr	r3, [r3, #12]
 4160 1a3c 0293     		str	r3, [sp, #8]
 4161 1a3e 039B     		ldr	r3, [sp, #12]
 4162 1a40 1B68     		ldr	r3, [r3]
 4163 1a42 9B68     		ldr	r3, [r3, #8]
 4164 1a44 0293     		str	r3, [sp, #8]
 4165 1a46 029B     		ldr	r3, [sp, #8]
 4166              	.L234:
 4167              	.LBE6:
 4168              		.loc 1 1926 0
 4169 1a48 039B     		ldr	r3, [sp, #12]
 4170 1a4a 0022     		movs	r2, #0
 4171 1a4c DA87     		strh	r2, [r3, #62]	@ movhi
 4172              		.loc 1 1927 0
 4173 1a4e 039B     		ldr	r3, [sp, #12]
 4174 1a50 0122     		movs	r2, #1
 4175 1a52 83F85D20 		strb	r2, [r3, #93]
 4176              		.loc 1 1929 0
 4177 1a56 039B     		ldr	r3, [sp, #12]
 4178 1a58 1B6E     		ldr	r3, [r3, #96]
 4179 1a5a 002B     		cmp	r3, #0
 4180 1a5c 03D0     		beq	.L232
 4181              		.loc 1 1931 0
 4182 1a5e 0398     		ldr	r0, [sp, #12]
 4183 1a60 FFF7FEFF 		bl	HAL_SPI_ErrorCallback
 4184              		.loc 1 1932 0
 4185 1a64 02E0     		b	.L231
 4186              	.L232:
 4187              		.loc 1 1935 0
 4188 1a66 0398     		ldr	r0, [sp, #12]
 4189 1a68 FFF7FEFF 		bl	HAL_SPI_TxCpltCallback
 4190              	.L231:
 4191              		.loc 1 1936 0
 4192 1a6c 05B0     		add	sp, sp, #20
 4193              		@ sp needed
 4194 1a6e 5DF804FB 		ldr	pc, [sp], #4
 4195              		.cfi_endproc
ARM GAS  /tmp/cc34cfqS.s 			page 75


 4196              	.LFE151:
 4197              		.size	SPI_DMATransmitCplt, .-SPI_DMATransmitCplt
 4198 1a72 00BF     		.align	2
 4199 1a74 AFF30080 		.p2align 4,,15
 4199      AFF30080 
 4199      AFF30080 
 4200              		.thumb
 4201              		.thumb_func
 4202              		.type	SPI_DMAReceiveCplt, %function
 4203              	SPI_DMAReceiveCplt:
 4204              	.LFB152:
 4205              		.loc 1 1945 0
 4206              		.cfi_startproc
 4207              		@ args = 0, pretend = 0, frame = 16
 4208              		@ frame_needed = 0, uses_anonymous_args = 0
 4209 1a80 00B5     		push	{lr}
 4210              		.cfi_def_cfa_offset 4
 4211              		.cfi_offset 14, -4
 4212 1a82 85B0     		sub	sp, sp, #20
 4213              		.cfi_def_cfa_offset 24
 4214 1a84 0190     		str	r0, [sp, #4]
 4215              		.loc 1 1946 0
 4216 1a86 019B     		ldr	r3, [sp, #4]
 4217 1a88 9B6A     		ldr	r3, [r3, #40]
 4218 1a8a 0393     		str	r3, [sp, #12]
 4219              		.loc 1 1948 0
 4220 1a8c 019B     		ldr	r3, [sp, #4]
 4221 1a8e 1B68     		ldr	r3, [r3]
 4222 1a90 1B68     		ldr	r3, [r3]
 4223 1a92 03F02003 		and	r3, r3, #32
 4224 1a96 002B     		cmp	r3, #0
 4225 1a98 7DD1     		bne	.L237
 4226              	.LBB7:
 4227              		.loc 1 1953 0
 4228 1a9a 039B     		ldr	r3, [sp, #12]
 4229 1a9c 9B6A     		ldr	r3, [r3, #40]
 4230 1a9e B3F5005F 		cmp	r3, #8192
 4231 1aa2 41D1     		bne	.L238
 4232              		.loc 1 1956 0
 4233 1aa4 0398     		ldr	r0, [sp, #12]
 4234 1aa6 0121     		movs	r1, #1
 4235 1aa8 0122     		movs	r2, #1
 4236 1aaa 3223     		movs	r3, #50
 4237 1aac 00F0F8FB 		bl	SPI_WaitFlagStateUntilTimeout
 4238 1ab0 0346     		mov	r3, r0
 4239 1ab2 002B     		cmp	r3, #0
 4240 1ab4 05D0     		beq	.L239
 4241              		.loc 1 1959 0
 4242 1ab6 039B     		ldr	r3, [sp, #12]
 4243 1ab8 1B6E     		ldr	r3, [r3, #96]
 4244 1aba 43F00202 		orr	r2, r3, #2
 4245 1abe 039B     		ldr	r3, [sp, #12]
 4246 1ac0 1A66     		str	r2, [r3, #96]
 4247              	.L239:
 4248              		.loc 1 1961 0
 4249 1ac2 039B     		ldr	r3, [sp, #12]
 4250 1ac4 DB68     		ldr	r3, [r3, #12]
ARM GAS  /tmp/cc34cfqS.s 			page 76


 4251 1ac6 B3F5E06F 		cmp	r3, #1792
 4252 1aca 08D9     		bls	.L240
 4253              		.loc 1 1963 0
 4254 1acc 039B     		ldr	r3, [sp, #12]
 4255 1ace 1B68     		ldr	r3, [r3]
 4256 1ad0 DB68     		ldr	r3, [r3, #12]
 4257 1ad2 9BB2     		uxth	r3, r3
 4258 1ad4 ADF80A30 		strh	r3, [sp, #10]	@ movhi
 4259              		.loc 1 1964 0
 4260 1ad8 BDF80A30 		ldrh	r3, [sp, #10]	@ movhi
 4261 1adc 24E0     		b	.L238
 4262              	.L240:
 4263              		.loc 1 1968 0
 4264 1ade 039B     		ldr	r3, [sp, #12]
 4265 1ae0 1B68     		ldr	r3, [r3]
 4266 1ae2 0C33     		adds	r3, r3, #12
 4267 1ae4 1B78     		ldrb	r3, [r3]
 4268 1ae6 DBB2     		uxtb	r3, r3
 4269 1ae8 ADF80A30 		strh	r3, [sp, #10]	@ movhi
 4270              		.loc 1 1969 0
 4271 1aec BDF80A30 		ldrh	r3, [sp, #10]	@ movhi
 4272              		.loc 1 1971 0
 4273 1af0 039B     		ldr	r3, [sp, #12]
 4274 1af2 1B6B     		ldr	r3, [r3, #48]
 4275 1af4 022B     		cmp	r3, #2
 4276 1af6 17D1     		bne	.L238
 4277              		.loc 1 1973 0
 4278 1af8 0398     		ldr	r0, [sp, #12]
 4279 1afa 0121     		movs	r1, #1
 4280 1afc 0122     		movs	r2, #1
 4281 1afe 3223     		movs	r3, #50
 4282 1b00 00F0CEFB 		bl	SPI_WaitFlagStateUntilTimeout
 4283 1b04 0346     		mov	r3, r0
 4284 1b06 002B     		cmp	r3, #0
 4285 1b08 05D0     		beq	.L241
 4286              		.loc 1 1976 0
 4287 1b0a 039B     		ldr	r3, [sp, #12]
 4288 1b0c 1B6E     		ldr	r3, [r3, #96]
 4289 1b0e 43F00202 		orr	r2, r3, #2
 4290 1b12 039B     		ldr	r3, [sp, #12]
 4291 1b14 1A66     		str	r2, [r3, #96]
 4292              	.L241:
 4293              		.loc 1 1978 0
 4294 1b16 039B     		ldr	r3, [sp, #12]
 4295 1b18 1B68     		ldr	r3, [r3]
 4296 1b1a 0C33     		adds	r3, r3, #12
 4297 1b1c 1B78     		ldrb	r3, [r3]
 4298 1b1e DBB2     		uxtb	r3, r3
 4299 1b20 ADF80A30 		strh	r3, [sp, #10]	@ movhi
 4300              		.loc 1 1979 0
 4301 1b24 BDF80A30 		ldrh	r3, [sp, #10]	@ movhi
 4302              	.L238:
 4303              		.loc 1 1985 0
 4304 1b28 039B     		ldr	r3, [sp, #12]
 4305 1b2a 1B68     		ldr	r3, [r3]
 4306 1b2c 039A     		ldr	r2, [sp, #12]
 4307 1b2e 1268     		ldr	r2, [r2]
ARM GAS  /tmp/cc34cfqS.s 			page 77


 4308 1b30 5268     		ldr	r2, [r2, #4]
 4309 1b32 22F00302 		bic	r2, r2, #3
 4310 1b36 5A60     		str	r2, [r3, #4]
 4311              		.loc 1 1988 0
 4312 1b38 0398     		ldr	r0, [sp, #12]
 4313 1b3a 3221     		movs	r1, #50
 4314 1b3c 00F090FC 		bl	SPI_EndRxTransaction
 4315 1b40 0346     		mov	r3, r0
 4316 1b42 002B     		cmp	r3, #0
 4317 1b44 05D0     		beq	.L242
 4318              		.loc 1 1990 0
 4319 1b46 039B     		ldr	r3, [sp, #12]
 4320 1b48 1B6E     		ldr	r3, [r3, #96]
 4321 1b4a 43F02002 		orr	r2, r3, #32
 4322 1b4e 039B     		ldr	r3, [sp, #12]
 4323 1b50 1A66     		str	r2, [r3, #96]
 4324              	.L242:
 4325              		.loc 1 1993 0
 4326 1b52 039B     		ldr	r3, [sp, #12]
 4327 1b54 0022     		movs	r2, #0
 4328 1b56 A3F84620 		strh	r2, [r3, #70]	@ movhi
 4329              		.loc 1 1994 0
 4330 1b5a 039B     		ldr	r3, [sp, #12]
 4331 1b5c 0122     		movs	r2, #1
 4332 1b5e 83F85D20 		strb	r2, [r3, #93]
 4333              		.loc 1 1997 0
 4334 1b62 039B     		ldr	r3, [sp, #12]
 4335 1b64 1B68     		ldr	r3, [r3]
 4336 1b66 9B68     		ldr	r3, [r3, #8]
 4337 1b68 03F01003 		and	r3, r3, #16
 4338 1b6c 002B     		cmp	r3, #0
 4339 1b6e 0AD0     		beq	.L243
 4340              		.loc 1 1999 0
 4341 1b70 039B     		ldr	r3, [sp, #12]
 4342 1b72 1B6E     		ldr	r3, [r3, #96]
 4343 1b74 43F00202 		orr	r2, r3, #2
 4344 1b78 039B     		ldr	r3, [sp, #12]
 4345 1b7a 1A66     		str	r2, [r3, #96]
 4346              		.loc 1 2000 0
 4347 1b7c 039B     		ldr	r3, [sp, #12]
 4348 1b7e 1B68     		ldr	r3, [r3]
 4349 1b80 4FF6EF72 		movw	r2, #65519
 4350 1b84 9A60     		str	r2, [r3, #8]
 4351              	.L243:
 4352              		.loc 1 2003 0
 4353 1b86 039B     		ldr	r3, [sp, #12]
 4354 1b88 1B6E     		ldr	r3, [r3, #96]
 4355 1b8a 002B     		cmp	r3, #0
 4356 1b8c 03D0     		beq	.L237
 4357              		.loc 1 2005 0
 4358 1b8e 0398     		ldr	r0, [sp, #12]
 4359 1b90 FFF7FEFF 		bl	HAL_SPI_ErrorCallback
 4360              		.loc 1 2006 0
 4361 1b94 02E0     		b	.L236
 4362              	.L237:
 4363              	.LBE7:
 4364              		.loc 1 2009 0
ARM GAS  /tmp/cc34cfqS.s 			page 78


 4365 1b96 0398     		ldr	r0, [sp, #12]
 4366 1b98 FFF7FEFF 		bl	HAL_SPI_RxCpltCallback
 4367              	.L236:
 4368              		.loc 1 2010 0
 4369 1b9c 05B0     		add	sp, sp, #20
 4370              		@ sp needed
 4371 1b9e 5DF804FB 		ldr	pc, [sp], #4
 4372              		.cfi_endproc
 4373              	.LFE152:
 4374              		.size	SPI_DMAReceiveCplt, .-SPI_DMAReceiveCplt
 4375 1ba2 00BF     		.align	2
 4376 1ba4 AFF30080 		.p2align 4,,15
 4376      AFF30080 
 4376      AFF30080 
 4377              		.thumb
 4378              		.thumb_func
 4379              		.type	SPI_DMATransmitReceiveCplt, %function
 4380              	SPI_DMATransmitReceiveCplt:
 4381              	.LFB153:
 4382              		.loc 1 2019 0
 4383              		.cfi_startproc
 4384              		@ args = 0, pretend = 0, frame = 16
 4385              		@ frame_needed = 0, uses_anonymous_args = 0
 4386 1bb0 00B5     		push	{lr}
 4387              		.cfi_def_cfa_offset 4
 4388              		.cfi_offset 14, -4
 4389 1bb2 85B0     		sub	sp, sp, #20
 4390              		.cfi_def_cfa_offset 24
 4391 1bb4 0190     		str	r0, [sp, #4]
 4392              		.loc 1 2020 0
 4393 1bb6 019B     		ldr	r3, [sp, #4]
 4394 1bb8 9B6A     		ldr	r3, [r3, #40]
 4395 1bba 0393     		str	r3, [sp, #12]
 4396              		.loc 1 2022 0
 4397 1bbc 019B     		ldr	r3, [sp, #4]
 4398 1bbe 1B68     		ldr	r3, [r3]
 4399 1bc0 1B68     		ldr	r3, [r3]
 4400 1bc2 03F02003 		and	r3, r3, #32
 4401 1bc6 002B     		cmp	r3, #0
 4402 1bc8 78D1     		bne	.L246
 4403              	.LBB8:
 4404              		.loc 1 2026 0
 4405 1bca 039B     		ldr	r3, [sp, #12]
 4406 1bcc 9B6A     		ldr	r3, [r3, #40]
 4407 1bce B3F5005F 		cmp	r3, #8192
 4408 1bd2 3CD1     		bne	.L247
 4409              		.loc 1 2028 0
 4410 1bd4 039B     		ldr	r3, [sp, #12]
 4411 1bd6 DB68     		ldr	r3, [r3, #12]
 4412 1bd8 B3F5E06F 		cmp	r3, #1792
 4413 1bdc 1ED1     		bne	.L248
 4414              		.loc 1 2028 0 is_stmt 0 discriminator 1
 4415 1bde 039B     		ldr	r3, [sp, #12]
 4416 1be0 1B6B     		ldr	r3, [r3, #48]
 4417 1be2 012B     		cmp	r3, #1
 4418 1be4 1AD1     		bne	.L248
 4419              		.loc 1 2030 0 is_stmt 1
ARM GAS  /tmp/cc34cfqS.s 			page 79


 4420 1be6 0398     		ldr	r0, [sp, #12]
 4421 1be8 4FF4C061 		mov	r1, #1536
 4422 1bec 4FF40072 		mov	r2, #512
 4423 1bf0 3223     		movs	r3, #50
 4424 1bf2 00F0BDFB 		bl	SPI_WaitFifoStateUntilTimeout
 4425 1bf6 0346     		mov	r3, r0
 4426 1bf8 002B     		cmp	r3, #0
 4427 1bfa 05D0     		beq	.L249
 4428              		.loc 1 2033 0
 4429 1bfc 039B     		ldr	r3, [sp, #12]
 4430 1bfe 1B6E     		ldr	r3, [r3, #96]
 4431 1c00 43F00202 		orr	r2, r3, #2
 4432 1c04 039B     		ldr	r3, [sp, #12]
 4433 1c06 1A66     		str	r2, [r3, #96]
 4434              	.L249:
 4435              		.loc 1 2035 0
 4436 1c08 039B     		ldr	r3, [sp, #12]
 4437 1c0a 1B68     		ldr	r3, [r3]
 4438 1c0c 0C33     		adds	r3, r3, #12
 4439 1c0e 1B78     		ldrb	r3, [r3]
 4440 1c10 DBB2     		uxtb	r3, r3
 4441 1c12 ADF80A30 		strh	r3, [sp, #10]	@ movhi
 4442              		.loc 1 2036 0
 4443 1c16 BDF80A30 		ldrh	r3, [sp, #10]	@ movhi
 4444 1c1a 18E0     		b	.L247
 4445              	.L248:
 4446              		.loc 1 2040 0
 4447 1c1c 0398     		ldr	r0, [sp, #12]
 4448 1c1e 4FF4C061 		mov	r1, #1536
 4449 1c22 4FF48062 		mov	r2, #1024
 4450 1c26 3223     		movs	r3, #50
 4451 1c28 00F0A2FB 		bl	SPI_WaitFifoStateUntilTimeout
 4452 1c2c 0346     		mov	r3, r0
 4453 1c2e 002B     		cmp	r3, #0
 4454 1c30 05D0     		beq	.L250
 4455              		.loc 1 2043 0
 4456 1c32 039B     		ldr	r3, [sp, #12]
 4457 1c34 1B6E     		ldr	r3, [r3, #96]
 4458 1c36 43F00202 		orr	r2, r3, #2
 4459 1c3a 039B     		ldr	r3, [sp, #12]
 4460 1c3c 1A66     		str	r2, [r3, #96]
 4461              	.L250:
 4462              		.loc 1 2045 0
 4463 1c3e 039B     		ldr	r3, [sp, #12]
 4464 1c40 1B68     		ldr	r3, [r3]
 4465 1c42 DB68     		ldr	r3, [r3, #12]
 4466 1c44 9BB2     		uxth	r3, r3
 4467 1c46 ADF80A30 		strh	r3, [sp, #10]	@ movhi
 4468              		.loc 1 2046 0
 4469 1c4a BDF80A30 		ldrh	r3, [sp, #10]	@ movhi
 4470              	.L247:
 4471              		.loc 1 2051 0
 4472 1c4e 0398     		ldr	r0, [sp, #12]
 4473 1c50 3221     		movs	r1, #50
 4474 1c52 00F05DFC 		bl	SPI_EndRxTxTransaction
 4475 1c56 0346     		mov	r3, r0
 4476 1c58 002B     		cmp	r3, #0
ARM GAS  /tmp/cc34cfqS.s 			page 80


 4477 1c5a 02D0     		beq	.L251
 4478              		.loc 1 2053 0
 4479 1c5c 039B     		ldr	r3, [sp, #12]
 4480 1c5e 2022     		movs	r2, #32
 4481 1c60 1A66     		str	r2, [r3, #96]
 4482              	.L251:
 4483              		.loc 1 2057 0
 4484 1c62 039B     		ldr	r3, [sp, #12]
 4485 1c64 1B68     		ldr	r3, [r3]
 4486 1c66 039A     		ldr	r2, [sp, #12]
 4487 1c68 1268     		ldr	r2, [r2]
 4488 1c6a 5268     		ldr	r2, [r2, #4]
 4489 1c6c 22F00302 		bic	r2, r2, #3
 4490 1c70 5A60     		str	r2, [r3, #4]
 4491              		.loc 1 2059 0
 4492 1c72 039B     		ldr	r3, [sp, #12]
 4493 1c74 0022     		movs	r2, #0
 4494 1c76 DA87     		strh	r2, [r3, #62]	@ movhi
 4495              		.loc 1 2060 0
 4496 1c78 039B     		ldr	r3, [sp, #12]
 4497 1c7a 0022     		movs	r2, #0
 4498 1c7c A3F84620 		strh	r2, [r3, #70]	@ movhi
 4499              		.loc 1 2061 0
 4500 1c80 039B     		ldr	r3, [sp, #12]
 4501 1c82 0122     		movs	r2, #1
 4502 1c84 83F85D20 		strb	r2, [r3, #93]
 4503              		.loc 1 2064 0
 4504 1c88 039B     		ldr	r3, [sp, #12]
 4505 1c8a 1B68     		ldr	r3, [r3]
 4506 1c8c 9B68     		ldr	r3, [r3, #8]
 4507 1c8e 03F01003 		and	r3, r3, #16
 4508 1c92 002B     		cmp	r3, #0
 4509 1c94 0AD0     		beq	.L252
 4510              		.loc 1 2066 0
 4511 1c96 039B     		ldr	r3, [sp, #12]
 4512 1c98 1B6E     		ldr	r3, [r3, #96]
 4513 1c9a 43F00202 		orr	r2, r3, #2
 4514 1c9e 039B     		ldr	r3, [sp, #12]
 4515 1ca0 1A66     		str	r2, [r3, #96]
 4516              		.loc 1 2067 0
 4517 1ca2 039B     		ldr	r3, [sp, #12]
 4518 1ca4 1B68     		ldr	r3, [r3]
 4519 1ca6 4FF6EF72 		movw	r2, #65519
 4520 1caa 9A60     		str	r2, [r3, #8]
 4521              	.L252:
 4522              		.loc 1 2070 0
 4523 1cac 039B     		ldr	r3, [sp, #12]
 4524 1cae 1B6E     		ldr	r3, [r3, #96]
 4525 1cb0 002B     		cmp	r3, #0
 4526 1cb2 03D0     		beq	.L246
 4527              		.loc 1 2072 0
 4528 1cb4 0398     		ldr	r0, [sp, #12]
 4529 1cb6 FFF7FEFF 		bl	HAL_SPI_ErrorCallback
 4530              		.loc 1 2073 0
 4531 1cba 02E0     		b	.L245
 4532              	.L246:
 4533              	.LBE8:
ARM GAS  /tmp/cc34cfqS.s 			page 81


 4534              		.loc 1 2076 0
 4535 1cbc 0398     		ldr	r0, [sp, #12]
 4536 1cbe FFF7FEFF 		bl	HAL_SPI_TxRxCpltCallback
 4537              	.L245:
 4538              		.loc 1 2077 0
 4539 1cc2 05B0     		add	sp, sp, #20
 4540              		@ sp needed
 4541 1cc4 5DF804FB 		ldr	pc, [sp], #4
 4542              		.cfi_endproc
 4543              	.LFE153:
 4544              		.size	SPI_DMATransmitReceiveCplt, .-SPI_DMATransmitReceiveCplt
 4545              		.align	2
 4546 1cc8 AFF30080 		.p2align 4,,15
 4546      AFF30080 
 4547              		.thumb
 4548              		.thumb_func
 4549              		.type	SPI_DMAHalfTransmitCplt, %function
 4550              	SPI_DMAHalfTransmitCplt:
 4551              	.LFB154:
 4552              		.loc 1 2086 0
 4553              		.cfi_startproc
 4554              		@ args = 0, pretend = 0, frame = 16
 4555              		@ frame_needed = 0, uses_anonymous_args = 0
 4556 1cd0 00B5     		push	{lr}
 4557              		.cfi_def_cfa_offset 4
 4558              		.cfi_offset 14, -4
 4559 1cd2 85B0     		sub	sp, sp, #20
 4560              		.cfi_def_cfa_offset 24
 4561 1cd4 0190     		str	r0, [sp, #4]
 4562              		.loc 1 2087 0
 4563 1cd6 019B     		ldr	r3, [sp, #4]
 4564 1cd8 9B6A     		ldr	r3, [r3, #40]
 4565 1cda 0393     		str	r3, [sp, #12]
 4566              		.loc 1 2089 0
 4567 1cdc 0398     		ldr	r0, [sp, #12]
 4568 1cde FFF7FEFF 		bl	HAL_SPI_TxHalfCpltCallback
 4569              		.loc 1 2090 0
 4570 1ce2 05B0     		add	sp, sp, #20
 4571              		@ sp needed
 4572 1ce4 5DF804FB 		ldr	pc, [sp], #4
 4573              		.cfi_endproc
 4574              	.LFE154:
 4575              		.size	SPI_DMAHalfTransmitCplt, .-SPI_DMAHalfTransmitCplt
 4576              		.align	2
 4577 1ce8 AFF30080 		.p2align 4,,15
 4577      AFF30080 
 4578              		.thumb
 4579              		.thumb_func
 4580              		.type	SPI_DMAHalfReceiveCplt, %function
 4581              	SPI_DMAHalfReceiveCplt:
 4582              	.LFB155:
 4583              		.loc 1 2099 0
 4584              		.cfi_startproc
 4585              		@ args = 0, pretend = 0, frame = 16
 4586              		@ frame_needed = 0, uses_anonymous_args = 0
 4587 1cf0 00B5     		push	{lr}
 4588              		.cfi_def_cfa_offset 4
ARM GAS  /tmp/cc34cfqS.s 			page 82


 4589              		.cfi_offset 14, -4
 4590 1cf2 85B0     		sub	sp, sp, #20
 4591              		.cfi_def_cfa_offset 24
 4592 1cf4 0190     		str	r0, [sp, #4]
 4593              		.loc 1 2100 0
 4594 1cf6 019B     		ldr	r3, [sp, #4]
 4595 1cf8 9B6A     		ldr	r3, [r3, #40]
 4596 1cfa 0393     		str	r3, [sp, #12]
 4597              		.loc 1 2102 0
 4598 1cfc 0398     		ldr	r0, [sp, #12]
 4599 1cfe FFF7FEFF 		bl	HAL_SPI_RxHalfCpltCallback
 4600              		.loc 1 2103 0
 4601 1d02 05B0     		add	sp, sp, #20
 4602              		@ sp needed
 4603 1d04 5DF804FB 		ldr	pc, [sp], #4
 4604              		.cfi_endproc
 4605              	.LFE155:
 4606              		.size	SPI_DMAHalfReceiveCplt, .-SPI_DMAHalfReceiveCplt
 4607              		.align	2
 4608 1d08 AFF30080 		.p2align 4,,15
 4608      AFF30080 
 4609              		.thumb
 4610              		.thumb_func
 4611              		.type	SPI_DMAHalfTransmitReceiveCplt, %function
 4612              	SPI_DMAHalfTransmitReceiveCplt:
 4613              	.LFB156:
 4614              		.loc 1 2112 0
 4615              		.cfi_startproc
 4616              		@ args = 0, pretend = 0, frame = 16
 4617              		@ frame_needed = 0, uses_anonymous_args = 0
 4618 1d10 00B5     		push	{lr}
 4619              		.cfi_def_cfa_offset 4
 4620              		.cfi_offset 14, -4
 4621 1d12 85B0     		sub	sp, sp, #20
 4622              		.cfi_def_cfa_offset 24
 4623 1d14 0190     		str	r0, [sp, #4]
 4624              		.loc 1 2113 0
 4625 1d16 019B     		ldr	r3, [sp, #4]
 4626 1d18 9B6A     		ldr	r3, [r3, #40]
 4627 1d1a 0393     		str	r3, [sp, #12]
 4628              		.loc 1 2115 0
 4629 1d1c 0398     		ldr	r0, [sp, #12]
 4630 1d1e FFF7FEFF 		bl	HAL_SPI_TxRxHalfCpltCallback
 4631              		.loc 1 2116 0
 4632 1d22 05B0     		add	sp, sp, #20
 4633              		@ sp needed
 4634 1d24 5DF804FB 		ldr	pc, [sp], #4
 4635              		.cfi_endproc
 4636              	.LFE156:
 4637              		.size	SPI_DMAHalfTransmitReceiveCplt, .-SPI_DMAHalfTransmitReceiveCplt
 4638              		.align	2
 4639 1d28 AFF30080 		.p2align 4,,15
 4639      AFF30080 
 4640              		.thumb
 4641              		.thumb_func
 4642              		.type	SPI_DMAError, %function
 4643              	SPI_DMAError:
ARM GAS  /tmp/cc34cfqS.s 			page 83


 4644              	.LFB157:
 4645              		.loc 1 2125 0
 4646              		.cfi_startproc
 4647              		@ args = 0, pretend = 0, frame = 16
 4648              		@ frame_needed = 0, uses_anonymous_args = 0
 4649 1d30 00B5     		push	{lr}
 4650              		.cfi_def_cfa_offset 4
 4651              		.cfi_offset 14, -4
 4652 1d32 85B0     		sub	sp, sp, #20
 4653              		.cfi_def_cfa_offset 24
 4654 1d34 0190     		str	r0, [sp, #4]
 4655              		.loc 1 2126 0
 4656 1d36 019B     		ldr	r3, [sp, #4]
 4657 1d38 9B6A     		ldr	r3, [r3, #40]
 4658 1d3a 0393     		str	r3, [sp, #12]
 4659              		.loc 1 2129 0
 4660 1d3c 039B     		ldr	r3, [sp, #12]
 4661 1d3e 1B68     		ldr	r3, [r3]
 4662 1d40 039A     		ldr	r2, [sp, #12]
 4663 1d42 1268     		ldr	r2, [r2]
 4664 1d44 5268     		ldr	r2, [r2, #4]
 4665 1d46 22F00302 		bic	r2, r2, #3
 4666 1d4a 5A60     		str	r2, [r3, #4]
 4667              		.loc 1 2131 0
 4668 1d4c 039B     		ldr	r3, [sp, #12]
 4669 1d4e 1B6E     		ldr	r3, [r3, #96]
 4670 1d50 43F01002 		orr	r2, r3, #16
 4671 1d54 039B     		ldr	r3, [sp, #12]
 4672 1d56 1A66     		str	r2, [r3, #96]
 4673              		.loc 1 2132 0
 4674 1d58 039B     		ldr	r3, [sp, #12]
 4675 1d5a 0122     		movs	r2, #1
 4676 1d5c 83F85D20 		strb	r2, [r3, #93]
 4677              		.loc 1 2133 0
 4678 1d60 0398     		ldr	r0, [sp, #12]
 4679 1d62 FFF7FEFF 		bl	HAL_SPI_ErrorCallback
 4680              		.loc 1 2134 0
 4681 1d66 05B0     		add	sp, sp, #20
 4682              		@ sp needed
 4683 1d68 5DF804FB 		ldr	pc, [sp], #4
 4684              		.cfi_endproc
 4685              	.LFE157:
 4686              		.size	SPI_DMAError, .-SPI_DMAError
 4687              		.align	2
 4688 1d6c AFF30080 		.p2align 4,,15
 4689              		.thumb
 4690              		.thumb_func
 4691              		.type	SPI_2linesRxISR_8BIT, %function
 4692              	SPI_2linesRxISR_8BIT:
 4693              	.LFB158:
 4694              		.loc 1 2143 0
 4695              		.cfi_startproc
 4696              		@ args = 0, pretend = 0, frame = 8
 4697              		@ frame_needed = 0, uses_anonymous_args = 0
 4698 1d70 00B5     		push	{lr}
 4699              		.cfi_def_cfa_offset 4
 4700              		.cfi_offset 14, -4
ARM GAS  /tmp/cc34cfqS.s 			page 84


 4701 1d72 83B0     		sub	sp, sp, #12
 4702              		.cfi_def_cfa_offset 16
 4703 1d74 0190     		str	r0, [sp, #4]
 4704              		.loc 1 2145 0
 4705 1d76 019B     		ldr	r3, [sp, #4]
 4706 1d78 B3F84630 		ldrh	r3, [r3, #70]
 4707 1d7c 012B     		cmp	r3, #1
 4708 1d7e 21D9     		bls	.L259
 4709              		.loc 1 2147 0
 4710 1d80 019B     		ldr	r3, [sp, #4]
 4711 1d82 1B6C     		ldr	r3, [r3, #64]
 4712 1d84 019A     		ldr	r2, [sp, #4]
 4713 1d86 1268     		ldr	r2, [r2]
 4714 1d88 D268     		ldr	r2, [r2, #12]
 4715 1d8a 92B2     		uxth	r2, r2
 4716 1d8c 1A80     		strh	r2, [r3]	@ movhi
 4717              		.loc 1 2148 0
 4718 1d8e 019B     		ldr	r3, [sp, #4]
 4719 1d90 1B6C     		ldr	r3, [r3, #64]
 4720 1d92 9A1C     		adds	r2, r3, #2
 4721 1d94 019B     		ldr	r3, [sp, #4]
 4722 1d96 1A64     		str	r2, [r3, #64]
 4723              		.loc 1 2149 0
 4724 1d98 019B     		ldr	r3, [sp, #4]
 4725 1d9a B3F84630 		ldrh	r3, [r3, #70]
 4726 1d9e 023B     		subs	r3, r3, #2
 4727 1da0 9AB2     		uxth	r2, r3
 4728 1da2 019B     		ldr	r3, [sp, #4]
 4729 1da4 A3F84620 		strh	r2, [r3, #70]	@ movhi
 4730              		.loc 1 2150 0
 4731 1da8 019B     		ldr	r3, [sp, #4]
 4732 1daa B3F84630 		ldrh	r3, [r3, #70]
 4733 1dae 012B     		cmp	r3, #1
 4734 1db0 1BD1     		bne	.L261
 4735              		.loc 1 2153 0
 4736 1db2 019B     		ldr	r3, [sp, #4]
 4737 1db4 1B68     		ldr	r3, [r3]
 4738 1db6 019A     		ldr	r2, [sp, #4]
 4739 1db8 1268     		ldr	r2, [r2]
 4740 1dba 5268     		ldr	r2, [r2, #4]
 4741 1dbc 42F48052 		orr	r2, r2, #4096
 4742 1dc0 5A60     		str	r2, [r3, #4]
 4743 1dc2 12E0     		b	.L261
 4744              	.L259:
 4745              		.loc 1 2159 0
 4746 1dc4 019B     		ldr	r3, [sp, #4]
 4747 1dc6 1B6C     		ldr	r3, [r3, #64]
 4748 1dc8 591C     		adds	r1, r3, #1
 4749 1dca 019A     		ldr	r2, [sp, #4]
 4750 1dcc 1164     		str	r1, [r2, #64]
 4751 1dce 019A     		ldr	r2, [sp, #4]
 4752 1dd0 1268     		ldr	r2, [r2]
 4753 1dd2 0C32     		adds	r2, r2, #12
 4754 1dd4 1278     		ldrb	r2, [r2]
 4755 1dd6 D2B2     		uxtb	r2, r2
 4756 1dd8 1A70     		strb	r2, [r3]
 4757              		.loc 1 2160 0
ARM GAS  /tmp/cc34cfqS.s 			page 85


 4758 1dda 019B     		ldr	r3, [sp, #4]
 4759 1ddc B3F84630 		ldrh	r3, [r3, #70]
 4760 1de0 013B     		subs	r3, r3, #1
 4761 1de2 9AB2     		uxth	r2, r3
 4762 1de4 019B     		ldr	r3, [sp, #4]
 4763 1de6 A3F84620 		strh	r2, [r3, #70]	@ movhi
 4764              	.L261:
 4765              		.loc 1 2164 0
 4766 1dea 019B     		ldr	r3, [sp, #4]
 4767 1dec B3F84630 		ldrh	r3, [r3, #70]
 4768 1df0 002B     		cmp	r3, #0
 4769 1df2 1FD1     		bne	.L258
 4770              		.loc 1 2166 0
 4771 1df4 019B     		ldr	r3, [sp, #4]
 4772 1df6 9B6A     		ldr	r3, [r3, #40]
 4773 1df8 B3F5005F 		cmp	r3, #8192
 4774 1dfc 0BD1     		bne	.L263
 4775              		.loc 1 2168 0
 4776 1dfe 019B     		ldr	r3, [sp, #4]
 4777 1e00 1B68     		ldr	r3, [r3]
 4778 1e02 019A     		ldr	r2, [sp, #4]
 4779 1e04 1268     		ldr	r2, [r2]
 4780 1e06 5268     		ldr	r2, [r2, #4]
 4781 1e08 42F48052 		orr	r2, r2, #4096
 4782 1e0c 5A60     		str	r2, [r3, #4]
 4783              		.loc 1 2169 0
 4784 1e0e 019B     		ldr	r3, [sp, #4]
 4785 1e10 0A4A     		ldr	r2, .L264
 4786 1e12 DA64     		str	r2, [r3, #76]
 4787              		.loc 1 2170 0
 4788 1e14 0EE0     		b	.L258
 4789              	.L263:
 4790              		.loc 1 2174 0
 4791 1e16 019B     		ldr	r3, [sp, #4]
 4792 1e18 1B68     		ldr	r3, [r3]
 4793 1e1a 019A     		ldr	r2, [sp, #4]
 4794 1e1c 1268     		ldr	r2, [r2]
 4795 1e1e 5268     		ldr	r2, [r2, #4]
 4796 1e20 22F04002 		bic	r2, r2, #64
 4797 1e24 5A60     		str	r2, [r3, #4]
 4798              		.loc 1 2176 0
 4799 1e26 019B     		ldr	r3, [sp, #4]
 4800 1e28 DB8F     		ldrh	r3, [r3, #62]
 4801 1e2a 002B     		cmp	r3, #0
 4802 1e2c 02D1     		bne	.L258
 4803              		.loc 1 2178 0
 4804 1e2e 0198     		ldr	r0, [sp, #4]
 4805 1e30 00F09EFB 		bl	SPI_CloseRxTx_ISR
 4806              	.L258:
 4807              		.loc 1 2181 0
 4808 1e34 03B0     		add	sp, sp, #12
 4809              		@ sp needed
 4810 1e36 5DF804FB 		ldr	pc, [sp], #4
 4811              	.L265:
 4812 1e3a 00BF     		.align	2
 4813              	.L264:
 4814 1e3c 00000000 		.word	SPI_2linesRxISR_8BITCRC
ARM GAS  /tmp/cc34cfqS.s 			page 86


 4815              		.cfi_endproc
 4816              	.LFE158:
 4817              		.size	SPI_2linesRxISR_8BIT, .-SPI_2linesRxISR_8BIT
 4818              		.align	2
 4819              		.p2align 4,,15
 4820              		.thumb
 4821              		.thumb_func
 4822              		.type	SPI_2linesRxISR_8BITCRC, %function
 4823              	SPI_2linesRxISR_8BITCRC:
 4824              	.LFB159:
 4825              		.loc 1 2190 0
 4826              		.cfi_startproc
 4827              		@ args = 0, pretend = 0, frame = 16
 4828              		@ frame_needed = 0, uses_anonymous_args = 0
 4829 1e40 00B5     		push	{lr}
 4830              		.cfi_def_cfa_offset 4
 4831              		.cfi_offset 14, -4
 4832 1e42 85B0     		sub	sp, sp, #20
 4833              		.cfi_def_cfa_offset 24
 4834 1e44 0190     		str	r0, [sp, #4]
 4835              		.loc 1 2191 0
 4836 1e46 019B     		ldr	r3, [sp, #4]
 4837 1e48 1B68     		ldr	r3, [r3]
 4838 1e4a 0C33     		adds	r3, r3, #12
 4839 1e4c 1B78     		ldrb	r3, [r3]
 4840 1e4e DBB2     		uxtb	r3, r3
 4841 1e50 8DF80F30 		strb	r3, [sp, #15]
 4842              		.loc 1 2192 0
 4843 1e54 9DF80F30 		ldrb	r3, [sp, #15]
 4844              		.loc 1 2194 0
 4845 1e58 019B     		ldr	r3, [sp, #4]
 4846 1e5a 9B6C     		ldr	r3, [r3, #72]
 4847 1e5c 5A1E     		subs	r2, r3, #1
 4848 1e5e 019B     		ldr	r3, [sp, #4]
 4849 1e60 9A64     		str	r2, [r3, #72]
 4850              		.loc 1 2197 0
 4851 1e62 019B     		ldr	r3, [sp, #4]
 4852 1e64 9B6C     		ldr	r3, [r3, #72]
 4853 1e66 002B     		cmp	r3, #0
 4854 1e68 0ED1     		bne	.L266
 4855              		.loc 1 2200 0
 4856 1e6a 019B     		ldr	r3, [sp, #4]
 4857 1e6c 1B68     		ldr	r3, [r3]
 4858 1e6e 019A     		ldr	r2, [sp, #4]
 4859 1e70 1268     		ldr	r2, [r2]
 4860 1e72 5268     		ldr	r2, [r2, #4]
 4861 1e74 22F04002 		bic	r2, r2, #64
 4862 1e78 5A60     		str	r2, [r3, #4]
 4863              		.loc 1 2202 0
 4864 1e7a 019B     		ldr	r3, [sp, #4]
 4865 1e7c DB8F     		ldrh	r3, [r3, #62]
 4866 1e7e 002B     		cmp	r3, #0
 4867 1e80 02D1     		bne	.L266
 4868              		.loc 1 2204 0
 4869 1e82 0198     		ldr	r0, [sp, #4]
 4870 1e84 00F074FB 		bl	SPI_CloseRxTx_ISR
 4871              	.L266:
ARM GAS  /tmp/cc34cfqS.s 			page 87


 4872              		.loc 1 2207 0
 4873 1e88 05B0     		add	sp, sp, #20
 4874              		@ sp needed
 4875 1e8a 5DF804FB 		ldr	pc, [sp], #4
 4876              		.cfi_endproc
 4877              	.LFE159:
 4878              		.size	SPI_2linesRxISR_8BITCRC, .-SPI_2linesRxISR_8BITCRC
 4879 1e8e 00BF     		.align	2
 4880              		.p2align 4,,15
 4881              		.thumb
 4882              		.thumb_func
 4883              		.type	SPI_2linesTxISR_8BIT, %function
 4884              	SPI_2linesTxISR_8BIT:
 4885              	.LFB160:
 4886              		.loc 1 2216 0
 4887              		.cfi_startproc
 4888              		@ args = 0, pretend = 0, frame = 8
 4889              		@ frame_needed = 0, uses_anonymous_args = 0
 4890 1e90 00B5     		push	{lr}
 4891              		.cfi_def_cfa_offset 4
 4892              		.cfi_offset 14, -4
 4893 1e92 83B0     		sub	sp, sp, #12
 4894              		.cfi_def_cfa_offset 16
 4895 1e94 0190     		str	r0, [sp, #4]
 4896              		.loc 1 2218 0
 4897 1e96 019B     		ldr	r3, [sp, #4]
 4898 1e98 DB8F     		ldrh	r3, [r3, #62]
 4899 1e9a 012B     		cmp	r3, #1
 4900 1e9c 11D9     		bls	.L269
 4901              		.loc 1 2220 0
 4902 1e9e 019B     		ldr	r3, [sp, #4]
 4903 1ea0 1B68     		ldr	r3, [r3]
 4904 1ea2 019A     		ldr	r2, [sp, #4]
 4905 1ea4 926B     		ldr	r2, [r2, #56]
 4906 1ea6 1288     		ldrh	r2, [r2]
 4907 1ea8 DA60     		str	r2, [r3, #12]
 4908              		.loc 1 2221 0
 4909 1eaa 019B     		ldr	r3, [sp, #4]
 4910 1eac 9B6B     		ldr	r3, [r3, #56]
 4911 1eae 9A1C     		adds	r2, r3, #2
 4912 1eb0 019B     		ldr	r3, [sp, #4]
 4913 1eb2 9A63     		str	r2, [r3, #56]
 4914              		.loc 1 2222 0
 4915 1eb4 019B     		ldr	r3, [sp, #4]
 4916 1eb6 DB8F     		ldrh	r3, [r3, #62]
 4917 1eb8 023B     		subs	r3, r3, #2
 4918 1eba 9AB2     		uxth	r2, r3
 4919 1ebc 019B     		ldr	r3, [sp, #4]
 4920 1ebe DA87     		strh	r2, [r3, #62]	@ movhi
 4921 1ec0 10E0     		b	.L270
 4922              	.L269:
 4923              		.loc 1 2227 0
 4924 1ec2 019B     		ldr	r3, [sp, #4]
 4925 1ec4 1B68     		ldr	r3, [r3]
 4926 1ec6 03F10C02 		add	r2, r3, #12
 4927 1eca 019B     		ldr	r3, [sp, #4]
 4928 1ecc 9B6B     		ldr	r3, [r3, #56]
ARM GAS  /tmp/cc34cfqS.s 			page 88


 4929 1ece 581C     		adds	r0, r3, #1
 4930 1ed0 0199     		ldr	r1, [sp, #4]
 4931 1ed2 8863     		str	r0, [r1, #56]
 4932 1ed4 1B78     		ldrb	r3, [r3]	@ zero_extendqisi2
 4933 1ed6 1370     		strb	r3, [r2]
 4934              		.loc 1 2228 0
 4935 1ed8 019B     		ldr	r3, [sp, #4]
 4936 1eda DB8F     		ldrh	r3, [r3, #62]
 4937 1edc 013B     		subs	r3, r3, #1
 4938 1ede 9AB2     		uxth	r2, r3
 4939 1ee0 019B     		ldr	r3, [sp, #4]
 4940 1ee2 DA87     		strh	r2, [r3, #62]	@ movhi
 4941              	.L270:
 4942              		.loc 1 2232 0
 4943 1ee4 019B     		ldr	r3, [sp, #4]
 4944 1ee6 DB8F     		ldrh	r3, [r3, #62]
 4945 1ee8 002B     		cmp	r3, #0
 4946 1eea 1CD1     		bne	.L268
 4947              		.loc 1 2234 0
 4948 1eec 019B     		ldr	r3, [sp, #4]
 4949 1eee 9B6A     		ldr	r3, [r3, #40]
 4950 1ef0 B3F5005F 		cmp	r3, #8192
 4951 1ef4 07D1     		bne	.L272
 4952              		.loc 1 2236 0
 4953 1ef6 019B     		ldr	r3, [sp, #4]
 4954 1ef8 1B68     		ldr	r3, [r3]
 4955 1efa 019A     		ldr	r2, [sp, #4]
 4956 1efc 1268     		ldr	r2, [r2]
 4957 1efe 1268     		ldr	r2, [r2]
 4958 1f00 42F48052 		orr	r2, r2, #4096
 4959 1f04 1A60     		str	r2, [r3]
 4960              	.L272:
 4961              		.loc 1 2239 0
 4962 1f06 019B     		ldr	r3, [sp, #4]
 4963 1f08 1B68     		ldr	r3, [r3]
 4964 1f0a 019A     		ldr	r2, [sp, #4]
 4965 1f0c 1268     		ldr	r2, [r2]
 4966 1f0e 5268     		ldr	r2, [r2, #4]
 4967 1f10 22F08002 		bic	r2, r2, #128
 4968 1f14 5A60     		str	r2, [r3, #4]
 4969              		.loc 1 2241 0
 4970 1f16 019B     		ldr	r3, [sp, #4]
 4971 1f18 B3F84630 		ldrh	r3, [r3, #70]
 4972 1f1c 002B     		cmp	r3, #0
 4973 1f1e 02D1     		bne	.L268
 4974              		.loc 1 2243 0
 4975 1f20 0198     		ldr	r0, [sp, #4]
 4976 1f22 00F025FB 		bl	SPI_CloseRxTx_ISR
 4977              	.L268:
 4978              		.loc 1 2246 0
 4979 1f26 03B0     		add	sp, sp, #12
 4980              		@ sp needed
 4981 1f28 5DF804FB 		ldr	pc, [sp], #4
 4982              		.cfi_endproc
 4983              	.LFE160:
 4984              		.size	SPI_2linesTxISR_8BIT, .-SPI_2linesTxISR_8BIT
 4985              		.align	2
ARM GAS  /tmp/cc34cfqS.s 			page 89


 4986 1f2c AFF30080 		.p2align 4,,15
 4987              		.thumb
 4988              		.thumb_func
 4989              		.type	SPI_2linesRxISR_16BIT, %function
 4990              	SPI_2linesRxISR_16BIT:
 4991              	.LFB161:
 4992              		.loc 1 2255 0
 4993              		.cfi_startproc
 4994              		@ args = 0, pretend = 0, frame = 8
 4995              		@ frame_needed = 0, uses_anonymous_args = 0
 4996 1f30 00B5     		push	{lr}
 4997              		.cfi_def_cfa_offset 4
 4998              		.cfi_offset 14, -4
 4999 1f32 83B0     		sub	sp, sp, #12
 5000              		.cfi_def_cfa_offset 16
 5001 1f34 0190     		str	r0, [sp, #4]
 5002              		.loc 1 2257 0
 5003 1f36 019B     		ldr	r3, [sp, #4]
 5004 1f38 1B6C     		ldr	r3, [r3, #64]
 5005 1f3a 019A     		ldr	r2, [sp, #4]
 5006 1f3c 1268     		ldr	r2, [r2]
 5007 1f3e D268     		ldr	r2, [r2, #12]
 5008 1f40 92B2     		uxth	r2, r2
 5009 1f42 1A80     		strh	r2, [r3]	@ movhi
 5010              		.loc 1 2258 0
 5011 1f44 019B     		ldr	r3, [sp, #4]
 5012 1f46 1B6C     		ldr	r3, [r3, #64]
 5013 1f48 9A1C     		adds	r2, r3, #2
 5014 1f4a 019B     		ldr	r3, [sp, #4]
 5015 1f4c 1A64     		str	r2, [r3, #64]
 5016              		.loc 1 2259 0
 5017 1f4e 019B     		ldr	r3, [sp, #4]
 5018 1f50 B3F84630 		ldrh	r3, [r3, #70]
 5019 1f54 013B     		subs	r3, r3, #1
 5020 1f56 9AB2     		uxth	r2, r3
 5021 1f58 019B     		ldr	r3, [sp, #4]
 5022 1f5a A3F84620 		strh	r2, [r3, #70]	@ movhi
 5023              		.loc 1 2261 0
 5024 1f5e 019B     		ldr	r3, [sp, #4]
 5025 1f60 B3F84630 		ldrh	r3, [r3, #70]
 5026 1f64 002B     		cmp	r3, #0
 5027 1f66 17D1     		bne	.L273
 5028              		.loc 1 2263 0
 5029 1f68 019B     		ldr	r3, [sp, #4]
 5030 1f6a 9B6A     		ldr	r3, [r3, #40]
 5031 1f6c B3F5005F 		cmp	r3, #8192
 5032 1f70 03D1     		bne	.L275
 5033              		.loc 1 2265 0
 5034 1f72 019B     		ldr	r3, [sp, #4]
 5035 1f74 0A4A     		ldr	r2, .L276
 5036 1f76 DA64     		str	r2, [r3, #76]
 5037              		.loc 1 2266 0
 5038 1f78 0EE0     		b	.L273
 5039              	.L275:
 5040              		.loc 1 2270 0
 5041 1f7a 019B     		ldr	r3, [sp, #4]
 5042 1f7c 1B68     		ldr	r3, [r3]
ARM GAS  /tmp/cc34cfqS.s 			page 90


 5043 1f7e 019A     		ldr	r2, [sp, #4]
 5044 1f80 1268     		ldr	r2, [r2]
 5045 1f82 5268     		ldr	r2, [r2, #4]
 5046 1f84 22F04002 		bic	r2, r2, #64
 5047 1f88 5A60     		str	r2, [r3, #4]
 5048              		.loc 1 2272 0
 5049 1f8a 019B     		ldr	r3, [sp, #4]
 5050 1f8c DB8F     		ldrh	r3, [r3, #62]
 5051 1f8e 002B     		cmp	r3, #0
 5052 1f90 02D1     		bne	.L273
 5053              		.loc 1 2274 0
 5054 1f92 0198     		ldr	r0, [sp, #4]
 5055 1f94 00F0ECFA 		bl	SPI_CloseRxTx_ISR
 5056              	.L273:
 5057              		.loc 1 2277 0
 5058 1f98 03B0     		add	sp, sp, #12
 5059              		@ sp needed
 5060 1f9a 5DF804FB 		ldr	pc, [sp], #4
 5061              	.L277:
 5062 1f9e 00BF     		.align	2
 5063              	.L276:
 5064 1fa0 00000000 		.word	SPI_2linesRxISR_16BITCRC
 5065              		.cfi_endproc
 5066              	.LFE161:
 5067              		.size	SPI_2linesRxISR_16BIT, .-SPI_2linesRxISR_16BIT
 5068              		.align	2
 5069 1fa4 AFF30080 		.p2align 4,,15
 5069      AFF30080 
 5069      AFF30080 
 5070              		.thumb
 5071              		.thumb_func
 5072              		.type	SPI_2linesRxISR_16BITCRC, %function
 5073              	SPI_2linesRxISR_16BITCRC:
 5074              	.LFB162:
 5075              		.loc 1 2286 0
 5076              		.cfi_startproc
 5077              		@ args = 0, pretend = 0, frame = 16
 5078              		@ frame_needed = 0, uses_anonymous_args = 0
 5079 1fb0 00B5     		push	{lr}
 5080              		.cfi_def_cfa_offset 4
 5081              		.cfi_offset 14, -4
 5082 1fb2 85B0     		sub	sp, sp, #20
 5083              		.cfi_def_cfa_offset 24
 5084 1fb4 0190     		str	r0, [sp, #4]
 5085              		.loc 1 2288 0
 5086 1fb6 019B     		ldr	r3, [sp, #4]
 5087 1fb8 1B68     		ldr	r3, [r3]
 5088 1fba DB68     		ldr	r3, [r3, #12]
 5089 1fbc 9BB2     		uxth	r3, r3
 5090 1fbe ADF80E30 		strh	r3, [sp, #14]	@ movhi
 5091              		.loc 1 2289 0
 5092 1fc2 BDF80E30 		ldrh	r3, [sp, #14]	@ movhi
 5093              		.loc 1 2292 0
 5094 1fc6 019B     		ldr	r3, [sp, #4]
 5095 1fc8 1B68     		ldr	r3, [r3]
 5096 1fca 019A     		ldr	r2, [sp, #4]
 5097 1fcc 1268     		ldr	r2, [r2]
ARM GAS  /tmp/cc34cfqS.s 			page 91


 5098 1fce 5268     		ldr	r2, [r2, #4]
 5099 1fd0 22F04002 		bic	r2, r2, #64
 5100 1fd4 5A60     		str	r2, [r3, #4]
 5101              		.loc 1 2294 0
 5102 1fd6 0198     		ldr	r0, [sp, #4]
 5103 1fd8 00F0CAFA 		bl	SPI_CloseRxTx_ISR
 5104              		.loc 1 2295 0
 5105 1fdc 05B0     		add	sp, sp, #20
 5106              		@ sp needed
 5107 1fde 5DF804FB 		ldr	pc, [sp], #4
 5108              		.cfi_endproc
 5109              	.LFE162:
 5110              		.size	SPI_2linesRxISR_16BITCRC, .-SPI_2linesRxISR_16BITCRC
 5111 1fe2 00BF     		.align	2
 5112 1fe4 AFF30080 		.p2align 4,,15
 5112      AFF30080 
 5112      AFF30080 
 5113              		.thumb
 5114              		.thumb_func
 5115              		.type	SPI_2linesTxISR_16BIT, %function
 5116              	SPI_2linesTxISR_16BIT:
 5117              	.LFB163:
 5118              		.loc 1 2304 0
 5119              		.cfi_startproc
 5120              		@ args = 0, pretend = 0, frame = 8
 5121              		@ frame_needed = 0, uses_anonymous_args = 0
 5122 1ff0 00B5     		push	{lr}
 5123              		.cfi_def_cfa_offset 4
 5124              		.cfi_offset 14, -4
 5125 1ff2 83B0     		sub	sp, sp, #12
 5126              		.cfi_def_cfa_offset 16
 5127 1ff4 0190     		str	r0, [sp, #4]
 5128              		.loc 1 2306 0
 5129 1ff6 019B     		ldr	r3, [sp, #4]
 5130 1ff8 1B68     		ldr	r3, [r3]
 5131 1ffa 019A     		ldr	r2, [sp, #4]
 5132 1ffc 926B     		ldr	r2, [r2, #56]
 5133 1ffe 1288     		ldrh	r2, [r2]
 5134 2000 DA60     		str	r2, [r3, #12]
 5135              		.loc 1 2307 0
 5136 2002 019B     		ldr	r3, [sp, #4]
 5137 2004 9B6B     		ldr	r3, [r3, #56]
 5138 2006 9A1C     		adds	r2, r3, #2
 5139 2008 019B     		ldr	r3, [sp, #4]
 5140 200a 9A63     		str	r2, [r3, #56]
 5141              		.loc 1 2308 0
 5142 200c 019B     		ldr	r3, [sp, #4]
 5143 200e DB8F     		ldrh	r3, [r3, #62]
 5144 2010 013B     		subs	r3, r3, #1
 5145 2012 9AB2     		uxth	r2, r3
 5146 2014 019B     		ldr	r3, [sp, #4]
 5147 2016 DA87     		strh	r2, [r3, #62]	@ movhi
 5148              		.loc 1 2311 0
 5149 2018 019B     		ldr	r3, [sp, #4]
 5150 201a DB8F     		ldrh	r3, [r3, #62]
 5151 201c 002B     		cmp	r3, #0
 5152 201e 1CD1     		bne	.L279
ARM GAS  /tmp/cc34cfqS.s 			page 92


 5153              		.loc 1 2313 0
 5154 2020 019B     		ldr	r3, [sp, #4]
 5155 2022 9B6A     		ldr	r3, [r3, #40]
 5156 2024 B3F5005F 		cmp	r3, #8192
 5157 2028 07D1     		bne	.L281
 5158              		.loc 1 2315 0
 5159 202a 019B     		ldr	r3, [sp, #4]
 5160 202c 1B68     		ldr	r3, [r3]
 5161 202e 019A     		ldr	r2, [sp, #4]
 5162 2030 1268     		ldr	r2, [r2]
 5163 2032 1268     		ldr	r2, [r2]
 5164 2034 42F48052 		orr	r2, r2, #4096
 5165 2038 1A60     		str	r2, [r3]
 5166              	.L281:
 5167              		.loc 1 2318 0
 5168 203a 019B     		ldr	r3, [sp, #4]
 5169 203c 1B68     		ldr	r3, [r3]
 5170 203e 019A     		ldr	r2, [sp, #4]
 5171 2040 1268     		ldr	r2, [r2]
 5172 2042 5268     		ldr	r2, [r2, #4]
 5173 2044 22F08002 		bic	r2, r2, #128
 5174 2048 5A60     		str	r2, [r3, #4]
 5175              		.loc 1 2320 0
 5176 204a 019B     		ldr	r3, [sp, #4]
 5177 204c B3F84630 		ldrh	r3, [r3, #70]
 5178 2050 002B     		cmp	r3, #0
 5179 2052 02D1     		bne	.L279
 5180              		.loc 1 2322 0
 5181 2054 0198     		ldr	r0, [sp, #4]
 5182 2056 00F08BFA 		bl	SPI_CloseRxTx_ISR
 5183              	.L279:
 5184              		.loc 1 2325 0
 5185 205a 03B0     		add	sp, sp, #12
 5186              		@ sp needed
 5187 205c 5DF804FB 		ldr	pc, [sp], #4
 5188              		.cfi_endproc
 5189              	.LFE163:
 5190              		.size	SPI_2linesTxISR_16BIT, .-SPI_2linesTxISR_16BIT
 5191              		.align	2
 5192              		.p2align 4,,15
 5193              		.thumb
 5194              		.thumb_func
 5195              		.type	SPI_RxISR_8BITCRC, %function
 5196              	SPI_RxISR_8BITCRC:
 5197              	.LFB164:
 5198              		.loc 1 2334 0
 5199              		.cfi_startproc
 5200              		@ args = 0, pretend = 0, frame = 16
 5201              		@ frame_needed = 0, uses_anonymous_args = 0
 5202 2060 00B5     		push	{lr}
 5203              		.cfi_def_cfa_offset 4
 5204              		.cfi_offset 14, -4
 5205 2062 85B0     		sub	sp, sp, #20
 5206              		.cfi_def_cfa_offset 24
 5207 2064 0190     		str	r0, [sp, #4]
 5208              		.loc 1 2335 0
 5209 2066 019B     		ldr	r3, [sp, #4]
ARM GAS  /tmp/cc34cfqS.s 			page 93


 5210 2068 1B68     		ldr	r3, [r3]
 5211 206a 0C33     		adds	r3, r3, #12
 5212 206c 1B78     		ldrb	r3, [r3]	@ zero_extendqisi2
 5213 206e 8DF80F30 		strb	r3, [sp, #15]
 5214              		.loc 1 2336 0
 5215 2072 9DF80F30 		ldrb	r3, [sp, #15]
 5216              		.loc 1 2338 0
 5217 2076 019B     		ldr	r3, [sp, #4]
 5218 2078 9B6C     		ldr	r3, [r3, #72]
 5219 207a 5A1E     		subs	r2, r3, #1
 5220 207c 019B     		ldr	r3, [sp, #4]
 5221 207e 9A64     		str	r2, [r3, #72]
 5222              		.loc 1 2340 0
 5223 2080 019B     		ldr	r3, [sp, #4]
 5224 2082 9B6C     		ldr	r3, [r3, #72]
 5225 2084 002B     		cmp	r3, #0
 5226 2086 02D1     		bne	.L282
 5227              		.loc 1 2342 0
 5228 2088 0198     		ldr	r0, [sp, #4]
 5229 208a 00F0C9FA 		bl	SPI_CloseRx_ISR
 5230              	.L282:
 5231              		.loc 1 2344 0
 5232 208e 05B0     		add	sp, sp, #20
 5233              		@ sp needed
 5234 2090 5DF804FB 		ldr	pc, [sp], #4
 5235              		.cfi_endproc
 5236              	.LFE164:
 5237              		.size	SPI_RxISR_8BITCRC, .-SPI_RxISR_8BITCRC
 5238              		.align	2
 5239 2094 AFF30080 		.p2align 4,,15
 5239      AFF30080 
 5239      AFF30080 
 5240              		.thumb
 5241              		.thumb_func
 5242              		.type	SPI_RxISR_8BIT, %function
 5243              	SPI_RxISR_8BIT:
 5244              	.LFB165:
 5245              		.loc 1 2353 0
 5246              		.cfi_startproc
 5247              		@ args = 0, pretend = 0, frame = 8
 5248              		@ frame_needed = 0, uses_anonymous_args = 0
 5249 20a0 00B5     		push	{lr}
 5250              		.cfi_def_cfa_offset 4
 5251              		.cfi_offset 14, -4
 5252 20a2 83B0     		sub	sp, sp, #12
 5253              		.cfi_def_cfa_offset 16
 5254 20a4 0190     		str	r0, [sp, #4]
 5255              		.loc 1 2354 0
 5256 20a6 019B     		ldr	r3, [sp, #4]
 5257 20a8 1B6C     		ldr	r3, [r3, #64]
 5258 20aa 591C     		adds	r1, r3, #1
 5259 20ac 019A     		ldr	r2, [sp, #4]
 5260 20ae 1164     		str	r1, [r2, #64]
 5261 20b0 019A     		ldr	r2, [sp, #4]
 5262 20b2 1268     		ldr	r2, [r2]
 5263 20b4 0C32     		adds	r2, r2, #12
 5264 20b6 1278     		ldrb	r2, [r2]
ARM GAS  /tmp/cc34cfqS.s 			page 94


 5265 20b8 D2B2     		uxtb	r2, r2
 5266 20ba 1A70     		strb	r2, [r3]
 5267              		.loc 1 2355 0
 5268 20bc 019B     		ldr	r3, [sp, #4]
 5269 20be B3F84630 		ldrh	r3, [r3, #70]
 5270 20c2 013B     		subs	r3, r3, #1
 5271 20c4 9AB2     		uxth	r2, r3
 5272 20c6 019B     		ldr	r3, [sp, #4]
 5273 20c8 A3F84620 		strh	r2, [r3, #70]	@ movhi
 5274              		.loc 1 2358 0
 5275 20cc 019B     		ldr	r3, [sp, #4]
 5276 20ce B3F84630 		ldrh	r3, [r3, #70]
 5277 20d2 012B     		cmp	r3, #1
 5278 20d4 0CD1     		bne	.L285
 5279              		.loc 1 2358 0 is_stmt 0 discriminator 1
 5280 20d6 019B     		ldr	r3, [sp, #4]
 5281 20d8 9B6A     		ldr	r3, [r3, #40]
 5282 20da B3F5005F 		cmp	r3, #8192
 5283 20de 07D1     		bne	.L285
 5284              		.loc 1 2360 0 is_stmt 1
 5285 20e0 019B     		ldr	r3, [sp, #4]
 5286 20e2 1B68     		ldr	r3, [r3]
 5287 20e4 019A     		ldr	r2, [sp, #4]
 5288 20e6 1268     		ldr	r2, [r2]
 5289 20e8 1268     		ldr	r2, [r2]
 5290 20ea 42F48052 		orr	r2, r2, #4096
 5291 20ee 1A60     		str	r2, [r3]
 5292              	.L285:
 5293              		.loc 1 2363 0
 5294 20f0 019B     		ldr	r3, [sp, #4]
 5295 20f2 B3F84630 		ldrh	r3, [r3, #70]
 5296 20f6 002B     		cmp	r3, #0
 5297 20f8 0BD1     		bne	.L284
 5298              		.loc 1 2365 0
 5299 20fa 019B     		ldr	r3, [sp, #4]
 5300 20fc 9B6A     		ldr	r3, [r3, #40]
 5301 20fe B3F5005F 		cmp	r3, #8192
 5302 2102 03D1     		bne	.L287
 5303              		.loc 1 2367 0
 5304 2104 019B     		ldr	r3, [sp, #4]
 5305 2106 044A     		ldr	r2, .L288
 5306 2108 DA64     		str	r2, [r3, #76]
 5307              		.loc 1 2368 0
 5308 210a 02E0     		b	.L284
 5309              	.L287:
 5310              		.loc 1 2370 0
 5311 210c 0198     		ldr	r0, [sp, #4]
 5312 210e 00F087FA 		bl	SPI_CloseRx_ISR
 5313              	.L284:
 5314              		.loc 1 2372 0
 5315 2112 03B0     		add	sp, sp, #12
 5316              		@ sp needed
 5317 2114 5DF804FB 		ldr	pc, [sp], #4
 5318              	.L289:
 5319              		.align	2
 5320              	.L288:
 5321 2118 00000000 		.word	SPI_RxISR_8BITCRC
ARM GAS  /tmp/cc34cfqS.s 			page 95


 5322              		.cfi_endproc
 5323              	.LFE165:
 5324              		.size	SPI_RxISR_8BIT, .-SPI_RxISR_8BIT
 5325              		.align	2
 5326 211c AFF30080 		.p2align 4,,15
 5327              		.thumb
 5328              		.thumb_func
 5329              		.type	SPI_RxISR_16BITCRC, %function
 5330              	SPI_RxISR_16BITCRC:
 5331              	.LFB166:
 5332              		.loc 1 2381 0
 5333              		.cfi_startproc
 5334              		@ args = 0, pretend = 0, frame = 16
 5335              		@ frame_needed = 0, uses_anonymous_args = 0
 5336 2120 00B5     		push	{lr}
 5337              		.cfi_def_cfa_offset 4
 5338              		.cfi_offset 14, -4
 5339 2122 85B0     		sub	sp, sp, #20
 5340              		.cfi_def_cfa_offset 24
 5341 2124 0190     		str	r0, [sp, #4]
 5342              		.loc 1 2384 0
 5343 2126 019B     		ldr	r3, [sp, #4]
 5344 2128 1B68     		ldr	r3, [r3]
 5345 212a DB68     		ldr	r3, [r3, #12]
 5346 212c 9BB2     		uxth	r3, r3
 5347 212e ADF80E30 		strh	r3, [sp, #14]	@ movhi
 5348              		.loc 1 2385 0
 5349 2132 BDF80E30 		ldrh	r3, [sp, #14]	@ movhi
 5350              		.loc 1 2388 0
 5351 2136 019B     		ldr	r3, [sp, #4]
 5352 2138 1B68     		ldr	r3, [r3]
 5353 213a 019A     		ldr	r2, [sp, #4]
 5354 213c 1268     		ldr	r2, [r2]
 5355 213e 5268     		ldr	r2, [r2, #4]
 5356 2140 22F06002 		bic	r2, r2, #96
 5357 2144 5A60     		str	r2, [r3, #4]
 5358              		.loc 1 2390 0
 5359 2146 0198     		ldr	r0, [sp, #4]
 5360 2148 00F06AFA 		bl	SPI_CloseRx_ISR
 5361              		.loc 1 2391 0
 5362 214c 05B0     		add	sp, sp, #20
 5363              		@ sp needed
 5364 214e 5DF804FB 		ldr	pc, [sp], #4
 5365              		.cfi_endproc
 5366              	.LFE166:
 5367              		.size	SPI_RxISR_16BITCRC, .-SPI_RxISR_16BITCRC
 5368 2152 00BF     		.align	2
 5369 2154 AFF30080 		.p2align 4,,15
 5369      AFF30080 
 5369      AFF30080 
 5370              		.thumb
 5371              		.thumb_func
 5372              		.type	SPI_RxISR_16BIT, %function
 5373              	SPI_RxISR_16BIT:
 5374              	.LFB167:
 5375              		.loc 1 2400 0
 5376              		.cfi_startproc
ARM GAS  /tmp/cc34cfqS.s 			page 96


 5377              		@ args = 0, pretend = 0, frame = 8
 5378              		@ frame_needed = 0, uses_anonymous_args = 0
 5379 2160 00B5     		push	{lr}
 5380              		.cfi_def_cfa_offset 4
 5381              		.cfi_offset 14, -4
 5382 2162 83B0     		sub	sp, sp, #12
 5383              		.cfi_def_cfa_offset 16
 5384 2164 0190     		str	r0, [sp, #4]
 5385              		.loc 1 2401 0
 5386 2166 019B     		ldr	r3, [sp, #4]
 5387 2168 1B6C     		ldr	r3, [r3, #64]
 5388 216a 019A     		ldr	r2, [sp, #4]
 5389 216c 1268     		ldr	r2, [r2]
 5390 216e D268     		ldr	r2, [r2, #12]
 5391 2170 92B2     		uxth	r2, r2
 5392 2172 1A80     		strh	r2, [r3]	@ movhi
 5393              		.loc 1 2402 0
 5394 2174 019B     		ldr	r3, [sp, #4]
 5395 2176 1B6C     		ldr	r3, [r3, #64]
 5396 2178 9A1C     		adds	r2, r3, #2
 5397 217a 019B     		ldr	r3, [sp, #4]
 5398 217c 1A64     		str	r2, [r3, #64]
 5399              		.loc 1 2403 0
 5400 217e 019B     		ldr	r3, [sp, #4]
 5401 2180 B3F84630 		ldrh	r3, [r3, #70]
 5402 2184 013B     		subs	r3, r3, #1
 5403 2186 9AB2     		uxth	r2, r3
 5404 2188 019B     		ldr	r3, [sp, #4]
 5405 218a A3F84620 		strh	r2, [r3, #70]	@ movhi
 5406              		.loc 1 2406 0
 5407 218e 019B     		ldr	r3, [sp, #4]
 5408 2190 B3F84630 		ldrh	r3, [r3, #70]
 5409 2194 012B     		cmp	r3, #1
 5410 2196 0CD1     		bne	.L292
 5411              		.loc 1 2406 0 is_stmt 0 discriminator 1
 5412 2198 019B     		ldr	r3, [sp, #4]
 5413 219a 9B6A     		ldr	r3, [r3, #40]
 5414 219c B3F5005F 		cmp	r3, #8192
 5415 21a0 07D1     		bne	.L292
 5416              		.loc 1 2408 0 is_stmt 1
 5417 21a2 019B     		ldr	r3, [sp, #4]
 5418 21a4 1B68     		ldr	r3, [r3]
 5419 21a6 019A     		ldr	r2, [sp, #4]
 5420 21a8 1268     		ldr	r2, [r2]
 5421 21aa 1268     		ldr	r2, [r2]
 5422 21ac 42F48052 		orr	r2, r2, #4096
 5423 21b0 1A60     		str	r2, [r3]
 5424              	.L292:
 5425              		.loc 1 2411 0
 5426 21b2 019B     		ldr	r3, [sp, #4]
 5427 21b4 B3F84630 		ldrh	r3, [r3, #70]
 5428 21b8 002B     		cmp	r3, #0
 5429 21ba 0BD1     		bne	.L291
 5430              		.loc 1 2413 0
 5431 21bc 019B     		ldr	r3, [sp, #4]
 5432 21be 9B6A     		ldr	r3, [r3, #40]
 5433 21c0 B3F5005F 		cmp	r3, #8192
ARM GAS  /tmp/cc34cfqS.s 			page 97


 5434 21c4 03D1     		bne	.L294
 5435              		.loc 1 2415 0
 5436 21c6 019B     		ldr	r3, [sp, #4]
 5437 21c8 044A     		ldr	r2, .L295
 5438 21ca DA64     		str	r2, [r3, #76]
 5439              		.loc 1 2416 0
 5440 21cc 02E0     		b	.L291
 5441              	.L294:
 5442              		.loc 1 2418 0
 5443 21ce 0198     		ldr	r0, [sp, #4]
 5444 21d0 00F026FA 		bl	SPI_CloseRx_ISR
 5445              	.L291:
 5446              		.loc 1 2420 0
 5447 21d4 03B0     		add	sp, sp, #12
 5448              		@ sp needed
 5449 21d6 5DF804FB 		ldr	pc, [sp], #4
 5450              	.L296:
 5451 21da 00BF     		.align	2
 5452              	.L295:
 5453 21dc 00000000 		.word	SPI_RxISR_16BITCRC
 5454              		.cfi_endproc
 5455              	.LFE167:
 5456              		.size	SPI_RxISR_16BIT, .-SPI_RxISR_16BIT
 5457              		.align	2
 5458              		.p2align 4,,15
 5459              		.thumb
 5460              		.thumb_func
 5461              		.type	SPI_TxISR_8BIT, %function
 5462              	SPI_TxISR_8BIT:
 5463              	.LFB168:
 5464              		.loc 1 2429 0
 5465              		.cfi_startproc
 5466              		@ args = 0, pretend = 0, frame = 8
 5467              		@ frame_needed = 0, uses_anonymous_args = 0
 5468 21e0 00B5     		push	{lr}
 5469              		.cfi_def_cfa_offset 4
 5470              		.cfi_offset 14, -4
 5471 21e2 83B0     		sub	sp, sp, #12
 5472              		.cfi_def_cfa_offset 16
 5473 21e4 0190     		str	r0, [sp, #4]
 5474              		.loc 1 2430 0
 5475 21e6 019B     		ldr	r3, [sp, #4]
 5476 21e8 1B68     		ldr	r3, [r3]
 5477 21ea 03F10C02 		add	r2, r3, #12
 5478 21ee 019B     		ldr	r3, [sp, #4]
 5479 21f0 9B6B     		ldr	r3, [r3, #56]
 5480 21f2 581C     		adds	r0, r3, #1
 5481 21f4 0199     		ldr	r1, [sp, #4]
 5482 21f6 8863     		str	r0, [r1, #56]
 5483 21f8 1B78     		ldrb	r3, [r3]	@ zero_extendqisi2
 5484 21fa 1370     		strb	r3, [r2]
 5485              		.loc 1 2431 0
 5486 21fc 019B     		ldr	r3, [sp, #4]
 5487 21fe DB8F     		ldrh	r3, [r3, #62]
 5488 2200 013B     		subs	r3, r3, #1
 5489 2202 9AB2     		uxth	r2, r3
 5490 2204 019B     		ldr	r3, [sp, #4]
ARM GAS  /tmp/cc34cfqS.s 			page 98


 5491 2206 DA87     		strh	r2, [r3, #62]	@ movhi
 5492              		.loc 1 2433 0
 5493 2208 019B     		ldr	r3, [sp, #4]
 5494 220a DB8F     		ldrh	r3, [r3, #62]
 5495 220c 002B     		cmp	r3, #0
 5496 220e 0FD1     		bne	.L297
 5497              		.loc 1 2435 0
 5498 2210 019B     		ldr	r3, [sp, #4]
 5499 2212 9B6A     		ldr	r3, [r3, #40]
 5500 2214 B3F5005F 		cmp	r3, #8192
 5501 2218 07D1     		bne	.L299
 5502              		.loc 1 2438 0
 5503 221a 019B     		ldr	r3, [sp, #4]
 5504 221c 1B68     		ldr	r3, [r3]
 5505 221e 019A     		ldr	r2, [sp, #4]
 5506 2220 1268     		ldr	r2, [r2]
 5507 2222 1268     		ldr	r2, [r2]
 5508 2224 42F48052 		orr	r2, r2, #4096
 5509 2228 1A60     		str	r2, [r3]
 5510              	.L299:
 5511              		.loc 1 2441 0
 5512 222a 0198     		ldr	r0, [sp, #4]
 5513 222c 00F038FA 		bl	SPI_CloseTx_ISR
 5514              	.L297:
 5515              		.loc 1 2443 0
 5516 2230 03B0     		add	sp, sp, #12
 5517              		@ sp needed
 5518 2232 5DF804FB 		ldr	pc, [sp], #4
 5519              		.cfi_endproc
 5520              	.LFE168:
 5521              		.size	SPI_TxISR_8BIT, .-SPI_TxISR_8BIT
 5522 2236 00BF     		.align	2
 5523 2238 AFF30080 		.p2align 4,,15
 5523      AFF30080 
 5524              		.thumb
 5525              		.thumb_func
 5526              		.type	SPI_TxISR_16BIT, %function
 5527              	SPI_TxISR_16BIT:
 5528              	.LFB169:
 5529              		.loc 1 2452 0
 5530              		.cfi_startproc
 5531              		@ args = 0, pretend = 0, frame = 8
 5532              		@ frame_needed = 0, uses_anonymous_args = 0
 5533 2240 00B5     		push	{lr}
 5534              		.cfi_def_cfa_offset 4
 5535              		.cfi_offset 14, -4
 5536 2242 83B0     		sub	sp, sp, #12
 5537              		.cfi_def_cfa_offset 16
 5538 2244 0190     		str	r0, [sp, #4]
 5539              		.loc 1 2454 0
 5540 2246 019B     		ldr	r3, [sp, #4]
 5541 2248 1B68     		ldr	r3, [r3]
 5542 224a 019A     		ldr	r2, [sp, #4]
 5543 224c 926B     		ldr	r2, [r2, #56]
 5544 224e 1288     		ldrh	r2, [r2]
 5545 2250 DA60     		str	r2, [r3, #12]
 5546              		.loc 1 2455 0
ARM GAS  /tmp/cc34cfqS.s 			page 99


 5547 2252 019B     		ldr	r3, [sp, #4]
 5548 2254 9B6B     		ldr	r3, [r3, #56]
 5549 2256 9A1C     		adds	r2, r3, #2
 5550 2258 019B     		ldr	r3, [sp, #4]
 5551 225a 9A63     		str	r2, [r3, #56]
 5552              		.loc 1 2456 0
 5553 225c 019B     		ldr	r3, [sp, #4]
 5554 225e DB8F     		ldrh	r3, [r3, #62]
 5555 2260 013B     		subs	r3, r3, #1
 5556 2262 9AB2     		uxth	r2, r3
 5557 2264 019B     		ldr	r3, [sp, #4]
 5558 2266 DA87     		strh	r2, [r3, #62]	@ movhi
 5559              		.loc 1 2458 0
 5560 2268 019B     		ldr	r3, [sp, #4]
 5561 226a DB8F     		ldrh	r3, [r3, #62]
 5562 226c 002B     		cmp	r3, #0
 5563 226e 0FD1     		bne	.L300
 5564              		.loc 1 2460 0
 5565 2270 019B     		ldr	r3, [sp, #4]
 5566 2272 9B6A     		ldr	r3, [r3, #40]
 5567 2274 B3F5005F 		cmp	r3, #8192
 5568 2278 07D1     		bne	.L302
 5569              		.loc 1 2463 0
 5570 227a 019B     		ldr	r3, [sp, #4]
 5571 227c 1B68     		ldr	r3, [r3]
 5572 227e 019A     		ldr	r2, [sp, #4]
 5573 2280 1268     		ldr	r2, [r2]
 5574 2282 1268     		ldr	r2, [r2]
 5575 2284 42F48052 		orr	r2, r2, #4096
 5576 2288 1A60     		str	r2, [r3]
 5577              	.L302:
 5578              		.loc 1 2465 0
 5579 228a 0198     		ldr	r0, [sp, #4]
 5580 228c 00F008FA 		bl	SPI_CloseTx_ISR
 5581              	.L300:
 5582              		.loc 1 2467 0
 5583 2290 03B0     		add	sp, sp, #12
 5584              		@ sp needed
 5585 2292 5DF804FB 		ldr	pc, [sp], #4
 5586              		.cfi_endproc
 5587              	.LFE169:
 5588              		.size	SPI_TxISR_16BIT, .-SPI_TxISR_16BIT
 5589 2296 00BF     		.align	2
 5590 2298 AFF30080 		.p2align 4,,15
 5590      AFF30080 
 5591              		.thumb
 5592              		.thumb_func
 5593              		.type	SPI_WaitFlagStateUntilTimeout, %function
 5594              	SPI_WaitFlagStateUntilTimeout:
 5595              	.LFB170:
 5596              		.loc 1 2479 0
 5597              		.cfi_startproc
 5598              		@ args = 0, pretend = 0, frame = 24
 5599              		@ frame_needed = 0, uses_anonymous_args = 0
 5600 22a0 00B5     		push	{lr}
 5601              		.cfi_def_cfa_offset 4
 5602              		.cfi_offset 14, -4
ARM GAS  /tmp/cc34cfqS.s 			page 100


 5603 22a2 87B0     		sub	sp, sp, #28
 5604              		.cfi_def_cfa_offset 32
 5605 22a4 0390     		str	r0, [sp, #12]
 5606 22a6 0291     		str	r1, [sp, #8]
 5607 22a8 0192     		str	r2, [sp, #4]
 5608 22aa 0093     		str	r3, [sp]
 5609              		.loc 1 2480 0
 5610 22ac FFF7FEFF 		bl	HAL_GetTick
 5611 22b0 0590     		str	r0, [sp, #20]
 5612              		.loc 1 2482 0
 5613 22b2 4DE0     		b	.L304
 5614              	.L310:
 5615              		.loc 1 2484 0
 5616 22b4 009B     		ldr	r3, [sp]
 5617 22b6 B3F1FF3F 		cmp	r3, #-1
 5618 22ba 49D0     		beq	.L304
 5619              		.loc 1 2486 0
 5620 22bc 009B     		ldr	r3, [sp]
 5621 22be 002B     		cmp	r3, #0
 5622 22c0 07D0     		beq	.L305
 5623              		.loc 1 2486 0 is_stmt 0 discriminator 1
 5624 22c2 FFF7FEFF 		bl	HAL_GetTick
 5625 22c6 0246     		mov	r2, r0
 5626 22c8 059B     		ldr	r3, [sp, #20]
 5627 22ca D21A     		subs	r2, r2, r3
 5628 22cc 009B     		ldr	r3, [sp]
 5629 22ce 9A42     		cmp	r2, r3
 5630 22d0 3ED3     		bcc	.L304
 5631              	.L305:
 5632              		.loc 1 2493 0 is_stmt 1
 5633 22d2 039B     		ldr	r3, [sp, #12]
 5634 22d4 1B68     		ldr	r3, [r3]
 5635 22d6 039A     		ldr	r2, [sp, #12]
 5636 22d8 1268     		ldr	r2, [r2]
 5637 22da 5268     		ldr	r2, [r2, #4]
 5638 22dc 22F0E002 		bic	r2, r2, #224
 5639 22e0 5A60     		str	r2, [r3, #4]
 5640              		.loc 1 2495 0
 5641 22e2 039B     		ldr	r3, [sp, #12]
 5642 22e4 5B68     		ldr	r3, [r3, #4]
 5643 22e6 B3F5827F 		cmp	r3, #260
 5644 22ea 11D1     		bne	.L306
 5645              		.loc 1 2495 0 is_stmt 0 discriminator 1
 5646 22ec 039B     		ldr	r3, [sp, #12]
 5647 22ee 9B68     		ldr	r3, [r3, #8]
 5648 22f0 B3F5004F 		cmp	r3, #32768
 5649 22f4 04D0     		beq	.L307
 5650 22f6 039B     		ldr	r3, [sp, #12]
 5651 22f8 9B68     		ldr	r3, [r3, #8]
 5652 22fa B3F5806F 		cmp	r3, #1024
 5653 22fe 07D1     		bne	.L306
 5654              	.L307:
 5655              		.loc 1 2498 0 is_stmt 1
 5656 2300 039B     		ldr	r3, [sp, #12]
 5657 2302 1B68     		ldr	r3, [r3]
 5658 2304 039A     		ldr	r2, [sp, #12]
 5659 2306 1268     		ldr	r2, [r2]
ARM GAS  /tmp/cc34cfqS.s 			page 101


 5660 2308 1268     		ldr	r2, [r2]
 5661 230a 22F04002 		bic	r2, r2, #64
 5662 230e 1A60     		str	r2, [r3]
 5663              	.L306:
 5664              		.loc 1 2502 0
 5665 2310 039B     		ldr	r3, [sp, #12]
 5666 2312 9B6A     		ldr	r3, [r3, #40]
 5667 2314 B3F5005F 		cmp	r3, #8192
 5668 2318 10D1     		bne	.L308
 5669              		.loc 1 2504 0
 5670 231a 039B     		ldr	r3, [sp, #12]
 5671 231c 1A68     		ldr	r2, [r3]
 5672 231e 039B     		ldr	r3, [sp, #12]
 5673 2320 1B68     		ldr	r3, [r3]
 5674 2322 1968     		ldr	r1, [r3]
 5675 2324 4DF6FF73 		movw	r3, #57343
 5676 2328 0B40     		ands	r3, r3, r1
 5677 232a 1360     		str	r3, [r2]
 5678 232c 039B     		ldr	r3, [sp, #12]
 5679 232e 1B68     		ldr	r3, [r3]
 5680 2330 039A     		ldr	r2, [sp, #12]
 5681 2332 1268     		ldr	r2, [r2]
 5682 2334 1268     		ldr	r2, [r2]
 5683 2336 42F40052 		orr	r2, r2, #8192
 5684 233a 1A60     		str	r2, [r3]
 5685              	.L308:
 5686              		.loc 1 2507 0
 5687 233c 039B     		ldr	r3, [sp, #12]
 5688 233e 0122     		movs	r2, #1
 5689 2340 83F85D20 		strb	r2, [r3, #93]
 5690              		.loc 1 2510 0
 5691 2344 039B     		ldr	r3, [sp, #12]
 5692 2346 0022     		movs	r2, #0
 5693 2348 83F85C20 		strb	r2, [r3, #92]
 5694              		.loc 1 2512 0
 5695 234c 0323     		movs	r3, #3
 5696 234e 08E0     		b	.L309
 5697              	.L304:
 5698              		.loc 1 2482 0 discriminator 1
 5699 2350 039B     		ldr	r3, [sp, #12]
 5700 2352 1B68     		ldr	r3, [r3]
 5701 2354 9A68     		ldr	r2, [r3, #8]
 5702 2356 029B     		ldr	r3, [sp, #8]
 5703 2358 1A40     		ands	r2, r2, r3
 5704 235a 019B     		ldr	r3, [sp, #4]
 5705 235c 9A42     		cmp	r2, r3
 5706 235e A9D1     		bne	.L310
 5707              		.loc 1 2517 0
 5708 2360 0023     		movs	r3, #0
 5709              	.L309:
 5710              		.loc 1 2518 0
 5711 2362 1846     		mov	r0, r3
 5712 2364 07B0     		add	sp, sp, #28
 5713              		@ sp needed
 5714 2366 5DF804FB 		ldr	pc, [sp], #4
 5715              		.cfi_endproc
 5716              	.LFE170:
ARM GAS  /tmp/cc34cfqS.s 			page 102


 5717              		.size	SPI_WaitFlagStateUntilTimeout, .-SPI_WaitFlagStateUntilTimeout
 5718 236a 00BF     		.align	2
 5719 236c AFF30080 		.p2align 4,,15
 5720              		.thumb
 5721              		.thumb_func
 5722              		.type	SPI_WaitFifoStateUntilTimeout, %function
 5723              	SPI_WaitFifoStateUntilTimeout:
 5724              	.LFB171:
 5725              		.loc 1 2530 0
 5726              		.cfi_startproc
 5727              		@ args = 0, pretend = 0, frame = 24
 5728              		@ frame_needed = 0, uses_anonymous_args = 0
 5729 2370 00B5     		push	{lr}
 5730              		.cfi_def_cfa_offset 4
 5731              		.cfi_offset 14, -4
 5732 2372 87B0     		sub	sp, sp, #28
 5733              		.cfi_def_cfa_offset 32
 5734 2374 0390     		str	r0, [sp, #12]
 5735 2376 0291     		str	r1, [sp, #8]
 5736 2378 0192     		str	r2, [sp, #4]
 5737 237a 0093     		str	r3, [sp]
 5738              		.loc 1 2532 0
 5739 237c FFF7FEFF 		bl	HAL_GetTick
 5740 2380 0590     		str	r0, [sp, #20]
 5741              		.loc 1 2534 0
 5742 2382 5DE0     		b	.L312
 5743              	.L319:
 5744              		.loc 1 2536 0
 5745 2384 029B     		ldr	r3, [sp, #8]
 5746 2386 B3F5C06F 		cmp	r3, #1536
 5747 238a 0BD1     		bne	.L313
 5748              		.loc 1 2536 0 is_stmt 0 discriminator 1
 5749 238c 019B     		ldr	r3, [sp, #4]
 5750 238e 002B     		cmp	r3, #0
 5751 2390 08D1     		bne	.L313
 5752              		.loc 1 2538 0 is_stmt 1
 5753 2392 039B     		ldr	r3, [sp, #12]
 5754 2394 1B68     		ldr	r3, [r3]
 5755 2396 0C33     		adds	r3, r3, #12
 5756 2398 1B78     		ldrb	r3, [r3]
 5757 239a DBB2     		uxtb	r3, r3
 5758 239c 8DF81330 		strb	r3, [sp, #19]
 5759              		.loc 1 2539 0
 5760 23a0 9DF81330 		ldrb	r3, [sp, #19]
 5761              	.L313:
 5762              		.loc 1 2542 0
 5763 23a4 009B     		ldr	r3, [sp]
 5764 23a6 B3F1FF3F 		cmp	r3, #-1
 5765 23aa 49D0     		beq	.L312
 5766              		.loc 1 2544 0
 5767 23ac 009B     		ldr	r3, [sp]
 5768 23ae 002B     		cmp	r3, #0
 5769 23b0 07D0     		beq	.L314
 5770              		.loc 1 2544 0 is_stmt 0 discriminator 1
 5771 23b2 FFF7FEFF 		bl	HAL_GetTick
 5772 23b6 0246     		mov	r2, r0
 5773 23b8 059B     		ldr	r3, [sp, #20]
ARM GAS  /tmp/cc34cfqS.s 			page 103


 5774 23ba D21A     		subs	r2, r2, r3
 5775 23bc 009B     		ldr	r3, [sp]
 5776 23be 9A42     		cmp	r2, r3
 5777 23c0 3ED3     		bcc	.L312
 5778              	.L314:
 5779              		.loc 1 2551 0 is_stmt 1
 5780 23c2 039B     		ldr	r3, [sp, #12]
 5781 23c4 1B68     		ldr	r3, [r3]
 5782 23c6 039A     		ldr	r2, [sp, #12]
 5783 23c8 1268     		ldr	r2, [r2]
 5784 23ca 5268     		ldr	r2, [r2, #4]
 5785 23cc 22F0E002 		bic	r2, r2, #224
 5786 23d0 5A60     		str	r2, [r3, #4]
 5787              		.loc 1 2553 0
 5788 23d2 039B     		ldr	r3, [sp, #12]
 5789 23d4 5B68     		ldr	r3, [r3, #4]
 5790 23d6 B3F5827F 		cmp	r3, #260
 5791 23da 11D1     		bne	.L315
 5792              		.loc 1 2553 0 is_stmt 0 discriminator 1
 5793 23dc 039B     		ldr	r3, [sp, #12]
 5794 23de 9B68     		ldr	r3, [r3, #8]
 5795 23e0 B3F5004F 		cmp	r3, #32768
 5796 23e4 04D0     		beq	.L316
 5797 23e6 039B     		ldr	r3, [sp, #12]
 5798 23e8 9B68     		ldr	r3, [r3, #8]
 5799 23ea B3F5806F 		cmp	r3, #1024
 5800 23ee 07D1     		bne	.L315
 5801              	.L316:
 5802              		.loc 1 2556 0 is_stmt 1
 5803 23f0 039B     		ldr	r3, [sp, #12]
 5804 23f2 1B68     		ldr	r3, [r3]
 5805 23f4 039A     		ldr	r2, [sp, #12]
 5806 23f6 1268     		ldr	r2, [r2]
 5807 23f8 1268     		ldr	r2, [r2]
 5808 23fa 22F04002 		bic	r2, r2, #64
 5809 23fe 1A60     		str	r2, [r3]
 5810              	.L315:
 5811              		.loc 1 2560 0
 5812 2400 039B     		ldr	r3, [sp, #12]
 5813 2402 9B6A     		ldr	r3, [r3, #40]
 5814 2404 B3F5005F 		cmp	r3, #8192
 5815 2408 10D1     		bne	.L317
 5816              		.loc 1 2562 0
 5817 240a 039B     		ldr	r3, [sp, #12]
 5818 240c 1A68     		ldr	r2, [r3]
 5819 240e 039B     		ldr	r3, [sp, #12]
 5820 2410 1B68     		ldr	r3, [r3]
 5821 2412 1968     		ldr	r1, [r3]
 5822 2414 4DF6FF73 		movw	r3, #57343
 5823 2418 0B40     		ands	r3, r3, r1
 5824 241a 1360     		str	r3, [r2]
 5825 241c 039B     		ldr	r3, [sp, #12]
 5826 241e 1B68     		ldr	r3, [r3]
 5827 2420 039A     		ldr	r2, [sp, #12]
 5828 2422 1268     		ldr	r2, [r2]
 5829 2424 1268     		ldr	r2, [r2]
 5830 2426 42F40052 		orr	r2, r2, #8192
ARM GAS  /tmp/cc34cfqS.s 			page 104


 5831 242a 1A60     		str	r2, [r3]
 5832              	.L317:
 5833              		.loc 1 2565 0
 5834 242c 039B     		ldr	r3, [sp, #12]
 5835 242e 0122     		movs	r2, #1
 5836 2430 83F85D20 		strb	r2, [r3, #93]
 5837              		.loc 1 2568 0
 5838 2434 039B     		ldr	r3, [sp, #12]
 5839 2436 0022     		movs	r2, #0
 5840 2438 83F85C20 		strb	r2, [r3, #92]
 5841              		.loc 1 2570 0
 5842 243c 0323     		movs	r3, #3
 5843 243e 08E0     		b	.L318
 5844              	.L312:
 5845              		.loc 1 2534 0 discriminator 1
 5846 2440 039B     		ldr	r3, [sp, #12]
 5847 2442 1B68     		ldr	r3, [r3]
 5848 2444 9A68     		ldr	r2, [r3, #8]
 5849 2446 029B     		ldr	r3, [sp, #8]
 5850 2448 1A40     		ands	r2, r2, r3
 5851 244a 019B     		ldr	r3, [sp, #4]
 5852 244c 9A42     		cmp	r2, r3
 5853 244e 99D1     		bne	.L319
 5854              		.loc 1 2575 0
 5855 2450 0023     		movs	r3, #0
 5856              	.L318:
 5857              		.loc 1 2576 0
 5858 2452 1846     		mov	r0, r3
 5859 2454 07B0     		add	sp, sp, #28
 5860              		@ sp needed
 5861 2456 5DF804FB 		ldr	pc, [sp], #4
 5862              		.cfi_endproc
 5863              	.LFE171:
 5864              		.size	SPI_WaitFifoStateUntilTimeout, .-SPI_WaitFifoStateUntilTimeout
 5865 245a 00BF     		.align	2
 5866 245c AFF30080 		.p2align 4,,15
 5867              		.thumb
 5868              		.thumb_func
 5869              		.type	SPI_EndRxTransaction, %function
 5870              	SPI_EndRxTransaction:
 5871              	.LFB172:
 5872              		.loc 1 2586 0
 5873              		.cfi_startproc
 5874              		@ args = 0, pretend = 0, frame = 8
 5875              		@ frame_needed = 0, uses_anonymous_args = 0
 5876 2460 00B5     		push	{lr}
 5877              		.cfi_def_cfa_offset 4
 5878              		.cfi_offset 14, -4
 5879 2462 83B0     		sub	sp, sp, #12
 5880              		.cfi_def_cfa_offset 16
 5881 2464 0190     		str	r0, [sp, #4]
 5882 2466 0091     		str	r1, [sp]
 5883              		.loc 1 2587 0
 5884 2468 019B     		ldr	r3, [sp, #4]
 5885 246a 5B68     		ldr	r3, [r3, #4]
 5886 246c B3F5827F 		cmp	r3, #260
 5887 2470 11D1     		bne	.L321
ARM GAS  /tmp/cc34cfqS.s 			page 105


 5888              		.loc 1 2587 0 is_stmt 0 discriminator 1
 5889 2472 019B     		ldr	r3, [sp, #4]
 5890 2474 9B68     		ldr	r3, [r3, #8]
 5891 2476 B3F5004F 		cmp	r3, #32768
 5892 247a 04D0     		beq	.L322
 5893 247c 019B     		ldr	r3, [sp, #4]
 5894 247e 9B68     		ldr	r3, [r3, #8]
 5895 2480 B3F5806F 		cmp	r3, #1024
 5896 2484 07D1     		bne	.L321
 5897              	.L322:
 5898              		.loc 1 2590 0 is_stmt 1
 5899 2486 019B     		ldr	r3, [sp, #4]
 5900 2488 1B68     		ldr	r3, [r3]
 5901 248a 019A     		ldr	r2, [sp, #4]
 5902 248c 1268     		ldr	r2, [r2]
 5903 248e 1268     		ldr	r2, [r2]
 5904 2490 22F04002 		bic	r2, r2, #64
 5905 2494 1A60     		str	r2, [r3]
 5906              	.L321:
 5907              		.loc 1 2594 0
 5908 2496 0198     		ldr	r0, [sp, #4]
 5909 2498 8021     		movs	r1, #128
 5910 249a 0022     		movs	r2, #0
 5911 249c 009B     		ldr	r3, [sp]
 5912 249e FFF7FFFE 		bl	SPI_WaitFlagStateUntilTimeout
 5913 24a2 0346     		mov	r3, r0
 5914 24a4 002B     		cmp	r3, #0
 5915 24a6 07D0     		beq	.L323
 5916              		.loc 1 2596 0
 5917 24a8 019B     		ldr	r3, [sp, #4]
 5918 24aa 1B6E     		ldr	r3, [r3, #96]
 5919 24ac 43F02002 		orr	r2, r3, #32
 5920 24b0 019B     		ldr	r3, [sp, #4]
 5921 24b2 1A66     		str	r2, [r3, #96]
 5922              		.loc 1 2597 0
 5923 24b4 0323     		movs	r3, #3
 5924 24b6 21E0     		b	.L324
 5925              	.L323:
 5926              		.loc 1 2600 0
 5927 24b8 019B     		ldr	r3, [sp, #4]
 5928 24ba 5B68     		ldr	r3, [r3, #4]
 5929 24bc B3F5827F 		cmp	r3, #260
 5930 24c0 1BD1     		bne	.L325
 5931              		.loc 1 2600 0 is_stmt 0 discriminator 1
 5932 24c2 019B     		ldr	r3, [sp, #4]
 5933 24c4 9B68     		ldr	r3, [r3, #8]
 5934 24c6 B3F5004F 		cmp	r3, #32768
 5935 24ca 04D0     		beq	.L326
 5936 24cc 019B     		ldr	r3, [sp, #4]
 5937 24ce 9B68     		ldr	r3, [r3, #8]
 5938 24d0 B3F5806F 		cmp	r3, #1024
 5939 24d4 11D1     		bne	.L325
 5940              	.L326:
 5941              		.loc 1 2603 0 is_stmt 1
 5942 24d6 0198     		ldr	r0, [sp, #4]
 5943 24d8 4FF4C061 		mov	r1, #1536
 5944 24dc 0022     		movs	r2, #0
ARM GAS  /tmp/cc34cfqS.s 			page 106


 5945 24de 009B     		ldr	r3, [sp]
 5946 24e0 FFF746FF 		bl	SPI_WaitFifoStateUntilTimeout
 5947 24e4 0346     		mov	r3, r0
 5948 24e6 002B     		cmp	r3, #0
 5949 24e8 07D0     		beq	.L325
 5950              		.loc 1 2605 0
 5951 24ea 019B     		ldr	r3, [sp, #4]
 5952 24ec 1B6E     		ldr	r3, [r3, #96]
 5953 24ee 43F02002 		orr	r2, r3, #32
 5954 24f2 019B     		ldr	r3, [sp, #4]
 5955 24f4 1A66     		str	r2, [r3, #96]
 5956              		.loc 1 2606 0
 5957 24f6 0323     		movs	r3, #3
 5958 24f8 00E0     		b	.L324
 5959              	.L325:
 5960              		.loc 1 2609 0
 5961 24fa 0023     		movs	r3, #0
 5962              	.L324:
 5963              		.loc 1 2610 0
 5964 24fc 1846     		mov	r0, r3
 5965 24fe 03B0     		add	sp, sp, #12
 5966              		@ sp needed
 5967 2500 5DF804FB 		ldr	pc, [sp], #4
 5968              		.cfi_endproc
 5969              	.LFE172:
 5970              		.size	SPI_EndRxTransaction, .-SPI_EndRxTransaction
 5971              		.align	2
 5972 2504 AFF30080 		.p2align 4,,15
 5972      AFF30080 
 5972      AFF30080 
 5973              		.thumb
 5974              		.thumb_func
 5975              		.type	SPI_EndRxTxTransaction, %function
 5976              	SPI_EndRxTxTransaction:
 5977              	.LFB173:
 5978              		.loc 1 2618 0
 5979              		.cfi_startproc
 5980              		@ args = 0, pretend = 0, frame = 8
 5981              		@ frame_needed = 0, uses_anonymous_args = 0
 5982 2510 00B5     		push	{lr}
 5983              		.cfi_def_cfa_offset 4
 5984              		.cfi_offset 14, -4
 5985 2512 83B0     		sub	sp, sp, #12
 5986              		.cfi_def_cfa_offset 16
 5987 2514 0190     		str	r0, [sp, #4]
 5988 2516 0091     		str	r1, [sp]
 5989              		.loc 1 2620 0
 5990 2518 0198     		ldr	r0, [sp, #4]
 5991 251a 4FF4C051 		mov	r1, #6144
 5992 251e 0022     		movs	r2, #0
 5993 2520 009B     		ldr	r3, [sp]
 5994 2522 FFF725FF 		bl	SPI_WaitFifoStateUntilTimeout
 5995 2526 0346     		mov	r3, r0
 5996 2528 002B     		cmp	r3, #0
 5997 252a 07D0     		beq	.L328
 5998              		.loc 1 2622 0
 5999 252c 019B     		ldr	r3, [sp, #4]
ARM GAS  /tmp/cc34cfqS.s 			page 107


 6000 252e 1B6E     		ldr	r3, [r3, #96]
 6001 2530 43F02002 		orr	r2, r3, #32
 6002 2534 019B     		ldr	r3, [sp, #4]
 6003 2536 1A66     		str	r2, [r3, #96]
 6004              		.loc 1 2623 0
 6005 2538 0323     		movs	r3, #3
 6006 253a 11E0     		b	.L329
 6007              	.L328:
 6008              		.loc 1 2626 0
 6009 253c 0198     		ldr	r0, [sp, #4]
 6010 253e 8021     		movs	r1, #128
 6011 2540 0022     		movs	r2, #0
 6012 2542 009B     		ldr	r3, [sp]
 6013 2544 FFF7ACFE 		bl	SPI_WaitFlagStateUntilTimeout
 6014 2548 0346     		mov	r3, r0
 6015 254a 002B     		cmp	r3, #0
 6016 254c 07D0     		beq	.L330
 6017              		.loc 1 2628 0
 6018 254e 019B     		ldr	r3, [sp, #4]
 6019 2550 1B6E     		ldr	r3, [r3, #96]
 6020 2552 43F02002 		orr	r2, r3, #32
 6021 2556 019B     		ldr	r3, [sp, #4]
 6022 2558 1A66     		str	r2, [r3, #96]
 6023              		.loc 1 2629 0
 6024 255a 0323     		movs	r3, #3
 6025 255c 00E0     		b	.L329
 6026              	.L330:
 6027              		.loc 1 2631 0
 6028 255e 0023     		movs	r3, #0
 6029              	.L329:
 6030              		.loc 1 2632 0
 6031 2560 1846     		mov	r0, r3
 6032 2562 03B0     		add	sp, sp, #12
 6033              		@ sp needed
 6034 2564 5DF804FB 		ldr	pc, [sp], #4
 6035              		.cfi_endproc
 6036              	.LFE173:
 6037              		.size	SPI_EndRxTxTransaction, .-SPI_EndRxTxTransaction
 6038              		.align	2
 6039 2568 AFF30080 		.p2align 4,,15
 6039      AFF30080 
 6040              		.thumb
 6041              		.thumb_func
 6042              		.type	SPI_CloseRxTx_ISR, %function
 6043              	SPI_CloseRxTx_ISR:
 6044              	.LFB174:
 6045              		.loc 1 2641 0
 6046              		.cfi_startproc
 6047              		@ args = 0, pretend = 0, frame = 8
 6048              		@ frame_needed = 0, uses_anonymous_args = 0
 6049 2570 00B5     		push	{lr}
 6050              		.cfi_def_cfa_offset 4
 6051              		.cfi_offset 14, -4
 6052 2572 83B0     		sub	sp, sp, #12
 6053              		.cfi_def_cfa_offset 16
 6054 2574 0190     		str	r0, [sp, #4]
 6055              		.loc 1 2643 0
ARM GAS  /tmp/cc34cfqS.s 			page 108


 6056 2576 019B     		ldr	r3, [sp, #4]
 6057 2578 1B68     		ldr	r3, [r3]
 6058 257a 019A     		ldr	r2, [sp, #4]
 6059 257c 1268     		ldr	r2, [r2]
 6060 257e 5268     		ldr	r2, [r2, #4]
 6061 2580 22F02002 		bic	r2, r2, #32
 6062 2584 5A60     		str	r2, [r3, #4]
 6063              		.loc 1 2646 0
 6064 2586 0198     		ldr	r0, [sp, #4]
 6065 2588 3221     		movs	r1, #50
 6066 258a FFF7C1FF 		bl	SPI_EndRxTxTransaction
 6067 258e 0346     		mov	r3, r0
 6068 2590 002B     		cmp	r3, #0
 6069 2592 05D0     		beq	.L332
 6070              		.loc 1 2648 0
 6071 2594 019B     		ldr	r3, [sp, #4]
 6072 2596 1B6E     		ldr	r3, [r3, #96]
 6073 2598 43F02002 		orr	r2, r3, #32
 6074 259c 019B     		ldr	r3, [sp, #4]
 6075 259e 1A66     		str	r2, [r3, #96]
 6076              	.L332:
 6077              		.loc 1 2652 0
 6078 25a0 019B     		ldr	r3, [sp, #4]
 6079 25a2 1B68     		ldr	r3, [r3]
 6080 25a4 9B68     		ldr	r3, [r3, #8]
 6081 25a6 03F01003 		and	r3, r3, #16
 6082 25aa 002B     		cmp	r3, #0
 6083 25ac 12D0     		beq	.L333
 6084              		.loc 1 2654 0
 6085 25ae 019B     		ldr	r3, [sp, #4]
 6086 25b0 0122     		movs	r2, #1
 6087 25b2 83F85D20 		strb	r2, [r3, #93]
 6088              		.loc 1 2655 0
 6089 25b6 019B     		ldr	r3, [sp, #4]
 6090 25b8 1B6E     		ldr	r3, [r3, #96]
 6091 25ba 43F00202 		orr	r2, r3, #2
 6092 25be 019B     		ldr	r3, [sp, #4]
 6093 25c0 1A66     		str	r2, [r3, #96]
 6094              		.loc 1 2656 0
 6095 25c2 019B     		ldr	r3, [sp, #4]
 6096 25c4 1B68     		ldr	r3, [r3]
 6097 25c6 4FF6EF72 		movw	r2, #65519
 6098 25ca 9A60     		str	r2, [r3, #8]
 6099              		.loc 1 2657 0
 6100 25cc 0198     		ldr	r0, [sp, #4]
 6101 25ce FFF7FEFF 		bl	HAL_SPI_ErrorCallback
 6102 25d2 20E0     		b	.L331
 6103              	.L333:
 6104              		.loc 1 2661 0
 6105 25d4 019B     		ldr	r3, [sp, #4]
 6106 25d6 1B6E     		ldr	r3, [r3, #96]
 6107 25d8 002B     		cmp	r3, #0
 6108 25da 15D1     		bne	.L335
 6109              		.loc 1 2663 0
 6110 25dc 019B     		ldr	r3, [sp, #4]
 6111 25de 93F85D30 		ldrb	r3, [r3, #93]
 6112 25e2 DBB2     		uxtb	r3, r3
ARM GAS  /tmp/cc34cfqS.s 			page 109


 6113 25e4 042B     		cmp	r3, #4
 6114 25e6 07D1     		bne	.L336
 6115              		.loc 1 2665 0
 6116 25e8 019B     		ldr	r3, [sp, #4]
 6117 25ea 0122     		movs	r2, #1
 6118 25ec 83F85D20 		strb	r2, [r3, #93]
 6119              		.loc 1 2666 0
 6120 25f0 0198     		ldr	r0, [sp, #4]
 6121 25f2 FFF7FEFF 		bl	HAL_SPI_RxCpltCallback
 6122 25f6 0EE0     		b	.L331
 6123              	.L336:
 6124              		.loc 1 2670 0
 6125 25f8 019B     		ldr	r3, [sp, #4]
 6126 25fa 0122     		movs	r2, #1
 6127 25fc 83F85D20 		strb	r2, [r3, #93]
 6128              		.loc 1 2671 0
 6129 2600 0198     		ldr	r0, [sp, #4]
 6130 2602 FFF7FEFF 		bl	HAL_SPI_TxRxCpltCallback
 6131 2606 06E0     		b	.L331
 6132              	.L335:
 6133              		.loc 1 2676 0
 6134 2608 019B     		ldr	r3, [sp, #4]
 6135 260a 0122     		movs	r2, #1
 6136 260c 83F85D20 		strb	r2, [r3, #93]
 6137              		.loc 1 2677 0
 6138 2610 0198     		ldr	r0, [sp, #4]
 6139 2612 FFF7FEFF 		bl	HAL_SPI_ErrorCallback
 6140              	.L331:
 6141              		.loc 1 2680 0
 6142 2616 03B0     		add	sp, sp, #12
 6143              		@ sp needed
 6144 2618 5DF804FB 		ldr	pc, [sp], #4
 6145              		.cfi_endproc
 6146              	.LFE174:
 6147              		.size	SPI_CloseRxTx_ISR, .-SPI_CloseRxTx_ISR
 6148              		.align	2
 6149 261c AFF30080 		.p2align 4,,15
 6150              		.thumb
 6151              		.thumb_func
 6152              		.type	SPI_CloseRx_ISR, %function
 6153              	SPI_CloseRx_ISR:
 6154              	.LFB175:
 6155              		.loc 1 2689 0
 6156              		.cfi_startproc
 6157              		@ args = 0, pretend = 0, frame = 8
 6158              		@ frame_needed = 0, uses_anonymous_args = 0
 6159 2620 00B5     		push	{lr}
 6160              		.cfi_def_cfa_offset 4
 6161              		.cfi_offset 14, -4
 6162 2622 83B0     		sub	sp, sp, #12
 6163              		.cfi_def_cfa_offset 16
 6164 2624 0190     		str	r0, [sp, #4]
 6165              		.loc 1 2691 0
 6166 2626 019B     		ldr	r3, [sp, #4]
 6167 2628 1B68     		ldr	r3, [r3]
 6168 262a 019A     		ldr	r2, [sp, #4]
 6169 262c 1268     		ldr	r2, [r2]
ARM GAS  /tmp/cc34cfqS.s 			page 110


 6170 262e 5268     		ldr	r2, [r2, #4]
 6171 2630 22F06002 		bic	r2, r2, #96
 6172 2634 5A60     		str	r2, [r3, #4]
 6173              		.loc 1 2694 0
 6174 2636 0198     		ldr	r0, [sp, #4]
 6175 2638 3221     		movs	r1, #50
 6176 263a FFF711FF 		bl	SPI_EndRxTransaction
 6177 263e 0346     		mov	r3, r0
 6178 2640 002B     		cmp	r3, #0
 6179 2642 05D0     		beq	.L339
 6180              		.loc 1 2696 0
 6181 2644 019B     		ldr	r3, [sp, #4]
 6182 2646 1B6E     		ldr	r3, [r3, #96]
 6183 2648 43F02002 		orr	r2, r3, #32
 6184 264c 019B     		ldr	r3, [sp, #4]
 6185 264e 1A66     		str	r2, [r3, #96]
 6186              	.L339:
 6187              		.loc 1 2698 0
 6188 2650 019B     		ldr	r3, [sp, #4]
 6189 2652 0122     		movs	r2, #1
 6190 2654 83F85D20 		strb	r2, [r3, #93]
 6191              		.loc 1 2701 0
 6192 2658 019B     		ldr	r3, [sp, #4]
 6193 265a 1B68     		ldr	r3, [r3]
 6194 265c 9B68     		ldr	r3, [r3, #8]
 6195 265e 03F01003 		and	r3, r3, #16
 6196 2662 002B     		cmp	r3, #0
 6197 2664 0ED0     		beq	.L340
 6198              		.loc 1 2703 0
 6199 2666 019B     		ldr	r3, [sp, #4]
 6200 2668 1B6E     		ldr	r3, [r3, #96]
 6201 266a 43F00202 		orr	r2, r3, #2
 6202 266e 019B     		ldr	r3, [sp, #4]
 6203 2670 1A66     		str	r2, [r3, #96]
 6204              		.loc 1 2704 0
 6205 2672 019B     		ldr	r3, [sp, #4]
 6206 2674 1B68     		ldr	r3, [r3]
 6207 2676 4FF6EF72 		movw	r2, #65519
 6208 267a 9A60     		str	r2, [r3, #8]
 6209              		.loc 1 2705 0
 6210 267c 0198     		ldr	r0, [sp, #4]
 6211 267e FFF7FEFF 		bl	HAL_SPI_ErrorCallback
 6212 2682 0AE0     		b	.L338
 6213              	.L340:
 6214              		.loc 1 2709 0
 6215 2684 019B     		ldr	r3, [sp, #4]
 6216 2686 1B6E     		ldr	r3, [r3, #96]
 6217 2688 002B     		cmp	r3, #0
 6218 268a 03D1     		bne	.L342
 6219              		.loc 1 2711 0
 6220 268c 0198     		ldr	r0, [sp, #4]
 6221 268e FFF7FEFF 		bl	HAL_SPI_RxCpltCallback
 6222 2692 02E0     		b	.L338
 6223              	.L342:
 6224              		.loc 1 2715 0
 6225 2694 0198     		ldr	r0, [sp, #4]
 6226 2696 FFF7FEFF 		bl	HAL_SPI_ErrorCallback
ARM GAS  /tmp/cc34cfqS.s 			page 111


 6227              	.L338:
 6228              		.loc 1 2718 0
 6229 269a 03B0     		add	sp, sp, #12
 6230              		@ sp needed
 6231 269c 5DF804FB 		ldr	pc, [sp], #4
 6232              		.cfi_endproc
 6233              	.LFE175:
 6234              		.size	SPI_CloseRx_ISR, .-SPI_CloseRx_ISR
 6235              		.align	2
 6236              		.p2align 4,,15
 6237              		.thumb
 6238              		.thumb_func
 6239              		.type	SPI_CloseTx_ISR, %function
 6240              	SPI_CloseTx_ISR:
 6241              	.LFB176:
 6242              		.loc 1 2727 0
 6243              		.cfi_startproc
 6244              		@ args = 0, pretend = 0, frame = 16
 6245              		@ frame_needed = 0, uses_anonymous_args = 0
 6246 26a0 00B5     		push	{lr}
 6247              		.cfi_def_cfa_offset 4
 6248              		.cfi_offset 14, -4
 6249 26a2 85B0     		sub	sp, sp, #20
 6250              		.cfi_def_cfa_offset 24
 6251 26a4 0190     		str	r0, [sp, #4]
 6252              		.loc 1 2729 0
 6253 26a6 019B     		ldr	r3, [sp, #4]
 6254 26a8 1B68     		ldr	r3, [r3]
 6255 26aa 019A     		ldr	r2, [sp, #4]
 6256 26ac 1268     		ldr	r2, [r2]
 6257 26ae 5268     		ldr	r2, [r2, #4]
 6258 26b0 22F0A002 		bic	r2, r2, #160
 6259 26b4 5A60     		str	r2, [r3, #4]
 6260              		.loc 1 2732 0
 6261 26b6 0198     		ldr	r0, [sp, #4]
 6262 26b8 3221     		movs	r1, #50
 6263 26ba FFF729FF 		bl	SPI_EndRxTxTransaction
 6264 26be 0346     		mov	r3, r0
 6265 26c0 002B     		cmp	r3, #0
 6266 26c2 05D0     		beq	.L344
 6267              		.loc 1 2734 0
 6268 26c4 019B     		ldr	r3, [sp, #4]
 6269 26c6 1B6E     		ldr	r3, [r3, #96]
 6270 26c8 43F02002 		orr	r2, r3, #32
 6271 26cc 019B     		ldr	r3, [sp, #4]
 6272 26ce 1A66     		str	r2, [r3, #96]
 6273              	.L344:
 6274              		.loc 1 2738 0
 6275 26d0 019B     		ldr	r3, [sp, #4]
 6276 26d2 9B68     		ldr	r3, [r3, #8]
 6277 26d4 002B     		cmp	r3, #0
 6278 26d6 08D1     		bne	.L345
 6279              	.LBB9:
 6280              		.loc 1 2740 0
 6281 26d8 019B     		ldr	r3, [sp, #4]
 6282 26da 1B68     		ldr	r3, [r3]
 6283 26dc DB68     		ldr	r3, [r3, #12]
ARM GAS  /tmp/cc34cfqS.s 			page 112


 6284 26de 0393     		str	r3, [sp, #12]
 6285 26e0 019B     		ldr	r3, [sp, #4]
 6286 26e2 1B68     		ldr	r3, [r3]
 6287 26e4 9B68     		ldr	r3, [r3, #8]
 6288 26e6 0393     		str	r3, [sp, #12]
 6289 26e8 039B     		ldr	r3, [sp, #12]
 6290              	.L345:
 6291              	.LBE9:
 6292              		.loc 1 2743 0
 6293 26ea 019B     		ldr	r3, [sp, #4]
 6294 26ec 0122     		movs	r2, #1
 6295 26ee 83F85D20 		strb	r2, [r3, #93]
 6296              		.loc 1 2744 0
 6297 26f2 019B     		ldr	r3, [sp, #4]
 6298 26f4 1B6E     		ldr	r3, [r3, #96]
 6299 26f6 002B     		cmp	r3, #0
 6300 26f8 03D0     		beq	.L346
 6301              		.loc 1 2746 0
 6302 26fa 0198     		ldr	r0, [sp, #4]
 6303 26fc FFF7FEFF 		bl	HAL_SPI_ErrorCallback
 6304 2700 02E0     		b	.L343
 6305              	.L346:
 6306              		.loc 1 2750 0
 6307 2702 0198     		ldr	r0, [sp, #4]
 6308 2704 FFF7FEFF 		bl	HAL_SPI_TxCpltCallback
 6309              	.L343:
 6310              		.loc 1 2752 0
 6311 2708 05B0     		add	sp, sp, #20
 6312              		@ sp needed
 6313 270a 5DF804FB 		ldr	pc, [sp], #4
 6314              		.cfi_endproc
 6315              	.LFE176:
 6316              		.size	SPI_CloseTx_ISR, .-SPI_CloseTx_ISR
 6317              	.Letext0:
 6318              		.file 2 "/nfs/nfs5/home/research/hardware/arm2/gcc-arm-embedded/gcc-arm-none-eabi-4_8-2014q2/arm-n
 6319              		.file 3 "/nfs/nfs5/home/research/hardware/arm2/gcc-arm-embedded/gcc-arm-none-eabi-4_8-2014q2/arm-n
 6320              		.file 4 "../../../../../../ChibiOS/os/ext/CMSIS/ST/STM32L4xx/stm32l476xx.h"
 6321              		.file 5 "../../../../../../ChibiOS/os/ext/CMSIS/ST/STM32L4xx/stm32l4xx.h"
 6322              		.file 6 "../../../../../Drivers/STM32L4xx_HAL_Driver/Inc/stm32l4xx_hal_def.h"
 6323              		.file 7 "../../../../../Drivers/STM32L4xx_HAL_Driver/Inc/stm32l4xx_hal_dma.h"
 6324              		.file 8 "../../../../../Drivers/STM32L4xx_HAL_Driver/Inc/stm32l4xx_hal_spi.h"
 6325              		.file 9 "../../../../../../ChibiOS/os/ext/CMSIS/include/core_cm4.h"
 6326 270e 00BF     		.section	.debug_info,"",%progbits
 6327              	.Ldebug_info0:
 6328 0000 CB120000 		.4byte	0x12cb
 6329 0004 0400     		.2byte	0x4
 6330 0006 00000000 		.4byte	.Ldebug_abbrev0
 6331 000a 04       		.byte	0x4
 6332 000b 01       		.uleb128 0x1
 6333 000c 07000000 		.4byte	.LASF170
 6334 0010 01       		.byte	0x1
 6335 0011 CC070000 		.4byte	.LASF171
 6336 0015 2E060000 		.4byte	.LASF172
 6337 0019 00000000 		.4byte	.Ltext0
 6338 001d 0E270000 		.4byte	.Letext0-.Ltext0
 6339 0021 00000000 		.4byte	.Ldebug_line0
 6340 0025 02       		.uleb128 0x2
ARM GAS  /tmp/cc34cfqS.s 			page 113


 6341 0026 01       		.byte	0x1
 6342 0027 06       		.byte	0x6
 6343 0028 06020000 		.4byte	.LASF0
 6344 002c 03       		.uleb128 0x3
 6345 002d E0000000 		.4byte	.LASF2
 6346 0031 02       		.byte	0x2
 6347 0032 1C       		.byte	0x1c
 6348 0033 37000000 		.4byte	0x37
 6349 0037 02       		.uleb128 0x2
 6350 0038 01       		.byte	0x1
 6351 0039 08       		.byte	0x8
 6352 003a 64070000 		.4byte	.LASF1
 6353 003e 03       		.uleb128 0x3
 6354 003f 71030000 		.4byte	.LASF3
 6355 0043 02       		.byte	0x2
 6356 0044 25       		.byte	0x25
 6357 0045 49000000 		.4byte	0x49
 6358 0049 02       		.uleb128 0x2
 6359 004a 02       		.byte	0x2
 6360 004b 05       		.byte	0x5
 6361 004c 9B070000 		.4byte	.LASF4
 6362 0050 03       		.uleb128 0x3
 6363 0051 CA080000 		.4byte	.LASF5
 6364 0055 02       		.byte	0x2
 6365 0056 26       		.byte	0x26
 6366 0057 5B000000 		.4byte	0x5b
 6367 005b 02       		.uleb128 0x2
 6368 005c 02       		.byte	0x2
 6369 005d 07       		.byte	0x7
 6370 005e 68040000 		.4byte	.LASF6
 6371 0062 03       		.uleb128 0x3
 6372 0063 EB080000 		.4byte	.LASF7
 6373 0067 02       		.byte	0x2
 6374 0068 37       		.byte	0x37
 6375 0069 6D000000 		.4byte	0x6d
 6376 006d 02       		.uleb128 0x2
 6377 006e 04       		.byte	0x4
 6378 006f 05       		.byte	0x5
 6379 0070 C5020000 		.4byte	.LASF8
 6380 0074 03       		.uleb128 0x3
 6381 0075 4C030000 		.4byte	.LASF9
 6382 0079 02       		.byte	0x2
 6383 007a 38       		.byte	0x38
 6384 007b 7F000000 		.4byte	0x7f
 6385 007f 02       		.uleb128 0x2
 6386 0080 04       		.byte	0x4
 6387 0081 07       		.byte	0x7
 6388 0082 EA030000 		.4byte	.LASF10
 6389 0086 02       		.uleb128 0x2
 6390 0087 08       		.byte	0x8
 6391 0088 05       		.byte	0x5
 6392 0089 F8010000 		.4byte	.LASF11
 6393 008d 02       		.uleb128 0x2
 6394 008e 08       		.byte	0x8
 6395 008f 07       		.byte	0x7
 6396 0090 33010000 		.4byte	.LASF12
 6397 0094 04       		.uleb128 0x4
ARM GAS  /tmp/cc34cfqS.s 			page 114


 6398 0095 04       		.byte	0x4
 6399 0096 05       		.byte	0x5
 6400 0097 696E7400 		.ascii	"int\000"
 6401 009b 02       		.uleb128 0x2
 6402 009c 04       		.byte	0x4
 6403 009d 07       		.byte	0x7
 6404 009e C2030000 		.4byte	.LASF13
 6405 00a2 03       		.uleb128 0x3
 6406 00a3 290A0000 		.4byte	.LASF14
 6407 00a7 03       		.byte	0x3
 6408 00a8 2A       		.byte	0x2a
 6409 00a9 2C000000 		.4byte	0x2c
 6410 00ad 03       		.uleb128 0x3
 6411 00ae F0010000 		.4byte	.LASF15
 6412 00b2 03       		.byte	0x3
 6413 00b3 35       		.byte	0x35
 6414 00b4 3E000000 		.4byte	0x3e
 6415 00b8 03       		.uleb128 0x3
 6416 00b9 FE020000 		.4byte	.LASF16
 6417 00bd 03       		.byte	0x3
 6418 00be 36       		.byte	0x36
 6419 00bf 50000000 		.4byte	0x50
 6420 00c3 03       		.uleb128 0x3
 6421 00c4 5C070000 		.4byte	.LASF17
 6422 00c8 03       		.byte	0x3
 6423 00c9 41       		.byte	0x41
 6424 00ca 62000000 		.4byte	0x62
 6425 00ce 03       		.uleb128 0x3
 6426 00cf 5A080000 		.4byte	.LASF18
 6427 00d3 03       		.byte	0x3
 6428 00d4 42       		.byte	0x42
 6429 00d5 74000000 		.4byte	0x74
 6430 00d9 02       		.uleb128 0x2
 6431 00da 04       		.byte	0x4
 6432 00db 07       		.byte	0x7
 6433 00dc AB050000 		.4byte	.LASF19
 6434 00e0 05       		.uleb128 0x5
 6435 00e1 CE000000 		.4byte	0xce
 6436 00e5 05       		.uleb128 0x5
 6437 00e6 A2000000 		.4byte	0xa2
 6438 00ea 05       		.uleb128 0x5
 6439 00eb B8000000 		.4byte	0xb8
 6440 00ef 06       		.uleb128 0x6
 6441 00f0 10       		.byte	0x10
 6442 00f1 04       		.byte	0x4
 6443 00f2 A701     		.2byte	0x1a7
 6444 00f4 2D010000 		.4byte	0x12d
 6445 00f8 07       		.uleb128 0x7
 6446 00f9 43435200 		.ascii	"CCR\000"
 6447 00fd 04       		.byte	0x4
 6448 00fe A901     		.2byte	0x1a9
 6449 0100 E0000000 		.4byte	0xe0
 6450 0104 00       		.byte	0
 6451 0105 08       		.uleb128 0x8
 6452 0106 E5090000 		.4byte	.LASF20
 6453 010a 04       		.byte	0x4
 6454 010b AA01     		.2byte	0x1aa
ARM GAS  /tmp/cc34cfqS.s 			page 115


 6455 010d E0000000 		.4byte	0xe0
 6456 0111 04       		.byte	0x4
 6457 0112 08       		.uleb128 0x8
 6458 0113 E5030000 		.4byte	.LASF21
 6459 0117 04       		.byte	0x4
 6460 0118 AB01     		.2byte	0x1ab
 6461 011a E0000000 		.4byte	0xe0
 6462 011e 08       		.byte	0x8
 6463 011f 08       		.uleb128 0x8
 6464 0120 EB090000 		.4byte	.LASF22
 6465 0124 04       		.byte	0x4
 6466 0125 AC01     		.2byte	0x1ac
 6467 0127 E0000000 		.4byte	0xe0
 6468 012b 0C       		.byte	0xc
 6469 012c 00       		.byte	0
 6470 012d 09       		.uleb128 0x9
 6471 012e 38090000 		.4byte	.LASF23
 6472 0132 04       		.byte	0x4
 6473 0133 AD01     		.2byte	0x1ad
 6474 0135 EF000000 		.4byte	0xef
 6475 0139 06       		.uleb128 0x6
 6476 013a 08       		.byte	0x8
 6477 013b 04       		.byte	0x4
 6478 013c AF01     		.2byte	0x1af
 6479 013e 5D010000 		.4byte	0x15d
 6480 0142 07       		.uleb128 0x7
 6481 0143 49535200 		.ascii	"ISR\000"
 6482 0147 04       		.byte	0x4
 6483 0148 B101     		.2byte	0x1b1
 6484 014a E0000000 		.4byte	0xe0
 6485 014e 00       		.byte	0
 6486 014f 08       		.uleb128 0x8
 6487 0150 86080000 		.4byte	.LASF24
 6488 0154 04       		.byte	0x4
 6489 0155 B201     		.2byte	0x1b2
 6490 0157 E0000000 		.4byte	0xe0
 6491 015b 04       		.byte	0x4
 6492 015c 00       		.byte	0
 6493 015d 09       		.uleb128 0x9
 6494 015e B6030000 		.4byte	.LASF25
 6495 0162 04       		.byte	0x4
 6496 0163 B301     		.2byte	0x1b3
 6497 0165 39010000 		.4byte	0x139
 6498 0169 06       		.uleb128 0x6
 6499 016a 24       		.byte	0x24
 6500 016b 04       		.byte	0x4
 6501 016c 5E03     		.2byte	0x35e
 6502 016e E6010000 		.4byte	0x1e6
 6503 0172 07       		.uleb128 0x7
 6504 0173 43523100 		.ascii	"CR1\000"
 6505 0177 04       		.byte	0x4
 6506 0178 6003     		.2byte	0x360
 6507 017a E0000000 		.4byte	0xe0
 6508 017e 00       		.byte	0
 6509 017f 07       		.uleb128 0x7
 6510 0180 43523200 		.ascii	"CR2\000"
 6511 0184 04       		.byte	0x4
ARM GAS  /tmp/cc34cfqS.s 			page 116


 6512 0185 6103     		.2byte	0x361
 6513 0187 E0000000 		.4byte	0xe0
 6514 018b 04       		.byte	0x4
 6515 018c 07       		.uleb128 0x7
 6516 018d 535200   		.ascii	"SR\000"
 6517 0190 04       		.byte	0x4
 6518 0191 6203     		.2byte	0x362
 6519 0193 E0000000 		.4byte	0xe0
 6520 0197 08       		.byte	0x8
 6521 0198 07       		.uleb128 0x7
 6522 0199 445200   		.ascii	"DR\000"
 6523 019c 04       		.byte	0x4
 6524 019d 6303     		.2byte	0x363
 6525 019f E0000000 		.4byte	0xe0
 6526 01a3 0C       		.byte	0xc
 6527 01a4 08       		.uleb128 0x8
 6528 01a5 4A010000 		.4byte	.LASF26
 6529 01a9 04       		.byte	0x4
 6530 01aa 6403     		.2byte	0x364
 6531 01ac E0000000 		.4byte	0xe0
 6532 01b0 10       		.byte	0x10
 6533 01b1 08       		.uleb128 0x8
 6534 01b2 00000000 		.4byte	.LASF27
 6535 01b6 04       		.byte	0x4
 6536 01b7 6503     		.2byte	0x365
 6537 01b9 E0000000 		.4byte	0xe0
 6538 01bd 14       		.byte	0x14
 6539 01be 08       		.uleb128 0x8
 6540 01bf 3F030000 		.4byte	.LASF28
 6541 01c3 04       		.byte	0x4
 6542 01c4 6603     		.2byte	0x366
 6543 01c6 E0000000 		.4byte	0xe0
 6544 01ca 18       		.byte	0x18
 6545 01cb 08       		.uleb128 0x8
 6546 01cc EC060000 		.4byte	.LASF29
 6547 01d0 04       		.byte	0x4
 6548 01d1 6703     		.2byte	0x367
 6549 01d3 CE000000 		.4byte	0xce
 6550 01d7 1C       		.byte	0x1c
 6551 01d8 08       		.uleb128 0x8
 6552 01d9 F6060000 		.4byte	.LASF30
 6553 01dd 04       		.byte	0x4
 6554 01de 6803     		.2byte	0x368
 6555 01e0 CE000000 		.4byte	0xce
 6556 01e4 20       		.byte	0x20
 6557 01e5 00       		.byte	0
 6558 01e6 09       		.uleb128 0x9
 6559 01e7 8B080000 		.4byte	.LASF31
 6560 01eb 04       		.byte	0x4
 6561 01ec 6903     		.2byte	0x369
 6562 01ee 69010000 		.4byte	0x169
 6563 01f2 0A       		.uleb128 0xa
 6564 01f3 01       		.byte	0x1
 6565 01f4 05       		.byte	0x5
 6566 01f5 AE       		.byte	0xae
 6567 01f6 07020000 		.4byte	0x207
 6568 01fa 0B       		.uleb128 0xb
ARM GAS  /tmp/cc34cfqS.s 			page 117


 6569 01fb 29070000 		.4byte	.LASF32
 6570 01ff 00       		.sleb128 0
 6571 0200 0C       		.uleb128 0xc
 6572 0201 53455400 		.ascii	"SET\000"
 6573 0205 01       		.sleb128 1
 6574 0206 00       		.byte	0
 6575 0207 0D       		.uleb128 0xd
 6576 0208 04       		.byte	0x4
 6577 0209 02       		.uleb128 0x2
 6578 020a 01       		.byte	0x1
 6579 020b 08       		.byte	0x8
 6580 020c 97080000 		.4byte	.LASF33
 6581 0210 0A       		.uleb128 0xa
 6582 0211 01       		.byte	0x1
 6583 0212 06       		.byte	0x6
 6584 0213 3A       		.byte	0x3a
 6585 0214 31020000 		.4byte	0x231
 6586 0218 0B       		.uleb128 0xb
 6587 0219 32040000 		.4byte	.LASF34
 6588 021d 00       		.sleb128 0
 6589 021e 0B       		.uleb128 0xb
 6590 021f 99090000 		.4byte	.LASF35
 6591 0223 01       		.sleb128 1
 6592 0224 0B       		.uleb128 0xb
 6593 0225 CC0A0000 		.4byte	.LASF36
 6594 0229 02       		.sleb128 2
 6595 022a 0B       		.uleb128 0xb
 6596 022b AA030000 		.4byte	.LASF37
 6597 022f 03       		.sleb128 3
 6598 0230 00       		.byte	0
 6599 0231 03       		.uleb128 0x3
 6600 0232 20080000 		.4byte	.LASF38
 6601 0236 06       		.byte	0x6
 6602 0237 3F       		.byte	0x3f
 6603 0238 10020000 		.4byte	0x210
 6604 023c 0A       		.uleb128 0xa
 6605 023d 01       		.byte	0x1
 6606 023e 06       		.byte	0x6
 6607 023f 45       		.byte	0x45
 6608 0240 51020000 		.4byte	0x251
 6609 0244 0B       		.uleb128 0xb
 6610 0245 AF0A0000 		.4byte	.LASF39
 6611 0249 00       		.sleb128 0
 6612 024a 0B       		.uleb128 0xb
 6613 024b D7050000 		.4byte	.LASF40
 6614 024f 01       		.sleb128 1
 6615 0250 00       		.byte	0
 6616 0251 03       		.uleb128 0x3
 6617 0252 8E020000 		.4byte	.LASF41
 6618 0256 06       		.byte	0x6
 6619 0257 48       		.byte	0x48
 6620 0258 3C020000 		.4byte	0x23c
 6621 025c 0E       		.uleb128 0xe
 6622 025d 20       		.byte	0x20
 6623 025e 07       		.byte	0x7
 6624 025f 42       		.byte	0x42
 6625 0260 C5020000 		.4byte	0x2c5
ARM GAS  /tmp/cc34cfqS.s 			page 118


 6626 0264 0F       		.uleb128 0xf
 6627 0265 9C080000 		.4byte	.LASF42
 6628 0269 07       		.byte	0x7
 6629 026a 44       		.byte	0x44
 6630 026b CE000000 		.4byte	0xce
 6631 026f 00       		.byte	0
 6632 0270 0F       		.uleb128 0xf
 6633 0271 5F030000 		.4byte	.LASF43
 6634 0275 07       		.byte	0x7
 6635 0276 47       		.byte	0x47
 6636 0277 CE000000 		.4byte	0xce
 6637 027b 04       		.byte	0x4
 6638 027c 0F       		.uleb128 0xf
 6639 027d EF020000 		.4byte	.LASF44
 6640 0281 07       		.byte	0x7
 6641 0282 4B       		.byte	0x4b
 6642 0283 CE000000 		.4byte	0xce
 6643 0287 08       		.byte	0x8
 6644 0288 0F       		.uleb128 0xf
 6645 0289 DE080000 		.4byte	.LASF45
 6646 028d 07       		.byte	0x7
 6647 028e 4E       		.byte	0x4e
 6648 028f CE000000 		.4byte	0xce
 6649 0293 0C       		.byte	0xc
 6650 0294 0F       		.uleb128 0xf
 6651 0295 B6090000 		.4byte	.LASF46
 6652 0299 07       		.byte	0x7
 6653 029a 51       		.byte	0x51
 6654 029b CE000000 		.4byte	0xce
 6655 029f 10       		.byte	0x10
 6656 02a0 0F       		.uleb128 0xf
 6657 02a1 CD040000 		.4byte	.LASF47
 6658 02a5 07       		.byte	0x7
 6659 02a6 54       		.byte	0x54
 6660 02a7 CE000000 		.4byte	0xce
 6661 02ab 14       		.byte	0x14
 6662 02ac 0F       		.uleb128 0xf
 6663 02ad C5080000 		.4byte	.LASF48
 6664 02b1 07       		.byte	0x7
 6665 02b2 57       		.byte	0x57
 6666 02b3 CE000000 		.4byte	0xce
 6667 02b7 18       		.byte	0x18
 6668 02b8 0F       		.uleb128 0xf
 6669 02b9 7B040000 		.4byte	.LASF49
 6670 02bd 07       		.byte	0x7
 6671 02be 5C       		.byte	0x5c
 6672 02bf CE000000 		.4byte	0xce
 6673 02c3 1C       		.byte	0x1c
 6674 02c4 00       		.byte	0
 6675 02c5 03       		.uleb128 0x3
 6676 02c6 BA000000 		.4byte	.LASF50
 6677 02ca 07       		.byte	0x7
 6678 02cb 5E       		.byte	0x5e
 6679 02cc 5C020000 		.4byte	0x25c
 6680 02d0 0A       		.uleb128 0xa
 6681 02d1 01       		.byte	0x1
 6682 02d2 07       		.byte	0x7
ARM GAS  /tmp/cc34cfqS.s 			page 119


 6683 02d3 64       		.byte	0x64
 6684 02d4 F1020000 		.4byte	0x2f1
 6685 02d8 0B       		.uleb128 0xb
 6686 02d9 89010000 		.4byte	.LASF51
 6687 02dd 00       		.sleb128 0
 6688 02de 0B       		.uleb128 0xb
 6689 02df 4B050000 		.4byte	.LASF52
 6690 02e3 01       		.sleb128 1
 6691 02e4 0B       		.uleb128 0xb
 6692 02e5 A5070000 		.4byte	.LASF53
 6693 02e9 02       		.sleb128 2
 6694 02ea 0B       		.uleb128 0xb
 6695 02eb 080A0000 		.4byte	.LASF54
 6696 02ef 03       		.sleb128 3
 6697 02f0 00       		.byte	0
 6698 02f1 03       		.uleb128 0x3
 6699 02f2 86070000 		.4byte	.LASF55
 6700 02f6 07       		.byte	0x7
 6701 02f7 69       		.byte	0x69
 6702 02f8 D0020000 		.4byte	0x2d0
 6703 02fc 10       		.uleb128 0x10
 6704 02fd 46080000 		.4byte	.LASF88
 6705 0301 48       		.byte	0x48
 6706 0302 07       		.byte	0x7
 6707 0303 85       		.byte	0x85
 6708 0304 99030000 		.4byte	0x399
 6709 0308 0F       		.uleb128 0xf
 6710 0309 24010000 		.4byte	.LASF56
 6711 030d 07       		.byte	0x7
 6712 030e 87       		.byte	0x87
 6713 030f 99030000 		.4byte	0x399
 6714 0313 00       		.byte	0
 6715 0314 0F       		.uleb128 0xf
 6716 0315 D0060000 		.4byte	.LASF57
 6717 0319 07       		.byte	0x7
 6718 031a 89       		.byte	0x89
 6719 031b C5020000 		.4byte	0x2c5
 6720 031f 04       		.byte	0x4
 6721 0320 0F       		.uleb128 0xf
 6722 0321 DE040000 		.4byte	.LASF58
 6723 0325 07       		.byte	0x7
 6724 0326 8B       		.byte	0x8b
 6725 0327 51020000 		.4byte	0x251
 6726 032b 24       		.byte	0x24
 6727 032c 0F       		.uleb128 0xf
 6728 032d BF080000 		.4byte	.LASF59
 6729 0331 07       		.byte	0x7
 6730 0332 8D       		.byte	0x8d
 6731 0333 9F030000 		.4byte	0x39f
 6732 0337 25       		.byte	0x25
 6733 0338 0F       		.uleb128 0xf
 6734 0339 38030000 		.4byte	.LASF60
 6735 033d 07       		.byte	0x7
 6736 033e 8F       		.byte	0x8f
 6737 033f 07020000 		.4byte	0x207
 6738 0343 28       		.byte	0x28
 6739 0344 0F       		.uleb128 0xf
ARM GAS  /tmp/cc34cfqS.s 			page 120


 6740 0345 EF0A0000 		.4byte	.LASF61
 6741 0349 07       		.byte	0x7
 6742 034a 91       		.byte	0x91
 6743 034b B5030000 		.4byte	0x3b5
 6744 034f 2C       		.byte	0x2c
 6745 0350 0F       		.uleb128 0xf
 6746 0351 2D020000 		.4byte	.LASF62
 6747 0355 07       		.byte	0x7
 6748 0356 93       		.byte	0x93
 6749 0357 B5030000 		.4byte	0x3b5
 6750 035b 30       		.byte	0x30
 6751 035c 0F       		.uleb128 0xf
 6752 035d 17070000 		.4byte	.LASF63
 6753 0361 07       		.byte	0x7
 6754 0362 95       		.byte	0x95
 6755 0363 B5030000 		.4byte	0x3b5
 6756 0367 34       		.byte	0x34
 6757 0368 0F       		.uleb128 0xf
 6758 0369 D50A0000 		.4byte	.LASF64
 6759 036d 07       		.byte	0x7
 6760 036e 97       		.byte	0x97
 6761 036f B5030000 		.4byte	0x3b5
 6762 0373 38       		.byte	0x38
 6763 0374 0F       		.uleb128 0xf
 6764 0375 C3040000 		.4byte	.LASF65
 6765 0379 07       		.byte	0x7
 6766 037a 99       		.byte	0x99
 6767 037b E0000000 		.4byte	0xe0
 6768 037f 3C       		.byte	0x3c
 6769 0380 0F       		.uleb128 0xf
 6770 0381 A0040000 		.4byte	.LASF66
 6771 0385 07       		.byte	0x7
 6772 0386 9B       		.byte	0x9b
 6773 0387 BB030000 		.4byte	0x3bb
 6774 038b 40       		.byte	0x40
 6775 038c 0F       		.uleb128 0xf
 6776 038d 2B030000 		.4byte	.LASF67
 6777 0391 07       		.byte	0x7
 6778 0392 9D       		.byte	0x9d
 6779 0393 CE000000 		.4byte	0xce
 6780 0397 44       		.byte	0x44
 6781 0398 00       		.byte	0
 6782 0399 11       		.uleb128 0x11
 6783 039a 04       		.byte	0x4
 6784 039b 2D010000 		.4byte	0x12d
 6785 039f 05       		.uleb128 0x5
 6786 03a0 F1020000 		.4byte	0x2f1
 6787 03a4 12       		.uleb128 0x12
 6788 03a5 AF030000 		.4byte	0x3af
 6789 03a9 13       		.uleb128 0x13
 6790 03aa AF030000 		.4byte	0x3af
 6791 03ae 00       		.byte	0
 6792 03af 11       		.uleb128 0x11
 6793 03b0 04       		.byte	0x4
 6794 03b1 FC020000 		.4byte	0x2fc
 6795 03b5 11       		.uleb128 0x11
 6796 03b6 04       		.byte	0x4
ARM GAS  /tmp/cc34cfqS.s 			page 121


 6797 03b7 A4030000 		.4byte	0x3a4
 6798 03bb 11       		.uleb128 0x11
 6799 03bc 04       		.byte	0x4
 6800 03bd 5D010000 		.4byte	0x15d
 6801 03c1 03       		.uleb128 0x3
 6802 03c2 F9050000 		.4byte	.LASF68
 6803 03c6 07       		.byte	0x7
 6804 03c7 9E       		.byte	0x9e
 6805 03c8 FC020000 		.4byte	0x2fc
 6806 03cc 11       		.uleb128 0x11
 6807 03cd 04       		.byte	0x4
 6808 03ce C1030000 		.4byte	0x3c1
 6809 03d2 11       		.uleb128 0x11
 6810 03d3 04       		.byte	0x4
 6811 03d4 A2000000 		.4byte	0xa2
 6812 03d8 0E       		.uleb128 0xe
 6813 03d9 34       		.byte	0x34
 6814 03da 08       		.byte	0x8
 6815 03db 41       		.byte	0x41
 6816 03dc 7D040000 		.4byte	0x47d
 6817 03e0 0F       		.uleb128 0xf
 6818 03e1 C5080000 		.4byte	.LASF48
 6819 03e5 08       		.byte	0x8
 6820 03e6 43       		.byte	0x43
 6821 03e7 CE000000 		.4byte	0xce
 6822 03eb 00       		.byte	0
 6823 03ec 0F       		.uleb128 0xf
 6824 03ed 5F030000 		.4byte	.LASF43
 6825 03f1 08       		.byte	0x8
 6826 03f2 46       		.byte	0x46
 6827 03f3 CE000000 		.4byte	0xce
 6828 03f7 04       		.byte	0x4
 6829 03f8 0F       		.uleb128 0xf
 6830 03f9 D5080000 		.4byte	.LASF69
 6831 03fd 08       		.byte	0x8
 6832 03fe 49       		.byte	0x49
 6833 03ff CE000000 		.4byte	0xce
 6834 0403 08       		.byte	0x8
 6835 0404 0F       		.uleb128 0xf
 6836 0405 5F050000 		.4byte	.LASF70
 6837 0409 08       		.byte	0x8
 6838 040a 4C       		.byte	0x4c
 6839 040b CE000000 		.4byte	0xce
 6840 040f 0C       		.byte	0xc
 6841 0410 0F       		.uleb128 0xf
 6842 0411 1C060000 		.4byte	.LASF71
 6843 0415 08       		.byte	0x8
 6844 0416 4F       		.byte	0x4f
 6845 0417 CE000000 		.4byte	0xce
 6846 041b 10       		.byte	0x10
 6847 041c 14       		.uleb128 0x14
 6848 041d 4E535300 		.ascii	"NSS\000"
 6849 0421 08       		.byte	0x8
 6850 0422 52       		.byte	0x52
 6851 0423 CE000000 		.4byte	0xce
 6852 0427 14       		.byte	0x14
 6853 0428 0F       		.uleb128 0xf
ARM GAS  /tmp/cc34cfqS.s 			page 122


 6854 0429 25050000 		.4byte	.LASF72
 6855 042d 08       		.byte	0x8
 6856 042e 56       		.byte	0x56
 6857 042f CE000000 		.4byte	0xce
 6858 0433 18       		.byte	0x18
 6859 0434 0F       		.uleb128 0xf
 6860 0435 25060000 		.4byte	.LASF73
 6861 0439 08       		.byte	0x8
 6862 043a 5C       		.byte	0x5c
 6863 043b CE000000 		.4byte	0xce
 6864 043f 1C       		.byte	0x1c
 6865 0440 0F       		.uleb128 0xf
 6866 0441 DE090000 		.4byte	.LASF74
 6867 0445 08       		.byte	0x8
 6868 0446 5F       		.byte	0x5f
 6869 0447 CE000000 		.4byte	0xce
 6870 044b 20       		.byte	0x20
 6871 044c 0F       		.uleb128 0xf
 6872 044d 310A0000 		.4byte	.LASF75
 6873 0451 08       		.byte	0x8
 6874 0452 62       		.byte	0x62
 6875 0453 CE000000 		.4byte	0xce
 6876 0457 24       		.byte	0x24
 6877 0458 0F       		.uleb128 0xf
 6878 0459 16010000 		.4byte	.LASF76
 6879 045d 08       		.byte	0x8
 6880 045e 65       		.byte	0x65
 6881 045f CE000000 		.4byte	0xce
 6882 0463 28       		.byte	0x28
 6883 0464 0F       		.uleb128 0xf
 6884 0465 0B060000 		.4byte	.LASF77
 6885 0469 08       		.byte	0x8
 6886 046a 68       		.byte	0x68
 6887 046b CE000000 		.4byte	0xce
 6888 046f 2C       		.byte	0x2c
 6889 0470 0F       		.uleb128 0xf
 6890 0471 8C050000 		.4byte	.LASF78
 6891 0475 08       		.byte	0x8
 6892 0476 6C       		.byte	0x6c
 6893 0477 CE000000 		.4byte	0xce
 6894 047b 30       		.byte	0x30
 6895 047c 00       		.byte	0
 6896 047d 03       		.uleb128 0x3
 6897 047e 15050000 		.4byte	.LASF79
 6898 0482 08       		.byte	0x8
 6899 0483 72       		.byte	0x72
 6900 0484 D8030000 		.4byte	0x3d8
 6901 0488 0A       		.uleb128 0xa
 6902 0489 01       		.byte	0x1
 6903 048a 08       		.byte	0x8
 6904 048b 78       		.byte	0x78
 6905 048c BB040000 		.4byte	0x4bb
 6906 0490 0B       		.uleb128 0xb
 6907 0491 32080000 		.4byte	.LASF80
 6908 0495 00       		.sleb128 0
 6909 0496 0B       		.uleb128 0xb
 6910 0497 CA090000 		.4byte	.LASF81
ARM GAS  /tmp/cc34cfqS.s 			page 123


 6911 049b 01       		.sleb128 1
 6912 049c 0B       		.uleb128 0xb
 6913 049d 61090000 		.4byte	.LASF82
 6914 04a1 02       		.sleb128 2
 6915 04a2 0B       		.uleb128 0xb
 6916 04a3 D9020000 		.4byte	.LASF83
 6917 04a7 03       		.sleb128 3
 6918 04a8 0B       		.uleb128 0xb
 6919 04a9 CA000000 		.4byte	.LASF84
 6920 04ad 04       		.sleb128 4
 6921 04ae 0B       		.uleb128 0xb
 6922 04af E3040000 		.4byte	.LASF85
 6923 04b3 05       		.sleb128 5
 6924 04b4 0B       		.uleb128 0xb
 6925 04b5 AF040000 		.4byte	.LASF86
 6926 04b9 06       		.sleb128 6
 6927 04ba 00       		.byte	0
 6928 04bb 03       		.uleb128 0x3
 6929 04bc 4C090000 		.4byte	.LASF87
 6930 04c0 08       		.byte	0x8
 6931 04c1 80       		.byte	0x80
 6932 04c2 88040000 		.4byte	0x488
 6933 04c6 10       		.uleb128 0x10
 6934 04c7 39040000 		.4byte	.LASF89
 6935 04cb 64       		.byte	0x64
 6936 04cc 08       		.byte	0x8
 6937 04cd 85       		.byte	0x85
 6938 04ce 93050000 		.4byte	0x593
 6939 04d2 0F       		.uleb128 0xf
 6940 04d3 24010000 		.4byte	.LASF56
 6941 04d7 08       		.byte	0x8
 6942 04d8 87       		.byte	0x87
 6943 04d9 93050000 		.4byte	0x593
 6944 04dd 00       		.byte	0
 6945 04de 0F       		.uleb128 0xf
 6946 04df D0060000 		.4byte	.LASF57
 6947 04e3 08       		.byte	0x8
 6948 04e4 89       		.byte	0x89
 6949 04e5 7D040000 		.4byte	0x47d
 6950 04e9 04       		.byte	0x4
 6951 04ea 0F       		.uleb128 0xf
 6952 04eb CE020000 		.4byte	.LASF90
 6953 04ef 08       		.byte	0x8
 6954 04f0 8B       		.byte	0x8b
 6955 04f1 D2030000 		.4byte	0x3d2
 6956 04f5 38       		.byte	0x38
 6957 04f6 0F       		.uleb128 0xf
 6958 04f7 95040000 		.4byte	.LASF91
 6959 04fb 08       		.byte	0x8
 6960 04fc 8D       		.byte	0x8d
 6961 04fd B8000000 		.4byte	0xb8
 6962 0501 3C       		.byte	0x3c
 6963 0502 0F       		.uleb128 0xf
 6964 0503 DB060000 		.4byte	.LASF92
 6965 0507 08       		.byte	0x8
 6966 0508 8F       		.byte	0x8f
 6967 0509 B8000000 		.4byte	0xb8
ARM GAS  /tmp/cc34cfqS.s 			page 124


 6968 050d 3E       		.byte	0x3e
 6969 050e 0F       		.uleb128 0xf
 6970 050f 1E0A0000 		.4byte	.LASF93
 6971 0513 08       		.byte	0x8
 6972 0514 91       		.byte	0x91
 6973 0515 D2030000 		.4byte	0x3d2
 6974 0519 40       		.byte	0x40
 6975 051a 0F       		.uleb128 0xf
 6976 051b 5D040000 		.4byte	.LASF94
 6977 051f 08       		.byte	0x8
 6978 0520 93       		.byte	0x93
 6979 0521 B8000000 		.4byte	0xb8
 6980 0525 44       		.byte	0x44
 6981 0526 0F       		.uleb128 0xf
 6982 0527 6F0A0000 		.4byte	.LASF95
 6983 052b 08       		.byte	0x8
 6984 052c 95       		.byte	0x95
 6985 052d B8000000 		.4byte	0xb8
 6986 0531 46       		.byte	0x46
 6987 0532 0F       		.uleb128 0xf
 6988 0533 E70A0000 		.4byte	.LASF96
 6989 0537 08       		.byte	0x8
 6990 0538 97       		.byte	0x97
 6991 0539 CE000000 		.4byte	0xce
 6992 053d 48       		.byte	0x48
 6993 053e 0F       		.uleb128 0xf
 6994 053f 2D010000 		.4byte	.LASF97
 6995 0543 08       		.byte	0x8
 6996 0544 99       		.byte	0x99
 6997 0545 AA050000 		.4byte	0x5aa
 6998 0549 4C       		.byte	0x4c
 6999 054a 0F       		.uleb128 0xf
 7000 054b 990A0000 		.4byte	.LASF98
 7001 054f 08       		.byte	0x8
 7002 0550 9B       		.byte	0x9b
 7003 0551 AA050000 		.4byte	0x5aa
 7004 0555 50       		.byte	0x50
 7005 0556 0F       		.uleb128 0xf
 7006 0557 15060000 		.4byte	.LASF99
 7007 055b 08       		.byte	0x8
 7008 055c 9D       		.byte	0x9d
 7009 055d CC030000 		.4byte	0x3cc
 7010 0561 54       		.byte	0x54
 7011 0562 0F       		.uleb128 0xf
 7012 0563 8E030000 		.4byte	.LASF100
 7013 0567 08       		.byte	0x8
 7014 0568 9F       		.byte	0x9f
 7015 0569 CC030000 		.4byte	0x3cc
 7016 056d 58       		.byte	0x58
 7017 056e 0F       		.uleb128 0xf
 7018 056f DE040000 		.4byte	.LASF58
 7019 0573 08       		.byte	0x8
 7020 0574 A1       		.byte	0xa1
 7021 0575 51020000 		.4byte	0x251
 7022 0579 5C       		.byte	0x5c
 7023 057a 0F       		.uleb128 0xf
 7024 057b BF080000 		.4byte	.LASF59
ARM GAS  /tmp/cc34cfqS.s 			page 125


 7025 057f 08       		.byte	0x8
 7026 0580 A3       		.byte	0xa3
 7027 0581 B0050000 		.4byte	0x5b0
 7028 0585 5D       		.byte	0x5d
 7029 0586 0F       		.uleb128 0xf
 7030 0587 C3040000 		.4byte	.LASF65
 7031 058b 08       		.byte	0x8
 7032 058c A5       		.byte	0xa5
 7033 058d E0000000 		.4byte	0xe0
 7034 0591 60       		.byte	0x60
 7035 0592 00       		.byte	0
 7036 0593 11       		.uleb128 0x11
 7037 0594 04       		.byte	0x4
 7038 0595 E6010000 		.4byte	0x1e6
 7039 0599 12       		.uleb128 0x12
 7040 059a A4050000 		.4byte	0x5a4
 7041 059e 13       		.uleb128 0x13
 7042 059f A4050000 		.4byte	0x5a4
 7043 05a3 00       		.byte	0
 7044 05a4 11       		.uleb128 0x11
 7045 05a5 04       		.byte	0x4
 7046 05a6 C6040000 		.4byte	0x4c6
 7047 05aa 11       		.uleb128 0x11
 7048 05ab 04       		.byte	0x4
 7049 05ac 99050000 		.4byte	0x599
 7050 05b0 05       		.uleb128 0x5
 7051 05b1 BB040000 		.4byte	0x4bb
 7052 05b5 03       		.uleb128 0x3
 7053 05b6 B3020000 		.4byte	.LASF101
 7054 05ba 08       		.byte	0x8
 7055 05bb A7       		.byte	0xa7
 7056 05bc C6040000 		.4byte	0x4c6
 7057 05c0 15       		.uleb128 0x15
 7058 05c1 E3010000 		.4byte	.LASF102
 7059 05c5 01       		.byte	0x1
 7060 05c6 C2       		.byte	0xc2
 7061 05c7 31020000 		.4byte	0x231
 7062 05cb 00000000 		.4byte	.LFB125
 7063 05cf 2A010000 		.4byte	.LFE125-.LFB125
 7064 05d3 01       		.uleb128 0x1
 7065 05d4 9C       		.byte	0x9c
 7066 05d5 F6050000 		.4byte	0x5f6
 7067 05d9 16       		.uleb128 0x16
 7068 05da 82020000 		.4byte	.LASF104
 7069 05de 01       		.byte	0x1
 7070 05df C2       		.byte	0xc2
 7071 05e0 F6050000 		.4byte	0x5f6
 7072 05e4 02       		.uleb128 0x2
 7073 05e5 91       		.byte	0x91
 7074 05e6 6C       		.sleb128 -20
 7075 05e7 17       		.uleb128 0x17
 7076 05e8 E5080000 		.4byte	.LASF111
 7077 05ec 01       		.byte	0x1
 7078 05ed C4       		.byte	0xc4
 7079 05ee CE000000 		.4byte	0xce
 7080 05f2 02       		.uleb128 0x2
 7081 05f3 91       		.byte	0x91
ARM GAS  /tmp/cc34cfqS.s 			page 126


 7082 05f4 74       		.sleb128 -12
 7083 05f5 00       		.byte	0
 7084 05f6 11       		.uleb128 0x11
 7085 05f7 04       		.byte	0x4
 7086 05f8 B5050000 		.4byte	0x5b5
 7087 05fc 18       		.uleb128 0x18
 7088 05fd 400A0000 		.4byte	.LASF103
 7089 0601 01       		.byte	0x1
 7090 0602 2A01     		.2byte	0x12a
 7091 0604 31020000 		.4byte	0x231
 7092 0608 30010000 		.4byte	.LFB126
 7093 060c 4E000000 		.4byte	.LFE126-.LFB126
 7094 0610 01       		.uleb128 0x1
 7095 0611 9C       		.byte	0x9c
 7096 0612 26060000 		.4byte	0x626
 7097 0616 19       		.uleb128 0x19
 7098 0617 82020000 		.4byte	.LASF104
 7099 061b 01       		.byte	0x1
 7100 061c 2A01     		.2byte	0x12a
 7101 061e F6050000 		.4byte	0x5f6
 7102 0622 02       		.uleb128 0x2
 7103 0623 91       		.byte	0x91
 7104 0624 74       		.sleb128 -12
 7105 0625 00       		.byte	0
 7106 0626 1A       		.uleb128 0x1a
 7107 0627 BC0A0000 		.4byte	.LASF105
 7108 062b 01       		.byte	0x1
 7109 062c 4A01     		.2byte	0x14a
 7110 062e 80010000 		.4byte	.LFB127
 7111 0632 08000000 		.4byte	.LFE127-.LFB127
 7112 0636 01       		.uleb128 0x1
 7113 0637 9C       		.byte	0x9c
 7114 0638 4C060000 		.4byte	0x64c
 7115 063c 19       		.uleb128 0x19
 7116 063d 82020000 		.4byte	.LASF104
 7117 0641 01       		.byte	0x1
 7118 0642 4A01     		.2byte	0x14a
 7119 0644 F6050000 		.4byte	0x5f6
 7120 0648 02       		.uleb128 0x2
 7121 0649 91       		.byte	0x91
 7122 064a 7C       		.sleb128 -4
 7123 064b 00       		.byte	0
 7124 064c 1A       		.uleb128 0x1a
 7125 064d 2F070000 		.4byte	.LASF106
 7126 0651 01       		.byte	0x1
 7127 0652 5A01     		.2byte	0x15a
 7128 0654 90010000 		.4byte	.LFB128
 7129 0658 08000000 		.4byte	.LFE128-.LFB128
 7130 065c 01       		.uleb128 0x1
 7131 065d 9C       		.byte	0x9c
 7132 065e 72060000 		.4byte	0x672
 7133 0662 19       		.uleb128 0x19
 7134 0663 82020000 		.4byte	.LASF104
 7135 0667 01       		.byte	0x1
 7136 0668 5A01     		.2byte	0x15a
 7137 066a F6050000 		.4byte	0x5f6
 7138 066e 02       		.uleb128 0x2
ARM GAS  /tmp/cc34cfqS.s 			page 127


 7139 066f 91       		.byte	0x91
 7140 0670 7C       		.sleb128 -4
 7141 0671 00       		.byte	0
 7142 0672 18       		.uleb128 0x18
 7143 0673 9D010000 		.4byte	.LASF107
 7144 0677 01       		.byte	0x1
 7145 0678 9201     		.2byte	0x192
 7146 067a 31020000 		.4byte	0x231
 7147 067e A0010000 		.4byte	.LFB129
 7148 0682 68020000 		.4byte	.LFE129-.LFB129
 7149 0686 01       		.uleb128 0x1
 7150 0687 9C       		.byte	0x9c
 7151 0688 0C070000 		.4byte	0x70c
 7152 068c 19       		.uleb128 0x19
 7153 068d 82020000 		.4byte	.LASF104
 7154 0691 01       		.byte	0x1
 7155 0692 9201     		.2byte	0x192
 7156 0694 F6050000 		.4byte	0x5f6
 7157 0698 02       		.uleb128 0x2
 7158 0699 91       		.byte	0x91
 7159 069a 64       		.sleb128 -28
 7160 069b 19       		.uleb128 0x19
 7161 069c 46030000 		.4byte	.LASF108
 7162 06a0 01       		.byte	0x1
 7163 06a1 9201     		.2byte	0x192
 7164 06a3 D2030000 		.4byte	0x3d2
 7165 06a7 02       		.uleb128 0x2
 7166 06a8 91       		.byte	0x91
 7167 06a9 60       		.sleb128 -32
 7168 06aa 19       		.uleb128 0x19
 7169 06ab E7060000 		.4byte	.LASF109
 7170 06af 01       		.byte	0x1
 7171 06b0 9201     		.2byte	0x192
 7172 06b2 B8000000 		.4byte	0xb8
 7173 06b6 02       		.uleb128 0x2
 7174 06b7 91       		.byte	0x91
 7175 06b8 5E       		.sleb128 -34
 7176 06b9 19       		.uleb128 0x19
 7177 06ba 57030000 		.4byte	.LASF110
 7178 06be 01       		.byte	0x1
 7179 06bf 9201     		.2byte	0x192
 7180 06c1 CE000000 		.4byte	0xce
 7181 06c5 02       		.uleb128 0x2
 7182 06c6 91       		.byte	0x91
 7183 06c7 58       		.sleb128 -40
 7184 06c8 1B       		.uleb128 0x1b
 7185 06c9 C2070000 		.4byte	.LASF112
 7186 06cd 01       		.byte	0x1
 7187 06ce 9401     		.2byte	0x194
 7188 06d0 CE000000 		.4byte	0xce
 7189 06d4 02       		.uleb128 0x2
 7190 06d5 91       		.byte	0x91
 7191 06d6 70       		.sleb128 -16
 7192 06d7 1B       		.uleb128 0x1b
 7193 06d8 B8070000 		.4byte	.LASF113
 7194 06dc 01       		.byte	0x1
 7195 06dd 9501     		.2byte	0x195
ARM GAS  /tmp/cc34cfqS.s 			page 128


 7196 06df 31020000 		.4byte	0x231
 7197 06e3 02       		.uleb128 0x2
 7198 06e4 91       		.byte	0x91
 7199 06e5 77       		.sleb128 -9
 7200 06e6 1C       		.uleb128 0x1c
 7201 06e7 D5060000 		.4byte	.LASF116
 7202 06eb 01       		.byte	0x1
 7203 06ec 1502     		.2byte	0x215
 7204 06ee EC030000 		.4byte	.L20
 7205 06f2 1D       		.uleb128 0x1d
 7206 06f3 CC030000 		.4byte	.LBB2
 7207 06f7 12000000 		.4byte	.LBE2-.LBB2
 7208 06fb 1B       		.uleb128 0x1b
 7209 06fc 87020000 		.4byte	.LASF114
 7210 0700 01       		.byte	0x1
 7211 0701 0D02     		.2byte	0x20d
 7212 0703 E0000000 		.4byte	0xe0
 7213 0707 02       		.uleb128 0x2
 7214 0708 91       		.byte	0x91
 7215 0709 6C       		.sleb128 -20
 7216 070a 00       		.byte	0
 7217 070b 00       		.byte	0
 7218 070c 18       		.uleb128 0x18
 7219 070d 9F0A0000 		.4byte	.LASF115
 7220 0711 01       		.byte	0x1
 7221 0712 2502     		.2byte	0x225
 7222 0714 31020000 		.4byte	0x231
 7223 0718 10040000 		.4byte	.LFB130
 7224 071c 8E030000 		.4byte	.LFE130-.LFB130
 7225 0720 01       		.uleb128 0x1
 7226 0721 9C       		.byte	0x9c
 7227 0722 9C070000 		.4byte	0x79c
 7228 0726 19       		.uleb128 0x19
 7229 0727 82020000 		.4byte	.LASF104
 7230 072b 01       		.byte	0x1
 7231 072c 2502     		.2byte	0x225
 7232 072e F6050000 		.4byte	0x5f6
 7233 0732 02       		.uleb128 0x2
 7234 0733 91       		.byte	0x91
 7235 0734 64       		.sleb128 -28
 7236 0735 19       		.uleb128 0x19
 7237 0736 46030000 		.4byte	.LASF108
 7238 073a 01       		.byte	0x1
 7239 073b 2502     		.2byte	0x225
 7240 073d D2030000 		.4byte	0x3d2
 7241 0741 02       		.uleb128 0x2
 7242 0742 91       		.byte	0x91
 7243 0743 60       		.sleb128 -32
 7244 0744 19       		.uleb128 0x19
 7245 0745 E7060000 		.4byte	.LASF109
 7246 0749 01       		.byte	0x1
 7247 074a 2502     		.2byte	0x225
 7248 074c B8000000 		.4byte	0xb8
 7249 0750 02       		.uleb128 0x2
 7250 0751 91       		.byte	0x91
 7251 0752 5E       		.sleb128 -34
 7252 0753 19       		.uleb128 0x19
ARM GAS  /tmp/cc34cfqS.s 			page 129


 7253 0754 57030000 		.4byte	.LASF110
 7254 0758 01       		.byte	0x1
 7255 0759 2502     		.2byte	0x225
 7256 075b CE000000 		.4byte	0xce
 7257 075f 02       		.uleb128 0x2
 7258 0760 91       		.byte	0x91
 7259 0761 58       		.sleb128 -40
 7260 0762 1B       		.uleb128 0x1b
 7261 0763 87020000 		.4byte	.LASF114
 7262 0767 01       		.byte	0x1
 7263 0768 2702     		.2byte	0x227
 7264 076a EA000000 		.4byte	0xea
 7265 076e 02       		.uleb128 0x2
 7266 076f 91       		.byte	0x91
 7267 0770 6E       		.sleb128 -18
 7268 0771 1B       		.uleb128 0x1b
 7269 0772 C2070000 		.4byte	.LASF112
 7270 0776 01       		.byte	0x1
 7271 0777 2802     		.2byte	0x228
 7272 0779 CE000000 		.4byte	0xce
 7273 077d 02       		.uleb128 0x2
 7274 077e 91       		.byte	0x91
 7275 077f 70       		.sleb128 -16
 7276 0780 1B       		.uleb128 0x1b
 7277 0781 B8070000 		.4byte	.LASF113
 7278 0785 01       		.byte	0x1
 7279 0786 2902     		.2byte	0x229
 7280 0788 31020000 		.4byte	0x231
 7281 078c 02       		.uleb128 0x2
 7282 078d 91       		.byte	0x91
 7283 078e 77       		.sleb128 -9
 7284 078f 1C       		.uleb128 0x1c
 7285 0790 D5060000 		.4byte	.LASF116
 7286 0794 01       		.byte	0x1
 7287 0795 E802     		.2byte	0x2e8
 7288 0797 82070000 		.4byte	.L46
 7289 079b 00       		.byte	0
 7290 079c 18       		.uleb128 0x18
 7291 079d 190B0000 		.4byte	.LASF117
 7292 07a1 01       		.byte	0x1
 7293 07a2 F802     		.2byte	0x2f8
 7294 07a4 31020000 		.4byte	0x231
 7295 07a8 A0070000 		.4byte	.LFB131
 7296 07ac 48040000 		.4byte	.LFE131-.LFB131
 7297 07b0 01       		.uleb128 0x1
 7298 07b1 9C       		.byte	0x9c
 7299 07b2 3B080000 		.4byte	0x83b
 7300 07b6 19       		.uleb128 0x19
 7301 07b7 82020000 		.4byte	.LASF104
 7302 07bb 01       		.byte	0x1
 7303 07bc F802     		.2byte	0x2f8
 7304 07be F6050000 		.4byte	0x5f6
 7305 07c2 02       		.uleb128 0x2
 7306 07c3 91       		.byte	0x91
 7307 07c4 64       		.sleb128 -28
 7308 07c5 19       		.uleb128 0x19
 7309 07c6 E2050000 		.4byte	.LASF118
ARM GAS  /tmp/cc34cfqS.s 			page 130


 7310 07ca 01       		.byte	0x1
 7311 07cb F802     		.2byte	0x2f8
 7312 07cd D2030000 		.4byte	0x3d2
 7313 07d1 02       		.uleb128 0x2
 7314 07d2 91       		.byte	0x91
 7315 07d3 60       		.sleb128 -32
 7316 07d4 19       		.uleb128 0x19
 7317 07d5 69030000 		.4byte	.LASF119
 7318 07d9 01       		.byte	0x1
 7319 07da F802     		.2byte	0x2f8
 7320 07dc D2030000 		.4byte	0x3d2
 7321 07e0 02       		.uleb128 0x2
 7322 07e1 91       		.byte	0x91
 7323 07e2 5C       		.sleb128 -36
 7324 07e3 19       		.uleb128 0x19
 7325 07e4 E7060000 		.4byte	.LASF109
 7326 07e8 01       		.byte	0x1
 7327 07e9 F802     		.2byte	0x2f8
 7328 07eb B8000000 		.4byte	0xb8
 7329 07ef 02       		.uleb128 0x2
 7330 07f0 91       		.byte	0x91
 7331 07f1 5A       		.sleb128 -38
 7332 07f2 19       		.uleb128 0x19
 7333 07f3 57030000 		.4byte	.LASF110
 7334 07f7 01       		.byte	0x1
 7335 07f8 F802     		.2byte	0x2f8
 7336 07fa CE000000 		.4byte	0xce
 7337 07fe 02       		.uleb128 0x2
 7338 07ff 91       		.byte	0x91
 7339 0800 00       		.sleb128 0
 7340 0801 1B       		.uleb128 0x1b
 7341 0802 87020000 		.4byte	.LASF114
 7342 0806 01       		.byte	0x1
 7343 0807 FA02     		.2byte	0x2fa
 7344 0809 EA000000 		.4byte	0xea
 7345 080d 02       		.uleb128 0x2
 7346 080e 91       		.byte	0x91
 7347 080f 6E       		.sleb128 -18
 7348 0810 1B       		.uleb128 0x1b
 7349 0811 C2070000 		.4byte	.LASF112
 7350 0815 01       		.byte	0x1
 7351 0816 FB02     		.2byte	0x2fb
 7352 0818 CE000000 		.4byte	0xce
 7353 081c 02       		.uleb128 0x2
 7354 081d 91       		.byte	0x91
 7355 081e 70       		.sleb128 -16
 7356 081f 1B       		.uleb128 0x1b
 7357 0820 B8070000 		.4byte	.LASF113
 7358 0824 01       		.byte	0x1
 7359 0825 FC02     		.2byte	0x2fc
 7360 0827 31020000 		.4byte	0x231
 7361 082b 02       		.uleb128 0x2
 7362 082c 91       		.byte	0x91
 7363 082d 77       		.sleb128 -9
 7364 082e 1C       		.uleb128 0x1c
 7365 082f D5060000 		.4byte	.LASF116
 7366 0833 01       		.byte	0x1
ARM GAS  /tmp/cc34cfqS.s 			page 131


 7367 0834 C303     		.2byte	0x3c3
 7368 0836 CC0B0000 		.4byte	.L77
 7369 083a 00       		.byte	0
 7370 083b 1E       		.uleb128 0x1e
 7371 083c EA000000 		.4byte	.LASF120
 7372 0840 01       		.byte	0x1
 7373 0841 D103     		.2byte	0x3d1
 7374 0843 31020000 		.4byte	0x231
 7375 0847 F00B0000 		.4byte	.LFB132
 7376 084b 38010000 		.4byte	.LFE132-.LFB132
 7377 084f 01       		.uleb128 0x1
 7378 0850 9C       		.byte	0x9c
 7379 0851 9E080000 		.4byte	0x89e
 7380 0855 19       		.uleb128 0x19
 7381 0856 82020000 		.4byte	.LASF104
 7382 085a 01       		.byte	0x1
 7383 085b D103     		.2byte	0x3d1
 7384 085d F6050000 		.4byte	0x5f6
 7385 0861 02       		.uleb128 0x2
 7386 0862 91       		.byte	0x91
 7387 0863 74       		.sleb128 -12
 7388 0864 19       		.uleb128 0x19
 7389 0865 46030000 		.4byte	.LASF108
 7390 0869 01       		.byte	0x1
 7391 086a D103     		.2byte	0x3d1
 7392 086c D2030000 		.4byte	0x3d2
 7393 0870 02       		.uleb128 0x2
 7394 0871 91       		.byte	0x91
 7395 0872 70       		.sleb128 -16
 7396 0873 19       		.uleb128 0x19
 7397 0874 E7060000 		.4byte	.LASF109
 7398 0878 01       		.byte	0x1
 7399 0879 D103     		.2byte	0x3d1
 7400 087b B8000000 		.4byte	0xb8
 7401 087f 02       		.uleb128 0x2
 7402 0880 91       		.byte	0x91
 7403 0881 6E       		.sleb128 -18
 7404 0882 1B       		.uleb128 0x1b
 7405 0883 B8070000 		.4byte	.LASF113
 7406 0887 01       		.byte	0x1
 7407 0888 D303     		.2byte	0x3d3
 7408 088a 31020000 		.4byte	0x231
 7409 088e 02       		.uleb128 0x2
 7410 088f 91       		.byte	0x91
 7411 0890 7F       		.sleb128 -1
 7412 0891 1C       		.uleb128 0x1c
 7413 0892 D5060000 		.4byte	.LASF116
 7414 0896 01       		.byte	0x1
 7415 0897 1104     		.2byte	0x411
 7416 0899 0E0D0000 		.4byte	.L110
 7417 089d 00       		.byte	0
 7418 089e 18       		.uleb128 0x18
 7419 089f 74090000 		.4byte	.LASF121
 7420 08a3 01       		.byte	0x1
 7421 08a4 1E04     		.2byte	0x41e
 7422 08a6 31020000 		.4byte	0x231
 7423 08aa 300D0000 		.4byte	.LFB133
ARM GAS  /tmp/cc34cfqS.s 			page 132


 7424 08ae B8010000 		.4byte	.LFE133-.LFB133
 7425 08b2 01       		.uleb128 0x1
 7426 08b3 9C       		.byte	0x9c
 7427 08b4 01090000 		.4byte	0x901
 7428 08b8 19       		.uleb128 0x19
 7429 08b9 82020000 		.4byte	.LASF104
 7430 08bd 01       		.byte	0x1
 7431 08be 1E04     		.2byte	0x41e
 7432 08c0 F6050000 		.4byte	0x5f6
 7433 08c4 02       		.uleb128 0x2
 7434 08c5 91       		.byte	0x91
 7435 08c6 6C       		.sleb128 -20
 7436 08c7 19       		.uleb128 0x19
 7437 08c8 46030000 		.4byte	.LASF108
 7438 08cc 01       		.byte	0x1
 7439 08cd 1E04     		.2byte	0x41e
 7440 08cf D2030000 		.4byte	0x3d2
 7441 08d3 02       		.uleb128 0x2
 7442 08d4 91       		.byte	0x91
 7443 08d5 68       		.sleb128 -24
 7444 08d6 19       		.uleb128 0x19
 7445 08d7 E7060000 		.4byte	.LASF109
 7446 08db 01       		.byte	0x1
 7447 08dc 1E04     		.2byte	0x41e
 7448 08de B8000000 		.4byte	0xb8
 7449 08e2 02       		.uleb128 0x2
 7450 08e3 91       		.byte	0x91
 7451 08e4 66       		.sleb128 -26
 7452 08e5 1B       		.uleb128 0x1b
 7453 08e6 B8070000 		.4byte	.LASF113
 7454 08ea 01       		.byte	0x1
 7455 08eb 2004     		.2byte	0x420
 7456 08ed 31020000 		.4byte	0x231
 7457 08f1 02       		.uleb128 0x2
 7458 08f2 91       		.byte	0x91
 7459 08f3 77       		.sleb128 -9
 7460 08f4 1C       		.uleb128 0x1c
 7461 08f5 D5060000 		.4byte	.LASF116
 7462 08f9 01       		.byte	0x1
 7463 08fa 7504     		.2byte	0x475
 7464 08fc CC0E0000 		.4byte	.L122
 7465 0900 00       		.byte	0
 7466 0901 1E       		.uleb128 0x1e
 7467 0902 0C090000 		.4byte	.LASF122
 7468 0906 01       		.byte	0x1
 7469 0907 8404     		.2byte	0x484
 7470 0909 31020000 		.4byte	0x231
 7471 090d F00E0000 		.4byte	.LFB134
 7472 0911 C4010000 		.4byte	.LFE134-.LFB134
 7473 0915 01       		.uleb128 0x1
 7474 0916 9C       		.byte	0x9c
 7475 0917 73090000 		.4byte	0x973
 7476 091b 19       		.uleb128 0x19
 7477 091c 82020000 		.4byte	.LASF104
 7478 0920 01       		.byte	0x1
 7479 0921 8404     		.2byte	0x484
 7480 0923 F6050000 		.4byte	0x5f6
ARM GAS  /tmp/cc34cfqS.s 			page 133


 7481 0927 02       		.uleb128 0x2
 7482 0928 91       		.byte	0x91
 7483 0929 74       		.sleb128 -12
 7484 092a 19       		.uleb128 0x19
 7485 092b E2050000 		.4byte	.LASF118
 7486 092f 01       		.byte	0x1
 7487 0930 8404     		.2byte	0x484
 7488 0932 D2030000 		.4byte	0x3d2
 7489 0936 02       		.uleb128 0x2
 7490 0937 91       		.byte	0x91
 7491 0938 70       		.sleb128 -16
 7492 0939 19       		.uleb128 0x19
 7493 093a 69030000 		.4byte	.LASF119
 7494 093e 01       		.byte	0x1
 7495 093f 8404     		.2byte	0x484
 7496 0941 D2030000 		.4byte	0x3d2
 7497 0945 02       		.uleb128 0x2
 7498 0946 91       		.byte	0x91
 7499 0947 6C       		.sleb128 -20
 7500 0948 19       		.uleb128 0x19
 7501 0949 E7060000 		.4byte	.LASF109
 7502 094d 01       		.byte	0x1
 7503 094e 8404     		.2byte	0x484
 7504 0950 B8000000 		.4byte	0xb8
 7505 0954 02       		.uleb128 0x2
 7506 0955 91       		.byte	0x91
 7507 0956 6A       		.sleb128 -22
 7508 0957 1B       		.uleb128 0x1b
 7509 0958 B8070000 		.4byte	.LASF113
 7510 095c 01       		.byte	0x1
 7511 095d 8604     		.2byte	0x486
 7512 095f 31020000 		.4byte	0x231
 7513 0963 02       		.uleb128 0x2
 7514 0964 91       		.byte	0x91
 7515 0965 7F       		.sleb128 -1
 7516 0966 1C       		.uleb128 0x1c
 7517 0967 D5060000 		.4byte	.LASF116
 7518 096b 01       		.byte	0x1
 7519 096c D804     		.2byte	0x4d8
 7520 096e 92100000 		.4byte	.L140
 7521 0972 00       		.byte	0
 7522 0973 18       		.uleb128 0x18
 7523 0974 67010000 		.4byte	.LASF123
 7524 0978 01       		.byte	0x1
 7525 0979 E604     		.2byte	0x4e6
 7526 097b 31020000 		.4byte	0x231
 7527 097f C0100000 		.4byte	.LFB135
 7528 0983 C4010000 		.4byte	.LFE135-.LFB135
 7529 0987 01       		.uleb128 0x1
 7530 0988 9C       		.byte	0x9c
 7531 0989 D6090000 		.4byte	0x9d6
 7532 098d 19       		.uleb128 0x19
 7533 098e 82020000 		.4byte	.LASF104
 7534 0992 01       		.byte	0x1
 7535 0993 E604     		.2byte	0x4e6
 7536 0995 F6050000 		.4byte	0x5f6
 7537 0999 02       		.uleb128 0x2
ARM GAS  /tmp/cc34cfqS.s 			page 134


 7538 099a 91       		.byte	0x91
 7539 099b 6C       		.sleb128 -20
 7540 099c 19       		.uleb128 0x19
 7541 099d 46030000 		.4byte	.LASF108
 7542 09a1 01       		.byte	0x1
 7543 09a2 E604     		.2byte	0x4e6
 7544 09a4 D2030000 		.4byte	0x3d2
 7545 09a8 02       		.uleb128 0x2
 7546 09a9 91       		.byte	0x91
 7547 09aa 68       		.sleb128 -24
 7548 09ab 19       		.uleb128 0x19
 7549 09ac E7060000 		.4byte	.LASF109
 7550 09b0 01       		.byte	0x1
 7551 09b1 E604     		.2byte	0x4e6
 7552 09b3 B8000000 		.4byte	0xb8
 7553 09b7 02       		.uleb128 0x2
 7554 09b8 91       		.byte	0x91
 7555 09b9 66       		.sleb128 -26
 7556 09ba 1B       		.uleb128 0x1b
 7557 09bb B8070000 		.4byte	.LASF113
 7558 09bf 01       		.byte	0x1
 7559 09c0 E804     		.2byte	0x4e8
 7560 09c2 31020000 		.4byte	0x231
 7561 09c6 02       		.uleb128 0x2
 7562 09c7 91       		.byte	0x91
 7563 09c8 77       		.sleb128 -9
 7564 09c9 1C       		.uleb128 0x1c
 7565 09ca D5060000 		.4byte	.LASF116
 7566 09ce 01       		.byte	0x1
 7567 09cf 3605     		.2byte	0x536
 7568 09d1 64120000 		.4byte	.L157
 7569 09d5 00       		.byte	0
 7570 09d6 18       		.uleb128 0x18
 7571 09d7 37050000 		.4byte	.LASF124
 7572 09db 01       		.byte	0x1
 7573 09dc 4505     		.2byte	0x545
 7574 09de 31020000 		.4byte	0x231
 7575 09e2 90120000 		.4byte	.LFB136
 7576 09e6 DC010000 		.4byte	.LFE136-.LFB136
 7577 09ea 01       		.uleb128 0x1
 7578 09eb 9C       		.byte	0x9c
 7579 09ec 390A0000 		.4byte	0xa39
 7580 09f0 19       		.uleb128 0x19
 7581 09f1 82020000 		.4byte	.LASF104
 7582 09f5 01       		.byte	0x1
 7583 09f6 4505     		.2byte	0x545
 7584 09f8 F6050000 		.4byte	0x5f6
 7585 09fc 02       		.uleb128 0x2
 7586 09fd 91       		.byte	0x91
 7587 09fe 6C       		.sleb128 -20
 7588 09ff 19       		.uleb128 0x19
 7589 0a00 46030000 		.4byte	.LASF108
 7590 0a04 01       		.byte	0x1
 7591 0a05 4505     		.2byte	0x545
 7592 0a07 D2030000 		.4byte	0x3d2
 7593 0a0b 02       		.uleb128 0x2
 7594 0a0c 91       		.byte	0x91
ARM GAS  /tmp/cc34cfqS.s 			page 135


 7595 0a0d 68       		.sleb128 -24
 7596 0a0e 19       		.uleb128 0x19
 7597 0a0f E7060000 		.4byte	.LASF109
 7598 0a13 01       		.byte	0x1
 7599 0a14 4505     		.2byte	0x545
 7600 0a16 B8000000 		.4byte	0xb8
 7601 0a1a 02       		.uleb128 0x2
 7602 0a1b 91       		.byte	0x91
 7603 0a1c 66       		.sleb128 -26
 7604 0a1d 1B       		.uleb128 0x1b
 7605 0a1e B8070000 		.4byte	.LASF113
 7606 0a22 01       		.byte	0x1
 7607 0a23 4705     		.2byte	0x547
 7608 0a25 31020000 		.4byte	0x231
 7609 0a29 02       		.uleb128 0x2
 7610 0a2a 91       		.byte	0x91
 7611 0a2b 77       		.sleb128 -9
 7612 0a2c 1C       		.uleb128 0x1c
 7613 0a2d D5060000 		.4byte	.LASF116
 7614 0a31 01       		.byte	0x1
 7615 0a32 A005     		.2byte	0x5a0
 7616 0a34 4C140000 		.4byte	.L171
 7617 0a38 00       		.byte	0
 7618 0a39 18       		.uleb128 0x18
 7619 0a3a 70050000 		.4byte	.LASF125
 7620 0a3e 01       		.byte	0x1
 7621 0a3f B005     		.2byte	0x5b0
 7622 0a41 31020000 		.4byte	0x231
 7623 0a45 70140000 		.4byte	.LFB137
 7624 0a49 E4020000 		.4byte	.LFE137-.LFB137
 7625 0a4d 01       		.uleb128 0x1
 7626 0a4e 9C       		.byte	0x9c
 7627 0a4f AB0A0000 		.4byte	0xaab
 7628 0a53 19       		.uleb128 0x19
 7629 0a54 82020000 		.4byte	.LASF104
 7630 0a58 01       		.byte	0x1
 7631 0a59 B005     		.2byte	0x5b0
 7632 0a5b F6050000 		.4byte	0x5f6
 7633 0a5f 02       		.uleb128 0x2
 7634 0a60 91       		.byte	0x91
 7635 0a61 6C       		.sleb128 -20
 7636 0a62 19       		.uleb128 0x19
 7637 0a63 E2050000 		.4byte	.LASF118
 7638 0a67 01       		.byte	0x1
 7639 0a68 B005     		.2byte	0x5b0
 7640 0a6a D2030000 		.4byte	0x3d2
 7641 0a6e 02       		.uleb128 0x2
 7642 0a6f 91       		.byte	0x91
 7643 0a70 68       		.sleb128 -24
 7644 0a71 19       		.uleb128 0x19
 7645 0a72 69030000 		.4byte	.LASF119
 7646 0a76 01       		.byte	0x1
 7647 0a77 B005     		.2byte	0x5b0
 7648 0a79 D2030000 		.4byte	0x3d2
 7649 0a7d 02       		.uleb128 0x2
 7650 0a7e 91       		.byte	0x91
 7651 0a7f 64       		.sleb128 -28
ARM GAS  /tmp/cc34cfqS.s 			page 136


 7652 0a80 19       		.uleb128 0x19
 7653 0a81 E7060000 		.4byte	.LASF109
 7654 0a85 01       		.byte	0x1
 7655 0a86 B005     		.2byte	0x5b0
 7656 0a88 B8000000 		.4byte	0xb8
 7657 0a8c 02       		.uleb128 0x2
 7658 0a8d 91       		.byte	0x91
 7659 0a8e 62       		.sleb128 -30
 7660 0a8f 1B       		.uleb128 0x1b
 7661 0a90 B8070000 		.4byte	.LASF113
 7662 0a94 01       		.byte	0x1
 7663 0a95 B205     		.2byte	0x5b2
 7664 0a97 31020000 		.4byte	0x231
 7665 0a9b 02       		.uleb128 0x2
 7666 0a9c 91       		.byte	0x91
 7667 0a9d 77       		.sleb128 -9
 7668 0a9e 1C       		.uleb128 0x1c
 7669 0a9f D5060000 		.4byte	.LASF116
 7670 0aa3 01       		.byte	0x1
 7671 0aa4 3306     		.2byte	0x633
 7672 0aa6 2A170000 		.4byte	.L187
 7673 0aaa 00       		.byte	0
 7674 0aab 1E       		.uleb128 0x1e
 7675 0aac 75080000 		.4byte	.LASF126
 7676 0ab0 01       		.byte	0x1
 7677 0ab1 3F06     		.2byte	0x63f
 7678 0ab3 31020000 		.4byte	0x231
 7679 0ab7 60170000 		.4byte	.LFB138
 7680 0abb 3A000000 		.4byte	.LFE138-.LFB138
 7681 0abf 01       		.uleb128 0x1
 7682 0ac0 9C       		.byte	0x9c
 7683 0ac1 D50A0000 		.4byte	0xad5
 7684 0ac5 19       		.uleb128 0x19
 7685 0ac6 82020000 		.4byte	.LASF104
 7686 0aca 01       		.byte	0x1
 7687 0acb 3F06     		.2byte	0x63f
 7688 0acd F6050000 		.4byte	0x5f6
 7689 0ad1 02       		.uleb128 0x2
 7690 0ad2 91       		.byte	0x91
 7691 0ad3 7C       		.sleb128 -4
 7692 0ad4 00       		.byte	0
 7693 0ad5 1E       		.uleb128 0x1e
 7694 0ad6 070B0000 		.4byte	.LASF127
 7695 0ada 01       		.byte	0x1
 7696 0adb 5306     		.2byte	0x653
 7697 0add 31020000 		.4byte	0x231
 7698 0ae1 A0170000 		.4byte	.LFB139
 7699 0ae5 3A000000 		.4byte	.LFE139-.LFB139
 7700 0ae9 01       		.uleb128 0x1
 7701 0aea 9C       		.byte	0x9c
 7702 0aeb FF0A0000 		.4byte	0xaff
 7703 0aef 19       		.uleb128 0x19
 7704 0af0 82020000 		.4byte	.LASF104
 7705 0af4 01       		.byte	0x1
 7706 0af5 5306     		.2byte	0x653
 7707 0af7 F6050000 		.4byte	0x5f6
 7708 0afb 02       		.uleb128 0x2
ARM GAS  /tmp/cc34cfqS.s 			page 137


 7709 0afc 91       		.byte	0x91
 7710 0afd 7C       		.sleb128 -4
 7711 0afe 00       		.byte	0
 7712 0aff 18       		.uleb128 0x18
 7713 0b00 4F0A0000 		.4byte	.LASF128
 7714 0b04 01       		.byte	0x1
 7715 0b05 6706     		.2byte	0x667
 7716 0b07 31020000 		.4byte	0x231
 7717 0b0b E0170000 		.4byte	.LFB140
 7718 0b0f 4C000000 		.4byte	.LFE140-.LFB140
 7719 0b13 01       		.uleb128 0x1
 7720 0b14 9C       		.byte	0x9c
 7721 0b15 290B0000 		.4byte	0xb29
 7722 0b19 19       		.uleb128 0x19
 7723 0b1a 82020000 		.4byte	.LASF104
 7724 0b1e 01       		.byte	0x1
 7725 0b1f 6706     		.2byte	0x667
 7726 0b21 F6050000 		.4byte	0x5f6
 7727 0b25 02       		.uleb128 0x2
 7728 0b26 91       		.byte	0x91
 7729 0b27 74       		.sleb128 -12
 7730 0b28 00       		.byte	0
 7731 0b29 1F       		.uleb128 0x1f
 7732 0b2a 42020000 		.4byte	.LASF129
 7733 0b2e 01       		.byte	0x1
 7734 0b2f 8606     		.2byte	0x686
 7735 0b31 30180000 		.4byte	.LFB141
 7736 0b35 14010000 		.4byte	.LFE141-.LFB141
 7737 0b39 01       		.uleb128 0x1
 7738 0b3a 9C       		.byte	0x9c
 7739 0b3b C00B0000 		.4byte	0xbc0
 7740 0b3f 19       		.uleb128 0x19
 7741 0b40 82020000 		.4byte	.LASF104
 7742 0b44 01       		.byte	0x1
 7743 0b45 8606     		.2byte	0x686
 7744 0b47 F6050000 		.4byte	0x5f6
 7745 0b4b 02       		.uleb128 0x2
 7746 0b4c 91       		.byte	0x91
 7747 0b4d 5C       		.sleb128 -36
 7748 0b4e 1B       		.uleb128 0x1b
 7749 0b4f 55020000 		.4byte	.LASF130
 7750 0b53 01       		.byte	0x1
 7751 0b54 8806     		.2byte	0x688
 7752 0b56 CE000000 		.4byte	0xce
 7753 0b5a 02       		.uleb128 0x2
 7754 0b5b 91       		.byte	0x91
 7755 0b5c 74       		.sleb128 -12
 7756 0b5d 1B       		.uleb128 0x1b
 7757 0b5e 000B0000 		.4byte	.LASF131
 7758 0b62 01       		.byte	0x1
 7759 0b63 8906     		.2byte	0x689
 7760 0b65 CE000000 		.4byte	0xce
 7761 0b69 02       		.uleb128 0x2
 7762 0b6a 91       		.byte	0x91
 7763 0b6b 70       		.sleb128 -16
 7764 0b6c 20       		.uleb128 0x20
 7765 0b6d B8180000 		.4byte	.LBB3
ARM GAS  /tmp/cc34cfqS.s 			page 138


 7766 0b71 12000000 		.4byte	.LBE3-.LBB3
 7767 0b75 890B0000 		.4byte	0xb89
 7768 0b79 1B       		.uleb128 0x1b
 7769 0b7a 87020000 		.4byte	.LASF114
 7770 0b7e 01       		.byte	0x1
 7771 0b7f A306     		.2byte	0x6a3
 7772 0b81 E0000000 		.4byte	0xe0
 7773 0b85 02       		.uleb128 0x2
 7774 0b86 91       		.byte	0x91
 7775 0b87 6C       		.sleb128 -20
 7776 0b88 00       		.byte	0
 7777 0b89 20       		.uleb128 0x20
 7778 0b8a E4180000 		.4byte	.LBB4
 7779 0b8e 1A000000 		.4byte	.LBE4-.LBB4
 7780 0b92 A60B0000 		.4byte	0xba6
 7781 0b96 1B       		.uleb128 0x1b
 7782 0b97 87020000 		.4byte	.LASF114
 7783 0b9b 01       		.byte	0x1
 7784 0b9c AF06     		.2byte	0x6af
 7785 0b9e E0000000 		.4byte	0xe0
 7786 0ba2 02       		.uleb128 0x2
 7787 0ba3 91       		.byte	0x91
 7788 0ba4 68       		.sleb128 -24
 7789 0ba5 00       		.byte	0
 7790 0ba6 1D       		.uleb128 0x1d
 7791 0ba7 14190000 		.4byte	.LBB5
 7792 0bab 0A000000 		.4byte	.LBE5-.LBB5
 7793 0baf 1B       		.uleb128 0x1b
 7794 0bb0 87020000 		.4byte	.LASF114
 7795 0bb4 01       		.byte	0x1
 7796 0bb5 B606     		.2byte	0x6b6
 7797 0bb7 E0000000 		.4byte	0xe0
 7798 0bbb 02       		.uleb128 0x2
 7799 0bbc 91       		.byte	0x91
 7800 0bbd 64       		.sleb128 -28
 7801 0bbe 00       		.byte	0
 7802 0bbf 00       		.byte	0
 7803 0bc0 1A       		.uleb128 0x1a
 7804 0bc1 F5080000 		.4byte	.LASF132
 7805 0bc5 01       		.byte	0x1
 7806 0bc6 C606     		.2byte	0x6c6
 7807 0bc8 50190000 		.4byte	.LFB142
 7808 0bcc 08000000 		.4byte	.LFE142-.LFB142
 7809 0bd0 01       		.uleb128 0x1
 7810 0bd1 9C       		.byte	0x9c
 7811 0bd2 E60B0000 		.4byte	0xbe6
 7812 0bd6 19       		.uleb128 0x19
 7813 0bd7 82020000 		.4byte	.LASF104
 7814 0bdb 01       		.byte	0x1
 7815 0bdc C606     		.2byte	0x6c6
 7816 0bde F6050000 		.4byte	0x5f6
 7817 0be2 02       		.uleb128 0x2
 7818 0be3 91       		.byte	0x91
 7819 0be4 7C       		.sleb128 -4
 7820 0be5 00       		.byte	0
 7821 0be6 1A       		.uleb128 0x1a
 7822 0be7 50010000 		.4byte	.LASF133
ARM GAS  /tmp/cc34cfqS.s 			page 139


 7823 0beb 01       		.byte	0x1
 7824 0bec D606     		.2byte	0x6d6
 7825 0bee 60190000 		.4byte	.LFB143
 7826 0bf2 08000000 		.4byte	.LFE143-.LFB143
 7827 0bf6 01       		.uleb128 0x1
 7828 0bf7 9C       		.byte	0x9c
 7829 0bf8 0C0C0000 		.4byte	0xc0c
 7830 0bfc 19       		.uleb128 0x19
 7831 0bfd 82020000 		.4byte	.LASF104
 7832 0c01 01       		.byte	0x1
 7833 0c02 D606     		.2byte	0x6d6
 7834 0c04 F6050000 		.4byte	0x5f6
 7835 0c08 02       		.uleb128 0x2
 7836 0c09 91       		.byte	0x91
 7837 0c0a 7C       		.sleb128 -4
 7838 0c0b 00       		.byte	0
 7839 0c0c 1A       		.uleb128 0x1a
 7840 0c0d 19040000 		.4byte	.LASF134
 7841 0c11 01       		.byte	0x1
 7842 0c12 E606     		.2byte	0x6e6
 7843 0c14 70190000 		.4byte	.LFB144
 7844 0c18 08000000 		.4byte	.LFE144-.LFB144
 7845 0c1c 01       		.uleb128 0x1
 7846 0c1d 9C       		.byte	0x9c
 7847 0c1e 320C0000 		.4byte	0xc32
 7848 0c22 19       		.uleb128 0x19
 7849 0c23 82020000 		.4byte	.LASF104
 7850 0c27 01       		.byte	0x1
 7851 0c28 E606     		.2byte	0x6e6
 7852 0c2a F6050000 		.4byte	0x5f6
 7853 0c2e 02       		.uleb128 0x2
 7854 0c2f 91       		.byte	0x91
 7855 0c30 7C       		.sleb128 -4
 7856 0c31 00       		.byte	0
 7857 0c32 1A       		.uleb128 0x1a
 7858 0c33 A4080000 		.4byte	.LASF135
 7859 0c37 01       		.byte	0x1
 7860 0c38 F606     		.2byte	0x6f6
 7861 0c3a 80190000 		.4byte	.LFB145
 7862 0c3e 08000000 		.4byte	.LFE145-.LFB145
 7863 0c42 01       		.uleb128 0x1
 7864 0c43 9C       		.byte	0x9c
 7865 0c44 580C0000 		.4byte	0xc58
 7866 0c48 19       		.uleb128 0x19
 7867 0c49 82020000 		.4byte	.LASF104
 7868 0c4d 01       		.byte	0x1
 7869 0c4e F606     		.2byte	0x6f6
 7870 0c50 F6050000 		.4byte	0x5f6
 7871 0c54 02       		.uleb128 0x2
 7872 0c55 91       		.byte	0x91
 7873 0c56 7C       		.sleb128 -4
 7874 0c57 00       		.byte	0
 7875 0c58 1A       		.uleb128 0x1a
 7876 0c59 12020000 		.4byte	.LASF136
 7877 0c5d 01       		.byte	0x1
 7878 0c5e 0607     		.2byte	0x706
 7879 0c60 90190000 		.4byte	.LFB146
ARM GAS  /tmp/cc34cfqS.s 			page 140


 7880 0c64 08000000 		.4byte	.LFE146-.LFB146
 7881 0c68 01       		.uleb128 0x1
 7882 0c69 9C       		.byte	0x9c
 7883 0c6a 7E0C0000 		.4byte	0xc7e
 7884 0c6e 19       		.uleb128 0x19
 7885 0c6f 82020000 		.4byte	.LASF104
 7886 0c73 01       		.byte	0x1
 7887 0c74 0607     		.2byte	0x706
 7888 0c76 F6050000 		.4byte	0x5f6
 7889 0c7a 02       		.uleb128 0x2
 7890 0c7b 91       		.byte	0x91
 7891 0c7c 7C       		.sleb128 -4
 7892 0c7d 00       		.byte	0
 7893 0c7e 1A       		.uleb128 0x1a
 7894 0c7f FC030000 		.4byte	.LASF137
 7895 0c83 01       		.byte	0x1
 7896 0c84 1607     		.2byte	0x716
 7897 0c86 A0190000 		.4byte	.LFB147
 7898 0c8a 08000000 		.4byte	.LFE147-.LFB147
 7899 0c8e 01       		.uleb128 0x1
 7900 0c8f 9C       		.byte	0x9c
 7901 0c90 A40C0000 		.4byte	0xca4
 7902 0c94 19       		.uleb128 0x19
 7903 0c95 82020000 		.4byte	.LASF104
 7904 0c99 01       		.byte	0x1
 7905 0c9a 1607     		.2byte	0x716
 7906 0c9c F6050000 		.4byte	0x5f6
 7907 0ca0 02       		.uleb128 0x2
 7908 0ca1 91       		.byte	0x91
 7909 0ca2 7C       		.sleb128 -4
 7910 0ca3 00       		.byte	0
 7911 0ca4 1A       		.uleb128 0x1a
 7912 0ca5 95050000 		.4byte	.LASF138
 7913 0ca9 01       		.byte	0x1
 7914 0caa 2607     		.2byte	0x726
 7915 0cac B0190000 		.4byte	.LFB148
 7916 0cb0 08000000 		.4byte	.LFE148-.LFB148
 7917 0cb4 01       		.uleb128 0x1
 7918 0cb5 9C       		.byte	0x9c
 7919 0cb6 CA0C0000 		.4byte	0xcca
 7920 0cba 19       		.uleb128 0x19
 7921 0cbb 82020000 		.4byte	.LASF104
 7922 0cbf 01       		.byte	0x1
 7923 0cc0 2607     		.2byte	0x726
 7924 0cc2 F6050000 		.4byte	0x5f6
 7925 0cc6 02       		.uleb128 0x2
 7926 0cc7 91       		.byte	0x91
 7927 0cc8 7C       		.sleb128 -4
 7928 0cc9 00       		.byte	0
 7929 0cca 1E       		.uleb128 0x1e
 7930 0ccb 84040000 		.4byte	.LASF139
 7931 0ccf 01       		.byte	0x1
 7932 0cd0 4C07     		.2byte	0x74c
 7933 0cd2 BB040000 		.4byte	0x4bb
 7934 0cd6 C0190000 		.4byte	.LFB149
 7935 0cda 12000000 		.4byte	.LFE149-.LFB149
 7936 0cde 01       		.uleb128 0x1
ARM GAS  /tmp/cc34cfqS.s 			page 141


 7937 0cdf 9C       		.byte	0x9c
 7938 0ce0 F40C0000 		.4byte	0xcf4
 7939 0ce4 19       		.uleb128 0x19
 7940 0ce5 82020000 		.4byte	.LASF104
 7941 0ce9 01       		.byte	0x1
 7942 0cea 4C07     		.2byte	0x74c
 7943 0cec F6050000 		.4byte	0x5f6
 7944 0cf0 02       		.uleb128 0x2
 7945 0cf1 91       		.byte	0x91
 7946 0cf2 7C       		.sleb128 -4
 7947 0cf3 00       		.byte	0
 7948 0cf4 1E       		.uleb128 0x1e
 7949 0cf5 27090000 		.4byte	.LASF140
 7950 0cf9 01       		.byte	0x1
 7951 0cfa 5807     		.2byte	0x758
 7952 0cfc CE000000 		.4byte	0xce
 7953 0d00 E0190000 		.4byte	.LFB150
 7954 0d04 0E000000 		.4byte	.LFE150-.LFB150
 7955 0d08 01       		.uleb128 0x1
 7956 0d09 9C       		.byte	0x9c
 7957 0d0a 1E0D0000 		.4byte	0xd1e
 7958 0d0e 19       		.uleb128 0x19
 7959 0d0f 82020000 		.4byte	.LASF104
 7960 0d13 01       		.byte	0x1
 7961 0d14 5807     		.2byte	0x758
 7962 0d16 F6050000 		.4byte	0x5f6
 7963 0d1a 02       		.uleb128 0x2
 7964 0d1b 91       		.byte	0x91
 7965 0d1c 7C       		.sleb128 -4
 7966 0d1d 00       		.byte	0
 7967 0d1e 21       		.uleb128 0x21
 7968 0d1f 72070000 		.4byte	.LASF142
 7969 0d23 01       		.byte	0x1
 7970 0d24 7107     		.2byte	0x771
 7971 0d26 F0190000 		.4byte	.LFB151
 7972 0d2a 82000000 		.4byte	.LFE151-.LFB151
 7973 0d2e 01       		.uleb128 0x1
 7974 0d2f 9C       		.byte	0x9c
 7975 0d30 6C0D0000 		.4byte	0xd6c
 7976 0d34 19       		.uleb128 0x19
 7977 0d35 6B050000 		.4byte	.LASF141
 7978 0d39 01       		.byte	0x1
 7979 0d3a 7107     		.2byte	0x771
 7980 0d3c CC030000 		.4byte	0x3cc
 7981 0d40 02       		.uleb128 0x2
 7982 0d41 91       		.byte	0x91
 7983 0d42 6C       		.sleb128 -20
 7984 0d43 1B       		.uleb128 0x1b
 7985 0d44 82020000 		.4byte	.LASF104
 7986 0d48 01       		.byte	0x1
 7987 0d49 7307     		.2byte	0x773
 7988 0d4b F6050000 		.4byte	0x5f6
 7989 0d4f 02       		.uleb128 0x2
 7990 0d50 91       		.byte	0x91
 7991 0d51 74       		.sleb128 -12
 7992 0d52 1D       		.uleb128 0x1d
 7993 0d53 361A0000 		.4byte	.LBB6
ARM GAS  /tmp/cc34cfqS.s 			page 142


 7994 0d57 12000000 		.4byte	.LBE6-.LBB6
 7995 0d5b 1B       		.uleb128 0x1b
 7996 0d5c 87020000 		.4byte	.LASF114
 7997 0d60 01       		.byte	0x1
 7998 0d61 8307     		.2byte	0x783
 7999 0d63 E0000000 		.4byte	0xe0
 8000 0d67 02       		.uleb128 0x2
 8001 0d68 91       		.byte	0x91
 8002 0d69 70       		.sleb128 -16
 8003 0d6a 00       		.byte	0
 8004 0d6b 00       		.byte	0
 8005 0d6c 21       		.uleb128 0x21
 8006 0d6d 7B030000 		.4byte	.LASF143
 8007 0d71 01       		.byte	0x1
 8008 0d72 9807     		.2byte	0x798
 8009 0d74 801A0000 		.4byte	.LFB152
 8010 0d78 22010000 		.4byte	.LFE152-.LFB152
 8011 0d7c 01       		.uleb128 0x1
 8012 0d7d 9C       		.byte	0x9c
 8013 0d7e BA0D0000 		.4byte	0xdba
 8014 0d82 19       		.uleb128 0x19
 8015 0d83 6B050000 		.4byte	.LASF141
 8016 0d87 01       		.byte	0x1
 8017 0d88 9807     		.2byte	0x798
 8018 0d8a CC030000 		.4byte	0x3cc
 8019 0d8e 02       		.uleb128 0x2
 8020 0d8f 91       		.byte	0x91
 8021 0d90 6C       		.sleb128 -20
 8022 0d91 1B       		.uleb128 0x1b
 8023 0d92 82020000 		.4byte	.LASF104
 8024 0d96 01       		.byte	0x1
 8025 0d97 9A07     		.2byte	0x79a
 8026 0d99 F6050000 		.4byte	0x5f6
 8027 0d9d 02       		.uleb128 0x2
 8028 0d9e 91       		.byte	0x91
 8029 0d9f 74       		.sleb128 -12
 8030 0da0 1D       		.uleb128 0x1d
 8031 0da1 9A1A0000 		.4byte	.LBB7
 8032 0da5 FC000000 		.4byte	.LBE7-.LBB7
 8033 0da9 1B       		.uleb128 0x1b
 8034 0daa 87020000 		.4byte	.LASF114
 8035 0dae 01       		.byte	0x1
 8036 0daf 9E07     		.2byte	0x79e
 8037 0db1 EA000000 		.4byte	0xea
 8038 0db5 02       		.uleb128 0x2
 8039 0db6 91       		.byte	0x91
 8040 0db7 72       		.sleb128 -14
 8041 0db8 00       		.byte	0
 8042 0db9 00       		.byte	0
 8043 0dba 21       		.uleb128 0x21
 8044 0dbb 41070000 		.4byte	.LASF144
 8045 0dbf 01       		.byte	0x1
 8046 0dc0 E207     		.2byte	0x7e2
 8047 0dc2 B01B0000 		.4byte	.LFB153
 8048 0dc6 18010000 		.4byte	.LFE153-.LFB153
 8049 0dca 01       		.uleb128 0x1
 8050 0dcb 9C       		.byte	0x9c
ARM GAS  /tmp/cc34cfqS.s 			page 143


 8051 0dcc 080E0000 		.4byte	0xe08
 8052 0dd0 19       		.uleb128 0x19
 8053 0dd1 6B050000 		.4byte	.LASF141
 8054 0dd5 01       		.byte	0x1
 8055 0dd6 E207     		.2byte	0x7e2
 8056 0dd8 CC030000 		.4byte	0x3cc
 8057 0ddc 02       		.uleb128 0x2
 8058 0ddd 91       		.byte	0x91
 8059 0dde 6C       		.sleb128 -20
 8060 0ddf 1B       		.uleb128 0x1b
 8061 0de0 82020000 		.4byte	.LASF104
 8062 0de4 01       		.byte	0x1
 8063 0de5 E407     		.2byte	0x7e4
 8064 0de7 F6050000 		.4byte	0x5f6
 8065 0deb 02       		.uleb128 0x2
 8066 0dec 91       		.byte	0x91
 8067 0ded 74       		.sleb128 -12
 8068 0dee 1D       		.uleb128 0x1d
 8069 0def CA1B0000 		.4byte	.LBB8
 8070 0df3 F2000000 		.4byte	.LBE8-.LBB8
 8071 0df7 1B       		.uleb128 0x1b
 8072 0df8 87020000 		.4byte	.LASF114
 8073 0dfc 01       		.byte	0x1
 8074 0dfd E807     		.2byte	0x7e8
 8075 0dff 080E0000 		.4byte	0xe08
 8076 0e03 02       		.uleb128 0x2
 8077 0e04 91       		.byte	0x91
 8078 0e05 72       		.sleb128 -14
 8079 0e06 00       		.byte	0
 8080 0e07 00       		.byte	0
 8081 0e08 05       		.uleb128 0x5
 8082 0e09 AD000000 		.4byte	0xad
 8083 0e0d 21       		.uleb128 0x21
 8084 0e0e FE000000 		.4byte	.LASF145
 8085 0e12 01       		.byte	0x1
 8086 0e13 2508     		.2byte	0x825
 8087 0e15 D01C0000 		.4byte	.LFB154
 8088 0e19 18000000 		.4byte	.LFE154-.LFB154
 8089 0e1d 01       		.uleb128 0x1
 8090 0e1e 9C       		.byte	0x9c
 8091 0e1f 420E0000 		.4byte	0xe42
 8092 0e23 19       		.uleb128 0x19
 8093 0e24 6B050000 		.4byte	.LASF141
 8094 0e28 01       		.byte	0x1
 8095 0e29 2508     		.2byte	0x825
 8096 0e2b CC030000 		.4byte	0x3cc
 8097 0e2f 02       		.uleb128 0x2
 8098 0e30 91       		.byte	0x91
 8099 0e31 6C       		.sleb128 -20
 8100 0e32 1B       		.uleb128 0x1b
 8101 0e33 82020000 		.4byte	.LASF104
 8102 0e37 01       		.byte	0x1
 8103 0e38 2708     		.2byte	0x827
 8104 0e3a F6050000 		.4byte	0x5f6
 8105 0e3e 02       		.uleb128 0x2
 8106 0e3f 91       		.byte	0x91
 8107 0e40 74       		.sleb128 -12
ARM GAS  /tmp/cc34cfqS.s 			page 144


 8108 0e41 00       		.byte	0
 8109 0e42 21       		.uleb128 0x21
 8110 0e43 00070000 		.4byte	.LASF146
 8111 0e47 01       		.byte	0x1
 8112 0e48 3208     		.2byte	0x832
 8113 0e4a F01C0000 		.4byte	.LFB155
 8114 0e4e 18000000 		.4byte	.LFE155-.LFB155
 8115 0e52 01       		.uleb128 0x1
 8116 0e53 9C       		.byte	0x9c
 8117 0e54 770E0000 		.4byte	0xe77
 8118 0e58 19       		.uleb128 0x19
 8119 0e59 6B050000 		.4byte	.LASF141
 8120 0e5d 01       		.byte	0x1
 8121 0e5e 3208     		.2byte	0x832
 8122 0e60 CC030000 		.4byte	0x3cc
 8123 0e64 02       		.uleb128 0x2
 8124 0e65 91       		.byte	0x91
 8125 0e66 6C       		.sleb128 -20
 8126 0e67 1B       		.uleb128 0x1b
 8127 0e68 82020000 		.4byte	.LASF104
 8128 0e6c 01       		.byte	0x1
 8129 0e6d 3408     		.2byte	0x834
 8130 0e6f F6050000 		.4byte	0x5f6
 8131 0e73 02       		.uleb128 0x2
 8132 0e74 91       		.byte	0x91
 8133 0e75 74       		.sleb128 -12
 8134 0e76 00       		.byte	0
 8135 0e77 21       		.uleb128 0x21
 8136 0e78 AE010000 		.4byte	.LASF147
 8137 0e7c 01       		.byte	0x1
 8138 0e7d 3F08     		.2byte	0x83f
 8139 0e7f 101D0000 		.4byte	.LFB156
 8140 0e83 18000000 		.4byte	.LFE156-.LFB156
 8141 0e87 01       		.uleb128 0x1
 8142 0e88 9C       		.byte	0x9c
 8143 0e89 AC0E0000 		.4byte	0xeac
 8144 0e8d 19       		.uleb128 0x19
 8145 0e8e 6B050000 		.4byte	.LASF141
 8146 0e92 01       		.byte	0x1
 8147 0e93 3F08     		.2byte	0x83f
 8148 0e95 CC030000 		.4byte	0x3cc
 8149 0e99 02       		.uleb128 0x2
 8150 0e9a 91       		.byte	0x91
 8151 0e9b 6C       		.sleb128 -20
 8152 0e9c 1B       		.uleb128 0x1b
 8153 0e9d 82020000 		.4byte	.LASF104
 8154 0ea1 01       		.byte	0x1
 8155 0ea2 4108     		.2byte	0x841
 8156 0ea4 F6050000 		.4byte	0x5f6
 8157 0ea8 02       		.uleb128 0x2
 8158 0ea9 91       		.byte	0x91
 8159 0eaa 74       		.sleb128 -12
 8160 0eab 00       		.byte	0
 8161 0eac 21       		.uleb128 0x21
 8162 0ead 75020000 		.4byte	.LASF148
 8163 0eb1 01       		.byte	0x1
 8164 0eb2 4C08     		.2byte	0x84c
ARM GAS  /tmp/cc34cfqS.s 			page 145


 8165 0eb4 301D0000 		.4byte	.LFB157
 8166 0eb8 3C000000 		.4byte	.LFE157-.LFB157
 8167 0ebc 01       		.uleb128 0x1
 8168 0ebd 9C       		.byte	0x9c
 8169 0ebe E10E0000 		.4byte	0xee1
 8170 0ec2 19       		.uleb128 0x19
 8171 0ec3 6B050000 		.4byte	.LASF141
 8172 0ec7 01       		.byte	0x1
 8173 0ec8 4C08     		.2byte	0x84c
 8174 0eca CC030000 		.4byte	0x3cc
 8175 0ece 02       		.uleb128 0x2
 8176 0ecf 91       		.byte	0x91
 8177 0ed0 6C       		.sleb128 -20
 8178 0ed1 1B       		.uleb128 0x1b
 8179 0ed2 82020000 		.4byte	.LASF104
 8180 0ed6 01       		.byte	0x1
 8181 0ed7 4E08     		.2byte	0x84e
 8182 0ed9 F6050000 		.4byte	0x5f6
 8183 0edd 02       		.uleb128 0x2
 8184 0ede 91       		.byte	0x91
 8185 0edf 74       		.sleb128 -12
 8186 0ee0 00       		.byte	0
 8187 0ee1 21       		.uleb128 0x21
 8188 0ee2 9E020000 		.4byte	.LASF149
 8189 0ee6 01       		.byte	0x1
 8190 0ee7 5E08     		.2byte	0x85e
 8191 0ee9 701D0000 		.4byte	.LFB158
 8192 0eed D0000000 		.4byte	.LFE158-.LFB158
 8193 0ef1 01       		.uleb128 0x1
 8194 0ef2 9C       		.byte	0x9c
 8195 0ef3 070F0000 		.4byte	0xf07
 8196 0ef7 19       		.uleb128 0x19
 8197 0ef8 82020000 		.4byte	.LASF104
 8198 0efc 01       		.byte	0x1
 8199 0efd 5E08     		.2byte	0x85e
 8200 0eff A4050000 		.4byte	0x5a4
 8201 0f03 02       		.uleb128 0x2
 8202 0f04 91       		.byte	0x91
 8203 0f05 74       		.sleb128 -12
 8204 0f06 00       		.byte	0
 8205 0f07 21       		.uleb128 0x21
 8206 0f08 F0090000 		.4byte	.LASF150
 8207 0f0c 01       		.byte	0x1
 8208 0f0d 8D08     		.2byte	0x88d
 8209 0f0f 401E0000 		.4byte	.LFB159
 8210 0f13 4E000000 		.4byte	.LFE159-.LFB159
 8211 0f17 01       		.uleb128 0x1
 8212 0f18 9C       		.byte	0x9c
 8213 0f19 3C0F0000 		.4byte	0xf3c
 8214 0f1d 19       		.uleb128 0x19
 8215 0f1e 82020000 		.4byte	.LASF104
 8216 0f22 01       		.byte	0x1
 8217 0f23 8D08     		.2byte	0x88d
 8218 0f25 A4050000 		.4byte	0x5a4
 8219 0f29 02       		.uleb128 0x2
 8220 0f2a 91       		.byte	0x91
 8221 0f2b 6C       		.sleb128 -20
ARM GAS  /tmp/cc34cfqS.s 			page 146


 8222 0f2c 1B       		.uleb128 0x1b
 8223 0f2d 87020000 		.4byte	.LASF114
 8224 0f31 01       		.byte	0x1
 8225 0f32 8F08     		.2byte	0x88f
 8226 0f34 E5000000 		.4byte	0xe5
 8227 0f38 02       		.uleb128 0x2
 8228 0f39 91       		.byte	0x91
 8229 0f3a 77       		.sleb128 -9
 8230 0f3b 00       		.byte	0
 8231 0f3c 21       		.uleb128 0x21
 8232 0f3d 95030000 		.4byte	.LASF151
 8233 0f41 01       		.byte	0x1
 8234 0f42 A708     		.2byte	0x8a7
 8235 0f44 901E0000 		.4byte	.LFB160
 8236 0f48 9C000000 		.4byte	.LFE160-.LFB160
 8237 0f4c 01       		.uleb128 0x1
 8238 0f4d 9C       		.byte	0x9c
 8239 0f4e 620F0000 		.4byte	0xf62
 8240 0f52 19       		.uleb128 0x19
 8241 0f53 82020000 		.4byte	.LASF104
 8242 0f57 01       		.byte	0x1
 8243 0f58 A708     		.2byte	0x8a7
 8244 0f5a A4050000 		.4byte	0x5a4
 8245 0f5e 02       		.uleb128 0x2
 8246 0f5f 91       		.byte	0x91
 8247 0f60 74       		.sleb128 -12
 8248 0f61 00       		.byte	0
 8249 0f62 21       		.uleb128 0x21
 8250 0f63 CD010000 		.4byte	.LASF152
 8251 0f67 01       		.byte	0x1
 8252 0f68 CE08     		.2byte	0x8ce
 8253 0f6a 301F0000 		.4byte	.LFB161
 8254 0f6e 74000000 		.4byte	.LFE161-.LFB161
 8255 0f72 01       		.uleb128 0x1
 8256 0f73 9C       		.byte	0x9c
 8257 0f74 880F0000 		.4byte	0xf88
 8258 0f78 19       		.uleb128 0x19
 8259 0f79 82020000 		.4byte	.LASF104
 8260 0f7d 01       		.byte	0x1
 8261 0f7e CE08     		.2byte	0x8ce
 8262 0f80 A4050000 		.4byte	0x5a4
 8263 0f84 02       		.uleb128 0x2
 8264 0f85 91       		.byte	0x91
 8265 0f86 74       		.sleb128 -12
 8266 0f87 00       		.byte	0
 8267 0f88 21       		.uleb128 0x21
 8268 0f89 FC040000 		.4byte	.LASF153
 8269 0f8d 01       		.byte	0x1
 8270 0f8e ED08     		.2byte	0x8ed
 8271 0f90 B01F0000 		.4byte	.LFB162
 8272 0f94 32000000 		.4byte	.LFE162-.LFB162
 8273 0f98 01       		.uleb128 0x1
 8274 0f99 9C       		.byte	0x9c
 8275 0f9a BD0F0000 		.4byte	0xfbd
 8276 0f9e 19       		.uleb128 0x19
 8277 0f9f 82020000 		.4byte	.LASF104
 8278 0fa3 01       		.byte	0x1
ARM GAS  /tmp/cc34cfqS.s 			page 147


 8279 0fa4 ED08     		.2byte	0x8ed
 8280 0fa6 A4050000 		.4byte	0x5a4
 8281 0faa 02       		.uleb128 0x2
 8282 0fab 91       		.byte	0x91
 8283 0fac 6C       		.sleb128 -20
 8284 0fad 1B       		.uleb128 0x1b
 8285 0fae 87020000 		.4byte	.LASF114
 8286 0fb2 01       		.byte	0x1
 8287 0fb3 F008     		.2byte	0x8f0
 8288 0fb5 EA000000 		.4byte	0xea
 8289 0fb9 02       		.uleb128 0x2
 8290 0fba 91       		.byte	0x91
 8291 0fbb 76       		.sleb128 -10
 8292 0fbc 00       		.byte	0
 8293 0fbd 21       		.uleb128 0x21
 8294 0fbe CF030000 		.4byte	.LASF154
 8295 0fc2 01       		.byte	0x1
 8296 0fc3 FF08     		.2byte	0x8ff
 8297 0fc5 F01F0000 		.4byte	.LFB163
 8298 0fc9 70000000 		.4byte	.LFE163-.LFB163
 8299 0fcd 01       		.uleb128 0x1
 8300 0fce 9C       		.byte	0x9c
 8301 0fcf E30F0000 		.4byte	0xfe3
 8302 0fd3 19       		.uleb128 0x19
 8303 0fd4 82020000 		.4byte	.LASF104
 8304 0fd8 01       		.byte	0x1
 8305 0fd9 FF08     		.2byte	0x8ff
 8306 0fdb A4050000 		.4byte	0x5a4
 8307 0fdf 02       		.uleb128 0x2
 8308 0fe0 91       		.byte	0x91
 8309 0fe1 74       		.sleb128 -12
 8310 0fe2 00       		.byte	0
 8311 0fe3 21       		.uleb128 0x21
 8312 0fe4 87090000 		.4byte	.LASF155
 8313 0fe8 01       		.byte	0x1
 8314 0fe9 1D09     		.2byte	0x91d
 8315 0feb 60200000 		.4byte	.LFB164
 8316 0fef 34000000 		.4byte	.LFE164-.LFB164
 8317 0ff3 01       		.uleb128 0x1
 8318 0ff4 9C       		.byte	0x9c
 8319 0ff5 18100000 		.4byte	0x1018
 8320 0ff9 19       		.uleb128 0x19
 8321 0ffa 82020000 		.4byte	.LASF104
 8322 0ffe 01       		.byte	0x1
 8323 0fff 1D09     		.2byte	0x91d
 8324 1001 A4050000 		.4byte	0x5a4
 8325 1005 02       		.uleb128 0x2
 8326 1006 91       		.byte	0x91
 8327 1007 6C       		.sleb128 -20
 8328 1008 1B       		.uleb128 0x1b
 8329 1009 87020000 		.4byte	.LASF114
 8330 100d 01       		.byte	0x1
 8331 100e 1F09     		.2byte	0x91f
 8332 1010 E5000000 		.4byte	0xe5
 8333 1014 02       		.uleb128 0x2
 8334 1015 91       		.byte	0x91
 8335 1016 77       		.sleb128 -9
ARM GAS  /tmp/cc34cfqS.s 			page 148


 8336 1017 00       		.byte	0
 8337 1018 21       		.uleb128 0x21
 8338 1019 EA050000 		.4byte	.LASF156
 8339 101d 01       		.byte	0x1
 8340 101e 3009     		.2byte	0x930
 8341 1020 A0200000 		.4byte	.LFB165
 8342 1024 7C000000 		.4byte	.LFE165-.LFB165
 8343 1028 01       		.uleb128 0x1
 8344 1029 9C       		.byte	0x9c
 8345 102a 3E100000 		.4byte	0x103e
 8346 102e 19       		.uleb128 0x19
 8347 102f 82020000 		.4byte	.LASF104
 8348 1033 01       		.byte	0x1
 8349 1034 3009     		.2byte	0x930
 8350 1036 A4050000 		.4byte	0x5a4
 8351 103a 02       		.uleb128 0x2
 8352 103b 91       		.byte	0x91
 8353 103c 74       		.sleb128 -12
 8354 103d 00       		.byte	0
 8355 103e 21       		.uleb128 0x21
 8356 103f A3090000 		.4byte	.LASF157
 8357 1043 01       		.byte	0x1
 8358 1044 4C09     		.2byte	0x94c
 8359 1046 20210000 		.4byte	.LFB166
 8360 104a 32000000 		.4byte	.LFE166-.LFB166
 8361 104e 01       		.uleb128 0x1
 8362 104f 9C       		.byte	0x9c
 8363 1050 73100000 		.4byte	0x1073
 8364 1054 19       		.uleb128 0x19
 8365 1055 82020000 		.4byte	.LASF104
 8366 1059 01       		.byte	0x1
 8367 105a 4C09     		.2byte	0x94c
 8368 105c A4050000 		.4byte	0x5a4
 8369 1060 02       		.uleb128 0x2
 8370 1061 91       		.byte	0x91
 8371 1062 6C       		.sleb128 -20
 8372 1063 1B       		.uleb128 0x1b
 8373 1064 87020000 		.4byte	.LASF114
 8374 1068 01       		.byte	0x1
 8375 1069 4E09     		.2byte	0x94e
 8376 106b EA000000 		.4byte	0xea
 8377 106f 02       		.uleb128 0x2
 8378 1070 91       		.byte	0x91
 8379 1071 76       		.sleb128 -10
 8380 1072 00       		.byte	0
 8381 1073 21       		.uleb128 0x21
 8382 1074 10080000 		.4byte	.LASF158
 8383 1078 01       		.byte	0x1
 8384 1079 5F09     		.2byte	0x95f
 8385 107b 60210000 		.4byte	.LFB167
 8386 107f 80000000 		.4byte	.LFE167-.LFB167
 8387 1083 01       		.uleb128 0x1
 8388 1084 9C       		.byte	0x9c
 8389 1085 99100000 		.4byte	0x1099
 8390 1089 19       		.uleb128 0x19
 8391 108a 82020000 		.4byte	.LASF104
 8392 108e 01       		.byte	0x1
ARM GAS  /tmp/cc34cfqS.s 			page 149


 8393 108f 5F09     		.2byte	0x95f
 8394 1091 A4050000 		.4byte	0x5a4
 8395 1095 02       		.uleb128 0x2
 8396 1096 91       		.byte	0x91
 8397 1097 74       		.sleb128 -12
 8398 1098 00       		.byte	0
 8399 1099 21       		.uleb128 0x21
 8400 109a 1C030000 		.4byte	.LASF159
 8401 109e 01       		.byte	0x1
 8402 109f 7C09     		.2byte	0x97c
 8403 10a1 E0210000 		.4byte	.LFB168
 8404 10a5 56000000 		.4byte	.LFE168-.LFB168
 8405 10a9 01       		.uleb128 0x1
 8406 10aa 9C       		.byte	0x9c
 8407 10ab BF100000 		.4byte	0x10bf
 8408 10af 19       		.uleb128 0x19
 8409 10b0 82020000 		.4byte	.LASF104
 8410 10b4 01       		.byte	0x1
 8411 10b5 7C09     		.2byte	0x97c
 8412 10b7 A4050000 		.4byte	0x5a4
 8413 10bb 02       		.uleb128 0x2
 8414 10bc 91       		.byte	0x91
 8415 10bd 74       		.sleb128 -12
 8416 10be 00       		.byte	0
 8417 10bf 21       		.uleb128 0x21
 8418 10c0 C0060000 		.4byte	.LASF160
 8419 10c4 01       		.byte	0x1
 8420 10c5 9309     		.2byte	0x993
 8421 10c7 40220000 		.4byte	.LFB169
 8422 10cb 56000000 		.4byte	.LFE169-.LFB169
 8423 10cf 01       		.uleb128 0x1
 8424 10d0 9C       		.byte	0x9c
 8425 10d1 E5100000 		.4byte	0x10e5
 8426 10d5 19       		.uleb128 0x19
 8427 10d6 82020000 		.4byte	.LASF104
 8428 10da 01       		.byte	0x1
 8429 10db 9309     		.2byte	0x993
 8430 10dd A4050000 		.4byte	0x5a4
 8431 10e1 02       		.uleb128 0x2
 8432 10e2 91       		.byte	0x91
 8433 10e3 74       		.sleb128 -12
 8434 10e4 00       		.byte	0
 8435 10e5 22       		.uleb128 0x22
 8436 10e6 B4050000 		.4byte	.LASF162
 8437 10ea 01       		.byte	0x1
 8438 10eb AE09     		.2byte	0x9ae
 8439 10ed 31020000 		.4byte	0x231
 8440 10f1 A0220000 		.4byte	.LFB170
 8441 10f5 CA000000 		.4byte	.LFE170-.LFB170
 8442 10f9 01       		.uleb128 0x1
 8443 10fa 9C       		.byte	0x9c
 8444 10fb 4B110000 		.4byte	0x114b
 8445 10ff 19       		.uleb128 0x19
 8446 1100 82020000 		.4byte	.LASF104
 8447 1104 01       		.byte	0x1
 8448 1105 AE09     		.2byte	0x9ae
 8449 1107 F6050000 		.4byte	0x5f6
ARM GAS  /tmp/cc34cfqS.s 			page 150


 8450 110b 02       		.uleb128 0x2
 8451 110c 91       		.byte	0x91
 8452 110d 6C       		.sleb128 -20
 8453 110e 19       		.uleb128 0x19
 8454 110f F9020000 		.4byte	.LASF161
 8455 1113 01       		.byte	0x1
 8456 1114 AE09     		.2byte	0x9ae
 8457 1116 CE000000 		.4byte	0xce
 8458 111a 02       		.uleb128 0x2
 8459 111b 91       		.byte	0x91
 8460 111c 68       		.sleb128 -24
 8461 111d 19       		.uleb128 0x19
 8462 111e BF080000 		.4byte	.LASF59
 8463 1122 01       		.byte	0x1
 8464 1123 AE09     		.2byte	0x9ae
 8465 1125 CE000000 		.4byte	0xce
 8466 1129 02       		.uleb128 0x2
 8467 112a 91       		.byte	0x91
 8468 112b 64       		.sleb128 -28
 8469 112c 19       		.uleb128 0x19
 8470 112d 57030000 		.4byte	.LASF110
 8471 1131 01       		.byte	0x1
 8472 1132 AE09     		.2byte	0x9ae
 8473 1134 CE000000 		.4byte	0xce
 8474 1138 02       		.uleb128 0x2
 8475 1139 91       		.byte	0x91
 8476 113a 60       		.sleb128 -32
 8477 113b 1B       		.uleb128 0x1b
 8478 113c C2070000 		.4byte	.LASF112
 8479 1140 01       		.byte	0x1
 8480 1141 B009     		.2byte	0x9b0
 8481 1143 CE000000 		.4byte	0xce
 8482 1147 02       		.uleb128 0x2
 8483 1148 91       		.byte	0x91
 8484 1149 74       		.sleb128 -12
 8485 114a 00       		.byte	0
 8486 114b 22       		.uleb128 0x22
 8487 114c 7B0A0000 		.4byte	.LASF163
 8488 1150 01       		.byte	0x1
 8489 1151 E109     		.2byte	0x9e1
 8490 1153 31020000 		.4byte	0x231
 8491 1157 70230000 		.4byte	.LFB171
 8492 115b EA000000 		.4byte	.LFE171-.LFB171
 8493 115f 01       		.uleb128 0x1
 8494 1160 9C       		.byte	0x9c
 8495 1161 C0110000 		.4byte	0x11c0
 8496 1165 19       		.uleb128 0x19
 8497 1166 82020000 		.4byte	.LASF104
 8498 116a 01       		.byte	0x1
 8499 116b E109     		.2byte	0x9e1
 8500 116d F6050000 		.4byte	0x5f6
 8501 1171 02       		.uleb128 0x2
 8502 1172 91       		.byte	0x91
 8503 1173 6C       		.sleb128 -20
 8504 1174 19       		.uleb128 0x19
 8505 1175 D2050000 		.4byte	.LASF164
 8506 1179 01       		.byte	0x1
ARM GAS  /tmp/cc34cfqS.s 			page 151


 8507 117a E109     		.2byte	0x9e1
 8508 117c CE000000 		.4byte	0xce
 8509 1180 02       		.uleb128 0x2
 8510 1181 91       		.byte	0x91
 8511 1182 68       		.sleb128 -24
 8512 1183 19       		.uleb128 0x19
 8513 1184 BF080000 		.4byte	.LASF59
 8514 1188 01       		.byte	0x1
 8515 1189 E109     		.2byte	0x9e1
 8516 118b CE000000 		.4byte	0xce
 8517 118f 02       		.uleb128 0x2
 8518 1190 91       		.byte	0x91
 8519 1191 64       		.sleb128 -28
 8520 1192 19       		.uleb128 0x19
 8521 1193 57030000 		.4byte	.LASF110
 8522 1197 01       		.byte	0x1
 8523 1198 E109     		.2byte	0x9e1
 8524 119a CE000000 		.4byte	0xce
 8525 119e 02       		.uleb128 0x2
 8526 119f 91       		.byte	0x91
 8527 11a0 60       		.sleb128 -32
 8528 11a1 1B       		.uleb128 0x1b
 8529 11a2 87020000 		.4byte	.LASF114
 8530 11a6 01       		.byte	0x1
 8531 11a7 E309     		.2byte	0x9e3
 8532 11a9 E5000000 		.4byte	0xe5
 8533 11ad 02       		.uleb128 0x2
 8534 11ae 91       		.byte	0x91
 8535 11af 73       		.sleb128 -13
 8536 11b0 1B       		.uleb128 0x1b
 8537 11b1 C2070000 		.4byte	.LASF112
 8538 11b5 01       		.byte	0x1
 8539 11b6 E409     		.2byte	0x9e4
 8540 11b8 CE000000 		.4byte	0xce
 8541 11bc 02       		.uleb128 0x2
 8542 11bd 91       		.byte	0x91
 8543 11be 74       		.sleb128 -12
 8544 11bf 00       		.byte	0
 8545 11c0 22       		.uleb128 0x22
 8546 11c1 07030000 		.4byte	.LASF165
 8547 11c5 01       		.byte	0x1
 8548 11c6 190A     		.2byte	0xa19
 8549 11c8 31020000 		.4byte	0x231
 8550 11cc 60240000 		.4byte	.LFB172
 8551 11d0 A4000000 		.4byte	.LFE172-.LFB172
 8552 11d4 01       		.uleb128 0x1
 8553 11d5 9C       		.byte	0x9c
 8554 11d6 F9110000 		.4byte	0x11f9
 8555 11da 19       		.uleb128 0x19
 8556 11db 82020000 		.4byte	.LASF104
 8557 11df 01       		.byte	0x1
 8558 11e0 190A     		.2byte	0xa19
 8559 11e2 F6050000 		.4byte	0x5f6
 8560 11e6 02       		.uleb128 0x2
 8561 11e7 91       		.byte	0x91
 8562 11e8 74       		.sleb128 -12
 8563 11e9 19       		.uleb128 0x19
ARM GAS  /tmp/cc34cfqS.s 			page 152


 8564 11ea 57030000 		.4byte	.LASF110
 8565 11ee 01       		.byte	0x1
 8566 11ef 190A     		.2byte	0xa19
 8567 11f1 CE000000 		.4byte	0xce
 8568 11f5 02       		.uleb128 0x2
 8569 11f6 91       		.byte	0x91
 8570 11f7 70       		.sleb128 -16
 8571 11f8 00       		.byte	0
 8572 11f9 22       		.uleb128 0x22
 8573 11fa 5E020000 		.4byte	.LASF166
 8574 11fe 01       		.byte	0x1
 8575 11ff 390A     		.2byte	0xa39
 8576 1201 31020000 		.4byte	0x231
 8577 1205 10250000 		.4byte	.LFB173
 8578 1209 58000000 		.4byte	.LFE173-.LFB173
 8579 120d 01       		.uleb128 0x1
 8580 120e 9C       		.byte	0x9c
 8581 120f 32120000 		.4byte	0x1232
 8582 1213 19       		.uleb128 0x19
 8583 1214 82020000 		.4byte	.LASF104
 8584 1218 01       		.byte	0x1
 8585 1219 390A     		.2byte	0xa39
 8586 121b F6050000 		.4byte	0x5f6
 8587 121f 02       		.uleb128 0x2
 8588 1220 91       		.byte	0x91
 8589 1221 74       		.sleb128 -12
 8590 1222 19       		.uleb128 0x19
 8591 1223 57030000 		.4byte	.LASF110
 8592 1227 01       		.byte	0x1
 8593 1228 390A     		.2byte	0xa39
 8594 122a CE000000 		.4byte	0xce
 8595 122e 02       		.uleb128 0x2
 8596 122f 91       		.byte	0x91
 8597 1230 70       		.sleb128 -16
 8598 1231 00       		.byte	0
 8599 1232 21       		.uleb128 0x21
 8600 1233 63080000 		.4byte	.LASF167
 8601 1237 01       		.byte	0x1
 8602 1238 500A     		.2byte	0xa50
 8603 123a 70250000 		.4byte	.LFB174
 8604 123e AC000000 		.4byte	.LFE174-.LFB174
 8605 1242 01       		.uleb128 0x1
 8606 1243 9C       		.byte	0x9c
 8607 1244 58120000 		.4byte	0x1258
 8608 1248 19       		.uleb128 0x19
 8609 1249 82020000 		.4byte	.LASF104
 8610 124d 01       		.byte	0x1
 8611 124e 500A     		.2byte	0xa50
 8612 1250 F6050000 		.4byte	0x5f6
 8613 1254 02       		.uleb128 0x2
 8614 1255 91       		.byte	0x91
 8615 1256 74       		.sleb128 -12
 8616 1257 00       		.byte	0
 8617 1258 21       		.uleb128 0x21
 8618 1259 4D040000 		.4byte	.LASF168
 8619 125d 01       		.byte	0x1
 8620 125e 800A     		.2byte	0xa80
ARM GAS  /tmp/cc34cfqS.s 			page 153


 8621 1260 20260000 		.4byte	.LFB175
 8622 1264 80000000 		.4byte	.LFE175-.LFB175
 8623 1268 01       		.uleb128 0x1
 8624 1269 9C       		.byte	0x9c
 8625 126a 7E120000 		.4byte	0x127e
 8626 126e 19       		.uleb128 0x19
 8627 126f 82020000 		.4byte	.LASF104
 8628 1273 01       		.byte	0x1
 8629 1274 800A     		.2byte	0xa80
 8630 1276 F6050000 		.4byte	0x5f6
 8631 127a 02       		.uleb128 0x2
 8632 127b 91       		.byte	0x91
 8633 127c 74       		.sleb128 -12
 8634 127d 00       		.byte	0
 8635 127e 21       		.uleb128 0x21
 8636 127f 5F0A0000 		.4byte	.LASF169
 8637 1283 01       		.byte	0x1
 8638 1284 A60A     		.2byte	0xaa6
 8639 1286 A0260000 		.4byte	.LFB176
 8640 128a 6E000000 		.4byte	.LFE176-.LFB176
 8641 128e 01       		.uleb128 0x1
 8642 128f 9C       		.byte	0x9c
 8643 1290 BD120000 		.4byte	0x12bd
 8644 1294 19       		.uleb128 0x19
 8645 1295 82020000 		.4byte	.LASF104
 8646 1299 01       		.byte	0x1
 8647 129a A60A     		.2byte	0xaa6
 8648 129c F6050000 		.4byte	0x5f6
 8649 12a0 02       		.uleb128 0x2
 8650 12a1 91       		.byte	0x91
 8651 12a2 6C       		.sleb128 -20
 8652 12a3 1D       		.uleb128 0x1d
 8653 12a4 D8260000 		.4byte	.LBB9
 8654 12a8 12000000 		.4byte	.LBE9-.LBB9
 8655 12ac 1B       		.uleb128 0x1b
 8656 12ad 87020000 		.4byte	.LASF114
 8657 12b1 01       		.byte	0x1
 8658 12b2 B40A     		.2byte	0xab4
 8659 12b4 E0000000 		.4byte	0xe0
 8660 12b8 02       		.uleb128 0x2
 8661 12b9 91       		.byte	0x91
 8662 12ba 74       		.sleb128 -12
 8663 12bb 00       		.byte	0
 8664 12bc 00       		.byte	0
 8665 12bd 23       		.uleb128 0x23
 8666 12be 7C010000 		.4byte	.LASF173
 8667 12c2 09       		.byte	0x9
 8668 12c3 FA06     		.2byte	0x6fa
 8669 12c5 C9120000 		.4byte	0x12c9
 8670 12c9 05       		.uleb128 0x5
 8671 12ca C3000000 		.4byte	0xc3
 8672 12ce 00       		.byte	0
 8673              		.section	.debug_abbrev,"",%progbits
 8674              	.Ldebug_abbrev0:
 8675 0000 01       		.uleb128 0x1
 8676 0001 11       		.uleb128 0x11
 8677 0002 01       		.byte	0x1
ARM GAS  /tmp/cc34cfqS.s 			page 154


 8678 0003 25       		.uleb128 0x25
 8679 0004 0E       		.uleb128 0xe
 8680 0005 13       		.uleb128 0x13
 8681 0006 0B       		.uleb128 0xb
 8682 0007 03       		.uleb128 0x3
 8683 0008 0E       		.uleb128 0xe
 8684 0009 1B       		.uleb128 0x1b
 8685 000a 0E       		.uleb128 0xe
 8686 000b 11       		.uleb128 0x11
 8687 000c 01       		.uleb128 0x1
 8688 000d 12       		.uleb128 0x12
 8689 000e 06       		.uleb128 0x6
 8690 000f 10       		.uleb128 0x10
 8691 0010 17       		.uleb128 0x17
 8692 0011 00       		.byte	0
 8693 0012 00       		.byte	0
 8694 0013 02       		.uleb128 0x2
 8695 0014 24       		.uleb128 0x24
 8696 0015 00       		.byte	0
 8697 0016 0B       		.uleb128 0xb
 8698 0017 0B       		.uleb128 0xb
 8699 0018 3E       		.uleb128 0x3e
 8700 0019 0B       		.uleb128 0xb
 8701 001a 03       		.uleb128 0x3
 8702 001b 0E       		.uleb128 0xe
 8703 001c 00       		.byte	0
 8704 001d 00       		.byte	0
 8705 001e 03       		.uleb128 0x3
 8706 001f 16       		.uleb128 0x16
 8707 0020 00       		.byte	0
 8708 0021 03       		.uleb128 0x3
 8709 0022 0E       		.uleb128 0xe
 8710 0023 3A       		.uleb128 0x3a
 8711 0024 0B       		.uleb128 0xb
 8712 0025 3B       		.uleb128 0x3b
 8713 0026 0B       		.uleb128 0xb
 8714 0027 49       		.uleb128 0x49
 8715 0028 13       		.uleb128 0x13
 8716 0029 00       		.byte	0
 8717 002a 00       		.byte	0
 8718 002b 04       		.uleb128 0x4
 8719 002c 24       		.uleb128 0x24
 8720 002d 00       		.byte	0
 8721 002e 0B       		.uleb128 0xb
 8722 002f 0B       		.uleb128 0xb
 8723 0030 3E       		.uleb128 0x3e
 8724 0031 0B       		.uleb128 0xb
 8725 0032 03       		.uleb128 0x3
 8726 0033 08       		.uleb128 0x8
 8727 0034 00       		.byte	0
 8728 0035 00       		.byte	0
 8729 0036 05       		.uleb128 0x5
 8730 0037 35       		.uleb128 0x35
 8731 0038 00       		.byte	0
 8732 0039 49       		.uleb128 0x49
 8733 003a 13       		.uleb128 0x13
 8734 003b 00       		.byte	0
ARM GAS  /tmp/cc34cfqS.s 			page 155


 8735 003c 00       		.byte	0
 8736 003d 06       		.uleb128 0x6
 8737 003e 13       		.uleb128 0x13
 8738 003f 01       		.byte	0x1
 8739 0040 0B       		.uleb128 0xb
 8740 0041 0B       		.uleb128 0xb
 8741 0042 3A       		.uleb128 0x3a
 8742 0043 0B       		.uleb128 0xb
 8743 0044 3B       		.uleb128 0x3b
 8744 0045 05       		.uleb128 0x5
 8745 0046 01       		.uleb128 0x1
 8746 0047 13       		.uleb128 0x13
 8747 0048 00       		.byte	0
 8748 0049 00       		.byte	0
 8749 004a 07       		.uleb128 0x7
 8750 004b 0D       		.uleb128 0xd
 8751 004c 00       		.byte	0
 8752 004d 03       		.uleb128 0x3
 8753 004e 08       		.uleb128 0x8
 8754 004f 3A       		.uleb128 0x3a
 8755 0050 0B       		.uleb128 0xb
 8756 0051 3B       		.uleb128 0x3b
 8757 0052 05       		.uleb128 0x5
 8758 0053 49       		.uleb128 0x49
 8759 0054 13       		.uleb128 0x13
 8760 0055 38       		.uleb128 0x38
 8761 0056 0B       		.uleb128 0xb
 8762 0057 00       		.byte	0
 8763 0058 00       		.byte	0
 8764 0059 08       		.uleb128 0x8
 8765 005a 0D       		.uleb128 0xd
 8766 005b 00       		.byte	0
 8767 005c 03       		.uleb128 0x3
 8768 005d 0E       		.uleb128 0xe
 8769 005e 3A       		.uleb128 0x3a
 8770 005f 0B       		.uleb128 0xb
 8771 0060 3B       		.uleb128 0x3b
 8772 0061 05       		.uleb128 0x5
 8773 0062 49       		.uleb128 0x49
 8774 0063 13       		.uleb128 0x13
 8775 0064 38       		.uleb128 0x38
 8776 0065 0B       		.uleb128 0xb
 8777 0066 00       		.byte	0
 8778 0067 00       		.byte	0
 8779 0068 09       		.uleb128 0x9
 8780 0069 16       		.uleb128 0x16
 8781 006a 00       		.byte	0
 8782 006b 03       		.uleb128 0x3
 8783 006c 0E       		.uleb128 0xe
 8784 006d 3A       		.uleb128 0x3a
 8785 006e 0B       		.uleb128 0xb
 8786 006f 3B       		.uleb128 0x3b
 8787 0070 05       		.uleb128 0x5
 8788 0071 49       		.uleb128 0x49
 8789 0072 13       		.uleb128 0x13
 8790 0073 00       		.byte	0
 8791 0074 00       		.byte	0
ARM GAS  /tmp/cc34cfqS.s 			page 156


 8792 0075 0A       		.uleb128 0xa
 8793 0076 04       		.uleb128 0x4
 8794 0077 01       		.byte	0x1
 8795 0078 0B       		.uleb128 0xb
 8796 0079 0B       		.uleb128 0xb
 8797 007a 3A       		.uleb128 0x3a
 8798 007b 0B       		.uleb128 0xb
 8799 007c 3B       		.uleb128 0x3b
 8800 007d 0B       		.uleb128 0xb
 8801 007e 01       		.uleb128 0x1
 8802 007f 13       		.uleb128 0x13
 8803 0080 00       		.byte	0
 8804 0081 00       		.byte	0
 8805 0082 0B       		.uleb128 0xb
 8806 0083 28       		.uleb128 0x28
 8807 0084 00       		.byte	0
 8808 0085 03       		.uleb128 0x3
 8809 0086 0E       		.uleb128 0xe
 8810 0087 1C       		.uleb128 0x1c
 8811 0088 0D       		.uleb128 0xd
 8812 0089 00       		.byte	0
 8813 008a 00       		.byte	0
 8814 008b 0C       		.uleb128 0xc
 8815 008c 28       		.uleb128 0x28
 8816 008d 00       		.byte	0
 8817 008e 03       		.uleb128 0x3
 8818 008f 08       		.uleb128 0x8
 8819 0090 1C       		.uleb128 0x1c
 8820 0091 0D       		.uleb128 0xd
 8821 0092 00       		.byte	0
 8822 0093 00       		.byte	0
 8823 0094 0D       		.uleb128 0xd
 8824 0095 0F       		.uleb128 0xf
 8825 0096 00       		.byte	0
 8826 0097 0B       		.uleb128 0xb
 8827 0098 0B       		.uleb128 0xb
 8828 0099 00       		.byte	0
 8829 009a 00       		.byte	0
 8830 009b 0E       		.uleb128 0xe
 8831 009c 13       		.uleb128 0x13
 8832 009d 01       		.byte	0x1
 8833 009e 0B       		.uleb128 0xb
 8834 009f 0B       		.uleb128 0xb
 8835 00a0 3A       		.uleb128 0x3a
 8836 00a1 0B       		.uleb128 0xb
 8837 00a2 3B       		.uleb128 0x3b
 8838 00a3 0B       		.uleb128 0xb
 8839 00a4 01       		.uleb128 0x1
 8840 00a5 13       		.uleb128 0x13
 8841 00a6 00       		.byte	0
 8842 00a7 00       		.byte	0
 8843 00a8 0F       		.uleb128 0xf
 8844 00a9 0D       		.uleb128 0xd
 8845 00aa 00       		.byte	0
 8846 00ab 03       		.uleb128 0x3
 8847 00ac 0E       		.uleb128 0xe
 8848 00ad 3A       		.uleb128 0x3a
ARM GAS  /tmp/cc34cfqS.s 			page 157


 8849 00ae 0B       		.uleb128 0xb
 8850 00af 3B       		.uleb128 0x3b
 8851 00b0 0B       		.uleb128 0xb
 8852 00b1 49       		.uleb128 0x49
 8853 00b2 13       		.uleb128 0x13
 8854 00b3 38       		.uleb128 0x38
 8855 00b4 0B       		.uleb128 0xb
 8856 00b5 00       		.byte	0
 8857 00b6 00       		.byte	0
 8858 00b7 10       		.uleb128 0x10
 8859 00b8 13       		.uleb128 0x13
 8860 00b9 01       		.byte	0x1
 8861 00ba 03       		.uleb128 0x3
 8862 00bb 0E       		.uleb128 0xe
 8863 00bc 0B       		.uleb128 0xb
 8864 00bd 0B       		.uleb128 0xb
 8865 00be 3A       		.uleb128 0x3a
 8866 00bf 0B       		.uleb128 0xb
 8867 00c0 3B       		.uleb128 0x3b
 8868 00c1 0B       		.uleb128 0xb
 8869 00c2 01       		.uleb128 0x1
 8870 00c3 13       		.uleb128 0x13
 8871 00c4 00       		.byte	0
 8872 00c5 00       		.byte	0
 8873 00c6 11       		.uleb128 0x11
 8874 00c7 0F       		.uleb128 0xf
 8875 00c8 00       		.byte	0
 8876 00c9 0B       		.uleb128 0xb
 8877 00ca 0B       		.uleb128 0xb
 8878 00cb 49       		.uleb128 0x49
 8879 00cc 13       		.uleb128 0x13
 8880 00cd 00       		.byte	0
 8881 00ce 00       		.byte	0
 8882 00cf 12       		.uleb128 0x12
 8883 00d0 15       		.uleb128 0x15
 8884 00d1 01       		.byte	0x1
 8885 00d2 27       		.uleb128 0x27
 8886 00d3 19       		.uleb128 0x19
 8887 00d4 01       		.uleb128 0x1
 8888 00d5 13       		.uleb128 0x13
 8889 00d6 00       		.byte	0
 8890 00d7 00       		.byte	0
 8891 00d8 13       		.uleb128 0x13
 8892 00d9 05       		.uleb128 0x5
 8893 00da 00       		.byte	0
 8894 00db 49       		.uleb128 0x49
 8895 00dc 13       		.uleb128 0x13
 8896 00dd 00       		.byte	0
 8897 00de 00       		.byte	0
 8898 00df 14       		.uleb128 0x14
 8899 00e0 0D       		.uleb128 0xd
 8900 00e1 00       		.byte	0
 8901 00e2 03       		.uleb128 0x3
 8902 00e3 08       		.uleb128 0x8
 8903 00e4 3A       		.uleb128 0x3a
 8904 00e5 0B       		.uleb128 0xb
 8905 00e6 3B       		.uleb128 0x3b
ARM GAS  /tmp/cc34cfqS.s 			page 158


 8906 00e7 0B       		.uleb128 0xb
 8907 00e8 49       		.uleb128 0x49
 8908 00e9 13       		.uleb128 0x13
 8909 00ea 38       		.uleb128 0x38
 8910 00eb 0B       		.uleb128 0xb
 8911 00ec 00       		.byte	0
 8912 00ed 00       		.byte	0
 8913 00ee 15       		.uleb128 0x15
 8914 00ef 2E       		.uleb128 0x2e
 8915 00f0 01       		.byte	0x1
 8916 00f1 3F       		.uleb128 0x3f
 8917 00f2 19       		.uleb128 0x19
 8918 00f3 03       		.uleb128 0x3
 8919 00f4 0E       		.uleb128 0xe
 8920 00f5 3A       		.uleb128 0x3a
 8921 00f6 0B       		.uleb128 0xb
 8922 00f7 3B       		.uleb128 0x3b
 8923 00f8 0B       		.uleb128 0xb
 8924 00f9 27       		.uleb128 0x27
 8925 00fa 19       		.uleb128 0x19
 8926 00fb 49       		.uleb128 0x49
 8927 00fc 13       		.uleb128 0x13
 8928 00fd 11       		.uleb128 0x11
 8929 00fe 01       		.uleb128 0x1
 8930 00ff 12       		.uleb128 0x12
 8931 0100 06       		.uleb128 0x6
 8932 0101 40       		.uleb128 0x40
 8933 0102 18       		.uleb128 0x18
 8934 0103 9642     		.uleb128 0x2116
 8935 0105 19       		.uleb128 0x19
 8936 0106 01       		.uleb128 0x1
 8937 0107 13       		.uleb128 0x13
 8938 0108 00       		.byte	0
 8939 0109 00       		.byte	0
 8940 010a 16       		.uleb128 0x16
 8941 010b 05       		.uleb128 0x5
 8942 010c 00       		.byte	0
 8943 010d 03       		.uleb128 0x3
 8944 010e 0E       		.uleb128 0xe
 8945 010f 3A       		.uleb128 0x3a
 8946 0110 0B       		.uleb128 0xb
 8947 0111 3B       		.uleb128 0x3b
 8948 0112 0B       		.uleb128 0xb
 8949 0113 49       		.uleb128 0x49
 8950 0114 13       		.uleb128 0x13
 8951 0115 02       		.uleb128 0x2
 8952 0116 18       		.uleb128 0x18
 8953 0117 00       		.byte	0
 8954 0118 00       		.byte	0
 8955 0119 17       		.uleb128 0x17
 8956 011a 34       		.uleb128 0x34
 8957 011b 00       		.byte	0
 8958 011c 03       		.uleb128 0x3
 8959 011d 0E       		.uleb128 0xe
 8960 011e 3A       		.uleb128 0x3a
 8961 011f 0B       		.uleb128 0xb
 8962 0120 3B       		.uleb128 0x3b
ARM GAS  /tmp/cc34cfqS.s 			page 159


 8963 0121 0B       		.uleb128 0xb
 8964 0122 49       		.uleb128 0x49
 8965 0123 13       		.uleb128 0x13
 8966 0124 02       		.uleb128 0x2
 8967 0125 18       		.uleb128 0x18
 8968 0126 00       		.byte	0
 8969 0127 00       		.byte	0
 8970 0128 18       		.uleb128 0x18
 8971 0129 2E       		.uleb128 0x2e
 8972 012a 01       		.byte	0x1
 8973 012b 3F       		.uleb128 0x3f
 8974 012c 19       		.uleb128 0x19
 8975 012d 03       		.uleb128 0x3
 8976 012e 0E       		.uleb128 0xe
 8977 012f 3A       		.uleb128 0x3a
 8978 0130 0B       		.uleb128 0xb
 8979 0131 3B       		.uleb128 0x3b
 8980 0132 05       		.uleb128 0x5
 8981 0133 27       		.uleb128 0x27
 8982 0134 19       		.uleb128 0x19
 8983 0135 49       		.uleb128 0x49
 8984 0136 13       		.uleb128 0x13
 8985 0137 11       		.uleb128 0x11
 8986 0138 01       		.uleb128 0x1
 8987 0139 12       		.uleb128 0x12
 8988 013a 06       		.uleb128 0x6
 8989 013b 40       		.uleb128 0x40
 8990 013c 18       		.uleb128 0x18
 8991 013d 9642     		.uleb128 0x2116
 8992 013f 19       		.uleb128 0x19
 8993 0140 01       		.uleb128 0x1
 8994 0141 13       		.uleb128 0x13
 8995 0142 00       		.byte	0
 8996 0143 00       		.byte	0
 8997 0144 19       		.uleb128 0x19
 8998 0145 05       		.uleb128 0x5
 8999 0146 00       		.byte	0
 9000 0147 03       		.uleb128 0x3
 9001 0148 0E       		.uleb128 0xe
 9002 0149 3A       		.uleb128 0x3a
 9003 014a 0B       		.uleb128 0xb
 9004 014b 3B       		.uleb128 0x3b
 9005 014c 05       		.uleb128 0x5
 9006 014d 49       		.uleb128 0x49
 9007 014e 13       		.uleb128 0x13
 9008 014f 02       		.uleb128 0x2
 9009 0150 18       		.uleb128 0x18
 9010 0151 00       		.byte	0
 9011 0152 00       		.byte	0
 9012 0153 1A       		.uleb128 0x1a
 9013 0154 2E       		.uleb128 0x2e
 9014 0155 01       		.byte	0x1
 9015 0156 3F       		.uleb128 0x3f
 9016 0157 19       		.uleb128 0x19
 9017 0158 03       		.uleb128 0x3
 9018 0159 0E       		.uleb128 0xe
 9019 015a 3A       		.uleb128 0x3a
ARM GAS  /tmp/cc34cfqS.s 			page 160


 9020 015b 0B       		.uleb128 0xb
 9021 015c 3B       		.uleb128 0x3b
 9022 015d 05       		.uleb128 0x5
 9023 015e 27       		.uleb128 0x27
 9024 015f 19       		.uleb128 0x19
 9025 0160 11       		.uleb128 0x11
 9026 0161 01       		.uleb128 0x1
 9027 0162 12       		.uleb128 0x12
 9028 0163 06       		.uleb128 0x6
 9029 0164 40       		.uleb128 0x40
 9030 0165 18       		.uleb128 0x18
 9031 0166 9742     		.uleb128 0x2117
 9032 0168 19       		.uleb128 0x19
 9033 0169 01       		.uleb128 0x1
 9034 016a 13       		.uleb128 0x13
 9035 016b 00       		.byte	0
 9036 016c 00       		.byte	0
 9037 016d 1B       		.uleb128 0x1b
 9038 016e 34       		.uleb128 0x34
 9039 016f 00       		.byte	0
 9040 0170 03       		.uleb128 0x3
 9041 0171 0E       		.uleb128 0xe
 9042 0172 3A       		.uleb128 0x3a
 9043 0173 0B       		.uleb128 0xb
 9044 0174 3B       		.uleb128 0x3b
 9045 0175 05       		.uleb128 0x5
 9046 0176 49       		.uleb128 0x49
 9047 0177 13       		.uleb128 0x13
 9048 0178 02       		.uleb128 0x2
 9049 0179 18       		.uleb128 0x18
 9050 017a 00       		.byte	0
 9051 017b 00       		.byte	0
 9052 017c 1C       		.uleb128 0x1c
 9053 017d 0A       		.uleb128 0xa
 9054 017e 00       		.byte	0
 9055 017f 03       		.uleb128 0x3
 9056 0180 0E       		.uleb128 0xe
 9057 0181 3A       		.uleb128 0x3a
 9058 0182 0B       		.uleb128 0xb
 9059 0183 3B       		.uleb128 0x3b
 9060 0184 05       		.uleb128 0x5
 9061 0185 11       		.uleb128 0x11
 9062 0186 01       		.uleb128 0x1
 9063 0187 00       		.byte	0
 9064 0188 00       		.byte	0
 9065 0189 1D       		.uleb128 0x1d
 9066 018a 0B       		.uleb128 0xb
 9067 018b 01       		.byte	0x1
 9068 018c 11       		.uleb128 0x11
 9069 018d 01       		.uleb128 0x1
 9070 018e 12       		.uleb128 0x12
 9071 018f 06       		.uleb128 0x6
 9072 0190 00       		.byte	0
 9073 0191 00       		.byte	0
 9074 0192 1E       		.uleb128 0x1e
 9075 0193 2E       		.uleb128 0x2e
 9076 0194 01       		.byte	0x1
ARM GAS  /tmp/cc34cfqS.s 			page 161


 9077 0195 3F       		.uleb128 0x3f
 9078 0196 19       		.uleb128 0x19
 9079 0197 03       		.uleb128 0x3
 9080 0198 0E       		.uleb128 0xe
 9081 0199 3A       		.uleb128 0x3a
 9082 019a 0B       		.uleb128 0xb
 9083 019b 3B       		.uleb128 0x3b
 9084 019c 05       		.uleb128 0x5
 9085 019d 27       		.uleb128 0x27
 9086 019e 19       		.uleb128 0x19
 9087 019f 49       		.uleb128 0x49
 9088 01a0 13       		.uleb128 0x13
 9089 01a1 11       		.uleb128 0x11
 9090 01a2 01       		.uleb128 0x1
 9091 01a3 12       		.uleb128 0x12
 9092 01a4 06       		.uleb128 0x6
 9093 01a5 40       		.uleb128 0x40
 9094 01a6 18       		.uleb128 0x18
 9095 01a7 9742     		.uleb128 0x2117
 9096 01a9 19       		.uleb128 0x19
 9097 01aa 01       		.uleb128 0x1
 9098 01ab 13       		.uleb128 0x13
 9099 01ac 00       		.byte	0
 9100 01ad 00       		.byte	0
 9101 01ae 1F       		.uleb128 0x1f
 9102 01af 2E       		.uleb128 0x2e
 9103 01b0 01       		.byte	0x1
 9104 01b1 3F       		.uleb128 0x3f
 9105 01b2 19       		.uleb128 0x19
 9106 01b3 03       		.uleb128 0x3
 9107 01b4 0E       		.uleb128 0xe
 9108 01b5 3A       		.uleb128 0x3a
 9109 01b6 0B       		.uleb128 0xb
 9110 01b7 3B       		.uleb128 0x3b
 9111 01b8 05       		.uleb128 0x5
 9112 01b9 27       		.uleb128 0x27
 9113 01ba 19       		.uleb128 0x19
 9114 01bb 11       		.uleb128 0x11
 9115 01bc 01       		.uleb128 0x1
 9116 01bd 12       		.uleb128 0x12
 9117 01be 06       		.uleb128 0x6
 9118 01bf 40       		.uleb128 0x40
 9119 01c0 18       		.uleb128 0x18
 9120 01c1 9642     		.uleb128 0x2116
 9121 01c3 19       		.uleb128 0x19
 9122 01c4 01       		.uleb128 0x1
 9123 01c5 13       		.uleb128 0x13
 9124 01c6 00       		.byte	0
 9125 01c7 00       		.byte	0
 9126 01c8 20       		.uleb128 0x20
 9127 01c9 0B       		.uleb128 0xb
 9128 01ca 01       		.byte	0x1
 9129 01cb 11       		.uleb128 0x11
 9130 01cc 01       		.uleb128 0x1
 9131 01cd 12       		.uleb128 0x12
 9132 01ce 06       		.uleb128 0x6
 9133 01cf 01       		.uleb128 0x1
ARM GAS  /tmp/cc34cfqS.s 			page 162


 9134 01d0 13       		.uleb128 0x13
 9135 01d1 00       		.byte	0
 9136 01d2 00       		.byte	0
 9137 01d3 21       		.uleb128 0x21
 9138 01d4 2E       		.uleb128 0x2e
 9139 01d5 01       		.byte	0x1
 9140 01d6 03       		.uleb128 0x3
 9141 01d7 0E       		.uleb128 0xe
 9142 01d8 3A       		.uleb128 0x3a
 9143 01d9 0B       		.uleb128 0xb
 9144 01da 3B       		.uleb128 0x3b
 9145 01db 05       		.uleb128 0x5
 9146 01dc 27       		.uleb128 0x27
 9147 01dd 19       		.uleb128 0x19
 9148 01de 11       		.uleb128 0x11
 9149 01df 01       		.uleb128 0x1
 9150 01e0 12       		.uleb128 0x12
 9151 01e1 06       		.uleb128 0x6
 9152 01e2 40       		.uleb128 0x40
 9153 01e3 18       		.uleb128 0x18
 9154 01e4 9642     		.uleb128 0x2116
 9155 01e6 19       		.uleb128 0x19
 9156 01e7 01       		.uleb128 0x1
 9157 01e8 13       		.uleb128 0x13
 9158 01e9 00       		.byte	0
 9159 01ea 00       		.byte	0
 9160 01eb 22       		.uleb128 0x22
 9161 01ec 2E       		.uleb128 0x2e
 9162 01ed 01       		.byte	0x1
 9163 01ee 03       		.uleb128 0x3
 9164 01ef 0E       		.uleb128 0xe
 9165 01f0 3A       		.uleb128 0x3a
 9166 01f1 0B       		.uleb128 0xb
 9167 01f2 3B       		.uleb128 0x3b
 9168 01f3 05       		.uleb128 0x5
 9169 01f4 27       		.uleb128 0x27
 9170 01f5 19       		.uleb128 0x19
 9171 01f6 49       		.uleb128 0x49
 9172 01f7 13       		.uleb128 0x13
 9173 01f8 11       		.uleb128 0x11
 9174 01f9 01       		.uleb128 0x1
 9175 01fa 12       		.uleb128 0x12
 9176 01fb 06       		.uleb128 0x6
 9177 01fc 40       		.uleb128 0x40
 9178 01fd 18       		.uleb128 0x18
 9179 01fe 9642     		.uleb128 0x2116
 9180 0200 19       		.uleb128 0x19
 9181 0201 01       		.uleb128 0x1
 9182 0202 13       		.uleb128 0x13
 9183 0203 00       		.byte	0
 9184 0204 00       		.byte	0
 9185 0205 23       		.uleb128 0x23
 9186 0206 34       		.uleb128 0x34
 9187 0207 00       		.byte	0
 9188 0208 03       		.uleb128 0x3
 9189 0209 0E       		.uleb128 0xe
 9190 020a 3A       		.uleb128 0x3a
ARM GAS  /tmp/cc34cfqS.s 			page 163


 9191 020b 0B       		.uleb128 0xb
 9192 020c 3B       		.uleb128 0x3b
 9193 020d 05       		.uleb128 0x5
 9194 020e 49       		.uleb128 0x49
 9195 020f 13       		.uleb128 0x13
 9196 0210 3F       		.uleb128 0x3f
 9197 0211 19       		.uleb128 0x19
 9198 0212 3C       		.uleb128 0x3c
 9199 0213 19       		.uleb128 0x19
 9200 0214 00       		.byte	0
 9201 0215 00       		.byte	0
 9202 0216 00       		.byte	0
 9203              		.section	.debug_aranges,"",%progbits
 9204 0000 1C000000 		.4byte	0x1c
 9205 0004 0200     		.2byte	0x2
 9206 0006 00000000 		.4byte	.Ldebug_info0
 9207 000a 04       		.byte	0x4
 9208 000b 00       		.byte	0
 9209 000c 0000     		.2byte	0
 9210 000e 0000     		.2byte	0
 9211 0010 00000000 		.4byte	.Ltext0
 9212 0014 0E270000 		.4byte	.Letext0-.Ltext0
 9213 0018 00000000 		.4byte	0
 9214 001c 00000000 		.4byte	0
 9215              		.section	.debug_line,"",%progbits
 9216              	.Ldebug_line0:
 9217 0000 DE080000 		.section	.debug_str,"MS",%progbits,1
 9217      02005C02 
 9217      00000201 
 9217      FB0E0D00 
 9217      01010101 
 9218              	.LASF27:
 9219 0000 52584352 		.ascii	"RXCRCR\000"
 9219      435200
 9220              	.LASF170:
 9221 0007 474E5520 		.ascii	"GNU C 4.8.4 20140526 (release) [ARM/embedded-4_8-br"
 9221      4320342E 
 9221      382E3420 
 9221      32303134 
 9221      30353236 
 9222 003a 616E6368 		.ascii	"anch revision 211358] -mcpu=cortex-m4 -mno-thumb-in"
 9222      20726576 
 9222      6973696F 
 9222      6E203231 
 9222      31333538 
 9223 006d 74657277 		.ascii	"terwork -mthumb -ggdb -O0 -std=c99 -fomit-frame-poi"
 9223      6F726B20 
 9223      2D6D7468 
 9223      756D6220 
 9223      2D676764 
 9224 00a0 6E746572 		.ascii	"nter -falign-functions=16\000"
 9224      202D6661 
 9224      6C69676E 
 9224      2D66756E 
 9224      6374696F 
 9225              	.LASF50:
 9226 00ba 444D415F 		.ascii	"DMA_InitTypeDef\000"
ARM GAS  /tmp/cc34cfqS.s 			page 164


 9226      496E6974 
 9226      54797065 
 9226      44656600 
 9227              	.LASF84:
 9228 00ca 48414C5F 		.ascii	"HAL_SPI_STATE_BUSY_RX\000"
 9228      5350495F 
 9228      53544154 
 9228      455F4255 
 9228      53595F52 
 9229              	.LASF2:
 9230 00e0 5F5F7569 		.ascii	"__uint8_t\000"
 9230      6E74385F 
 9230      7400
 9231              	.LASF120:
 9232 00ea 48414C5F 		.ascii	"HAL_SPI_Transmit_IT\000"
 9232      5350495F 
 9232      5472616E 
 9232      736D6974 
 9232      5F495400 
 9233              	.LASF145:
 9234 00fe 5350495F 		.ascii	"SPI_DMAHalfTransmitCplt\000"
 9234      444D4148 
 9234      616C6654 
 9234      72616E73 
 9234      6D697443 
 9235              	.LASF76:
 9236 0116 43524350 		.ascii	"CRCPolynomial\000"
 9236      6F6C796E 
 9236      6F6D6961 
 9236      6C00
 9237              	.LASF56:
 9238 0124 496E7374 		.ascii	"Instance\000"
 9238      616E6365 
 9238      00
 9239              	.LASF97:
 9240 012d 52784953 		.ascii	"RxISR\000"
 9240      5200
 9241              	.LASF12:
 9242 0133 6C6F6E67 		.ascii	"long long unsigned int\000"
 9242      206C6F6E 
 9242      6720756E 
 9242      7369676E 
 9242      65642069 
 9243              	.LASF26:
 9244 014a 43524350 		.ascii	"CRCPR\000"
 9244      5200
 9245              	.LASF133:
 9246 0150 48414C5F 		.ascii	"HAL_SPI_RxCpltCallback\000"
 9246      5350495F 
 9246      52784370 
 9246      6C744361 
 9246      6C6C6261 
 9247              	.LASF123:
 9248 0167 48414C5F 		.ascii	"HAL_SPI_Transmit_DMA\000"
 9248      5350495F 
 9248      5472616E 
 9248      736D6974 
ARM GAS  /tmp/cc34cfqS.s 			page 165


 9248      5F444D41 
 9249              	.LASF173:
 9250 017c 49544D5F 		.ascii	"ITM_RxBuffer\000"
 9250      52784275 
 9250      66666572 
 9250      00
 9251              	.LASF51:
 9252 0189 48414C5F 		.ascii	"HAL_DMA_STATE_RESET\000"
 9252      444D415F 
 9252      53544154 
 9252      455F5245 
 9252      53455400 
 9253              	.LASF107:
 9254 019d 48414C5F 		.ascii	"HAL_SPI_Transmit\000"
 9254      5350495F 
 9254      5472616E 
 9254      736D6974 
 9254      00
 9255              	.LASF147:
 9256 01ae 5350495F 		.ascii	"SPI_DMAHalfTransmitReceiveCplt\000"
 9256      444D4148 
 9256      616C6654 
 9256      72616E73 
 9256      6D697452 
 9257              	.LASF152:
 9258 01cd 5350495F 		.ascii	"SPI_2linesRxISR_16BIT\000"
 9258      326C696E 
 9258      65735278 
 9258      4953525F 
 9258      31364249 
 9259              	.LASF102:
 9260 01e3 48414C5F 		.ascii	"HAL_SPI_Init\000"
 9260      5350495F 
 9260      496E6974 
 9260      00
 9261              	.LASF15:
 9262 01f0 696E7431 		.ascii	"int16_t\000"
 9262      365F7400 
 9263              	.LASF11:
 9264 01f8 6C6F6E67 		.ascii	"long long int\000"
 9264      206C6F6E 
 9264      6720696E 
 9264      7400
 9265              	.LASF0:
 9266 0206 7369676E 		.ascii	"signed char\000"
 9266      65642063 
 9266      68617200 
 9267              	.LASF136:
 9268 0212 48414C5F 		.ascii	"HAL_SPI_RxHalfCpltCallback\000"
 9268      5350495F 
 9268      52784861 
 9268      6C664370 
 9268      6C744361 
 9269              	.LASF62:
 9270 022d 58666572 		.ascii	"XferHalfCpltCallback\000"
 9270      48616C66 
 9270      43706C74 
ARM GAS  /tmp/cc34cfqS.s 			page 166


 9270      43616C6C 
 9270      6261636B 
 9271              	.LASF129:
 9272 0242 48414C5F 		.ascii	"HAL_SPI_IRQHandler\000"
 9272      5350495F 
 9272      49525148 
 9272      616E646C 
 9272      657200
 9273              	.LASF130:
 9274 0255 6974736F 		.ascii	"itsource\000"
 9274      75726365 
 9274      00
 9275              	.LASF166:
 9276 025e 5350495F 		.ascii	"SPI_EndRxTxTransaction\000"
 9276      456E6452 
 9276      78547854 
 9276      72616E73 
 9276      61637469 
 9277              	.LASF148:
 9278 0275 5350495F 		.ascii	"SPI_DMAError\000"
 9278      444D4145 
 9278      72726F72 
 9278      00
 9279              	.LASF104:
 9280 0282 68737069 		.ascii	"hspi\000"
 9280      00
 9281              	.LASF114:
 9282 0287 746D7072 		.ascii	"tmpreg\000"
 9282      656700
 9283              	.LASF41:
 9284 028e 48414C5F 		.ascii	"HAL_LockTypeDef\000"
 9284      4C6F636B 
 9284      54797065 
 9284      44656600 
 9285              	.LASF149:
 9286 029e 5350495F 		.ascii	"SPI_2linesRxISR_8BIT\000"
 9286      326C696E 
 9286      65735278 
 9286      4953525F 
 9286      38424954 
 9287              	.LASF101:
 9288 02b3 5350495F 		.ascii	"SPI_HandleTypeDef\000"
 9288      48616E64 
 9288      6C655479 
 9288      70654465 
 9288      6600
 9289              	.LASF8:
 9290 02c5 6C6F6E67 		.ascii	"long int\000"
 9290      20696E74 
 9290      00
 9291              	.LASF90:
 9292 02ce 70547842 		.ascii	"pTxBuffPtr\000"
 9292      75666650 
 9292      747200
 9293              	.LASF83:
 9294 02d9 48414C5F 		.ascii	"HAL_SPI_STATE_BUSY_TX\000"
 9294      5350495F 
ARM GAS  /tmp/cc34cfqS.s 			page 167


 9294      53544154 
 9294      455F4255 
 9294      53595F54 
 9295              	.LASF44:
 9296 02ef 50657269 		.ascii	"PeriphInc\000"
 9296      7068496E 
 9296      6300
 9297              	.LASF161:
 9298 02f9 466C6167 		.ascii	"Flag\000"
 9298      00
 9299              	.LASF16:
 9300 02fe 75696E74 		.ascii	"uint16_t\000"
 9300      31365F74 
 9300      00
 9301              	.LASF165:
 9302 0307 5350495F 		.ascii	"SPI_EndRxTransaction\000"
 9302      456E6452 
 9302      78547261 
 9302      6E736163 
 9302      74696F6E 
 9303              	.LASF159:
 9304 031c 5350495F 		.ascii	"SPI_TxISR_8BIT\000"
 9304      54784953 
 9304      525F3842 
 9304      495400
 9305              	.LASF67:
 9306 032b 4368616E 		.ascii	"ChannelIndex\000"
 9306      6E656C49 
 9306      6E646578 
 9306      00
 9307              	.LASF60:
 9308 0338 50617265 		.ascii	"Parent\000"
 9308      6E7400
 9309              	.LASF28:
 9310 033f 54584352 		.ascii	"TXCRCR\000"
 9310      435200
 9311              	.LASF108:
 9312 0346 70446174 		.ascii	"pData\000"
 9312      6100
 9313              	.LASF9:
 9314 034c 5F5F7569 		.ascii	"__uint32_t\000"
 9314      6E743332 
 9314      5F7400
 9315              	.LASF110:
 9316 0357 54696D65 		.ascii	"Timeout\000"
 9316      6F757400 
 9317              	.LASF43:
 9318 035f 44697265 		.ascii	"Direction\000"
 9318      6374696F 
 9318      6E00
 9319              	.LASF119:
 9320 0369 70527844 		.ascii	"pRxData\000"
 9320      61746100 
 9321              	.LASF3:
 9322 0371 5F5F696E 		.ascii	"__int16_t\000"
 9322      7431365F 
 9322      7400
ARM GAS  /tmp/cc34cfqS.s 			page 168


 9323              	.LASF143:
 9324 037b 5350495F 		.ascii	"SPI_DMAReceiveCplt\000"
 9324      444D4152 
 9324      65636569 
 9324      76654370 
 9324      6C7400
 9325              	.LASF100:
 9326 038e 68646D61 		.ascii	"hdmarx\000"
 9326      727800
 9327              	.LASF151:
 9328 0395 5350495F 		.ascii	"SPI_2linesTxISR_8BIT\000"
 9328      326C696E 
 9328      65735478 
 9328      4953525F 
 9328      38424954 
 9329              	.LASF37:
 9330 03aa 48414C5F 		.ascii	"HAL_TIMEOUT\000"
 9330      54494D45 
 9330      4F555400 
 9331              	.LASF25:
 9332 03b6 444D415F 		.ascii	"DMA_TypeDef\000"
 9332      54797065 
 9332      44656600 
 9333              	.LASF13:
 9334 03c2 756E7369 		.ascii	"unsigned int\000"
 9334      676E6564 
 9334      20696E74 
 9334      00
 9335              	.LASF154:
 9336 03cf 5350495F 		.ascii	"SPI_2linesTxISR_16BIT\000"
 9336      326C696E 
 9336      65735478 
 9336      4953525F 
 9336      31364249 
 9337              	.LASF21:
 9338 03e5 43504152 		.ascii	"CPAR\000"
 9338      00
 9339              	.LASF10:
 9340 03ea 6C6F6E67 		.ascii	"long unsigned int\000"
 9340      20756E73 
 9340      69676E65 
 9340      6420696E 
 9340      7400
 9341              	.LASF137:
 9342 03fc 48414C5F 		.ascii	"HAL_SPI_TxRxHalfCpltCallback\000"
 9342      5350495F 
 9342      54785278 
 9342      48616C66 
 9342      43706C74 
 9343              	.LASF134:
 9344 0419 48414C5F 		.ascii	"HAL_SPI_TxRxCpltCallback\000"
 9344      5350495F 
 9344      54785278 
 9344      43706C74 
 9344      43616C6C 
 9345              	.LASF34:
 9346 0432 48414C5F 		.ascii	"HAL_OK\000"
ARM GAS  /tmp/cc34cfqS.s 			page 169


 9346      4F4B00
 9347              	.LASF89:
 9348 0439 5F5F5350 		.ascii	"__SPI_HandleTypeDef\000"
 9348      495F4861 
 9348      6E646C65 
 9348      54797065 
 9348      44656600 
 9349              	.LASF168:
 9350 044d 5350495F 		.ascii	"SPI_CloseRx_ISR\000"
 9350      436C6F73 
 9350      6552785F 
 9350      49535200 
 9351              	.LASF94:
 9352 045d 52785866 		.ascii	"RxXferSize\000"
 9352      65725369 
 9352      7A6500
 9353              	.LASF6:
 9354 0468 73686F72 		.ascii	"short unsigned int\000"
 9354      7420756E 
 9354      7369676E 
 9354      65642069 
 9354      6E7400
 9355              	.LASF49:
 9356 047b 5072696F 		.ascii	"Priority\000"
 9356      72697479 
 9356      00
 9357              	.LASF139:
 9358 0484 48414C5F 		.ascii	"HAL_SPI_GetState\000"
 9358      5350495F 
 9358      47657453 
 9358      74617465 
 9358      00
 9359              	.LASF91:
 9360 0495 54785866 		.ascii	"TxXferSize\000"
 9360      65725369 
 9360      7A6500
 9361              	.LASF66:
 9362 04a0 446D6142 		.ascii	"DmaBaseAddress\000"
 9362      61736541 
 9362      64647265 
 9362      737300
 9363              	.LASF86:
 9364 04af 48414C5F 		.ascii	"HAL_SPI_STATE_ERROR\000"
 9364      5350495F 
 9364      53544154 
 9364      455F4552 
 9364      524F5200 
 9365              	.LASF65:
 9366 04c3 4572726F 		.ascii	"ErrorCode\000"
 9366      72436F64 
 9366      6500
 9367              	.LASF47:
 9368 04cd 4D656D44 		.ascii	"MemDataAlignment\000"
 9368      61746141 
 9368      6C69676E 
 9368      6D656E74 
 9368      00
ARM GAS  /tmp/cc34cfqS.s 			page 170


 9369              	.LASF58:
 9370 04de 4C6F636B 		.ascii	"Lock\000"
 9370      00
 9371              	.LASF85:
 9372 04e3 48414C5F 		.ascii	"HAL_SPI_STATE_BUSY_TX_RX\000"
 9372      5350495F 
 9372      53544154 
 9372      455F4255 
 9372      53595F54 
 9373              	.LASF153:
 9374 04fc 5350495F 		.ascii	"SPI_2linesRxISR_16BITCRC\000"
 9374      326C696E 
 9374      65735278 
 9374      4953525F 
 9374      31364249 
 9375              	.LASF79:
 9376 0515 5350495F 		.ascii	"SPI_InitTypeDef\000"
 9376      496E6974 
 9376      54797065 
 9376      44656600 
 9377              	.LASF72:
 9378 0525 42617564 		.ascii	"BaudRatePrescaler\000"
 9378      52617465 
 9378      50726573 
 9378      63616C65 
 9378      7200
 9379              	.LASF124:
 9380 0537 48414C5F 		.ascii	"HAL_SPI_Receive_DMA\000"
 9380      5350495F 
 9380      52656365 
 9380      6976655F 
 9380      444D4100 
 9381              	.LASF52:
 9382 054b 48414C5F 		.ascii	"HAL_DMA_STATE_READY\000"
 9382      444D415F 
 9382      53544154 
 9382      455F5245 
 9382      41445900 
 9383              	.LASF70:
 9384 055f 434C4B50 		.ascii	"CLKPolarity\000"
 9384      6F6C6172 
 9384      69747900 
 9385              	.LASF141:
 9386 056b 68646D61 		.ascii	"hdma\000"
 9386      00
 9387              	.LASF125:
 9388 0570 48414C5F 		.ascii	"HAL_SPI_TransmitReceive_DMA\000"
 9388      5350495F 
 9388      5472616E 
 9388      736D6974 
 9388      52656365 
 9389              	.LASF78:
 9390 058c 4E535350 		.ascii	"NSSPMode\000"
 9390      4D6F6465 
 9390      00
 9391              	.LASF138:
 9392 0595 48414C5F 		.ascii	"HAL_SPI_ErrorCallback\000"
ARM GAS  /tmp/cc34cfqS.s 			page 171


 9392      5350495F 
 9392      4572726F 
 9392      7243616C 
 9392      6C626163 
 9393              	.LASF19:
 9394 05ab 73697A65 		.ascii	"sizetype\000"
 9394      74797065 
 9394      00
 9395              	.LASF162:
 9396 05b4 5350495F 		.ascii	"SPI_WaitFlagStateUntilTimeout\000"
 9396      57616974 
 9396      466C6167 
 9396      53746174 
 9396      65556E74 
 9397              	.LASF164:
 9398 05d2 4669666F 		.ascii	"Fifo\000"
 9398      00
 9399              	.LASF40:
 9400 05d7 48414C5F 		.ascii	"HAL_LOCKED\000"
 9400      4C4F434B 
 9400      454400
 9401              	.LASF118:
 9402 05e2 70547844 		.ascii	"pTxData\000"
 9402      61746100 
 9403              	.LASF156:
 9404 05ea 5350495F 		.ascii	"SPI_RxISR_8BIT\000"
 9404      52784953 
 9404      525F3842 
 9404      495400
 9405              	.LASF68:
 9406 05f9 444D415F 		.ascii	"DMA_HandleTypeDef\000"
 9406      48616E64 
 9406      6C655479 
 9406      70654465 
 9406      6600
 9407              	.LASF77:
 9408 060b 4352434C 		.ascii	"CRCLength\000"
 9408      656E6774 
 9408      6800
 9409              	.LASF99:
 9410 0615 68646D61 		.ascii	"hdmatx\000"
 9410      747800
 9411              	.LASF71:
 9412 061c 434C4B50 		.ascii	"CLKPhase\000"
 9412      68617365 
 9412      00
 9413              	.LASF73:
 9414 0625 46697273 		.ascii	"FirstBit\000"
 9414      74426974 
 9414      00
 9415              	.LASF172:
 9416 062e 2F752F65 		.ascii	"/u/elawton2/p442-submissions/sensortile/reference/b"
 9416      6C617774 
 9416      6F6E322F 
 9416      70343432 
 9416      2D737562 
 9417 0661 6C75656D 		.ascii	"luemicrosystem2/BlueMicrosystem2_V2.2.0/Projects/Mu"
ARM GAS  /tmp/cc34cfqS.s 			page 172


 9417      6963726F 
 9417      73797374 
 9417      656D322F 
 9417      426C7565 
 9418 0694 6C74692F 		.ascii	"lti/Applications/BlueMicrosystem2/bluechibi\000"
 9418      4170706C 
 9418      69636174 
 9418      696F6E73 
 9418      2F426C75 
 9419              	.LASF160:
 9420 06c0 5350495F 		.ascii	"SPI_TxISR_16BIT\000"
 9420      54784953 
 9420      525F3136 
 9420      42495400 
 9421              	.LASF57:
 9422 06d0 496E6974 		.ascii	"Init\000"
 9422      00
 9423              	.LASF116:
 9424 06d5 6572726F 		.ascii	"error\000"
 9424      7200
 9425              	.LASF92:
 9426 06db 54785866 		.ascii	"TxXferCount\000"
 9426      6572436F 
 9426      756E7400 
 9427              	.LASF109:
 9428 06e7 53697A65 		.ascii	"Size\000"
 9428      00
 9429              	.LASF29:
 9430 06ec 52455345 		.ascii	"RESERVED1\000"
 9430      52564544 
 9430      3100
 9431              	.LASF30:
 9432 06f6 52455345 		.ascii	"RESERVED2\000"
 9432      52564544 
 9432      3200
 9433              	.LASF146:
 9434 0700 5350495F 		.ascii	"SPI_DMAHalfReceiveCplt\000"
 9434      444D4148 
 9434      616C6652 
 9434      65636569 
 9434      76654370 
 9435              	.LASF63:
 9436 0717 58666572 		.ascii	"XferErrorCallback\000"
 9436      4572726F 
 9436      7243616C 
 9436      6C626163 
 9436      6B00
 9437              	.LASF32:
 9438 0729 52455345 		.ascii	"RESET\000"
 9438      5400
 9439              	.LASF106:
 9440 072f 48414C5F 		.ascii	"HAL_SPI_MspDeInit\000"
 9440      5350495F 
 9440      4D737044 
 9440      65496E69 
 9440      7400
 9441              	.LASF144:
ARM GAS  /tmp/cc34cfqS.s 			page 173


 9442 0741 5350495F 		.ascii	"SPI_DMATransmitReceiveCplt\000"
 9442      444D4154 
 9442      72616E73 
 9442      6D697452 
 9442      65636569 
 9443              	.LASF17:
 9444 075c 696E7433 		.ascii	"int32_t\000"
 9444      325F7400 
 9445              	.LASF1:
 9446 0764 756E7369 		.ascii	"unsigned char\000"
 9446      676E6564 
 9446      20636861 
 9446      7200
 9447              	.LASF142:
 9448 0772 5350495F 		.ascii	"SPI_DMATransmitCplt\000"
 9448      444D4154 
 9448      72616E73 
 9448      6D697443 
 9448      706C7400 
 9449              	.LASF55:
 9450 0786 48414C5F 		.ascii	"HAL_DMA_StateTypeDef\000"
 9450      444D415F 
 9450      53746174 
 9450      65547970 
 9450      65446566 
 9451              	.LASF4:
 9452 079b 73686F72 		.ascii	"short int\000"
 9452      7420696E 
 9452      7400
 9453              	.LASF53:
 9454 07a5 48414C5F 		.ascii	"HAL_DMA_STATE_BUSY\000"
 9454      444D415F 
 9454      53544154 
 9454      455F4255 
 9454      535900
 9455              	.LASF113:
 9456 07b8 6572726F 		.ascii	"errorcode\000"
 9456      72636F64 
 9456      6500
 9457              	.LASF112:
 9458 07c2 7469636B 		.ascii	"tickstart\000"
 9458      73746172 
 9458      7400
 9459              	.LASF171:
 9460 07cc 2E2E2F2E 		.ascii	"../../../../../Drivers/STM32L4xx_HAL_Driver/Src/stm"
 9460      2E2F2E2E 
 9460      2F2E2E2F 
 9460      2E2E2F44 
 9460      72697665 
 9461 07ff 33326C34 		.ascii	"32l4xx_hal_spi.c\000"
 9461      78785F68 
 9461      616C5F73 
 9461      70692E63 
 9461      00
 9462              	.LASF158:
 9463 0810 5350495F 		.ascii	"SPI_RxISR_16BIT\000"
 9463      52784953 
ARM GAS  /tmp/cc34cfqS.s 			page 174


 9463      525F3136 
 9463      42495400 
 9464              	.LASF38:
 9465 0820 48414C5F 		.ascii	"HAL_StatusTypeDef\000"
 9465      53746174 
 9465      75735479 
 9465      70654465 
 9465      6600
 9466              	.LASF80:
 9467 0832 48414C5F 		.ascii	"HAL_SPI_STATE_RESET\000"
 9467      5350495F 
 9467      53544154 
 9467      455F5245 
 9467      53455400 
 9468              	.LASF88:
 9469 0846 5F5F444D 		.ascii	"__DMA_HandleTypeDef\000"
 9469      415F4861 
 9469      6E646C65 
 9469      54797065 
 9469      44656600 
 9470              	.LASF18:
 9471 085a 75696E74 		.ascii	"uint32_t\000"
 9471      33325F74 
 9471      00
 9472              	.LASF167:
 9473 0863 5350495F 		.ascii	"SPI_CloseRxTx_ISR\000"
 9473      436C6F73 
 9473      65527854 
 9473      785F4953 
 9473      5200
 9474              	.LASF126:
 9475 0875 48414C5F 		.ascii	"HAL_SPI_DMAPause\000"
 9475      5350495F 
 9475      444D4150 
 9475      61757365 
 9475      00
 9476              	.LASF24:
 9477 0886 49464352 		.ascii	"IFCR\000"
 9477      00
 9478              	.LASF31:
 9479 088b 5350495F 		.ascii	"SPI_TypeDef\000"
 9479      54797065 
 9479      44656600 
 9480              	.LASF33:
 9481 0897 63686172 		.ascii	"char\000"
 9481      00
 9482              	.LASF42:
 9483 089c 52657175 		.ascii	"Request\000"
 9483      65737400 
 9484              	.LASF135:
 9485 08a4 48414C5F 		.ascii	"HAL_SPI_TxHalfCpltCallback\000"
 9485      5350495F 
 9485      54784861 
 9485      6C664370 
 9485      6C744361 
 9486              	.LASF59:
 9487 08bf 53746174 		.ascii	"State\000"
ARM GAS  /tmp/cc34cfqS.s 			page 175


 9487      6500
 9488              	.LASF48:
 9489 08c5 4D6F6465 		.ascii	"Mode\000"
 9489      00
 9490              	.LASF5:
 9491 08ca 5F5F7569 		.ascii	"__uint16_t\000"
 9491      6E743136 
 9491      5F7400
 9492              	.LASF69:
 9493 08d5 44617461 		.ascii	"DataSize\000"
 9493      53697A65 
 9493      00
 9494              	.LASF45:
 9495 08de 4D656D49 		.ascii	"MemInc\000"
 9495      6E6300
 9496              	.LASF111:
 9497 08e5 66727874 		.ascii	"frxth\000"
 9497      6800
 9498              	.LASF7:
 9499 08eb 5F5F696E 		.ascii	"__int32_t\000"
 9499      7433325F 
 9499      7400
 9500              	.LASF132:
 9501 08f5 48414C5F 		.ascii	"HAL_SPI_TxCpltCallback\000"
 9501      5350495F 
 9501      54784370 
 9501      6C744361 
 9501      6C6C6261 
 9502              	.LASF122:
 9503 090c 48414C5F 		.ascii	"HAL_SPI_TransmitReceive_IT\000"
 9503      5350495F 
 9503      5472616E 
 9503      736D6974 
 9503      52656365 
 9504              	.LASF140:
 9505 0927 48414C5F 		.ascii	"HAL_SPI_GetError\000"
 9505      5350495F 
 9505      47657445 
 9505      72726F72 
 9505      00
 9506              	.LASF23:
 9507 0938 444D415F 		.ascii	"DMA_Channel_TypeDef\000"
 9507      4368616E 
 9507      6E656C5F 
 9507      54797065 
 9507      44656600 
 9508              	.LASF87:
 9509 094c 48414C5F 		.ascii	"HAL_SPI_StateTypeDef\000"
 9509      5350495F 
 9509      53746174 
 9509      65547970 
 9509      65446566 
 9510              	.LASF82:
 9511 0961 48414C5F 		.ascii	"HAL_SPI_STATE_BUSY\000"
 9511      5350495F 
 9511      53544154 
 9511      455F4255 
ARM GAS  /tmp/cc34cfqS.s 			page 176


 9511      535900
 9512              	.LASF121:
 9513 0974 48414C5F 		.ascii	"HAL_SPI_Receive_IT\000"
 9513      5350495F 
 9513      52656365 
 9513      6976655F 
 9513      495400
 9514              	.LASF155:
 9515 0987 5350495F 		.ascii	"SPI_RxISR_8BITCRC\000"
 9515      52784953 
 9515      525F3842 
 9515      49544352 
 9515      4300
 9516              	.LASF35:
 9517 0999 48414C5F 		.ascii	"HAL_ERROR\000"
 9517      4552524F 
 9517      5200
 9518              	.LASF157:
 9519 09a3 5350495F 		.ascii	"SPI_RxISR_16BITCRC\000"
 9519      52784953 
 9519      525F3136 
 9519      42495443 
 9519      524300
 9520              	.LASF46:
 9521 09b6 50657269 		.ascii	"PeriphDataAlignment\000"
 9521      70684461 
 9521      7461416C 
 9521      69676E6D 
 9521      656E7400 
 9522              	.LASF81:
 9523 09ca 48414C5F 		.ascii	"HAL_SPI_STATE_READY\000"
 9523      5350495F 
 9523      53544154 
 9523      455F5245 
 9523      41445900 
 9524              	.LASF74:
 9525 09de 54494D6F 		.ascii	"TIMode\000"
 9525      646500
 9526              	.LASF20:
 9527 09e5 434E4454 		.ascii	"CNDTR\000"
 9527      5200
 9528              	.LASF22:
 9529 09eb 434D4152 		.ascii	"CMAR\000"
 9529      00
 9530              	.LASF150:
 9531 09f0 5350495F 		.ascii	"SPI_2linesRxISR_8BITCRC\000"
 9531      326C696E 
 9531      65735278 
 9531      4953525F 
 9531      38424954 
 9532              	.LASF54:
 9533 0a08 48414C5F 		.ascii	"HAL_DMA_STATE_TIMEOUT\000"
 9533      444D415F 
 9533      53544154 
 9533      455F5449 
 9533      4D454F55 
 9534              	.LASF93:
ARM GAS  /tmp/cc34cfqS.s 			page 177


 9535 0a1e 70527842 		.ascii	"pRxBuffPtr\000"
 9535      75666650 
 9535      747200
 9536              	.LASF14:
 9537 0a29 75696E74 		.ascii	"uint8_t\000"
 9537      385F7400 
 9538              	.LASF75:
 9539 0a31 43524343 		.ascii	"CRCCalculation\000"
 9539      616C6375 
 9539      6C617469 
 9539      6F6E00
 9540              	.LASF103:
 9541 0a40 48414C5F 		.ascii	"HAL_SPI_DeInit\000"
 9541      5350495F 
 9541      4465496E 
 9541      697400
 9542              	.LASF128:
 9543 0a4f 48414C5F 		.ascii	"HAL_SPI_DMAStop\000"
 9543      5350495F 
 9543      444D4153 
 9543      746F7000 
 9544              	.LASF169:
 9545 0a5f 5350495F 		.ascii	"SPI_CloseTx_ISR\000"
 9545      436C6F73 
 9545      6554785F 
 9545      49535200 
 9546              	.LASF95:
 9547 0a6f 52785866 		.ascii	"RxXferCount\000"
 9547      6572436F 
 9547      756E7400 
 9548              	.LASF163:
 9549 0a7b 5350495F 		.ascii	"SPI_WaitFifoStateUntilTimeout\000"
 9549      57616974 
 9549      4669666F 
 9549      53746174 
 9549      65556E74 
 9550              	.LASF98:
 9551 0a99 54784953 		.ascii	"TxISR\000"
 9551      5200
 9552              	.LASF115:
 9553 0a9f 48414C5F 		.ascii	"HAL_SPI_Receive\000"
 9553      5350495F 
 9553      52656365 
 9553      69766500 
 9554              	.LASF39:
 9555 0aaf 48414C5F 		.ascii	"HAL_UNLOCKED\000"
 9555      554E4C4F 
 9555      434B4544 
 9555      00
 9556              	.LASF105:
 9557 0abc 48414C5F 		.ascii	"HAL_SPI_MspInit\000"
 9557      5350495F 
 9557      4D737049 
 9557      6E697400 
 9558              	.LASF36:
 9559 0acc 48414C5F 		.ascii	"HAL_BUSY\000"
 9559      42555359 
ARM GAS  /tmp/cc34cfqS.s 			page 178


 9559      00
 9560              	.LASF64:
 9561 0ad5 58666572 		.ascii	"XferAbortCallback\000"
 9561      41626F72 
 9561      7443616C 
 9561      6C626163 
 9561      6B00
 9562              	.LASF96:
 9563 0ae7 43524353 		.ascii	"CRCSize\000"
 9563      697A6500 
 9564              	.LASF61:
 9565 0aef 58666572 		.ascii	"XferCpltCallback\000"
 9565      43706C74 
 9565      43616C6C 
 9565      6261636B 
 9565      00
 9566              	.LASF131:
 9567 0b00 6974666C 		.ascii	"itflag\000"
 9567      616700
 9568              	.LASF127:
 9569 0b07 48414C5F 		.ascii	"HAL_SPI_DMAResume\000"
 9569      5350495F 
 9569      444D4152 
 9569      6573756D 
 9569      6500
 9570              	.LASF117:
 9571 0b19 48414C5F 		.ascii	"HAL_SPI_TransmitReceive\000"
 9571      5350495F 
 9571      5472616E 
 9571      736D6974 
 9571      52656365 
 9572              		.ident	"GCC: (GNU Tools for ARM Embedded Processors) 4.8.4 20140526 (release) [ARM/embedded-4_8-br
ARM GAS  /tmp/cc34cfqS.s 			page 179


DEFINED SYMBOLS
                            *ABS*:00000000 stm32l4xx_hal_spi.c
     /tmp/cc34cfqS.s:18     .text:00000000 $t
     /tmp/cc34cfqS.s:24     .text:00000000 HAL_SPI_Init
     /tmp/cc34cfqS.s:288    .text:00000180 HAL_SPI_MspInit
     /tmp/cc34cfqS.s:224    .text:00000130 HAL_SPI_DeInit
     /tmp/cc34cfqS.s:311    .text:00000190 HAL_SPI_MspDeInit
     /tmp/cc34cfqS.s:334    .text:000001a0 HAL_SPI_Transmit
     /tmp/cc34cfqS.s:5976   .text:00002510 SPI_EndRxTxTransaction
     /tmp/cc34cfqS.s:709    .text:00000410 HAL_SPI_Receive
     /tmp/cc34cfqS.s:1233   .text:000007a0 HAL_SPI_TransmitReceive
     /tmp/cc34cfqS.s:5594   .text:000022a0 SPI_WaitFlagStateUntilTimeout
     /tmp/cc34cfqS.s:5870   .text:00002460 SPI_EndRxTransaction
     /tmp/cc34cfqS.s:1856   .text:00000bf0 HAL_SPI_Transmit_IT
     /tmp/cc34cfqS.s:2039   .text:00000d20 $d
     /tmp/cc34cfqS.s:5527   .text:00002240 SPI_TxISR_16BIT
     /tmp/cc34cfqS.s:5462   .text:000021e0 SPI_TxISR_8BIT
     /tmp/cc34cfqS.s:2044   .text:00000d28 $t
     /tmp/cc34cfqS.s:2050   .text:00000d30 HAL_SPI_Receive_IT
     /tmp/cc34cfqS.s:2315   .text:00000ef0 HAL_SPI_TransmitReceive_IT
     /tmp/cc34cfqS.s:2304   .text:00000ee0 $d
     /tmp/cc34cfqS.s:5373   .text:00002160 SPI_RxISR_16BIT
     /tmp/cc34cfqS.s:5243   .text:000020a0 SPI_RxISR_8BIT
     /tmp/cc34cfqS.s:2309   .text:00000ee8 $t
     /tmp/cc34cfqS.s:2574   .text:000010a4 $d
     /tmp/cc34cfqS.s:4990   .text:00001f30 SPI_2linesRxISR_16BIT
     /tmp/cc34cfqS.s:5116   .text:00001ff0 SPI_2linesTxISR_16BIT
     /tmp/cc34cfqS.s:4692   .text:00001d70 SPI_2linesRxISR_8BIT
     /tmp/cc34cfqS.s:4884   .text:00001e90 SPI_2linesTxISR_8BIT
     /tmp/cc34cfqS.s:2581   .text:000010b4 $t
     /tmp/cc34cfqS.s:2587   .text:000010c0 HAL_SPI_Transmit_DMA
     /tmp/cc34cfqS.s:2841   .text:00001278 $d
     /tmp/cc34cfqS.s:4550   .text:00001cd0 SPI_DMAHalfTransmitCplt
     /tmp/cc34cfqS.s:4107   .text:000019f0 SPI_DMATransmitCplt
     /tmp/cc34cfqS.s:4643   .text:00001d30 SPI_DMAError
     /tmp/cc34cfqS.s:2847   .text:00001284 $t
     /tmp/cc34cfqS.s:2853   .text:00001290 HAL_SPI_Receive_DMA
     /tmp/cc34cfqS.s:3130   .text:00001470 HAL_SPI_TransmitReceive_DMA
     /tmp/cc34cfqS.s:3118   .text:00001460 $d
     /tmp/cc34cfqS.s:4581   .text:00001cf0 SPI_DMAHalfReceiveCplt
     /tmp/cc34cfqS.s:4203   .text:00001a80 SPI_DMAReceiveCplt
     /tmp/cc34cfqS.s:3124   .text:0000146c $t
     /tmp/cc34cfqS.s:3531   .text:00001740 $d
     /tmp/cc34cfqS.s:4612   .text:00001d10 SPI_DMAHalfTransmitReceiveCplt
     /tmp/cc34cfqS.s:4380   .text:00001bb0 SPI_DMATransmitReceiveCplt
     /tmp/cc34cfqS.s:3539   .text:00001754 $t
     /tmp/cc34cfqS.s:3545   .text:00001760 HAL_SPI_DMAPause
     /tmp/cc34cfqS.s:3597   .text:000017a0 HAL_SPI_DMAResume
     /tmp/cc34cfqS.s:3649   .text:000017e0 HAL_SPI_DMAStop
     /tmp/cc34cfqS.s:3711   .text:00001830 HAL_SPI_IRQHandler
     /tmp/cc34cfqS.s:4030   .text:000019b0 HAL_SPI_ErrorCallback
     /tmp/cc34cfqS.s:3892   .text:00001950 HAL_SPI_TxCpltCallback
     /tmp/cc34cfqS.s:3915   .text:00001960 HAL_SPI_RxCpltCallback
     /tmp/cc34cfqS.s:3938   .text:00001970 HAL_SPI_TxRxCpltCallback
     /tmp/cc34cfqS.s:3961   .text:00001980 HAL_SPI_TxHalfCpltCallback
     /tmp/cc34cfqS.s:3984   .text:00001990 HAL_SPI_RxHalfCpltCallback
     /tmp/cc34cfqS.s:4007   .text:000019a0 HAL_SPI_TxRxHalfCpltCallback
ARM GAS  /tmp/cc34cfqS.s 			page 180


     /tmp/cc34cfqS.s:4053   .text:000019c0 HAL_SPI_GetState
     /tmp/cc34cfqS.s:4081   .text:000019e0 HAL_SPI_GetError
     /tmp/cc34cfqS.s:5723   .text:00002370 SPI_WaitFifoStateUntilTimeout
     /tmp/cc34cfqS.s:6043   .text:00002570 SPI_CloseRxTx_ISR
     /tmp/cc34cfqS.s:4814   .text:00001e3c $d
     /tmp/cc34cfqS.s:4823   .text:00001e40 SPI_2linesRxISR_8BITCRC
     /tmp/cc34cfqS.s:4818   .text:00001e40 $t
     /tmp/cc34cfqS.s:5064   .text:00001fa0 $d
     /tmp/cc34cfqS.s:5073   .text:00001fb0 SPI_2linesRxISR_16BITCRC
     /tmp/cc34cfqS.s:5068   .text:00001fa4 $t
     /tmp/cc34cfqS.s:5196   .text:00002060 SPI_RxISR_8BITCRC
     /tmp/cc34cfqS.s:6153   .text:00002620 SPI_CloseRx_ISR
     /tmp/cc34cfqS.s:5321   .text:00002118 $d
     /tmp/cc34cfqS.s:5325   .text:0000211c $t
     /tmp/cc34cfqS.s:5330   .text:00002120 SPI_RxISR_16BITCRC
     /tmp/cc34cfqS.s:5453   .text:000021dc $d
     /tmp/cc34cfqS.s:5457   .text:000021e0 $t
     /tmp/cc34cfqS.s:6240   .text:000026a0 SPI_CloseTx_ISR
                     .debug_frame:00000010 $d

UNDEFINED SYMBOLS
HAL_GetTick
HAL_DMA_Start_IT
HAL_DMA_Abort
