ARM GAS  /tmp/cc0eeV3r.s 			page 1


   1              		.syntax unified
   2              		.cpu cortex-m4
   3              		.fpu softvfp
   4              		.eabi_attribute 20, 1
   5              		.eabi_attribute 21, 1
   6              		.eabi_attribute 23, 3
   7              		.eabi_attribute 24, 1
   8              		.eabi_attribute 25, 1
   9              		.eabi_attribute 26, 1
  10              		.eabi_attribute 30, 6
  11              		.eabi_attribute 34, 1
  12              		.eabi_attribute 18, 4
  13              		.thumb
  14              		.file	"stm32l4xx_hal_flash_ex.c"
  15              		.text
  16              	.Ltext0:
  17              		.cfi_sections	.debug_frame
  18              		.align	2
  19              		.p2align 4,,15
  20              		.global	HAL_FLASHEx_Erase
  21              		.thumb
  22              		.thumb_func
  23              		.type	HAL_FLASHEx_Erase, %function
  24              	HAL_FLASHEx_Erase:
  25              	.LFB125:
  26              		.file 1 "../../../../../Drivers/STM32L4xx_HAL_Driver/Src/stm32l4xx_hal_flash_ex.c"
  27              		.loc 1 157 0
  28              		.cfi_startproc
  29              		@ args = 0, pretend = 0, frame = 16
  30              		@ frame_needed = 0, uses_anonymous_args = 0
  31 0000 00B5     		push	{lr}
  32              		.cfi_def_cfa_offset 4
  33              		.cfi_offset 14, -4
  34 0002 85B0     		sub	sp, sp, #20
  35              		.cfi_def_cfa_offset 24
  36 0004 0190     		str	r0, [sp, #4]
  37 0006 0091     		str	r1, [sp]
  38              		.loc 1 158 0
  39 0008 0123     		movs	r3, #1
  40 000a 8DF80F30 		strb	r3, [sp, #15]
  41              		.loc 1 159 0
  42 000e 0023     		movs	r3, #0
  43 0010 0293     		str	r3, [sp, #8]
  44              		.loc 1 162 0
  45 0012 354B     		ldr	r3, .L10
  46 0014 1B78     		ldrb	r3, [r3]	@ zero_extendqisi2
  47 0016 012B     		cmp	r3, #1
  48 0018 01D1     		bne	.L2
  49              		.loc 1 162 0 is_stmt 0 discriminator 1
  50 001a 0223     		movs	r3, #2
  51 001c 60E0     		b	.L3
  52              	.L2:
  53              		.loc 1 162 0 discriminator 2
  54 001e 324B     		ldr	r3, .L10
  55 0020 0122     		movs	r2, #1
  56 0022 1A70     		strb	r2, [r3]
  57              		.loc 1 168 0 is_stmt 1 discriminator 2
ARM GAS  /tmp/cc0eeV3r.s 			page 2


  58 0024 4CF25030 		movw	r0, #50000
  59 0028 FFF7FEFF 		bl	FLASH_WaitForLastOperation
  60 002c 0346     		mov	r3, r0
  61 002e 8DF80F30 		strb	r3, [sp, #15]
  62              		.loc 1 170 0 discriminator 2
  63 0032 9DF80F30 		ldrb	r3, [sp, #15]	@ zero_extendqisi2
  64 0036 002B     		cmp	r3, #0
  65 0038 4DD1     		bne	.L4
  66              		.loc 1 172 0
  67 003a 2B4B     		ldr	r3, .L10
  68 003c 0022     		movs	r2, #0
  69 003e 5A60     		str	r2, [r3, #4]
  70              		.loc 1 174 0
  71 0040 019B     		ldr	r3, [sp, #4]
  72 0042 1B68     		ldr	r3, [r3]
  73 0044 012B     		cmp	r3, #1
  74 0046 14D1     		bne	.L5
  75              		.loc 1 177 0
  76 0048 019B     		ldr	r3, [sp, #4]
  77 004a 5B68     		ldr	r3, [r3, #4]
  78 004c 1846     		mov	r0, r3
  79 004e 00F02FF9 		bl	FLASH_MassErase
  80              		.loc 1 180 0
  81 0052 4CF25030 		movw	r0, #50000
  82 0056 FFF7FEFF 		bl	FLASH_WaitForLastOperation
  83 005a 0346     		mov	r3, r0
  84 005c 8DF80F30 		strb	r3, [sp, #15]
  85              		.loc 1 184 0
  86 0060 224A     		ldr	r2, .L10+4
  87 0062 224B     		ldr	r3, .L10+4
  88 0064 5B69     		ldr	r3, [r3, #20]
  89 0066 23F40043 		bic	r3, r3, #32768
  90 006a 23F00403 		bic	r3, r3, #4
  91 006e 5361     		str	r3, [r2, #20]
  92 0070 2FE0     		b	.L6
  93              	.L5:
  94              		.loc 1 193 0
  95 0072 009B     		ldr	r3, [sp]
  96 0074 4FF0FF32 		mov	r2, #-1
  97 0078 1A60     		str	r2, [r3]
  98              		.loc 1 195 0
  99 007a 019B     		ldr	r3, [sp, #4]
 100 007c 9B68     		ldr	r3, [r3, #8]
 101 007e 0293     		str	r3, [sp, #8]
 102 0080 1FE0     		b	.L7
 103              	.L9:
 104              		.loc 1 197 0
 105 0082 019B     		ldr	r3, [sp, #4]
 106 0084 5B68     		ldr	r3, [r3, #4]
 107 0086 0298     		ldr	r0, [sp, #8]
 108 0088 1946     		mov	r1, r3
 109 008a FFF7FEFF 		bl	FLASH_PageErase
 110              		.loc 1 200 0
 111 008e 4CF25030 		movw	r0, #50000
 112 0092 FFF7FEFF 		bl	FLASH_WaitForLastOperation
 113 0096 0346     		mov	r3, r0
 114 0098 8DF80F30 		strb	r3, [sp, #15]
ARM GAS  /tmp/cc0eeV3r.s 			page 3


 115              		.loc 1 203 0
 116 009c 134A     		ldr	r2, .L10+4
 117 009e 134B     		ldr	r3, .L10+4
 118 00a0 5B69     		ldr	r3, [r3, #20]
 119 00a2 23F4FF63 		bic	r3, r3, #2040
 120 00a6 23F00203 		bic	r3, r3, #2
 121 00aa 5361     		str	r3, [r2, #20]
 122              		.loc 1 205 0
 123 00ac 9DF80F30 		ldrb	r3, [sp, #15]	@ zero_extendqisi2
 124 00b0 002B     		cmp	r3, #0
 125 00b2 03D0     		beq	.L8
 126              		.loc 1 208 0
 127 00b4 009B     		ldr	r3, [sp]
 128 00b6 029A     		ldr	r2, [sp, #8]
 129 00b8 1A60     		str	r2, [r3]
 130              		.loc 1 209 0
 131 00ba 0AE0     		b	.L6
 132              	.L8:
 133              		.loc 1 195 0
 134 00bc 029B     		ldr	r3, [sp, #8]
 135 00be 0133     		adds	r3, r3, #1
 136 00c0 0293     		str	r3, [sp, #8]
 137              	.L7:
 138              		.loc 1 195 0 is_stmt 0 discriminator 1
 139 00c2 019B     		ldr	r3, [sp, #4]
 140 00c4 9A68     		ldr	r2, [r3, #8]
 141 00c6 019B     		ldr	r3, [sp, #4]
 142 00c8 DB68     		ldr	r3, [r3, #12]
 143 00ca 1A44     		add	r2, r2, r3
 144 00cc 029B     		ldr	r3, [sp, #8]
 145 00ce 9A42     		cmp	r2, r3
 146 00d0 D7D8     		bhi	.L9
 147              	.L6:
 148              		.loc 1 215 0 is_stmt 1
 149 00d2 FFF7FEFF 		bl	FLASH_FlushCaches
 150              	.L4:
 151              		.loc 1 219 0
 152 00d6 044B     		ldr	r3, .L10
 153 00d8 0022     		movs	r2, #0
 154 00da 1A70     		strb	r2, [r3]
 155              		.loc 1 221 0
 156 00dc 9DF80F30 		ldrb	r3, [sp, #15]	@ zero_extendqisi2
 157              	.L3:
 158              		.loc 1 222 0
 159 00e0 1846     		mov	r0, r3
 160 00e2 05B0     		add	sp, sp, #20
 161              		@ sp needed
 162 00e4 5DF804FB 		ldr	pc, [sp], #4
 163              	.L11:
 164              		.align	2
 165              	.L10:
 166 00e8 00000000 		.word	pFlash
 167 00ec 00200240 		.word	1073881088
 168              		.cfi_endproc
 169              	.LFE125:
 170              		.size	HAL_FLASHEx_Erase, .-HAL_FLASHEx_Erase
 171              		.align	2
ARM GAS  /tmp/cc0eeV3r.s 			page 4


 172              		.p2align 4,,15
 173              		.global	HAL_FLASHEx_Erase_IT
 174              		.thumb
 175              		.thumb_func
 176              		.type	HAL_FLASHEx_Erase_IT, %function
 177              	HAL_FLASHEx_Erase_IT:
 178              	.LFB126:
 179              		.loc 1 232 0
 180              		.cfi_startproc
 181              		@ args = 0, pretend = 0, frame = 16
 182              		@ frame_needed = 0, uses_anonymous_args = 0
 183 00f0 00B5     		push	{lr}
 184              		.cfi_def_cfa_offset 4
 185              		.cfi_offset 14, -4
 186 00f2 85B0     		sub	sp, sp, #20
 187              		.cfi_def_cfa_offset 24
 188 00f4 0190     		str	r0, [sp, #4]
 189              		.loc 1 233 0
 190 00f6 0023     		movs	r3, #0
 191 00f8 8DF80F30 		strb	r3, [sp, #15]
 192              		.loc 1 236 0
 193 00fc 1D4B     		ldr	r3, .L17
 194 00fe 1B78     		ldrb	r3, [r3]	@ zero_extendqisi2
 195 0100 012B     		cmp	r3, #1
 196 0102 01D1     		bne	.L13
 197              		.loc 1 236 0 is_stmt 0 discriminator 1
 198 0104 0223     		movs	r3, #2
 199 0106 31E0     		b	.L14
 200              	.L13:
 201              		.loc 1 236 0 discriminator 2
 202 0108 1A4B     		ldr	r3, .L17
 203 010a 0122     		movs	r2, #1
 204 010c 1A70     		strb	r2, [r3]
 205              		.loc 1 241 0 is_stmt 1 discriminator 2
 206 010e 194B     		ldr	r3, .L17
 207 0110 0022     		movs	r2, #0
 208 0112 5A60     		str	r2, [r3, #4]
 209              		.loc 1 244 0 discriminator 2
 210 0114 184B     		ldr	r3, .L17+4
 211 0116 184A     		ldr	r2, .L17+4
 212 0118 5269     		ldr	r2, [r2, #20]
 213 011a 42F04072 		orr	r2, r2, #50331648
 214 011e 5A61     		str	r2, [r3, #20]
 215              		.loc 1 246 0 discriminator 2
 216 0120 019B     		ldr	r3, [sp, #4]
 217 0122 5A68     		ldr	r2, [r3, #4]
 218 0124 134B     		ldr	r3, .L17
 219 0126 1A61     		str	r2, [r3, #16]
 220              		.loc 1 248 0 discriminator 2
 221 0128 019B     		ldr	r3, [sp, #4]
 222 012a 1B68     		ldr	r3, [r3]
 223 012c 012B     		cmp	r3, #1
 224 012e 08D1     		bne	.L15
 225              		.loc 1 251 0
 226 0130 104B     		ldr	r3, .L17
 227 0132 0222     		movs	r2, #2
 228 0134 1A72     		strb	r2, [r3, #8]
ARM GAS  /tmp/cc0eeV3r.s 			page 5


 229              		.loc 1 252 0
 230 0136 019B     		ldr	r3, [sp, #4]
 231 0138 5B68     		ldr	r3, [r3, #4]
 232 013a 1846     		mov	r0, r3
 233 013c 00F0B8F8 		bl	FLASH_MassErase
 234 0140 12E0     		b	.L16
 235              	.L15:
 236              		.loc 1 257 0
 237 0142 0C4B     		ldr	r3, .L17
 238 0144 0122     		movs	r2, #1
 239 0146 1A72     		strb	r2, [r3, #8]
 240              		.loc 1 258 0
 241 0148 019B     		ldr	r3, [sp, #4]
 242 014a DA68     		ldr	r2, [r3, #12]
 243 014c 094B     		ldr	r3, .L17
 244 014e 9A61     		str	r2, [r3, #24]
 245              		.loc 1 259 0
 246 0150 019B     		ldr	r3, [sp, #4]
 247 0152 9A68     		ldr	r2, [r3, #8]
 248 0154 074B     		ldr	r3, .L17
 249 0156 5A61     		str	r2, [r3, #20]
 250              		.loc 1 262 0
 251 0158 019B     		ldr	r3, [sp, #4]
 252 015a 9A68     		ldr	r2, [r3, #8]
 253 015c 019B     		ldr	r3, [sp, #4]
 254 015e 5B68     		ldr	r3, [r3, #4]
 255 0160 1046     		mov	r0, r2
 256 0162 1946     		mov	r1, r3
 257 0164 FFF7FEFF 		bl	FLASH_PageErase
 258              	.L16:
 259              		.loc 1 265 0
 260 0168 9DF80F30 		ldrb	r3, [sp, #15]	@ zero_extendqisi2
 261              	.L14:
 262              		.loc 1 266 0
 263 016c 1846     		mov	r0, r3
 264 016e 05B0     		add	sp, sp, #20
 265              		@ sp needed
 266 0170 5DF804FB 		ldr	pc, [sp], #4
 267              	.L18:
 268              		.align	2
 269              	.L17:
 270 0174 00000000 		.word	pFlash
 271 0178 00200240 		.word	1073881088
 272              		.cfi_endproc
 273              	.LFE126:
 274              		.size	HAL_FLASHEx_Erase_IT, .-HAL_FLASHEx_Erase_IT
 275              		.align	2
 276 017c AFF30080 		.p2align 4,,15
 277              		.global	HAL_FLASHEx_OBProgram
 278              		.thumb
 279              		.thumb_func
 280              		.type	HAL_FLASHEx_OBProgram, %function
 281              	HAL_FLASHEx_OBProgram:
 282              	.LFB127:
 283              		.loc 1 276 0
 284              		.cfi_startproc
 285              		@ args = 0, pretend = 0, frame = 16
ARM GAS  /tmp/cc0eeV3r.s 			page 6


 286              		@ frame_needed = 0, uses_anonymous_args = 0
 287 0180 00B5     		push	{lr}
 288              		.cfi_def_cfa_offset 4
 289              		.cfi_offset 14, -4
 290 0182 85B0     		sub	sp, sp, #20
 291              		.cfi_def_cfa_offset 24
 292 0184 0190     		str	r0, [sp, #4]
 293              		.loc 1 277 0
 294 0186 0123     		movs	r3, #1
 295 0188 8DF80F30 		strb	r3, [sp, #15]
 296              		.loc 1 280 0
 297 018c 2D4B     		ldr	r3, .L26
 298 018e 1B78     		ldrb	r3, [r3]	@ zero_extendqisi2
 299 0190 012B     		cmp	r3, #1
 300 0192 01D1     		bne	.L20
 301              		.loc 1 280 0 is_stmt 0 discriminator 1
 302 0194 0223     		movs	r3, #2
 303 0196 51E0     		b	.L21
 304              	.L20:
 305              		.loc 1 280 0 discriminator 2
 306 0198 2A4B     		ldr	r3, .L26
 307 019a 0122     		movs	r2, #1
 308 019c 1A70     		strb	r2, [r3]
 309              		.loc 1 285 0 is_stmt 1 discriminator 2
 310 019e 294B     		ldr	r3, .L26
 311 01a0 0022     		movs	r2, #0
 312 01a2 5A60     		str	r2, [r3, #4]
 313              		.loc 1 288 0 discriminator 2
 314 01a4 019B     		ldr	r3, [sp, #4]
 315 01a6 1B68     		ldr	r3, [r3]
 316 01a8 03F00103 		and	r3, r3, #1
 317 01ac 002B     		cmp	r3, #0
 318 01ae 0DD0     		beq	.L22
 319              		.loc 1 291 0
 320 01b0 019B     		ldr	r3, [sp, #4]
 321 01b2 5968     		ldr	r1, [r3, #4]
 322 01b4 019B     		ldr	r3, [sp, #4]
 323 01b6 9A68     		ldr	r2, [r3, #8]
 324 01b8 019B     		ldr	r3, [sp, #4]
 325 01ba DB68     		ldr	r3, [r3, #12]
 326 01bc 0846     		mov	r0, r1
 327 01be 1146     		mov	r1, r2
 328 01c0 1A46     		mov	r2, r3
 329 01c2 00F00DF9 		bl	FLASH_OB_WRPConfig
 330 01c6 0346     		mov	r3, r0
 331 01c8 8DF80F30 		strb	r3, [sp, #15]
 332              	.L22:
 333              		.loc 1 295 0
 334 01cc 019B     		ldr	r3, [sp, #4]
 335 01ce 1B68     		ldr	r3, [r3]
 336 01d0 03F00203 		and	r3, r3, #2
 337 01d4 002B     		cmp	r3, #0
 338 01d6 07D0     		beq	.L23
 339              		.loc 1 298 0
 340 01d8 019B     		ldr	r3, [sp, #4]
 341 01da 1B69     		ldr	r3, [r3, #16]
 342 01dc 1846     		mov	r0, r3
ARM GAS  /tmp/cc0eeV3r.s 			page 7


 343 01de 00F06FF9 		bl	FLASH_OB_RDPConfig
 344 01e2 0346     		mov	r3, r0
 345 01e4 8DF80F30 		strb	r3, [sp, #15]
 346              	.L23:
 347              		.loc 1 302 0
 348 01e8 019B     		ldr	r3, [sp, #4]
 349 01ea 1B68     		ldr	r3, [r3]
 350 01ec 03F00403 		and	r3, r3, #4
 351 01f0 002B     		cmp	r3, #0
 352 01f2 0AD0     		beq	.L24
 353              		.loc 1 305 0
 354 01f4 019B     		ldr	r3, [sp, #4]
 355 01f6 5A69     		ldr	r2, [r3, #20]
 356 01f8 019B     		ldr	r3, [sp, #4]
 357 01fa 9B69     		ldr	r3, [r3, #24]
 358 01fc 1046     		mov	r0, r2
 359 01fe 1946     		mov	r1, r3
 360 0200 00F096F9 		bl	FLASH_OB_UserConfig
 361 0204 0346     		mov	r3, r0
 362 0206 8DF80F30 		strb	r3, [sp, #15]
 363              	.L24:
 364              		.loc 1 309 0
 365 020a 019B     		ldr	r3, [sp, #4]
 366 020c 1B68     		ldr	r3, [r3]
 367 020e 03F00803 		and	r3, r3, #8
 368 0212 002B     		cmp	r3, #0
 369 0214 0DD0     		beq	.L25
 370              		.loc 1 312 0
 371 0216 019B     		ldr	r3, [sp, #4]
 372 0218 D969     		ldr	r1, [r3, #28]
 373 021a 019B     		ldr	r3, [sp, #4]
 374 021c 1A6A     		ldr	r2, [r3, #32]
 375 021e 019B     		ldr	r3, [sp, #4]
 376 0220 5B6A     		ldr	r3, [r3, #36]
 377 0222 0846     		mov	r0, r1
 378 0224 1146     		mov	r1, r2
 379 0226 1A46     		mov	r2, r3
 380 0228 00F082FA 		bl	FLASH_OB_PCROPConfig
 381 022c 0346     		mov	r3, r0
 382 022e 8DF80F30 		strb	r3, [sp, #15]
 383              	.L25:
 384              		.loc 1 316 0
 385 0232 044B     		ldr	r3, .L26
 386 0234 0022     		movs	r2, #0
 387 0236 1A70     		strb	r2, [r3]
 388              		.loc 1 318 0
 389 0238 9DF80F30 		ldrb	r3, [sp, #15]	@ zero_extendqisi2
 390              	.L21:
 391              		.loc 1 319 0
 392 023c 1846     		mov	r0, r3
 393 023e 05B0     		add	sp, sp, #20
 394              		@ sp needed
 395 0240 5DF804FB 		ldr	pc, [sp], #4
 396              	.L27:
 397              		.align	2
 398              	.L26:
 399 0244 00000000 		.word	pFlash
ARM GAS  /tmp/cc0eeV3r.s 			page 8


 400              		.cfi_endproc
 401              	.LFE127:
 402              		.size	HAL_FLASHEx_OBProgram, .-HAL_FLASHEx_OBProgram
 403              		.align	2
 404 0248 AFF30080 		.p2align 4,,15
 404      AFF30080 
 405              		.global	HAL_FLASHEx_OBGetConfig
 406              		.thumb
 407              		.thumb_func
 408              		.type	HAL_FLASHEx_OBGetConfig, %function
 409              	HAL_FLASHEx_OBGetConfig:
 410              	.LFB128:
 411              		.loc 1 331 0
 412              		.cfi_startproc
 413              		@ args = 0, pretend = 0, frame = 8
 414              		@ frame_needed = 0, uses_anonymous_args = 0
 415 0250 00B5     		push	{lr}
 416              		.cfi_def_cfa_offset 4
 417              		.cfi_offset 14, -4
 418 0252 83B0     		sub	sp, sp, #12
 419              		.cfi_def_cfa_offset 16
 420 0254 0190     		str	r0, [sp, #4]
 421              		.loc 1 332 0
 422 0256 019B     		ldr	r3, [sp, #4]
 423 0258 0F22     		movs	r2, #15
 424 025a 1A60     		str	r2, [r3]
 425              		.loc 1 335 0
 426 025c 019B     		ldr	r3, [sp, #4]
 427 025e 5968     		ldr	r1, [r3, #4]
 428 0260 019B     		ldr	r3, [sp, #4]
 429 0262 03F10802 		add	r2, r3, #8
 430 0266 019B     		ldr	r3, [sp, #4]
 431 0268 0C33     		adds	r3, r3, #12
 432 026a 0846     		mov	r0, r1
 433 026c 1146     		mov	r1, r2
 434 026e 1A46     		mov	r2, r3
 435 0270 00F00EFB 		bl	FLASH_OB_GetWRP
 436              		.loc 1 338 0
 437 0274 00F054FB 		bl	FLASH_OB_GetRDP
 438 0278 0246     		mov	r2, r0
 439 027a 019B     		ldr	r3, [sp, #4]
 440 027c 1A61     		str	r2, [r3, #16]
 441              		.loc 1 341 0
 442 027e 00F067FB 		bl	FLASH_OB_GetUser
 443 0282 0246     		mov	r2, r0
 444 0284 019B     		ldr	r3, [sp, #4]
 445 0286 9A61     		str	r2, [r3, #24]
 446              		.loc 1 344 0
 447 0288 019B     		ldr	r3, [sp, #4]
 448 028a 03F11C01 		add	r1, r3, #28
 449 028e 019B     		ldr	r3, [sp, #4]
 450 0290 03F12002 		add	r2, r3, #32
 451 0294 019B     		ldr	r3, [sp, #4]
 452 0296 2433     		adds	r3, r3, #36
 453 0298 0846     		mov	r0, r1
 454 029a 1146     		mov	r1, r2
 455 029c 1A46     		mov	r2, r3
ARM GAS  /tmp/cc0eeV3r.s 			page 9


 456 029e 00F067FB 		bl	FLASH_OB_GetPCROP
 457              		.loc 1 346 0
 458 02a2 03B0     		add	sp, sp, #12
 459              		@ sp needed
 460 02a4 5DF804FB 		ldr	pc, [sp], #4
 461              		.cfi_endproc
 462              	.LFE128:
 463              		.size	HAL_FLASHEx_OBGetConfig, .-HAL_FLASHEx_OBGetConfig
 464              		.align	2
 465 02a8 AFF30080 		.p2align 4,,15
 465      AFF30080 
 466              		.thumb
 467              		.thumb_func
 468              		.type	FLASH_MassErase, %function
 469              	FLASH_MassErase:
 470              	.LFB129:
 471              		.loc 1 371 0
 472              		.cfi_startproc
 473              		@ args = 0, pretend = 0, frame = 8
 474              		@ frame_needed = 0, uses_anonymous_args = 0
 475              		@ link register save eliminated.
 476 02b0 82B0     		sub	sp, sp, #8
 477              		.cfi_def_cfa_offset 8
 478 02b2 0190     		str	r0, [sp, #4]
 479              		.loc 1 376 0
 480 02b4 019B     		ldr	r3, [sp, #4]
 481 02b6 03F00103 		and	r3, r3, #1
 482 02ba 002B     		cmp	r3, #0
 483 02bc 05D0     		beq	.L30
 484              		.loc 1 378 0
 485 02be 0C4B     		ldr	r3, .L32
 486 02c0 0B4A     		ldr	r2, .L32
 487 02c2 5269     		ldr	r2, [r2, #20]
 488 02c4 42F00402 		orr	r2, r2, #4
 489 02c8 5A61     		str	r2, [r3, #20]
 490              	.L30:
 491              		.loc 1 383 0
 492 02ca 019B     		ldr	r3, [sp, #4]
 493 02cc 03F00203 		and	r3, r3, #2
 494 02d0 002B     		cmp	r3, #0
 495 02d2 05D0     		beq	.L31
 496              		.loc 1 385 0
 497 02d4 064B     		ldr	r3, .L32
 498 02d6 064A     		ldr	r2, .L32
 499 02d8 5269     		ldr	r2, [r2, #20]
 500 02da 42F40042 		orr	r2, r2, #32768
 501 02de 5A61     		str	r2, [r3, #20]
 502              	.L31:
 503              		.loc 1 390 0
 504 02e0 034B     		ldr	r3, .L32
 505 02e2 034A     		ldr	r2, .L32
 506 02e4 5269     		ldr	r2, [r2, #20]
 507 02e6 42F48032 		orr	r2, r2, #65536
 508 02ea 5A61     		str	r2, [r3, #20]
 509              		.loc 1 391 0
 510 02ec 02B0     		add	sp, sp, #8
 511              		@ sp needed
ARM GAS  /tmp/cc0eeV3r.s 			page 10


 512 02ee 7047     		bx	lr
 513              	.L33:
 514              		.align	2
 515              	.L32:
 516 02f0 00200240 		.word	1073881088
 517              		.cfi_endproc
 518              	.LFE129:
 519              		.size	FLASH_MassErase, .-FLASH_MassErase
 520              		.align	2
 521 02f4 AFF30080 		.p2align 4,,15
 521      AFF30080 
 521      AFF30080 
 522              		.global	FLASH_PageErase
 523              		.thumb
 524              		.thumb_func
 525              		.type	FLASH_PageErase, %function
 526              	FLASH_PageErase:
 527              	.LFB130:
 528              		.loc 1 404 0
 529              		.cfi_startproc
 530              		@ args = 0, pretend = 0, frame = 8
 531              		@ frame_needed = 0, uses_anonymous_args = 0
 532              		@ link register save eliminated.
 533 0300 82B0     		sub	sp, sp, #8
 534              		.cfi_def_cfa_offset 8
 535 0302 0190     		str	r0, [sp, #4]
 536 0304 0091     		str	r1, [sp]
 537              		.loc 1 410 0
 538 0306 009B     		ldr	r3, [sp]
 539 0308 03F00103 		and	r3, r3, #1
 540 030c 002B     		cmp	r3, #0
 541 030e 06D0     		beq	.L35
 542              		.loc 1 412 0
 543 0310 114B     		ldr	r3, .L37
 544 0312 114A     		ldr	r2, .L37
 545 0314 5269     		ldr	r2, [r2, #20]
 546 0316 22F40062 		bic	r2, r2, #2048
 547 031a 5A61     		str	r2, [r3, #20]
 548 031c 05E0     		b	.L36
 549              	.L35:
 550              		.loc 1 416 0
 551 031e 0E4B     		ldr	r3, .L37
 552 0320 0D4A     		ldr	r2, .L37
 553 0322 5269     		ldr	r2, [r2, #20]
 554 0324 42F40062 		orr	r2, r2, #2048
 555 0328 5A61     		str	r2, [r3, #20]
 556              	.L36:
 557              		.loc 1 421 0
 558 032a 0B4B     		ldr	r3, .L37
 559 032c 0A4A     		ldr	r2, .L37
 560 032e 5269     		ldr	r2, [r2, #20]
 561 0330 22F4FF61 		bic	r1, r2, #2040
 562 0334 019A     		ldr	r2, [sp, #4]
 563 0336 D200     		lsls	r2, r2, #3
 564 0338 0A43     		orrs	r2, r2, r1
 565 033a 5A61     		str	r2, [r3, #20]
 566              		.loc 1 422 0
ARM GAS  /tmp/cc0eeV3r.s 			page 11


 567 033c 064B     		ldr	r3, .L37
 568 033e 064A     		ldr	r2, .L37
 569 0340 5269     		ldr	r2, [r2, #20]
 570 0342 42F00202 		orr	r2, r2, #2
 571 0346 5A61     		str	r2, [r3, #20]
 572              		.loc 1 423 0
 573 0348 034B     		ldr	r3, .L37
 574 034a 034A     		ldr	r2, .L37
 575 034c 5269     		ldr	r2, [r2, #20]
 576 034e 42F48032 		orr	r2, r2, #65536
 577 0352 5A61     		str	r2, [r3, #20]
 578              		.loc 1 424 0
 579 0354 02B0     		add	sp, sp, #8
 580              		@ sp needed
 581 0356 7047     		bx	lr
 582              	.L38:
 583              		.align	2
 584              	.L37:
 585 0358 00200240 		.word	1073881088
 586              		.cfi_endproc
 587              	.LFE130:
 588              		.size	FLASH_PageErase, .-FLASH_PageErase
 589              		.align	2
 590 035c AFF30080 		.p2align 4,,15
 591              		.global	FLASH_FlushCaches
 592              		.thumb
 593              		.thumb_func
 594              		.type	FLASH_FlushCaches, %function
 595              	FLASH_FlushCaches:
 596              	.LFB131:
 597              		.loc 1 431 0
 598              		.cfi_startproc
 599              		@ args = 0, pretend = 0, frame = 0
 600              		@ frame_needed = 0, uses_anonymous_args = 0
 601              		@ link register save eliminated.
 602              		.loc 1 433 0
 603 0360 1E4B     		ldr	r3, .L42
 604 0362 1B68     		ldr	r3, [r3]
 605 0364 03F40073 		and	r3, r3, #512
 606 0368 002B     		cmp	r3, #0
 607 036a 17D0     		beq	.L40
 608              		.loc 1 436 0
 609 036c 1B4B     		ldr	r3, .L42
 610 036e 1B4A     		ldr	r2, .L42
 611 0370 1268     		ldr	r2, [r2]
 612 0372 22F40072 		bic	r2, r2, #512
 613 0376 1A60     		str	r2, [r3]
 614              		.loc 1 438 0
 615 0378 184B     		ldr	r3, .L42
 616 037a 184A     		ldr	r2, .L42
 617 037c 1268     		ldr	r2, [r2]
 618 037e 42F40062 		orr	r2, r2, #2048
 619 0382 1A60     		str	r2, [r3]
 620 0384 154B     		ldr	r3, .L42
 621 0386 154A     		ldr	r2, .L42
 622 0388 1268     		ldr	r2, [r2]
 623 038a 22F40062 		bic	r2, r2, #2048
ARM GAS  /tmp/cc0eeV3r.s 			page 12


 624 038e 1A60     		str	r2, [r3]
 625              		.loc 1 440 0
 626 0390 124B     		ldr	r3, .L42
 627 0392 124A     		ldr	r2, .L42
 628 0394 1268     		ldr	r2, [r2]
 629 0396 42F40072 		orr	r2, r2, #512
 630 039a 1A60     		str	r2, [r3]
 631              	.L40:
 632              		.loc 1 444 0
 633 039c 0F4B     		ldr	r3, .L42
 634 039e 1B68     		ldr	r3, [r3]
 635 03a0 03F48063 		and	r3, r3, #1024
 636 03a4 002B     		cmp	r3, #0
 637 03a6 17D0     		beq	.L39
 638              		.loc 1 447 0
 639 03a8 0C4B     		ldr	r3, .L42
 640 03aa 0C4A     		ldr	r2, .L42
 641 03ac 1268     		ldr	r2, [r2]
 642 03ae 22F48062 		bic	r2, r2, #1024
 643 03b2 1A60     		str	r2, [r3]
 644              		.loc 1 449 0
 645 03b4 094B     		ldr	r3, .L42
 646 03b6 094A     		ldr	r2, .L42
 647 03b8 1268     		ldr	r2, [r2]
 648 03ba 42F48052 		orr	r2, r2, #4096
 649 03be 1A60     		str	r2, [r3]
 650 03c0 064B     		ldr	r3, .L42
 651 03c2 064A     		ldr	r2, .L42
 652 03c4 1268     		ldr	r2, [r2]
 653 03c6 22F48052 		bic	r2, r2, #4096
 654 03ca 1A60     		str	r2, [r3]
 655              		.loc 1 451 0
 656 03cc 034B     		ldr	r3, .L42
 657 03ce 034A     		ldr	r2, .L42
 658 03d0 1268     		ldr	r2, [r2]
 659 03d2 42F48062 		orr	r2, r2, #1024
 660 03d6 1A60     		str	r2, [r3]
 661              	.L39:
 662              		.loc 1 453 0
 663 03d8 7047     		bx	lr
 664              	.L43:
 665 03da 00BF     		.align	2
 666              	.L42:
 667 03dc 00200240 		.word	1073881088
 668              		.cfi_endproc
 669              	.LFE131:
 670              		.size	FLASH_FlushCaches, .-FLASH_FlushCaches
 671              		.align	2
 672              		.p2align 4,,15
 673              		.thumb
 674              		.thumb_func
 675              		.type	FLASH_OB_WRPConfig, %function
 676              	FLASH_OB_WRPConfig:
 677              	.LFB132:
 678              		.loc 1 483 0
 679              		.cfi_startproc
 680              		@ args = 0, pretend = 0, frame = 24
ARM GAS  /tmp/cc0eeV3r.s 			page 13


 681              		@ frame_needed = 0, uses_anonymous_args = 0
 682 03e0 00B5     		push	{lr}
 683              		.cfi_def_cfa_offset 4
 684              		.cfi_offset 14, -4
 685 03e2 87B0     		sub	sp, sp, #28
 686              		.cfi_def_cfa_offset 32
 687 03e4 0390     		str	r0, [sp, #12]
 688 03e6 0291     		str	r1, [sp, #8]
 689 03e8 0192     		str	r2, [sp, #4]
 690              		.loc 1 484 0
 691 03ea 0023     		movs	r3, #0
 692 03ec 8DF81730 		strb	r3, [sp, #23]
 693              		.loc 1 492 0
 694 03f0 4CF25030 		movw	r0, #50000
 695 03f4 FFF7FEFF 		bl	FLASH_WaitForLastOperation
 696 03f8 0346     		mov	r3, r0
 697 03fa 8DF81730 		strb	r3, [sp, #23]
 698              		.loc 1 494 0
 699 03fe 9DF81730 		ldrb	r3, [sp, #23]	@ zero_extendqisi2
 700 0402 002B     		cmp	r3, #0
 701 0404 4DD1     		bne	.L45
 702              		.loc 1 497 0
 703 0406 039B     		ldr	r3, [sp, #12]
 704 0408 002B     		cmp	r3, #0
 705 040a 0BD1     		bne	.L46
 706              		.loc 1 499 0
 707 040c 284B     		ldr	r3, .L51
 708 040e 284A     		ldr	r2, .L51
 709 0410 D26A     		ldr	r2, [r2, #44]
 710 0412 02F0FF21 		and	r1, r2, #-16711936
 711 0416 019A     		ldr	r2, [sp, #4]
 712 0418 1004     		lsls	r0, r2, #16
 713 041a 029A     		ldr	r2, [sp, #8]
 714 041c 0243     		orrs	r2, r2, r0
 715 041e 0A43     		orrs	r2, r2, r1
 716 0420 DA62     		str	r2, [r3, #44]
 717 0422 2BE0     		b	.L47
 718              	.L46:
 719              		.loc 1 502 0
 720 0424 039B     		ldr	r3, [sp, #12]
 721 0426 012B     		cmp	r3, #1
 722 0428 0BD1     		bne	.L48
 723              		.loc 1 504 0
 724 042a 214B     		ldr	r3, .L51
 725 042c 204A     		ldr	r2, .L51
 726 042e 126B     		ldr	r2, [r2, #48]
 727 0430 02F0FF21 		and	r1, r2, #-16711936
 728 0434 019A     		ldr	r2, [sp, #4]
 729 0436 1004     		lsls	r0, r2, #16
 730 0438 029A     		ldr	r2, [sp, #8]
 731 043a 0243     		orrs	r2, r2, r0
 732 043c 0A43     		orrs	r2, r2, r1
 733 043e 1A63     		str	r2, [r3, #48]
 734 0440 1CE0     		b	.L47
 735              	.L48:
 736              		.loc 1 508 0
 737 0442 039B     		ldr	r3, [sp, #12]
ARM GAS  /tmp/cc0eeV3r.s 			page 14


 738 0444 022B     		cmp	r3, #2
 739 0446 0BD1     		bne	.L49
 740              		.loc 1 510 0
 741 0448 194B     		ldr	r3, .L51
 742 044a 194A     		ldr	r2, .L51
 743 044c D26C     		ldr	r2, [r2, #76]
 744 044e 02F0FF21 		and	r1, r2, #-16711936
 745 0452 019A     		ldr	r2, [sp, #4]
 746 0454 1004     		lsls	r0, r2, #16
 747 0456 029A     		ldr	r2, [sp, #8]
 748 0458 0243     		orrs	r2, r2, r0
 749 045a 0A43     		orrs	r2, r2, r1
 750 045c DA64     		str	r2, [r3, #76]
 751 045e 0DE0     		b	.L47
 752              	.L49:
 753              		.loc 1 513 0
 754 0460 039B     		ldr	r3, [sp, #12]
 755 0462 042B     		cmp	r3, #4
 756 0464 0AD1     		bne	.L47
 757              		.loc 1 515 0
 758 0466 124B     		ldr	r3, .L51
 759 0468 114A     		ldr	r2, .L51
 760 046a 126D     		ldr	r2, [r2, #80]
 761 046c 02F0FF21 		and	r1, r2, #-16711936
 762 0470 019A     		ldr	r2, [sp, #4]
 763 0472 1004     		lsls	r0, r2, #16
 764 0474 029A     		ldr	r2, [sp, #8]
 765 0476 0243     		orrs	r2, r2, r0
 766 0478 0A43     		orrs	r2, r2, r1
 767 047a 1A65     		str	r2, [r3, #80]
 768              	.L47:
 769              		.loc 1 521 0
 770 047c 0C4B     		ldr	r3, .L51
 771 047e 0C4A     		ldr	r2, .L51
 772 0480 5269     		ldr	r2, [r2, #20]
 773 0482 42F40032 		orr	r2, r2, #131072
 774 0486 5A61     		str	r2, [r3, #20]
 775              		.loc 1 524 0
 776 0488 4CF25030 		movw	r0, #50000
 777 048c FFF7FEFF 		bl	FLASH_WaitForLastOperation
 778 0490 0346     		mov	r3, r0
 779 0492 8DF81730 		strb	r3, [sp, #23]
 780              		.loc 1 527 0
 781 0496 064B     		ldr	r3, .L51
 782 0498 054A     		ldr	r2, .L51
 783 049a 5269     		ldr	r2, [r2, #20]
 784 049c 22F40032 		bic	r2, r2, #131072
 785 04a0 5A61     		str	r2, [r3, #20]
 786              	.L45:
 787              		.loc 1 530 0
 788 04a2 9DF81730 		ldrb	r3, [sp, #23]	@ zero_extendqisi2
 789              		.loc 1 531 0
 790 04a6 1846     		mov	r0, r3
 791 04a8 07B0     		add	sp, sp, #28
 792              		@ sp needed
 793 04aa 5DF804FB 		ldr	pc, [sp], #4
 794              	.L52:
ARM GAS  /tmp/cc0eeV3r.s 			page 15


 795 04ae 00BF     		.align	2
 796              	.L51:
 797 04b0 00200240 		.word	1073881088
 798              		.cfi_endproc
 799              	.LFE132:
 800              		.size	FLASH_OB_WRPConfig, .-FLASH_OB_WRPConfig
 801              		.align	2
 802 04b4 AFF30080 		.p2align 4,,15
 802      AFF30080 
 802      AFF30080 
 803              		.thumb
 804              		.thumb_func
 805              		.type	FLASH_OB_RDPConfig, %function
 806              	FLASH_OB_RDPConfig:
 807              	.LFB133:
 808              		.loc 1 552 0
 809              		.cfi_startproc
 810              		@ args = 0, pretend = 0, frame = 16
 811              		@ frame_needed = 0, uses_anonymous_args = 0
 812 04c0 00B5     		push	{lr}
 813              		.cfi_def_cfa_offset 4
 814              		.cfi_offset 14, -4
 815 04c2 85B0     		sub	sp, sp, #20
 816              		.cfi_def_cfa_offset 24
 817 04c4 0190     		str	r0, [sp, #4]
 818              		.loc 1 553 0
 819 04c6 0023     		movs	r3, #0
 820 04c8 8DF80F30 		strb	r3, [sp, #15]
 821              		.loc 1 559 0
 822 04cc 4CF25030 		movw	r0, #50000
 823 04d0 FFF7FEFF 		bl	FLASH_WaitForLastOperation
 824 04d4 0346     		mov	r3, r0
 825 04d6 8DF80F30 		strb	r3, [sp, #15]
 826              		.loc 1 561 0
 827 04da 9DF80F30 		ldrb	r3, [sp, #15]	@ zero_extendqisi2
 828 04de 002B     		cmp	r3, #0
 829 04e0 1AD1     		bne	.L54
 830              		.loc 1 564 0
 831 04e2 104B     		ldr	r3, .L56
 832 04e4 0F4A     		ldr	r2, .L56
 833 04e6 126A     		ldr	r2, [r2, #32]
 834 04e8 22F0FF01 		bic	r1, r2, #255
 835 04ec 019A     		ldr	r2, [sp, #4]
 836 04ee 0A43     		orrs	r2, r2, r1
 837 04f0 1A62     		str	r2, [r3, #32]
 838              		.loc 1 567 0
 839 04f2 0C4B     		ldr	r3, .L56
 840 04f4 0B4A     		ldr	r2, .L56
 841 04f6 5269     		ldr	r2, [r2, #20]
 842 04f8 42F40032 		orr	r2, r2, #131072
 843 04fc 5A61     		str	r2, [r3, #20]
 844              		.loc 1 570 0
 845 04fe 4CF25030 		movw	r0, #50000
 846 0502 FFF7FEFF 		bl	FLASH_WaitForLastOperation
 847 0506 0346     		mov	r3, r0
 848 0508 8DF80F30 		strb	r3, [sp, #15]
 849              		.loc 1 573 0
ARM GAS  /tmp/cc0eeV3r.s 			page 16


 850 050c 054B     		ldr	r3, .L56
 851 050e 054A     		ldr	r2, .L56
 852 0510 5269     		ldr	r2, [r2, #20]
 853 0512 22F40032 		bic	r2, r2, #131072
 854 0516 5A61     		str	r2, [r3, #20]
 855              	.L54:
 856              		.loc 1 576 0
 857 0518 9DF80F30 		ldrb	r3, [sp, #15]	@ zero_extendqisi2
 858              		.loc 1 577 0
 859 051c 1846     		mov	r0, r3
 860 051e 05B0     		add	sp, sp, #20
 861              		@ sp needed
 862 0520 5DF804FB 		ldr	pc, [sp], #4
 863              	.L57:
 864              		.align	2
 865              	.L56:
 866 0524 00200240 		.word	1073881088
 867              		.cfi_endproc
 868              	.LFE133:
 869              		.size	FLASH_OB_RDPConfig, .-FLASH_OB_RDPConfig
 870              		.align	2
 871 0528 AFF30080 		.p2align 4,,15
 871      AFF30080 
 872              		.thumb
 873              		.thumb_func
 874              		.type	FLASH_OB_UserConfig, %function
 875              	FLASH_OB_UserConfig:
 876              	.LFB134:
 877              		.loc 1 596 0
 878              		.cfi_startproc
 879              		@ args = 0, pretend = 0, frame = 24
 880              		@ frame_needed = 0, uses_anonymous_args = 0
 881 0530 00B5     		push	{lr}
 882              		.cfi_def_cfa_offset 4
 883              		.cfi_offset 14, -4
 884 0532 87B0     		sub	sp, sp, #28
 885              		.cfi_def_cfa_offset 32
 886 0534 0190     		str	r0, [sp, #4]
 887 0536 0091     		str	r1, [sp]
 888              		.loc 1 597 0
 889 0538 0023     		movs	r3, #0
 890 053a 0593     		str	r3, [sp, #20]
 891              		.loc 1 598 0
 892 053c 0023     		movs	r3, #0
 893 053e 0493     		str	r3, [sp, #16]
 894              		.loc 1 599 0
 895 0540 0023     		movs	r3, #0
 896 0542 8DF80F30 		strb	r3, [sp, #15]
 897              		.loc 1 605 0
 898 0546 4CF25030 		movw	r0, #50000
 899 054a FFF7FEFF 		bl	FLASH_WaitForLastOperation
 900 054e 0346     		mov	r3, r0
 901 0550 8DF80F30 		strb	r3, [sp, #15]
 902              		.loc 1 607 0
 903 0554 9DF80F30 		ldrb	r3, [sp, #15]	@ zero_extendqisi2
 904 0558 002B     		cmp	r3, #0
 905 055a 40F0DF80 		bne	.L59
ARM GAS  /tmp/cc0eeV3r.s 			page 17


 906              		.loc 1 609 0
 907 055e 019B     		ldr	r3, [sp, #4]
 908 0560 03F00103 		and	r3, r3, #1
 909 0564 002B     		cmp	r3, #0
 910 0566 09D0     		beq	.L60
 911              		.loc 1 615 0
 912 0568 009B     		ldr	r3, [sp]
 913 056a 03F4E063 		and	r3, r3, #1792
 914 056e 059A     		ldr	r2, [sp, #20]
 915 0570 1343     		orrs	r3, r3, r2
 916 0572 0593     		str	r3, [sp, #20]
 917              		.loc 1 616 0
 918 0574 049B     		ldr	r3, [sp, #16]
 919 0576 43F4E063 		orr	r3, r3, #1792
 920 057a 0493     		str	r3, [sp, #16]
 921              	.L60:
 922              		.loc 1 619 0
 923 057c 019B     		ldr	r3, [sp, #4]
 924 057e 03F00203 		and	r3, r3, #2
 925 0582 002B     		cmp	r3, #0
 926 0584 09D0     		beq	.L61
 927              		.loc 1 625 0
 928 0586 009B     		ldr	r3, [sp]
 929 0588 03F48053 		and	r3, r3, #4096
 930 058c 059A     		ldr	r2, [sp, #20]
 931 058e 1343     		orrs	r3, r3, r2
 932 0590 0593     		str	r3, [sp, #20]
 933              		.loc 1 626 0
 934 0592 049B     		ldr	r3, [sp, #16]
 935 0594 43F48053 		orr	r3, r3, #4096
 936 0598 0493     		str	r3, [sp, #16]
 937              	.L61:
 938              		.loc 1 629 0
 939 059a 019B     		ldr	r3, [sp, #4]
 940 059c 03F00403 		and	r3, r3, #4
 941 05a0 002B     		cmp	r3, #0
 942 05a2 09D0     		beq	.L62
 943              		.loc 1 635 0
 944 05a4 009B     		ldr	r3, [sp]
 945 05a6 03F40053 		and	r3, r3, #8192
 946 05aa 059A     		ldr	r2, [sp, #20]
 947 05ac 1343     		orrs	r3, r3, r2
 948 05ae 0593     		str	r3, [sp, #20]
 949              		.loc 1 636 0
 950 05b0 049B     		ldr	r3, [sp, #16]
 951 05b2 43F40053 		orr	r3, r3, #8192
 952 05b6 0493     		str	r3, [sp, #16]
 953              	.L62:
 954              		.loc 1 639 0
 955 05b8 019B     		ldr	r3, [sp, #4]
 956 05ba 03F48053 		and	r3, r3, #4096
 957 05be 002B     		cmp	r3, #0
 958 05c0 09D0     		beq	.L63
 959              		.loc 1 645 0
 960 05c2 009B     		ldr	r3, [sp]
 961 05c4 03F48043 		and	r3, r3, #16384
 962 05c8 059A     		ldr	r2, [sp, #20]
ARM GAS  /tmp/cc0eeV3r.s 			page 18


 963 05ca 1343     		orrs	r3, r3, r2
 964 05cc 0593     		str	r3, [sp, #20]
 965              		.loc 1 646 0
 966 05ce 049B     		ldr	r3, [sp, #16]
 967 05d0 43F48043 		orr	r3, r3, #16384
 968 05d4 0493     		str	r3, [sp, #16]
 969              	.L63:
 970              		.loc 1 649 0
 971 05d6 019B     		ldr	r3, [sp, #4]
 972 05d8 03F00803 		and	r3, r3, #8
 973 05dc 002B     		cmp	r3, #0
 974 05de 09D0     		beq	.L64
 975              		.loc 1 655 0
 976 05e0 009B     		ldr	r3, [sp]
 977 05e2 03F48033 		and	r3, r3, #65536
 978 05e6 059A     		ldr	r2, [sp, #20]
 979 05e8 1343     		orrs	r3, r3, r2
 980 05ea 0593     		str	r3, [sp, #20]
 981              		.loc 1 656 0
 982 05ec 049B     		ldr	r3, [sp, #16]
 983 05ee 43F48033 		orr	r3, r3, #65536
 984 05f2 0493     		str	r3, [sp, #16]
 985              	.L64:
 986              		.loc 1 659 0
 987 05f4 019B     		ldr	r3, [sp, #4]
 988 05f6 03F01003 		and	r3, r3, #16
 989 05fa 002B     		cmp	r3, #0
 990 05fc 09D0     		beq	.L65
 991              		.loc 1 665 0
 992 05fe 009B     		ldr	r3, [sp]
 993 0600 03F40033 		and	r3, r3, #131072
 994 0604 059A     		ldr	r2, [sp, #20]
 995 0606 1343     		orrs	r3, r3, r2
 996 0608 0593     		str	r3, [sp, #20]
 997              		.loc 1 666 0
 998 060a 049B     		ldr	r3, [sp, #16]
 999 060c 43F40033 		orr	r3, r3, #131072
 1000 0610 0493     		str	r3, [sp, #16]
 1001              	.L65:
 1002              		.loc 1 669 0
 1003 0612 019B     		ldr	r3, [sp, #4]
 1004 0614 03F02003 		and	r3, r3, #32
 1005 0618 002B     		cmp	r3, #0
 1006 061a 09D0     		beq	.L66
 1007              		.loc 1 675 0
 1008 061c 009B     		ldr	r3, [sp]
 1009 061e 03F48023 		and	r3, r3, #262144
 1010 0622 059A     		ldr	r2, [sp, #20]
 1011 0624 1343     		orrs	r3, r3, r2
 1012 0626 0593     		str	r3, [sp, #20]
 1013              		.loc 1 676 0
 1014 0628 049B     		ldr	r3, [sp, #16]
 1015 062a 43F48023 		orr	r3, r3, #262144
 1016 062e 0493     		str	r3, [sp, #16]
 1017              	.L66:
 1018              		.loc 1 679 0
 1019 0630 019B     		ldr	r3, [sp, #4]
ARM GAS  /tmp/cc0eeV3r.s 			page 19


 1020 0632 03F04003 		and	r3, r3, #64
 1021 0636 002B     		cmp	r3, #0
 1022 0638 09D0     		beq	.L67
 1023              		.loc 1 685 0
 1024 063a 009B     		ldr	r3, [sp]
 1025 063c 03F40023 		and	r3, r3, #524288
 1026 0640 059A     		ldr	r2, [sp, #20]
 1027 0642 1343     		orrs	r3, r3, r2
 1028 0644 0593     		str	r3, [sp, #20]
 1029              		.loc 1 686 0
 1030 0646 049B     		ldr	r3, [sp, #16]
 1031 0648 43F40023 		orr	r3, r3, #524288
 1032 064c 0493     		str	r3, [sp, #16]
 1033              	.L67:
 1034              		.loc 1 690 0
 1035 064e 019B     		ldr	r3, [sp, #4]
 1036 0650 03F08003 		and	r3, r3, #128
 1037 0654 002B     		cmp	r3, #0
 1038 0656 09D0     		beq	.L68
 1039              		.loc 1 696 0
 1040 0658 009B     		ldr	r3, [sp]
 1041 065a 03F48013 		and	r3, r3, #1048576
 1042 065e 059A     		ldr	r2, [sp, #20]
 1043 0660 1343     		orrs	r3, r3, r2
 1044 0662 0593     		str	r3, [sp, #20]
 1045              		.loc 1 697 0
 1046 0664 049B     		ldr	r3, [sp, #16]
 1047 0666 43F48013 		orr	r3, r3, #1048576
 1048 066a 0493     		str	r3, [sp, #16]
 1049              	.L68:
 1050              		.loc 1 700 0
 1051 066c 019B     		ldr	r3, [sp, #4]
 1052 066e 03F48073 		and	r3, r3, #256
 1053 0672 002B     		cmp	r3, #0
 1054 0674 09D0     		beq	.L69
 1055              		.loc 1 706 0
 1056 0676 009B     		ldr	r3, [sp]
 1057 0678 03F40013 		and	r3, r3, #2097152
 1058 067c 059A     		ldr	r2, [sp, #20]
 1059 067e 1343     		orrs	r3, r3, r2
 1060 0680 0593     		str	r3, [sp, #20]
 1061              		.loc 1 707 0
 1062 0682 049B     		ldr	r3, [sp, #16]
 1063 0684 43F40013 		orr	r3, r3, #2097152
 1064 0688 0493     		str	r3, [sp, #16]
 1065              	.L69:
 1066              		.loc 1 711 0
 1067 068a 019B     		ldr	r3, [sp, #4]
 1068 068c 03F40073 		and	r3, r3, #512
 1069 0690 002B     		cmp	r3, #0
 1070 0692 09D0     		beq	.L70
 1071              		.loc 1 717 0
 1072 0694 009B     		ldr	r3, [sp]
 1073 0696 03F40003 		and	r3, r3, #8388608
 1074 069a 059A     		ldr	r2, [sp, #20]
 1075 069c 1343     		orrs	r3, r3, r2
 1076 069e 0593     		str	r3, [sp, #20]
ARM GAS  /tmp/cc0eeV3r.s 			page 20


 1077              		.loc 1 718 0
 1078 06a0 049B     		ldr	r3, [sp, #16]
 1079 06a2 43F40003 		orr	r3, r3, #8388608
 1080 06a6 0493     		str	r3, [sp, #16]
 1081              	.L70:
 1082              		.loc 1 721 0
 1083 06a8 019B     		ldr	r3, [sp, #4]
 1084 06aa 03F48063 		and	r3, r3, #1024
 1085 06ae 002B     		cmp	r3, #0
 1086 06b0 09D0     		beq	.L71
 1087              		.loc 1 727 0
 1088 06b2 009B     		ldr	r3, [sp]
 1089 06b4 03F08073 		and	r3, r3, #16777216
 1090 06b8 059A     		ldr	r2, [sp, #20]
 1091 06ba 1343     		orrs	r3, r3, r2
 1092 06bc 0593     		str	r3, [sp, #20]
 1093              		.loc 1 728 0
 1094 06be 049B     		ldr	r3, [sp, #16]
 1095 06c0 43F08073 		orr	r3, r3, #16777216
 1096 06c4 0493     		str	r3, [sp, #16]
 1097              	.L71:
 1098              		.loc 1 731 0
 1099 06c6 019B     		ldr	r3, [sp, #4]
 1100 06c8 03F40063 		and	r3, r3, #2048
 1101 06cc 002B     		cmp	r3, #0
 1102 06ce 09D0     		beq	.L72
 1103              		.loc 1 737 0
 1104 06d0 009B     		ldr	r3, [sp]
 1105 06d2 03F00073 		and	r3, r3, #33554432
 1106 06d6 059A     		ldr	r2, [sp, #20]
 1107 06d8 1343     		orrs	r3, r3, r2
 1108 06da 0593     		str	r3, [sp, #20]
 1109              		.loc 1 738 0
 1110 06dc 049B     		ldr	r3, [sp, #16]
 1111 06de 43F00073 		orr	r3, r3, #33554432
 1112 06e2 0493     		str	r3, [sp, #16]
 1113              	.L72:
 1114              		.loc 1 764 0
 1115 06e4 104B     		ldr	r3, .L74
 1116 06e6 104A     		ldr	r2, .L74
 1117 06e8 116A     		ldr	r1, [r2, #32]
 1118 06ea 049A     		ldr	r2, [sp, #16]
 1119 06ec D243     		mvns	r2, r2
 1120 06ee 1140     		ands	r1, r1, r2
 1121 06f0 059A     		ldr	r2, [sp, #20]
 1122 06f2 0A43     		orrs	r2, r2, r1
 1123 06f4 1A62     		str	r2, [r3, #32]
 1124              		.loc 1 767 0
 1125 06f6 0C4B     		ldr	r3, .L74
 1126 06f8 0B4A     		ldr	r2, .L74
 1127 06fa 5269     		ldr	r2, [r2, #20]
 1128 06fc 42F40032 		orr	r2, r2, #131072
 1129 0700 5A61     		str	r2, [r3, #20]
 1130              		.loc 1 770 0
 1131 0702 4CF25030 		movw	r0, #50000
 1132 0706 FFF7FEFF 		bl	FLASH_WaitForLastOperation
 1133 070a 0346     		mov	r3, r0
ARM GAS  /tmp/cc0eeV3r.s 			page 21


 1134 070c 8DF80F30 		strb	r3, [sp, #15]
 1135              		.loc 1 773 0
 1136 0710 054B     		ldr	r3, .L74
 1137 0712 054A     		ldr	r2, .L74
 1138 0714 5269     		ldr	r2, [r2, #20]
 1139 0716 22F40032 		bic	r2, r2, #131072
 1140 071a 5A61     		str	r2, [r3, #20]
 1141              	.L59:
 1142              		.loc 1 776 0
 1143 071c 9DF80F30 		ldrb	r3, [sp, #15]	@ zero_extendqisi2
 1144              		.loc 1 777 0
 1145 0720 1846     		mov	r0, r3
 1146 0722 07B0     		add	sp, sp, #28
 1147              		@ sp needed
 1148 0724 5DF804FB 		ldr	pc, [sp], #4
 1149              	.L75:
 1150              		.align	2
 1151              	.L74:
 1152 0728 00200240 		.word	1073881088
 1153              		.cfi_endproc
 1154              	.LFE134:
 1155              		.size	FLASH_OB_UserConfig, .-FLASH_OB_UserConfig
 1156              		.align	2
 1157 072c AFF30080 		.p2align 4,,15
 1158              		.thumb
 1159              		.thumb_func
 1160              		.type	FLASH_OB_PCROPConfig, %function
 1161              	FLASH_OB_PCROPConfig:
 1162              	.LFB135:
 1163              		.loc 1 800 0
 1164              		.cfi_startproc
 1165              		@ args = 0, pretend = 0, frame = 32
 1166              		@ frame_needed = 0, uses_anonymous_args = 0
 1167 0730 00B5     		push	{lr}
 1168              		.cfi_def_cfa_offset 4
 1169              		.cfi_offset 14, -4
 1170 0732 89B0     		sub	sp, sp, #36
 1171              		.cfi_def_cfa_offset 40
 1172 0734 0390     		str	r0, [sp, #12]
 1173 0736 0291     		str	r1, [sp, #8]
 1174 0738 0192     		str	r2, [sp, #4]
 1175              		.loc 1 801 0
 1176 073a 0023     		movs	r3, #0
 1177 073c 8DF81F30 		strb	r3, [sp, #31]
 1178              		.loc 1 802 0
 1179 0740 0023     		movs	r3, #0
 1180 0742 0493     		str	r3, [sp, #16]
 1181              		.loc 1 815 0
 1182 0744 4CF25030 		movw	r0, #50000
 1183 0748 FFF7FEFF 		bl	FLASH_WaitForLastOperation
 1184 074c 0346     		mov	r3, r0
 1185 074e 8DF81F30 		strb	r3, [sp, #31]
 1186              		.loc 1 817 0
 1187 0752 9DF81F30 		ldrb	r3, [sp, #31]	@ zero_extendqisi2
 1188 0756 002B     		cmp	r3, #0
 1189 0758 40F08B80 		bne	.L77
 1190              		.loc 1 821 0
ARM GAS  /tmp/cc0eeV3r.s 			page 22


 1191 075c 484B     		ldr	r3, .L87
 1192 075e 1B68     		ldr	r3, [r3]
 1193 0760 03F48073 		and	r3, r3, #256
 1194 0764 002B     		cmp	r3, #0
 1195 0766 14D1     		bne	.L78
 1196              		.loc 1 823 0
 1197 0768 4FF00063 		mov	r3, #134217728
 1198 076c 0693     		str	r3, [sp, #24]
 1199              		.loc 1 824 0
 1200 076e 454B     		ldr	r3, .L87+4
 1201 0770 1A88     		ldrh	r2, [r3]
 1202 0772 4FF6FF73 		movw	r3, #65535
 1203 0776 9A42     		cmp	r2, r3
 1204 0778 08D0     		beq	.L79
 1205              		.loc 1 824 0 is_stmt 0 discriminator 1
 1206 077a 424B     		ldr	r3, .L87+4
 1207 077c 1B88     		ldrh	r3, [r3]
 1208 077e C3F30B03 		ubfx	r3, r3, #0, #12
 1209 0782 9B02     		lsls	r3, r3, #10
 1210 0784 5B10     		asrs	r3, r3, #1
 1211 0786 03F10063 		add	r3, r3, #134217728
 1212 078a 00E0     		b	.L80
 1213              	.L79:
 1214              		.loc 1 824 0 discriminator 2
 1215 078c 3E4B     		ldr	r3, .L87+8
 1216              	.L80:
 1217              		.loc 1 824 0 discriminator 1
 1218 078e 0593     		str	r3, [sp, #20]
 1219 0790 13E0     		b	.L81
 1220              	.L78:
 1221              		.loc 1 828 0 is_stmt 1
 1222 0792 3C4B     		ldr	r3, .L87+4
 1223 0794 1A88     		ldrh	r2, [r3]
 1224 0796 4FF6FF73 		movw	r3, #65535
 1225 079a 9A42     		cmp	r2, r3
 1226 079c 08D0     		beq	.L82
 1227              		.loc 1 828 0 is_stmt 0 discriminator 1
 1228 079e 394B     		ldr	r3, .L87+4
 1229 07a0 1B88     		ldrh	r3, [r3]
 1230 07a2 C3F30B03 		ubfx	r3, r3, #0, #12
 1231 07a6 9B02     		lsls	r3, r3, #10
 1232 07a8 5B10     		asrs	r3, r3, #1
 1233 07aa 03F10063 		add	r3, r3, #134217728
 1234 07ae 00E0     		b	.L83
 1235              	.L82:
 1236              		.loc 1 828 0 discriminator 2
 1237 07b0 354B     		ldr	r3, .L87+8
 1238              	.L83:
 1239              		.loc 1 828 0 discriminator 3
 1240 07b2 0693     		str	r3, [sp, #24]
 1241              		.loc 1 829 0 is_stmt 1 discriminator 3
 1242 07b4 4FF00063 		mov	r3, #134217728
 1243 07b8 0593     		str	r3, [sp, #20]
 1244              	.L81:
 1245              		.loc 1 836 0
 1246 07ba 039B     		ldr	r3, [sp, #12]
 1247 07bc 03F00303 		and	r3, r3, #3
ARM GAS  /tmp/cc0eeV3r.s 			page 23


 1248 07c0 012B     		cmp	r3, #1
 1249 07c2 1AD1     		bne	.L84
 1250              		.loc 1 838 0
 1251 07c4 029A     		ldr	r2, [sp, #8]
 1252 07c6 069B     		ldr	r3, [sp, #24]
 1253 07c8 D31A     		subs	r3, r2, r3
 1254 07ca DB08     		lsrs	r3, r3, #3
 1255 07cc 0493     		str	r3, [sp, #16]
 1256              		.loc 1 839 0
 1257 07ce 2F4A     		ldr	r2, .L87+12
 1258 07d0 2E4B     		ldr	r3, .L87+12
 1259 07d2 5B6A     		ldr	r3, [r3, #36]
 1260 07d4 1B0C     		lsrs	r3, r3, #16
 1261 07d6 1B04     		lsls	r3, r3, #16
 1262 07d8 0499     		ldr	r1, [sp, #16]
 1263 07da 0B43     		orrs	r3, r3, r1
 1264 07dc 5362     		str	r3, [r2, #36]
 1265              		.loc 1 841 0
 1266 07de 019A     		ldr	r2, [sp, #4]
 1267 07e0 069B     		ldr	r3, [sp, #24]
 1268 07e2 D31A     		subs	r3, r2, r3
 1269 07e4 DB08     		lsrs	r3, r3, #3
 1270 07e6 0493     		str	r3, [sp, #16]
 1271              		.loc 1 842 0
 1272 07e8 284A     		ldr	r2, .L87+12
 1273 07ea 284B     		ldr	r3, .L87+12
 1274 07ec 9B6A     		ldr	r3, [r3, #40]
 1275 07ee 1B0C     		lsrs	r3, r3, #16
 1276 07f0 1B04     		lsls	r3, r3, #16
 1277 07f2 0499     		ldr	r1, [sp, #16]
 1278 07f4 0B43     		orrs	r3, r3, r1
 1279 07f6 9362     		str	r3, [r2, #40]
 1280 07f8 1EE0     		b	.L85
 1281              	.L84:
 1282              		.loc 1 845 0
 1283 07fa 039B     		ldr	r3, [sp, #12]
 1284 07fc 03F00303 		and	r3, r3, #3
 1285 0800 022B     		cmp	r3, #2
 1286 0802 19D1     		bne	.L85
 1287              		.loc 1 847 0
 1288 0804 029A     		ldr	r2, [sp, #8]
 1289 0806 059B     		ldr	r3, [sp, #20]
 1290 0808 D31A     		subs	r3, r2, r3
 1291 080a DB08     		lsrs	r3, r3, #3
 1292 080c 0493     		str	r3, [sp, #16]
 1293              		.loc 1 848 0
 1294 080e 1F4A     		ldr	r2, .L87+12
 1295 0810 1E4B     		ldr	r3, .L87+12
 1296 0812 5B6C     		ldr	r3, [r3, #68]
 1297 0814 1B0C     		lsrs	r3, r3, #16
 1298 0816 1B04     		lsls	r3, r3, #16
 1299 0818 0499     		ldr	r1, [sp, #16]
 1300 081a 0B43     		orrs	r3, r3, r1
 1301 081c 5364     		str	r3, [r2, #68]
 1302              		.loc 1 850 0
 1303 081e 019A     		ldr	r2, [sp, #4]
 1304 0820 059B     		ldr	r3, [sp, #20]
ARM GAS  /tmp/cc0eeV3r.s 			page 24


 1305 0822 D31A     		subs	r3, r2, r3
 1306 0824 DB08     		lsrs	r3, r3, #3
 1307 0826 0493     		str	r3, [sp, #16]
 1308              		.loc 1 851 0
 1309 0828 184A     		ldr	r2, .L87+12
 1310 082a 184B     		ldr	r3, .L87+12
 1311 082c 9B6C     		ldr	r3, [r3, #72]
 1312 082e 1B0C     		lsrs	r3, r3, #16
 1313 0830 1B04     		lsls	r3, r3, #16
 1314 0832 0499     		ldr	r1, [sp, #16]
 1315 0834 0B43     		orrs	r3, r3, r1
 1316 0836 9364     		str	r3, [r2, #72]
 1317              	.L85:
 1318              		.loc 1 855 0
 1319 0838 144B     		ldr	r3, .L87+12
 1320 083a 144A     		ldr	r2, .L87+12
 1321 083c 926A     		ldr	r2, [r2, #40]
 1322 083e 22F00041 		bic	r1, r2, #-2147483648
 1323 0842 039A     		ldr	r2, [sp, #12]
 1324 0844 02F00042 		and	r2, r2, #-2147483648
 1325 0848 0A43     		orrs	r2, r2, r1
 1326 084a 9A62     		str	r2, [r3, #40]
 1327              		.loc 1 858 0
 1328 084c 0F4B     		ldr	r3, .L87+12
 1329 084e 0F4A     		ldr	r2, .L87+12
 1330 0850 5269     		ldr	r2, [r2, #20]
 1331 0852 42F40032 		orr	r2, r2, #131072
 1332 0856 5A61     		str	r2, [r3, #20]
 1333              		.loc 1 861 0
 1334 0858 4CF25030 		movw	r0, #50000
 1335 085c FFF7FEFF 		bl	FLASH_WaitForLastOperation
 1336 0860 0346     		mov	r3, r0
 1337 0862 8DF81F30 		strb	r3, [sp, #31]
 1338              		.loc 1 864 0
 1339 0866 094B     		ldr	r3, .L87+12
 1340 0868 084A     		ldr	r2, .L87+12
 1341 086a 5269     		ldr	r2, [r2, #20]
 1342 086c 22F40032 		bic	r2, r2, #131072
 1343 0870 5A61     		str	r2, [r3, #20]
 1344              	.L77:
 1345              		.loc 1 867 0
 1346 0872 9DF81F30 		ldrb	r3, [sp, #31]	@ zero_extendqisi2
 1347              		.loc 1 868 0
 1348 0876 1846     		mov	r0, r3
 1349 0878 09B0     		add	sp, sp, #36
 1350              		@ sp needed
 1351 087a 5DF804FB 		ldr	pc, [sp], #4
 1352              	.L88:
 1353 087e 00BF     		.align	2
 1354              	.L87:
 1355 0880 00000140 		.word	1073807360
 1356 0884 E075FF1F 		.word	536835552
 1357 0888 00000808 		.word	134742016
 1358 088c 00200240 		.word	1073881088
 1359              		.cfi_endproc
 1360              	.LFE135:
 1361              		.size	FLASH_OB_PCROPConfig, .-FLASH_OB_PCROPConfig
ARM GAS  /tmp/cc0eeV3r.s 			page 25


 1362              		.align	2
 1363              		.p2align 4,,15
 1364              		.thumb
 1365              		.thumb_func
 1366              		.type	FLASH_OB_GetWRP, %function
 1367              	FLASH_OB_GetWRP:
 1368              	.LFB136:
 1369              		.loc 1 889 0
 1370              		.cfi_startproc
 1371              		@ args = 0, pretend = 0, frame = 16
 1372              		@ frame_needed = 0, uses_anonymous_args = 0
 1373              		@ link register save eliminated.
 1374 0890 84B0     		sub	sp, sp, #16
 1375              		.cfi_def_cfa_offset 16
 1376 0892 0390     		str	r0, [sp, #12]
 1377 0894 0291     		str	r1, [sp, #8]
 1378 0896 0192     		str	r2, [sp, #4]
 1379              		.loc 1 894 0
 1380 0898 039B     		ldr	r3, [sp, #12]
 1381 089a 002B     		cmp	r3, #0
 1382 089c 0CD1     		bne	.L90
 1383              		.loc 1 896 0
 1384 089e 1F4B     		ldr	r3, .L94
 1385 08a0 DB6A     		ldr	r3, [r3, #44]
 1386 08a2 DAB2     		uxtb	r2, r3
 1387 08a4 029B     		ldr	r3, [sp, #8]
 1388 08a6 1A60     		str	r2, [r3]
 1389              		.loc 1 897 0
 1390 08a8 1C4B     		ldr	r3, .L94
 1391 08aa DB6A     		ldr	r3, [r3, #44]
 1392 08ac 03F47F03 		and	r3, r3, #16711680
 1393 08b0 1A0C     		lsrs	r2, r3, #16
 1394 08b2 019B     		ldr	r3, [sp, #4]
 1395 08b4 1A60     		str	r2, [r3]
 1396 08b6 2EE0     		b	.L89
 1397              	.L90:
 1398              		.loc 1 899 0
 1399 08b8 039B     		ldr	r3, [sp, #12]
 1400 08ba 012B     		cmp	r3, #1
 1401 08bc 0CD1     		bne	.L92
 1402              		.loc 1 901 0
 1403 08be 174B     		ldr	r3, .L94
 1404 08c0 1B6B     		ldr	r3, [r3, #48]
 1405 08c2 DAB2     		uxtb	r2, r3
 1406 08c4 029B     		ldr	r3, [sp, #8]
 1407 08c6 1A60     		str	r2, [r3]
 1408              		.loc 1 902 0
 1409 08c8 144B     		ldr	r3, .L94
 1410 08ca 1B6B     		ldr	r3, [r3, #48]
 1411 08cc 03F47F03 		and	r3, r3, #16711680
 1412 08d0 1A0C     		lsrs	r2, r3, #16
 1413 08d2 019B     		ldr	r3, [sp, #4]
 1414 08d4 1A60     		str	r2, [r3]
 1415 08d6 1EE0     		b	.L89
 1416              	.L92:
 1417              		.loc 1 905 0
 1418 08d8 039B     		ldr	r3, [sp, #12]
ARM GAS  /tmp/cc0eeV3r.s 			page 26


 1419 08da 022B     		cmp	r3, #2
 1420 08dc 0CD1     		bne	.L93
 1421              		.loc 1 907 0
 1422 08de 0F4B     		ldr	r3, .L94
 1423 08e0 DB6C     		ldr	r3, [r3, #76]
 1424 08e2 DAB2     		uxtb	r2, r3
 1425 08e4 029B     		ldr	r3, [sp, #8]
 1426 08e6 1A60     		str	r2, [r3]
 1427              		.loc 1 908 0
 1428 08e8 0C4B     		ldr	r3, .L94
 1429 08ea DB6C     		ldr	r3, [r3, #76]
 1430 08ec 03F47F03 		and	r3, r3, #16711680
 1431 08f0 1A0C     		lsrs	r2, r3, #16
 1432 08f2 019B     		ldr	r3, [sp, #4]
 1433 08f4 1A60     		str	r2, [r3]
 1434 08f6 0EE0     		b	.L89
 1435              	.L93:
 1436              		.loc 1 910 0
 1437 08f8 039B     		ldr	r3, [sp, #12]
 1438 08fa 042B     		cmp	r3, #4
 1439 08fc 0BD1     		bne	.L89
 1440              		.loc 1 912 0
 1441 08fe 074B     		ldr	r3, .L94
 1442 0900 1B6D     		ldr	r3, [r3, #80]
 1443 0902 DAB2     		uxtb	r2, r3
 1444 0904 029B     		ldr	r3, [sp, #8]
 1445 0906 1A60     		str	r2, [r3]
 1446              		.loc 1 913 0
 1447 0908 044B     		ldr	r3, .L94
 1448 090a 1B6D     		ldr	r3, [r3, #80]
 1449 090c 03F47F03 		and	r3, r3, #16711680
 1450 0910 1A0C     		lsrs	r2, r3, #16
 1451 0912 019B     		ldr	r3, [sp, #4]
 1452 0914 1A60     		str	r2, [r3]
 1453              	.L89:
 1454              		.loc 1 916 0
 1455 0916 04B0     		add	sp, sp, #16
 1456              		@ sp needed
 1457 0918 7047     		bx	lr
 1458              	.L95:
 1459 091a 00BF     		.align	2
 1460              	.L94:
 1461 091c 00200240 		.word	1073881088
 1462              		.cfi_endproc
 1463              	.LFE136:
 1464              		.size	FLASH_OB_GetWRP, .-FLASH_OB_GetWRP
 1465              		.align	2
 1466              		.p2align 4,,15
 1467              		.thumb
 1468              		.thumb_func
 1469              		.type	FLASH_OB_GetRDP, %function
 1470              	FLASH_OB_GetRDP:
 1471              	.LFB137:
 1472              		.loc 1 927 0
 1473              		.cfi_startproc
 1474              		@ args = 0, pretend = 0, frame = 0
 1475              		@ frame_needed = 0, uses_anonymous_args = 0
ARM GAS  /tmp/cc0eeV3r.s 			page 27


 1476              		@ link register save eliminated.
 1477              		.loc 1 928 0
 1478 0920 084B     		ldr	r3, .L99
 1479 0922 1B6A     		ldr	r3, [r3, #32]
 1480 0924 DBB2     		uxtb	r3, r3
 1481 0926 AA2B     		cmp	r3, #170
 1482 0928 06D0     		beq	.L97
 1483              		.loc 1 929 0 discriminator 1
 1484 092a 064B     		ldr	r3, .L99
 1485 092c 1B6A     		ldr	r3, [r3, #32]
 1486 092e DBB2     		uxtb	r3, r3
 1487              		.loc 1 928 0 discriminator 1
 1488 0930 CC2B     		cmp	r3, #204
 1489 0932 01D0     		beq	.L97
 1490              		.loc 1 931 0
 1491 0934 BB23     		movs	r3, #187
 1492 0936 02E0     		b	.L98
 1493              	.L97:
 1494              		.loc 1 935 0
 1495 0938 024B     		ldr	r3, .L99
 1496 093a 1B6A     		ldr	r3, [r3, #32]
 1497 093c DBB2     		uxtb	r3, r3
 1498              	.L98:
 1499              		.loc 1 937 0
 1500 093e 1846     		mov	r0, r3
 1501 0940 7047     		bx	lr
 1502              	.L100:
 1503 0942 00BF     		.align	2
 1504              	.L99:
 1505 0944 00200240 		.word	1073881088
 1506              		.cfi_endproc
 1507              	.LFE137:
 1508              		.size	FLASH_OB_GetRDP, .-FLASH_OB_GetRDP
 1509              		.align	2
 1510 0948 AFF30080 		.p2align 4,,15
 1510      AFF30080 
 1511              		.thumb
 1512              		.thumb_func
 1513              		.type	FLASH_OB_GetUser, %function
 1514              	FLASH_OB_GetUser:
 1515              	.LFB138:
 1516              		.loc 1 952 0
 1517              		.cfi_startproc
 1518              		@ args = 0, pretend = 0, frame = 8
 1519              		@ frame_needed = 0, uses_anonymous_args = 0
 1520              		@ link register save eliminated.
 1521 0950 82B0     		sub	sp, sp, #8
 1522              		.cfi_def_cfa_offset 8
 1523              		.loc 1 953 0
 1524 0952 054B     		ldr	r3, .L103
 1525 0954 1B6A     		ldr	r3, [r3, #32]
 1526 0956 0193     		str	r3, [sp, #4]
 1527              		.loc 1 954 0
 1528 0958 019B     		ldr	r3, [sp, #4]
 1529 095a 23F0FF03 		bic	r3, r3, #255
 1530 095e 0193     		str	r3, [sp, #4]
 1531              		.loc 1 956 0
ARM GAS  /tmp/cc0eeV3r.s 			page 28


 1532 0960 019B     		ldr	r3, [sp, #4]
 1533              		.loc 1 957 0
 1534 0962 1846     		mov	r0, r3
 1535 0964 02B0     		add	sp, sp, #8
 1536              		@ sp needed
 1537 0966 7047     		bx	lr
 1538              	.L104:
 1539              		.align	2
 1540              	.L103:
 1541 0968 00200240 		.word	1073881088
 1542              		.cfi_endproc
 1543              	.LFE138:
 1544              		.size	FLASH_OB_GetUser, .-FLASH_OB_GetUser
 1545              		.align	2
 1546 096c AFF30080 		.p2align 4,,15
 1547              		.thumb
 1548              		.thumb_func
 1549              		.type	FLASH_OB_GetPCROP, %function
 1550              	FLASH_OB_GetPCROP:
 1551              	.LFB139:
 1552              		.loc 1 975 0
 1553              		.cfi_startproc
 1554              		@ args = 0, pretend = 0, frame = 32
 1555              		@ frame_needed = 0, uses_anonymous_args = 0
 1556              		@ link register save eliminated.
 1557 0970 88B0     		sub	sp, sp, #32
 1558              		.cfi_def_cfa_offset 32
 1559 0972 0390     		str	r0, [sp, #12]
 1560 0974 0291     		str	r1, [sp, #8]
 1561 0976 0192     		str	r2, [sp, #4]
 1562              		.loc 1 976 0
 1563 0978 0023     		movs	r3, #0
 1564 097a 0593     		str	r3, [sp, #20]
 1565              		.loc 1 987 0
 1566 097c 374B     		ldr	r3, .L114
 1567 097e 1B68     		ldr	r3, [r3]
 1568 0980 03F48073 		and	r3, r3, #256
 1569 0984 002B     		cmp	r3, #0
 1570 0986 14D1     		bne	.L106
 1571              		.loc 1 989 0
 1572 0988 4FF00063 		mov	r3, #134217728
 1573 098c 0793     		str	r3, [sp, #28]
 1574              		.loc 1 990 0
 1575 098e 344B     		ldr	r3, .L114+4
 1576 0990 1A88     		ldrh	r2, [r3]
 1577 0992 4FF6FF73 		movw	r3, #65535
 1578 0996 9A42     		cmp	r2, r3
 1579 0998 08D0     		beq	.L107
 1580              		.loc 1 990 0 is_stmt 0 discriminator 1
 1581 099a 314B     		ldr	r3, .L114+4
 1582 099c 1B88     		ldrh	r3, [r3]
 1583 099e C3F30B03 		ubfx	r3, r3, #0, #12
 1584 09a2 9B02     		lsls	r3, r3, #10
 1585 09a4 5B10     		asrs	r3, r3, #1
 1586 09a6 03F10063 		add	r3, r3, #134217728
 1587 09aa 00E0     		b	.L108
 1588              	.L107:
ARM GAS  /tmp/cc0eeV3r.s 			page 29


 1589              		.loc 1 990 0 discriminator 2
 1590 09ac 2D4B     		ldr	r3, .L114+8
 1591              	.L108:
 1592              		.loc 1 990 0 discriminator 1
 1593 09ae 0693     		str	r3, [sp, #24]
 1594 09b0 13E0     		b	.L109
 1595              	.L106:
 1596              		.loc 1 994 0 is_stmt 1
 1597 09b2 2B4B     		ldr	r3, .L114+4
 1598 09b4 1A88     		ldrh	r2, [r3]
 1599 09b6 4FF6FF73 		movw	r3, #65535
 1600 09ba 9A42     		cmp	r2, r3
 1601 09bc 08D0     		beq	.L110
 1602              		.loc 1 994 0 is_stmt 0 discriminator 1
 1603 09be 284B     		ldr	r3, .L114+4
 1604 09c0 1B88     		ldrh	r3, [r3]
 1605 09c2 C3F30B03 		ubfx	r3, r3, #0, #12
 1606 09c6 9B02     		lsls	r3, r3, #10
 1607 09c8 5B10     		asrs	r3, r3, #1
 1608 09ca 03F10063 		add	r3, r3, #134217728
 1609 09ce 00E0     		b	.L111
 1610              	.L110:
 1611              		.loc 1 994 0 discriminator 2
 1612 09d0 244B     		ldr	r3, .L114+8
 1613              	.L111:
 1614              		.loc 1 994 0 discriminator 3
 1615 09d2 0793     		str	r3, [sp, #28]
 1616              		.loc 1 995 0 is_stmt 1 discriminator 3
 1617 09d4 4FF00063 		mov	r3, #134217728
 1618 09d8 0693     		str	r3, [sp, #24]
 1619              	.L109:
 1620              		.loc 1 1001 0
 1621 09da 039B     		ldr	r3, [sp, #12]
 1622 09dc 1B68     		ldr	r3, [r3]
 1623 09de 03F00303 		and	r3, r3, #3
 1624 09e2 012B     		cmp	r3, #1
 1625 09e4 14D1     		bne	.L112
 1626              		.loc 1 1003 0
 1627 09e6 204B     		ldr	r3, .L114+12
 1628 09e8 5B6A     		ldr	r3, [r3, #36]
 1629 09ea 9BB2     		uxth	r3, r3
 1630 09ec 0593     		str	r3, [sp, #20]
 1631              		.loc 1 1004 0
 1632 09ee 059B     		ldr	r3, [sp, #20]
 1633 09f0 DA00     		lsls	r2, r3, #3
 1634 09f2 079B     		ldr	r3, [sp, #28]
 1635 09f4 1A44     		add	r2, r2, r3
 1636 09f6 029B     		ldr	r3, [sp, #8]
 1637 09f8 1A60     		str	r2, [r3]
 1638              		.loc 1 1006 0
 1639 09fa 1B4B     		ldr	r3, .L114+12
 1640 09fc 9B6A     		ldr	r3, [r3, #40]
 1641 09fe 9BB2     		uxth	r3, r3
 1642 0a00 0593     		str	r3, [sp, #20]
 1643              		.loc 1 1007 0
 1644 0a02 059B     		ldr	r3, [sp, #20]
 1645 0a04 DA00     		lsls	r2, r3, #3
ARM GAS  /tmp/cc0eeV3r.s 			page 30


 1646 0a06 079B     		ldr	r3, [sp, #28]
 1647 0a08 1A44     		add	r2, r2, r3
 1648 0a0a 019B     		ldr	r3, [sp, #4]
 1649 0a0c 1A60     		str	r2, [r3]
 1650 0a0e 19E0     		b	.L113
 1651              	.L112:
 1652              		.loc 1 1010 0
 1653 0a10 039B     		ldr	r3, [sp, #12]
 1654 0a12 1B68     		ldr	r3, [r3]
 1655 0a14 03F00303 		and	r3, r3, #3
 1656 0a18 022B     		cmp	r3, #2
 1657 0a1a 13D1     		bne	.L113
 1658              		.loc 1 1012 0
 1659 0a1c 124B     		ldr	r3, .L114+12
 1660 0a1e 5B6C     		ldr	r3, [r3, #68]
 1661 0a20 9BB2     		uxth	r3, r3
 1662 0a22 0593     		str	r3, [sp, #20]
 1663              		.loc 1 1013 0
 1664 0a24 059B     		ldr	r3, [sp, #20]
 1665 0a26 DA00     		lsls	r2, r3, #3
 1666 0a28 069B     		ldr	r3, [sp, #24]
 1667 0a2a 1A44     		add	r2, r2, r3
 1668 0a2c 029B     		ldr	r3, [sp, #8]
 1669 0a2e 1A60     		str	r2, [r3]
 1670              		.loc 1 1015 0
 1671 0a30 0D4B     		ldr	r3, .L114+12
 1672 0a32 9B6C     		ldr	r3, [r3, #72]
 1673 0a34 9BB2     		uxth	r3, r3
 1674 0a36 0593     		str	r3, [sp, #20]
 1675              		.loc 1 1016 0
 1676 0a38 059B     		ldr	r3, [sp, #20]
 1677 0a3a DA00     		lsls	r2, r3, #3
 1678 0a3c 069B     		ldr	r3, [sp, #24]
 1679 0a3e 1A44     		add	r2, r2, r3
 1680 0a40 019B     		ldr	r3, [sp, #4]
 1681 0a42 1A60     		str	r2, [r3]
 1682              	.L113:
 1683              		.loc 1 1020 0
 1684 0a44 039B     		ldr	r3, [sp, #12]
 1685 0a46 1A68     		ldr	r2, [r3]
 1686 0a48 074B     		ldr	r3, .L114+12
 1687 0a4a 9B6A     		ldr	r3, [r3, #40]
 1688 0a4c 03F00043 		and	r3, r3, #-2147483648
 1689 0a50 1A43     		orrs	r2, r2, r3
 1690 0a52 039B     		ldr	r3, [sp, #12]
 1691 0a54 1A60     		str	r2, [r3]
 1692              		.loc 1 1021 0
 1693 0a56 08B0     		add	sp, sp, #32
 1694              		@ sp needed
 1695 0a58 7047     		bx	lr
 1696              	.L115:
 1697 0a5a 00BF     		.align	2
 1698              	.L114:
 1699 0a5c 00000140 		.word	1073807360
 1700 0a60 E075FF1F 		.word	536835552
 1701 0a64 00000808 		.word	134742016
 1702 0a68 00200240 		.word	1073881088
ARM GAS  /tmp/cc0eeV3r.s 			page 31


 1703              		.cfi_endproc
 1704              	.LFE139:
 1705              		.size	FLASH_OB_GetPCROP, .-FLASH_OB_GetPCROP
 1706              	.Letext0:
 1707              		.file 2 "/nfs/nfs5/home/research/hardware/arm2/gcc-arm-embedded/gcc-arm-none-eabi-4_8-2014q2/arm-n
 1708              		.file 3 "/nfs/nfs5/home/research/hardware/arm2/gcc-arm-embedded/gcc-arm-none-eabi-4_8-2014q2/arm-n
 1709              		.file 4 "../../../../../../ChibiOS/os/ext/CMSIS/ST/STM32L4xx/stm32l476xx.h"
 1710              		.file 5 "../../../../../../ChibiOS/os/ext/CMSIS/ST/STM32L4xx/stm32l4xx.h"
 1711              		.file 6 "../../../../../Drivers/STM32L4xx_HAL_Driver/Inc/stm32l4xx_hal_def.h"
 1712              		.file 7 "../../../../../Drivers/STM32L4xx_HAL_Driver/Inc/stm32l4xx_hal_flash.h"
 1713              		.file 8 "../../../../../../ChibiOS/os/ext/CMSIS/include/core_cm4.h"