ARM GAS  /tmp/ccZRTK3Y.s 			page 1


   1              		.syntax unified
   2              		.cpu cortex-m4
   3              		.fpu softvfp
   4              		.eabi_attribute 20, 1
   5              		.eabi_attribute 21, 1
   6              		.eabi_attribute 23, 3
   7              		.eabi_attribute 24, 1
   8              		.eabi_attribute 25, 1
   9              		.eabi_attribute 26, 1
  10              		.eabi_attribute 30, 6
  11              		.eabi_attribute 34, 1
  12              		.eabi_attribute 18, 4
  13              		.thumb
  14              		.file	"stm32l4xx_hal_crc.c"
  15              		.text
  16              	.Ltext0:
  17              		.cfi_sections	.debug_frame
  18              		.align	2
  19              		.p2align 4,,15
  20              		.global	HAL_CRC_Init
  21              		.thumb
  22              		.thumb_func
  23              		.type	HAL_CRC_Init, %function
  24              	HAL_CRC_Init:
  25              	.LFB125:
  26              		.file 1 "../../../../../Drivers/STM32L4xx_HAL_Driver/Src/stm32l4xx_hal_crc.c"
  27              		.loc 1 122 0
  28              		.cfi_startproc
  29              		@ args = 0, pretend = 0, frame = 8
  30              		@ frame_needed = 0, uses_anonymous_args = 0
  31 0000 00B5     		push	{lr}
  32              		.cfi_def_cfa_offset 4
  33              		.cfi_offset 14, -4
  34 0002 83B0     		sub	sp, sp, #12
  35              		.cfi_def_cfa_offset 16
  36 0004 0190     		str	r0, [sp, #4]
  37              		.loc 1 124 0
  38 0006 019B     		ldr	r3, [sp, #4]
  39 0008 002B     		cmp	r3, #0
  40 000a 01D1     		bne	.L2
  41              		.loc 1 126 0
  42 000c 0123     		movs	r3, #1
  43 000e 55E0     		b	.L3
  44              	.L2:
  45              		.loc 1 132 0
  46 0010 019B     		ldr	r3, [sp, #4]
  47 0012 5B7F     		ldrb	r3, [r3, #29]
  48 0014 DBB2     		uxtb	r3, r3
  49 0016 002B     		cmp	r3, #0
  50 0018 05D1     		bne	.L4
  51              		.loc 1 135 0
  52 001a 019B     		ldr	r3, [sp, #4]
  53 001c 0022     		movs	r2, #0
  54 001e 1A77     		strb	r2, [r3, #28]
  55              		.loc 1 138 0
  56 0020 0198     		ldr	r0, [sp, #4]
  57 0022 FFF7FEFF 		bl	HAL_CRC_MspInit
ARM GAS  /tmp/ccZRTK3Y.s 			page 2


  58              	.L4:
  59              		.loc 1 141 0
  60 0026 019B     		ldr	r3, [sp, #4]
  61 0028 0222     		movs	r2, #2
  62 002a 5A77     		strb	r2, [r3, #29]
  63              		.loc 1 146 0
  64 002c 019B     		ldr	r3, [sp, #4]
  65 002e 1B79     		ldrb	r3, [r3, #4]	@ zero_extendqisi2
  66 0030 002B     		cmp	r3, #0
  67 0032 0CD1     		bne	.L5
  68              		.loc 1 149 0
  69 0034 019B     		ldr	r3, [sp, #4]
  70 0036 1B68     		ldr	r3, [r3]
  71 0038 224A     		ldr	r2, .L9
  72 003a 5A61     		str	r2, [r3, #20]
  73              		.loc 1 150 0
  74 003c 019B     		ldr	r3, [sp, #4]
  75 003e 1B68     		ldr	r3, [r3]
  76 0040 019A     		ldr	r2, [sp, #4]
  77 0042 1268     		ldr	r2, [r2]
  78 0044 9268     		ldr	r2, [r2, #8]
  79 0046 22F01802 		bic	r2, r2, #24
  80 004a 9A60     		str	r2, [r3, #8]
  81 004c 0DE0     		b	.L6
  82              	.L5:
  83              		.loc 1 155 0
  84 004e 019B     		ldr	r3, [sp, #4]
  85 0050 9A68     		ldr	r2, [r3, #8]
  86 0052 019B     		ldr	r3, [sp, #4]
  87 0054 DB68     		ldr	r3, [r3, #12]
  88 0056 0198     		ldr	r0, [sp, #4]
  89 0058 1146     		mov	r1, r2
  90 005a 1A46     		mov	r2, r3
  91 005c FFF7FEFF 		bl	HAL_CRCEx_Polynomial_Set
  92 0060 0346     		mov	r3, r0
  93 0062 002B     		cmp	r3, #0
  94 0064 01D0     		beq	.L6
  95              		.loc 1 157 0
  96 0066 0123     		movs	r3, #1
  97 0068 28E0     		b	.L3
  98              	.L6:
  99              		.loc 1 164 0
 100 006a 019B     		ldr	r3, [sp, #4]
 101 006c 5B79     		ldrb	r3, [r3, #5]	@ zero_extendqisi2
 102 006e 002B     		cmp	r3, #0
 103 0070 05D1     		bne	.L7
 104              		.loc 1 166 0
 105 0072 019B     		ldr	r3, [sp, #4]
 106 0074 1B68     		ldr	r3, [r3]
 107 0076 4FF0FF32 		mov	r2, #-1
 108 007a 1A61     		str	r2, [r3, #16]
 109 007c 04E0     		b	.L8
 110              	.L7:
 111              		.loc 1 170 0
 112 007e 019B     		ldr	r3, [sp, #4]
 113 0080 1B68     		ldr	r3, [r3]
 114 0082 019A     		ldr	r2, [sp, #4]
ARM GAS  /tmp/ccZRTK3Y.s 			page 3


 115 0084 1269     		ldr	r2, [r2, #16]
 116 0086 1A61     		str	r2, [r3, #16]
 117              	.L8:
 118              		.loc 1 176 0
 119 0088 019B     		ldr	r3, [sp, #4]
 120 008a 1B68     		ldr	r3, [r3]
 121 008c 019A     		ldr	r2, [sp, #4]
 122 008e 1268     		ldr	r2, [r2]
 123 0090 9268     		ldr	r2, [r2, #8]
 124 0092 22F06001 		bic	r1, r2, #96
 125 0096 019A     		ldr	r2, [sp, #4]
 126 0098 5269     		ldr	r2, [r2, #20]
 127 009a 0A43     		orrs	r2, r2, r1
 128 009c 9A60     		str	r2, [r3, #8]
 129              		.loc 1 180 0
 130 009e 019B     		ldr	r3, [sp, #4]
 131 00a0 1B68     		ldr	r3, [r3]
 132 00a2 019A     		ldr	r2, [sp, #4]
 133 00a4 1268     		ldr	r2, [r2]
 134 00a6 9268     		ldr	r2, [r2, #8]
 135 00a8 22F08001 		bic	r1, r2, #128
 136 00ac 019A     		ldr	r2, [sp, #4]
 137 00ae 9269     		ldr	r2, [r2, #24]
 138 00b0 0A43     		orrs	r2, r2, r1
 139 00b2 9A60     		str	r2, [r3, #8]
 140              		.loc 1 187 0
 141 00b4 019B     		ldr	r3, [sp, #4]
 142 00b6 0122     		movs	r2, #1
 143 00b8 5A77     		strb	r2, [r3, #29]
 144              		.loc 1 190 0
 145 00ba 0023     		movs	r3, #0
 146              	.L3:
 147              		.loc 1 191 0
 148 00bc 1846     		mov	r0, r3
 149 00be 03B0     		add	sp, sp, #12
 150              		@ sp needed
 151 00c0 5DF804FB 		ldr	pc, [sp], #4
 152              	.L10:
 153              		.align	2
 154              	.L9:
 155 00c4 B71DC104 		.word	79764919
 156              		.cfi_endproc
 157              	.LFE125:
 158              		.size	HAL_CRC_Init, .-HAL_CRC_Init
 159              		.align	2
 160 00c8 AFF30080 		.p2align 4,,15
 160      AFF30080 
 161              		.global	HAL_CRC_DeInit
 162              		.thumb
 163              		.thumb_func
 164              		.type	HAL_CRC_DeInit, %function
 165              	HAL_CRC_DeInit:
 166              	.LFB126:
 167              		.loc 1 199 0
 168              		.cfi_startproc
 169              		@ args = 0, pretend = 0, frame = 8
 170              		@ frame_needed = 0, uses_anonymous_args = 0
ARM GAS  /tmp/ccZRTK3Y.s 			page 4


 171 00d0 00B5     		push	{lr}
 172              		.cfi_def_cfa_offset 4
 173              		.cfi_offset 14, -4
 174 00d2 83B0     		sub	sp, sp, #12
 175              		.cfi_def_cfa_offset 16
 176 00d4 0190     		str	r0, [sp, #4]
 177              		.loc 1 201 0
 178 00d6 019B     		ldr	r3, [sp, #4]
 179 00d8 002B     		cmp	r3, #0
 180 00da 01D1     		bne	.L12
 181              		.loc 1 203 0
 182 00dc 0123     		movs	r3, #1
 183 00de 22E0     		b	.L13
 184              	.L12:
 185              		.loc 1 210 0
 186 00e0 019B     		ldr	r3, [sp, #4]
 187 00e2 5B7F     		ldrb	r3, [r3, #29]
 188 00e4 DBB2     		uxtb	r3, r3
 189 00e6 022B     		cmp	r3, #2
 190 00e8 01D1     		bne	.L14
 191              		.loc 1 212 0
 192 00ea 0223     		movs	r3, #2
 193 00ec 1BE0     		b	.L13
 194              	.L14:
 195              		.loc 1 216 0
 196 00ee 019B     		ldr	r3, [sp, #4]
 197 00f0 0222     		movs	r2, #2
 198 00f2 5A77     		strb	r2, [r3, #29]
 199              		.loc 1 219 0
 200 00f4 019B     		ldr	r3, [sp, #4]
 201 00f6 1B68     		ldr	r3, [r3]
 202 00f8 019A     		ldr	r2, [sp, #4]
 203 00fa 1268     		ldr	r2, [r2]
 204 00fc 9268     		ldr	r2, [r2, #8]
 205 00fe 42F00102 		orr	r2, r2, #1
 206 0102 9A60     		str	r2, [r3, #8]
 207              		.loc 1 222 0
 208 0104 019B     		ldr	r3, [sp, #4]
 209 0106 1B68     		ldr	r3, [r3]
 210 0108 1B79     		ldrb	r3, [r3, #4]
 211 010a 019B     		ldr	r3, [sp, #4]
 212 010c 1B68     		ldr	r3, [r3]
 213 010e 0022     		movs	r2, #0
 214 0110 1A71     		strb	r2, [r3, #4]
 215              		.loc 1 225 0
 216 0112 0198     		ldr	r0, [sp, #4]
 217 0114 FFF7FEFF 		bl	HAL_CRC_MspDeInit
 218              		.loc 1 228 0
 219 0118 019B     		ldr	r3, [sp, #4]
 220 011a 0022     		movs	r2, #0
 221 011c 5A77     		strb	r2, [r3, #29]
 222              		.loc 1 231 0
 223 011e 019B     		ldr	r3, [sp, #4]
 224 0120 0022     		movs	r2, #0
 225 0122 1A77     		strb	r2, [r3, #28]
 226              		.loc 1 234 0
 227 0124 0023     		movs	r3, #0
ARM GAS  /tmp/ccZRTK3Y.s 			page 5


 228              	.L13:
 229              		.loc 1 235 0
 230 0126 1846     		mov	r0, r3
 231 0128 03B0     		add	sp, sp, #12
 232              		@ sp needed
 233 012a 5DF804FB 		ldr	pc, [sp], #4
 234              		.cfi_endproc
 235              	.LFE126:
 236              		.size	HAL_CRC_DeInit, .-HAL_CRC_DeInit
 237 012e 00BF     		.align	2
 238              		.p2align 4,,15
 239              		.weak	HAL_CRC_MspInit
 240              		.thumb
 241              		.thumb_func
 242              		.type	HAL_CRC_MspInit, %function
 243              	HAL_CRC_MspInit:
 244              	.LFB127:
 245              		.loc 1 243 0
 246              		.cfi_startproc
 247              		@ args = 0, pretend = 0, frame = 8
 248              		@ frame_needed = 0, uses_anonymous_args = 0
 249              		@ link register save eliminated.
 250 0130 82B0     		sub	sp, sp, #8
 251              		.cfi_def_cfa_offset 8
 252 0132 0190     		str	r0, [sp, #4]
 253              		.loc 1 250 0
 254 0134 02B0     		add	sp, sp, #8
 255              		@ sp needed
 256 0136 7047     		bx	lr
 257              		.cfi_endproc
 258              	.LFE127:
 259              		.size	HAL_CRC_MspInit, .-HAL_CRC_MspInit
 260              		.align	2
 261 0138 AFF30080 		.p2align 4,,15
 261      AFF30080 
 262              		.weak	HAL_CRC_MspDeInit
 263              		.thumb
 264              		.thumb_func
 265              		.type	HAL_CRC_MspDeInit, %function
 266              	HAL_CRC_MspDeInit:
 267              	.LFB128:
 268              		.loc 1 258 0
 269              		.cfi_startproc
 270              		@ args = 0, pretend = 0, frame = 8
 271              		@ frame_needed = 0, uses_anonymous_args = 0
 272              		@ link register save eliminated.
 273 0140 82B0     		sub	sp, sp, #8
 274              		.cfi_def_cfa_offset 8
 275 0142 0190     		str	r0, [sp, #4]
 276              		.loc 1 265 0
 277 0144 02B0     		add	sp, sp, #8
 278              		@ sp needed
 279 0146 7047     		bx	lr
 280              		.cfi_endproc
 281              	.LFE128:
 282              		.size	HAL_CRC_MspDeInit, .-HAL_CRC_MspDeInit
 283              		.align	2
ARM GAS  /tmp/ccZRTK3Y.s 			page 6


 284 0148 AFF30080 		.p2align 4,,15
 284      AFF30080 
 285              		.global	HAL_CRC_Accumulate
 286              		.thumb
 287              		.thumb_func
 288              		.type	HAL_CRC_Accumulate, %function
 289              	HAL_CRC_Accumulate:
 290              	.LFB129:
 291              		.loc 1 307 0
 292              		.cfi_startproc
 293              		@ args = 0, pretend = 0, frame = 24
 294              		@ frame_needed = 0, uses_anonymous_args = 0
 295 0150 00B5     		push	{lr}
 296              		.cfi_def_cfa_offset 4
 297              		.cfi_offset 14, -4
 298 0152 87B0     		sub	sp, sp, #28
 299              		.cfi_def_cfa_offset 32
 300 0154 0390     		str	r0, [sp, #12]
 301 0156 0291     		str	r1, [sp, #8]
 302 0158 0192     		str	r2, [sp, #4]
 303              		.loc 1 308 0
 304 015a 0023     		movs	r3, #0
 305 015c 0593     		str	r3, [sp, #20]
 306              		.loc 1 309 0
 307 015e 0023     		movs	r3, #0
 308 0160 0493     		str	r3, [sp, #16]
 309              		.loc 1 312 0
 310 0162 039B     		ldr	r3, [sp, #12]
 311 0164 1B7F     		ldrb	r3, [r3, #28]	@ zero_extendqisi2
 312 0166 012B     		cmp	r3, #1
 313 0168 01D1     		bne	.L18
 314              		.loc 1 312 0 is_stmt 0 discriminator 1
 315 016a 0223     		movs	r3, #2
 316 016c 3AE0     		b	.L19
 317              	.L18:
 318              		.loc 1 312 0 discriminator 2
 319 016e 039B     		ldr	r3, [sp, #12]
 320 0170 0122     		movs	r2, #1
 321 0172 1A77     		strb	r2, [r3, #28]
 322              		.loc 1 315 0 is_stmt 1 discriminator 2
 323 0174 039B     		ldr	r3, [sp, #12]
 324 0176 0222     		movs	r2, #2
 325 0178 5A77     		strb	r2, [r3, #29]
 326              		.loc 1 317 0 discriminator 2
 327 017a 039B     		ldr	r3, [sp, #12]
 328 017c 1B6A     		ldr	r3, [r3, #32]
 329 017e 022B     		cmp	r3, #2
 330 0180 22D0     		beq	.L21
 331 0182 032B     		cmp	r3, #3
 332 0184 02D0     		beq	.L22
 333 0186 012B     		cmp	r3, #1
 334 0188 17D0     		beq	.L23
 335              		.loc 1 337 0 discriminator 2
 336 018a 24E0     		b	.L26
 337              	.L22:
 338              		.loc 1 321 0
 339 018c 0023     		movs	r3, #0
ARM GAS  /tmp/ccZRTK3Y.s 			page 7


 340 018e 0593     		str	r3, [sp, #20]
 341 0190 0AE0     		b	.L24
 342              	.L25:
 343              		.loc 1 323 0 discriminator 2
 344 0192 039B     		ldr	r3, [sp, #12]
 345 0194 1B68     		ldr	r3, [r3]
 346 0196 059A     		ldr	r2, [sp, #20]
 347 0198 9200     		lsls	r2, r2, #2
 348 019a 0299     		ldr	r1, [sp, #8]
 349 019c 0A44     		add	r2, r2, r1
 350 019e 1268     		ldr	r2, [r2]
 351 01a0 1A60     		str	r2, [r3]
 352              		.loc 1 321 0 discriminator 2
 353 01a2 059B     		ldr	r3, [sp, #20]
 354 01a4 0133     		adds	r3, r3, #1
 355 01a6 0593     		str	r3, [sp, #20]
 356              	.L24:
 357              		.loc 1 321 0 is_stmt 0 discriminator 1
 358 01a8 059A     		ldr	r2, [sp, #20]
 359 01aa 019B     		ldr	r3, [sp, #4]
 360 01ac 9A42     		cmp	r2, r3
 361 01ae F0D3     		bcc	.L25
 362              		.loc 1 325 0 is_stmt 1
 363 01b0 039B     		ldr	r3, [sp, #12]
 364 01b2 1B68     		ldr	r3, [r3]
 365 01b4 1B68     		ldr	r3, [r3]
 366 01b6 0493     		str	r3, [sp, #16]
 367              		.loc 1 326 0
 368 01b8 0DE0     		b	.L26
 369              	.L23:
 370              		.loc 1 329 0
 371 01ba 0398     		ldr	r0, [sp, #12]
 372 01bc 0299     		ldr	r1, [sp, #8]
 373 01be 019A     		ldr	r2, [sp, #4]
 374 01c0 00F076F8 		bl	CRC_Handle_8
 375 01c4 0490     		str	r0, [sp, #16]
 376              		.loc 1 330 0
 377 01c6 06E0     		b	.L26
 378              	.L21:
 379              		.loc 1 333 0
 380 01c8 0398     		ldr	r0, [sp, #12]
 381 01ca 0299     		ldr	r1, [sp, #8]
 382 01cc 019A     		ldr	r2, [sp, #4]
 383 01ce 00F0EFF8 		bl	CRC_Handle_16
 384 01d2 0490     		str	r0, [sp, #16]
 385              		.loc 1 334 0
 386 01d4 00BF     		nop
 387              	.L26:
 388              		.loc 1 341 0
 389 01d6 039B     		ldr	r3, [sp, #12]
 390 01d8 0122     		movs	r2, #1
 391 01da 5A77     		strb	r2, [r3, #29]
 392              		.loc 1 344 0
 393 01dc 039B     		ldr	r3, [sp, #12]
 394 01de 0022     		movs	r2, #0
 395 01e0 1A77     		strb	r2, [r3, #28]
 396              		.loc 1 347 0
ARM GAS  /tmp/ccZRTK3Y.s 			page 8


 397 01e2 049B     		ldr	r3, [sp, #16]
 398              	.L19:
 399              		.loc 1 348 0
 400 01e4 1846     		mov	r0, r3
 401 01e6 07B0     		add	sp, sp, #28
 402              		@ sp needed
 403 01e8 5DF804FB 		ldr	pc, [sp], #4
 404              		.cfi_endproc
 405              	.LFE129:
 406              		.size	HAL_CRC_Accumulate, .-HAL_CRC_Accumulate
 407              		.align	2
 408 01ec AFF30080 		.p2align 4,,15
 409              		.global	HAL_CRC_Calculate
 410              		.thumb
 411              		.thumb_func
 412              		.type	HAL_CRC_Calculate, %function
 413              	HAL_CRC_Calculate:
 414              	.LFB130:
 415              		.loc 1 367 0
 416              		.cfi_startproc
 417              		@ args = 0, pretend = 0, frame = 24
 418              		@ frame_needed = 0, uses_anonymous_args = 0
 419 01f0 00B5     		push	{lr}
 420              		.cfi_def_cfa_offset 4
 421              		.cfi_offset 14, -4
 422 01f2 87B0     		sub	sp, sp, #28
 423              		.cfi_def_cfa_offset 32
 424 01f4 0390     		str	r0, [sp, #12]
 425 01f6 0291     		str	r1, [sp, #8]
 426 01f8 0192     		str	r2, [sp, #4]
 427              		.loc 1 368 0
 428 01fa 0023     		movs	r3, #0
 429 01fc 0593     		str	r3, [sp, #20]
 430              		.loc 1 369 0
 431 01fe 0023     		movs	r3, #0
 432 0200 0493     		str	r3, [sp, #16]
 433              		.loc 1 372 0
 434 0202 039B     		ldr	r3, [sp, #12]
 435 0204 1B7F     		ldrb	r3, [r3, #28]	@ zero_extendqisi2
 436 0206 012B     		cmp	r3, #1
 437 0208 01D1     		bne	.L28
 438              		.loc 1 372 0 is_stmt 0 discriminator 1
 439 020a 0223     		movs	r3, #2
 440 020c 42E0     		b	.L29
 441              	.L28:
 442              		.loc 1 372 0 discriminator 2
 443 020e 039B     		ldr	r3, [sp, #12]
 444 0210 0122     		movs	r2, #1
 445 0212 1A77     		strb	r2, [r3, #28]
 446              		.loc 1 375 0 is_stmt 1 discriminator 2
 447 0214 039B     		ldr	r3, [sp, #12]
 448 0216 0222     		movs	r2, #2
 449 0218 5A77     		strb	r2, [r3, #29]
 450              		.loc 1 379 0 discriminator 2
 451 021a 039B     		ldr	r3, [sp, #12]
 452 021c 1B68     		ldr	r3, [r3]
 453 021e 039A     		ldr	r2, [sp, #12]
ARM GAS  /tmp/ccZRTK3Y.s 			page 9


 454 0220 1268     		ldr	r2, [r2]
 455 0222 9268     		ldr	r2, [r2, #8]
 456 0224 42F00102 		orr	r2, r2, #1
 457 0228 9A60     		str	r2, [r3, #8]
 458              		.loc 1 381 0 discriminator 2
 459 022a 039B     		ldr	r3, [sp, #12]
 460 022c 1B6A     		ldr	r3, [r3, #32]
 461 022e 022B     		cmp	r3, #2
 462 0230 22D0     		beq	.L31
 463 0232 032B     		cmp	r3, #3
 464 0234 02D0     		beq	.L32
 465 0236 012B     		cmp	r3, #1
 466 0238 17D0     		beq	.L33
 467              		.loc 1 403 0 discriminator 2
 468 023a 24E0     		b	.L36
 469              	.L32:
 470              		.loc 1 385 0
 471 023c 0023     		movs	r3, #0
 472 023e 0593     		str	r3, [sp, #20]
 473 0240 0AE0     		b	.L34
 474              	.L35:
 475              		.loc 1 387 0 discriminator 2
 476 0242 039B     		ldr	r3, [sp, #12]
 477 0244 1B68     		ldr	r3, [r3]
 478 0246 059A     		ldr	r2, [sp, #20]
 479 0248 9200     		lsls	r2, r2, #2
 480 024a 0299     		ldr	r1, [sp, #8]
 481 024c 0A44     		add	r2, r2, r1
 482 024e 1268     		ldr	r2, [r2]
 483 0250 1A60     		str	r2, [r3]
 484              		.loc 1 385 0 discriminator 2
 485 0252 059B     		ldr	r3, [sp, #20]
 486 0254 0133     		adds	r3, r3, #1
 487 0256 0593     		str	r3, [sp, #20]
 488              	.L34:
 489              		.loc 1 385 0 is_stmt 0 discriminator 1
 490 0258 059A     		ldr	r2, [sp, #20]
 491 025a 019B     		ldr	r3, [sp, #4]
 492 025c 9A42     		cmp	r2, r3
 493 025e F0D3     		bcc	.L35
 494              		.loc 1 389 0 is_stmt 1
 495 0260 039B     		ldr	r3, [sp, #12]
 496 0262 1B68     		ldr	r3, [r3]
 497 0264 1B68     		ldr	r3, [r3]
 498 0266 0493     		str	r3, [sp, #16]
 499              		.loc 1 390 0
 500 0268 0DE0     		b	.L36
 501              	.L33:
 502              		.loc 1 394 0
 503 026a 0398     		ldr	r0, [sp, #12]
 504 026c 0299     		ldr	r1, [sp, #8]
 505 026e 019A     		ldr	r2, [sp, #4]
 506 0270 00F01EF8 		bl	CRC_Handle_8
 507 0274 0490     		str	r0, [sp, #16]
 508              		.loc 1 395 0
 509 0276 06E0     		b	.L36
 510              	.L31:
ARM GAS  /tmp/ccZRTK3Y.s 			page 10


 511              		.loc 1 399 0
 512 0278 0398     		ldr	r0, [sp, #12]
 513 027a 0299     		ldr	r1, [sp, #8]
 514 027c 019A     		ldr	r2, [sp, #4]
 515 027e 00F097F8 		bl	CRC_Handle_16
 516 0282 0490     		str	r0, [sp, #16]
 517              		.loc 1 400 0
 518 0284 00BF     		nop
 519              	.L36:
 520              		.loc 1 407 0
 521 0286 039B     		ldr	r3, [sp, #12]
 522 0288 0122     		movs	r2, #1
 523 028a 5A77     		strb	r2, [r3, #29]
 524              		.loc 1 410 0
 525 028c 039B     		ldr	r3, [sp, #12]
 526 028e 0022     		movs	r2, #0
 527 0290 1A77     		strb	r2, [r3, #28]
 528              		.loc 1 413 0
 529 0292 049B     		ldr	r3, [sp, #16]
 530              	.L29:
 531              		.loc 1 414 0
 532 0294 1846     		mov	r0, r3
 533 0296 07B0     		add	sp, sp, #28
 534              		@ sp needed
 535 0298 5DF804FB 		ldr	pc, [sp], #4
 536              		.cfi_endproc
 537              	.LFE130:
 538              		.size	HAL_CRC_Calculate, .-HAL_CRC_Calculate
 539              		.align	2
 540 029c AFF30080 		.p2align 4,,15
 541              		.global	HAL_CRC_GetState
 542              		.thumb
 543              		.thumb_func
 544              		.type	HAL_CRC_GetState, %function
 545              	HAL_CRC_GetState:
 546              	.LFB131:
 547              		.loc 1 440 0
 548              		.cfi_startproc
 549              		@ args = 0, pretend = 0, frame = 8
 550              		@ frame_needed = 0, uses_anonymous_args = 0
 551              		@ link register save eliminated.
 552 02a0 82B0     		sub	sp, sp, #8
 553              		.cfi_def_cfa_offset 8
 554 02a2 0190     		str	r0, [sp, #4]
 555              		.loc 1 442 0
 556 02a4 019B     		ldr	r3, [sp, #4]
 557 02a6 5B7F     		ldrb	r3, [r3, #29]
 558 02a8 DBB2     		uxtb	r3, r3
 559              		.loc 1 443 0
 560 02aa 1846     		mov	r0, r3
 561 02ac 02B0     		add	sp, sp, #8
 562              		@ sp needed
 563 02ae 7047     		bx	lr
 564              		.cfi_endproc
 565              	.LFE131:
 566              		.size	HAL_CRC_GetState, .-HAL_CRC_GetState
 567              		.align	2
ARM GAS  /tmp/ccZRTK3Y.s 			page 11


 568              		.p2align 4,,15
 569              		.thumb
 570              		.thumb_func
 571              		.type	CRC_Handle_8, %function
 572              	CRC_Handle_8:
 573              	.LFB132:
 574              		.loc 1 466 0
 575              		.cfi_startproc
 576              		@ args = 0, pretend = 0, frame = 24
 577              		@ frame_needed = 0, uses_anonymous_args = 0
 578              		@ link register save eliminated.
 579 02b0 86B0     		sub	sp, sp, #24
 580              		.cfi_def_cfa_offset 24
 581 02b2 0390     		str	r0, [sp, #12]
 582 02b4 0291     		str	r1, [sp, #8]
 583 02b6 0192     		str	r2, [sp, #4]
 584              		.loc 1 467 0
 585 02b8 0023     		movs	r3, #0
 586 02ba 0593     		str	r3, [sp, #20]
 587              		.loc 1 472 0
 588 02bc 0023     		movs	r3, #0
 589 02be 0593     		str	r3, [sp, #20]
 590 02c0 22E0     		b	.L40
 591              	.L41:
 592              		.loc 1 474 0 discriminator 2
 593 02c2 039B     		ldr	r3, [sp, #12]
 594 02c4 1B68     		ldr	r3, [r3]
 595 02c6 059A     		ldr	r2, [sp, #20]
 596 02c8 9200     		lsls	r2, r2, #2
 597 02ca 0299     		ldr	r1, [sp, #8]
 598 02cc 0A44     		add	r2, r2, r1
 599 02ce 1278     		ldrb	r2, [r2]	@ zero_extendqisi2
 600 02d0 1106     		lsls	r1, r2, #24
 601 02d2 059A     		ldr	r2, [sp, #20]
 602 02d4 9200     		lsls	r2, r2, #2
 603 02d6 0132     		adds	r2, r2, #1
 604 02d8 0298     		ldr	r0, [sp, #8]
 605 02da 0244     		add	r2, r2, r0
 606 02dc 1278     		ldrb	r2, [r2]	@ zero_extendqisi2
 607 02de 1204     		lsls	r2, r2, #16
 608 02e0 1143     		orrs	r1, r1, r2
 609 02e2 059A     		ldr	r2, [sp, #20]
 610 02e4 9200     		lsls	r2, r2, #2
 611 02e6 0232     		adds	r2, r2, #2
 612 02e8 0298     		ldr	r0, [sp, #8]
 613 02ea 0244     		add	r2, r2, r0
 614 02ec 1278     		ldrb	r2, [r2]	@ zero_extendqisi2
 615 02ee 1202     		lsls	r2, r2, #8
 616 02f0 1143     		orrs	r1, r1, r2
 617 02f2 059A     		ldr	r2, [sp, #20]
 618 02f4 9200     		lsls	r2, r2, #2
 619 02f6 0332     		adds	r2, r2, #3
 620 02f8 0298     		ldr	r0, [sp, #8]
 621 02fa 0244     		add	r2, r2, r0
 622 02fc 1278     		ldrb	r2, [r2]	@ zero_extendqisi2
 623 02fe 0A43     		orrs	r2, r2, r1
 624 0300 1A60     		str	r2, [r3]
ARM GAS  /tmp/ccZRTK3Y.s 			page 12


 625              		.loc 1 472 0 discriminator 2
 626 0302 059B     		ldr	r3, [sp, #20]
 627 0304 0133     		adds	r3, r3, #1
 628 0306 0593     		str	r3, [sp, #20]
 629              	.L40:
 630              		.loc 1 472 0 is_stmt 0 discriminator 1
 631 0308 019B     		ldr	r3, [sp, #4]
 632 030a 9A08     		lsrs	r2, r3, #2
 633 030c 059B     		ldr	r3, [sp, #20]
 634 030e 9A42     		cmp	r2, r3
 635 0310 D7D8     		bhi	.L41
 636              		.loc 1 477 0 is_stmt 1
 637 0312 019B     		ldr	r3, [sp, #4]
 638 0314 03F00303 		and	r3, r3, #3
 639 0318 002B     		cmp	r3, #0
 640 031a 43D0     		beq	.L42
 641              		.loc 1 479 0
 642 031c 019B     		ldr	r3, [sp, #4]
 643 031e 03F00303 		and	r3, r3, #3
 644 0322 012B     		cmp	r3, #1
 645 0324 07D1     		bne	.L43
 646              		.loc 1 481 0
 647 0326 039B     		ldr	r3, [sp, #12]
 648 0328 1B68     		ldr	r3, [r3]
 649 032a 059A     		ldr	r2, [sp, #20]
 650 032c 9200     		lsls	r2, r2, #2
 651 032e 0299     		ldr	r1, [sp, #8]
 652 0330 0A44     		add	r2, r2, r1
 653 0332 1278     		ldrb	r2, [r2]	@ zero_extendqisi2
 654 0334 1A70     		strb	r2, [r3]
 655              	.L43:
 656              		.loc 1 483 0
 657 0336 019B     		ldr	r3, [sp, #4]
 658 0338 03F00303 		and	r3, r3, #3
 659 033c 022B     		cmp	r3, #2
 660 033e 11D1     		bne	.L44
 661              		.loc 1 485 0
 662 0340 039B     		ldr	r3, [sp, #12]
 663 0342 1B68     		ldr	r3, [r3]
 664 0344 059A     		ldr	r2, [sp, #20]
 665 0346 9200     		lsls	r2, r2, #2
 666 0348 0299     		ldr	r1, [sp, #8]
 667 034a 0A44     		add	r2, r2, r1
 668 034c 1278     		ldrb	r2, [r2]	@ zero_extendqisi2
 669 034e 1202     		lsls	r2, r2, #8
 670 0350 91B2     		uxth	r1, r2
 671 0352 059A     		ldr	r2, [sp, #20]
 672 0354 9200     		lsls	r2, r2, #2
 673 0356 0132     		adds	r2, r2, #1
 674 0358 0298     		ldr	r0, [sp, #8]
 675 035a 0244     		add	r2, r2, r0
 676 035c 1278     		ldrb	r2, [r2]	@ zero_extendqisi2
 677 035e 0A43     		orrs	r2, r2, r1
 678 0360 92B2     		uxth	r2, r2
 679 0362 1A80     		strh	r2, [r3]	@ movhi
 680              	.L44:
 681              		.loc 1 487 0
ARM GAS  /tmp/ccZRTK3Y.s 			page 13


 682 0364 019B     		ldr	r3, [sp, #4]
 683 0366 03F00303 		and	r3, r3, #3
 684 036a 032B     		cmp	r3, #3
 685 036c 1AD1     		bne	.L42
 686              		.loc 1 489 0
 687 036e 039B     		ldr	r3, [sp, #12]
 688 0370 1B68     		ldr	r3, [r3]
 689 0372 059A     		ldr	r2, [sp, #20]
 690 0374 9200     		lsls	r2, r2, #2
 691 0376 0299     		ldr	r1, [sp, #8]
 692 0378 0A44     		add	r2, r2, r1
 693 037a 1278     		ldrb	r2, [r2]	@ zero_extendqisi2
 694 037c 1202     		lsls	r2, r2, #8
 695 037e 91B2     		uxth	r1, r2
 696 0380 059A     		ldr	r2, [sp, #20]
 697 0382 9200     		lsls	r2, r2, #2
 698 0384 0132     		adds	r2, r2, #1
 699 0386 0298     		ldr	r0, [sp, #8]
 700 0388 0244     		add	r2, r2, r0
 701 038a 1278     		ldrb	r2, [r2]	@ zero_extendqisi2
 702 038c 0A43     		orrs	r2, r2, r1
 703 038e 92B2     		uxth	r2, r2
 704 0390 1A80     		strh	r2, [r3]	@ movhi
 705              		.loc 1 490 0
 706 0392 039B     		ldr	r3, [sp, #12]
 707 0394 1B68     		ldr	r3, [r3]
 708 0396 059A     		ldr	r2, [sp, #20]
 709 0398 9200     		lsls	r2, r2, #2
 710 039a 0232     		adds	r2, r2, #2
 711 039c 0299     		ldr	r1, [sp, #8]
 712 039e 0A44     		add	r2, r2, r1
 713 03a0 1278     		ldrb	r2, [r2]	@ zero_extendqisi2
 714 03a2 1A70     		strb	r2, [r3]
 715              	.L42:
 716              		.loc 1 495 0
 717 03a4 039B     		ldr	r3, [sp, #12]
 718 03a6 1B68     		ldr	r3, [r3]
 719 03a8 1B68     		ldr	r3, [r3]
 720              		.loc 1 496 0
 721 03aa 1846     		mov	r0, r3
 722 03ac 06B0     		add	sp, sp, #24
 723              		@ sp needed
 724 03ae 7047     		bx	lr
 725              		.cfi_endproc
 726              	.LFE132:
 727              		.size	CRC_Handle_8, .-CRC_Handle_8
 728              		.align	2
 729              		.p2align 4,,15
 730              		.thumb
 731              		.thumb_func
 732              		.type	CRC_Handle_16, %function
 733              	CRC_Handle_16:
 734              	.LFB133:
 735              		.loc 1 509 0
 736              		.cfi_startproc
 737              		@ args = 0, pretend = 0, frame = 24
 738              		@ frame_needed = 0, uses_anonymous_args = 0
ARM GAS  /tmp/ccZRTK3Y.s 			page 14


 739              		@ link register save eliminated.
 740 03b0 86B0     		sub	sp, sp, #24
 741              		.cfi_def_cfa_offset 24
 742 03b2 0390     		str	r0, [sp, #12]
 743 03b4 0291     		str	r1, [sp, #8]
 744 03b6 0192     		str	r2, [sp, #4]
 745              		.loc 1 510 0
 746 03b8 0023     		movs	r3, #0
 747 03ba 0593     		str	r3, [sp, #20]
 748              		.loc 1 515 0
 749 03bc 0023     		movs	r3, #0
 750 03be 0593     		str	r3, [sp, #20]
 751 03c0 12E0     		b	.L47
 752              	.L48:
 753              		.loc 1 517 0 discriminator 2
 754 03c2 039B     		ldr	r3, [sp, #12]
 755 03c4 1B68     		ldr	r3, [r3]
 756 03c6 059A     		ldr	r2, [sp, #20]
 757 03c8 9200     		lsls	r2, r2, #2
 758 03ca 0299     		ldr	r1, [sp, #8]
 759 03cc 0A44     		add	r2, r2, r1
 760 03ce 1288     		ldrh	r2, [r2]
 761 03d0 1104     		lsls	r1, r2, #16
 762 03d2 059A     		ldr	r2, [sp, #20]
 763 03d4 9200     		lsls	r2, r2, #2
 764 03d6 0232     		adds	r2, r2, #2
 765 03d8 0298     		ldr	r0, [sp, #8]
 766 03da 0244     		add	r2, r2, r0
 767 03dc 1288     		ldrh	r2, [r2]
 768 03de 0A43     		orrs	r2, r2, r1
 769 03e0 1A60     		str	r2, [r3]
 770              		.loc 1 515 0 discriminator 2
 771 03e2 059B     		ldr	r3, [sp, #20]
 772 03e4 0133     		adds	r3, r3, #1
 773 03e6 0593     		str	r3, [sp, #20]
 774              	.L47:
 775              		.loc 1 515 0 is_stmt 0 discriminator 1
 776 03e8 019B     		ldr	r3, [sp, #4]
 777 03ea 5A08     		lsrs	r2, r3, #1
 778 03ec 059B     		ldr	r3, [sp, #20]
 779 03ee 9A42     		cmp	r2, r3
 780 03f0 E7D8     		bhi	.L48
 781              		.loc 1 519 0 is_stmt 1
 782 03f2 019B     		ldr	r3, [sp, #4]
 783 03f4 03F00103 		and	r3, r3, #1
 784 03f8 002B     		cmp	r3, #0
 785 03fa 07D0     		beq	.L49
 786              		.loc 1 521 0
 787 03fc 039B     		ldr	r3, [sp, #12]
 788 03fe 1B68     		ldr	r3, [r3]
 789 0400 059A     		ldr	r2, [sp, #20]
 790 0402 9200     		lsls	r2, r2, #2
 791 0404 0299     		ldr	r1, [sp, #8]
 792 0406 0A44     		add	r2, r2, r1
 793 0408 1288     		ldrh	r2, [r2]
 794 040a 1A80     		strh	r2, [r3]	@ movhi
 795              	.L49:
ARM GAS  /tmp/ccZRTK3Y.s 			page 15


 796              		.loc 1 525 0
 797 040c 039B     		ldr	r3, [sp, #12]
 798 040e 1B68     		ldr	r3, [r3]
 799 0410 1B68     		ldr	r3, [r3]
 800              		.loc 1 526 0
 801 0412 1846     		mov	r0, r3
 802 0414 06B0     		add	sp, sp, #24
 803              		@ sp needed
 804 0416 7047     		bx	lr
 805              		.cfi_endproc
 806              	.LFE133:
 807              		.size	CRC_Handle_16, .-CRC_Handle_16
 808              	.Letext0:
 809              		.file 2 "/nfs/nfs5/home/research/hardware/arm2/gcc-arm-embedded/gcc-arm-none-eabi-4_8-2014q2/arm-n
 810              		.file 3 "/nfs/nfs5/home/research/hardware/arm2/gcc-arm-embedded/gcc-arm-none-eabi-4_8-2014q2/arm-n
 811              		.file 4 "../../../../../../ChibiOS/os/ext/CMSIS/ST/STM32L4xx/stm32l476xx.h"
 812              		.file 5 "../../../../../Drivers/STM32L4xx_HAL_Driver/Inc/stm32l4xx_hal_def.h"
 813              		.file 6 "../../../../../Drivers/STM32L4xx_HAL_Driver/Inc/stm32l4xx_hal_crc.h"
 814              		.file 7 "../../../../../../ChibiOS/os/ext/CMSIS/include/core_cm4.h"