ARM GAS  /tmp/ccumUKXV.s 			page 1


   1              		.syntax unified
   2              		.cpu cortex-m4
   3              		.fpu softvfp
   4              		.eabi_attribute 20, 1
   5              		.eabi_attribute 21, 1
   6              		.eabi_attribute 23, 3
   7              		.eabi_attribute 24, 1
   8              		.eabi_attribute 25, 1
   9              		.eabi_attribute 26, 1
  10              		.eabi_attribute 30, 6
  11              		.eabi_attribute 34, 1
  12              		.eabi_attribute 18, 4
  13              		.thumb
  14              		.file	"stm32l4xx_hal_msp.c"
  15              		.text
  16              	.Ltext0:
  17              		.cfi_sections	.debug_frame
  18              		.align	2
  19              		.p2align 4,,15
  20              		.global	HAL_PCD_MspInit
  21              		.thumb
  22              		.thumb_func
  23              		.type	HAL_PCD_MspInit, %function
  24              	HAL_PCD_MspInit:
  25              	.LFB125:
  26              		.file 1 "../../../../../Projects/Multi/Applications/BlueMicrosystem2/Src/stm32l4xx_hal_msp.c"
  27              		.loc 1 244 0
  28              		.cfi_startproc
  29              		@ args = 0, pretend = 0, frame = 40
  30              		@ frame_needed = 0, uses_anonymous_args = 0
  31 0000 00B5     		push	{lr}
  32              		.cfi_def_cfa_offset 4
  33              		.cfi_offset 14, -4
  34 0002 8BB0     		sub	sp, sp, #44
  35              		.cfi_def_cfa_offset 48
  36 0004 0190     		str	r0, [sp, #4]
  37              	.LBB2:
  38              		.loc 1 248 0
  39 0006 1A4B     		ldr	r3, .L2
  40 0008 194A     		ldr	r2, .L2
  41 000a D26C     		ldr	r2, [r2, #76]
  42 000c 42F00102 		orr	r2, r2, #1
  43 0010 DA64     		str	r2, [r3, #76]
  44 0012 174B     		ldr	r3, .L2
  45 0014 DB6C     		ldr	r3, [r3, #76]
  46 0016 03F00103 		and	r3, r3, #1
  47 001a 0493     		str	r3, [sp, #16]
  48 001c 049B     		ldr	r3, [sp, #16]
  49              	.LBE2:
  50              		.loc 1 251 0
  51 001e 4FF4C053 		mov	r3, #6144
  52 0022 0593     		str	r3, [sp, #20]
  53              		.loc 1 252 0
  54 0024 0223     		movs	r3, #2
  55 0026 0693     		str	r3, [sp, #24]
  56              		.loc 1 253 0
  57 0028 0023     		movs	r3, #0
ARM GAS  /tmp/ccumUKXV.s 			page 2


  58 002a 0793     		str	r3, [sp, #28]
  59              		.loc 1 254 0
  60 002c 0323     		movs	r3, #3
  61 002e 0893     		str	r3, [sp, #32]
  62              		.loc 1 255 0
  63 0030 0A23     		movs	r3, #10
  64 0032 0993     		str	r3, [sp, #36]
  65              		.loc 1 256 0
  66 0034 05AB     		add	r3, sp, #20
  67 0036 4FF09040 		mov	r0, #1207959552
  68 003a 1946     		mov	r1, r3
  69 003c FFF7FEFF 		bl	HAL_GPIO_Init
  70              	.LBB3:
  71              		.loc 1 259 0
  72 0040 0B4B     		ldr	r3, .L2
  73 0042 0B4A     		ldr	r2, .L2
  74 0044 D26C     		ldr	r2, [r2, #76]
  75 0046 42F48052 		orr	r2, r2, #4096
  76 004a DA64     		str	r2, [r3, #76]
  77 004c 084B     		ldr	r3, .L2
  78 004e DB6C     		ldr	r3, [r3, #76]
  79 0050 03F48053 		and	r3, r3, #4096
  80 0054 0393     		str	r3, [sp, #12]
  81 0056 039B     		ldr	r3, [sp, #12]
  82              	.LBE3:
  83              		.loc 1 262 0
  84 0058 4320     		movs	r0, #67
  85 005a 0621     		movs	r1, #6
  86 005c 0022     		movs	r2, #0
  87 005e FFF7FEFF 		bl	HAL_NVIC_SetPriority
  88              		.loc 1 265 0
  89 0062 4320     		movs	r0, #67
  90 0064 FFF7FEFF 		bl	HAL_NVIC_EnableIRQ
  91              		.loc 1 266 0
  92 0068 0BB0     		add	sp, sp, #44
  93              		@ sp needed
  94 006a 5DF804FB 		ldr	pc, [sp], #4
  95              	.L3:
  96 006e 00BF     		.align	2
  97              	.L2:
  98 0070 00100240 		.word	1073876992
  99              		.cfi_endproc
 100              	.LFE125:
 101              		.size	HAL_PCD_MspInit, .-HAL_PCD_MspInit
 102              		.align	2
 103 0074 AFF30080 		.p2align 4,,15
 103      AFF30080 
 103      AFF30080 
 104              		.global	HAL_PCD_MspDeInit
 105              		.thumb
 106              		.thumb_func
 107              		.type	HAL_PCD_MspDeInit, %function
 108              	HAL_PCD_MspDeInit:
 109              	.LFB126:
 110              		.loc 1 274 0
 111              		.cfi_startproc
 112              		@ args = 0, pretend = 0, frame = 8
ARM GAS  /tmp/ccumUKXV.s 			page 3


 113              		@ frame_needed = 0, uses_anonymous_args = 0
 114              		@ link register save eliminated.
 115 0080 82B0     		sub	sp, sp, #8
 116              		.cfi_def_cfa_offset 8
 117 0082 0190     		str	r0, [sp, #4]
 118              		.loc 1 276 0
 119 0084 064B     		ldr	r3, .L5
 120 0086 064A     		ldr	r2, .L5
 121 0088 D26C     		ldr	r2, [r2, #76]
 122 008a 22F48052 		bic	r2, r2, #4096
 123 008e DA64     		str	r2, [r3, #76]
 124              		.loc 1 277 0
 125 0090 034B     		ldr	r3, .L5
 126 0092 034A     		ldr	r2, .L5
 127 0094 126E     		ldr	r2, [r2, #96]
 128 0096 22F00102 		bic	r2, r2, #1
 129 009a 1A66     		str	r2, [r3, #96]
 130              		.loc 1 278 0
 131 009c 02B0     		add	sp, sp, #8
 132              		@ sp needed
 133 009e 7047     		bx	lr
 134              	.L6:
 135              		.align	2
 136              	.L5:
 137 00a0 00100240 		.word	1073876992
 138              		.cfi_endproc
 139              	.LFE126:
 140              		.size	HAL_PCD_MspDeInit, .-HAL_PCD_MspDeInit
 141              		.align	2
 142 00a4 AFF30080 		.p2align 4,,15
 142      AFF30080 
 142      AFF30080 
 143              		.global	HAL_TIM_Base_MspInit
 144              		.thumb
 145              		.thumb_func
 146              		.type	HAL_TIM_Base_MspInit, %function
 147              	HAL_TIM_Base_MspInit:
 148              	.LFB127:
 149              		.loc 1 290 0
 150              		.cfi_startproc
 151              		@ args = 0, pretend = 0, frame = 16
 152              		@ frame_needed = 0, uses_anonymous_args = 0
 153 00b0 00B5     		push	{lr}
 154              		.cfi_def_cfa_offset 4
 155              		.cfi_offset 14, -4
 156 00b2 85B0     		sub	sp, sp, #20
 157              		.cfi_def_cfa_offset 24
 158 00b4 0190     		str	r0, [sp, #4]
 159              		.loc 1 291 0
 160 00b6 019B     		ldr	r3, [sp, #4]
 161 00b8 1A68     		ldr	r2, [r3]
 162 00ba 1A4B     		ldr	r3, .L10
 163 00bc 9A42     		cmp	r2, r3
 164 00be 14D1     		bne	.L8
 165              	.LBB4:
 166              		.loc 1 293 0
 167 00c0 194B     		ldr	r3, .L10+4
ARM GAS  /tmp/ccumUKXV.s 			page 4


 168 00c2 194A     		ldr	r2, .L10+4
 169 00c4 926D     		ldr	r2, [r2, #88]
 170 00c6 42F00402 		orr	r2, r2, #4
 171 00ca 9A65     		str	r2, [r3, #88]
 172 00cc 164B     		ldr	r3, .L10+4
 173 00ce 9B6D     		ldr	r3, [r3, #88]
 174 00d0 03F00403 		and	r3, r3, #4
 175 00d4 0393     		str	r3, [sp, #12]
 176 00d6 039B     		ldr	r3, [sp, #12]
 177              	.LBE4:
 178              		.loc 1 296 0
 179 00d8 1E20     		movs	r0, #30
 180 00da 0F21     		movs	r1, #15
 181 00dc 0022     		movs	r2, #0
 182 00de FFF7FEFF 		bl	HAL_NVIC_SetPriority
 183              		.loc 1 299 0
 184 00e2 1E20     		movs	r0, #30
 185 00e4 FFF7FEFF 		bl	HAL_NVIC_EnableIRQ
 186 00e8 18E0     		b	.L7
 187              	.L8:
 188              		.loc 1 300 0
 189 00ea 019B     		ldr	r3, [sp, #4]
 190 00ec 1A68     		ldr	r2, [r3]
 191 00ee 0F4B     		ldr	r3, .L10+8
 192 00f0 9A42     		cmp	r2, r3
 193 00f2 13D1     		bne	.L7
 194              	.LBB5:
 195              		.loc 1 302 0
 196 00f4 0C4B     		ldr	r3, .L10+4
 197 00f6 0C4A     		ldr	r2, .L10+4
 198 00f8 926D     		ldr	r2, [r2, #88]
 199 00fa 42F00802 		orr	r2, r2, #8
 200 00fe 9A65     		str	r2, [r3, #88]
 201 0100 094B     		ldr	r3, .L10+4
 202 0102 9B6D     		ldr	r3, [r3, #88]
 203 0104 03F00803 		and	r3, r3, #8
 204 0108 0293     		str	r3, [sp, #8]
 205 010a 029B     		ldr	r3, [sp, #8]
 206              	.LBE5:
 207              		.loc 1 305 0
 208 010c 3220     		movs	r0, #50
 209 010e 0F21     		movs	r1, #15
 210 0110 0022     		movs	r2, #0
 211 0112 FFF7FEFF 		bl	HAL_NVIC_SetPriority
 212              		.loc 1 308 0
 213 0116 3220     		movs	r0, #50
 214 0118 FFF7FEFF 		bl	HAL_NVIC_EnableIRQ
 215              	.L7:
 216              		.loc 1 310 0
 217 011c 05B0     		add	sp, sp, #20
 218              		@ sp needed
 219 011e 5DF804FB 		ldr	pc, [sp], #4
 220              	.L11:
 221 0122 00BF     		.align	2
 222              	.L10:
 223 0124 00080040 		.word	1073743872
 224 0128 00100240 		.word	1073876992
ARM GAS  /tmp/ccumUKXV.s 			page 5


 225 012c 000C0040 		.word	1073744896
 226              		.cfi_endproc
 227              	.LFE127:
 228              		.size	HAL_TIM_Base_MspInit, .-HAL_TIM_Base_MspInit
 229              		.align	2
 230              		.p2align 4,,15
 231              		.global	HAL_TIM_OC_MspInit
 232              		.thumb
 233              		.thumb_func
 234              		.type	HAL_TIM_OC_MspInit, %function
 235              	HAL_TIM_OC_MspInit:
 236              	.LFB128:
 237              		.loc 1 321 0
 238              		.cfi_startproc
 239              		@ args = 0, pretend = 0, frame = 16
 240              		@ frame_needed = 0, uses_anonymous_args = 0
 241 0130 00B5     		push	{lr}
 242              		.cfi_def_cfa_offset 4
 243              		.cfi_offset 14, -4
 244 0132 85B0     		sub	sp, sp, #20
 245              		.cfi_def_cfa_offset 24
 246 0134 0190     		str	r0, [sp, #4]
 247              	.LBB6:
 248              		.loc 1 323 0
 249 0136 0B4B     		ldr	r3, .L13
 250 0138 0A4A     		ldr	r2, .L13
 251 013a 126E     		ldr	r2, [r2, #96]
 252 013c 42F40062 		orr	r2, r2, #2048
 253 0140 1A66     		str	r2, [r3, #96]
 254 0142 084B     		ldr	r3, .L13
 255 0144 1B6E     		ldr	r3, [r3, #96]
 256 0146 03F40063 		and	r3, r3, #2048
 257 014a 0393     		str	r3, [sp, #12]
 258 014c 039B     		ldr	r3, [sp, #12]
 259              	.LBE6:
 260              		.loc 1 326 0
 261 014e 1B20     		movs	r0, #27
 262 0150 0821     		movs	r1, #8
 263 0152 0022     		movs	r2, #0
 264 0154 FFF7FEFF 		bl	HAL_NVIC_SetPriority
 265              		.loc 1 327 0
 266 0158 1B20     		movs	r0, #27
 267 015a FFF7FEFF 		bl	HAL_NVIC_EnableIRQ
 268              		.loc 1 328 0
 269 015e 05B0     		add	sp, sp, #20
 270              		@ sp needed
 271 0160 5DF804FB 		ldr	pc, [sp], #4
 272              	.L14:
 273              		.align	2
 274              	.L13:
 275 0164 00100240 		.word	1073876992
 276              		.cfi_endproc
 277              	.LFE128:
 278              		.size	HAL_TIM_OC_MspInit, .-HAL_TIM_OC_MspInit
 279              		.align	2
 280 0168 AFF30080 		.p2align 4,,15
 280      AFF30080 
ARM GAS  /tmp/ccumUKXV.s 			page 6


 281              		.global	HAL_CRC_MspInit
 282              		.thumb
 283              		.thumb_func
 284              		.type	HAL_CRC_MspInit, %function
 285              	HAL_CRC_MspInit:
 286              	.LFB129:
 287              		.loc 1 338 0
 288              		.cfi_startproc
 289              		@ args = 0, pretend = 0, frame = 16
 290              		@ frame_needed = 0, uses_anonymous_args = 0
 291              		@ link register save eliminated.
 292 0170 84B0     		sub	sp, sp, #16
 293              		.cfi_def_cfa_offset 16
 294 0172 0190     		str	r0, [sp, #4]
 295              	.LBB7:
 296              		.loc 1 340 0
 297 0174 064B     		ldr	r3, .L16
 298 0176 064A     		ldr	r2, .L16
 299 0178 926C     		ldr	r2, [r2, #72]
 300 017a 42F48052 		orr	r2, r2, #4096
 301 017e 9A64     		str	r2, [r3, #72]
 302 0180 034B     		ldr	r3, .L16
 303 0182 9B6C     		ldr	r3, [r3, #72]
 304 0184 03F48053 		and	r3, r3, #4096
 305 0188 0393     		str	r3, [sp, #12]
 306 018a 039B     		ldr	r3, [sp, #12]
 307              	.LBE7:
 308              		.loc 1 341 0
 309 018c 04B0     		add	sp, sp, #16
 310              		@ sp needed
 311 018e 7047     		bx	lr
 312              	.L17:
 313              		.align	2
 314              	.L16:
 315 0190 00100240 		.word	1073876992
 316              		.cfi_endproc
 317              	.LFE129:
 318              		.size	HAL_CRC_MspInit, .-HAL_CRC_MspInit
 319              		.align	2
 320 0194 AFF30080 		.p2align 4,,15
 320      AFF30080 
 320      AFF30080 
 321              		.global	HAL_CRC_MspDeInit
 322              		.thumb
 323              		.thumb_func
 324              		.type	HAL_CRC_MspDeInit, %function
 325              	HAL_CRC_MspDeInit:
 326              	.LFB130:
 327              		.loc 1 351 0
 328              		.cfi_startproc
 329              		@ args = 0, pretend = 0, frame = 8
 330              		@ frame_needed = 0, uses_anonymous_args = 0
 331              		@ link register save eliminated.
 332 01a0 82B0     		sub	sp, sp, #8
 333              		.cfi_def_cfa_offset 8
 334 01a2 0190     		str	r0, [sp, #4]
 335              		.loc 1 353 0
ARM GAS  /tmp/ccumUKXV.s 			page 7


 336 01a4 064B     		ldr	r3, .L19
 337 01a6 064A     		ldr	r2, .L19
 338 01a8 926A     		ldr	r2, [r2, #40]
 339 01aa 42F48052 		orr	r2, r2, #4096
 340 01ae 9A62     		str	r2, [r3, #40]
 341              		.loc 1 356 0
 342 01b0 034B     		ldr	r3, .L19
 343 01b2 034A     		ldr	r2, .L19
 344 01b4 926A     		ldr	r2, [r2, #40]
 345 01b6 22F48052 		bic	r2, r2, #4096
 346 01ba 9A62     		str	r2, [r3, #40]
 347              		.loc 1 357 0
 348 01bc 02B0     		add	sp, sp, #8
 349              		@ sp needed
 350 01be 7047     		bx	lr
 351              	.L20:
 352              		.align	2
 353              	.L19:
 354 01c0 00100240 		.word	1073876992
 355              		.cfi_endproc
 356              	.LFE130:
 357              		.size	HAL_CRC_MspDeInit, .-HAL_CRC_MspDeInit
 358              	.Letext0:
 359              		.file 2 "/nfs/nfs5/home/research/hardware/arm2/gcc-arm-embedded/gcc-arm-none-eabi-4_8-2014q2/arm-n
 360              		.file 3 "/nfs/nfs5/home/research/hardware/arm2/gcc-arm-embedded/gcc-arm-none-eabi-4_8-2014q2/arm-n
 361              		.file 4 "../../../../../../ChibiOS/os/ext/CMSIS/ST/STM32L4xx/stm32l476xx.h"
 362              		.file 5 "../../../../../Drivers/STM32L4xx_HAL_Driver/Inc/stm32l4xx_hal_def.h"
 363              		.file 6 "../../../../../Drivers/STM32L4xx_HAL_Driver/Inc/stm32l4xx_hal_gpio.h"
 364              		.file 7 "../../../../../Drivers/STM32L4xx_HAL_Driver/Inc/stm32l4xx_hal_dma.h"
 365              		.file 8 "../../../../../Drivers/STM32L4xx_HAL_Driver/Inc/stm32l4xx_hal_crc.h"
 366              		.file 9 "../../../../../Drivers/STM32L4xx_HAL_Driver/Inc/stm32l4xx_hal_tim.h"
 367              		.file 10 "../../../../../Drivers/STM32L4xx_HAL_Driver/Inc/stm32l4xx_ll_usb.h"
 368              		.file 11 "../../../../../Drivers/STM32L4xx_HAL_Driver/Inc/stm32l4xx_hal_pcd.h"
 369              		.file 12 "../../../../../../ChibiOS/os/ext/CMSIS/include/core_cm4.h"