ARM GAS  /tmp/ccakcsKX.s 			page 1


   1              		.syntax unified
   2              		.cpu cortex-m4
   3              		.fpu softvfp
   4              		.eabi_attribute 20, 1
   5              		.eabi_attribute 21, 1
   6              		.eabi_attribute 23, 3
   7              		.eabi_attribute 24, 1
   8              		.eabi_attribute 25, 1
   9              		.eabi_attribute 26, 1
  10              		.eabi_attribute 30, 6
  11              		.eabi_attribute 34, 1
  12              		.eabi_attribute 18, 4
  13              		.thumb
  14              		.file	"stm32l4xx_hal_pcd.c"
  15              		.text
  16              	.Ltext0:
  17              		.cfi_sections	.debug_frame
  18              		.align	2
  19              		.p2align 4,,15
  20              		.global	HAL_PCD_Init
  21              		.thumb
  22              		.thumb_func
  23              		.type	HAL_PCD_Init, %function
  24              	HAL_PCD_Init:
  25              	.LFB125:
  26              		.file 1 "../../../../../Drivers/STM32L4xx_HAL_Driver/Src/stm32l4xx_hal_pcd.c"
  27              		.loc 1 144 0
  28              		.cfi_startproc
  29              		@ args = 0, pretend = 0, frame = 16
  30              		@ frame_needed = 0, uses_anonymous_args = 0
  31 0000 F0B5     		push	{r4, r5, r6, r7, lr}
  32              		.cfi_def_cfa_offset 20
  33              		.cfi_offset 4, -20
  34              		.cfi_offset 5, -16
  35              		.cfi_offset 6, -12
  36              		.cfi_offset 7, -8
  37              		.cfi_offset 14, -4
  38 0002 8FB0     		sub	sp, sp, #60
  39              		.cfi_def_cfa_offset 80
  40 0004 0B90     		str	r0, [sp, #44]
  41              		.loc 1 145 0
  42 0006 0023     		movs	r3, #0
  43 0008 0D93     		str	r3, [sp, #52]
  44              		.loc 1 148 0
  45 000a 0B9B     		ldr	r3, [sp, #44]
  46 000c 002B     		cmp	r3, #0
  47 000e 01D1     		bne	.L2
  48              		.loc 1 150 0
  49 0010 0123     		movs	r3, #1
  50 0012 0BE1     		b	.L3
  51              	.L2:
  52              		.loc 1 156 0
  53 0014 0B9B     		ldr	r3, [sp, #44]
  54 0016 93F88533 		ldrb	r3, [r3, #901]
  55 001a DBB2     		uxtb	r3, r3
  56 001c 002B     		cmp	r3, #0
  57 001e 06D1     		bne	.L4
ARM GAS  /tmp/ccakcsKX.s 			page 2


  58              		.loc 1 159 0
  59 0020 0B9B     		ldr	r3, [sp, #44]
  60 0022 0022     		movs	r2, #0
  61 0024 83F88423 		strb	r2, [r3, #900]
  62              		.loc 1 162 0
  63 0028 0B98     		ldr	r0, [sp, #44]
  64 002a FFF7FEFF 		bl	HAL_PCD_MspInit
  65              	.L4:
  66              		.loc 1 165 0
  67 002e 0B9B     		ldr	r3, [sp, #44]
  68 0030 0322     		movs	r2, #3
  69 0032 83F88523 		strb	r2, [r3, #901]
  70              		.loc 1 168 0
  71 0036 0B9B     		ldr	r3, [sp, #44]
  72 0038 1B68     		ldr	r3, [r3]
  73 003a 1846     		mov	r0, r3
  74 003c FFF7FEFF 		bl	USB_DisableGlobalInt
  75              		.loc 1 171 0
  76 0040 0B9B     		ldr	r3, [sp, #44]
  77 0042 1F68     		ldr	r7, [r3]
  78 0044 0B9E     		ldr	r6, [sp, #44]
  79 0046 6C46     		mov	r4, sp
  80 0048 06F11005 		add	r5, r6, #16
  81 004c 0FCD     		ldmia	r5!, {r0, r1, r2, r3}
  82 004e 0FC4     		stmia	r4!, {r0, r1, r2, r3}
  83 0050 0FCD     		ldmia	r5!, {r0, r1, r2, r3}
  84 0052 0FC4     		stmia	r4!, {r0, r1, r2, r3}
  85 0054 95E80300 		ldmia	r5, {r0, r1}
  86 0058 84E80300 		stmia	r4, {r0, r1}
  87 005c 331D     		adds	r3, r6, #4
  88 005e 0ECB     		ldmia	r3, {r1, r2, r3}
  89 0060 3846     		mov	r0, r7
  90 0062 FFF7FEFF 		bl	USB_CoreInit
  91              		.loc 1 174 0
  92 0066 0B9B     		ldr	r3, [sp, #44]
  93 0068 1B68     		ldr	r3, [r3]
  94 006a 1846     		mov	r0, r3
  95 006c 0021     		movs	r1, #0
  96 006e FFF7FEFF 		bl	USB_SetCurrentMode
  97              		.loc 1 177 0
  98 0072 0023     		movs	r3, #0
  99 0074 0D93     		str	r3, [sp, #52]
 100 0076 4CE0     		b	.L5
 101              	.L6:
 102              		.loc 1 180 0 discriminator 2
 103 0078 0B99     		ldr	r1, [sp, #44]
 104 007a 0D9A     		ldr	r2, [sp, #52]
 105 007c 1346     		mov	r3, r2
 106 007e DB00     		lsls	r3, r3, #3
 107 0080 9B1A     		subs	r3, r3, r2
 108 0082 9B00     		lsls	r3, r3, #2
 109 0084 0B44     		add	r3, r3, r1
 110 0086 3833     		adds	r3, r3, #56
 111 0088 0122     		movs	r2, #1
 112 008a 5A71     		strb	r2, [r3, #5]
 113              		.loc 1 181 0 discriminator 2
 114 008c 0D9B     		ldr	r3, [sp, #52]
ARM GAS  /tmp/ccakcsKX.s 			page 3


 115 008e D9B2     		uxtb	r1, r3
 116 0090 0B98     		ldr	r0, [sp, #44]
 117 0092 0D9A     		ldr	r2, [sp, #52]
 118 0094 1346     		mov	r3, r2
 119 0096 DB00     		lsls	r3, r3, #3
 120 0098 9B1A     		subs	r3, r3, r2
 121 009a 9B00     		lsls	r3, r3, #2
 122 009c 0344     		add	r3, r3, r0
 123 009e 3833     		adds	r3, r3, #56
 124 00a0 0A46     		mov	r2, r1
 125 00a2 1A71     		strb	r2, [r3, #4]
 126              		.loc 1 182 0 discriminator 2
 127 00a4 0D9B     		ldr	r3, [sp, #52]
 128 00a6 99B2     		uxth	r1, r3
 129 00a8 0B98     		ldr	r0, [sp, #44]
 130 00aa 0D9A     		ldr	r2, [sp, #52]
 131 00ac 1346     		mov	r3, r2
 132 00ae DB00     		lsls	r3, r3, #3
 133 00b0 9B1A     		subs	r3, r3, r2
 134 00b2 9B00     		lsls	r3, r3, #2
 135 00b4 0344     		add	r3, r3, r0
 136 00b6 3833     		adds	r3, r3, #56
 137 00b8 0A46     		mov	r2, r1	@ movhi
 138 00ba 5A81     		strh	r2, [r3, #10]	@ movhi
 139              		.loc 1 184 0 discriminator 2
 140 00bc 0B99     		ldr	r1, [sp, #44]
 141 00be 0D9A     		ldr	r2, [sp, #52]
 142 00c0 1346     		mov	r3, r2
 143 00c2 DB00     		lsls	r3, r3, #3
 144 00c4 9B1A     		subs	r3, r3, r2
 145 00c6 9B00     		lsls	r3, r3, #2
 146 00c8 0B44     		add	r3, r3, r1
 147 00ca 3833     		adds	r3, r3, #56
 148 00cc 0022     		movs	r2, #0
 149 00ce DA71     		strb	r2, [r3, #7]
 150              		.loc 1 185 0 discriminator 2
 151 00d0 0B99     		ldr	r1, [sp, #44]
 152 00d2 0D9A     		ldr	r2, [sp, #52]
 153 00d4 1346     		mov	r3, r2
 154 00d6 DB00     		lsls	r3, r3, #3
 155 00d8 9B1A     		subs	r3, r3, r2
 156 00da 9B00     		lsls	r3, r3, #2
 157 00dc 0B44     		add	r3, r3, r1
 158 00de 4033     		adds	r3, r3, #64
 159 00e0 0022     		movs	r2, #0
 160 00e2 5A60     		str	r2, [r3, #4]
 161              		.loc 1 186 0 discriminator 2
 162 00e4 0B99     		ldr	r1, [sp, #44]
 163 00e6 0D9A     		ldr	r2, [sp, #52]
 164 00e8 1346     		mov	r3, r2
 165 00ea DB00     		lsls	r3, r3, #3
 166 00ec 9B1A     		subs	r3, r3, r2
 167 00ee 9B00     		lsls	r3, r3, #2
 168 00f0 0B44     		add	r3, r3, r1
 169 00f2 4033     		adds	r3, r3, #64
 170 00f4 0022     		movs	r2, #0
 171 00f6 9A60     		str	r2, [r3, #8]
ARM GAS  /tmp/ccakcsKX.s 			page 4


 172              		.loc 1 187 0 discriminator 2
 173 00f8 0B99     		ldr	r1, [sp, #44]
 174 00fa 0D9A     		ldr	r2, [sp, #52]
 175 00fc 1346     		mov	r3, r2
 176 00fe DB00     		lsls	r3, r3, #3
 177 0100 9B1A     		subs	r3, r3, r2
 178 0102 9B00     		lsls	r3, r3, #2
 179 0104 0B44     		add	r3, r3, r1
 180 0106 4833     		adds	r3, r3, #72
 181 0108 0022     		movs	r2, #0
 182 010a 9A60     		str	r2, [r3, #8]
 183              		.loc 1 177 0 discriminator 2
 184 010c 0D9B     		ldr	r3, [sp, #52]
 185 010e 0133     		adds	r3, r3, #1
 186 0110 0D93     		str	r3, [sp, #52]
 187              	.L5:
 188              		.loc 1 177 0 is_stmt 0 discriminator 1
 189 0112 0B9B     		ldr	r3, [sp, #44]
 190 0114 5A68     		ldr	r2, [r3, #4]
 191 0116 0D9B     		ldr	r3, [sp, #52]
 192 0118 9A42     		cmp	r2, r3
 193 011a ADD8     		bhi	.L6
 194              		.loc 1 190 0 is_stmt 1
 195 011c 0023     		movs	r3, #0
 196 011e 0D93     		str	r3, [sp, #52]
 197 0120 52E0     		b	.L7
 198              	.L8:
 199              		.loc 1 192 0 discriminator 2
 200 0122 0B99     		ldr	r1, [sp, #44]
 201 0124 0D9A     		ldr	r2, [sp, #52]
 202 0126 1346     		mov	r3, r2
 203 0128 DB00     		lsls	r3, r3, #3
 204 012a 9B1A     		subs	r3, r3, r2
 205 012c 9B00     		lsls	r3, r3, #2
 206 012e 0B44     		add	r3, r3, r1
 207 0130 03F5F073 		add	r3, r3, #480
 208 0134 0022     		movs	r2, #0
 209 0136 5A70     		strb	r2, [r3, #1]
 210              		.loc 1 193 0 discriminator 2
 211 0138 0D9B     		ldr	r3, [sp, #52]
 212 013a D9B2     		uxtb	r1, r3
 213 013c 0B98     		ldr	r0, [sp, #44]
 214 013e 0D9A     		ldr	r2, [sp, #52]
 215 0140 1346     		mov	r3, r2
 216 0142 DB00     		lsls	r3, r3, #3
 217 0144 9B1A     		subs	r3, r3, r2
 218 0146 9B00     		lsls	r3, r3, #2
 219 0148 0344     		add	r3, r3, r0
 220 014a 03F5F073 		add	r3, r3, #480
 221 014e 0A46     		mov	r2, r1
 222 0150 1A70     		strb	r2, [r3]
 223              		.loc 1 194 0 discriminator 2
 224 0152 0D9B     		ldr	r3, [sp, #52]
 225 0154 99B2     		uxth	r1, r3
 226 0156 0B98     		ldr	r0, [sp, #44]
 227 0158 0D9A     		ldr	r2, [sp, #52]
 228 015a 1346     		mov	r3, r2
ARM GAS  /tmp/ccakcsKX.s 			page 5


 229 015c DB00     		lsls	r3, r3, #3
 230 015e 9B1A     		subs	r3, r3, r2
 231 0160 9B00     		lsls	r3, r3, #2
 232 0162 0344     		add	r3, r3, r0
 233 0164 3833     		adds	r3, r3, #56
 234 0166 0A46     		mov	r2, r1	@ movhi
 235 0168 5A81     		strh	r2, [r3, #10]	@ movhi
 236              		.loc 1 196 0 discriminator 2
 237 016a 0B99     		ldr	r1, [sp, #44]
 238 016c 0D9A     		ldr	r2, [sp, #52]
 239 016e 1346     		mov	r3, r2
 240 0170 DB00     		lsls	r3, r3, #3
 241 0172 9B1A     		subs	r3, r3, r2
 242 0174 9B00     		lsls	r3, r3, #2
 243 0176 0B44     		add	r3, r3, r1
 244 0178 03F5F073 		add	r3, r3, #480
 245 017c 0022     		movs	r2, #0
 246 017e DA70     		strb	r2, [r3, #3]
 247              		.loc 1 197 0 discriminator 2
 248 0180 0B99     		ldr	r1, [sp, #44]
 249 0182 0D9A     		ldr	r2, [sp, #52]
 250 0184 1346     		mov	r3, r2
 251 0186 DB00     		lsls	r3, r3, #3
 252 0188 9B1A     		subs	r3, r3, r2
 253 018a 9B00     		lsls	r3, r3, #2
 254 018c 0B44     		add	r3, r3, r1
 255 018e 03F5F473 		add	r3, r3, #488
 256 0192 0022     		movs	r2, #0
 257 0194 1A60     		str	r2, [r3]
 258              		.loc 1 198 0 discriminator 2
 259 0196 0B99     		ldr	r1, [sp, #44]
 260 0198 0D9A     		ldr	r2, [sp, #52]
 261 019a 1346     		mov	r3, r2
 262 019c DB00     		lsls	r3, r3, #3
 263 019e 9B1A     		subs	r3, r3, r2
 264 01a0 9B00     		lsls	r3, r3, #2
 265 01a2 0B44     		add	r3, r3, r1
 266 01a4 03F5F473 		add	r3, r3, #488
 267 01a8 0022     		movs	r2, #0
 268 01aa 5A60     		str	r2, [r3, #4]
 269              		.loc 1 199 0 discriminator 2
 270 01ac 0B99     		ldr	r1, [sp, #44]
 271 01ae 0D9A     		ldr	r2, [sp, #52]
 272 01b0 1346     		mov	r3, r2
 273 01b2 DB00     		lsls	r3, r3, #3
 274 01b4 9B1A     		subs	r3, r3, r2
 275 01b6 9B00     		lsls	r3, r3, #2
 276 01b8 0B44     		add	r3, r3, r1
 277 01ba 03F5F873 		add	r3, r3, #496
 278 01be 0022     		movs	r2, #0
 279 01c0 5A60     		str	r2, [r3, #4]
 280              		.loc 1 190 0 discriminator 2
 281 01c2 0D9B     		ldr	r3, [sp, #52]
 282 01c4 0133     		adds	r3, r3, #1
 283 01c6 0D93     		str	r3, [sp, #52]
 284              	.L7:
 285              		.loc 1 190 0 is_stmt 0 discriminator 1
ARM GAS  /tmp/ccakcsKX.s 			page 6


 286 01c8 0D9B     		ldr	r3, [sp, #52]
 287 01ca 0E2B     		cmp	r3, #14
 288 01cc A9D9     		bls	.L8
 289              		.loc 1 203 0 is_stmt 1
 290 01ce 0B9B     		ldr	r3, [sp, #44]
 291 01d0 1F68     		ldr	r7, [r3]
 292 01d2 0B9E     		ldr	r6, [sp, #44]
 293 01d4 6C46     		mov	r4, sp
 294 01d6 06F11005 		add	r5, r6, #16
 295 01da 0FCD     		ldmia	r5!, {r0, r1, r2, r3}
 296 01dc 0FC4     		stmia	r4!, {r0, r1, r2, r3}
 297 01de 0FCD     		ldmia	r5!, {r0, r1, r2, r3}
 298 01e0 0FC4     		stmia	r4!, {r0, r1, r2, r3}
 299 01e2 95E80300 		ldmia	r5, {r0, r1}
 300 01e6 84E80300 		stmia	r4, {r0, r1}
 301 01ea 331D     		adds	r3, r6, #4
 302 01ec 0ECB     		ldmia	r3, {r1, r2, r3}
 303 01ee 3846     		mov	r0, r7
 304 01f0 FFF7FEFF 		bl	USB_DevInit
 305              		.loc 1 205 0
 306 01f4 0B9B     		ldr	r3, [sp, #44]
 307 01f6 0022     		movs	r2, #0
 308 01f8 83F83820 		strb	r2, [r3, #56]
 309              		.loc 1 207 0
 310 01fc 0B9B     		ldr	r3, [sp, #44]
 311 01fe 0122     		movs	r2, #1
 312 0200 83F88523 		strb	r2, [r3, #901]
 313              		.loc 1 210 0
 314 0204 0B9B     		ldr	r3, [sp, #44]
 315 0206 5B6A     		ldr	r3, [r3, #36]
 316 0208 012B     		cmp	r3, #1
 317 020a 02D1     		bne	.L9
 318              		.loc 1 212 0
 319 020c 0B98     		ldr	r0, [sp, #44]
 320 020e FFF7FEFF 		bl	HAL_PCDEx_ActivateLPM
 321              	.L9:
 322              		.loc 1 215 0
 323 0212 0B9B     		ldr	r3, [sp, #44]
 324 0214 9B6A     		ldr	r3, [r3, #40]
 325 0216 012B     		cmp	r3, #1
 326 0218 02D1     		bne	.L10
 327              		.loc 1 217 0
 328 021a 0B98     		ldr	r0, [sp, #44]
 329 021c FFF7FEFF 		bl	HAL_PCDEx_ActivateBCD
 330              	.L10:
 331              		.loc 1 219 0
 332 0220 0B9B     		ldr	r3, [sp, #44]
 333 0222 1B68     		ldr	r3, [r3]
 334 0224 1846     		mov	r0, r3
 335 0226 FFF7FEFF 		bl	USB_DevDisconnect
 336              		.loc 1 220 0
 337 022a 0023     		movs	r3, #0
 338              	.L3:
 339              		.loc 1 221 0
 340 022c 1846     		mov	r0, r3
 341 022e 0FB0     		add	sp, sp, #60
 342              		@ sp needed
ARM GAS  /tmp/ccakcsKX.s 			page 7


 343 0230 F0BD     		pop	{r4, r5, r6, r7, pc}
 344              		.cfi_endproc
 345              	.LFE125:
 346              		.size	HAL_PCD_Init, .-HAL_PCD_Init
 347 0232 00BF     		.align	2
 348 0234 AFF30080 		.p2align 4,,15
 348      AFF30080 
 348      AFF30080 
 349              		.global	HAL_PCD_DeInit
 350              		.thumb
 351              		.thumb_func
 352              		.type	HAL_PCD_DeInit, %function
 353              	HAL_PCD_DeInit:
 354              	.LFB126:
 355              		.loc 1 229 0
 356              		.cfi_startproc
 357              		@ args = 0, pretend = 0, frame = 8
 358              		@ frame_needed = 0, uses_anonymous_args = 0
 359 0240 00B5     		push	{lr}
 360              		.cfi_def_cfa_offset 4
 361              		.cfi_offset 14, -4
 362 0242 83B0     		sub	sp, sp, #12
 363              		.cfi_def_cfa_offset 16
 364 0244 0190     		str	r0, [sp, #4]
 365              		.loc 1 231 0
 366 0246 019B     		ldr	r3, [sp, #4]
 367 0248 002B     		cmp	r3, #0
 368 024a 01D1     		bne	.L12
 369              		.loc 1 233 0
 370 024c 0123     		movs	r3, #1
 371 024e 0EE0     		b	.L13
 372              	.L12:
 373              		.loc 1 236 0
 374 0250 019B     		ldr	r3, [sp, #4]
 375 0252 0322     		movs	r2, #3
 376 0254 83F88523 		strb	r2, [r3, #901]
 377              		.loc 1 239 0
 378 0258 0198     		ldr	r0, [sp, #4]
 379 025a FFF7FEFF 		bl	HAL_PCD_Stop
 380              		.loc 1 242 0
 381 025e 0198     		ldr	r0, [sp, #4]
 382 0260 FFF7FEFF 		bl	HAL_PCD_MspDeInit
 383              		.loc 1 244 0
 384 0264 019B     		ldr	r3, [sp, #4]
 385 0266 0022     		movs	r2, #0
 386 0268 83F88523 		strb	r2, [r3, #901]
 387              		.loc 1 246 0
 388 026c 0023     		movs	r3, #0
 389              	.L13:
 390              		.loc 1 247 0
 391 026e 1846     		mov	r0, r3
 392 0270 03B0     		add	sp, sp, #12
 393              		@ sp needed
 394 0272 5DF804FB 		ldr	pc, [sp], #4
 395              		.cfi_endproc
 396              	.LFE126:
 397              		.size	HAL_PCD_DeInit, .-HAL_PCD_DeInit
ARM GAS  /tmp/ccakcsKX.s 			page 8


 398 0276 00BF     		.align	2
 399 0278 AFF30080 		.p2align 4,,15
 399      AFF30080 
 400              		.weak	HAL_PCD_MspInit
 401              		.thumb
 402              		.thumb_func
 403              		.type	HAL_PCD_MspInit, %function
 404              	HAL_PCD_MspInit:
 405              	.LFB127:
 406              		.loc 1 255 0
 407              		.cfi_startproc
 408              		@ args = 0, pretend = 0, frame = 8
 409              		@ frame_needed = 0, uses_anonymous_args = 0
 410              		@ link register save eliminated.
 411 0280 82B0     		sub	sp, sp, #8
 412              		.cfi_def_cfa_offset 8
 413 0282 0190     		str	r0, [sp, #4]
 414              		.loc 1 262 0
 415 0284 02B0     		add	sp, sp, #8
 416              		@ sp needed
 417 0286 7047     		bx	lr
 418              		.cfi_endproc
 419              	.LFE127:
 420              		.size	HAL_PCD_MspInit, .-HAL_PCD_MspInit
 421              		.align	2
 422 0288 AFF30080 		.p2align 4,,15
 422      AFF30080 
 423              		.weak	HAL_PCD_MspDeInit
 424              		.thumb
 425              		.thumb_func
 426              		.type	HAL_PCD_MspDeInit, %function
 427              	HAL_PCD_MspDeInit:
 428              	.LFB128:
 429              		.loc 1 270 0
 430              		.cfi_startproc
 431              		@ args = 0, pretend = 0, frame = 8
 432              		@ frame_needed = 0, uses_anonymous_args = 0
 433              		@ link register save eliminated.
 434 0290 82B0     		sub	sp, sp, #8
 435              		.cfi_def_cfa_offset 8
 436 0292 0190     		str	r0, [sp, #4]
 437              		.loc 1 277 0
 438 0294 02B0     		add	sp, sp, #8
 439              		@ sp needed
 440 0296 7047     		bx	lr
 441              		.cfi_endproc
 442              	.LFE128:
 443              		.size	HAL_PCD_MspDeInit, .-HAL_PCD_MspDeInit
 444              		.align	2
 445 0298 AFF30080 		.p2align 4,,15
 445      AFF30080 
 446              		.global	HAL_PCD_Start
 447              		.thumb
 448              		.thumb_func
 449              		.type	HAL_PCD_Start, %function
 450              	HAL_PCD_Start:
 451              	.LFB129:
ARM GAS  /tmp/ccakcsKX.s 			page 9


 452              		.loc 1 304 0
 453              		.cfi_startproc
 454              		@ args = 0, pretend = 0, frame = 8
 455              		@ frame_needed = 0, uses_anonymous_args = 0
 456 02a0 00B5     		push	{lr}
 457              		.cfi_def_cfa_offset 4
 458              		.cfi_offset 14, -4
 459 02a2 83B0     		sub	sp, sp, #12
 460              		.cfi_def_cfa_offset 16
 461 02a4 0190     		str	r0, [sp, #4]
 462              		.loc 1 305 0
 463 02a6 019B     		ldr	r3, [sp, #4]
 464 02a8 93F88433 		ldrb	r3, [r3, #900]	@ zero_extendqisi2
 465 02ac 012B     		cmp	r3, #1
 466 02ae 01D1     		bne	.L17
 467              		.loc 1 305 0 is_stmt 0 discriminator 1
 468 02b0 0223     		movs	r3, #2
 469 02b2 12E0     		b	.L18
 470              	.L17:
 471              		.loc 1 305 0 discriminator 2
 472 02b4 019B     		ldr	r3, [sp, #4]
 473 02b6 0122     		movs	r2, #1
 474 02b8 83F88423 		strb	r2, [r3, #900]
 475              		.loc 1 306 0 is_stmt 1 discriminator 2
 476 02bc 019B     		ldr	r3, [sp, #4]
 477 02be 1B68     		ldr	r3, [r3]
 478 02c0 1846     		mov	r0, r3
 479 02c2 FFF7FEFF 		bl	USB_DevConnect
 480              		.loc 1 307 0 discriminator 2
 481 02c6 019B     		ldr	r3, [sp, #4]
 482 02c8 1B68     		ldr	r3, [r3]
 483 02ca 1846     		mov	r0, r3
 484 02cc FFF7FEFF 		bl	USB_EnableGlobalInt
 485              		.loc 1 308 0 discriminator 2
 486 02d0 019B     		ldr	r3, [sp, #4]
 487 02d2 0022     		movs	r2, #0
 488 02d4 83F88423 		strb	r2, [r3, #900]
 489              		.loc 1 309 0 discriminator 2
 490 02d8 0023     		movs	r3, #0
 491              	.L18:
 492              		.loc 1 310 0
 493 02da 1846     		mov	r0, r3
 494 02dc 03B0     		add	sp, sp, #12
 495              		@ sp needed
 496 02de 5DF804FB 		ldr	pc, [sp], #4
 497              		.cfi_endproc
 498              	.LFE129:
 499              		.size	HAL_PCD_Start, .-HAL_PCD_Start
 500 02e2 00BF     		.align	2
 501 02e4 AFF30080 		.p2align 4,,15
 501      AFF30080 
 501      AFF30080 
 502              		.global	HAL_PCD_Stop
 503              		.thumb
 504              		.thumb_func
 505              		.type	HAL_PCD_Stop, %function
 506              	HAL_PCD_Stop:
ARM GAS  /tmp/ccakcsKX.s 			page 10


 507              	.LFB130:
 508              		.loc 1 318 0
 509              		.cfi_startproc
 510              		@ args = 0, pretend = 0, frame = 8
 511              		@ frame_needed = 0, uses_anonymous_args = 0
 512 02f0 00B5     		push	{lr}
 513              		.cfi_def_cfa_offset 4
 514              		.cfi_offset 14, -4
 515 02f2 83B0     		sub	sp, sp, #12
 516              		.cfi_def_cfa_offset 16
 517 02f4 0190     		str	r0, [sp, #4]
 518              		.loc 1 319 0
 519 02f6 019B     		ldr	r3, [sp, #4]
 520 02f8 93F88433 		ldrb	r3, [r3, #900]	@ zero_extendqisi2
 521 02fc 012B     		cmp	r3, #1
 522 02fe 01D1     		bne	.L20
 523              		.loc 1 319 0 is_stmt 0 discriminator 1
 524 0300 0223     		movs	r3, #2
 525 0302 17E0     		b	.L21
 526              	.L20:
 527              		.loc 1 319 0 discriminator 2
 528 0304 019B     		ldr	r3, [sp, #4]
 529 0306 0122     		movs	r2, #1
 530 0308 83F88423 		strb	r2, [r3, #900]
 531              		.loc 1 320 0 is_stmt 1 discriminator 2
 532 030c 019B     		ldr	r3, [sp, #4]
 533 030e 1B68     		ldr	r3, [r3]
 534 0310 1846     		mov	r0, r3
 535 0312 FFF7FEFF 		bl	USB_DisableGlobalInt
 536              		.loc 1 321 0 discriminator 2
 537 0316 019B     		ldr	r3, [sp, #4]
 538 0318 1B68     		ldr	r3, [r3]
 539 031a 1846     		mov	r0, r3
 540 031c FFF7FEFF 		bl	USB_StopDevice
 541              		.loc 1 322 0 discriminator 2
 542 0320 019B     		ldr	r3, [sp, #4]
 543 0322 1B68     		ldr	r3, [r3]
 544 0324 1846     		mov	r0, r3
 545 0326 FFF7FEFF 		bl	USB_DevDisconnect
 546              		.loc 1 323 0 discriminator 2
 547 032a 019B     		ldr	r3, [sp, #4]
 548 032c 0022     		movs	r2, #0
 549 032e 83F88423 		strb	r2, [r3, #900]
 550              		.loc 1 324 0 discriminator 2
 551 0332 0023     		movs	r3, #0
 552              	.L21:
 553              		.loc 1 325 0
 554 0334 1846     		mov	r0, r3
 555 0336 03B0     		add	sp, sp, #12
 556              		@ sp needed
 557 0338 5DF804FB 		ldr	pc, [sp], #4
 558              		.cfi_endproc
 559              	.LFE130:
 560              		.size	HAL_PCD_Stop, .-HAL_PCD_Stop
 561              		.align	2
 562 033c AFF30080 		.p2align 4,,15
 563              		.global	HAL_PCD_IRQHandler
ARM GAS  /tmp/ccakcsKX.s 			page 11


 564              		.thumb
 565              		.thumb_func
 566              		.type	HAL_PCD_IRQHandler, %function
 567              	HAL_PCD_IRQHandler:
 568              	.LFB131:
 569              		.loc 1 333 0
 570              		.cfi_startproc
 571              		@ args = 0, pretend = 0, frame = 48
 572              		@ frame_needed = 0, uses_anonymous_args = 0
 573 0340 00B5     		push	{lr}
 574              		.cfi_def_cfa_offset 4
 575              		.cfi_offset 14, -4
 576 0342 8DB0     		sub	sp, sp, #52
 577              		.cfi_def_cfa_offset 56
 578 0344 0190     		str	r0, [sp, #4]
 579              		.loc 1 334 0
 580 0346 019B     		ldr	r3, [sp, #4]
 581 0348 1B68     		ldr	r3, [r3]
 582 034a 0893     		str	r3, [sp, #32]
 583              		.loc 1 335 0
 584 034c 0023     		movs	r3, #0
 585 034e 0B93     		str	r3, [sp, #44]
 586 0350 0023     		movs	r3, #0
 587 0352 0A93     		str	r3, [sp, #40]
 588 0354 0023     		movs	r3, #0
 589 0356 0793     		str	r3, [sp, #28]
 590 0358 0023     		movs	r3, #0
 591 035a 0993     		str	r3, [sp, #36]
 592              		.loc 1 336 0
 593 035c 0023     		movs	r3, #0
 594 035e 0693     		str	r3, [sp, #24]
 595 0360 0023     		movs	r3, #0
 596 0362 0593     		str	r3, [sp, #20]
 597              		.loc 1 337 0
 598 0364 0023     		movs	r3, #0
 599 0366 0493     		str	r3, [sp, #16]
 600              		.loc 1 338 0
 601 0368 854B     		ldr	r3, .L76
 602 036a 0393     		str	r3, [sp, #12]
 603              		.loc 1 341 0
 604 036c 019B     		ldr	r3, [sp, #4]
 605 036e 1B68     		ldr	r3, [r3]
 606 0370 1846     		mov	r0, r3
 607 0372 FFF7FEFF 		bl	USB_GetMode
 608 0376 0346     		mov	r3, r0
 609 0378 002B     		cmp	r3, #0
 610 037a 40F08984 		bne	.L22
 611              		.loc 1 344 0
 612 037e 019B     		ldr	r3, [sp, #4]
 613 0380 1B68     		ldr	r3, [r3]
 614 0382 1846     		mov	r0, r3
 615 0384 FFF7FEFF 		bl	USB_ReadInterrupts
 616 0388 0346     		mov	r3, r0
 617 038a 002B     		cmp	r3, #0
 618 038c 01D1     		bne	.L24
 619              		.loc 1 346 0
 620 038e 00F07FBC 		b	.L22
ARM GAS  /tmp/ccakcsKX.s 			page 12


 621              	.L24:
 622              		.loc 1 349 0
 623 0392 019B     		ldr	r3, [sp, #4]
 624 0394 1B68     		ldr	r3, [r3]
 625 0396 1846     		mov	r0, r3
 626 0398 FFF7FEFF 		bl	USB_ReadInterrupts
 627 039c 0346     		mov	r3, r0
 628 039e 03F00203 		and	r3, r3, #2
 629 03a2 002B     		cmp	r3, #0
 630 03a4 07D0     		beq	.L25
 631              		.loc 1 352 0
 632 03a6 019B     		ldr	r3, [sp, #4]
 633 03a8 1B68     		ldr	r3, [r3]
 634 03aa 019A     		ldr	r2, [sp, #4]
 635 03ac 1268     		ldr	r2, [r2]
 636 03ae 5269     		ldr	r2, [r2, #20]
 637 03b0 02F00202 		and	r2, r2, #2
 638 03b4 5A61     		str	r2, [r3, #20]
 639              	.L25:
 640              		.loc 1 355 0
 641 03b6 019B     		ldr	r3, [sp, #4]
 642 03b8 1B68     		ldr	r3, [r3]
 643 03ba 1846     		mov	r0, r3
 644 03bc FFF7FEFF 		bl	USB_ReadInterrupts
 645 03c0 0346     		mov	r3, r0
 646 03c2 03F40023 		and	r3, r3, #524288
 647 03c6 002B     		cmp	r3, #0
 648 03c8 00F0C680 		beq	.L26
 649              		.loc 1 357 0
 650 03cc 0023     		movs	r3, #0
 651 03ce 0993     		str	r3, [sp, #36]
 652              		.loc 1 360 0
 653 03d0 019B     		ldr	r3, [sp, #4]
 654 03d2 1B68     		ldr	r3, [r3]
 655 03d4 1846     		mov	r0, r3
 656 03d6 FFF7FEFF 		bl	USB_ReadDevAllOutEpInterrupt
 657 03da 0A90     		str	r0, [sp, #40]
 658              		.loc 1 362 0
 659 03dc B8E0     		b	.L27
 660              	.L33:
 661              		.loc 1 364 0
 662 03de 0A9B     		ldr	r3, [sp, #40]
 663 03e0 03F00103 		and	r3, r3, #1
 664 03e4 002B     		cmp	r3, #0
 665 03e6 00F0AD80 		beq	.L28
 666              		.loc 1 366 0
 667 03ea 019B     		ldr	r3, [sp, #4]
 668 03ec 1A68     		ldr	r2, [r3]
 669 03ee 099B     		ldr	r3, [sp, #36]
 670 03f0 DBB2     		uxtb	r3, r3
 671 03f2 1046     		mov	r0, r2
 672 03f4 1946     		mov	r1, r3
 673 03f6 FFF7FEFF 		bl	USB_ReadDevOutEPInterrupt
 674 03fa 0790     		str	r0, [sp, #28]
 675              		.loc 1 368 0
 676 03fc 079B     		ldr	r3, [sp, #28]
 677 03fe 03F00103 		and	r3, r3, #1
ARM GAS  /tmp/ccakcsKX.s 			page 13


 678 0402 002B     		cmp	r3, #0
 679 0404 00F08180 		beq	.L29
 680              		.loc 1 370 0
 681 0408 099B     		ldr	r3, [sp, #36]
 682 040a 5A01     		lsls	r2, r3, #5
 683 040c 089B     		ldr	r3, [sp, #32]
 684 040e 1344     		add	r3, r3, r2
 685 0410 03F53063 		add	r3, r3, #2816
 686 0414 0122     		movs	r2, #1
 687 0416 9A60     		str	r2, [r3, #8]
 688              		.loc 1 372 0
 689 0418 089B     		ldr	r3, [sp, #32]
 690 041a 03F53063 		add	r3, r3, #2816
 691 041e 9B68     		ldr	r3, [r3, #8]
 692 0420 03F40043 		and	r3, r3, #32768
 693 0424 002B     		cmp	r3, #0
 694 0426 63D1     		bne	.L30
 695              		.loc 1 375 0
 696 0428 019B     		ldr	r3, [sp, #4]
 697 042a 1B69     		ldr	r3, [r3, #16]
 698 042c 012B     		cmp	r3, #1
 699 042e 3CD1     		bne	.L31
 700              		.loc 1 377 0
 701 0430 0199     		ldr	r1, [sp, #4]
 702 0432 099A     		ldr	r2, [sp, #36]
 703 0434 1346     		mov	r3, r2
 704 0436 DB00     		lsls	r3, r3, #3
 705 0438 9B1A     		subs	r3, r3, r2
 706 043a 9B00     		lsls	r3, r3, #2
 707 043c 0B44     		add	r3, r3, r1
 708 043e 03F5F473 		add	r3, r3, #488
 709 0442 1A68     		ldr	r2, [r3]
 710 0444 099B     		ldr	r3, [sp, #36]
 711 0446 5901     		lsls	r1, r3, #5
 712 0448 089B     		ldr	r3, [sp, #32]
 713 044a 0B44     		add	r3, r3, r1
 714 044c 03F53063 		add	r3, r3, #2816
 715 0450 1B69     		ldr	r3, [r3, #16]
 716 0452 C3F31203 		ubfx	r3, r3, #0, #19
 717 0456 D11A     		subs	r1, r2, r3
 718 0458 0198     		ldr	r0, [sp, #4]
 719 045a 099A     		ldr	r2, [sp, #36]
 720 045c 1346     		mov	r3, r2
 721 045e DB00     		lsls	r3, r3, #3
 722 0460 9B1A     		subs	r3, r3, r2
 723 0462 9B00     		lsls	r3, r3, #2
 724 0464 0344     		add	r3, r3, r0
 725 0466 03F5FC73 		add	r3, r3, #504
 726 046a 1960     		str	r1, [r3]
 727              		.loc 1 378 0
 728 046c 0199     		ldr	r1, [sp, #4]
 729 046e 099A     		ldr	r2, [sp, #36]
 730 0470 1346     		mov	r3, r2
 731 0472 DB00     		lsls	r3, r3, #3
 732 0474 9B1A     		subs	r3, r3, r2
 733 0476 9B00     		lsls	r3, r3, #2
 734 0478 0B44     		add	r3, r3, r1
ARM GAS  /tmp/ccakcsKX.s 			page 14


 735 047a 03F5F473 		add	r3, r3, #488
 736 047e 5968     		ldr	r1, [r3, #4]
 737 0480 0198     		ldr	r0, [sp, #4]
 738 0482 099A     		ldr	r2, [sp, #36]
 739 0484 1346     		mov	r3, r2
 740 0486 DB00     		lsls	r3, r3, #3
 741 0488 9B1A     		subs	r3, r3, r2
 742 048a 9B00     		lsls	r3, r3, #2
 743 048c 0344     		add	r3, r3, r0
 744 048e 03F5F473 		add	r3, r3, #488
 745 0492 1B68     		ldr	r3, [r3]
 746 0494 1944     		add	r1, r1, r3
 747 0496 0198     		ldr	r0, [sp, #4]
 748 0498 099A     		ldr	r2, [sp, #36]
 749 049a 1346     		mov	r3, r2
 750 049c DB00     		lsls	r3, r3, #3
 751 049e 9B1A     		subs	r3, r3, r2
 752 04a0 9B00     		lsls	r3, r3, #2
 753 04a2 0344     		add	r3, r3, r0
 754 04a4 03F5F473 		add	r3, r3, #488
 755 04a8 5960     		str	r1, [r3, #4]
 756              	.L31:
 757              		.loc 1 381 0
 758 04aa 099B     		ldr	r3, [sp, #36]
 759 04ac DBB2     		uxtb	r3, r3
 760 04ae 0198     		ldr	r0, [sp, #4]
 761 04b0 1946     		mov	r1, r3
 762 04b2 FFF7FEFF 		bl	HAL_PCD_DataOutStageCallback
 763              		.loc 1 383 0
 764 04b6 019B     		ldr	r3, [sp, #4]
 765 04b8 1B69     		ldr	r3, [r3, #16]
 766 04ba 012B     		cmp	r3, #1
 767 04bc 18D1     		bne	.L30
 768              		.loc 1 385 0
 769 04be 099B     		ldr	r3, [sp, #36]
 770 04c0 002B     		cmp	r3, #0
 771 04c2 15D1     		bne	.L30
 772              		.loc 1 385 0 is_stmt 0 discriminator 1
 773 04c4 0199     		ldr	r1, [sp, #4]
 774 04c6 099A     		ldr	r2, [sp, #36]
 775 04c8 1346     		mov	r3, r2
 776 04ca DB00     		lsls	r3, r3, #3
 777 04cc 9B1A     		subs	r3, r3, r2
 778 04ce 9B00     		lsls	r3, r3, #2
 779 04d0 0B44     		add	r3, r3, r1
 780 04d2 03F5F873 		add	r3, r3, #496
 781 04d6 5B68     		ldr	r3, [r3, #4]
 782 04d8 002B     		cmp	r3, #0
 783 04da 09D1     		bne	.L30
 784              		.loc 1 388 0 is_stmt 1
 785 04dc 019B     		ldr	r3, [sp, #4]
 786 04de 1A68     		ldr	r2, [r3]
 787 04e0 019B     		ldr	r3, [sp, #4]
 788 04e2 03F56273 		add	r3, r3, #904
 789 04e6 1046     		mov	r0, r2
 790 04e8 0121     		movs	r1, #1
 791 04ea 1A46     		mov	r2, r3
ARM GAS  /tmp/ccakcsKX.s 			page 15


 792 04ec FFF7FEFF 		bl	USB_EP0_OutStart
 793              	.L30:
 794              		.loc 1 393 0
 795 04f0 089B     		ldr	r3, [sp, #32]
 796 04f2 03F53063 		add	r3, r3, #2816
 797 04f6 1A46     		mov	r2, r3
 798 04f8 089B     		ldr	r3, [sp, #32]
 799 04fa 03F53063 		add	r3, r3, #2816
 800 04fe 9B68     		ldr	r3, [r3, #8]
 801 0500 43F40043 		orr	r3, r3, #32768
 802 0504 43F02003 		orr	r3, r3, #32
 803 0508 9360     		str	r3, [r2, #8]
 804              	.L29:
 805              		.loc 1 396 0
 806 050a 079B     		ldr	r3, [sp, #28]
 807 050c 03F00803 		and	r3, r3, #8
 808 0510 002B     		cmp	r3, #0
 809 0512 0AD0     		beq	.L32
 810              		.loc 1 399 0
 811 0514 0198     		ldr	r0, [sp, #4]
 812 0516 FFF7FEFF 		bl	HAL_PCD_SetupStageCallback
 813              		.loc 1 400 0
 814 051a 099B     		ldr	r3, [sp, #36]
 815 051c 5A01     		lsls	r2, r3, #5
 816 051e 089B     		ldr	r3, [sp, #32]
 817 0520 1344     		add	r3, r3, r2
 818 0522 03F53063 		add	r3, r3, #2816
 819 0526 0822     		movs	r2, #8
 820 0528 9A60     		str	r2, [r3, #8]
 821              	.L32:
 822              		.loc 1 403 0
 823 052a 079B     		ldr	r3, [sp, #28]
 824 052c 03F01003 		and	r3, r3, #16
 825 0530 002B     		cmp	r3, #0
 826 0532 07D0     		beq	.L28
 827              		.loc 1 405 0
 828 0534 099B     		ldr	r3, [sp, #36]
 829 0536 5A01     		lsls	r2, r3, #5
 830 0538 089B     		ldr	r3, [sp, #32]
 831 053a 1344     		add	r3, r3, r2
 832 053c 03F53063 		add	r3, r3, #2816
 833 0540 1022     		movs	r2, #16
 834 0542 9A60     		str	r2, [r3, #8]
 835              	.L28:
 836              		.loc 1 408 0
 837 0544 099B     		ldr	r3, [sp, #36]
 838 0546 0133     		adds	r3, r3, #1
 839 0548 0993     		str	r3, [sp, #36]
 840              		.loc 1 409 0
 841 054a 0A9B     		ldr	r3, [sp, #40]
 842 054c 5B08     		lsrs	r3, r3, #1
 843 054e 0A93     		str	r3, [sp, #40]
 844              	.L27:
 845              		.loc 1 362 0 discriminator 1
 846 0550 0A9B     		ldr	r3, [sp, #40]
 847 0552 002B     		cmp	r3, #0
 848 0554 7FF443AF 		bne	.L33
ARM GAS  /tmp/ccakcsKX.s 			page 16


 849              	.L26:
 850              		.loc 1 413 0
 851 0558 019B     		ldr	r3, [sp, #4]
 852 055a 1B68     		ldr	r3, [r3]
 853 055c 1846     		mov	r0, r3
 854 055e FFF7FEFF 		bl	USB_ReadInterrupts
 855 0562 0346     		mov	r3, r0
 856 0564 03F48023 		and	r3, r3, #262144
 857 0568 002B     		cmp	r3, #0
 858 056a 00F0C080 		beq	.L34
 859              		.loc 1 416 0
 860 056e 019B     		ldr	r3, [sp, #4]
 861 0570 1B68     		ldr	r3, [r3]
 862 0572 1846     		mov	r0, r3
 863 0574 FFF7FEFF 		bl	USB_ReadDevAllInEpInterrupt
 864 0578 0A90     		str	r0, [sp, #40]
 865              		.loc 1 418 0
 866 057a 0023     		movs	r3, #0
 867 057c 0993     		str	r3, [sp, #36]
 868              		.loc 1 420 0
 869 057e B2E0     		b	.L35
 870              	.L77:
 871              		.align	2
 872              	.L76:
 873 0580 00B4C404 		.word	80000000
 874              	.L43:
 875              		.loc 1 422 0
 876 0584 0A9B     		ldr	r3, [sp, #40]
 877 0586 03F00103 		and	r3, r3, #1
 878 058a 002B     		cmp	r3, #0
 879 058c 00F0A580 		beq	.L36
 880              		.loc 1 424 0
 881 0590 019B     		ldr	r3, [sp, #4]
 882 0592 1A68     		ldr	r2, [r3]
 883 0594 099B     		ldr	r3, [sp, #36]
 884 0596 DBB2     		uxtb	r3, r3
 885 0598 1046     		mov	r0, r2
 886 059a 1946     		mov	r1, r3
 887 059c FFF7FEFF 		bl	USB_ReadDevInEPInterrupt
 888 05a0 0790     		str	r0, [sp, #28]
 889              		.loc 1 426 0
 890 05a2 079B     		ldr	r3, [sp, #28]
 891 05a4 03F00103 		and	r3, r3, #1
 892 05a8 002B     		cmp	r3, #0
 893 05aa 59D0     		beq	.L37
 894              		.loc 1 428 0
 895 05ac 099B     		ldr	r3, [sp, #36]
 896 05ae 0122     		movs	r2, #1
 897 05b0 02FA03F3 		lsl	r3, r2, r3
 898 05b4 0693     		str	r3, [sp, #24]
 899              		.loc 1 429 0
 900 05b6 089B     		ldr	r3, [sp, #32]
 901 05b8 03F50063 		add	r3, r3, #2048
 902 05bc 089A     		ldr	r2, [sp, #32]
 903 05be 02F50062 		add	r2, r2, #2048
 904 05c2 516B     		ldr	r1, [r2, #52]
 905 05c4 069A     		ldr	r2, [sp, #24]
ARM GAS  /tmp/ccakcsKX.s 			page 17


 906 05c6 D243     		mvns	r2, r2
 907 05c8 0A40     		ands	r2, r2, r1
 908 05ca 5A63     		str	r2, [r3, #52]
 909              		.loc 1 431 0
 910 05cc 099B     		ldr	r3, [sp, #36]
 911 05ce 5A01     		lsls	r2, r3, #5
 912 05d0 089B     		ldr	r3, [sp, #32]
 913 05d2 1344     		add	r3, r3, r2
 914 05d4 03F51063 		add	r3, r3, #2304
 915 05d8 0122     		movs	r2, #1
 916 05da 9A60     		str	r2, [r3, #8]
 917              		.loc 1 433 0
 918 05dc 019B     		ldr	r3, [sp, #4]
 919 05de 1B69     		ldr	r3, [r3, #16]
 920 05e0 012B     		cmp	r3, #1
 921 05e2 1BD1     		bne	.L38
 922              		.loc 1 435 0
 923 05e4 0199     		ldr	r1, [sp, #4]
 924 05e6 099A     		ldr	r2, [sp, #36]
 925 05e8 1346     		mov	r3, r2
 926 05ea DB00     		lsls	r3, r3, #3
 927 05ec 9B1A     		subs	r3, r3, r2
 928 05ee 9B00     		lsls	r3, r3, #2
 929 05f0 0B44     		add	r3, r3, r1
 930 05f2 4033     		adds	r3, r3, #64
 931 05f4 9968     		ldr	r1, [r3, #8]
 932 05f6 0198     		ldr	r0, [sp, #4]
 933 05f8 099A     		ldr	r2, [sp, #36]
 934 05fa 1346     		mov	r3, r2
 935 05fc DB00     		lsls	r3, r3, #3
 936 05fe 9B1A     		subs	r3, r3, r2
 937 0600 9B00     		lsls	r3, r3, #2
 938 0602 0344     		add	r3, r3, r0
 939 0604 4033     		adds	r3, r3, #64
 940 0606 5B68     		ldr	r3, [r3, #4]
 941 0608 1944     		add	r1, r1, r3
 942 060a 0198     		ldr	r0, [sp, #4]
 943 060c 099A     		ldr	r2, [sp, #36]
 944 060e 1346     		mov	r3, r2
 945 0610 DB00     		lsls	r3, r3, #3
 946 0612 9B1A     		subs	r3, r3, r2
 947 0614 9B00     		lsls	r3, r3, #2
 948 0616 0344     		add	r3, r3, r0
 949 0618 4033     		adds	r3, r3, #64
 950 061a 9960     		str	r1, [r3, #8]
 951              	.L38:
 952              		.loc 1 438 0
 953 061c 099B     		ldr	r3, [sp, #36]
 954 061e DBB2     		uxtb	r3, r3
 955 0620 0198     		ldr	r0, [sp, #4]
 956 0622 1946     		mov	r1, r3
 957 0624 FFF7FEFF 		bl	HAL_PCD_DataInStageCallback
 958              		.loc 1 440 0
 959 0628 019B     		ldr	r3, [sp, #4]
 960 062a 1B69     		ldr	r3, [r3, #16]
 961 062c 012B     		cmp	r3, #1
 962 062e 17D1     		bne	.L37
ARM GAS  /tmp/ccakcsKX.s 			page 18


 963              		.loc 1 443 0
 964 0630 099B     		ldr	r3, [sp, #36]
 965 0632 002B     		cmp	r3, #0
 966 0634 14D1     		bne	.L37
 967              		.loc 1 443 0 is_stmt 0 discriminator 1
 968 0636 0199     		ldr	r1, [sp, #4]
 969 0638 099A     		ldr	r2, [sp, #36]
 970 063a 1346     		mov	r3, r2
 971 063c DB00     		lsls	r3, r3, #3
 972 063e 9B1A     		subs	r3, r3, r2
 973 0640 9B00     		lsls	r3, r3, #2
 974 0642 0B44     		add	r3, r3, r1
 975 0644 4833     		adds	r3, r3, #72
 976 0646 9B68     		ldr	r3, [r3, #8]
 977 0648 002B     		cmp	r3, #0
 978 064a 09D1     		bne	.L37
 979              		.loc 1 446 0 is_stmt 1
 980 064c 019B     		ldr	r3, [sp, #4]
 981 064e 1A68     		ldr	r2, [r3]
 982 0650 019B     		ldr	r3, [sp, #4]
 983 0652 03F56273 		add	r3, r3, #904
 984 0656 1046     		mov	r0, r2
 985 0658 0121     		movs	r1, #1
 986 065a 1A46     		mov	r2, r3
 987 065c FFF7FEFF 		bl	USB_EP0_OutStart
 988              	.L37:
 989              		.loc 1 450 0
 990 0660 079B     		ldr	r3, [sp, #28]
 991 0662 03F00803 		and	r3, r3, #8
 992 0666 002B     		cmp	r3, #0
 993 0668 07D0     		beq	.L39
 994              		.loc 1 452 0
 995 066a 099B     		ldr	r3, [sp, #36]
 996 066c 5A01     		lsls	r2, r3, #5
 997 066e 089B     		ldr	r3, [sp, #32]
 998 0670 1344     		add	r3, r3, r2
 999 0672 03F51063 		add	r3, r3, #2304
 1000 0676 0822     		movs	r2, #8
 1001 0678 9A60     		str	r2, [r3, #8]
 1002              	.L39:
 1003              		.loc 1 454 0
 1004 067a 079B     		ldr	r3, [sp, #28]
 1005 067c 03F01003 		and	r3, r3, #16
 1006 0680 002B     		cmp	r3, #0
 1007 0682 07D0     		beq	.L40
 1008              		.loc 1 456 0
 1009 0684 099B     		ldr	r3, [sp, #36]
 1010 0686 5A01     		lsls	r2, r3, #5
 1011 0688 089B     		ldr	r3, [sp, #32]
 1012 068a 1344     		add	r3, r3, r2
 1013 068c 03F51063 		add	r3, r3, #2304
 1014 0690 1022     		movs	r2, #16
 1015 0692 9A60     		str	r2, [r3, #8]
 1016              	.L40:
 1017              		.loc 1 458 0
 1018 0694 079B     		ldr	r3, [sp, #28]
 1019 0696 03F04003 		and	r3, r3, #64
ARM GAS  /tmp/ccakcsKX.s 			page 19


 1020 069a 002B     		cmp	r3, #0
 1021 069c 07D0     		beq	.L41
 1022              		.loc 1 460 0
 1023 069e 099B     		ldr	r3, [sp, #36]
 1024 06a0 5A01     		lsls	r2, r3, #5
 1025 06a2 089B     		ldr	r3, [sp, #32]
 1026 06a4 1344     		add	r3, r3, r2
 1027 06a6 03F51063 		add	r3, r3, #2304
 1028 06aa 4022     		movs	r2, #64
 1029 06ac 9A60     		str	r2, [r3, #8]
 1030              	.L41:
 1031              		.loc 1 462 0
 1032 06ae 079B     		ldr	r3, [sp, #28]
 1033 06b0 03F00203 		and	r3, r3, #2
 1034 06b4 002B     		cmp	r3, #0
 1035 06b6 07D0     		beq	.L42
 1036              		.loc 1 464 0
 1037 06b8 099B     		ldr	r3, [sp, #36]
 1038 06ba 5A01     		lsls	r2, r3, #5
 1039 06bc 089B     		ldr	r3, [sp, #32]
 1040 06be 1344     		add	r3, r3, r2
 1041 06c0 03F51063 		add	r3, r3, #2304
 1042 06c4 0222     		movs	r2, #2
 1043 06c6 9A60     		str	r2, [r3, #8]
 1044              	.L42:
 1045              		.loc 1 466 0
 1046 06c8 079B     		ldr	r3, [sp, #28]
 1047 06ca 03F08003 		and	r3, r3, #128
 1048 06ce 002B     		cmp	r3, #0
 1049 06d0 03D0     		beq	.L36
 1050              		.loc 1 468 0
 1051 06d2 0198     		ldr	r0, [sp, #4]
 1052 06d4 0999     		ldr	r1, [sp, #36]
 1053 06d6 00F04BFE 		bl	PCD_WriteEmptyTxFifo
 1054              	.L36:
 1055              		.loc 1 471 0
 1056 06da 099B     		ldr	r3, [sp, #36]
 1057 06dc 0133     		adds	r3, r3, #1
 1058 06de 0993     		str	r3, [sp, #36]
 1059              		.loc 1 472 0
 1060 06e0 0A9B     		ldr	r3, [sp, #40]
 1061 06e2 5B08     		lsrs	r3, r3, #1
 1062 06e4 0A93     		str	r3, [sp, #40]
 1063              	.L35:
 1064              		.loc 1 420 0 discriminator 1
 1065 06e6 0A9B     		ldr	r3, [sp, #40]
 1066 06e8 002B     		cmp	r3, #0
 1067 06ea 7FF44BAF 		bne	.L43
 1068              	.L34:
 1069              		.loc 1 477 0
 1070 06ee 019B     		ldr	r3, [sp, #4]
 1071 06f0 1B68     		ldr	r3, [r3]
 1072 06f2 1846     		mov	r0, r3
 1073 06f4 FFF7FEFF 		bl	USB_ReadInterrupts
 1074 06f8 0346     		mov	r3, r0
 1075 06fa 002B     		cmp	r3, #0
 1076 06fc 22DA     		bge	.L44
ARM GAS  /tmp/ccakcsKX.s 			page 20


 1077              		.loc 1 480 0
 1078 06fe 089B     		ldr	r3, [sp, #32]
 1079 0700 03F50063 		add	r3, r3, #2048
 1080 0704 089A     		ldr	r2, [sp, #32]
 1081 0706 02F50062 		add	r2, r2, #2048
 1082 070a 5268     		ldr	r2, [r2, #4]
 1083 070c 22F00102 		bic	r2, r2, #1
 1084 0710 5A60     		str	r2, [r3, #4]
 1085              		.loc 1 482 0
 1086 0712 019B     		ldr	r3, [sp, #4]
 1087 0714 93F8B833 		ldrb	r3, [r3, #952]	@ zero_extendqisi2
 1088 0718 012B     		cmp	r3, #1
 1089 071a 08D1     		bne	.L45
 1090              		.loc 1 484 0
 1091 071c 019B     		ldr	r3, [sp, #4]
 1092 071e 0022     		movs	r2, #0
 1093 0720 83F8B823 		strb	r2, [r3, #952]
 1094              		.loc 1 485 0
 1095 0724 0198     		ldr	r0, [sp, #4]
 1096 0726 0021     		movs	r1, #0
 1097 0728 FFF7FEFF 		bl	HAL_PCDEx_LPM_Callback
 1098 072c 02E0     		b	.L46
 1099              	.L45:
 1100              		.loc 1 489 0
 1101 072e 0198     		ldr	r0, [sp, #4]
 1102 0730 FFF7FEFF 		bl	HAL_PCD_ResumeCallback
 1103              	.L46:
 1104              		.loc 1 492 0
 1105 0734 019B     		ldr	r3, [sp, #4]
 1106 0736 1B68     		ldr	r3, [r3]
 1107 0738 019A     		ldr	r2, [sp, #4]
 1108 073a 1268     		ldr	r2, [r2]
 1109 073c 5269     		ldr	r2, [r2, #20]
 1110 073e 02F00042 		and	r2, r2, #-2147483648
 1111 0742 5A61     		str	r2, [r3, #20]
 1112              	.L44:
 1113              		.loc 1 496 0
 1114 0744 019B     		ldr	r3, [sp, #4]
 1115 0746 1B68     		ldr	r3, [r3]
 1116 0748 1846     		mov	r0, r3
 1117 074a FFF7FEFF 		bl	USB_ReadInterrupts
 1118 074e 0346     		mov	r3, r0
 1119 0750 03F40063 		and	r3, r3, #2048
 1120 0754 002B     		cmp	r3, #0
 1121 0756 12D0     		beq	.L47
 1122              		.loc 1 498 0
 1123 0758 089B     		ldr	r3, [sp, #32]
 1124 075a 03F50063 		add	r3, r3, #2048
 1125 075e 9B68     		ldr	r3, [r3, #8]
 1126 0760 03F00103 		and	r3, r3, #1
 1127 0764 002B     		cmp	r3, #0
 1128 0766 02D0     		beq	.L48
 1129              		.loc 1 501 0
 1130 0768 0198     		ldr	r0, [sp, #4]
 1131 076a FFF7FEFF 		bl	HAL_PCD_SuspendCallback
 1132              	.L48:
 1133              		.loc 1 503 0
ARM GAS  /tmp/ccakcsKX.s 			page 21


 1134 076e 019B     		ldr	r3, [sp, #4]
 1135 0770 1B68     		ldr	r3, [r3]
 1136 0772 019A     		ldr	r2, [sp, #4]
 1137 0774 1268     		ldr	r2, [r2]
 1138 0776 5269     		ldr	r2, [r2, #20]
 1139 0778 02F40062 		and	r2, r2, #2048
 1140 077c 5A61     		str	r2, [r3, #20]
 1141              	.L47:
 1142              		.loc 1 507 0
 1143 077e 019B     		ldr	r3, [sp, #4]
 1144 0780 1B68     		ldr	r3, [r3]
 1145 0782 1846     		mov	r0, r3
 1146 0784 FFF7FEFF 		bl	USB_ReadInterrupts
 1147 0788 0346     		mov	r3, r0
 1148 078a 03F00063 		and	r3, r3, #134217728
 1149 078e 002B     		cmp	r3, #0
 1150 0790 21D0     		beq	.L49
 1151              		.loc 1 509 0
 1152 0792 019B     		ldr	r3, [sp, #4]
 1153 0794 1B68     		ldr	r3, [r3]
 1154 0796 019A     		ldr	r2, [sp, #4]
 1155 0798 1268     		ldr	r2, [r2]
 1156 079a 5269     		ldr	r2, [r2, #20]
 1157 079c 02F00062 		and	r2, r2, #134217728
 1158 07a0 5A61     		str	r2, [r3, #20]
 1159              		.loc 1 510 0
 1160 07a2 019B     		ldr	r3, [sp, #4]
 1161 07a4 93F8B833 		ldrb	r3, [r3, #952]	@ zero_extendqisi2
 1162 07a8 002B     		cmp	r3, #0
 1163 07aa 11D1     		bne	.L50
 1164              		.loc 1 512 0
 1165 07ac 019B     		ldr	r3, [sp, #4]
 1166 07ae 0122     		movs	r2, #1
 1167 07b0 83F8B823 		strb	r2, [r3, #952]
 1168              		.loc 1 513 0
 1169 07b4 019B     		ldr	r3, [sp, #4]
 1170 07b6 1B68     		ldr	r3, [r3]
 1171 07b8 5B6D     		ldr	r3, [r3, #84]
 1172 07ba 03F03C03 		and	r3, r3, #60
 1173 07be 9A08     		lsrs	r2, r3, #2
 1174 07c0 019B     		ldr	r3, [sp, #4]
 1175 07c2 C3F8BC23 		str	r2, [r3, #956]
 1176              		.loc 1 514 0
 1177 07c6 0198     		ldr	r0, [sp, #4]
 1178 07c8 0121     		movs	r1, #1
 1179 07ca FFF7FEFF 		bl	HAL_PCDEx_LPM_Callback
 1180 07ce 02E0     		b	.L49
 1181              	.L50:
 1182              		.loc 1 518 0
 1183 07d0 0198     		ldr	r0, [sp, #4]
 1184 07d2 FFF7FEFF 		bl	HAL_PCD_SuspendCallback
 1185              	.L49:
 1186              		.loc 1 523 0
 1187 07d6 019B     		ldr	r3, [sp, #4]
 1188 07d8 1B68     		ldr	r3, [r3]
 1189 07da 1846     		mov	r0, r3
 1190 07dc FFF7FEFF 		bl	USB_ReadInterrupts
ARM GAS  /tmp/ccakcsKX.s 			page 22


 1191 07e0 0346     		mov	r3, r0
 1192 07e2 03F48053 		and	r3, r3, #4096
 1193 07e6 002B     		cmp	r3, #0
 1194 07e8 00F08980 		beq	.L51
 1195              		.loc 1 525 0
 1196 07ec 089B     		ldr	r3, [sp, #32]
 1197 07ee 03F50063 		add	r3, r3, #2048
 1198 07f2 089A     		ldr	r2, [sp, #32]
 1199 07f4 02F50062 		add	r2, r2, #2048
 1200 07f8 5268     		ldr	r2, [r2, #4]
 1201 07fa 22F00102 		bic	r2, r2, #1
 1202 07fe 5A60     		str	r2, [r3, #4]
 1203              		.loc 1 526 0
 1204 0800 019B     		ldr	r3, [sp, #4]
 1205 0802 1B68     		ldr	r3, [r3]
 1206 0804 1846     		mov	r0, r3
 1207 0806 0021     		movs	r1, #0
 1208 0808 FFF7FEFF 		bl	USB_FlushTxFifo
 1209              		.loc 1 528 0
 1210 080c 0023     		movs	r3, #0
 1211 080e 0B93     		str	r3, [sp, #44]
 1212 0810 12E0     		b	.L52
 1213              	.L53:
 1214              		.loc 1 530 0 discriminator 2
 1215 0812 0B9B     		ldr	r3, [sp, #44]
 1216 0814 5A01     		lsls	r2, r3, #5
 1217 0816 089B     		ldr	r3, [sp, #32]
 1218 0818 1344     		add	r3, r3, r2
 1219 081a 03F51063 		add	r3, r3, #2304
 1220 081e FF22     		movs	r2, #255
 1221 0820 9A60     		str	r2, [r3, #8]
 1222              		.loc 1 531 0 discriminator 2
 1223 0822 0B9B     		ldr	r3, [sp, #44]
 1224 0824 5A01     		lsls	r2, r3, #5
 1225 0826 089B     		ldr	r3, [sp, #32]
 1226 0828 1344     		add	r3, r3, r2
 1227 082a 03F53063 		add	r3, r3, #2816
 1228 082e FF22     		movs	r2, #255
 1229 0830 9A60     		str	r2, [r3, #8]
 1230              		.loc 1 528 0 discriminator 2
 1231 0832 0B9B     		ldr	r3, [sp, #44]
 1232 0834 0133     		adds	r3, r3, #1
 1233 0836 0B93     		str	r3, [sp, #44]
 1234              	.L52:
 1235              		.loc 1 528 0 is_stmt 0 discriminator 1
 1236 0838 019B     		ldr	r3, [sp, #4]
 1237 083a 5A68     		ldr	r2, [r3, #4]
 1238 083c 0B9B     		ldr	r3, [sp, #44]
 1239 083e 9A42     		cmp	r2, r3
 1240 0840 E7D8     		bhi	.L53
 1241              		.loc 1 533 0 is_stmt 1
 1242 0842 089B     		ldr	r3, [sp, #32]
 1243 0844 03F50063 		add	r3, r3, #2048
 1244 0848 4FF0FF32 		mov	r2, #-1
 1245 084c 9A61     		str	r2, [r3, #24]
 1246              		.loc 1 534 0
 1247 084e 089B     		ldr	r3, [sp, #32]
ARM GAS  /tmp/ccakcsKX.s 			page 23


 1248 0850 03F50063 		add	r3, r3, #2048
 1249 0854 089A     		ldr	r2, [sp, #32]
 1250 0856 02F50062 		add	r2, r2, #2048
 1251 085a D269     		ldr	r2, [r2, #28]
 1252 085c 42F00112 		orr	r2, r2, #65537
 1253 0860 DA61     		str	r2, [r3, #28]
 1254              		.loc 1 536 0
 1255 0862 019B     		ldr	r3, [sp, #4]
 1256 0864 1B6B     		ldr	r3, [r3, #48]
 1257 0866 002B     		cmp	r3, #0
 1258 0868 16D0     		beq	.L54
 1259              		.loc 1 538 0
 1260 086a 089B     		ldr	r3, [sp, #32]
 1261 086c 03F50063 		add	r3, r3, #2048
 1262 0870 089A     		ldr	r2, [sp, #32]
 1263 0872 02F50062 		add	r2, r2, #2048
 1264 0876 D2F88420 		ldr	r2, [r2, #132]
 1265 087a 42F00B02 		orr	r2, r2, #11
 1266 087e C3F88420 		str	r2, [r3, #132]
 1267              		.loc 1 539 0
 1268 0882 089B     		ldr	r3, [sp, #32]
 1269 0884 03F50063 		add	r3, r3, #2048
 1270 0888 089A     		ldr	r2, [sp, #32]
 1271 088a 02F50062 		add	r2, r2, #2048
 1272 088e 526C     		ldr	r2, [r2, #68]
 1273 0890 42F00B02 		orr	r2, r2, #11
 1274 0894 5A64     		str	r2, [r3, #68]
 1275 0896 13E0     		b	.L55
 1276              	.L54:
 1277              		.loc 1 543 0
 1278 0898 089B     		ldr	r3, [sp, #32]
 1279 089a 03F50063 		add	r3, r3, #2048
 1280 089e 089A     		ldr	r2, [sp, #32]
 1281 08a0 02F50062 		add	r2, r2, #2048
 1282 08a4 5269     		ldr	r2, [r2, #20]
 1283 08a6 42F00B02 		orr	r2, r2, #11
 1284 08aa 5A61     		str	r2, [r3, #20]
 1285              		.loc 1 544 0
 1286 08ac 089B     		ldr	r3, [sp, #32]
 1287 08ae 03F50063 		add	r3, r3, #2048
 1288 08b2 089A     		ldr	r2, [sp, #32]
 1289 08b4 02F50062 		add	r2, r2, #2048
 1290 08b8 1269     		ldr	r2, [r2, #16]
 1291 08ba 42F00B02 		orr	r2, r2, #11
 1292 08be 1A61     		str	r2, [r3, #16]
 1293              	.L55:
 1294              		.loc 1 548 0
 1295 08c0 089B     		ldr	r3, [sp, #32]
 1296 08c2 03F50063 		add	r3, r3, #2048
 1297 08c6 089A     		ldr	r2, [sp, #32]
 1298 08c8 02F50062 		add	r2, r2, #2048
 1299 08cc 1268     		ldr	r2, [r2]
 1300 08ce 22F4FE62 		bic	r2, r2, #2032
 1301 08d2 1A60     		str	r2, [r3]
 1302              		.loc 1 551 0
 1303 08d4 019B     		ldr	r3, [sp, #4]
 1304 08d6 1968     		ldr	r1, [r3]
ARM GAS  /tmp/ccakcsKX.s 			page 24


 1305 08d8 019B     		ldr	r3, [sp, #4]
 1306 08da 1B69     		ldr	r3, [r3, #16]
 1307 08dc DAB2     		uxtb	r2, r3
 1308 08de 019B     		ldr	r3, [sp, #4]
 1309 08e0 03F56273 		add	r3, r3, #904
 1310 08e4 0846     		mov	r0, r1
 1311 08e6 1146     		mov	r1, r2
 1312 08e8 1A46     		mov	r2, r3
 1313 08ea FFF7FEFF 		bl	USB_EP0_OutStart
 1314              		.loc 1 553 0
 1315 08ee 019B     		ldr	r3, [sp, #4]
 1316 08f0 1B68     		ldr	r3, [r3]
 1317 08f2 019A     		ldr	r2, [sp, #4]
 1318 08f4 1268     		ldr	r2, [r2]
 1319 08f6 5269     		ldr	r2, [r2, #20]
 1320 08f8 02F48052 		and	r2, r2, #4096
 1321 08fc 5A61     		str	r2, [r3, #20]
 1322              	.L51:
 1323              		.loc 1 557 0
 1324 08fe 019B     		ldr	r3, [sp, #4]
 1325 0900 1B68     		ldr	r3, [r3]
 1326 0902 1846     		mov	r0, r3
 1327 0904 FFF7FEFF 		bl	USB_ReadInterrupts
 1328 0908 0346     		mov	r3, r0
 1329 090a 03F40053 		and	r3, r3, #8192
 1330 090e 002B     		cmp	r3, #0
 1331 0910 00F0C280 		beq	.L56
 1332              		.loc 1 559 0
 1333 0914 019B     		ldr	r3, [sp, #4]
 1334 0916 1B68     		ldr	r3, [r3]
 1335 0918 1846     		mov	r0, r3
 1336 091a FFF7FEFF 		bl	USB_ActivateSetup
 1337              		.loc 1 560 0
 1338 091e 019B     		ldr	r3, [sp, #4]
 1339 0920 1B68     		ldr	r3, [r3]
 1340 0922 019A     		ldr	r2, [sp, #4]
 1341 0924 1268     		ldr	r2, [r2]
 1342 0926 D268     		ldr	r2, [r2, #12]
 1343 0928 22F47052 		bic	r2, r2, #15360
 1344 092c DA60     		str	r2, [r3, #12]
 1345              		.loc 1 562 0
 1346 092e 019B     		ldr	r3, [sp, #4]
 1347 0930 0322     		movs	r2, #3
 1348 0932 DA60     		str	r2, [r3, #12]
 1349              		.loc 1 563 0
 1350 0934 019B     		ldr	r3, [sp, #4]
 1351 0936 4022     		movs	r2, #64
 1352 0938 5A61     		str	r2, [r3, #20]
 1353              		.loc 1 571 0
 1354 093a FFF7FEFF 		bl	HAL_RCC_GetHCLKFreq
 1355 093e 0390     		str	r0, [sp, #12]
 1356              		.loc 1 573 0
 1357 0940 039A     		ldr	r2, [sp, #12]
 1358 0942 7D4B     		ldr	r3, .L78
 1359 0944 9A42     		cmp	r2, r3
 1360 0946 0CD9     		bls	.L57
 1361              		.loc 1 573 0 is_stmt 0 discriminator 1
ARM GAS  /tmp/ccakcsKX.s 			page 25


 1362 0948 039A     		ldr	r2, [sp, #12]
 1363 094a 7C4B     		ldr	r3, .L78+4
 1364 094c 9A42     		cmp	r2, r3
 1365 094e 08D8     		bhi	.L57
 1366              		.loc 1 576 0 is_stmt 1
 1367 0950 019B     		ldr	r3, [sp, #4]
 1368 0952 1B68     		ldr	r3, [r3]
 1369 0954 019A     		ldr	r2, [sp, #4]
 1370 0956 1268     		ldr	r2, [r2]
 1371 0958 D268     		ldr	r2, [r2, #12]
 1372 095a 42F47052 		orr	r2, r2, #15360
 1373 095e DA60     		str	r2, [r3, #12]
 1374 0960 8FE0     		b	.L58
 1375              	.L57:
 1376              		.loc 1 579 0
 1377 0962 039A     		ldr	r2, [sp, #12]
 1378 0964 754B     		ldr	r3, .L78+4
 1379 0966 9A42     		cmp	r2, r3
 1380 0968 0CD9     		bls	.L59
 1381              		.loc 1 579 0 is_stmt 0 discriminator 1
 1382 096a 039A     		ldr	r2, [sp, #12]
 1383 096c 744B     		ldr	r3, .L78+8
 1384 096e 9A42     		cmp	r2, r3
 1385 0970 08D8     		bhi	.L59
 1386              		.loc 1 582 0 is_stmt 1
 1387 0972 019B     		ldr	r3, [sp, #4]
 1388 0974 1B68     		ldr	r3, [r3]
 1389 0976 019A     		ldr	r2, [sp, #4]
 1390 0978 1268     		ldr	r2, [r2]
 1391 097a D268     		ldr	r2, [r2, #12]
 1392 097c 42F46052 		orr	r2, r2, #14336
 1393 0980 DA60     		str	r2, [r3, #12]
 1394 0982 7EE0     		b	.L58
 1395              	.L59:
 1396              		.loc 1 585 0
 1397 0984 039A     		ldr	r2, [sp, #12]
 1398 0986 6E4B     		ldr	r3, .L78+8
 1399 0988 9A42     		cmp	r2, r3
 1400 098a 0CD9     		bls	.L60
 1401              		.loc 1 585 0 is_stmt 0 discriminator 1
 1402 098c 039A     		ldr	r2, [sp, #12]
 1403 098e 6D4B     		ldr	r3, .L78+12
 1404 0990 9A42     		cmp	r2, r3
 1405 0992 08D8     		bhi	.L60
 1406              		.loc 1 588 0 is_stmt 1
 1407 0994 019B     		ldr	r3, [sp, #4]
 1408 0996 1B68     		ldr	r3, [r3]
 1409 0998 019A     		ldr	r2, [sp, #4]
 1410 099a 1268     		ldr	r2, [r2]
 1411 099c D268     		ldr	r2, [r2, #12]
 1412 099e 42F45052 		orr	r2, r2, #13312
 1413 09a2 DA60     		str	r2, [r3, #12]
 1414 09a4 6DE0     		b	.L58
 1415              	.L60:
 1416              		.loc 1 591 0
 1417 09a6 039A     		ldr	r2, [sp, #12]
 1418 09a8 664B     		ldr	r3, .L78+12
ARM GAS  /tmp/ccakcsKX.s 			page 26


 1419 09aa 9A42     		cmp	r2, r3
 1420 09ac 0CD9     		bls	.L61
 1421              		.loc 1 591 0 is_stmt 0 discriminator 1
 1422 09ae 039A     		ldr	r2, [sp, #12]
 1423 09b0 654B     		ldr	r3, .L78+16
 1424 09b2 9A42     		cmp	r2, r3
 1425 09b4 08D8     		bhi	.L61
 1426              		.loc 1 594 0 is_stmt 1
 1427 09b6 019B     		ldr	r3, [sp, #4]
 1428 09b8 1B68     		ldr	r3, [r3]
 1429 09ba 019A     		ldr	r2, [sp, #4]
 1430 09bc 1268     		ldr	r2, [r2]
 1431 09be D268     		ldr	r2, [r2, #12]
 1432 09c0 42F44052 		orr	r2, r2, #12288
 1433 09c4 DA60     		str	r2, [r3, #12]
 1434 09c6 5CE0     		b	.L58
 1435              	.L61:
 1436              		.loc 1 597 0
 1437 09c8 039A     		ldr	r2, [sp, #12]
 1438 09ca 5F4B     		ldr	r3, .L78+16
 1439 09cc 9A42     		cmp	r2, r3
 1440 09ce 0CD9     		bls	.L62
 1441              		.loc 1 597 0 is_stmt 0 discriminator 1
 1442 09d0 039A     		ldr	r2, [sp, #12]
 1443 09d2 5E4B     		ldr	r3, .L78+20
 1444 09d4 9A42     		cmp	r2, r3
 1445 09d6 08D8     		bhi	.L62
 1446              		.loc 1 600 0 is_stmt 1
 1447 09d8 019B     		ldr	r3, [sp, #4]
 1448 09da 1B68     		ldr	r3, [r3]
 1449 09dc 019A     		ldr	r2, [sp, #4]
 1450 09de 1268     		ldr	r2, [r2]
 1451 09e0 D268     		ldr	r2, [r2, #12]
 1452 09e2 42F43052 		orr	r2, r2, #11264
 1453 09e6 DA60     		str	r2, [r3, #12]
 1454 09e8 4BE0     		b	.L58
 1455              	.L62:
 1456              		.loc 1 603 0
 1457 09ea 039A     		ldr	r2, [sp, #12]
 1458 09ec 574B     		ldr	r3, .L78+20
 1459 09ee 9A42     		cmp	r2, r3
 1460 09f0 0CD9     		bls	.L63
 1461              		.loc 1 603 0 is_stmt 0 discriminator 1
 1462 09f2 039A     		ldr	r2, [sp, #12]
 1463 09f4 564B     		ldr	r3, .L78+24
 1464 09f6 9A42     		cmp	r2, r3
 1465 09f8 08D8     		bhi	.L63
 1466              		.loc 1 606 0 is_stmt 1
 1467 09fa 019B     		ldr	r3, [sp, #4]
 1468 09fc 1B68     		ldr	r3, [r3]
 1469 09fe 019A     		ldr	r2, [sp, #4]
 1470 0a00 1268     		ldr	r2, [r2]
 1471 0a02 D268     		ldr	r2, [r2, #12]
 1472 0a04 42F42052 		orr	r2, r2, #10240
 1473 0a08 DA60     		str	r2, [r3, #12]
 1474 0a0a 3AE0     		b	.L58
 1475              	.L63:
ARM GAS  /tmp/ccakcsKX.s 			page 27


 1476              		.loc 1 609 0
 1477 0a0c 039A     		ldr	r2, [sp, #12]
 1478 0a0e 504B     		ldr	r3, .L78+24
 1479 0a10 9A42     		cmp	r2, r3
 1480 0a12 0CD9     		bls	.L64
 1481              		.loc 1 609 0 is_stmt 0 discriminator 1
 1482 0a14 039A     		ldr	r2, [sp, #12]
 1483 0a16 4F4B     		ldr	r3, .L78+28
 1484 0a18 9A42     		cmp	r2, r3
 1485 0a1a 08D8     		bhi	.L64
 1486              		.loc 1 612 0 is_stmt 1
 1487 0a1c 019B     		ldr	r3, [sp, #4]
 1488 0a1e 1B68     		ldr	r3, [r3]
 1489 0a20 019A     		ldr	r2, [sp, #4]
 1490 0a22 1268     		ldr	r2, [r2]
 1491 0a24 D268     		ldr	r2, [r2, #12]
 1492 0a26 42F41052 		orr	r2, r2, #9216
 1493 0a2a DA60     		str	r2, [r3, #12]
 1494 0a2c 29E0     		b	.L58
 1495              	.L64:
 1496              		.loc 1 615 0
 1497 0a2e 039A     		ldr	r2, [sp, #12]
 1498 0a30 484B     		ldr	r3, .L78+28
 1499 0a32 9A42     		cmp	r2, r3
 1500 0a34 0CD9     		bls	.L65
 1501              		.loc 1 615 0 is_stmt 0 discriminator 1
 1502 0a36 039A     		ldr	r2, [sp, #12]
 1503 0a38 474B     		ldr	r3, .L78+32
 1504 0a3a 9A42     		cmp	r2, r3
 1505 0a3c 08D8     		bhi	.L65
 1506              		.loc 1 618 0 is_stmt 1
 1507 0a3e 019B     		ldr	r3, [sp, #4]
 1508 0a40 1B68     		ldr	r3, [r3]
 1509 0a42 019A     		ldr	r2, [sp, #4]
 1510 0a44 1268     		ldr	r2, [r2]
 1511 0a46 D268     		ldr	r2, [r2, #12]
 1512 0a48 42F40052 		orr	r2, r2, #8192
 1513 0a4c DA60     		str	r2, [r3, #12]
 1514 0a4e 18E0     		b	.L58
 1515              	.L65:
 1516              		.loc 1 621 0
 1517 0a50 039A     		ldr	r2, [sp, #12]
 1518 0a52 414B     		ldr	r3, .L78+32
 1519 0a54 9A42     		cmp	r2, r3
 1520 0a56 0CD9     		bls	.L66
 1521              		.loc 1 621 0 is_stmt 0 discriminator 1
 1522 0a58 039A     		ldr	r2, [sp, #12]
 1523 0a5a 404B     		ldr	r3, .L78+36
 1524 0a5c 9A42     		cmp	r2, r3
 1525 0a5e 08D8     		bhi	.L66
 1526              		.loc 1 624 0 is_stmt 1
 1527 0a60 019B     		ldr	r3, [sp, #4]
 1528 0a62 1B68     		ldr	r3, [r3]
 1529 0a64 019A     		ldr	r2, [sp, #4]
 1530 0a66 1268     		ldr	r2, [r2]
 1531 0a68 D268     		ldr	r2, [r2, #12]
 1532 0a6a 42F4E052 		orr	r2, r2, #7168
ARM GAS  /tmp/ccakcsKX.s 			page 28


 1533 0a6e DA60     		str	r2, [r3, #12]
 1534 0a70 07E0     		b	.L58
 1535              	.L66:
 1536              		.loc 1 630 0
 1537 0a72 019B     		ldr	r3, [sp, #4]
 1538 0a74 1B68     		ldr	r3, [r3]
 1539 0a76 019A     		ldr	r2, [sp, #4]
 1540 0a78 1268     		ldr	r2, [r2]
 1541 0a7a D268     		ldr	r2, [r2, #12]
 1542 0a7c 42F4C052 		orr	r2, r2, #6144
 1543 0a80 DA60     		str	r2, [r3, #12]
 1544              	.L58:
 1545              		.loc 1 633 0
 1546 0a82 0198     		ldr	r0, [sp, #4]
 1547 0a84 FFF7FEFF 		bl	HAL_PCD_ResetCallback
 1548              		.loc 1 635 0
 1549 0a88 019B     		ldr	r3, [sp, #4]
 1550 0a8a 1B68     		ldr	r3, [r3]
 1551 0a8c 019A     		ldr	r2, [sp, #4]
 1552 0a8e 1268     		ldr	r2, [r2]
 1553 0a90 5269     		ldr	r2, [r2, #20]
 1554 0a92 02F40052 		and	r2, r2, #8192
 1555 0a96 5A61     		str	r2, [r3, #20]
 1556              	.L56:
 1557              		.loc 1 639 0
 1558 0a98 019B     		ldr	r3, [sp, #4]
 1559 0a9a 1B68     		ldr	r3, [r3]
 1560 0a9c 1846     		mov	r0, r3
 1561 0a9e FFF7FEFF 		bl	USB_ReadInterrupts
 1562 0aa2 0346     		mov	r3, r0
 1563 0aa4 03F01003 		and	r3, r3, #16
 1564 0aa8 002B     		cmp	r3, #0
 1565 0aaa 79D0     		beq	.L67
 1566              		.loc 1 641 0
 1567 0aac 019B     		ldr	r3, [sp, #4]
 1568 0aae 1B68     		ldr	r3, [r3]
 1569 0ab0 019A     		ldr	r2, [sp, #4]
 1570 0ab2 1268     		ldr	r2, [r2]
 1571 0ab4 9269     		ldr	r2, [r2, #24]
 1572 0ab6 22F01002 		bic	r2, r2, #16
 1573 0aba 9A61     		str	r2, [r3, #24]
 1574              		.loc 1 643 0
 1575 0abc 089B     		ldr	r3, [sp, #32]
 1576 0abe 1B6A     		ldr	r3, [r3, #32]
 1577 0ac0 0593     		str	r3, [sp, #20]
 1578              		.loc 1 645 0
 1579 0ac2 059B     		ldr	r3, [sp, #20]
 1580 0ac4 03F00F02 		and	r2, r3, #15
 1581 0ac8 1346     		mov	r3, r2
 1582 0aca DB00     		lsls	r3, r3, #3
 1583 0acc 9B1A     		subs	r3, r3, r2
 1584 0ace 9B00     		lsls	r3, r3, #2
 1585 0ad0 03F5F073 		add	r3, r3, #480
 1586 0ad4 019A     		ldr	r2, [sp, #4]
 1587 0ad6 1344     		add	r3, r3, r2
 1588 0ad8 0493     		str	r3, [sp, #16]
 1589              		.loc 1 647 0
ARM GAS  /tmp/ccakcsKX.s 			page 29


 1590 0ada 059B     		ldr	r3, [sp, #20]
 1591 0adc 03F4F013 		and	r3, r3, #1966080
 1592 0ae0 5B0C     		lsrs	r3, r3, #17
 1593 0ae2 022B     		cmp	r3, #2
 1594 0ae4 3CD1     		bne	.L68
 1595              		.loc 1 649 0
 1596 0ae6 059A     		ldr	r2, [sp, #20]
 1597 0ae8 47F6F073 		movw	r3, #32752
 1598 0aec 1340     		ands	r3, r3, r2
 1599 0aee 002B     		cmp	r3, #0
 1600 0af0 4ED0     		beq	.L70
 1601              		.loc 1 651 0
 1602 0af2 049B     		ldr	r3, [sp, #16]
 1603 0af4 DA68     		ldr	r2, [r3, #12]
 1604 0af6 0599     		ldr	r1, [sp, #20]
 1605 0af8 47F6F073 		movw	r3, #32752
 1606 0afc 0B40     		ands	r3, r3, r1
 1607 0afe 1B09     		lsrs	r3, r3, #4
 1608 0b00 9BB2     		uxth	r3, r3
 1609 0b02 0898     		ldr	r0, [sp, #32]
 1610 0b04 1146     		mov	r1, r2
 1611 0b06 1A46     		mov	r2, r3
 1612 0b08 FFF7FEFF 		bl	USB_ReadPacket
 1613              		.loc 1 652 0
 1614 0b0c 049B     		ldr	r3, [sp, #16]
 1615 0b0e DA68     		ldr	r2, [r3, #12]
 1616 0b10 0599     		ldr	r1, [sp, #20]
 1617 0b12 47F6F073 		movw	r3, #32752
 1618 0b16 0B40     		ands	r3, r3, r1
 1619 0b18 1B09     		lsrs	r3, r3, #4
 1620 0b1a 1A44     		add	r2, r2, r3
 1621 0b1c 049B     		ldr	r3, [sp, #16]
 1622 0b1e DA60     		str	r2, [r3, #12]
 1623              		.loc 1 653 0
 1624 0b20 049B     		ldr	r3, [sp, #16]
 1625 0b22 9A69     		ldr	r2, [r3, #24]
 1626 0b24 0599     		ldr	r1, [sp, #20]
 1627 0b26 47F6F073 		movw	r3, #32752
 1628 0b2a 0B40     		ands	r3, r3, r1
 1629 0b2c 1B09     		lsrs	r3, r3, #4
 1630 0b2e 1A44     		add	r2, r2, r3
 1631 0b30 049B     		ldr	r3, [sp, #16]
 1632 0b32 9A61     		str	r2, [r3, #24]
 1633 0b34 2CE0     		b	.L70
 1634              	.L79:
 1635 0b36 00BF     		.align	2
 1636              	.L78:
 1637 0b38 BFACD800 		.word	14199999
 1638 0b3c BFE1E400 		.word	14999999
 1639 0b40 FF23F400 		.word	15999999
 1640 0b44 7F730601 		.word	17199999
 1641 0b48 9F491A01 		.word	18499999
 1642 0b4c FF2C3101 		.word	19999999
 1643 0b50 3FA44C01 		.word	21799999
 1644 0b54 FF356E01 		.word	23999999
 1645 0b58 1FABA601 		.word	27699999
 1646 0b5c FF47E801 		.word	31999999
ARM GAS  /tmp/ccakcsKX.s 			page 30


 1647              	.L68:
 1648              		.loc 1 656 0
 1649 0b60 059B     		ldr	r3, [sp, #20]
 1650 0b62 03F4F013 		and	r3, r3, #1966080
 1651 0b66 5B0C     		lsrs	r3, r3, #17
 1652 0b68 062B     		cmp	r3, #6
 1653 0b6a 11D1     		bne	.L70
 1654              		.loc 1 658 0
 1655 0b6c 019B     		ldr	r3, [sp, #4]
 1656 0b6e 03F56273 		add	r3, r3, #904
 1657 0b72 0898     		ldr	r0, [sp, #32]
 1658 0b74 1946     		mov	r1, r3
 1659 0b76 0822     		movs	r2, #8
 1660 0b78 FFF7FEFF 		bl	USB_ReadPacket
 1661              		.loc 1 659 0
 1662 0b7c 049B     		ldr	r3, [sp, #16]
 1663 0b7e 9A69     		ldr	r2, [r3, #24]
 1664 0b80 0599     		ldr	r1, [sp, #20]
 1665 0b82 47F6F073 		movw	r3, #32752
 1666 0b86 0B40     		ands	r3, r3, r1
 1667 0b88 1B09     		lsrs	r3, r3, #4
 1668 0b8a 1A44     		add	r2, r2, r3
 1669 0b8c 049B     		ldr	r3, [sp, #16]
 1670 0b8e 9A61     		str	r2, [r3, #24]
 1671              	.L70:
 1672              		.loc 1 661 0
 1673 0b90 019B     		ldr	r3, [sp, #4]
 1674 0b92 1B68     		ldr	r3, [r3]
 1675 0b94 019A     		ldr	r2, [sp, #4]
 1676 0b96 1268     		ldr	r2, [r2]
 1677 0b98 9269     		ldr	r2, [r2, #24]
 1678 0b9a 42F01002 		orr	r2, r2, #16
 1679 0b9e 9A61     		str	r2, [r3, #24]
 1680              	.L67:
 1681              		.loc 1 665 0
 1682 0ba0 019B     		ldr	r3, [sp, #4]
 1683 0ba2 1B68     		ldr	r3, [r3]
 1684 0ba4 1846     		mov	r0, r3
 1685 0ba6 FFF7FEFF 		bl	USB_ReadInterrupts
 1686 0baa 0346     		mov	r3, r0
 1687 0bac 03F00803 		and	r3, r3, #8
 1688 0bb0 002B     		cmp	r3, #0
 1689 0bb2 0AD0     		beq	.L71
 1690              		.loc 1 667 0
 1691 0bb4 0198     		ldr	r0, [sp, #4]
 1692 0bb6 FFF7FEFF 		bl	HAL_PCD_SOFCallback
 1693              		.loc 1 668 0
 1694 0bba 019B     		ldr	r3, [sp, #4]
 1695 0bbc 1B68     		ldr	r3, [r3]
 1696 0bbe 019A     		ldr	r2, [sp, #4]
 1697 0bc0 1268     		ldr	r2, [r2]
 1698 0bc2 5269     		ldr	r2, [r2, #20]
 1699 0bc4 02F00802 		and	r2, r2, #8
 1700 0bc8 5A61     		str	r2, [r3, #20]
 1701              	.L71:
 1702              		.loc 1 672 0
 1703 0bca 019B     		ldr	r3, [sp, #4]
ARM GAS  /tmp/ccakcsKX.s 			page 31


 1704 0bcc 1B68     		ldr	r3, [r3]
 1705 0bce 1846     		mov	r0, r3
 1706 0bd0 FFF7FEFF 		bl	USB_ReadInterrupts
 1707 0bd4 0346     		mov	r3, r0
 1708 0bd6 03F48013 		and	r3, r3, #1048576
 1709 0bda 002B     		cmp	r3, #0
 1710 0bdc 0DD0     		beq	.L72
 1711              		.loc 1 674 0
 1712 0bde 099B     		ldr	r3, [sp, #36]
 1713 0be0 DBB2     		uxtb	r3, r3
 1714 0be2 0198     		ldr	r0, [sp, #4]
 1715 0be4 1946     		mov	r1, r3
 1716 0be6 FFF7FEFF 		bl	HAL_PCD_ISOINIncompleteCallback
 1717              		.loc 1 675 0
 1718 0bea 019B     		ldr	r3, [sp, #4]
 1719 0bec 1B68     		ldr	r3, [r3]
 1720 0bee 019A     		ldr	r2, [sp, #4]
 1721 0bf0 1268     		ldr	r2, [r2]
 1722 0bf2 5269     		ldr	r2, [r2, #20]
 1723 0bf4 02F48012 		and	r2, r2, #1048576
 1724 0bf8 5A61     		str	r2, [r3, #20]
 1725              	.L72:
 1726              		.loc 1 679 0
 1727 0bfa 019B     		ldr	r3, [sp, #4]
 1728 0bfc 1B68     		ldr	r3, [r3]
 1729 0bfe 1846     		mov	r0, r3
 1730 0c00 FFF7FEFF 		bl	USB_ReadInterrupts
 1731 0c04 0346     		mov	r3, r0
 1732 0c06 03F40013 		and	r3, r3, #2097152
 1733 0c0a 002B     		cmp	r3, #0
 1734 0c0c 0DD0     		beq	.L73
 1735              		.loc 1 681 0
 1736 0c0e 099B     		ldr	r3, [sp, #36]
 1737 0c10 DBB2     		uxtb	r3, r3
 1738 0c12 0198     		ldr	r0, [sp, #4]
 1739 0c14 1946     		mov	r1, r3
 1740 0c16 FFF7FEFF 		bl	HAL_PCD_ISOOUTIncompleteCallback
 1741              		.loc 1 682 0
 1742 0c1a 019B     		ldr	r3, [sp, #4]
 1743 0c1c 1B68     		ldr	r3, [r3]
 1744 0c1e 019A     		ldr	r2, [sp, #4]
 1745 0c20 1268     		ldr	r2, [r2]
 1746 0c22 5269     		ldr	r2, [r2, #20]
 1747 0c24 02F40012 		and	r2, r2, #2097152
 1748 0c28 5A61     		str	r2, [r3, #20]
 1749              	.L73:
 1750              		.loc 1 686 0
 1751 0c2a 019B     		ldr	r3, [sp, #4]
 1752 0c2c 1B68     		ldr	r3, [r3]
 1753 0c2e 1846     		mov	r0, r3
 1754 0c30 FFF7FEFF 		bl	USB_ReadInterrupts
 1755 0c34 0346     		mov	r3, r0
 1756 0c36 03F08043 		and	r3, r3, #1073741824
 1757 0c3a 002B     		cmp	r3, #0
 1758 0c3c 0AD0     		beq	.L74
 1759              		.loc 1 688 0
 1760 0c3e 0198     		ldr	r0, [sp, #4]
ARM GAS  /tmp/ccakcsKX.s 			page 32


 1761 0c40 FFF7FEFF 		bl	HAL_PCD_ConnectCallback
 1762              		.loc 1 689 0
 1763 0c44 019B     		ldr	r3, [sp, #4]
 1764 0c46 1B68     		ldr	r3, [r3]
 1765 0c48 019A     		ldr	r2, [sp, #4]
 1766 0c4a 1268     		ldr	r2, [r2]
 1767 0c4c 5269     		ldr	r2, [r2, #20]
 1768 0c4e 02F08042 		and	r2, r2, #1073741824
 1769 0c52 5A61     		str	r2, [r3, #20]
 1770              	.L74:
 1771              		.loc 1 693 0
 1772 0c54 019B     		ldr	r3, [sp, #4]
 1773 0c56 1B68     		ldr	r3, [r3]
 1774 0c58 1846     		mov	r0, r3
 1775 0c5a FFF7FEFF 		bl	USB_ReadInterrupts
 1776 0c5e 0346     		mov	r3, r0
 1777 0c60 03F00403 		and	r3, r3, #4
 1778 0c64 002B     		cmp	r3, #0
 1779 0c66 13D0     		beq	.L22
 1780              		.loc 1 695 0
 1781 0c68 019B     		ldr	r3, [sp, #4]
 1782 0c6a 1B68     		ldr	r3, [r3]
 1783 0c6c 5B68     		ldr	r3, [r3, #4]
 1784 0c6e 0593     		str	r3, [sp, #20]
 1785              		.loc 1 697 0
 1786 0c70 059B     		ldr	r3, [sp, #20]
 1787 0c72 03F00403 		and	r3, r3, #4
 1788 0c76 002B     		cmp	r3, #0
 1789 0c78 02D0     		beq	.L75
 1790              		.loc 1 699 0
 1791 0c7a 0198     		ldr	r0, [sp, #4]
 1792 0c7c FFF7FEFF 		bl	HAL_PCD_DisconnectCallback
 1793              	.L75:
 1794              		.loc 1 701 0
 1795 0c80 019B     		ldr	r3, [sp, #4]
 1796 0c82 1B68     		ldr	r3, [r3]
 1797 0c84 019A     		ldr	r2, [sp, #4]
 1798 0c86 1268     		ldr	r2, [r2]
 1799 0c88 5168     		ldr	r1, [r2, #4]
 1800 0c8a 059A     		ldr	r2, [sp, #20]
 1801 0c8c 0A43     		orrs	r2, r2, r1
 1802 0c8e 5A60     		str	r2, [r3, #4]
 1803              	.L22:
 1804              		.loc 1 704 0
 1805 0c90 0DB0     		add	sp, sp, #52
 1806              		@ sp needed
 1807 0c92 5DF804FB 		ldr	pc, [sp], #4
 1808              		.cfi_endproc
 1809              	.LFE131:
 1810              		.size	HAL_PCD_IRQHandler, .-HAL_PCD_IRQHandler
 1811 0c96 00BF     		.align	2
 1812 0c98 AFF30080 		.p2align 4,,15
 1812      AFF30080 
 1813              		.weak	HAL_PCD_DataOutStageCallback
 1814              		.thumb
 1815              		.thumb_func
 1816              		.type	HAL_PCD_DataOutStageCallback, %function
ARM GAS  /tmp/ccakcsKX.s 			page 33


 1817              	HAL_PCD_DataOutStageCallback:
 1818              	.LFB132:
 1819              		.loc 1 835 0
 1820              		.cfi_startproc
 1821              		@ args = 0, pretend = 0, frame = 8
 1822              		@ frame_needed = 0, uses_anonymous_args = 0
 1823              		@ link register save eliminated.
 1824 0ca0 82B0     		sub	sp, sp, #8
 1825              		.cfi_def_cfa_offset 8
 1826 0ca2 0190     		str	r0, [sp, #4]
 1827 0ca4 0B46     		mov	r3, r1
 1828 0ca6 8DF80330 		strb	r3, [sp, #3]
 1829              		.loc 1 843 0
 1830 0caa 02B0     		add	sp, sp, #8
 1831              		@ sp needed
 1832 0cac 7047     		bx	lr
 1833              		.cfi_endproc
 1834              	.LFE132:
 1835              		.size	HAL_PCD_DataOutStageCallback, .-HAL_PCD_DataOutStageCallback
 1836 0cae 00BF     		.align	2
 1837              		.p2align 4,,15
 1838              		.weak	HAL_PCD_DataInStageCallback
 1839              		.thumb
 1840              		.thumb_func
 1841              		.type	HAL_PCD_DataInStageCallback, %function
 1842              	HAL_PCD_DataInStageCallback:
 1843              	.LFB133:
 1844              		.loc 1 852 0
 1845              		.cfi_startproc
 1846              		@ args = 0, pretend = 0, frame = 8
 1847              		@ frame_needed = 0, uses_anonymous_args = 0
 1848              		@ link register save eliminated.
 1849 0cb0 82B0     		sub	sp, sp, #8
 1850              		.cfi_def_cfa_offset 8
 1851 0cb2 0190     		str	r0, [sp, #4]
 1852 0cb4 0B46     		mov	r3, r1
 1853 0cb6 8DF80330 		strb	r3, [sp, #3]
 1854              		.loc 1 860 0
 1855 0cba 02B0     		add	sp, sp, #8
 1856              		@ sp needed
 1857 0cbc 7047     		bx	lr
 1858              		.cfi_endproc
 1859              	.LFE133:
 1860              		.size	HAL_PCD_DataInStageCallback, .-HAL_PCD_DataInStageCallback
 1861 0cbe 00BF     		.align	2
 1862              		.p2align 4,,15
 1863              		.weak	HAL_PCD_SetupStageCallback
 1864              		.thumb
 1865              		.thumb_func
 1866              		.type	HAL_PCD_SetupStageCallback, %function
 1867              	HAL_PCD_SetupStageCallback:
 1868              	.LFB134:
 1869              		.loc 1 867 0
 1870              		.cfi_startproc
 1871              		@ args = 0, pretend = 0, frame = 8
 1872              		@ frame_needed = 0, uses_anonymous_args = 0
 1873              		@ link register save eliminated.
ARM GAS  /tmp/ccakcsKX.s 			page 34


 1874 0cc0 82B0     		sub	sp, sp, #8
 1875              		.cfi_def_cfa_offset 8
 1876 0cc2 0190     		str	r0, [sp, #4]
 1877              		.loc 1 874 0
 1878 0cc4 02B0     		add	sp, sp, #8
 1879              		@ sp needed
 1880 0cc6 7047     		bx	lr
 1881              		.cfi_endproc
 1882              	.LFE134:
 1883              		.size	HAL_PCD_SetupStageCallback, .-HAL_PCD_SetupStageCallback
 1884              		.align	2
 1885 0cc8 AFF30080 		.p2align 4,,15
 1885      AFF30080 
 1886              		.weak	HAL_PCD_SOFCallback
 1887              		.thumb
 1888              		.thumb_func
 1889              		.type	HAL_PCD_SOFCallback, %function
 1890              	HAL_PCD_SOFCallback:
 1891              	.LFB135:
 1892              		.loc 1 882 0
 1893              		.cfi_startproc
 1894              		@ args = 0, pretend = 0, frame = 8
 1895              		@ frame_needed = 0, uses_anonymous_args = 0
 1896              		@ link register save eliminated.
 1897 0cd0 82B0     		sub	sp, sp, #8
 1898              		.cfi_def_cfa_offset 8
 1899 0cd2 0190     		str	r0, [sp, #4]
 1900              		.loc 1 889 0
 1901 0cd4 02B0     		add	sp, sp, #8
 1902              		@ sp needed
 1903 0cd6 7047     		bx	lr
 1904              		.cfi_endproc
 1905              	.LFE135:
 1906              		.size	HAL_PCD_SOFCallback, .-HAL_PCD_SOFCallback
 1907              		.align	2
 1908 0cd8 AFF30080 		.p2align 4,,15
 1908      AFF30080 
 1909              		.weak	HAL_PCD_ResetCallback
 1910              		.thumb
 1911              		.thumb_func
 1912              		.type	HAL_PCD_ResetCallback, %function
 1913              	HAL_PCD_ResetCallback:
 1914              	.LFB136:
 1915              		.loc 1 897 0
 1916              		.cfi_startproc
 1917              		@ args = 0, pretend = 0, frame = 8
 1918              		@ frame_needed = 0, uses_anonymous_args = 0
 1919              		@ link register save eliminated.
 1920 0ce0 82B0     		sub	sp, sp, #8
 1921              		.cfi_def_cfa_offset 8
 1922 0ce2 0190     		str	r0, [sp, #4]
 1923              		.loc 1 904 0
 1924 0ce4 02B0     		add	sp, sp, #8
 1925              		@ sp needed
 1926 0ce6 7047     		bx	lr
 1927              		.cfi_endproc
 1928              	.LFE136:
ARM GAS  /tmp/ccakcsKX.s 			page 35


 1929              		.size	HAL_PCD_ResetCallback, .-HAL_PCD_ResetCallback
 1930              		.align	2
 1931 0ce8 AFF30080 		.p2align 4,,15
 1931      AFF30080 
 1932              		.weak	HAL_PCD_SuspendCallback
 1933              		.thumb
 1934              		.thumb_func
 1935              		.type	HAL_PCD_SuspendCallback, %function
 1936              	HAL_PCD_SuspendCallback:
 1937              	.LFB137:
 1938              		.loc 1 912 0
 1939              		.cfi_startproc
 1940              		@ args = 0, pretend = 0, frame = 8
 1941              		@ frame_needed = 0, uses_anonymous_args = 0
 1942              		@ link register save eliminated.
 1943 0cf0 82B0     		sub	sp, sp, #8
 1944              		.cfi_def_cfa_offset 8
 1945 0cf2 0190     		str	r0, [sp, #4]
 1946              		.loc 1 919 0
 1947 0cf4 02B0     		add	sp, sp, #8
 1948              		@ sp needed
 1949 0cf6 7047     		bx	lr
 1950              		.cfi_endproc
 1951              	.LFE137:
 1952              		.size	HAL_PCD_SuspendCallback, .-HAL_PCD_SuspendCallback
 1953              		.align	2
 1954 0cf8 AFF30080 		.p2align 4,,15
 1954      AFF30080 
 1955              		.weak	HAL_PCD_ResumeCallback
 1956              		.thumb
 1957              		.thumb_func
 1958              		.type	HAL_PCD_ResumeCallback, %function
 1959              	HAL_PCD_ResumeCallback:
 1960              	.LFB138:
 1961              		.loc 1 927 0
 1962              		.cfi_startproc
 1963              		@ args = 0, pretend = 0, frame = 8
 1964              		@ frame_needed = 0, uses_anonymous_args = 0
 1965              		@ link register save eliminated.
 1966 0d00 82B0     		sub	sp, sp, #8
 1967              		.cfi_def_cfa_offset 8
 1968 0d02 0190     		str	r0, [sp, #4]
 1969              		.loc 1 934 0
 1970 0d04 02B0     		add	sp, sp, #8
 1971              		@ sp needed
 1972 0d06 7047     		bx	lr
 1973              		.cfi_endproc
 1974              	.LFE138:
 1975              		.size	HAL_PCD_ResumeCallback, .-HAL_PCD_ResumeCallback
 1976              		.align	2
 1977 0d08 AFF30080 		.p2align 4,,15
 1977      AFF30080 
 1978              		.weak	HAL_PCD_ISOOUTIncompleteCallback
 1979              		.thumb
 1980              		.thumb_func
 1981              		.type	HAL_PCD_ISOOUTIncompleteCallback, %function
 1982              	HAL_PCD_ISOOUTIncompleteCallback:
ARM GAS  /tmp/ccakcsKX.s 			page 36


 1983              	.LFB139:
 1984              		.loc 1 943 0
 1985              		.cfi_startproc
 1986              		@ args = 0, pretend = 0, frame = 8
 1987              		@ frame_needed = 0, uses_anonymous_args = 0
 1988              		@ link register save eliminated.
 1989 0d10 82B0     		sub	sp, sp, #8
 1990              		.cfi_def_cfa_offset 8
 1991 0d12 0190     		str	r0, [sp, #4]
 1992 0d14 0B46     		mov	r3, r1
 1993 0d16 8DF80330 		strb	r3, [sp, #3]
 1994              		.loc 1 951 0
 1995 0d1a 02B0     		add	sp, sp, #8
 1996              		@ sp needed
 1997 0d1c 7047     		bx	lr
 1998              		.cfi_endproc
 1999              	.LFE139:
 2000              		.size	HAL_PCD_ISOOUTIncompleteCallback, .-HAL_PCD_ISOOUTIncompleteCallback
 2001 0d1e 00BF     		.align	2
 2002              		.p2align 4,,15
 2003              		.weak	HAL_PCD_ISOINIncompleteCallback
 2004              		.thumb
 2005              		.thumb_func
 2006              		.type	HAL_PCD_ISOINIncompleteCallback, %function
 2007              	HAL_PCD_ISOINIncompleteCallback:
 2008              	.LFB140:
 2009              		.loc 1 960 0
 2010              		.cfi_startproc
 2011              		@ args = 0, pretend = 0, frame = 8
 2012              		@ frame_needed = 0, uses_anonymous_args = 0
 2013              		@ link register save eliminated.
 2014 0d20 82B0     		sub	sp, sp, #8
 2015              		.cfi_def_cfa_offset 8
 2016 0d22 0190     		str	r0, [sp, #4]
 2017 0d24 0B46     		mov	r3, r1
 2018 0d26 8DF80330 		strb	r3, [sp, #3]
 2019              		.loc 1 968 0
 2020 0d2a 02B0     		add	sp, sp, #8
 2021              		@ sp needed
 2022 0d2c 7047     		bx	lr
 2023              		.cfi_endproc
 2024              	.LFE140:
 2025              		.size	HAL_PCD_ISOINIncompleteCallback, .-HAL_PCD_ISOINIncompleteCallback
 2026 0d2e 00BF     		.align	2
 2027              		.p2align 4,,15
 2028              		.weak	HAL_PCD_ConnectCallback
 2029              		.thumb
 2030              		.thumb_func
 2031              		.type	HAL_PCD_ConnectCallback, %function
 2032              	HAL_PCD_ConnectCallback:
 2033              	.LFB141:
 2034              		.loc 1 976 0
 2035              		.cfi_startproc
 2036              		@ args = 0, pretend = 0, frame = 8
 2037              		@ frame_needed = 0, uses_anonymous_args = 0
 2038              		@ link register save eliminated.
 2039 0d30 82B0     		sub	sp, sp, #8
ARM GAS  /tmp/ccakcsKX.s 			page 37


 2040              		.cfi_def_cfa_offset 8
 2041 0d32 0190     		str	r0, [sp, #4]
 2042              		.loc 1 983 0
 2043 0d34 02B0     		add	sp, sp, #8
 2044              		@ sp needed
 2045 0d36 7047     		bx	lr
 2046              		.cfi_endproc
 2047              	.LFE141:
 2048              		.size	HAL_PCD_ConnectCallback, .-HAL_PCD_ConnectCallback
 2049              		.align	2
 2050 0d38 AFF30080 		.p2align 4,,15
 2050      AFF30080 
 2051              		.weak	HAL_PCD_DisconnectCallback
 2052              		.thumb
 2053              		.thumb_func
 2054              		.type	HAL_PCD_DisconnectCallback, %function
 2055              	HAL_PCD_DisconnectCallback:
 2056              	.LFB142:
 2057              		.loc 1 991 0
 2058              		.cfi_startproc
 2059              		@ args = 0, pretend = 0, frame = 8
 2060              		@ frame_needed = 0, uses_anonymous_args = 0
 2061              		@ link register save eliminated.
 2062 0d40 82B0     		sub	sp, sp, #8
 2063              		.cfi_def_cfa_offset 8
 2064 0d42 0190     		str	r0, [sp, #4]
 2065              		.loc 1 998 0
 2066 0d44 02B0     		add	sp, sp, #8
 2067              		@ sp needed
 2068 0d46 7047     		bx	lr
 2069              		.cfi_endproc
 2070              	.LFE142:
 2071              		.size	HAL_PCD_DisconnectCallback, .-HAL_PCD_DisconnectCallback
 2072              		.align	2
 2073 0d48 AFF30080 		.p2align 4,,15
 2073      AFF30080 
 2074              		.global	HAL_PCD_DevConnect
 2075              		.thumb
 2076              		.thumb_func
 2077              		.type	HAL_PCD_DevConnect, %function
 2078              	HAL_PCD_DevConnect:
 2079              	.LFB143:
 2080              		.loc 1 1025 0
 2081              		.cfi_startproc
 2082              		@ args = 0, pretend = 0, frame = 8
 2083              		@ frame_needed = 0, uses_anonymous_args = 0
 2084 0d50 00B5     		push	{lr}
 2085              		.cfi_def_cfa_offset 4
 2086              		.cfi_offset 14, -4
 2087 0d52 83B0     		sub	sp, sp, #12
 2088              		.cfi_def_cfa_offset 16
 2089 0d54 0190     		str	r0, [sp, #4]
 2090              		.loc 1 1026 0
 2091 0d56 019B     		ldr	r3, [sp, #4]
 2092 0d58 93F88433 		ldrb	r3, [r3, #900]	@ zero_extendqisi2
 2093 0d5c 012B     		cmp	r3, #1
 2094 0d5e 01D1     		bne	.L92
ARM GAS  /tmp/ccakcsKX.s 			page 38


 2095              		.loc 1 1026 0 is_stmt 0 discriminator 1
 2096 0d60 0223     		movs	r3, #2
 2097 0d62 0DE0     		b	.L93
 2098              	.L92:
 2099              		.loc 1 1026 0 discriminator 2
 2100 0d64 019B     		ldr	r3, [sp, #4]
 2101 0d66 0122     		movs	r2, #1
 2102 0d68 83F88423 		strb	r2, [r3, #900]
 2103              		.loc 1 1027 0 is_stmt 1 discriminator 2
 2104 0d6c 019B     		ldr	r3, [sp, #4]
 2105 0d6e 1B68     		ldr	r3, [r3]
 2106 0d70 1846     		mov	r0, r3
 2107 0d72 FFF7FEFF 		bl	USB_DevConnect
 2108              		.loc 1 1028 0 discriminator 2
 2109 0d76 019B     		ldr	r3, [sp, #4]
 2110 0d78 0022     		movs	r2, #0
 2111 0d7a 83F88423 		strb	r2, [r3, #900]
 2112              		.loc 1 1029 0 discriminator 2
 2113 0d7e 0023     		movs	r3, #0
 2114              	.L93:
 2115              		.loc 1 1030 0
 2116 0d80 1846     		mov	r0, r3
 2117 0d82 03B0     		add	sp, sp, #12
 2118              		@ sp needed
 2119 0d84 5DF804FB 		ldr	pc, [sp], #4
 2120              		.cfi_endproc
 2121              	.LFE143:
 2122              		.size	HAL_PCD_DevConnect, .-HAL_PCD_DevConnect
 2123              		.align	2
 2124 0d88 AFF30080 		.p2align 4,,15
 2124      AFF30080 
 2125              		.global	HAL_PCD_DevDisconnect
 2126              		.thumb
 2127              		.thumb_func
 2128              		.type	HAL_PCD_DevDisconnect, %function
 2129              	HAL_PCD_DevDisconnect:
 2130              	.LFB144:
 2131              		.loc 1 1038 0
 2132              		.cfi_startproc
 2133              		@ args = 0, pretend = 0, frame = 8
 2134              		@ frame_needed = 0, uses_anonymous_args = 0
 2135 0d90 00B5     		push	{lr}
 2136              		.cfi_def_cfa_offset 4
 2137              		.cfi_offset 14, -4
 2138 0d92 83B0     		sub	sp, sp, #12
 2139              		.cfi_def_cfa_offset 16
 2140 0d94 0190     		str	r0, [sp, #4]
 2141              		.loc 1 1039 0
 2142 0d96 019B     		ldr	r3, [sp, #4]
 2143 0d98 93F88433 		ldrb	r3, [r3, #900]	@ zero_extendqisi2
 2144 0d9c 012B     		cmp	r3, #1
 2145 0d9e 01D1     		bne	.L95
 2146              		.loc 1 1039 0 is_stmt 0 discriminator 1
 2147 0da0 0223     		movs	r3, #2
 2148 0da2 0DE0     		b	.L96
 2149              	.L95:
 2150              		.loc 1 1039 0 discriminator 2
ARM GAS  /tmp/ccakcsKX.s 			page 39


 2151 0da4 019B     		ldr	r3, [sp, #4]
 2152 0da6 0122     		movs	r2, #1
 2153 0da8 83F88423 		strb	r2, [r3, #900]
 2154              		.loc 1 1040 0 is_stmt 1 discriminator 2
 2155 0dac 019B     		ldr	r3, [sp, #4]
 2156 0dae 1B68     		ldr	r3, [r3]
 2157 0db0 1846     		mov	r0, r3
 2158 0db2 FFF7FEFF 		bl	USB_DevDisconnect
 2159              		.loc 1 1041 0 discriminator 2
 2160 0db6 019B     		ldr	r3, [sp, #4]
 2161 0db8 0022     		movs	r2, #0
 2162 0dba 83F88423 		strb	r2, [r3, #900]
 2163              		.loc 1 1042 0 discriminator 2
 2164 0dbe 0023     		movs	r3, #0
 2165              	.L96:
 2166              		.loc 1 1043 0
 2167 0dc0 1846     		mov	r0, r3
 2168 0dc2 03B0     		add	sp, sp, #12
 2169              		@ sp needed
 2170 0dc4 5DF804FB 		ldr	pc, [sp], #4
 2171              		.cfi_endproc
 2172              	.LFE144:
 2173              		.size	HAL_PCD_DevDisconnect, .-HAL_PCD_DevDisconnect
 2174              		.align	2
 2175 0dc8 AFF30080 		.p2align 4,,15
 2175      AFF30080 
 2176              		.global	HAL_PCD_SetAddress
 2177              		.thumb
 2178              		.thumb_func
 2179              		.type	HAL_PCD_SetAddress, %function
 2180              	HAL_PCD_SetAddress:
 2181              	.LFB145:
 2182              		.loc 1 1052 0
 2183              		.cfi_startproc
 2184              		@ args = 0, pretend = 0, frame = 8
 2185              		@ frame_needed = 0, uses_anonymous_args = 0
 2186 0dd0 00B5     		push	{lr}
 2187              		.cfi_def_cfa_offset 4
 2188              		.cfi_offset 14, -4
 2189 0dd2 83B0     		sub	sp, sp, #12
 2190              		.cfi_def_cfa_offset 16
 2191 0dd4 0190     		str	r0, [sp, #4]
 2192 0dd6 0B46     		mov	r3, r1
 2193 0dd8 8DF80330 		strb	r3, [sp, #3]
 2194              		.loc 1 1053 0
 2195 0ddc 019B     		ldr	r3, [sp, #4]
 2196 0dde 93F88433 		ldrb	r3, [r3, #900]	@ zero_extendqisi2
 2197 0de2 012B     		cmp	r3, #1
 2198 0de4 01D1     		bne	.L98
 2199              		.loc 1 1053 0 is_stmt 0 discriminator 1
 2200 0de6 0223     		movs	r3, #2
 2201 0de8 15E0     		b	.L99
 2202              	.L98:
 2203              		.loc 1 1053 0 discriminator 2
 2204 0dea 019B     		ldr	r3, [sp, #4]
 2205 0dec 0122     		movs	r2, #1
 2206 0dee 83F88423 		strb	r2, [r3, #900]
ARM GAS  /tmp/ccakcsKX.s 			page 40


 2207              		.loc 1 1054 0 is_stmt 1 discriminator 2
 2208 0df2 019B     		ldr	r3, [sp, #4]
 2209 0df4 9DF80320 		ldrb	r2, [sp, #3]
 2210 0df8 83F83820 		strb	r2, [r3, #56]
 2211              		.loc 1 1055 0 discriminator 2
 2212 0dfc 019B     		ldr	r3, [sp, #4]
 2213 0dfe 1A68     		ldr	r2, [r3]
 2214 0e00 9DF80330 		ldrb	r3, [sp, #3]	@ zero_extendqisi2
 2215 0e04 1046     		mov	r0, r2
 2216 0e06 1946     		mov	r1, r3
 2217 0e08 FFF7FEFF 		bl	USB_SetDevAddress
 2218              		.loc 1 1056 0 discriminator 2
 2219 0e0c 019B     		ldr	r3, [sp, #4]
 2220 0e0e 0022     		movs	r2, #0
 2221 0e10 83F88423 		strb	r2, [r3, #900]
 2222              		.loc 1 1057 0 discriminator 2
 2223 0e14 0023     		movs	r3, #0
 2224              	.L99:
 2225              		.loc 1 1058 0
 2226 0e16 1846     		mov	r0, r3
 2227 0e18 03B0     		add	sp, sp, #12
 2228              		@ sp needed
 2229 0e1a 5DF804FB 		ldr	pc, [sp], #4
 2230              		.cfi_endproc
 2231              	.LFE145:
 2232              		.size	HAL_PCD_SetAddress, .-HAL_PCD_SetAddress
 2233 0e1e 00BF     		.align	2
 2234              		.p2align 4,,15
 2235              		.global	HAL_PCD_EP_Open
 2236              		.thumb
 2237              		.thumb_func
 2238              		.type	HAL_PCD_EP_Open, %function
 2239              	HAL_PCD_EP_Open:
 2240              	.LFB146:
 2241              		.loc 1 1068 0
 2242              		.cfi_startproc
 2243              		@ args = 0, pretend = 0, frame = 16
 2244              		@ frame_needed = 0, uses_anonymous_args = 0
 2245 0e20 00B5     		push	{lr}
 2246              		.cfi_def_cfa_offset 4
 2247              		.cfi_offset 14, -4
 2248 0e22 85B0     		sub	sp, sp, #20
 2249              		.cfi_def_cfa_offset 24
 2250 0e24 0190     		str	r0, [sp, #4]
 2251 0e26 8DF80310 		strb	r1, [sp, #3]
 2252 0e2a ADF80020 		strh	r2, [sp]	@ movhi
 2253 0e2e 8DF80230 		strb	r3, [sp, #2]
 2254              		.loc 1 1069 0
 2255 0e32 0023     		movs	r3, #0
 2256 0e34 8DF80B30 		strb	r3, [sp, #11]
 2257              		.loc 1 1070 0
 2258 0e38 0023     		movs	r3, #0
 2259 0e3a 0393     		str	r3, [sp, #12]
 2260              		.loc 1 1072 0
 2261 0e3c 9DF80330 		ldrb	r3, [sp, #3]	@ zero_extendqisi2
 2262 0e40 5BB2     		sxtb	r3, r3
 2263 0e42 002B     		cmp	r3, #0
ARM GAS  /tmp/ccakcsKX.s 			page 41


 2264 0e44 0DDA     		bge	.L101
 2265              		.loc 1 1074 0
 2266 0e46 9DF80330 		ldrb	r3, [sp, #3]	@ zero_extendqisi2
 2267 0e4a 03F07F02 		and	r2, r3, #127
 2268 0e4e 1346     		mov	r3, r2
 2269 0e50 DB00     		lsls	r3, r3, #3
 2270 0e52 9B1A     		subs	r3, r3, r2
 2271 0e54 9B00     		lsls	r3, r3, #2
 2272 0e56 3833     		adds	r3, r3, #56
 2273 0e58 019A     		ldr	r2, [sp, #4]
 2274 0e5a 1344     		add	r3, r3, r2
 2275 0e5c 0433     		adds	r3, r3, #4
 2276 0e5e 0393     		str	r3, [sp, #12]
 2277 0e60 0CE0     		b	.L102
 2278              	.L101:
 2279              		.loc 1 1078 0
 2280 0e62 9DF80330 		ldrb	r3, [sp, #3]	@ zero_extendqisi2
 2281 0e66 03F07F02 		and	r2, r3, #127
 2282 0e6a 1346     		mov	r3, r2
 2283 0e6c DB00     		lsls	r3, r3, #3
 2284 0e6e 9B1A     		subs	r3, r3, r2
 2285 0e70 9B00     		lsls	r3, r3, #2
 2286 0e72 03F5F073 		add	r3, r3, #480
 2287 0e76 019A     		ldr	r2, [sp, #4]
 2288 0e78 1344     		add	r3, r3, r2
 2289 0e7a 0393     		str	r3, [sp, #12]
 2290              	.L102:
 2291              		.loc 1 1080 0
 2292 0e7c 9DF80330 		ldrb	r3, [sp, #3]
 2293 0e80 03F07F03 		and	r3, r3, #127
 2294 0e84 DAB2     		uxtb	r2, r3
 2295 0e86 039B     		ldr	r3, [sp, #12]
 2296 0e88 1A70     		strb	r2, [r3]
 2297              		.loc 1 1082 0
 2298 0e8a 9DF80330 		ldrb	r3, [sp, #3]	@ zero_extendqisi2
 2299 0e8e DB09     		lsrs	r3, r3, #7
 2300 0e90 DBB2     		uxtb	r3, r3
 2301 0e92 1A46     		mov	r2, r3
 2302 0e94 039B     		ldr	r3, [sp, #12]
 2303 0e96 5A70     		strb	r2, [r3, #1]
 2304              		.loc 1 1083 0
 2305 0e98 BDF80020 		ldrh	r2, [sp]
 2306 0e9c 039B     		ldr	r3, [sp, #12]
 2307 0e9e 9A60     		str	r2, [r3, #8]
 2308              		.loc 1 1084 0
 2309 0ea0 039B     		ldr	r3, [sp, #12]
 2310 0ea2 9DF80220 		ldrb	r2, [sp, #2]
 2311 0ea6 DA70     		strb	r2, [r3, #3]
 2312              		.loc 1 1086 0
 2313 0ea8 019B     		ldr	r3, [sp, #4]
 2314 0eaa 93F88433 		ldrb	r3, [r3, #900]	@ zero_extendqisi2
 2315 0eae 012B     		cmp	r3, #1
 2316 0eb0 01D1     		bne	.L103
 2317              		.loc 1 1086 0 is_stmt 0 discriminator 1
 2318 0eb2 0223     		movs	r3, #2
 2319 0eb4 0FE0     		b	.L104
 2320              	.L103:
ARM GAS  /tmp/ccakcsKX.s 			page 42


 2321              		.loc 1 1086 0 discriminator 2
 2322 0eb6 019B     		ldr	r3, [sp, #4]
 2323 0eb8 0122     		movs	r2, #1
 2324 0eba 83F88423 		strb	r2, [r3, #900]
 2325              		.loc 1 1087 0 is_stmt 1 discriminator 2
 2326 0ebe 019B     		ldr	r3, [sp, #4]
 2327 0ec0 1B68     		ldr	r3, [r3]
 2328 0ec2 1846     		mov	r0, r3
 2329 0ec4 0399     		ldr	r1, [sp, #12]
 2330 0ec6 FFF7FEFF 		bl	USB_ActivateEndpoint
 2331              		.loc 1 1088 0 discriminator 2
 2332 0eca 019B     		ldr	r3, [sp, #4]
 2333 0ecc 0022     		movs	r2, #0
 2334 0ece 83F88423 		strb	r2, [r3, #900]
 2335              		.loc 1 1089 0 discriminator 2
 2336 0ed2 9DF80B30 		ldrb	r3, [sp, #11]	@ zero_extendqisi2
 2337              	.L104:
 2338              		.loc 1 1091 0
 2339 0ed6 1846     		mov	r0, r3
 2340 0ed8 05B0     		add	sp, sp, #20
 2341              		@ sp needed
 2342 0eda 5DF804FB 		ldr	pc, [sp], #4
 2343              		.cfi_endproc
 2344              	.LFE146:
 2345              		.size	HAL_PCD_EP_Open, .-HAL_PCD_EP_Open
 2346 0ede 00BF     		.align	2
 2347              		.p2align 4,,15
 2348              		.global	HAL_PCD_EP_Close
 2349              		.thumb
 2350              		.thumb_func
 2351              		.type	HAL_PCD_EP_Close, %function
 2352              	HAL_PCD_EP_Close:
 2353              	.LFB147:
 2354              		.loc 1 1101 0
 2355              		.cfi_startproc
 2356              		@ args = 0, pretend = 0, frame = 16
 2357              		@ frame_needed = 0, uses_anonymous_args = 0
 2358 0ee0 00B5     		push	{lr}
 2359              		.cfi_def_cfa_offset 4
 2360              		.cfi_offset 14, -4
 2361 0ee2 85B0     		sub	sp, sp, #20
 2362              		.cfi_def_cfa_offset 24
 2363 0ee4 0190     		str	r0, [sp, #4]
 2364 0ee6 0B46     		mov	r3, r1
 2365 0ee8 8DF80330 		strb	r3, [sp, #3]
 2366              		.loc 1 1102 0
 2367 0eec 0023     		movs	r3, #0
 2368 0eee 0393     		str	r3, [sp, #12]
 2369              		.loc 1 1104 0
 2370 0ef0 9DF80330 		ldrb	r3, [sp, #3]	@ zero_extendqisi2
 2371 0ef4 5BB2     		sxtb	r3, r3
 2372 0ef6 002B     		cmp	r3, #0
 2373 0ef8 0DDA     		bge	.L106
 2374              		.loc 1 1106 0
 2375 0efa 9DF80330 		ldrb	r3, [sp, #3]	@ zero_extendqisi2
 2376 0efe 03F07F02 		and	r2, r3, #127
 2377 0f02 1346     		mov	r3, r2
ARM GAS  /tmp/ccakcsKX.s 			page 43


 2378 0f04 DB00     		lsls	r3, r3, #3
 2379 0f06 9B1A     		subs	r3, r3, r2
 2380 0f08 9B00     		lsls	r3, r3, #2
 2381 0f0a 3833     		adds	r3, r3, #56
 2382 0f0c 019A     		ldr	r2, [sp, #4]
 2383 0f0e 1344     		add	r3, r3, r2
 2384 0f10 0433     		adds	r3, r3, #4
 2385 0f12 0393     		str	r3, [sp, #12]
 2386 0f14 0CE0     		b	.L107
 2387              	.L106:
 2388              		.loc 1 1110 0
 2389 0f16 9DF80330 		ldrb	r3, [sp, #3]	@ zero_extendqisi2
 2390 0f1a 03F07F02 		and	r2, r3, #127
 2391 0f1e 1346     		mov	r3, r2
 2392 0f20 DB00     		lsls	r3, r3, #3
 2393 0f22 9B1A     		subs	r3, r3, r2
 2394 0f24 9B00     		lsls	r3, r3, #2
 2395 0f26 03F5F073 		add	r3, r3, #480
 2396 0f2a 019A     		ldr	r2, [sp, #4]
 2397 0f2c 1344     		add	r3, r3, r2
 2398 0f2e 0393     		str	r3, [sp, #12]
 2399              	.L107:
 2400              		.loc 1 1112 0
 2401 0f30 9DF80330 		ldrb	r3, [sp, #3]
 2402 0f34 03F07F03 		and	r3, r3, #127
 2403 0f38 DAB2     		uxtb	r2, r3
 2404 0f3a 039B     		ldr	r3, [sp, #12]
 2405 0f3c 1A70     		strb	r2, [r3]
 2406              		.loc 1 1114 0
 2407 0f3e 9DF80330 		ldrb	r3, [sp, #3]	@ zero_extendqisi2
 2408 0f42 DB09     		lsrs	r3, r3, #7
 2409 0f44 DBB2     		uxtb	r3, r3
 2410 0f46 1A46     		mov	r2, r3
 2411 0f48 039B     		ldr	r3, [sp, #12]
 2412 0f4a 5A70     		strb	r2, [r3, #1]
 2413              		.loc 1 1116 0
 2414 0f4c 019B     		ldr	r3, [sp, #4]
 2415 0f4e 93F88433 		ldrb	r3, [r3, #900]	@ zero_extendqisi2
 2416 0f52 012B     		cmp	r3, #1
 2417 0f54 01D1     		bne	.L108
 2418              		.loc 1 1116 0 is_stmt 0 discriminator 1
 2419 0f56 0223     		movs	r3, #2
 2420 0f58 0EE0     		b	.L109
 2421              	.L108:
 2422              		.loc 1 1116 0 discriminator 2
 2423 0f5a 019B     		ldr	r3, [sp, #4]
 2424 0f5c 0122     		movs	r2, #1
 2425 0f5e 83F88423 		strb	r2, [r3, #900]
 2426              		.loc 1 1117 0 is_stmt 1 discriminator 2
 2427 0f62 019B     		ldr	r3, [sp, #4]
 2428 0f64 1B68     		ldr	r3, [r3]
 2429 0f66 1846     		mov	r0, r3
 2430 0f68 0399     		ldr	r1, [sp, #12]
 2431 0f6a FFF7FEFF 		bl	USB_DeactivateEndpoint
 2432              		.loc 1 1118 0 discriminator 2
 2433 0f6e 019B     		ldr	r3, [sp, #4]
 2434 0f70 0022     		movs	r2, #0
ARM GAS  /tmp/ccakcsKX.s 			page 44


 2435 0f72 83F88423 		strb	r2, [r3, #900]
 2436              		.loc 1 1119 0 discriminator 2
 2437 0f76 0023     		movs	r3, #0
 2438              	.L109:
 2439              		.loc 1 1120 0
 2440 0f78 1846     		mov	r0, r3
 2441 0f7a 05B0     		add	sp, sp, #20
 2442              		@ sp needed
 2443 0f7c 5DF804FB 		ldr	pc, [sp], #4
 2444              		.cfi_endproc
 2445              	.LFE147:
 2446              		.size	HAL_PCD_EP_Close, .-HAL_PCD_EP_Close
 2447              		.align	2
 2448              		.p2align 4,,15
 2449              		.global	HAL_PCD_EP_Receive
 2450              		.thumb
 2451              		.thumb_func
 2452              		.type	HAL_PCD_EP_Receive, %function
 2453              	HAL_PCD_EP_Receive:
 2454              	.LFB148:
 2455              		.loc 1 1132 0
 2456              		.cfi_startproc
 2457              		@ args = 0, pretend = 0, frame = 24
 2458              		@ frame_needed = 0, uses_anonymous_args = 0
 2459 0f80 00B5     		push	{lr}
 2460              		.cfi_def_cfa_offset 4
 2461              		.cfi_offset 14, -4
 2462 0f82 87B0     		sub	sp, sp, #28
 2463              		.cfi_def_cfa_offset 32
 2464 0f84 0390     		str	r0, [sp, #12]
 2465 0f86 0192     		str	r2, [sp, #4]
 2466 0f88 0093     		str	r3, [sp]
 2467 0f8a 0B46     		mov	r3, r1
 2468 0f8c 8DF80B30 		strb	r3, [sp, #11]
 2469              		.loc 1 1133 0
 2470 0f90 0023     		movs	r3, #0
 2471 0f92 0593     		str	r3, [sp, #20]
 2472              		.loc 1 1135 0
 2473 0f94 9DF80B30 		ldrb	r3, [sp, #11]	@ zero_extendqisi2
 2474 0f98 03F07F02 		and	r2, r3, #127
 2475 0f9c 1346     		mov	r3, r2
 2476 0f9e DB00     		lsls	r3, r3, #3
 2477 0fa0 9B1A     		subs	r3, r3, r2
 2478 0fa2 9B00     		lsls	r3, r3, #2
 2479 0fa4 03F5F073 		add	r3, r3, #480
 2480 0fa8 039A     		ldr	r2, [sp, #12]
 2481 0faa 1344     		add	r3, r3, r2
 2482 0fac 0593     		str	r3, [sp, #20]
 2483              		.loc 1 1138 0
 2484 0fae 059B     		ldr	r3, [sp, #20]
 2485 0fb0 019A     		ldr	r2, [sp, #4]
 2486 0fb2 DA60     		str	r2, [r3, #12]
 2487              		.loc 1 1139 0
 2488 0fb4 059B     		ldr	r3, [sp, #20]
 2489 0fb6 009A     		ldr	r2, [sp]
 2490 0fb8 5A61     		str	r2, [r3, #20]
 2491              		.loc 1 1140 0
ARM GAS  /tmp/ccakcsKX.s 			page 45


 2492 0fba 059B     		ldr	r3, [sp, #20]
 2493 0fbc 0022     		movs	r2, #0
 2494 0fbe 9A61     		str	r2, [r3, #24]
 2495              		.loc 1 1141 0
 2496 0fc0 059B     		ldr	r3, [sp, #20]
 2497 0fc2 0022     		movs	r2, #0
 2498 0fc4 5A70     		strb	r2, [r3, #1]
 2499              		.loc 1 1142 0
 2500 0fc6 9DF80B30 		ldrb	r3, [sp, #11]
 2501 0fca 03F07F03 		and	r3, r3, #127
 2502 0fce DAB2     		uxtb	r2, r3
 2503 0fd0 059B     		ldr	r3, [sp, #20]
 2504 0fd2 1A70     		strb	r2, [r3]
 2505              		.loc 1 1144 0
 2506 0fd4 039B     		ldr	r3, [sp, #12]
 2507 0fd6 93F88433 		ldrb	r3, [r3, #900]	@ zero_extendqisi2
 2508 0fda 012B     		cmp	r3, #1
 2509 0fdc 01D1     		bne	.L111
 2510              		.loc 1 1144 0 is_stmt 0 discriminator 1
 2511 0fde 0223     		movs	r3, #2
 2512 0fe0 23E0     		b	.L112
 2513              	.L111:
 2514              		.loc 1 1144 0 discriminator 2
 2515 0fe2 039B     		ldr	r3, [sp, #12]
 2516 0fe4 0122     		movs	r2, #1
 2517 0fe6 83F88423 		strb	r2, [r3, #900]
 2518              		.loc 1 1146 0 is_stmt 1 discriminator 2
 2519 0fea 9DF80B30 		ldrb	r3, [sp, #11]	@ zero_extendqisi2
 2520 0fee 03F07F03 		and	r3, r3, #127
 2521 0ff2 002B     		cmp	r3, #0
 2522 0ff4 0AD1     		bne	.L113
 2523              		.loc 1 1148 0
 2524 0ff6 039B     		ldr	r3, [sp, #12]
 2525 0ff8 1A68     		ldr	r2, [r3]
 2526 0ffa 039B     		ldr	r3, [sp, #12]
 2527 0ffc 1B69     		ldr	r3, [r3, #16]
 2528 0ffe DBB2     		uxtb	r3, r3
 2529 1000 1046     		mov	r0, r2
 2530 1002 0599     		ldr	r1, [sp, #20]
 2531 1004 1A46     		mov	r2, r3
 2532 1006 FFF7FEFF 		bl	USB_EP0StartXfer
 2533 100a 09E0     		b	.L114
 2534              	.L113:
 2535              		.loc 1 1152 0
 2536 100c 039B     		ldr	r3, [sp, #12]
 2537 100e 1A68     		ldr	r2, [r3]
 2538 1010 039B     		ldr	r3, [sp, #12]
 2539 1012 1B69     		ldr	r3, [r3, #16]
 2540 1014 DBB2     		uxtb	r3, r3
 2541 1016 1046     		mov	r0, r2
 2542 1018 0599     		ldr	r1, [sp, #20]
 2543 101a 1A46     		mov	r2, r3
 2544 101c FFF7FEFF 		bl	USB_EPStartXfer
 2545              	.L114:
 2546              		.loc 1 1154 0
 2547 1020 039B     		ldr	r3, [sp, #12]
 2548 1022 0022     		movs	r2, #0
ARM GAS  /tmp/ccakcsKX.s 			page 46


 2549 1024 83F88423 		strb	r2, [r3, #900]
 2550              		.loc 1 1156 0
 2551 1028 0023     		movs	r3, #0
 2552              	.L112:
 2553              		.loc 1 1157 0
 2554 102a 1846     		mov	r0, r3
 2555 102c 07B0     		add	sp, sp, #28
 2556              		@ sp needed
 2557 102e 5DF804FB 		ldr	pc, [sp], #4
 2558              		.cfi_endproc
 2559              	.LFE148:
 2560              		.size	HAL_PCD_EP_Receive, .-HAL_PCD_EP_Receive
 2561 1032 00BF     		.align	2
 2562 1034 AFF30080 		.p2align 4,,15
 2562      AFF30080 
 2562      AFF30080 
 2563              		.global	HAL_PCD_EP_GetRxCount
 2564              		.thumb
 2565              		.thumb_func
 2566              		.type	HAL_PCD_EP_GetRxCount, %function
 2567              	HAL_PCD_EP_GetRxCount:
 2568              	.LFB149:
 2569              		.loc 1 1166 0
 2570              		.cfi_startproc
 2571              		@ args = 0, pretend = 0, frame = 8
 2572              		@ frame_needed = 0, uses_anonymous_args = 0
 2573              		@ link register save eliminated.
 2574 1040 82B0     		sub	sp, sp, #8
 2575              		.cfi_def_cfa_offset 8
 2576 1042 0190     		str	r0, [sp, #4]
 2577 1044 0B46     		mov	r3, r1
 2578 1046 8DF80330 		strb	r3, [sp, #3]
 2579              		.loc 1 1167 0
 2580 104a 9DF80330 		ldrb	r3, [sp, #3]	@ zero_extendqisi2
 2581 104e 03F07F02 		and	r2, r3, #127
 2582 1052 0199     		ldr	r1, [sp, #4]
 2583 1054 1346     		mov	r3, r2
 2584 1056 DB00     		lsls	r3, r3, #3
 2585 1058 9B1A     		subs	r3, r3, r2
 2586 105a 9B00     		lsls	r3, r3, #2
 2587 105c 0B44     		add	r3, r3, r1
 2588 105e 03F5FC73 		add	r3, r3, #504
 2589 1062 1B68     		ldr	r3, [r3]
 2590 1064 9BB2     		uxth	r3, r3
 2591              		.loc 1 1168 0
 2592 1066 1846     		mov	r0, r3
 2593 1068 02B0     		add	sp, sp, #8
 2594              		@ sp needed
 2595 106a 7047     		bx	lr
 2596              		.cfi_endproc
 2597              	.LFE149:
 2598              		.size	HAL_PCD_EP_GetRxCount, .-HAL_PCD_EP_GetRxCount
 2599              		.align	2
 2600 106c AFF30080 		.p2align 4,,15
 2601              		.global	HAL_PCD_EP_Transmit
 2602              		.thumb
 2603              		.thumb_func
ARM GAS  /tmp/ccakcsKX.s 			page 47


 2604              		.type	HAL_PCD_EP_Transmit, %function
 2605              	HAL_PCD_EP_Transmit:
 2606              	.LFB150:
 2607              		.loc 1 1178 0
 2608              		.cfi_startproc
 2609              		@ args = 0, pretend = 0, frame = 24
 2610              		@ frame_needed = 0, uses_anonymous_args = 0
 2611 1070 00B5     		push	{lr}
 2612              		.cfi_def_cfa_offset 4
 2613              		.cfi_offset 14, -4
 2614 1072 87B0     		sub	sp, sp, #28
 2615              		.cfi_def_cfa_offset 32
 2616 1074 0390     		str	r0, [sp, #12]
 2617 1076 0192     		str	r2, [sp, #4]
 2618 1078 0093     		str	r3, [sp]
 2619 107a 0B46     		mov	r3, r1
 2620 107c 8DF80B30 		strb	r3, [sp, #11]
 2621              		.loc 1 1179 0
 2622 1080 0023     		movs	r3, #0
 2623 1082 0593     		str	r3, [sp, #20]
 2624              		.loc 1 1181 0
 2625 1084 9DF80B30 		ldrb	r3, [sp, #11]	@ zero_extendqisi2
 2626 1088 03F07F02 		and	r2, r3, #127
 2627 108c 1346     		mov	r3, r2
 2628 108e DB00     		lsls	r3, r3, #3
 2629 1090 9B1A     		subs	r3, r3, r2
 2630 1092 9B00     		lsls	r3, r3, #2
 2631 1094 3833     		adds	r3, r3, #56
 2632 1096 039A     		ldr	r2, [sp, #12]
 2633 1098 1344     		add	r3, r3, r2
 2634 109a 0433     		adds	r3, r3, #4
 2635 109c 0593     		str	r3, [sp, #20]
 2636              		.loc 1 1184 0
 2637 109e 059B     		ldr	r3, [sp, #20]
 2638 10a0 019A     		ldr	r2, [sp, #4]
 2639 10a2 DA60     		str	r2, [r3, #12]
 2640              		.loc 1 1185 0
 2641 10a4 059B     		ldr	r3, [sp, #20]
 2642 10a6 009A     		ldr	r2, [sp]
 2643 10a8 5A61     		str	r2, [r3, #20]
 2644              		.loc 1 1186 0
 2645 10aa 059B     		ldr	r3, [sp, #20]
 2646 10ac 0022     		movs	r2, #0
 2647 10ae 9A61     		str	r2, [r3, #24]
 2648              		.loc 1 1187 0
 2649 10b0 059B     		ldr	r3, [sp, #20]
 2650 10b2 0122     		movs	r2, #1
 2651 10b4 5A70     		strb	r2, [r3, #1]
 2652              		.loc 1 1188 0
 2653 10b6 9DF80B30 		ldrb	r3, [sp, #11]
 2654 10ba 03F07F03 		and	r3, r3, #127
 2655 10be DAB2     		uxtb	r2, r3
 2656 10c0 059B     		ldr	r3, [sp, #20]
 2657 10c2 1A70     		strb	r2, [r3]
 2658              		.loc 1 1190 0
 2659 10c4 039B     		ldr	r3, [sp, #12]
 2660 10c6 93F88433 		ldrb	r3, [r3, #900]	@ zero_extendqisi2
ARM GAS  /tmp/ccakcsKX.s 			page 48


 2661 10ca 012B     		cmp	r3, #1
 2662 10cc 01D1     		bne	.L118
 2663              		.loc 1 1190 0 is_stmt 0 discriminator 1
 2664 10ce 0223     		movs	r3, #2
 2665 10d0 23E0     		b	.L119
 2666              	.L118:
 2667              		.loc 1 1190 0 discriminator 2
 2668 10d2 039B     		ldr	r3, [sp, #12]
 2669 10d4 0122     		movs	r2, #1
 2670 10d6 83F88423 		strb	r2, [r3, #900]
 2671              		.loc 1 1192 0 is_stmt 1 discriminator 2
 2672 10da 9DF80B30 		ldrb	r3, [sp, #11]	@ zero_extendqisi2
 2673 10de 03F07F03 		and	r3, r3, #127
 2674 10e2 002B     		cmp	r3, #0
 2675 10e4 0AD1     		bne	.L120
 2676              		.loc 1 1194 0
 2677 10e6 039B     		ldr	r3, [sp, #12]
 2678 10e8 1A68     		ldr	r2, [r3]
 2679 10ea 039B     		ldr	r3, [sp, #12]
 2680 10ec 1B69     		ldr	r3, [r3, #16]
 2681 10ee DBB2     		uxtb	r3, r3
 2682 10f0 1046     		mov	r0, r2
 2683 10f2 0599     		ldr	r1, [sp, #20]
 2684 10f4 1A46     		mov	r2, r3
 2685 10f6 FFF7FEFF 		bl	USB_EP0StartXfer
 2686 10fa 09E0     		b	.L121
 2687              	.L120:
 2688              		.loc 1 1198 0
 2689 10fc 039B     		ldr	r3, [sp, #12]
 2690 10fe 1A68     		ldr	r2, [r3]
 2691 1100 039B     		ldr	r3, [sp, #12]
 2692 1102 1B69     		ldr	r3, [r3, #16]
 2693 1104 DBB2     		uxtb	r3, r3
 2694 1106 1046     		mov	r0, r2
 2695 1108 0599     		ldr	r1, [sp, #20]
 2696 110a 1A46     		mov	r2, r3
 2697 110c FFF7FEFF 		bl	USB_EPStartXfer
 2698              	.L121:
 2699              		.loc 1 1201 0
 2700 1110 039B     		ldr	r3, [sp, #12]
 2701 1112 0022     		movs	r2, #0
 2702 1114 83F88423 		strb	r2, [r3, #900]
 2703              		.loc 1 1203 0
 2704 1118 0023     		movs	r3, #0
 2705              	.L119:
 2706              		.loc 1 1204 0
 2707 111a 1846     		mov	r0, r3
 2708 111c 07B0     		add	sp, sp, #28
 2709              		@ sp needed
 2710 111e 5DF804FB 		ldr	pc, [sp], #4
 2711              		.cfi_endproc
 2712              	.LFE150:
 2713              		.size	HAL_PCD_EP_Transmit, .-HAL_PCD_EP_Transmit
 2714 1122 00BF     		.align	2
 2715 1124 AFF30080 		.p2align 4,,15
 2715      AFF30080 
 2715      AFF30080 
ARM GAS  /tmp/ccakcsKX.s 			page 49


 2716              		.global	HAL_PCD_EP_SetStall
 2717              		.thumb
 2718              		.thumb_func
 2719              		.type	HAL_PCD_EP_SetStall, %function
 2720              	HAL_PCD_EP_SetStall:
 2721              	.LFB151:
 2722              		.loc 1 1213 0
 2723              		.cfi_startproc
 2724              		@ args = 0, pretend = 0, frame = 16
 2725              		@ frame_needed = 0, uses_anonymous_args = 0
 2726 1130 00B5     		push	{lr}
 2727              		.cfi_def_cfa_offset 4
 2728              		.cfi_offset 14, -4
 2729 1132 85B0     		sub	sp, sp, #20
 2730              		.cfi_def_cfa_offset 24
 2731 1134 0190     		str	r0, [sp, #4]
 2732 1136 0B46     		mov	r3, r1
 2733 1138 8DF80330 		strb	r3, [sp, #3]
 2734              		.loc 1 1214 0
 2735 113c 0023     		movs	r3, #0
 2736 113e 0393     		str	r3, [sp, #12]
 2737              		.loc 1 1216 0
 2738 1140 9DF80330 		ldrb	r3, [sp, #3]	@ zero_extendqisi2
 2739 1144 5BB2     		sxtb	r3, r3
 2740 1146 002B     		cmp	r3, #0
 2741 1148 0DDA     		bge	.L123
 2742              		.loc 1 1218 0
 2743 114a 9DF80330 		ldrb	r3, [sp, #3]	@ zero_extendqisi2
 2744 114e 03F07F02 		and	r2, r3, #127
 2745 1152 1346     		mov	r3, r2
 2746 1154 DB00     		lsls	r3, r3, #3
 2747 1156 9B1A     		subs	r3, r3, r2
 2748 1158 9B00     		lsls	r3, r3, #2
 2749 115a 3833     		adds	r3, r3, #56
 2750 115c 019A     		ldr	r2, [sp, #4]
 2751 115e 1344     		add	r3, r3, r2
 2752 1160 0433     		adds	r3, r3, #4
 2753 1162 0393     		str	r3, [sp, #12]
 2754 1164 0AE0     		b	.L124
 2755              	.L123:
 2756              		.loc 1 1222 0
 2757 1166 9DF80320 		ldrb	r2, [sp, #3]	@ zero_extendqisi2
 2758 116a 1346     		mov	r3, r2
 2759 116c DB00     		lsls	r3, r3, #3
 2760 116e 9B1A     		subs	r3, r3, r2
 2761 1170 9B00     		lsls	r3, r3, #2
 2762 1172 03F5F073 		add	r3, r3, #480
 2763 1176 019A     		ldr	r2, [sp, #4]
 2764 1178 1344     		add	r3, r3, r2
 2765 117a 0393     		str	r3, [sp, #12]
 2766              	.L124:
 2767              		.loc 1 1225 0
 2768 117c 039B     		ldr	r3, [sp, #12]
 2769 117e 0122     		movs	r2, #1
 2770 1180 9A70     		strb	r2, [r3, #2]
 2771              		.loc 1 1226 0
 2772 1182 9DF80330 		ldrb	r3, [sp, #3]
ARM GAS  /tmp/ccakcsKX.s 			page 50


 2773 1186 03F07F03 		and	r3, r3, #127
 2774 118a DAB2     		uxtb	r2, r3
 2775 118c 039B     		ldr	r3, [sp, #12]
 2776 118e 1A70     		strb	r2, [r3]
 2777              		.loc 1 1227 0
 2778 1190 9DF80330 		ldrb	r3, [sp, #3]	@ zero_extendqisi2
 2779 1194 DB09     		lsrs	r3, r3, #7
 2780 1196 DBB2     		uxtb	r3, r3
 2781 1198 1A46     		mov	r2, r3
 2782 119a 039B     		ldr	r3, [sp, #12]
 2783 119c 5A70     		strb	r2, [r3, #1]
 2784              		.loc 1 1229 0
 2785 119e 019B     		ldr	r3, [sp, #4]
 2786 11a0 93F88433 		ldrb	r3, [r3, #900]	@ zero_extendqisi2
 2787 11a4 012B     		cmp	r3, #1
 2788 11a6 01D1     		bne	.L125
 2789              		.loc 1 1229 0 is_stmt 0 discriminator 1
 2790 11a8 0223     		movs	r3, #2
 2791 11aa 21E0     		b	.L126
 2792              	.L125:
 2793              		.loc 1 1229 0 discriminator 2
 2794 11ac 019B     		ldr	r3, [sp, #4]
 2795 11ae 0122     		movs	r2, #1
 2796 11b0 83F88423 		strb	r2, [r3, #900]
 2797              		.loc 1 1230 0 is_stmt 1 discriminator 2
 2798 11b4 019B     		ldr	r3, [sp, #4]
 2799 11b6 1B68     		ldr	r3, [r3]
 2800 11b8 1846     		mov	r0, r3
 2801 11ba 0399     		ldr	r1, [sp, #12]
 2802 11bc FFF7FEFF 		bl	USB_EPSetStall
 2803              		.loc 1 1231 0 discriminator 2
 2804 11c0 9DF80330 		ldrb	r3, [sp, #3]	@ zero_extendqisi2
 2805 11c4 03F07F03 		and	r3, r3, #127
 2806 11c8 002B     		cmp	r3, #0
 2807 11ca 0CD1     		bne	.L127
 2808              		.loc 1 1233 0
 2809 11cc 019B     		ldr	r3, [sp, #4]
 2810 11ce 1968     		ldr	r1, [r3]
 2811 11d0 019B     		ldr	r3, [sp, #4]
 2812 11d2 1B69     		ldr	r3, [r3, #16]
 2813 11d4 DAB2     		uxtb	r2, r3
 2814 11d6 019B     		ldr	r3, [sp, #4]
 2815 11d8 03F56273 		add	r3, r3, #904
 2816 11dc 0846     		mov	r0, r1
 2817 11de 1146     		mov	r1, r2
 2818 11e0 1A46     		mov	r2, r3
 2819 11e2 FFF7FEFF 		bl	USB_EP0_OutStart
 2820              	.L127:
 2821              		.loc 1 1235 0
 2822 11e6 019B     		ldr	r3, [sp, #4]
 2823 11e8 0022     		movs	r2, #0
 2824 11ea 83F88423 		strb	r2, [r3, #900]
 2825              		.loc 1 1237 0
 2826 11ee 0023     		movs	r3, #0
 2827              	.L126:
 2828              		.loc 1 1238 0
 2829 11f0 1846     		mov	r0, r3
ARM GAS  /tmp/ccakcsKX.s 			page 51


 2830 11f2 05B0     		add	sp, sp, #20
 2831              		@ sp needed
 2832 11f4 5DF804FB 		ldr	pc, [sp], #4
 2833              		.cfi_endproc
 2834              	.LFE151:
 2835              		.size	HAL_PCD_EP_SetStall, .-HAL_PCD_EP_SetStall
 2836              		.align	2
 2837 11f8 AFF30080 		.p2align 4,,15
 2837      AFF30080 
 2838              		.global	HAL_PCD_EP_ClrStall
 2839              		.thumb
 2840              		.thumb_func
 2841              		.type	HAL_PCD_EP_ClrStall, %function
 2842              	HAL_PCD_EP_ClrStall:
 2843              	.LFB152:
 2844              		.loc 1 1247 0
 2845              		.cfi_startproc
 2846              		@ args = 0, pretend = 0, frame = 16
 2847              		@ frame_needed = 0, uses_anonymous_args = 0
 2848 1200 00B5     		push	{lr}
 2849              		.cfi_def_cfa_offset 4
 2850              		.cfi_offset 14, -4
 2851 1202 85B0     		sub	sp, sp, #20
 2852              		.cfi_def_cfa_offset 24
 2853 1204 0190     		str	r0, [sp, #4]
 2854 1206 0B46     		mov	r3, r1
 2855 1208 8DF80330 		strb	r3, [sp, #3]
 2856              		.loc 1 1248 0
 2857 120c 0023     		movs	r3, #0
 2858 120e 0393     		str	r3, [sp, #12]
 2859              		.loc 1 1250 0
 2860 1210 9DF80330 		ldrb	r3, [sp, #3]	@ zero_extendqisi2
 2861 1214 5BB2     		sxtb	r3, r3
 2862 1216 002B     		cmp	r3, #0
 2863 1218 0DDA     		bge	.L129
 2864              		.loc 1 1252 0
 2865 121a 9DF80330 		ldrb	r3, [sp, #3]	@ zero_extendqisi2
 2866 121e 03F07F02 		and	r2, r3, #127
 2867 1222 1346     		mov	r3, r2
 2868 1224 DB00     		lsls	r3, r3, #3
 2869 1226 9B1A     		subs	r3, r3, r2
 2870 1228 9B00     		lsls	r3, r3, #2
 2871 122a 3833     		adds	r3, r3, #56
 2872 122c 019A     		ldr	r2, [sp, #4]
 2873 122e 1344     		add	r3, r3, r2
 2874 1230 0433     		adds	r3, r3, #4
 2875 1232 0393     		str	r3, [sp, #12]
 2876 1234 0AE0     		b	.L130
 2877              	.L129:
 2878              		.loc 1 1256 0
 2879 1236 9DF80320 		ldrb	r2, [sp, #3]	@ zero_extendqisi2
 2880 123a 1346     		mov	r3, r2
 2881 123c DB00     		lsls	r3, r3, #3
 2882 123e 9B1A     		subs	r3, r3, r2
 2883 1240 9B00     		lsls	r3, r3, #2
 2884 1242 03F5F073 		add	r3, r3, #480
 2885 1246 019A     		ldr	r2, [sp, #4]
ARM GAS  /tmp/ccakcsKX.s 			page 52


 2886 1248 1344     		add	r3, r3, r2
 2887 124a 0393     		str	r3, [sp, #12]
 2888              	.L130:
 2889              		.loc 1 1259 0
 2890 124c 039B     		ldr	r3, [sp, #12]
 2891 124e 0022     		movs	r2, #0
 2892 1250 9A70     		strb	r2, [r3, #2]
 2893              		.loc 1 1260 0
 2894 1252 9DF80330 		ldrb	r3, [sp, #3]
 2895 1256 03F07F03 		and	r3, r3, #127
 2896 125a DAB2     		uxtb	r2, r3
 2897 125c 039B     		ldr	r3, [sp, #12]
 2898 125e 1A70     		strb	r2, [r3]
 2899              		.loc 1 1261 0
 2900 1260 9DF80330 		ldrb	r3, [sp, #3]	@ zero_extendqisi2
 2901 1264 DB09     		lsrs	r3, r3, #7
 2902 1266 DBB2     		uxtb	r3, r3
 2903 1268 1A46     		mov	r2, r3
 2904 126a 039B     		ldr	r3, [sp, #12]
 2905 126c 5A70     		strb	r2, [r3, #1]
 2906              		.loc 1 1263 0
 2907 126e 019B     		ldr	r3, [sp, #4]
 2908 1270 93F88433 		ldrb	r3, [r3, #900]	@ zero_extendqisi2
 2909 1274 012B     		cmp	r3, #1
 2910 1276 01D1     		bne	.L131
 2911              		.loc 1 1263 0 is_stmt 0 discriminator 1
 2912 1278 0223     		movs	r3, #2
 2913 127a 0EE0     		b	.L132
 2914              	.L131:
 2915              		.loc 1 1263 0 discriminator 2
 2916 127c 019B     		ldr	r3, [sp, #4]
 2917 127e 0122     		movs	r2, #1
 2918 1280 83F88423 		strb	r2, [r3, #900]
 2919              		.loc 1 1264 0 is_stmt 1 discriminator 2
 2920 1284 019B     		ldr	r3, [sp, #4]
 2921 1286 1B68     		ldr	r3, [r3]
 2922 1288 1846     		mov	r0, r3
 2923 128a 0399     		ldr	r1, [sp, #12]
 2924 128c FFF7FEFF 		bl	USB_EPClearStall
 2925              		.loc 1 1265 0 discriminator 2
 2926 1290 019B     		ldr	r3, [sp, #4]
 2927 1292 0022     		movs	r2, #0
 2928 1294 83F88423 		strb	r2, [r3, #900]
 2929              		.loc 1 1267 0 discriminator 2
 2930 1298 0023     		movs	r3, #0
 2931              	.L132:
 2932              		.loc 1 1268 0
 2933 129a 1846     		mov	r0, r3
 2934 129c 05B0     		add	sp, sp, #20
 2935              		@ sp needed
 2936 129e 5DF804FB 		ldr	pc, [sp], #4
 2937              		.cfi_endproc
 2938              	.LFE152:
 2939              		.size	HAL_PCD_EP_ClrStall, .-HAL_PCD_EP_ClrStall
 2940 12a2 00BF     		.align	2
 2941 12a4 AFF30080 		.p2align 4,,15
 2941      AFF30080 
ARM GAS  /tmp/ccakcsKX.s 			page 53


 2941      AFF30080 
 2942              		.global	HAL_PCD_EP_Flush
 2943              		.thumb
 2944              		.thumb_func
 2945              		.type	HAL_PCD_EP_Flush, %function
 2946              	HAL_PCD_EP_Flush:
 2947              	.LFB153:
 2948              		.loc 1 1277 0
 2949              		.cfi_startproc
 2950              		@ args = 0, pretend = 0, frame = 8
 2951              		@ frame_needed = 0, uses_anonymous_args = 0
 2952 12b0 00B5     		push	{lr}
 2953              		.cfi_def_cfa_offset 4
 2954              		.cfi_offset 14, -4
 2955 12b2 83B0     		sub	sp, sp, #12
 2956              		.cfi_def_cfa_offset 16
 2957 12b4 0190     		str	r0, [sp, #4]
 2958 12b6 0B46     		mov	r3, r1
 2959 12b8 8DF80330 		strb	r3, [sp, #3]
 2960              		.loc 1 1278 0
 2961 12bc 019B     		ldr	r3, [sp, #4]
 2962 12be 93F88433 		ldrb	r3, [r3, #900]	@ zero_extendqisi2
 2963 12c2 012B     		cmp	r3, #1
 2964 12c4 01D1     		bne	.L134
 2965              		.loc 1 1278 0 is_stmt 0 discriminator 1
 2966 12c6 0223     		movs	r3, #2
 2967 12c8 1DE0     		b	.L135
 2968              	.L134:
 2969              		.loc 1 1278 0 discriminator 2
 2970 12ca 019B     		ldr	r3, [sp, #4]
 2971 12cc 0122     		movs	r2, #1
 2972 12ce 83F88423 		strb	r2, [r3, #900]
 2973              		.loc 1 1280 0 is_stmt 1 discriminator 2
 2974 12d2 9DF80330 		ldrb	r3, [sp, #3]	@ zero_extendqisi2
 2975 12d6 5BB2     		sxtb	r3, r3
 2976 12d8 002B     		cmp	r3, #0
 2977 12da 0ADA     		bge	.L136
 2978              		.loc 1 1282 0
 2979 12dc 019B     		ldr	r3, [sp, #4]
 2980 12de 1A68     		ldr	r2, [r3]
 2981 12e0 9DF80330 		ldrb	r3, [sp, #3]	@ zero_extendqisi2
 2982 12e4 03F07F03 		and	r3, r3, #127
 2983 12e8 1046     		mov	r0, r2
 2984 12ea 1946     		mov	r1, r3
 2985 12ec FFF7FEFF 		bl	USB_FlushTxFifo
 2986 12f0 04E0     		b	.L137
 2987              	.L136:
 2988              		.loc 1 1286 0
 2989 12f2 019B     		ldr	r3, [sp, #4]
 2990 12f4 1B68     		ldr	r3, [r3]
 2991 12f6 1846     		mov	r0, r3
 2992 12f8 FFF7FEFF 		bl	USB_FlushRxFifo
 2993              	.L137:
 2994              		.loc 1 1289 0
 2995 12fc 019B     		ldr	r3, [sp, #4]
 2996 12fe 0022     		movs	r2, #0
 2997 1300 83F88423 		strb	r2, [r3, #900]
ARM GAS  /tmp/ccakcsKX.s 			page 54


 2998              		.loc 1 1291 0
 2999 1304 0023     		movs	r3, #0
 3000              	.L135:
 3001              		.loc 1 1292 0
 3002 1306 1846     		mov	r0, r3
 3003 1308 03B0     		add	sp, sp, #12
 3004              		@ sp needed
 3005 130a 5DF804FB 		ldr	pc, [sp], #4
 3006              		.cfi_endproc
 3007              	.LFE153:
 3008              		.size	HAL_PCD_EP_Flush, .-HAL_PCD_EP_Flush
 3009 130e 00BF     		.align	2
 3010              		.p2align 4,,15
 3011              		.global	HAL_PCD_ActivateRemoteWakeup
 3012              		.thumb
 3013              		.thumb_func
 3014              		.type	HAL_PCD_ActivateRemoteWakeup, %function
 3015              	HAL_PCD_ActivateRemoteWakeup:
 3016              	.LFB154:
 3017              		.loc 1 1300 0
 3018              		.cfi_startproc
 3019              		@ args = 0, pretend = 0, frame = 8
 3020              		@ frame_needed = 0, uses_anonymous_args = 0
 3021 1310 00B5     		push	{lr}
 3022              		.cfi_def_cfa_offset 4
 3023              		.cfi_offset 14, -4
 3024 1312 83B0     		sub	sp, sp, #12
 3025              		.cfi_def_cfa_offset 16
 3026 1314 0190     		str	r0, [sp, #4]
 3027              		.loc 1 1301 0
 3028 1316 019B     		ldr	r3, [sp, #4]
 3029 1318 1B68     		ldr	r3, [r3]
 3030 131a 1846     		mov	r0, r3
 3031 131c FFF7FEFF 		bl	USB_ActivateRemoteWakeup
 3032 1320 0346     		mov	r3, r0
 3033              		.loc 1 1302 0
 3034 1322 1846     		mov	r0, r3
 3035 1324 03B0     		add	sp, sp, #12
 3036              		@ sp needed
 3037 1326 5DF804FB 		ldr	pc, [sp], #4
 3038              		.cfi_endproc
 3039              	.LFE154:
 3040              		.size	HAL_PCD_ActivateRemoteWakeup, .-HAL_PCD_ActivateRemoteWakeup
 3041 132a 00BF     		.align	2
 3042 132c AFF30080 		.p2align 4,,15
 3043              		.global	HAL_PCD_DeActivateRemoteWakeup
 3044              		.thumb
 3045              		.thumb_func
 3046              		.type	HAL_PCD_DeActivateRemoteWakeup, %function
 3047              	HAL_PCD_DeActivateRemoteWakeup:
 3048              	.LFB155:
 3049              		.loc 1 1310 0
 3050              		.cfi_startproc
 3051              		@ args = 0, pretend = 0, frame = 8
 3052              		@ frame_needed = 0, uses_anonymous_args = 0
 3053 1330 00B5     		push	{lr}
 3054              		.cfi_def_cfa_offset 4
ARM GAS  /tmp/ccakcsKX.s 			page 55


 3055              		.cfi_offset 14, -4
 3056 1332 83B0     		sub	sp, sp, #12
 3057              		.cfi_def_cfa_offset 16
 3058 1334 0190     		str	r0, [sp, #4]
 3059              		.loc 1 1311 0
 3060 1336 019B     		ldr	r3, [sp, #4]
 3061 1338 1B68     		ldr	r3, [r3]
 3062 133a 1846     		mov	r0, r3
 3063 133c FFF7FEFF 		bl	USB_DeActivateRemoteWakeup
 3064 1340 0346     		mov	r3, r0
 3065              		.loc 1 1312 0
 3066 1342 1846     		mov	r0, r3
 3067 1344 03B0     		add	sp, sp, #12
 3068              		@ sp needed
 3069 1346 5DF804FB 		ldr	pc, [sp], #4
 3070              		.cfi_endproc
 3071              	.LFE155:
 3072              		.size	HAL_PCD_DeActivateRemoteWakeup, .-HAL_PCD_DeActivateRemoteWakeup
 3073 134a 00BF     		.align	2
 3074 134c AFF30080 		.p2align 4,,15
 3075              		.global	HAL_PCD_GetState
 3076              		.thumb
 3077              		.thumb_func
 3078              		.type	HAL_PCD_GetState, %function
 3079              	HAL_PCD_GetState:
 3080              	.LFB156:
 3081              		.loc 1 1338 0
 3082              		.cfi_startproc
 3083              		@ args = 0, pretend = 0, frame = 8
 3084              		@ frame_needed = 0, uses_anonymous_args = 0
 3085              		@ link register save eliminated.
 3086 1350 82B0     		sub	sp, sp, #8
 3087              		.cfi_def_cfa_offset 8
 3088 1352 0190     		str	r0, [sp, #4]
 3089              		.loc 1 1339 0
 3090 1354 019B     		ldr	r3, [sp, #4]
 3091 1356 93F88533 		ldrb	r3, [r3, #901]
 3092 135a DBB2     		uxtb	r3, r3
 3093              		.loc 1 1340 0
 3094 135c 1846     		mov	r0, r3
 3095 135e 02B0     		add	sp, sp, #8
 3096              		@ sp needed
 3097 1360 7047     		bx	lr
 3098              		.cfi_endproc
 3099              	.LFE156:
 3100              		.size	HAL_PCD_GetState, .-HAL_PCD_GetState
 3101 1362 00BF     		.align	2
 3102 1364 AFF30080 		.p2align 4,,15
 3102      AFF30080 
 3102      AFF30080 
 3103              		.thumb
 3104              		.thumb_func
 3105              		.type	PCD_WriteEmptyTxFifo, %function
 3106              	PCD_WriteEmptyTxFifo:
 3107              	.LFB157:
 3108              		.loc 1 1361 0
 3109              		.cfi_startproc
ARM GAS  /tmp/ccakcsKX.s 			page 56


 3110              		@ args = 0, pretend = 0, frame = 32
 3111              		@ frame_needed = 0, uses_anonymous_args = 0
 3112 1370 00B5     		push	{lr}
 3113              		.cfi_def_cfa_offset 4
 3114              		.cfi_offset 14, -4
 3115 1372 8BB0     		sub	sp, sp, #44
 3116              		.cfi_def_cfa_offset 48
 3117 1374 0390     		str	r0, [sp, #12]
 3118 1376 0291     		str	r1, [sp, #8]
 3119              		.loc 1 1362 0
 3120 1378 039B     		ldr	r3, [sp, #12]
 3121 137a 1B68     		ldr	r3, [r3]
 3122 137c 0793     		str	r3, [sp, #28]
 3123              		.loc 1 1363 0
 3124 137e 0023     		movs	r3, #0
 3125 1380 0693     		str	r3, [sp, #24]
 3126              		.loc 1 1364 0
 3127 1382 0023     		movs	r3, #0
 3128 1384 0993     		str	r3, [sp, #36]
 3129              		.loc 1 1365 0
 3130 1386 0023     		movs	r3, #0
 3131 1388 0893     		str	r3, [sp, #32]
 3132              		.loc 1 1366 0
 3133 138a 0023     		movs	r3, #0
 3134 138c 0593     		str	r3, [sp, #20]
 3135              		.loc 1 1368 0
 3136 138e 029A     		ldr	r2, [sp, #8]
 3137 1390 1346     		mov	r3, r2
 3138 1392 DB00     		lsls	r3, r3, #3
 3139 1394 9B1A     		subs	r3, r3, r2
 3140 1396 9B00     		lsls	r3, r3, #2
 3141 1398 3833     		adds	r3, r3, #56
 3142 139a 039A     		ldr	r2, [sp, #12]
 3143 139c 1344     		add	r3, r3, r2
 3144 139e 0433     		adds	r3, r3, #4
 3145 13a0 0693     		str	r3, [sp, #24]
 3146              		.loc 1 1369 0
 3147 13a2 069B     		ldr	r3, [sp, #24]
 3148 13a4 5A69     		ldr	r2, [r3, #20]
 3149 13a6 069B     		ldr	r3, [sp, #24]
 3150 13a8 9B69     		ldr	r3, [r3, #24]
 3151 13aa D31A     		subs	r3, r2, r3
 3152 13ac 0993     		str	r3, [sp, #36]
 3153              		.loc 1 1371 0
 3154 13ae 099A     		ldr	r2, [sp, #36]
 3155 13b0 069B     		ldr	r3, [sp, #24]
 3156 13b2 9B68     		ldr	r3, [r3, #8]
 3157 13b4 9A42     		cmp	r2, r3
 3158 13b6 02D9     		bls	.L145
 3159              		.loc 1 1373 0
 3160 13b8 069B     		ldr	r3, [sp, #24]
 3161 13ba 9B68     		ldr	r3, [r3, #8]
 3162 13bc 0993     		str	r3, [sp, #36]
 3163              	.L145:
 3164              		.loc 1 1377 0
 3165 13be 099B     		ldr	r3, [sp, #36]
 3166 13c0 0333     		adds	r3, r3, #3
ARM GAS  /tmp/ccakcsKX.s 			page 57


 3167 13c2 002B     		cmp	r3, #0
 3168 13c4 00DA     		bge	.L146
 3169 13c6 0333     		adds	r3, r3, #3
 3170              	.L146:
 3171 13c8 9B10     		asrs	r3, r3, #2
 3172 13ca 0893     		str	r3, [sp, #32]
 3173              		.loc 1 1379 0
 3174 13cc 2DE0     		b	.L147
 3175              	.L151:
 3176              		.loc 1 1384 0
 3177 13ce 069B     		ldr	r3, [sp, #24]
 3178 13d0 5A69     		ldr	r2, [r3, #20]
 3179 13d2 069B     		ldr	r3, [sp, #24]
 3180 13d4 9B69     		ldr	r3, [r3, #24]
 3181 13d6 D31A     		subs	r3, r2, r3
 3182 13d8 0993     		str	r3, [sp, #36]
 3183              		.loc 1 1386 0
 3184 13da 099A     		ldr	r2, [sp, #36]
 3185 13dc 069B     		ldr	r3, [sp, #24]
 3186 13de 9B68     		ldr	r3, [r3, #8]
 3187 13e0 9A42     		cmp	r2, r3
 3188 13e2 02D9     		bls	.L148
 3189              		.loc 1 1388 0
 3190 13e4 069B     		ldr	r3, [sp, #24]
 3191 13e6 9B68     		ldr	r3, [r3, #8]
 3192 13e8 0993     		str	r3, [sp, #36]
 3193              	.L148:
 3194              		.loc 1 1390 0
 3195 13ea 099B     		ldr	r3, [sp, #36]
 3196 13ec 0333     		adds	r3, r3, #3
 3197 13ee 002B     		cmp	r3, #0
 3198 13f0 00DA     		bge	.L149
 3199 13f2 0333     		adds	r3, r3, #3
 3200              	.L149:
 3201 13f4 9B10     		asrs	r3, r3, #2
 3202 13f6 0893     		str	r3, [sp, #32]
 3203              		.loc 1 1392 0
 3204 13f8 069B     		ldr	r3, [sp, #24]
 3205 13fa D968     		ldr	r1, [r3, #12]
 3206 13fc 029B     		ldr	r3, [sp, #8]
 3207 13fe DAB2     		uxtb	r2, r3
 3208 1400 099B     		ldr	r3, [sp, #36]
 3209 1402 9BB2     		uxth	r3, r3
 3210 1404 0398     		ldr	r0, [sp, #12]
 3211 1406 0069     		ldr	r0, [r0, #16]
 3212 1408 C0B2     		uxtb	r0, r0
 3213 140a 0090     		str	r0, [sp]
 3214 140c 0798     		ldr	r0, [sp, #28]
 3215 140e FFF7FEFF 		bl	USB_WritePacket
 3216              		.loc 1 1394 0
 3217 1412 069B     		ldr	r3, [sp, #24]
 3218 1414 DA68     		ldr	r2, [r3, #12]
 3219 1416 099B     		ldr	r3, [sp, #36]
 3220 1418 1A44     		add	r2, r2, r3
 3221 141a 069B     		ldr	r3, [sp, #24]
 3222 141c DA60     		str	r2, [r3, #12]
 3223              		.loc 1 1395 0
ARM GAS  /tmp/ccakcsKX.s 			page 58


 3224 141e 069B     		ldr	r3, [sp, #24]
 3225 1420 9A69     		ldr	r2, [r3, #24]
 3226 1422 099B     		ldr	r3, [sp, #36]
 3227 1424 1A44     		add	r2, r2, r3
 3228 1426 069B     		ldr	r3, [sp, #24]
 3229 1428 9A61     		str	r2, [r3, #24]
 3230              	.L147:
 3231              		.loc 1 1379 0 discriminator 1
 3232 142a 029B     		ldr	r3, [sp, #8]
 3233 142c 5A01     		lsls	r2, r3, #5
 3234 142e 079B     		ldr	r3, [sp, #28]
 3235 1430 1344     		add	r3, r3, r2
 3236 1432 03F51063 		add	r3, r3, #2304
 3237 1436 9B69     		ldr	r3, [r3, #24]
 3238 1438 9AB2     		uxth	r2, r3
 3239 143a 089B     		ldr	r3, [sp, #32]
 3240 143c 9A42     		cmp	r2, r3
 3241 143e 09D9     		bls	.L150
 3242              		.loc 1 1380 0 discriminator 2
 3243 1440 069B     		ldr	r3, [sp, #24]
 3244 1442 9A69     		ldr	r2, [r3, #24]
 3245 1444 069B     		ldr	r3, [sp, #24]
 3246 1446 5B69     		ldr	r3, [r3, #20]
 3247              		.loc 1 1379 0 discriminator 2
 3248 1448 9A42     		cmp	r2, r3
 3249 144a 03D2     		bcs	.L150
 3250              		.loc 1 1381 0
 3251 144c 069B     		ldr	r3, [sp, #24]
 3252 144e 5B69     		ldr	r3, [r3, #20]
 3253              		.loc 1 1380 0
 3254 1450 002B     		cmp	r3, #0
 3255 1452 BCD1     		bne	.L151
 3256              	.L150:
 3257              		.loc 1 1398 0
 3258 1454 099B     		ldr	r3, [sp, #36]
 3259 1456 002B     		cmp	r3, #0
 3260 1458 0FDC     		bgt	.L152
 3261              		.loc 1 1400 0
 3262 145a 029B     		ldr	r3, [sp, #8]
 3263 145c 0122     		movs	r2, #1
 3264 145e 02FA03F3 		lsl	r3, r2, r3
 3265 1462 0593     		str	r3, [sp, #20]
 3266              		.loc 1 1401 0
 3267 1464 079B     		ldr	r3, [sp, #28]
 3268 1466 03F50063 		add	r3, r3, #2048
 3269 146a 079A     		ldr	r2, [sp, #28]
 3270 146c 02F50062 		add	r2, r2, #2048
 3271 1470 516B     		ldr	r1, [r2, #52]
 3272 1472 059A     		ldr	r2, [sp, #20]
 3273 1474 D243     		mvns	r2, r2
 3274 1476 0A40     		ands	r2, r2, r1
 3275 1478 5A63     		str	r2, [r3, #52]
 3276              	.L152:
 3277              		.loc 1 1405 0
 3278 147a 0023     		movs	r3, #0
 3279              		.loc 1 1406 0
 3280 147c 1846     		mov	r0, r3
ARM GAS  /tmp/ccakcsKX.s 			page 59


 3281 147e 0BB0     		add	sp, sp, #44
 3282              		@ sp needed
 3283 1480 5DF804FB 		ldr	pc, [sp], #4
 3284              		.cfi_endproc
 3285              	.LFE157:
 3286              		.size	PCD_WriteEmptyTxFifo, .-PCD_WriteEmptyTxFifo
 3287              	.Letext0:
 3288              		.file 2 "/nfs/nfs5/home/research/hardware/arm2/gcc-arm-embedded/gcc-arm-none-eabi-4_8-2014q2/arm-n
 3289              		.file 3 "/nfs/nfs5/home/research/hardware/arm2/gcc-arm-embedded/gcc-arm-none-eabi-4_8-2014q2/arm-n
 3290              		.file 4 "../../../../../../ChibiOS/os/ext/CMSIS/ST/STM32L4xx/stm32l476xx.h"
 3291              		.file 5 "../../../../../Drivers/STM32L4xx_HAL_Driver/Inc/stm32l4xx_hal_def.h"
 3292              		.file 6 "../../../../../Drivers/STM32L4xx_HAL_Driver/Inc/stm32l4xx_ll_usb.h"
 3293              		.file 7 "../../../../../Drivers/STM32L4xx_HAL_Driver/Inc/stm32l4xx_hal_pcd.h"
 3294              		.file 8 "../../../../../Drivers/STM32L4xx_HAL_Driver/Inc/stm32l4xx_hal_pcd_ex.h"
 3295              		.file 9 "../../../../../../ChibiOS/os/ext/CMSIS/include/core_cm4.h"