ARM GAS  /tmp/ccHRl1iB.s 			page 1


   1              		.syntax unified
   2              		.cpu cortex-m4
   3              		.fpu softvfp
   4              		.eabi_attribute 20, 1
   5              		.eabi_attribute 21, 1
   6              		.eabi_attribute 23, 3
   7              		.eabi_attribute 24, 1
   8              		.eabi_attribute 25, 1
   9              		.eabi_attribute 26, 1
  10              		.eabi_attribute 30, 6
  11              		.eabi_attribute 34, 1
  12              		.eabi_attribute 18, 4
  13              		.thumb
  14              		.file	"stm32l4xx_hal_rtc.c"
  15              		.text
  16              	.Ltext0:
  17              		.cfi_sections	.debug_frame
  18              		.align	2
  19              		.p2align 4,,15
  20              		.global	HAL_RTC_Init
  21              		.thumb
  22              		.thumb_func
  23              		.type	HAL_RTC_Init, %function
  24              	HAL_RTC_Init:
  25              	.LFB125:
  26              		.file 1 "../../../../../Drivers/STM32L4xx_HAL_Driver/Src/stm32l4xx_hal_rtc.c"
  27              		.loc 1 187 0
  28              		.cfi_startproc
  29              		@ args = 0, pretend = 0, frame = 8
  30              		@ frame_needed = 0, uses_anonymous_args = 0
  31 0000 00B5     		push	{lr}
  32              		.cfi_def_cfa_offset 4
  33              		.cfi_offset 14, -4
  34 0002 83B0     		sub	sp, sp, #12
  35              		.cfi_def_cfa_offset 16
  36 0004 0190     		str	r0, [sp, #4]
  37              		.loc 1 189 0
  38 0006 019B     		ldr	r3, [sp, #4]
  39 0008 002B     		cmp	r3, #0
  40 000a 01D1     		bne	.L2
  41              		.loc 1 191 0
  42 000c 0123     		movs	r3, #1
  43 000e 75E0     		b	.L3
  44              	.L2:
  45              		.loc 1 204 0
  46 0010 019B     		ldr	r3, [sp, #4]
  47 0012 93F82130 		ldrb	r3, [r3, #33]
  48 0016 DBB2     		uxtb	r3, r3
  49 0018 002B     		cmp	r3, #0
  50 001a 06D1     		bne	.L4
  51              		.loc 1 207 0
  52 001c 019B     		ldr	r3, [sp, #4]
  53 001e 0022     		movs	r2, #0
  54 0020 83F82020 		strb	r2, [r3, #32]
  55              		.loc 1 210 0
  56 0024 0198     		ldr	r0, [sp, #4]
  57 0026 FFF7FEFF 		bl	HAL_RTC_MspInit
ARM GAS  /tmp/ccHRl1iB.s 			page 2


  58              	.L4:
  59              		.loc 1 214 0
  60 002a 019B     		ldr	r3, [sp, #4]
  61 002c 0222     		movs	r2, #2
  62 002e 83F82120 		strb	r2, [r3, #33]
  63              		.loc 1 217 0
  64 0032 019B     		ldr	r3, [sp, #4]
  65 0034 1B68     		ldr	r3, [r3]
  66 0036 CA22     		movs	r2, #202
  67 0038 5A62     		str	r2, [r3, #36]
  68 003a 019B     		ldr	r3, [sp, #4]
  69 003c 1B68     		ldr	r3, [r3]
  70 003e 5322     		movs	r2, #83
  71 0040 5A62     		str	r2, [r3, #36]
  72              		.loc 1 220 0
  73 0042 0198     		ldr	r0, [sp, #4]
  74 0044 FFF7FEFF 		bl	RTC_EnterInitMode
  75 0048 0346     		mov	r3, r0
  76 004a 002B     		cmp	r3, #0
  77 004c 09D0     		beq	.L5
  78              		.loc 1 223 0
  79 004e 019B     		ldr	r3, [sp, #4]
  80 0050 1B68     		ldr	r3, [r3]
  81 0052 FF22     		movs	r2, #255
  82 0054 5A62     		str	r2, [r3, #36]
  83              		.loc 1 226 0
  84 0056 019B     		ldr	r3, [sp, #4]
  85 0058 0422     		movs	r2, #4
  86 005a 83F82120 		strb	r2, [r3, #33]
  87              		.loc 1 228 0
  88 005e 0123     		movs	r3, #1
  89 0060 4CE0     		b	.L3
  90              	.L5:
  91              		.loc 1 233 0
  92 0062 019B     		ldr	r3, [sp, #4]
  93 0064 1A68     		ldr	r2, [r3]
  94 0066 019B     		ldr	r3, [sp, #4]
  95 0068 1B68     		ldr	r3, [r3]
  96 006a 9B68     		ldr	r3, [r3, #8]
  97 006c 23F4E003 		bic	r3, r3, #7340032
  98 0070 23F04003 		bic	r3, r3, #64
  99 0074 9360     		str	r3, [r2, #8]
 100              		.loc 1 235 0
 101 0076 019B     		ldr	r3, [sp, #4]
 102 0078 1B68     		ldr	r3, [r3]
 103 007a 019A     		ldr	r2, [sp, #4]
 104 007c 1268     		ldr	r2, [r2]
 105 007e 9168     		ldr	r1, [r2, #8]
 106 0080 019A     		ldr	r2, [sp, #4]
 107 0082 5068     		ldr	r0, [r2, #4]
 108 0084 019A     		ldr	r2, [sp, #4]
 109 0086 1269     		ldr	r2, [r2, #16]
 110 0088 1043     		orrs	r0, r0, r2
 111 008a 019A     		ldr	r2, [sp, #4]
 112 008c 9269     		ldr	r2, [r2, #24]
 113 008e 0243     		orrs	r2, r2, r0
 114 0090 0A43     		orrs	r2, r2, r1
ARM GAS  /tmp/ccHRl1iB.s 			page 3


 115 0092 9A60     		str	r2, [r3, #8]
 116              		.loc 1 238 0
 117 0094 019B     		ldr	r3, [sp, #4]
 118 0096 1B68     		ldr	r3, [r3]
 119 0098 019A     		ldr	r2, [sp, #4]
 120 009a D268     		ldr	r2, [r2, #12]
 121 009c 1A61     		str	r2, [r3, #16]
 122              		.loc 1 239 0
 123 009e 019B     		ldr	r3, [sp, #4]
 124 00a0 1B68     		ldr	r3, [r3]
 125 00a2 019A     		ldr	r2, [sp, #4]
 126 00a4 1268     		ldr	r2, [r2]
 127 00a6 1169     		ldr	r1, [r2, #16]
 128 00a8 019A     		ldr	r2, [sp, #4]
 129 00aa 9268     		ldr	r2, [r2, #8]
 130 00ac 1204     		lsls	r2, r2, #16
 131 00ae 0A43     		orrs	r2, r2, r1
 132 00b0 1A61     		str	r2, [r3, #16]
 133              		.loc 1 242 0
 134 00b2 019B     		ldr	r3, [sp, #4]
 135 00b4 1B68     		ldr	r3, [r3]
 136 00b6 019A     		ldr	r2, [sp, #4]
 137 00b8 1268     		ldr	r2, [r2]
 138 00ba D268     		ldr	r2, [r2, #12]
 139 00bc 22F08002 		bic	r2, r2, #128
 140 00c0 DA60     		str	r2, [r3, #12]
 141              		.loc 1 244 0
 142 00c2 019B     		ldr	r3, [sp, #4]
 143 00c4 1B68     		ldr	r3, [r3]
 144 00c6 019A     		ldr	r2, [sp, #4]
 145 00c8 1268     		ldr	r2, [r2]
 146 00ca D26C     		ldr	r2, [r2, #76]
 147 00cc 22F00302 		bic	r2, r2, #3
 148 00d0 DA64     		str	r2, [r3, #76]
 149              		.loc 1 245 0
 150 00d2 019B     		ldr	r3, [sp, #4]
 151 00d4 1B68     		ldr	r3, [r3]
 152 00d6 019A     		ldr	r2, [sp, #4]
 153 00d8 1268     		ldr	r2, [r2]
 154 00da D16C     		ldr	r1, [r2, #76]
 155 00dc 019A     		ldr	r2, [sp, #4]
 156 00de D069     		ldr	r0, [r2, #28]
 157 00e0 019A     		ldr	r2, [sp, #4]
 158 00e2 5269     		ldr	r2, [r2, #20]
 159 00e4 0243     		orrs	r2, r2, r0
 160 00e6 0A43     		orrs	r2, r2, r1
 161 00e8 DA64     		str	r2, [r3, #76]
 162              		.loc 1 248 0
 163 00ea 019B     		ldr	r3, [sp, #4]
 164 00ec 1B68     		ldr	r3, [r3]
 165 00ee FF22     		movs	r2, #255
 166 00f0 5A62     		str	r2, [r3, #36]
 167              		.loc 1 251 0
 168 00f2 019B     		ldr	r3, [sp, #4]
 169 00f4 0122     		movs	r2, #1
 170 00f6 83F82120 		strb	r2, [r3, #33]
 171              		.loc 1 253 0
ARM GAS  /tmp/ccHRl1iB.s 			page 4


 172 00fa 0023     		movs	r3, #0
 173              	.L3:
 174              		.loc 1 255 0
 175 00fc 1846     		mov	r0, r3
 176 00fe 03B0     		add	sp, sp, #12
 177              		@ sp needed
 178 0100 5DF804FB 		ldr	pc, [sp], #4
 179              		.cfi_endproc
 180              	.LFE125:
 181              		.size	HAL_RTC_Init, .-HAL_RTC_Init
 182              		.align	2
 183 0104 AFF30080 		.p2align 4,,15
 183      AFF30080 
 183      AFF30080 
 184              		.global	HAL_RTC_DeInit
 185              		.thumb
 186              		.thumb_func
 187              		.type	HAL_RTC_DeInit, %function
 188              	HAL_RTC_DeInit:
 189              	.LFB126:
 190              		.loc 1 264 0
 191              		.cfi_startproc
 192              		@ args = 0, pretend = 0, frame = 16
 193              		@ frame_needed = 0, uses_anonymous_args = 0
 194 0110 00B5     		push	{lr}
 195              		.cfi_def_cfa_offset 4
 196              		.cfi_offset 14, -4
 197 0112 85B0     		sub	sp, sp, #20
 198              		.cfi_def_cfa_offset 24
 199 0114 0190     		str	r0, [sp, #4]
 200              		.loc 1 265 0
 201 0116 0023     		movs	r3, #0
 202 0118 0393     		str	r3, [sp, #12]
 203              		.loc 1 271 0
 204 011a 019B     		ldr	r3, [sp, #4]
 205 011c 0222     		movs	r2, #2
 206 011e 83F82120 		strb	r2, [r3, #33]
 207              		.loc 1 274 0
 208 0122 019B     		ldr	r3, [sp, #4]
 209 0124 1B68     		ldr	r3, [r3]
 210 0126 CA22     		movs	r2, #202
 211 0128 5A62     		str	r2, [r3, #36]
 212 012a 019B     		ldr	r3, [sp, #4]
 213 012c 1B68     		ldr	r3, [r3]
 214 012e 5322     		movs	r2, #83
 215 0130 5A62     		str	r2, [r3, #36]
 216              		.loc 1 277 0
 217 0132 0198     		ldr	r0, [sp, #4]
 218 0134 FFF7FEFF 		bl	RTC_EnterInitMode
 219 0138 0346     		mov	r3, r0
 220 013a 002B     		cmp	r3, #0
 221 013c 09D0     		beq	.L7
 222              		.loc 1 280 0
 223 013e 019B     		ldr	r3, [sp, #4]
 224 0140 1B68     		ldr	r3, [r3]
 225 0142 FF22     		movs	r2, #255
 226 0144 5A62     		str	r2, [r3, #36]
ARM GAS  /tmp/ccHRl1iB.s 			page 5


 227              		.loc 1 283 0
 228 0146 019B     		ldr	r3, [sp, #4]
 229 0148 0422     		movs	r2, #4
 230 014a 83F82120 		strb	r2, [r3, #33]
 231              		.loc 1 285 0
 232 014e 0123     		movs	r3, #1
 233 0150 88E0     		b	.L8
 234              	.L7:
 235              		.loc 1 290 0
 236 0152 019B     		ldr	r3, [sp, #4]
 237 0154 1B68     		ldr	r3, [r3]
 238 0156 0022     		movs	r2, #0
 239 0158 1A60     		str	r2, [r3]
 240              		.loc 1 291 0
 241 015a 019B     		ldr	r3, [sp, #4]
 242 015c 1B68     		ldr	r3, [r3]
 243 015e 42F20112 		movw	r2, #8449
 244 0162 5A60     		str	r2, [r3, #4]
 245              		.loc 1 293 0
 246 0164 019B     		ldr	r3, [sp, #4]
 247 0166 1B68     		ldr	r3, [r3]
 248 0168 019A     		ldr	r2, [sp, #4]
 249 016a 1268     		ldr	r2, [r2]
 250 016c 9268     		ldr	r2, [r2, #8]
 251 016e 02F00702 		and	r2, r2, #7
 252 0172 9A60     		str	r2, [r3, #8]
 253              		.loc 1 295 0
 254 0174 FFF7FEFF 		bl	HAL_GetTick
 255 0178 0390     		str	r0, [sp, #12]
 256              		.loc 1 298 0
 257 017a 11E0     		b	.L9
 258              	.L10:
 259              		.loc 1 300 0
 260 017c FFF7FEFF 		bl	HAL_GetTick
 261 0180 0246     		mov	r2, r0
 262 0182 039B     		ldr	r3, [sp, #12]
 263 0184 D31A     		subs	r3, r2, r3
 264 0186 B3F57A7F 		cmp	r3, #1000
 265 018a 09D9     		bls	.L9
 266              		.loc 1 303 0
 267 018c 019B     		ldr	r3, [sp, #4]
 268 018e 1B68     		ldr	r3, [r3]
 269 0190 FF22     		movs	r2, #255
 270 0192 5A62     		str	r2, [r3, #36]
 271              		.loc 1 306 0
 272 0194 019B     		ldr	r3, [sp, #4]
 273 0196 0322     		movs	r2, #3
 274 0198 83F82120 		strb	r2, [r3, #33]
 275              		.loc 1 308 0
 276 019c 0323     		movs	r3, #3
 277 019e 61E0     		b	.L8
 278              	.L9:
 279              		.loc 1 298 0 discriminator 1
 280 01a0 019B     		ldr	r3, [sp, #4]
 281 01a2 1B68     		ldr	r3, [r3]
 282 01a4 DB68     		ldr	r3, [r3, #12]
 283 01a6 03F00403 		and	r3, r3, #4
ARM GAS  /tmp/ccHRl1iB.s 			page 6


 284 01aa 002B     		cmp	r3, #0
 285 01ac E6D0     		beq	.L10
 286              		.loc 1 313 0
 287 01ae 019B     		ldr	r3, [sp, #4]
 288 01b0 1B68     		ldr	r3, [r3]
 289 01b2 9B68     		ldr	r3, [r3, #8]
 290 01b4 019B     		ldr	r3, [sp, #4]
 291 01b6 1B68     		ldr	r3, [r3]
 292 01b8 0022     		movs	r2, #0
 293 01ba 9A60     		str	r2, [r3, #8]
 294              		.loc 1 314 0
 295 01bc 019B     		ldr	r3, [sp, #4]
 296 01be 1B68     		ldr	r3, [r3]
 297 01c0 4FF6FF72 		movw	r2, #65535
 298 01c4 5A61     		str	r2, [r3, #20]
 299              		.loc 1 315 0
 300 01c6 019B     		ldr	r3, [sp, #4]
 301 01c8 1B68     		ldr	r3, [r3]
 302 01ca 284A     		ldr	r2, .L12
 303 01cc 1A61     		str	r2, [r3, #16]
 304              		.loc 1 316 0
 305 01ce 019B     		ldr	r3, [sp, #4]
 306 01d0 1B68     		ldr	r3, [r3]
 307 01d2 0022     		movs	r2, #0
 308 01d4 DA61     		str	r2, [r3, #28]
 309              		.loc 1 317 0
 310 01d6 019B     		ldr	r3, [sp, #4]
 311 01d8 1B68     		ldr	r3, [r3]
 312 01da 0022     		movs	r2, #0
 313 01dc 1A62     		str	r2, [r3, #32]
 314              		.loc 1 318 0
 315 01de 019B     		ldr	r3, [sp, #4]
 316 01e0 1B68     		ldr	r3, [r3]
 317 01e2 0022     		movs	r2, #0
 318 01e4 DA62     		str	r2, [r3, #44]
 319              		.loc 1 319 0
 320 01e6 019B     		ldr	r3, [sp, #4]
 321 01e8 1B68     		ldr	r3, [r3]
 322 01ea 0022     		movs	r2, #0
 323 01ec DA63     		str	r2, [r3, #60]
 324              		.loc 1 320 0
 325 01ee 019B     		ldr	r3, [sp, #4]
 326 01f0 1B68     		ldr	r3, [r3]
 327 01f2 0022     		movs	r2, #0
 328 01f4 5A64     		str	r2, [r3, #68]
 329              		.loc 1 321 0
 330 01f6 019B     		ldr	r3, [sp, #4]
 331 01f8 1B68     		ldr	r3, [r3]
 332 01fa 0022     		movs	r2, #0
 333 01fc 9A64     		str	r2, [r3, #72]
 334              		.loc 1 324 0
 335 01fe 019B     		ldr	r3, [sp, #4]
 336 0200 1B68     		ldr	r3, [r3]
 337 0202 0022     		movs	r2, #0
 338 0204 DA60     		str	r2, [r3, #12]
 339              		.loc 1 327 0
 340 0206 019B     		ldr	r3, [sp, #4]
ARM GAS  /tmp/ccHRl1iB.s 			page 7


 341 0208 1B68     		ldr	r3, [r3]
 342 020a 0022     		movs	r2, #0
 343 020c 1A64     		str	r2, [r3, #64]
 344              		.loc 1 330 0
 345 020e 019B     		ldr	r3, [sp, #4]
 346 0210 1B68     		ldr	r3, [r3]
 347 0212 0022     		movs	r2, #0
 348 0214 DA64     		str	r2, [r3, #76]
 349              		.loc 1 333 0
 350 0216 019B     		ldr	r3, [sp, #4]
 351 0218 1B68     		ldr	r3, [r3]
 352 021a 9B68     		ldr	r3, [r3, #8]
 353 021c 03F02003 		and	r3, r3, #32
 354 0220 002B     		cmp	r3, #0
 355 0222 0FD1     		bne	.L11
 356              		.loc 1 335 0
 357 0224 0198     		ldr	r0, [sp, #4]
 358 0226 FFF7FEFF 		bl	HAL_RTC_WaitForSynchro
 359 022a 0346     		mov	r3, r0
 360 022c 002B     		cmp	r3, #0
 361 022e 09D0     		beq	.L11
 362              		.loc 1 338 0
 363 0230 019B     		ldr	r3, [sp, #4]
 364 0232 1B68     		ldr	r3, [r3]
 365 0234 FF22     		movs	r2, #255
 366 0236 5A62     		str	r2, [r3, #36]
 367              		.loc 1 340 0
 368 0238 019B     		ldr	r3, [sp, #4]
 369 023a 0422     		movs	r2, #4
 370 023c 83F82120 		strb	r2, [r3, #33]
 371              		.loc 1 342 0
 372 0240 0123     		movs	r3, #1
 373 0242 0FE0     		b	.L8
 374              	.L11:
 375              		.loc 1 348 0
 376 0244 019B     		ldr	r3, [sp, #4]
 377 0246 1B68     		ldr	r3, [r3]
 378 0248 FF22     		movs	r2, #255
 379 024a 5A62     		str	r2, [r3, #36]
 380              		.loc 1 351 0
 381 024c 0198     		ldr	r0, [sp, #4]
 382 024e FFF7FEFF 		bl	HAL_RTC_MspDeInit
 383              		.loc 1 353 0
 384 0252 019B     		ldr	r3, [sp, #4]
 385 0254 0022     		movs	r2, #0
 386 0256 83F82120 		strb	r2, [r3, #33]
 387              		.loc 1 356 0
 388 025a 019B     		ldr	r3, [sp, #4]
 389 025c 0022     		movs	r2, #0
 390 025e 83F82020 		strb	r2, [r3, #32]
 391              		.loc 1 358 0
 392 0262 0023     		movs	r3, #0
 393              	.L8:
 394              		.loc 1 359 0
 395 0264 1846     		mov	r0, r3
 396 0266 05B0     		add	sp, sp, #20
 397              		@ sp needed
ARM GAS  /tmp/ccHRl1iB.s 			page 8


 398 0268 5DF804FB 		ldr	pc, [sp], #4
 399              	.L13:
 400              		.align	2
 401              	.L12:
 402 026c FF007F00 		.word	8323327
 403              		.cfi_endproc
 404              	.LFE126:
 405              		.size	HAL_RTC_DeInit, .-HAL_RTC_DeInit
 406              		.align	2
 407              		.p2align 4,,15
 408              		.weak	HAL_RTC_MspInit
 409              		.thumb
 410              		.thumb_func
 411              		.type	HAL_RTC_MspInit, %function
 412              	HAL_RTC_MspInit:
 413              	.LFB127:
 414              		.loc 1 367 0
 415              		.cfi_startproc
 416              		@ args = 0, pretend = 0, frame = 8
 417              		@ frame_needed = 0, uses_anonymous_args = 0
 418              		@ link register save eliminated.
 419 0270 82B0     		sub	sp, sp, #8
 420              		.cfi_def_cfa_offset 8
 421 0272 0190     		str	r0, [sp, #4]
 422              		.loc 1 374 0
 423 0274 02B0     		add	sp, sp, #8
 424              		@ sp needed
 425 0276 7047     		bx	lr
 426              		.cfi_endproc
 427              	.LFE127:
 428              		.size	HAL_RTC_MspInit, .-HAL_RTC_MspInit
 429              		.align	2
 430 0278 AFF30080 		.p2align 4,,15
 430      AFF30080 
 431              		.weak	HAL_RTC_MspDeInit
 432              		.thumb
 433              		.thumb_func
 434              		.type	HAL_RTC_MspDeInit, %function
 435              	HAL_RTC_MspDeInit:
 436              	.LFB128:
 437              		.loc 1 382 0
 438              		.cfi_startproc
 439              		@ args = 0, pretend = 0, frame = 8
 440              		@ frame_needed = 0, uses_anonymous_args = 0
 441              		@ link register save eliminated.
 442 0280 82B0     		sub	sp, sp, #8
 443              		.cfi_def_cfa_offset 8
 444 0282 0190     		str	r0, [sp, #4]
 445              		.loc 1 389 0
 446 0284 02B0     		add	sp, sp, #8
 447              		@ sp needed
 448 0286 7047     		bx	lr
 449              		.cfi_endproc
 450              	.LFE128:
 451              		.size	HAL_RTC_MspDeInit, .-HAL_RTC_MspDeInit
 452              		.align	2
 453 0288 AFF30080 		.p2align 4,,15
ARM GAS  /tmp/ccHRl1iB.s 			page 9


 453      AFF30080 
 454              		.global	HAL_RTC_SetTime
 455              		.thumb
 456              		.thumb_func
 457              		.type	HAL_RTC_SetTime, %function
 458              	HAL_RTC_SetTime:
 459              	.LFB129:
 460              		.loc 1 420 0
 461              		.cfi_startproc
 462              		@ args = 0, pretend = 0, frame = 24
 463              		@ frame_needed = 0, uses_anonymous_args = 0
 464 0290 10B5     		push	{r4, lr}
 465              		.cfi_def_cfa_offset 8
 466              		.cfi_offset 4, -8
 467              		.cfi_offset 14, -4
 468 0292 86B0     		sub	sp, sp, #24
 469              		.cfi_def_cfa_offset 32
 470 0294 0390     		str	r0, [sp, #12]
 471 0296 0291     		str	r1, [sp, #8]
 472 0298 0192     		str	r2, [sp, #4]
 473              		.loc 1 421 0
 474 029a 0023     		movs	r3, #0
 475 029c 0593     		str	r3, [sp, #20]
 476              		.loc 1 429 0
 477 029e 039B     		ldr	r3, [sp, #12]
 478 02a0 93F82030 		ldrb	r3, [r3, #32]	@ zero_extendqisi2
 479 02a4 012B     		cmp	r3, #1
 480 02a6 01D1     		bne	.L17
 481              		.loc 1 429 0 is_stmt 0 discriminator 1
 482 02a8 0223     		movs	r3, #2
 483 02aa BAE0     		b	.L18
 484              	.L17:
 485              		.loc 1 429 0 discriminator 2
 486 02ac 039B     		ldr	r3, [sp, #12]
 487 02ae 0122     		movs	r2, #1
 488 02b0 83F82020 		strb	r2, [r3, #32]
 489              		.loc 1 431 0 is_stmt 1 discriminator 2
 490 02b4 039B     		ldr	r3, [sp, #12]
 491 02b6 0222     		movs	r2, #2
 492 02b8 83F82120 		strb	r2, [r3, #33]
 493              		.loc 1 433 0 discriminator 2
 494 02bc 019B     		ldr	r3, [sp, #4]
 495 02be 002B     		cmp	r3, #0
 496 02c0 26D1     		bne	.L19
 497              		.loc 1 435 0
 498 02c2 039B     		ldr	r3, [sp, #12]
 499 02c4 1B68     		ldr	r3, [r3]
 500 02c6 9B68     		ldr	r3, [r3, #8]
 501 02c8 03F04003 		and	r3, r3, #64
 502 02cc 002B     		cmp	r3, #0
 503 02ce 02D1     		bne	.L20
 504              		.loc 1 442 0
 505 02d0 029B     		ldr	r3, [sp, #8]
 506 02d2 0022     		movs	r2, #0
 507 02d4 DA70     		strb	r2, [r3, #3]
 508              	.L20:
 509              		.loc 1 448 0 discriminator 1
ARM GAS  /tmp/ccHRl1iB.s 			page 10


 510 02d6 029B     		ldr	r3, [sp, #8]
 511 02d8 1B78     		ldrb	r3, [r3]	@ zero_extendqisi2
 512 02da 1846     		mov	r0, r3
 513 02dc FFF7FEFF 		bl	RTC_ByteToBcd2
 514 02e0 0346     		mov	r3, r0
 515 02e2 1C04     		lsls	r4, r3, #16
 516              		.loc 1 449 0 discriminator 1
 517 02e4 029B     		ldr	r3, [sp, #8]
 518 02e6 5B78     		ldrb	r3, [r3, #1]	@ zero_extendqisi2
 519 02e8 1846     		mov	r0, r3
 520 02ea FFF7FEFF 		bl	RTC_ByteToBcd2
 521 02ee 0346     		mov	r3, r0
 522 02f0 1B02     		lsls	r3, r3, #8
 523              		.loc 1 448 0 discriminator 1
 524 02f2 1C43     		orrs	r4, r4, r3
 525              		.loc 1 450 0 discriminator 1
 526 02f4 029B     		ldr	r3, [sp, #8]
 527 02f6 9B78     		ldrb	r3, [r3, #2]	@ zero_extendqisi2
 528 02f8 1846     		mov	r0, r3
 529 02fa FFF7FEFF 		bl	RTC_ByteToBcd2
 530 02fe 0346     		mov	r3, r0
 531              		.loc 1 449 0 discriminator 1
 532 0300 44EA0302 		orr	r2, r4, r3
 533              		.loc 1 451 0 discriminator 1
 534 0304 029B     		ldr	r3, [sp, #8]
 535 0306 DB78     		ldrb	r3, [r3, #3]	@ zero_extendqisi2
 536 0308 1B04     		lsls	r3, r3, #16
 537              		.loc 1 448 0 discriminator 1
 538 030a 1343     		orrs	r3, r3, r2
 539 030c 0593     		str	r3, [sp, #20]
 540 030e 20E0     		b	.L21
 541              	.L19:
 542              		.loc 1 455 0
 543 0310 039B     		ldr	r3, [sp, #12]
 544 0312 1B68     		ldr	r3, [r3]
 545 0314 9B68     		ldr	r3, [r3, #8]
 546 0316 03F04003 		and	r3, r3, #64
 547 031a 002B     		cmp	r3, #0
 548 031c 07D0     		beq	.L22
 549              		.loc 1 457 0
 550 031e 029B     		ldr	r3, [sp, #8]
 551 0320 1B78     		ldrb	r3, [r3]	@ zero_extendqisi2
 552 0322 1846     		mov	r0, r3
 553 0324 FFF7FEFF 		bl	RTC_Bcd2ToByte
 554 0328 0346     		mov	r3, r0
 555 032a 0593     		str	r3, [sp, #20]
 556 032c 02E0     		b	.L23
 557              	.L22:
 558              		.loc 1 463 0
 559 032e 029B     		ldr	r3, [sp, #8]
 560 0330 0022     		movs	r2, #0
 561 0332 DA70     		strb	r2, [r3, #3]
 562              	.L23:
 563              		.loc 1 468 0
 564 0334 029B     		ldr	r3, [sp, #8]
 565 0336 1B78     		ldrb	r3, [r3]	@ zero_extendqisi2
 566 0338 1A04     		lsls	r2, r3, #16
ARM GAS  /tmp/ccHRl1iB.s 			page 11


 567              		.loc 1 469 0
 568 033a 029B     		ldr	r3, [sp, #8]
 569 033c 5B78     		ldrb	r3, [r3, #1]	@ zero_extendqisi2
 570 033e 1B02     		lsls	r3, r3, #8
 571              		.loc 1 468 0
 572 0340 1A43     		orrs	r2, r2, r3
 573              		.loc 1 470 0
 574 0342 029B     		ldr	r3, [sp, #8]
 575 0344 9B78     		ldrb	r3, [r3, #2]	@ zero_extendqisi2
 576              		.loc 1 469 0
 577 0346 1A43     		orrs	r2, r2, r3
 578              		.loc 1 471 0
 579 0348 029B     		ldr	r3, [sp, #8]
 580 034a DB78     		ldrb	r3, [r3, #3]	@ zero_extendqisi2
 581 034c 1B04     		lsls	r3, r3, #16
 582              		.loc 1 468 0
 583 034e 1343     		orrs	r3, r3, r2
 584 0350 0593     		str	r3, [sp, #20]
 585              	.L21:
 586              		.loc 1 475 0
 587 0352 039B     		ldr	r3, [sp, #12]
 588 0354 1B68     		ldr	r3, [r3]
 589 0356 CA22     		movs	r2, #202
 590 0358 5A62     		str	r2, [r3, #36]
 591 035a 039B     		ldr	r3, [sp, #12]
 592 035c 1B68     		ldr	r3, [r3]
 593 035e 5322     		movs	r2, #83
 594 0360 5A62     		str	r2, [r3, #36]
 595              		.loc 1 478 0
 596 0362 0398     		ldr	r0, [sp, #12]
 597 0364 FFF7FEFF 		bl	RTC_EnterInitMode
 598 0368 0346     		mov	r3, r0
 599 036a 002B     		cmp	r3, #0
 600 036c 0DD0     		beq	.L24
 601              		.loc 1 481 0
 602 036e 039B     		ldr	r3, [sp, #12]
 603 0370 1B68     		ldr	r3, [r3]
 604 0372 FF22     		movs	r2, #255
 605 0374 5A62     		str	r2, [r3, #36]
 606              		.loc 1 484 0
 607 0376 039B     		ldr	r3, [sp, #12]
 608 0378 0422     		movs	r2, #4
 609 037a 83F82120 		strb	r2, [r3, #33]
 610              		.loc 1 487 0
 611 037e 039B     		ldr	r3, [sp, #12]
 612 0380 0022     		movs	r2, #0
 613 0382 83F82020 		strb	r2, [r3, #32]
 614              		.loc 1 489 0
 615 0386 0123     		movs	r3, #1
 616 0388 4BE0     		b	.L18
 617              	.L24:
 618              		.loc 1 494 0
 619 038a 039B     		ldr	r3, [sp, #12]
 620 038c 1A68     		ldr	r2, [r3]
 621 038e 059B     		ldr	r3, [sp, #20]
 622 0390 03F07F33 		and	r3, r3, #2139062143
 623 0394 23F0FE43 		bic	r3, r3, #2130706432
ARM GAS  /tmp/ccHRl1iB.s 			page 12


 624 0398 1360     		str	r3, [r2]
 625              		.loc 1 497 0
 626 039a 039B     		ldr	r3, [sp, #12]
 627 039c 1B68     		ldr	r3, [r3]
 628 039e 039A     		ldr	r2, [sp, #12]
 629 03a0 1268     		ldr	r2, [r2]
 630 03a2 9268     		ldr	r2, [r2, #8]
 631 03a4 22F48022 		bic	r2, r2, #262144
 632 03a8 9A60     		str	r2, [r3, #8]
 633              		.loc 1 500 0
 634 03aa 039B     		ldr	r3, [sp, #12]
 635 03ac 1B68     		ldr	r3, [r3]
 636 03ae 039A     		ldr	r2, [sp, #12]
 637 03b0 1268     		ldr	r2, [r2]
 638 03b2 9168     		ldr	r1, [r2, #8]
 639 03b4 029A     		ldr	r2, [sp, #8]
 640 03b6 D068     		ldr	r0, [r2, #12]
 641 03b8 029A     		ldr	r2, [sp, #8]
 642 03ba 1269     		ldr	r2, [r2, #16]
 643 03bc 0243     		orrs	r2, r2, r0
 644 03be 0A43     		orrs	r2, r2, r1
 645 03c0 9A60     		str	r2, [r3, #8]
 646              		.loc 1 503 0
 647 03c2 039B     		ldr	r3, [sp, #12]
 648 03c4 1B68     		ldr	r3, [r3]
 649 03c6 039A     		ldr	r2, [sp, #12]
 650 03c8 1268     		ldr	r2, [r2]
 651 03ca D268     		ldr	r2, [r2, #12]
 652 03cc 22F08002 		bic	r2, r2, #128
 653 03d0 DA60     		str	r2, [r3, #12]
 654              		.loc 1 506 0
 655 03d2 039B     		ldr	r3, [sp, #12]
 656 03d4 1B68     		ldr	r3, [r3]
 657 03d6 9B68     		ldr	r3, [r3, #8]
 658 03d8 03F02003 		and	r3, r3, #32
 659 03dc 002B     		cmp	r3, #0
 660 03de 13D1     		bne	.L25
 661              		.loc 1 508 0
 662 03e0 0398     		ldr	r0, [sp, #12]
 663 03e2 FFF7FEFF 		bl	HAL_RTC_WaitForSynchro
 664 03e6 0346     		mov	r3, r0
 665 03e8 002B     		cmp	r3, #0
 666 03ea 0DD0     		beq	.L25
 667              		.loc 1 511 0
 668 03ec 039B     		ldr	r3, [sp, #12]
 669 03ee 1B68     		ldr	r3, [r3]
 670 03f0 FF22     		movs	r2, #255
 671 03f2 5A62     		str	r2, [r3, #36]
 672              		.loc 1 513 0
 673 03f4 039B     		ldr	r3, [sp, #12]
 674 03f6 0422     		movs	r2, #4
 675 03f8 83F82120 		strb	r2, [r3, #33]
 676              		.loc 1 516 0
 677 03fc 039B     		ldr	r3, [sp, #12]
 678 03fe 0022     		movs	r2, #0
 679 0400 83F82020 		strb	r2, [r3, #32]
 680              		.loc 1 518 0
ARM GAS  /tmp/ccHRl1iB.s 			page 13


 681 0404 0123     		movs	r3, #1
 682 0406 0CE0     		b	.L18
 683              	.L25:
 684              		.loc 1 523 0
 685 0408 039B     		ldr	r3, [sp, #12]
 686 040a 1B68     		ldr	r3, [r3]
 687 040c FF22     		movs	r2, #255
 688 040e 5A62     		str	r2, [r3, #36]
 689              		.loc 1 525 0
 690 0410 039B     		ldr	r3, [sp, #12]
 691 0412 0122     		movs	r2, #1
 692 0414 83F82120 		strb	r2, [r3, #33]
 693              		.loc 1 527 0
 694 0418 039B     		ldr	r3, [sp, #12]
 695 041a 0022     		movs	r2, #0
 696 041c 83F82020 		strb	r2, [r3, #32]
 697              		.loc 1 529 0
 698 0420 0023     		movs	r3, #0
 699              	.L18:
 700              		.loc 1 531 0
 701 0422 1846     		mov	r0, r3
 702 0424 06B0     		add	sp, sp, #24
 703              		@ sp needed
 704 0426 10BD     		pop	{r4, pc}
 705              		.cfi_endproc
 706              	.LFE129:
 707              		.size	HAL_RTC_SetTime, .-HAL_RTC_SetTime
 708              		.align	2
 709 0428 AFF30080 		.p2align 4,,15
 709      AFF30080 
 710              		.global	HAL_RTC_GetTime
 711              		.thumb
 712              		.thumb_func
 713              		.type	HAL_RTC_GetTime, %function
 714              	HAL_RTC_GetTime:
 715              	.LFB130:
 716              		.loc 1 555 0
 717              		.cfi_startproc
 718              		@ args = 0, pretend = 0, frame = 24
 719              		@ frame_needed = 0, uses_anonymous_args = 0
 720 0430 00B5     		push	{lr}
 721              		.cfi_def_cfa_offset 4
 722              		.cfi_offset 14, -4
 723 0432 87B0     		sub	sp, sp, #28
 724              		.cfi_def_cfa_offset 32
 725 0434 0390     		str	r0, [sp, #12]
 726 0436 0291     		str	r1, [sp, #8]
 727 0438 0192     		str	r2, [sp, #4]
 728              		.loc 1 556 0
 729 043a 0023     		movs	r3, #0
 730 043c 0593     		str	r3, [sp, #20]
 731              		.loc 1 562 0
 732 043e 039B     		ldr	r3, [sp, #12]
 733 0440 1B68     		ldr	r3, [r3]
 734 0442 9A6A     		ldr	r2, [r3, #40]
 735 0444 029B     		ldr	r3, [sp, #8]
 736 0446 5A60     		str	r2, [r3, #4]
ARM GAS  /tmp/ccHRl1iB.s 			page 14


 737              		.loc 1 565 0
 738 0448 039B     		ldr	r3, [sp, #12]
 739 044a 1B68     		ldr	r3, [r3]
 740 044c 1B69     		ldr	r3, [r3, #16]
 741 044e C3F30E02 		ubfx	r2, r3, #0, #15
 742 0452 029B     		ldr	r3, [sp, #8]
 743 0454 9A60     		str	r2, [r3, #8]
 744              		.loc 1 568 0
 745 0456 039B     		ldr	r3, [sp, #12]
 746 0458 1B68     		ldr	r3, [r3]
 747 045a 1B68     		ldr	r3, [r3]
 748 045c 03F07F33 		and	r3, r3, #2139062143
 749 0460 23F0FE43 		bic	r3, r3, #2130706432
 750 0464 0593     		str	r3, [sp, #20]
 751              		.loc 1 571 0
 752 0466 059B     		ldr	r3, [sp, #20]
 753 0468 03F47C13 		and	r3, r3, #4128768
 754 046c 1B0C     		lsrs	r3, r3, #16
 755 046e DAB2     		uxtb	r2, r3
 756 0470 029B     		ldr	r3, [sp, #8]
 757 0472 1A70     		strb	r2, [r3]
 758              		.loc 1 572 0
 759 0474 059B     		ldr	r3, [sp, #20]
 760 0476 03F4FE43 		and	r3, r3, #32512
 761 047a 1B0A     		lsrs	r3, r3, #8
 762 047c DAB2     		uxtb	r2, r3
 763 047e 029B     		ldr	r3, [sp, #8]
 764 0480 5A70     		strb	r2, [r3, #1]
 765              		.loc 1 573 0
 766 0482 059B     		ldr	r3, [sp, #20]
 767 0484 DBB2     		uxtb	r3, r3
 768 0486 03F07F03 		and	r3, r3, #127
 769 048a DAB2     		uxtb	r2, r3
 770 048c 029B     		ldr	r3, [sp, #8]
 771 048e 9A70     		strb	r2, [r3, #2]
 772              		.loc 1 574 0
 773 0490 059B     		ldr	r3, [sp, #20]
 774 0492 03F48003 		and	r3, r3, #4194304
 775 0496 1B0C     		lsrs	r3, r3, #16
 776 0498 DAB2     		uxtb	r2, r3
 777 049a 029B     		ldr	r3, [sp, #8]
 778 049c DA70     		strb	r2, [r3, #3]
 779              		.loc 1 577 0
 780 049e 019B     		ldr	r3, [sp, #4]
 781 04a0 002B     		cmp	r3, #0
 782 04a2 1AD1     		bne	.L27
 783              		.loc 1 580 0
 784 04a4 029B     		ldr	r3, [sp, #8]
 785 04a6 1B78     		ldrb	r3, [r3]	@ zero_extendqisi2
 786 04a8 1846     		mov	r0, r3
 787 04aa FFF7FEFF 		bl	RTC_Bcd2ToByte
 788 04ae 0346     		mov	r3, r0
 789 04b0 1A46     		mov	r2, r3
 790 04b2 029B     		ldr	r3, [sp, #8]
 791 04b4 1A70     		strb	r2, [r3]
 792              		.loc 1 581 0
 793 04b6 029B     		ldr	r3, [sp, #8]
ARM GAS  /tmp/ccHRl1iB.s 			page 15


 794 04b8 5B78     		ldrb	r3, [r3, #1]	@ zero_extendqisi2
 795 04ba 1846     		mov	r0, r3
 796 04bc FFF7FEFF 		bl	RTC_Bcd2ToByte
 797 04c0 0346     		mov	r3, r0
 798 04c2 1A46     		mov	r2, r3
 799 04c4 029B     		ldr	r3, [sp, #8]
 800 04c6 5A70     		strb	r2, [r3, #1]
 801              		.loc 1 582 0
 802 04c8 029B     		ldr	r3, [sp, #8]
 803 04ca 9B78     		ldrb	r3, [r3, #2]	@ zero_extendqisi2
 804 04cc 1846     		mov	r0, r3
 805 04ce FFF7FEFF 		bl	RTC_Bcd2ToByte
 806 04d2 0346     		mov	r3, r0
 807 04d4 1A46     		mov	r2, r3
 808 04d6 029B     		ldr	r3, [sp, #8]
 809 04d8 9A70     		strb	r2, [r3, #2]
 810              	.L27:
 811              		.loc 1 585 0
 812 04da 0023     		movs	r3, #0
 813              		.loc 1 586 0
 814 04dc 1846     		mov	r0, r3
 815 04de 07B0     		add	sp, sp, #28
 816              		@ sp needed
 817 04e0 5DF804FB 		ldr	pc, [sp], #4
 818              		.cfi_endproc
 819              	.LFE130:
 820              		.size	HAL_RTC_GetTime, .-HAL_RTC_GetTime
 821              		.align	2
 822 04e4 AFF30080 		.p2align 4,,15
 822      AFF30080 
 822      AFF30080 
 823              		.global	HAL_RTC_SetDate
 824              		.thumb
 825              		.thumb_func
 826              		.type	HAL_RTC_SetDate, %function
 827              	HAL_RTC_SetDate:
 828              	.LFB131:
 829              		.loc 1 599 0
 830              		.cfi_startproc
 831              		@ args = 0, pretend = 0, frame = 24
 832              		@ frame_needed = 0, uses_anonymous_args = 0
 833 04f0 10B5     		push	{r4, lr}
 834              		.cfi_def_cfa_offset 8
 835              		.cfi_offset 4, -8
 836              		.cfi_offset 14, -4
 837 04f2 86B0     		sub	sp, sp, #24
 838              		.cfi_def_cfa_offset 32
 839 04f4 0390     		str	r0, [sp, #12]
 840 04f6 0291     		str	r1, [sp, #8]
 841 04f8 0192     		str	r2, [sp, #4]
 842              		.loc 1 600 0
 843 04fa 0023     		movs	r3, #0
 844 04fc 0593     		str	r3, [sp, #20]
 845              		.loc 1 606 0
 846 04fe 039B     		ldr	r3, [sp, #12]
 847 0500 93F82030 		ldrb	r3, [r3, #32]	@ zero_extendqisi2
 848 0504 012B     		cmp	r3, #1
ARM GAS  /tmp/ccHRl1iB.s 			page 16


 849 0506 01D1     		bne	.L30
 850              		.loc 1 606 0 is_stmt 0 discriminator 1
 851 0508 0223     		movs	r3, #2
 852 050a AAE0     		b	.L31
 853              	.L30:
 854              		.loc 1 606 0 discriminator 2
 855 050c 039B     		ldr	r3, [sp, #12]
 856 050e 0122     		movs	r2, #1
 857 0510 83F82020 		strb	r2, [r3, #32]
 858              		.loc 1 608 0 is_stmt 1 discriminator 2
 859 0514 039B     		ldr	r3, [sp, #12]
 860 0516 0222     		movs	r2, #2
 861 0518 83F82120 		strb	r2, [r3, #33]
 862              		.loc 1 610 0 discriminator 2
 863 051c 019B     		ldr	r3, [sp, #4]
 864 051e 002B     		cmp	r3, #0
 865 0520 0ED1     		bne	.L32
 866              		.loc 1 610 0 is_stmt 0 discriminator 1
 867 0522 029B     		ldr	r3, [sp, #8]
 868 0524 5B78     		ldrb	r3, [r3, #1]	@ zero_extendqisi2
 869 0526 03F01003 		and	r3, r3, #16
 870 052a 002B     		cmp	r3, #0
 871 052c 08D0     		beq	.L32
 872              		.loc 1 612 0 is_stmt 1
 873 052e 029B     		ldr	r3, [sp, #8]
 874 0530 5B78     		ldrb	r3, [r3, #1]	@ zero_extendqisi2
 875 0532 23F01003 		bic	r3, r3, #16
 876 0536 DBB2     		uxtb	r3, r3
 877 0538 0A33     		adds	r3, r3, #10
 878 053a DAB2     		uxtb	r2, r3
 879 053c 029B     		ldr	r3, [sp, #8]
 880 053e 5A70     		strb	r2, [r3, #1]
 881              	.L32:
 882              		.loc 1 617 0
 883 0540 019B     		ldr	r3, [sp, #4]
 884 0542 002B     		cmp	r3, #0
 885 0544 1CD1     		bne	.L33
 886              		.loc 1 623 0
 887 0546 029B     		ldr	r3, [sp, #8]
 888 0548 DB78     		ldrb	r3, [r3, #3]	@ zero_extendqisi2
 889 054a 1846     		mov	r0, r3
 890 054c FFF7FEFF 		bl	RTC_ByteToBcd2
 891 0550 0346     		mov	r3, r0
 892 0552 1C04     		lsls	r4, r3, #16
 893              		.loc 1 624 0
 894 0554 029B     		ldr	r3, [sp, #8]
 895 0556 5B78     		ldrb	r3, [r3, #1]	@ zero_extendqisi2
 896 0558 1846     		mov	r0, r3
 897 055a FFF7FEFF 		bl	RTC_ByteToBcd2
 898 055e 0346     		mov	r3, r0
 899 0560 1B02     		lsls	r3, r3, #8
 900              		.loc 1 623 0
 901 0562 1C43     		orrs	r4, r4, r3
 902              		.loc 1 625 0
 903 0564 029B     		ldr	r3, [sp, #8]
 904 0566 9B78     		ldrb	r3, [r3, #2]	@ zero_extendqisi2
 905 0568 1846     		mov	r0, r3
ARM GAS  /tmp/ccHRl1iB.s 			page 17


 906 056a FFF7FEFF 		bl	RTC_ByteToBcd2
 907 056e 0346     		mov	r3, r0
 908              		.loc 1 624 0
 909 0570 44EA0302 		orr	r2, r4, r3
 910              		.loc 1 626 0
 911 0574 029B     		ldr	r3, [sp, #8]
 912 0576 1B78     		ldrb	r3, [r3]	@ zero_extendqisi2
 913 0578 5B03     		lsls	r3, r3, #13
 914              		.loc 1 623 0
 915 057a 1343     		orrs	r3, r3, r2
 916 057c 0593     		str	r3, [sp, #20]
 917 057e 1CE0     		b	.L34
 918              	.L33:
 919              		.loc 1 631 0
 920 0580 029B     		ldr	r3, [sp, #8]
 921 0582 5B78     		ldrb	r3, [r3, #1]	@ zero_extendqisi2
 922 0584 1846     		mov	r0, r3
 923 0586 FFF7FEFF 		bl	RTC_Bcd2ToByte
 924 058a 0346     		mov	r3, r0
 925 058c 0593     		str	r3, [sp, #20]
 926              		.loc 1 633 0
 927 058e 029B     		ldr	r3, [sp, #8]
 928 0590 9B78     		ldrb	r3, [r3, #2]	@ zero_extendqisi2
 929 0592 1846     		mov	r0, r3
 930 0594 FFF7FEFF 		bl	RTC_Bcd2ToByte
 931 0598 0346     		mov	r3, r0
 932 059a 0593     		str	r3, [sp, #20]
 933              		.loc 1 636 0
 934 059c 029B     		ldr	r3, [sp, #8]
 935 059e DB78     		ldrb	r3, [r3, #3]	@ zero_extendqisi2
 936 05a0 1A04     		lsls	r2, r3, #16
 937              		.loc 1 637 0
 938 05a2 029B     		ldr	r3, [sp, #8]
 939 05a4 5B78     		ldrb	r3, [r3, #1]	@ zero_extendqisi2
 940 05a6 1B02     		lsls	r3, r3, #8
 941              		.loc 1 636 0
 942 05a8 1A43     		orrs	r2, r2, r3
 943              		.loc 1 638 0
 944 05aa 029B     		ldr	r3, [sp, #8]
 945 05ac 9B78     		ldrb	r3, [r3, #2]	@ zero_extendqisi2
 946              		.loc 1 637 0
 947 05ae 1A43     		orrs	r2, r2, r3
 948              		.loc 1 639 0
 949 05b0 029B     		ldr	r3, [sp, #8]
 950 05b2 1B78     		ldrb	r3, [r3]	@ zero_extendqisi2
 951 05b4 5B03     		lsls	r3, r3, #13
 952              		.loc 1 636 0
 953 05b6 1343     		orrs	r3, r3, r2
 954 05b8 0593     		str	r3, [sp, #20]
 955              	.L34:
 956              		.loc 1 643 0
 957 05ba 039B     		ldr	r3, [sp, #12]
 958 05bc 1B68     		ldr	r3, [r3]
 959 05be CA22     		movs	r2, #202
 960 05c0 5A62     		str	r2, [r3, #36]
 961 05c2 039B     		ldr	r3, [sp, #12]
 962 05c4 1B68     		ldr	r3, [r3]
ARM GAS  /tmp/ccHRl1iB.s 			page 18


 963 05c6 5322     		movs	r2, #83
 964 05c8 5A62     		str	r2, [r3, #36]
 965              		.loc 1 646 0
 966 05ca 0398     		ldr	r0, [sp, #12]
 967 05cc FFF7FEFF 		bl	RTC_EnterInitMode
 968 05d0 0346     		mov	r3, r0
 969 05d2 002B     		cmp	r3, #0
 970 05d4 0DD0     		beq	.L35
 971              		.loc 1 649 0
 972 05d6 039B     		ldr	r3, [sp, #12]
 973 05d8 1B68     		ldr	r3, [r3]
 974 05da FF22     		movs	r2, #255
 975 05dc 5A62     		str	r2, [r3, #36]
 976              		.loc 1 652 0
 977 05de 039B     		ldr	r3, [sp, #12]
 978 05e0 0422     		movs	r2, #4
 979 05e2 83F82120 		strb	r2, [r3, #33]
 980              		.loc 1 655 0
 981 05e6 039B     		ldr	r3, [sp, #12]
 982 05e8 0022     		movs	r2, #0
 983 05ea 83F82020 		strb	r2, [r3, #32]
 984              		.loc 1 657 0
 985 05ee 0123     		movs	r3, #1
 986 05f0 37E0     		b	.L31
 987              	.L35:
 988              		.loc 1 662 0
 989 05f2 039B     		ldr	r3, [sp, #12]
 990 05f4 1A68     		ldr	r2, [r3]
 991 05f6 059B     		ldr	r3, [sp, #20]
 992 05f8 23F07F43 		bic	r3, r3, #-16777216
 993 05fc 23F0C003 		bic	r3, r3, #192
 994 0600 5360     		str	r3, [r2, #4]
 995              		.loc 1 665 0
 996 0602 039B     		ldr	r3, [sp, #12]
 997 0604 1B68     		ldr	r3, [r3]
 998 0606 039A     		ldr	r2, [sp, #12]
 999 0608 1268     		ldr	r2, [r2]
 1000 060a D268     		ldr	r2, [r2, #12]
 1001 060c 22F08002 		bic	r2, r2, #128
 1002 0610 DA60     		str	r2, [r3, #12]
 1003              		.loc 1 668 0
 1004 0612 039B     		ldr	r3, [sp, #12]
 1005 0614 1B68     		ldr	r3, [r3]
 1006 0616 9B68     		ldr	r3, [r3, #8]
 1007 0618 03F02003 		and	r3, r3, #32
 1008 061c 002B     		cmp	r3, #0
 1009 061e 13D1     		bne	.L36
 1010              		.loc 1 670 0
 1011 0620 0398     		ldr	r0, [sp, #12]
 1012 0622 FFF7FEFF 		bl	HAL_RTC_WaitForSynchro
 1013 0626 0346     		mov	r3, r0
 1014 0628 002B     		cmp	r3, #0
 1015 062a 0DD0     		beq	.L36
 1016              		.loc 1 673 0
 1017 062c 039B     		ldr	r3, [sp, #12]
 1018 062e 1B68     		ldr	r3, [r3]
 1019 0630 FF22     		movs	r2, #255
ARM GAS  /tmp/ccHRl1iB.s 			page 19


 1020 0632 5A62     		str	r2, [r3, #36]
 1021              		.loc 1 675 0
 1022 0634 039B     		ldr	r3, [sp, #12]
 1023 0636 0422     		movs	r2, #4
 1024 0638 83F82120 		strb	r2, [r3, #33]
 1025              		.loc 1 678 0
 1026 063c 039B     		ldr	r3, [sp, #12]
 1027 063e 0022     		movs	r2, #0
 1028 0640 83F82020 		strb	r2, [r3, #32]
 1029              		.loc 1 680 0
 1030 0644 0123     		movs	r3, #1
 1031 0646 0CE0     		b	.L31
 1032              	.L36:
 1033              		.loc 1 685 0
 1034 0648 039B     		ldr	r3, [sp, #12]
 1035 064a 1B68     		ldr	r3, [r3]
 1036 064c FF22     		movs	r2, #255
 1037 064e 5A62     		str	r2, [r3, #36]
 1038              		.loc 1 687 0
 1039 0650 039B     		ldr	r3, [sp, #12]
 1040 0652 0122     		movs	r2, #1
 1041 0654 83F82120 		strb	r2, [r3, #33]
 1042              		.loc 1 690 0
 1043 0658 039B     		ldr	r3, [sp, #12]
 1044 065a 0022     		movs	r2, #0
 1045 065c 83F82020 		strb	r2, [r3, #32]
 1046              		.loc 1 692 0
 1047 0660 0023     		movs	r3, #0
 1048              	.L31:
 1049              		.loc 1 694 0
 1050 0662 1846     		mov	r0, r3
 1051 0664 06B0     		add	sp, sp, #24
 1052              		@ sp needed
 1053 0666 10BD     		pop	{r4, pc}
 1054              		.cfi_endproc
 1055              	.LFE131:
 1056              		.size	HAL_RTC_SetDate, .-HAL_RTC_SetDate
 1057              		.align	2
 1058 0668 AFF30080 		.p2align 4,,15
 1058      AFF30080 
 1059              		.global	HAL_RTC_GetDate
 1060              		.thumb
 1061              		.thumb_func
 1062              		.type	HAL_RTC_GetDate, %function
 1063              	HAL_RTC_GetDate:
 1064              	.LFB132:
 1065              		.loc 1 710 0
 1066              		.cfi_startproc
 1067              		@ args = 0, pretend = 0, frame = 24
 1068              		@ frame_needed = 0, uses_anonymous_args = 0
 1069 0670 00B5     		push	{lr}
 1070              		.cfi_def_cfa_offset 4
 1071              		.cfi_offset 14, -4
 1072 0672 87B0     		sub	sp, sp, #28
 1073              		.cfi_def_cfa_offset 32
 1074 0674 0390     		str	r0, [sp, #12]
 1075 0676 0291     		str	r1, [sp, #8]
ARM GAS  /tmp/ccHRl1iB.s 			page 20


 1076 0678 0192     		str	r2, [sp, #4]
 1077              		.loc 1 711 0
 1078 067a 0023     		movs	r3, #0
 1079 067c 0593     		str	r3, [sp, #20]
 1080              		.loc 1 717 0
 1081 067e 039B     		ldr	r3, [sp, #12]
 1082 0680 1B68     		ldr	r3, [r3]
 1083 0682 5B68     		ldr	r3, [r3, #4]
 1084 0684 23F07F43 		bic	r3, r3, #-16777216
 1085 0688 23F0C003 		bic	r3, r3, #192
 1086 068c 0593     		str	r3, [sp, #20]
 1087              		.loc 1 720 0
 1088 068e 059B     		ldr	r3, [sp, #20]
 1089 0690 03F47F03 		and	r3, r3, #16711680
 1090 0694 1B0C     		lsrs	r3, r3, #16
 1091 0696 DAB2     		uxtb	r2, r3
 1092 0698 029B     		ldr	r3, [sp, #8]
 1093 069a DA70     		strb	r2, [r3, #3]
 1094              		.loc 1 721 0
 1095 069c 059B     		ldr	r3, [sp, #20]
 1096 069e 03F4F853 		and	r3, r3, #7936
 1097 06a2 1B0A     		lsrs	r3, r3, #8
 1098 06a4 DAB2     		uxtb	r2, r3
 1099 06a6 029B     		ldr	r3, [sp, #8]
 1100 06a8 5A70     		strb	r2, [r3, #1]
 1101              		.loc 1 722 0
 1102 06aa 059B     		ldr	r3, [sp, #20]
 1103 06ac DBB2     		uxtb	r3, r3
 1104 06ae 03F03F03 		and	r3, r3, #63
 1105 06b2 DAB2     		uxtb	r2, r3
 1106 06b4 029B     		ldr	r3, [sp, #8]
 1107 06b6 9A70     		strb	r2, [r3, #2]
 1108              		.loc 1 723 0
 1109 06b8 059B     		ldr	r3, [sp, #20]
 1110 06ba 03F46043 		and	r3, r3, #57344
 1111 06be 5B0B     		lsrs	r3, r3, #13
 1112 06c0 DAB2     		uxtb	r2, r3
 1113 06c2 029B     		ldr	r3, [sp, #8]
 1114 06c4 1A70     		strb	r2, [r3]
 1115              		.loc 1 726 0
 1116 06c6 019B     		ldr	r3, [sp, #4]
 1117 06c8 002B     		cmp	r3, #0
 1118 06ca 1AD1     		bne	.L38
 1119              		.loc 1 729 0
 1120 06cc 029B     		ldr	r3, [sp, #8]
 1121 06ce DB78     		ldrb	r3, [r3, #3]	@ zero_extendqisi2
 1122 06d0 1846     		mov	r0, r3
 1123 06d2 FFF7FEFF 		bl	RTC_Bcd2ToByte
 1124 06d6 0346     		mov	r3, r0
 1125 06d8 1A46     		mov	r2, r3
 1126 06da 029B     		ldr	r3, [sp, #8]
 1127 06dc DA70     		strb	r2, [r3, #3]
 1128              		.loc 1 730 0
 1129 06de 029B     		ldr	r3, [sp, #8]
 1130 06e0 5B78     		ldrb	r3, [r3, #1]	@ zero_extendqisi2
 1131 06e2 1846     		mov	r0, r3
 1132 06e4 FFF7FEFF 		bl	RTC_Bcd2ToByte
ARM GAS  /tmp/ccHRl1iB.s 			page 21


 1133 06e8 0346     		mov	r3, r0
 1134 06ea 1A46     		mov	r2, r3
 1135 06ec 029B     		ldr	r3, [sp, #8]
 1136 06ee 5A70     		strb	r2, [r3, #1]
 1137              		.loc 1 731 0
 1138 06f0 029B     		ldr	r3, [sp, #8]
 1139 06f2 9B78     		ldrb	r3, [r3, #2]	@ zero_extendqisi2
 1140 06f4 1846     		mov	r0, r3
 1141 06f6 FFF7FEFF 		bl	RTC_Bcd2ToByte
 1142 06fa 0346     		mov	r3, r0
 1143 06fc 1A46     		mov	r2, r3
 1144 06fe 029B     		ldr	r3, [sp, #8]
 1145 0700 9A70     		strb	r2, [r3, #2]
 1146              	.L38:
 1147              		.loc 1 733 0
 1148 0702 0023     		movs	r3, #0
 1149              		.loc 1 734 0
 1150 0704 1846     		mov	r0, r3
 1151 0706 07B0     		add	sp, sp, #28
 1152              		@ sp needed
 1153 0708 5DF804FB 		ldr	pc, [sp], #4
 1154              		.cfi_endproc
 1155              	.LFE132:
 1156              		.size	HAL_RTC_GetDate, .-HAL_RTC_GetDate
 1157              		.align	2
 1158 070c AFF30080 		.p2align 4,,15
 1159              		.global	HAL_RTC_SetAlarm
 1160              		.thumb
 1161              		.thumb_func
 1162              		.type	HAL_RTC_SetAlarm, %function
 1163              	HAL_RTC_SetAlarm:
 1164              	.LFB133:
 1165              		.loc 1 764 0
 1166              		.cfi_startproc
 1167              		@ args = 0, pretend = 0, frame = 32
 1168              		@ frame_needed = 0, uses_anonymous_args = 0
 1169 0710 10B5     		push	{r4, lr}
 1170              		.cfi_def_cfa_offset 8
 1171              		.cfi_offset 4, -8
 1172              		.cfi_offset 14, -4
 1173 0712 88B0     		sub	sp, sp, #32
 1174              		.cfi_def_cfa_offset 40
 1175 0714 0390     		str	r0, [sp, #12]
 1176 0716 0291     		str	r1, [sp, #8]
 1177 0718 0192     		str	r2, [sp, #4]
 1178              		.loc 1 765 0
 1179 071a 0023     		movs	r3, #0
 1180 071c 0693     		str	r3, [sp, #24]
 1181              		.loc 1 766 0
 1182 071e 0023     		movs	r3, #0
 1183 0720 0793     		str	r3, [sp, #28]
 1184 0722 0023     		movs	r3, #0
 1185 0724 0593     		str	r3, [sp, #20]
 1186              		.loc 1 777 0
 1187 0726 039B     		ldr	r3, [sp, #12]
 1188 0728 93F82030 		ldrb	r3, [r3, #32]	@ zero_extendqisi2
 1189 072c 012B     		cmp	r3, #1
ARM GAS  /tmp/ccHRl1iB.s 			page 22


 1190 072e 01D1     		bne	.L41
 1191              		.loc 1 777 0 is_stmt 0 discriminator 1
 1192 0730 0223     		movs	r3, #2
 1193 0732 26E1     		b	.L42
 1194              	.L41:
 1195              		.loc 1 777 0 discriminator 2
 1196 0734 039B     		ldr	r3, [sp, #12]
 1197 0736 0122     		movs	r2, #1
 1198 0738 83F82020 		strb	r2, [r3, #32]
 1199              		.loc 1 779 0 is_stmt 1 discriminator 2
 1200 073c 039B     		ldr	r3, [sp, #12]
 1201 073e 0222     		movs	r2, #2
 1202 0740 83F82120 		strb	r2, [r3, #33]
 1203              		.loc 1 781 0 discriminator 2
 1204 0744 019B     		ldr	r3, [sp, #4]
 1205 0746 002B     		cmp	r3, #0
 1206 0748 37D1     		bne	.L43
 1207              		.loc 1 783 0
 1208 074a 039B     		ldr	r3, [sp, #12]
 1209 074c 1B68     		ldr	r3, [r3]
 1210 074e 9B68     		ldr	r3, [r3, #8]
 1211 0750 03F04003 		and	r3, r3, #64
 1212 0754 002B     		cmp	r3, #0
 1213 0756 02D1     		bne	.L44
 1214              		.loc 1 790 0
 1215 0758 029B     		ldr	r3, [sp, #8]
 1216 075a 0022     		movs	r2, #0
 1217 075c DA70     		strb	r2, [r3, #3]
 1218              	.L44:
 1219              		.loc 1 805 0
 1220 075e 029B     		ldr	r3, [sp, #8]
 1221 0760 1B78     		ldrb	r3, [r3]	@ zero_extendqisi2
 1222 0762 1846     		mov	r0, r3
 1223 0764 FFF7FEFF 		bl	RTC_ByteToBcd2
 1224 0768 0346     		mov	r3, r0
 1225 076a 1C04     		lsls	r4, r3, #16
 1226              		.loc 1 806 0
 1227 076c 029B     		ldr	r3, [sp, #8]
 1228 076e 5B78     		ldrb	r3, [r3, #1]	@ zero_extendqisi2
 1229 0770 1846     		mov	r0, r3
 1230 0772 FFF7FEFF 		bl	RTC_ByteToBcd2
 1231 0776 0346     		mov	r3, r0
 1232 0778 1B02     		lsls	r3, r3, #8
 1233              		.loc 1 805 0
 1234 077a 1C43     		orrs	r4, r4, r3
 1235              		.loc 1 807 0
 1236 077c 029B     		ldr	r3, [sp, #8]
 1237 077e 9B78     		ldrb	r3, [r3, #2]	@ zero_extendqisi2
 1238 0780 1846     		mov	r0, r3
 1239 0782 FFF7FEFF 		bl	RTC_ByteToBcd2
 1240 0786 0346     		mov	r3, r0
 1241              		.loc 1 806 0
 1242 0788 44EA0302 		orr	r2, r4, r3
 1243              		.loc 1 808 0
 1244 078c 029B     		ldr	r3, [sp, #8]
 1245 078e DB78     		ldrb	r3, [r3, #3]	@ zero_extendqisi2
 1246 0790 1B04     		lsls	r3, r3, #16
ARM GAS  /tmp/ccHRl1iB.s 			page 23


 1247              		.loc 1 807 0
 1248 0792 42EA0304 		orr	r4, r2, r3
 1249              		.loc 1 809 0
 1250 0796 029B     		ldr	r3, [sp, #8]
 1251 0798 93F82030 		ldrb	r3, [r3, #32]	@ zero_extendqisi2
 1252 079c 1846     		mov	r0, r3
 1253 079e FFF7FEFF 		bl	RTC_ByteToBcd2
 1254 07a2 0346     		mov	r3, r0
 1255 07a4 1B06     		lsls	r3, r3, #24
 1256              		.loc 1 808 0
 1257 07a6 44EA0302 		orr	r2, r4, r3
 1258              		.loc 1 810 0
 1259 07aa 029B     		ldr	r3, [sp, #8]
 1260 07ac DB69     		ldr	r3, [r3, #28]
 1261              		.loc 1 809 0
 1262 07ae 1A43     		orrs	r2, r2, r3
 1263              		.loc 1 811 0
 1264 07b0 029B     		ldr	r3, [sp, #8]
 1265 07b2 5B69     		ldr	r3, [r3, #20]
 1266              		.loc 1 805 0
 1267 07b4 1343     		orrs	r3, r3, r2
 1268 07b6 0793     		str	r3, [sp, #28]
 1269 07b8 40E0     		b	.L45
 1270              	.L43:
 1271              		.loc 1 815 0
 1272 07ba 039B     		ldr	r3, [sp, #12]
 1273 07bc 1B68     		ldr	r3, [r3]
 1274 07be 9B68     		ldr	r3, [r3, #8]
 1275 07c0 03F04003 		and	r3, r3, #64
 1276 07c4 002B     		cmp	r3, #0
 1277 07c6 07D0     		beq	.L46
 1278              		.loc 1 817 0
 1279 07c8 029B     		ldr	r3, [sp, #8]
 1280 07ca 1B78     		ldrb	r3, [r3]	@ zero_extendqisi2
 1281 07cc 1846     		mov	r0, r3
 1282 07ce FFF7FEFF 		bl	RTC_Bcd2ToByte
 1283 07d2 0346     		mov	r3, r0
 1284 07d4 0793     		str	r3, [sp, #28]
 1285 07d6 02E0     		b	.L47
 1286              	.L46:
 1287              		.loc 1 823 0
 1288 07d8 029B     		ldr	r3, [sp, #8]
 1289 07da 0022     		movs	r2, #0
 1290 07dc DA70     		strb	r2, [r3, #3]
 1291              	.L47:
 1292              		.loc 1 830 0
 1293 07de 029B     		ldr	r3, [sp, #8]
 1294 07e0 DB69     		ldr	r3, [r3, #28]
 1295 07e2 002B     		cmp	r3, #0
 1296 07e4 08D1     		bne	.L48
 1297              		.loc 1 832 0
 1298 07e6 029B     		ldr	r3, [sp, #8]
 1299 07e8 93F82030 		ldrb	r3, [r3, #32]	@ zero_extendqisi2
 1300 07ec 1846     		mov	r0, r3
 1301 07ee FFF7FEFF 		bl	RTC_Bcd2ToByte
 1302 07f2 0346     		mov	r3, r0
 1303 07f4 0793     		str	r3, [sp, #28]
ARM GAS  /tmp/ccHRl1iB.s 			page 24


 1304 07f6 07E0     		b	.L49
 1305              	.L48:
 1306              		.loc 1 837 0
 1307 07f8 029B     		ldr	r3, [sp, #8]
 1308 07fa 93F82030 		ldrb	r3, [r3, #32]	@ zero_extendqisi2
 1309 07fe 1846     		mov	r0, r3
 1310 0800 FFF7FEFF 		bl	RTC_Bcd2ToByte
 1311 0804 0346     		mov	r3, r0
 1312 0806 0793     		str	r3, [sp, #28]
 1313              	.L49:
 1314              		.loc 1 841 0
 1315 0808 029B     		ldr	r3, [sp, #8]
 1316 080a 1B78     		ldrb	r3, [r3]	@ zero_extendqisi2
 1317 080c 1A04     		lsls	r2, r3, #16
 1318              		.loc 1 842 0
 1319 080e 029B     		ldr	r3, [sp, #8]
 1320 0810 5B78     		ldrb	r3, [r3, #1]	@ zero_extendqisi2
 1321 0812 1B02     		lsls	r3, r3, #8
 1322              		.loc 1 841 0
 1323 0814 1A43     		orrs	r2, r2, r3
 1324              		.loc 1 843 0
 1325 0816 029B     		ldr	r3, [sp, #8]
 1326 0818 9B78     		ldrb	r3, [r3, #2]	@ zero_extendqisi2
 1327              		.loc 1 842 0
 1328 081a 1A43     		orrs	r2, r2, r3
 1329              		.loc 1 844 0
 1330 081c 029B     		ldr	r3, [sp, #8]
 1331 081e DB78     		ldrb	r3, [r3, #3]	@ zero_extendqisi2
 1332 0820 1B04     		lsls	r3, r3, #16
 1333              		.loc 1 843 0
 1334 0822 1A43     		orrs	r2, r2, r3
 1335              		.loc 1 845 0
 1336 0824 029B     		ldr	r3, [sp, #8]
 1337 0826 93F82030 		ldrb	r3, [r3, #32]	@ zero_extendqisi2
 1338 082a 1B06     		lsls	r3, r3, #24
 1339              		.loc 1 844 0
 1340 082c 1A43     		orrs	r2, r2, r3
 1341              		.loc 1 846 0
 1342 082e 029B     		ldr	r3, [sp, #8]
 1343 0830 DB69     		ldr	r3, [r3, #28]
 1344              		.loc 1 845 0
 1345 0832 1A43     		orrs	r2, r2, r3
 1346              		.loc 1 847 0
 1347 0834 029B     		ldr	r3, [sp, #8]
 1348 0836 5B69     		ldr	r3, [r3, #20]
 1349              		.loc 1 841 0
 1350 0838 1343     		orrs	r3, r3, r2
 1351 083a 0793     		str	r3, [sp, #28]
 1352              	.L45:
 1353              		.loc 1 851 0
 1354 083c 029B     		ldr	r3, [sp, #8]
 1355 083e 5A68     		ldr	r2, [r3, #4]
 1356 0840 029B     		ldr	r3, [sp, #8]
 1357 0842 9B69     		ldr	r3, [r3, #24]
 1358 0844 1343     		orrs	r3, r3, r2
 1359 0846 0593     		str	r3, [sp, #20]
 1360              		.loc 1 854 0
ARM GAS  /tmp/ccHRl1iB.s 			page 25


 1361 0848 039B     		ldr	r3, [sp, #12]
 1362 084a 1B68     		ldr	r3, [r3]
 1363 084c CA22     		movs	r2, #202
 1364 084e 5A62     		str	r2, [r3, #36]
 1365 0850 039B     		ldr	r3, [sp, #12]
 1366 0852 1B68     		ldr	r3, [r3]
 1367 0854 5322     		movs	r2, #83
 1368 0856 5A62     		str	r2, [r3, #36]
 1369              		.loc 1 857 0
 1370 0858 029B     		ldr	r3, [sp, #8]
 1371 085a 5B6A     		ldr	r3, [r3, #36]
 1372 085c B3F5807F 		cmp	r3, #256
 1373 0860 41D1     		bne	.L50
 1374              		.loc 1 860 0
 1375 0862 039B     		ldr	r3, [sp, #12]
 1376 0864 1B68     		ldr	r3, [r3]
 1377 0866 039A     		ldr	r2, [sp, #12]
 1378 0868 1268     		ldr	r2, [r2]
 1379 086a 9268     		ldr	r2, [r2, #8]
 1380 086c 22F48072 		bic	r2, r2, #256
 1381 0870 9A60     		str	r2, [r3, #8]
 1382              		.loc 1 863 0
 1383 0872 039B     		ldr	r3, [sp, #12]
 1384 0874 1B68     		ldr	r3, [r3]
 1385 0876 039A     		ldr	r2, [sp, #12]
 1386 0878 1268     		ldr	r2, [r2]
 1387 087a 9268     		ldr	r2, [r2, #8]
 1388 087c 22F48052 		bic	r2, r2, #4096
 1389 0880 9A60     		str	r2, [r3, #8]
 1390              		.loc 1 865 0
 1391 0882 FFF7FEFF 		bl	HAL_GetTick
 1392 0886 0690     		str	r0, [sp, #24]
 1393              		.loc 1 867 0
 1394 0888 15E0     		b	.L51
 1395              	.L52:
 1396              		.loc 1 869 0
 1397 088a FFF7FEFF 		bl	HAL_GetTick
 1398 088e 0246     		mov	r2, r0
 1399 0890 069B     		ldr	r3, [sp, #24]
 1400 0892 D31A     		subs	r3, r2, r3
 1401 0894 B3F57A7F 		cmp	r3, #1000
 1402 0898 0DD9     		bls	.L51
 1403              		.loc 1 872 0
 1404 089a 039B     		ldr	r3, [sp, #12]
 1405 089c 1B68     		ldr	r3, [r3]
 1406 089e FF22     		movs	r2, #255
 1407 08a0 5A62     		str	r2, [r3, #36]
 1408              		.loc 1 874 0
 1409 08a2 039B     		ldr	r3, [sp, #12]
 1410 08a4 0322     		movs	r2, #3
 1411 08a6 83F82120 		strb	r2, [r3, #33]
 1412              		.loc 1 877 0
 1413 08aa 039B     		ldr	r3, [sp, #12]
 1414 08ac 0022     		movs	r2, #0
 1415 08ae 83F82020 		strb	r2, [r3, #32]
 1416              		.loc 1 879 0
 1417 08b2 0323     		movs	r3, #3
ARM GAS  /tmp/ccHRl1iB.s 			page 26


 1418 08b4 65E0     		b	.L42
 1419              	.L51:
 1420              		.loc 1 867 0 discriminator 1
 1421 08b6 039B     		ldr	r3, [sp, #12]
 1422 08b8 1B68     		ldr	r3, [r3]
 1423 08ba DB68     		ldr	r3, [r3, #12]
 1424 08bc 03F00103 		and	r3, r3, #1
 1425 08c0 002B     		cmp	r3, #0
 1426 08c2 E2D0     		beq	.L52
 1427              		.loc 1 883 0
 1428 08c4 039B     		ldr	r3, [sp, #12]
 1429 08c6 1B68     		ldr	r3, [r3]
 1430 08c8 079A     		ldr	r2, [sp, #28]
 1431 08ca DA61     		str	r2, [r3, #28]
 1432              		.loc 1 885 0
 1433 08cc 039B     		ldr	r3, [sp, #12]
 1434 08ce 1B68     		ldr	r3, [r3]
 1435 08d0 059A     		ldr	r2, [sp, #20]
 1436 08d2 5A64     		str	r2, [r3, #68]
 1437              		.loc 1 887 0
 1438 08d4 039B     		ldr	r3, [sp, #12]
 1439 08d6 1B68     		ldr	r3, [r3]
 1440 08d8 039A     		ldr	r2, [sp, #12]
 1441 08da 1268     		ldr	r2, [r2]
 1442 08dc 9268     		ldr	r2, [r2, #8]
 1443 08de 42F48072 		orr	r2, r2, #256
 1444 08e2 9A60     		str	r2, [r3, #8]
 1445 08e4 40E0     		b	.L53
 1446              	.L50:
 1447              		.loc 1 892 0
 1448 08e6 039B     		ldr	r3, [sp, #12]
 1449 08e8 1B68     		ldr	r3, [r3]
 1450 08ea 039A     		ldr	r2, [sp, #12]
 1451 08ec 1268     		ldr	r2, [r2]
 1452 08ee 9268     		ldr	r2, [r2, #8]
 1453 08f0 22F40072 		bic	r2, r2, #512
 1454 08f4 9A60     		str	r2, [r3, #8]
 1455              		.loc 1 895 0
 1456 08f6 039B     		ldr	r3, [sp, #12]
 1457 08f8 1B68     		ldr	r3, [r3]
 1458 08fa 039A     		ldr	r2, [sp, #12]
 1459 08fc 1268     		ldr	r2, [r2]
 1460 08fe 9268     		ldr	r2, [r2, #8]
 1461 0900 22F40052 		bic	r2, r2, #8192
 1462 0904 9A60     		str	r2, [r3, #8]
 1463              		.loc 1 897 0
 1464 0906 FFF7FEFF 		bl	HAL_GetTick
 1465 090a 0690     		str	r0, [sp, #24]
 1466              		.loc 1 899 0
 1467 090c 15E0     		b	.L54
 1468              	.L55:
 1469              		.loc 1 901 0
 1470 090e FFF7FEFF 		bl	HAL_GetTick
 1471 0912 0246     		mov	r2, r0
 1472 0914 069B     		ldr	r3, [sp, #24]
 1473 0916 D31A     		subs	r3, r2, r3
 1474 0918 B3F57A7F 		cmp	r3, #1000
ARM GAS  /tmp/ccHRl1iB.s 			page 27


 1475 091c 0DD9     		bls	.L54
 1476              		.loc 1 904 0
 1477 091e 039B     		ldr	r3, [sp, #12]
 1478 0920 1B68     		ldr	r3, [r3]
 1479 0922 FF22     		movs	r2, #255
 1480 0924 5A62     		str	r2, [r3, #36]
 1481              		.loc 1 906 0
 1482 0926 039B     		ldr	r3, [sp, #12]
 1483 0928 0322     		movs	r2, #3
 1484 092a 83F82120 		strb	r2, [r3, #33]
 1485              		.loc 1 909 0
 1486 092e 039B     		ldr	r3, [sp, #12]
 1487 0930 0022     		movs	r2, #0
 1488 0932 83F82020 		strb	r2, [r3, #32]
 1489              		.loc 1 911 0
 1490 0936 0323     		movs	r3, #3
 1491 0938 23E0     		b	.L42
 1492              	.L54:
 1493              		.loc 1 899 0 discriminator 1
 1494 093a 039B     		ldr	r3, [sp, #12]
 1495 093c 1B68     		ldr	r3, [r3]
 1496 093e DB68     		ldr	r3, [r3, #12]
 1497 0940 03F00203 		and	r3, r3, #2
 1498 0944 002B     		cmp	r3, #0
 1499 0946 E2D0     		beq	.L55
 1500              		.loc 1 915 0
 1501 0948 039B     		ldr	r3, [sp, #12]
 1502 094a 1B68     		ldr	r3, [r3]
 1503 094c 079A     		ldr	r2, [sp, #28]
 1504 094e 1A62     		str	r2, [r3, #32]
 1505              		.loc 1 917 0
 1506 0950 039B     		ldr	r3, [sp, #12]
 1507 0952 1B68     		ldr	r3, [r3]
 1508 0954 059A     		ldr	r2, [sp, #20]
 1509 0956 9A64     		str	r2, [r3, #72]
 1510              		.loc 1 919 0
 1511 0958 039B     		ldr	r3, [sp, #12]
 1512 095a 1B68     		ldr	r3, [r3]
 1513 095c 039A     		ldr	r2, [sp, #12]
 1514 095e 1268     		ldr	r2, [r2]
 1515 0960 9268     		ldr	r2, [r2, #8]
 1516 0962 42F40072 		orr	r2, r2, #512
 1517 0966 9A60     		str	r2, [r3, #8]
 1518              	.L53:
 1519              		.loc 1 923 0
 1520 0968 039B     		ldr	r3, [sp, #12]
 1521 096a 1B68     		ldr	r3, [r3]
 1522 096c FF22     		movs	r2, #255
 1523 096e 5A62     		str	r2, [r3, #36]
 1524              		.loc 1 926 0
 1525 0970 039B     		ldr	r3, [sp, #12]
 1526 0972 0122     		movs	r2, #1
 1527 0974 83F82120 		strb	r2, [r3, #33]
 1528              		.loc 1 929 0
 1529 0978 039B     		ldr	r3, [sp, #12]
 1530 097a 0022     		movs	r2, #0
 1531 097c 83F82020 		strb	r2, [r3, #32]
ARM GAS  /tmp/ccHRl1iB.s 			page 28


 1532              		.loc 1 931 0
 1533 0980 0023     		movs	r3, #0
 1534              	.L42:
 1535              		.loc 1 932 0
 1536 0982 1846     		mov	r0, r3
 1537 0984 08B0     		add	sp, sp, #32
 1538              		@ sp needed
 1539 0986 10BD     		pop	{r4, pc}
 1540              		.cfi_endproc
 1541              	.LFE133:
 1542              		.size	HAL_RTC_SetAlarm, .-HAL_RTC_SetAlarm
 1543              		.align	2
 1544 0988 AFF30080 		.p2align 4,,15
 1544      AFF30080 
 1545              		.global	HAL_RTC_SetAlarm_IT
 1546              		.thumb
 1547              		.thumb_func
 1548              		.type	HAL_RTC_SetAlarm_IT, %function
 1549              	HAL_RTC_SetAlarm_IT:
 1550              	.LFB134:
 1551              		.loc 1 948 0
 1552              		.cfi_startproc
 1553              		@ args = 0, pretend = 0, frame = 32
 1554              		@ frame_needed = 0, uses_anonymous_args = 0
 1555 0990 10B5     		push	{r4, lr}
 1556              		.cfi_def_cfa_offset 8
 1557              		.cfi_offset 4, -8
 1558              		.cfi_offset 14, -4
 1559 0992 88B0     		sub	sp, sp, #32
 1560              		.cfi_def_cfa_offset 40
 1561 0994 0390     		str	r0, [sp, #12]
 1562 0996 0291     		str	r1, [sp, #8]
 1563 0998 0192     		str	r2, [sp, #4]
 1564              		.loc 1 949 0
 1565 099a 0023     		movs	r3, #0
 1566 099c 0693     		str	r3, [sp, #24]
 1567              		.loc 1 950 0
 1568 099e 0023     		movs	r3, #0
 1569 09a0 0793     		str	r3, [sp, #28]
 1570 09a2 0023     		movs	r3, #0
 1571 09a4 0593     		str	r3, [sp, #20]
 1572              		.loc 1 961 0
 1573 09a6 039B     		ldr	r3, [sp, #12]
 1574 09a8 93F82030 		ldrb	r3, [r3, #32]	@ zero_extendqisi2
 1575 09ac 012B     		cmp	r3, #1
 1576 09ae 01D1     		bne	.L57
 1577              		.loc 1 961 0 is_stmt 0 discriminator 1
 1578 09b0 0223     		movs	r3, #2
 1579 09b2 44E1     		b	.L58
 1580              	.L57:
 1581              		.loc 1 961 0 discriminator 2
 1582 09b4 039B     		ldr	r3, [sp, #12]
 1583 09b6 0122     		movs	r2, #1
 1584 09b8 83F82020 		strb	r2, [r3, #32]
 1585              		.loc 1 963 0 is_stmt 1 discriminator 2
 1586 09bc 039B     		ldr	r3, [sp, #12]
 1587 09be 0222     		movs	r2, #2
ARM GAS  /tmp/ccHRl1iB.s 			page 29


 1588 09c0 83F82120 		strb	r2, [r3, #33]
 1589              		.loc 1 965 0 discriminator 2
 1590 09c4 019B     		ldr	r3, [sp, #4]
 1591 09c6 002B     		cmp	r3, #0
 1592 09c8 37D1     		bne	.L59
 1593              		.loc 1 967 0
 1594 09ca 039B     		ldr	r3, [sp, #12]
 1595 09cc 1B68     		ldr	r3, [r3]
 1596 09ce 9B68     		ldr	r3, [r3, #8]
 1597 09d0 03F04003 		and	r3, r3, #64
 1598 09d4 002B     		cmp	r3, #0
 1599 09d6 02D1     		bne	.L60
 1600              		.loc 1 974 0
 1601 09d8 029B     		ldr	r3, [sp, #8]
 1602 09da 0022     		movs	r2, #0
 1603 09dc DA70     		strb	r2, [r3, #3]
 1604              	.L60:
 1605              		.loc 1 988 0
 1606 09de 029B     		ldr	r3, [sp, #8]
 1607 09e0 1B78     		ldrb	r3, [r3]	@ zero_extendqisi2
 1608 09e2 1846     		mov	r0, r3
 1609 09e4 FFF7FEFF 		bl	RTC_ByteToBcd2
 1610 09e8 0346     		mov	r3, r0
 1611 09ea 1C04     		lsls	r4, r3, #16
 1612              		.loc 1 989 0
 1613 09ec 029B     		ldr	r3, [sp, #8]
 1614 09ee 5B78     		ldrb	r3, [r3, #1]	@ zero_extendqisi2
 1615 09f0 1846     		mov	r0, r3
 1616 09f2 FFF7FEFF 		bl	RTC_ByteToBcd2
 1617 09f6 0346     		mov	r3, r0
 1618 09f8 1B02     		lsls	r3, r3, #8
 1619              		.loc 1 988 0
 1620 09fa 1C43     		orrs	r4, r4, r3
 1621              		.loc 1 990 0
 1622 09fc 029B     		ldr	r3, [sp, #8]
 1623 09fe 9B78     		ldrb	r3, [r3, #2]	@ zero_extendqisi2
 1624 0a00 1846     		mov	r0, r3
 1625 0a02 FFF7FEFF 		bl	RTC_ByteToBcd2
 1626 0a06 0346     		mov	r3, r0
 1627              		.loc 1 989 0
 1628 0a08 44EA0302 		orr	r2, r4, r3
 1629              		.loc 1 991 0
 1630 0a0c 029B     		ldr	r3, [sp, #8]
 1631 0a0e DB78     		ldrb	r3, [r3, #3]	@ zero_extendqisi2
 1632 0a10 1B04     		lsls	r3, r3, #16
 1633              		.loc 1 990 0
 1634 0a12 42EA0304 		orr	r4, r2, r3
 1635              		.loc 1 992 0
 1636 0a16 029B     		ldr	r3, [sp, #8]
 1637 0a18 93F82030 		ldrb	r3, [r3, #32]	@ zero_extendqisi2
 1638 0a1c 1846     		mov	r0, r3
 1639 0a1e FFF7FEFF 		bl	RTC_ByteToBcd2
 1640 0a22 0346     		mov	r3, r0
 1641 0a24 1B06     		lsls	r3, r3, #24
 1642              		.loc 1 991 0
 1643 0a26 44EA0302 		orr	r2, r4, r3
 1644              		.loc 1 993 0
ARM GAS  /tmp/ccHRl1iB.s 			page 30


 1645 0a2a 029B     		ldr	r3, [sp, #8]
 1646 0a2c DB69     		ldr	r3, [r3, #28]
 1647              		.loc 1 992 0
 1648 0a2e 1A43     		orrs	r2, r2, r3
 1649              		.loc 1 994 0
 1650 0a30 029B     		ldr	r3, [sp, #8]
 1651 0a32 5B69     		ldr	r3, [r3, #20]
 1652              		.loc 1 988 0
 1653 0a34 1343     		orrs	r3, r3, r2
 1654 0a36 0793     		str	r3, [sp, #28]
 1655 0a38 40E0     		b	.L61
 1656              	.L59:
 1657              		.loc 1 998 0
 1658 0a3a 039B     		ldr	r3, [sp, #12]
 1659 0a3c 1B68     		ldr	r3, [r3]
 1660 0a3e 9B68     		ldr	r3, [r3, #8]
 1661 0a40 03F04003 		and	r3, r3, #64
 1662 0a44 002B     		cmp	r3, #0
 1663 0a46 07D0     		beq	.L62
 1664              		.loc 1 1000 0
 1665 0a48 029B     		ldr	r3, [sp, #8]
 1666 0a4a 1B78     		ldrb	r3, [r3]	@ zero_extendqisi2
 1667 0a4c 1846     		mov	r0, r3
 1668 0a4e FFF7FEFF 		bl	RTC_Bcd2ToByte
 1669 0a52 0346     		mov	r3, r0
 1670 0a54 0793     		str	r3, [sp, #28]
 1671 0a56 02E0     		b	.L63
 1672              	.L62:
 1673              		.loc 1 1006 0
 1674 0a58 029B     		ldr	r3, [sp, #8]
 1675 0a5a 0022     		movs	r2, #0
 1676 0a5c DA70     		strb	r2, [r3, #3]
 1677              	.L63:
 1678              		.loc 1 1013 0
 1679 0a5e 029B     		ldr	r3, [sp, #8]
 1680 0a60 DB69     		ldr	r3, [r3, #28]
 1681 0a62 002B     		cmp	r3, #0
 1682 0a64 08D1     		bne	.L64
 1683              		.loc 1 1015 0
 1684 0a66 029B     		ldr	r3, [sp, #8]
 1685 0a68 93F82030 		ldrb	r3, [r3, #32]	@ zero_extendqisi2
 1686 0a6c 1846     		mov	r0, r3
 1687 0a6e FFF7FEFF 		bl	RTC_Bcd2ToByte
 1688 0a72 0346     		mov	r3, r0
 1689 0a74 0793     		str	r3, [sp, #28]
 1690 0a76 07E0     		b	.L65
 1691              	.L64:
 1692              		.loc 1 1020 0
 1693 0a78 029B     		ldr	r3, [sp, #8]
 1694 0a7a 93F82030 		ldrb	r3, [r3, #32]	@ zero_extendqisi2
 1695 0a7e 1846     		mov	r0, r3
 1696 0a80 FFF7FEFF 		bl	RTC_Bcd2ToByte
 1697 0a84 0346     		mov	r3, r0
 1698 0a86 0793     		str	r3, [sp, #28]
 1699              	.L65:
 1700              		.loc 1 1023 0
 1701 0a88 029B     		ldr	r3, [sp, #8]
ARM GAS  /tmp/ccHRl1iB.s 			page 31


 1702 0a8a 1B78     		ldrb	r3, [r3]	@ zero_extendqisi2
 1703 0a8c 1A04     		lsls	r2, r3, #16
 1704              		.loc 1 1024 0
 1705 0a8e 029B     		ldr	r3, [sp, #8]
 1706 0a90 5B78     		ldrb	r3, [r3, #1]	@ zero_extendqisi2
 1707 0a92 1B02     		lsls	r3, r3, #8
 1708              		.loc 1 1023 0
 1709 0a94 1A43     		orrs	r2, r2, r3
 1710              		.loc 1 1025 0
 1711 0a96 029B     		ldr	r3, [sp, #8]
 1712 0a98 9B78     		ldrb	r3, [r3, #2]	@ zero_extendqisi2
 1713              		.loc 1 1024 0
 1714 0a9a 1A43     		orrs	r2, r2, r3
 1715              		.loc 1 1026 0
 1716 0a9c 029B     		ldr	r3, [sp, #8]
 1717 0a9e DB78     		ldrb	r3, [r3, #3]	@ zero_extendqisi2
 1718 0aa0 1B04     		lsls	r3, r3, #16
 1719              		.loc 1 1025 0
 1720 0aa2 1A43     		orrs	r2, r2, r3
 1721              		.loc 1 1027 0
 1722 0aa4 029B     		ldr	r3, [sp, #8]
 1723 0aa6 93F82030 		ldrb	r3, [r3, #32]	@ zero_extendqisi2
 1724 0aaa 1B06     		lsls	r3, r3, #24
 1725              		.loc 1 1026 0
 1726 0aac 1A43     		orrs	r2, r2, r3
 1727              		.loc 1 1028 0
 1728 0aae 029B     		ldr	r3, [sp, #8]
 1729 0ab0 DB69     		ldr	r3, [r3, #28]
 1730              		.loc 1 1027 0
 1731 0ab2 1A43     		orrs	r2, r2, r3
 1732              		.loc 1 1029 0
 1733 0ab4 029B     		ldr	r3, [sp, #8]
 1734 0ab6 5B69     		ldr	r3, [r3, #20]
 1735              		.loc 1 1023 0
 1736 0ab8 1343     		orrs	r3, r3, r2
 1737 0aba 0793     		str	r3, [sp, #28]
 1738              	.L61:
 1739              		.loc 1 1032 0
 1740 0abc 029B     		ldr	r3, [sp, #8]
 1741 0abe 5A68     		ldr	r2, [r3, #4]
 1742 0ac0 029B     		ldr	r3, [sp, #8]
 1743 0ac2 9B69     		ldr	r3, [r3, #24]
 1744 0ac4 1343     		orrs	r3, r3, r2
 1745 0ac6 0593     		str	r3, [sp, #20]
 1746              		.loc 1 1035 0
 1747 0ac8 039B     		ldr	r3, [sp, #12]
 1748 0aca 1B68     		ldr	r3, [r3]
 1749 0acc CA22     		movs	r2, #202
 1750 0ace 5A62     		str	r2, [r3, #36]
 1751 0ad0 039B     		ldr	r3, [sp, #12]
 1752 0ad2 1B68     		ldr	r3, [r3]
 1753 0ad4 5322     		movs	r2, #83
 1754 0ad6 5A62     		str	r2, [r3, #36]
 1755              		.loc 1 1038 0
 1756 0ad8 029B     		ldr	r3, [sp, #8]
 1757 0ada 5B6A     		ldr	r3, [r3, #36]
 1758 0adc B3F5807F 		cmp	r3, #256
ARM GAS  /tmp/ccHRl1iB.s 			page 32


 1759 0ae0 4AD1     		bne	.L66
 1760              		.loc 1 1041 0
 1761 0ae2 039B     		ldr	r3, [sp, #12]
 1762 0ae4 1B68     		ldr	r3, [r3]
 1763 0ae6 039A     		ldr	r2, [sp, #12]
 1764 0ae8 1268     		ldr	r2, [r2]
 1765 0aea 9268     		ldr	r2, [r2, #8]
 1766 0aec 22F48072 		bic	r2, r2, #256
 1767 0af0 9A60     		str	r2, [r3, #8]
 1768              		.loc 1 1044 0
 1769 0af2 039B     		ldr	r3, [sp, #12]
 1770 0af4 1B68     		ldr	r3, [r3]
 1771 0af6 039A     		ldr	r2, [sp, #12]
 1772 0af8 1268     		ldr	r2, [r2]
 1773 0afa D268     		ldr	r2, [r2, #12]
 1774 0afc D2B2     		uxtb	r2, r2
 1775 0afe 62F4C072 		orn	r2, r2, #384
 1776 0b02 DA60     		str	r2, [r3, #12]
 1777              		.loc 1 1046 0
 1778 0b04 FFF7FEFF 		bl	HAL_GetTick
 1779 0b08 0690     		str	r0, [sp, #24]
 1780              		.loc 1 1048 0
 1781 0b0a 15E0     		b	.L67
 1782              	.L68:
 1783              		.loc 1 1050 0
 1784 0b0c FFF7FEFF 		bl	HAL_GetTick
 1785 0b10 0246     		mov	r2, r0
 1786 0b12 069B     		ldr	r3, [sp, #24]
 1787 0b14 D31A     		subs	r3, r2, r3
 1788 0b16 B3F57A7F 		cmp	r3, #1000
 1789 0b1a 0DD9     		bls	.L67
 1790              		.loc 1 1053 0
 1791 0b1c 039B     		ldr	r3, [sp, #12]
 1792 0b1e 1B68     		ldr	r3, [r3]
 1793 0b20 FF22     		movs	r2, #255
 1794 0b22 5A62     		str	r2, [r3, #36]
 1795              		.loc 1 1055 0
 1796 0b24 039B     		ldr	r3, [sp, #12]
 1797 0b26 0322     		movs	r2, #3
 1798 0b28 83F82120 		strb	r2, [r3, #33]
 1799              		.loc 1 1058 0
 1800 0b2c 039B     		ldr	r3, [sp, #12]
 1801 0b2e 0022     		movs	r2, #0
 1802 0b30 83F82020 		strb	r2, [r3, #32]
 1803              		.loc 1 1060 0
 1804 0b34 0323     		movs	r3, #3
 1805 0b36 82E0     		b	.L58
 1806              	.L67:
 1807              		.loc 1 1048 0 discriminator 1
 1808 0b38 039B     		ldr	r3, [sp, #12]
 1809 0b3a 1B68     		ldr	r3, [r3]
 1810 0b3c DB68     		ldr	r3, [r3, #12]
 1811 0b3e 03F00103 		and	r3, r3, #1
 1812 0b42 002B     		cmp	r3, #0
 1813 0b44 E2D0     		beq	.L68
 1814              		.loc 1 1064 0
 1815 0b46 039B     		ldr	r3, [sp, #12]
ARM GAS  /tmp/ccHRl1iB.s 			page 33


 1816 0b48 1B68     		ldr	r3, [r3]
 1817 0b4a 079A     		ldr	r2, [sp, #28]
 1818 0b4c DA61     		str	r2, [r3, #28]
 1819              		.loc 1 1066 0
 1820 0b4e 039B     		ldr	r3, [sp, #12]
 1821 0b50 1B68     		ldr	r3, [r3]
 1822 0b52 059A     		ldr	r2, [sp, #20]
 1823 0b54 5A64     		str	r2, [r3, #68]
 1824              		.loc 1 1068 0
 1825 0b56 039B     		ldr	r3, [sp, #12]
 1826 0b58 1B68     		ldr	r3, [r3]
 1827 0b5a 039A     		ldr	r2, [sp, #12]
 1828 0b5c 1268     		ldr	r2, [r2]
 1829 0b5e 9268     		ldr	r2, [r2, #8]
 1830 0b60 42F48072 		orr	r2, r2, #256
 1831 0b64 9A60     		str	r2, [r3, #8]
 1832              		.loc 1 1070 0
 1833 0b66 039B     		ldr	r3, [sp, #12]
 1834 0b68 1B68     		ldr	r3, [r3]
 1835 0b6a 039A     		ldr	r2, [sp, #12]
 1836 0b6c 1268     		ldr	r2, [r2]
 1837 0b6e 9268     		ldr	r2, [r2, #8]
 1838 0b70 42F48052 		orr	r2, r2, #4096
 1839 0b74 9A60     		str	r2, [r3, #8]
 1840 0b76 49E0     		b	.L69
 1841              	.L66:
 1842              		.loc 1 1075 0
 1843 0b78 039B     		ldr	r3, [sp, #12]
 1844 0b7a 1B68     		ldr	r3, [r3]
 1845 0b7c 039A     		ldr	r2, [sp, #12]
 1846 0b7e 1268     		ldr	r2, [r2]
 1847 0b80 9268     		ldr	r2, [r2, #8]
 1848 0b82 22F40072 		bic	r2, r2, #512
 1849 0b86 9A60     		str	r2, [r3, #8]
 1850              		.loc 1 1078 0
 1851 0b88 039B     		ldr	r3, [sp, #12]
 1852 0b8a 1B68     		ldr	r3, [r3]
 1853 0b8c 039A     		ldr	r2, [sp, #12]
 1854 0b8e 1268     		ldr	r2, [r2]
 1855 0b90 D268     		ldr	r2, [r2, #12]
 1856 0b92 D2B2     		uxtb	r2, r2
 1857 0b94 62F42072 		orn	r2, r2, #640
 1858 0b98 DA60     		str	r2, [r3, #12]
 1859              		.loc 1 1080 0
 1860 0b9a FFF7FEFF 		bl	HAL_GetTick
 1861 0b9e 0690     		str	r0, [sp, #24]
 1862              		.loc 1 1082 0
 1863 0ba0 15E0     		b	.L70
 1864              	.L71:
 1865              		.loc 1 1084 0
 1866 0ba2 FFF7FEFF 		bl	HAL_GetTick
 1867 0ba6 0246     		mov	r2, r0
 1868 0ba8 069B     		ldr	r3, [sp, #24]
 1869 0baa D31A     		subs	r3, r2, r3
 1870 0bac B3F57A7F 		cmp	r3, #1000
 1871 0bb0 0DD9     		bls	.L70
 1872              		.loc 1 1087 0
ARM GAS  /tmp/ccHRl1iB.s 			page 34


 1873 0bb2 039B     		ldr	r3, [sp, #12]
 1874 0bb4 1B68     		ldr	r3, [r3]
 1875 0bb6 FF22     		movs	r2, #255
 1876 0bb8 5A62     		str	r2, [r3, #36]
 1877              		.loc 1 1089 0
 1878 0bba 039B     		ldr	r3, [sp, #12]
 1879 0bbc 0322     		movs	r2, #3
 1880 0bbe 83F82120 		strb	r2, [r3, #33]
 1881              		.loc 1 1092 0
 1882 0bc2 039B     		ldr	r3, [sp, #12]
 1883 0bc4 0022     		movs	r2, #0
 1884 0bc6 83F82020 		strb	r2, [r3, #32]
 1885              		.loc 1 1094 0
 1886 0bca 0323     		movs	r3, #3
 1887 0bcc 37E0     		b	.L58
 1888              	.L70:
 1889              		.loc 1 1082 0 discriminator 1
 1890 0bce 039B     		ldr	r3, [sp, #12]
 1891 0bd0 1B68     		ldr	r3, [r3]
 1892 0bd2 DB68     		ldr	r3, [r3, #12]
 1893 0bd4 03F00203 		and	r3, r3, #2
 1894 0bd8 002B     		cmp	r3, #0
 1895 0bda E2D0     		beq	.L71
 1896              		.loc 1 1098 0
 1897 0bdc 039B     		ldr	r3, [sp, #12]
 1898 0bde 1B68     		ldr	r3, [r3]
 1899 0be0 079A     		ldr	r2, [sp, #28]
 1900 0be2 1A62     		str	r2, [r3, #32]
 1901              		.loc 1 1100 0
 1902 0be4 039B     		ldr	r3, [sp, #12]
 1903 0be6 1B68     		ldr	r3, [r3]
 1904 0be8 059A     		ldr	r2, [sp, #20]
 1905 0bea 9A64     		str	r2, [r3, #72]
 1906              		.loc 1 1102 0
 1907 0bec 039B     		ldr	r3, [sp, #12]
 1908 0bee 1B68     		ldr	r3, [r3]
 1909 0bf0 039A     		ldr	r2, [sp, #12]
 1910 0bf2 1268     		ldr	r2, [r2]
 1911 0bf4 9268     		ldr	r2, [r2, #8]
 1912 0bf6 42F40072 		orr	r2, r2, #512
 1913 0bfa 9A60     		str	r2, [r3, #8]
 1914              		.loc 1 1104 0
 1915 0bfc 039B     		ldr	r3, [sp, #12]
 1916 0bfe 1B68     		ldr	r3, [r3]
 1917 0c00 039A     		ldr	r2, [sp, #12]
 1918 0c02 1268     		ldr	r2, [r2]
 1919 0c04 9268     		ldr	r2, [r2, #8]
 1920 0c06 42F40052 		orr	r2, r2, #8192
 1921 0c0a 9A60     		str	r2, [r3, #8]
 1922              	.L69:
 1923              		.loc 1 1108 0
 1924 0c0c 0D4B     		ldr	r3, .L72
 1925 0c0e 0D4A     		ldr	r2, .L72
 1926 0c10 1268     		ldr	r2, [r2]
 1927 0c12 42F48022 		orr	r2, r2, #262144
 1928 0c16 1A60     		str	r2, [r3]
 1929              		.loc 1 1110 0
ARM GAS  /tmp/ccHRl1iB.s 			page 35


 1930 0c18 0A4B     		ldr	r3, .L72
 1931 0c1a 0A4A     		ldr	r2, .L72
 1932 0c1c 9268     		ldr	r2, [r2, #8]
 1933 0c1e 42F48022 		orr	r2, r2, #262144
 1934 0c22 9A60     		str	r2, [r3, #8]
 1935              		.loc 1 1113 0
 1936 0c24 039B     		ldr	r3, [sp, #12]
 1937 0c26 1B68     		ldr	r3, [r3]
 1938 0c28 FF22     		movs	r2, #255
 1939 0c2a 5A62     		str	r2, [r3, #36]
 1940              		.loc 1 1115 0
 1941 0c2c 039B     		ldr	r3, [sp, #12]
 1942 0c2e 0122     		movs	r2, #1
 1943 0c30 83F82120 		strb	r2, [r3, #33]
 1944              		.loc 1 1118 0
 1945 0c34 039B     		ldr	r3, [sp, #12]
 1946 0c36 0022     		movs	r2, #0
 1947 0c38 83F82020 		strb	r2, [r3, #32]
 1948              		.loc 1 1120 0
 1949 0c3c 0023     		movs	r3, #0
 1950              	.L58:
 1951              		.loc 1 1121 0
 1952 0c3e 1846     		mov	r0, r3
 1953 0c40 08B0     		add	sp, sp, #32
 1954              		@ sp needed
 1955 0c42 10BD     		pop	{r4, pc}
 1956              	.L73:
 1957              		.align	2
 1958              	.L72:
 1959 0c44 00040140 		.word	1073808384
 1960              		.cfi_endproc
 1961              	.LFE134:
 1962              		.size	HAL_RTC_SetAlarm_IT, .-HAL_RTC_SetAlarm_IT
 1963              		.align	2
 1964 0c48 AFF30080 		.p2align 4,,15
 1964      AFF30080 
 1965              		.global	HAL_RTC_DeactivateAlarm
 1966              		.thumb
 1967              		.thumb_func
 1968              		.type	HAL_RTC_DeactivateAlarm, %function
 1969              	HAL_RTC_DeactivateAlarm:
 1970              	.LFB135:
 1971              		.loc 1 1133 0
 1972              		.cfi_startproc
 1973              		@ args = 0, pretend = 0, frame = 16
 1974              		@ frame_needed = 0, uses_anonymous_args = 0
 1975 0c50 00B5     		push	{lr}
 1976              		.cfi_def_cfa_offset 4
 1977              		.cfi_offset 14, -4
 1978 0c52 85B0     		sub	sp, sp, #20
 1979              		.cfi_def_cfa_offset 24
 1980 0c54 0190     		str	r0, [sp, #4]
 1981 0c56 0091     		str	r1, [sp]
 1982              		.loc 1 1134 0
 1983 0c58 0023     		movs	r3, #0
 1984 0c5a 0393     		str	r3, [sp, #12]
 1985              		.loc 1 1140 0
ARM GAS  /tmp/ccHRl1iB.s 			page 36


 1986 0c5c 019B     		ldr	r3, [sp, #4]
 1987 0c5e 93F82030 		ldrb	r3, [r3, #32]	@ zero_extendqisi2
 1988 0c62 012B     		cmp	r3, #1
 1989 0c64 01D1     		bne	.L75
 1990              		.loc 1 1140 0 is_stmt 0 discriminator 1
 1991 0c66 0223     		movs	r3, #2
 1992 0c68 83E0     		b	.L76
 1993              	.L75:
 1994              		.loc 1 1140 0 discriminator 2
 1995 0c6a 019B     		ldr	r3, [sp, #4]
 1996 0c6c 0122     		movs	r2, #1
 1997 0c6e 83F82020 		strb	r2, [r3, #32]
 1998              		.loc 1 1142 0 is_stmt 1 discriminator 2
 1999 0c72 019B     		ldr	r3, [sp, #4]
 2000 0c74 0222     		movs	r2, #2
 2001 0c76 83F82120 		strb	r2, [r3, #33]
 2002              		.loc 1 1145 0 discriminator 2
 2003 0c7a 019B     		ldr	r3, [sp, #4]
 2004 0c7c 1B68     		ldr	r3, [r3]
 2005 0c7e CA22     		movs	r2, #202
 2006 0c80 5A62     		str	r2, [r3, #36]
 2007 0c82 019B     		ldr	r3, [sp, #4]
 2008 0c84 1B68     		ldr	r3, [r3]
 2009 0c86 5322     		movs	r2, #83
 2010 0c88 5A62     		str	r2, [r3, #36]
 2011              		.loc 1 1147 0 discriminator 2
 2012 0c8a 009B     		ldr	r3, [sp]
 2013 0c8c B3F5807F 		cmp	r3, #256
 2014 0c90 31D1     		bne	.L77
 2015              		.loc 1 1150 0
 2016 0c92 019B     		ldr	r3, [sp, #4]
 2017 0c94 1B68     		ldr	r3, [r3]
 2018 0c96 019A     		ldr	r2, [sp, #4]
 2019 0c98 1268     		ldr	r2, [r2]
 2020 0c9a 9268     		ldr	r2, [r2, #8]
 2021 0c9c 22F48072 		bic	r2, r2, #256
 2022 0ca0 9A60     		str	r2, [r3, #8]
 2023              		.loc 1 1153 0
 2024 0ca2 019B     		ldr	r3, [sp, #4]
 2025 0ca4 1B68     		ldr	r3, [r3]
 2026 0ca6 019A     		ldr	r2, [sp, #4]
 2027 0ca8 1268     		ldr	r2, [r2]
 2028 0caa 9268     		ldr	r2, [r2, #8]
 2029 0cac 22F48052 		bic	r2, r2, #4096
 2030 0cb0 9A60     		str	r2, [r3, #8]
 2031              		.loc 1 1155 0
 2032 0cb2 FFF7FEFF 		bl	HAL_GetTick
 2033 0cb6 0390     		str	r0, [sp, #12]
 2034              		.loc 1 1158 0
 2035 0cb8 15E0     		b	.L78
 2036              	.L79:
 2037              		.loc 1 1160 0
 2038 0cba FFF7FEFF 		bl	HAL_GetTick
 2039 0cbe 0246     		mov	r2, r0
 2040 0cc0 039B     		ldr	r3, [sp, #12]
 2041 0cc2 D31A     		subs	r3, r2, r3
 2042 0cc4 B3F57A7F 		cmp	r3, #1000
ARM GAS  /tmp/ccHRl1iB.s 			page 37


 2043 0cc8 0DD9     		bls	.L78
 2044              		.loc 1 1163 0
 2045 0cca 019B     		ldr	r3, [sp, #4]
 2046 0ccc 1B68     		ldr	r3, [r3]
 2047 0cce FF22     		movs	r2, #255
 2048 0cd0 5A62     		str	r2, [r3, #36]
 2049              		.loc 1 1165 0
 2050 0cd2 019B     		ldr	r3, [sp, #4]
 2051 0cd4 0322     		movs	r2, #3
 2052 0cd6 83F82120 		strb	r2, [r3, #33]
 2053              		.loc 1 1168 0
 2054 0cda 019B     		ldr	r3, [sp, #4]
 2055 0cdc 0022     		movs	r2, #0
 2056 0cde 83F82020 		strb	r2, [r3, #32]
 2057              		.loc 1 1170 0
 2058 0ce2 0323     		movs	r3, #3
 2059 0ce4 45E0     		b	.L76
 2060              	.L78:
 2061              		.loc 1 1158 0 discriminator 1
 2062 0ce6 019B     		ldr	r3, [sp, #4]
 2063 0ce8 1B68     		ldr	r3, [r3]
 2064 0cea DB68     		ldr	r3, [r3, #12]
 2065 0cec 03F00103 		and	r3, r3, #1
 2066 0cf0 002B     		cmp	r3, #0
 2067 0cf2 E2D0     		beq	.L79
 2068 0cf4 30E0     		b	.L80
 2069              	.L77:
 2070              		.loc 1 1177 0
 2071 0cf6 019B     		ldr	r3, [sp, #4]
 2072 0cf8 1B68     		ldr	r3, [r3]
 2073 0cfa 019A     		ldr	r2, [sp, #4]
 2074 0cfc 1268     		ldr	r2, [r2]
 2075 0cfe 9268     		ldr	r2, [r2, #8]
 2076 0d00 22F40072 		bic	r2, r2, #512
 2077 0d04 9A60     		str	r2, [r3, #8]
 2078              		.loc 1 1180 0
 2079 0d06 019B     		ldr	r3, [sp, #4]
 2080 0d08 1B68     		ldr	r3, [r3]
 2081 0d0a 019A     		ldr	r2, [sp, #4]
 2082 0d0c 1268     		ldr	r2, [r2]
 2083 0d0e 9268     		ldr	r2, [r2, #8]
 2084 0d10 22F40052 		bic	r2, r2, #8192
 2085 0d14 9A60     		str	r2, [r3, #8]
 2086              		.loc 1 1182 0
 2087 0d16 FFF7FEFF 		bl	HAL_GetTick
 2088 0d1a 0390     		str	r0, [sp, #12]
 2089              		.loc 1 1185 0
 2090 0d1c 15E0     		b	.L81
 2091              	.L82:
 2092              		.loc 1 1187 0
 2093 0d1e FFF7FEFF 		bl	HAL_GetTick
 2094 0d22 0246     		mov	r2, r0
 2095 0d24 039B     		ldr	r3, [sp, #12]
 2096 0d26 D31A     		subs	r3, r2, r3
 2097 0d28 B3F57A7F 		cmp	r3, #1000
 2098 0d2c 0DD9     		bls	.L81
 2099              		.loc 1 1190 0
ARM GAS  /tmp/ccHRl1iB.s 			page 38


 2100 0d2e 019B     		ldr	r3, [sp, #4]
 2101 0d30 1B68     		ldr	r3, [r3]
 2102 0d32 FF22     		movs	r2, #255
 2103 0d34 5A62     		str	r2, [r3, #36]
 2104              		.loc 1 1192 0
 2105 0d36 019B     		ldr	r3, [sp, #4]
 2106 0d38 0322     		movs	r2, #3
 2107 0d3a 83F82120 		strb	r2, [r3, #33]
 2108              		.loc 1 1195 0
 2109 0d3e 019B     		ldr	r3, [sp, #4]
 2110 0d40 0022     		movs	r2, #0
 2111 0d42 83F82020 		strb	r2, [r3, #32]
 2112              		.loc 1 1197 0
 2113 0d46 0323     		movs	r3, #3
 2114 0d48 13E0     		b	.L76
 2115              	.L81:
 2116              		.loc 1 1185 0 discriminator 1
 2117 0d4a 019B     		ldr	r3, [sp, #4]
 2118 0d4c 1B68     		ldr	r3, [r3]
 2119 0d4e DB68     		ldr	r3, [r3, #12]
 2120 0d50 03F00203 		and	r3, r3, #2
 2121 0d54 002B     		cmp	r3, #0
 2122 0d56 E2D0     		beq	.L82
 2123              	.L80:
 2124              		.loc 1 1202 0
 2125 0d58 019B     		ldr	r3, [sp, #4]
 2126 0d5a 1B68     		ldr	r3, [r3]
 2127 0d5c FF22     		movs	r2, #255
 2128 0d5e 5A62     		str	r2, [r3, #36]
 2129              		.loc 1 1204 0
 2130 0d60 019B     		ldr	r3, [sp, #4]
 2131 0d62 0122     		movs	r2, #1
 2132 0d64 83F82120 		strb	r2, [r3, #33]
 2133              		.loc 1 1207 0
 2134 0d68 019B     		ldr	r3, [sp, #4]
 2135 0d6a 0022     		movs	r2, #0
 2136 0d6c 83F82020 		strb	r2, [r3, #32]
 2137              		.loc 1 1209 0
 2138 0d70 0023     		movs	r3, #0
 2139              	.L76:
 2140              		.loc 1 1210 0
 2141 0d72 1846     		mov	r0, r3
 2142 0d74 05B0     		add	sp, sp, #20
 2143              		@ sp needed
 2144 0d76 5DF804FB 		ldr	pc, [sp], #4
 2145              		.cfi_endproc
 2146              	.LFE135:
 2147              		.size	HAL_RTC_DeactivateAlarm, .-HAL_RTC_DeactivateAlarm
 2148 0d7a 00BF     		.align	2
 2149 0d7c AFF30080 		.p2align 4,,15
 2150              		.global	HAL_RTC_GetAlarm
 2151              		.thumb
 2152              		.thumb_func
 2153              		.type	HAL_RTC_GetAlarm, %function
 2154              	HAL_RTC_GetAlarm:
 2155              	.LFB136:
 2156              		.loc 1 1227 0
ARM GAS  /tmp/ccHRl1iB.s 			page 39


 2157              		.cfi_startproc
 2158              		@ args = 0, pretend = 0, frame = 24
 2159              		@ frame_needed = 0, uses_anonymous_args = 0
 2160 0d80 00B5     		push	{lr}
 2161              		.cfi_def_cfa_offset 4
 2162              		.cfi_offset 14, -4
 2163 0d82 87B0     		sub	sp, sp, #28
 2164              		.cfi_def_cfa_offset 32
 2165 0d84 0390     		str	r0, [sp, #12]
 2166 0d86 0291     		str	r1, [sp, #8]
 2167 0d88 0192     		str	r2, [sp, #4]
 2168 0d8a 0093     		str	r3, [sp]
 2169              		.loc 1 1228 0
 2170 0d8c 0023     		movs	r3, #0
 2171 0d8e 0593     		str	r3, [sp, #20]
 2172 0d90 0023     		movs	r3, #0
 2173 0d92 0493     		str	r3, [sp, #16]
 2174              		.loc 1 1234 0
 2175 0d94 019B     		ldr	r3, [sp, #4]
 2176 0d96 B3F5807F 		cmp	r3, #256
 2177 0d9a 0ED1     		bne	.L84
 2178              		.loc 1 1237 0
 2179 0d9c 029B     		ldr	r3, [sp, #8]
 2180 0d9e 4FF48072 		mov	r2, #256
 2181 0da2 5A62     		str	r2, [r3, #36]
 2182              		.loc 1 1239 0
 2183 0da4 039B     		ldr	r3, [sp, #12]
 2184 0da6 1B68     		ldr	r3, [r3]
 2185 0da8 DB69     		ldr	r3, [r3, #28]
 2186 0daa 0593     		str	r3, [sp, #20]
 2187              		.loc 1 1240 0
 2188 0dac 039B     		ldr	r3, [sp, #12]
 2189 0dae 1B68     		ldr	r3, [r3]
 2190 0db0 5B6C     		ldr	r3, [r3, #68]
 2191 0db2 C3F30E03 		ubfx	r3, r3, #0, #15
 2192 0db6 0493     		str	r3, [sp, #16]
 2193 0db8 0DE0     		b	.L85
 2194              	.L84:
 2195              		.loc 1 1244 0
 2196 0dba 029B     		ldr	r3, [sp, #8]
 2197 0dbc 4FF40072 		mov	r2, #512
 2198 0dc0 5A62     		str	r2, [r3, #36]
 2199              		.loc 1 1246 0
 2200 0dc2 039B     		ldr	r3, [sp, #12]
 2201 0dc4 1B68     		ldr	r3, [r3]
 2202 0dc6 1B6A     		ldr	r3, [r3, #32]
 2203 0dc8 0593     		str	r3, [sp, #20]
 2204              		.loc 1 1247 0
 2205 0dca 039B     		ldr	r3, [sp, #12]
 2206 0dcc 1B68     		ldr	r3, [r3]
 2207 0dce 9B6C     		ldr	r3, [r3, #72]
 2208 0dd0 C3F30E03 		ubfx	r3, r3, #0, #15
 2209 0dd4 0493     		str	r3, [sp, #16]
 2210              	.L85:
 2211              		.loc 1 1252 0
 2212 0dd6 059B     		ldr	r3, [sp, #20]
 2213 0dd8 03F47C13 		and	r3, r3, #4128768
ARM GAS  /tmp/ccHRl1iB.s 			page 40


 2214 0ddc 1B0C     		lsrs	r3, r3, #16
 2215 0dde DAB2     		uxtb	r2, r3
 2216 0de0 029B     		ldr	r3, [sp, #8]
 2217 0de2 1A70     		strb	r2, [r3]
 2218              		.loc 1 1253 0
 2219 0de4 059B     		ldr	r3, [sp, #20]
 2220 0de6 03F4FE43 		and	r3, r3, #32512
 2221 0dea 1B0A     		lsrs	r3, r3, #8
 2222 0dec DAB2     		uxtb	r2, r3
 2223 0dee 029B     		ldr	r3, [sp, #8]
 2224 0df0 5A70     		strb	r2, [r3, #1]
 2225              		.loc 1 1254 0
 2226 0df2 059B     		ldr	r3, [sp, #20]
 2227 0df4 DBB2     		uxtb	r3, r3
 2228 0df6 03F07F03 		and	r3, r3, #127
 2229 0dfa DAB2     		uxtb	r2, r3
 2230 0dfc 029B     		ldr	r3, [sp, #8]
 2231 0dfe 9A70     		strb	r2, [r3, #2]
 2232              		.loc 1 1255 0
 2233 0e00 059B     		ldr	r3, [sp, #20]
 2234 0e02 03F48003 		and	r3, r3, #4194304
 2235 0e06 1B0C     		lsrs	r3, r3, #16
 2236 0e08 DAB2     		uxtb	r2, r3
 2237 0e0a 029B     		ldr	r3, [sp, #8]
 2238 0e0c DA70     		strb	r2, [r3, #3]
 2239              		.loc 1 1256 0
 2240 0e0e 029B     		ldr	r3, [sp, #8]
 2241 0e10 049A     		ldr	r2, [sp, #16]
 2242 0e12 5A60     		str	r2, [r3, #4]
 2243              		.loc 1 1257 0
 2244 0e14 059B     		ldr	r3, [sp, #20]
 2245 0e16 03F07C53 		and	r3, r3, #1056964608
 2246 0e1a 1B0E     		lsrs	r3, r3, #24
 2247 0e1c DAB2     		uxtb	r2, r3
 2248 0e1e 029B     		ldr	r3, [sp, #8]
 2249 0e20 83F82020 		strb	r2, [r3, #32]
 2250              		.loc 1 1258 0
 2251 0e24 059B     		ldr	r3, [sp, #20]
 2252 0e26 03F08042 		and	r2, r3, #1073741824
 2253 0e2a 029B     		ldr	r3, [sp, #8]
 2254 0e2c DA61     		str	r2, [r3, #28]
 2255              		.loc 1 1259 0
 2256 0e2e 059B     		ldr	r3, [sp, #20]
 2257 0e30 03F08032 		and	r2, r3, #-2139062144
 2258 0e34 029B     		ldr	r3, [sp, #8]
 2259 0e36 5A61     		str	r2, [r3, #20]
 2260              		.loc 1 1261 0
 2261 0e38 009B     		ldr	r3, [sp]
 2262 0e3a 002B     		cmp	r3, #0
 2263 0e3c 25D1     		bne	.L86
 2264              		.loc 1 1263 0
 2265 0e3e 029B     		ldr	r3, [sp, #8]
 2266 0e40 1B78     		ldrb	r3, [r3]	@ zero_extendqisi2
 2267 0e42 1846     		mov	r0, r3
 2268 0e44 FFF7FEFF 		bl	RTC_Bcd2ToByte
 2269 0e48 0346     		mov	r3, r0
 2270 0e4a 1A46     		mov	r2, r3
ARM GAS  /tmp/ccHRl1iB.s 			page 41


 2271 0e4c 029B     		ldr	r3, [sp, #8]
 2272 0e4e 1A70     		strb	r2, [r3]
 2273              		.loc 1 1264 0
 2274 0e50 029B     		ldr	r3, [sp, #8]
 2275 0e52 5B78     		ldrb	r3, [r3, #1]	@ zero_extendqisi2
 2276 0e54 1846     		mov	r0, r3
 2277 0e56 FFF7FEFF 		bl	RTC_Bcd2ToByte
 2278 0e5a 0346     		mov	r3, r0
 2279 0e5c 1A46     		mov	r2, r3
 2280 0e5e 029B     		ldr	r3, [sp, #8]
 2281 0e60 5A70     		strb	r2, [r3, #1]
 2282              		.loc 1 1265 0
 2283 0e62 029B     		ldr	r3, [sp, #8]
 2284 0e64 9B78     		ldrb	r3, [r3, #2]	@ zero_extendqisi2
 2285 0e66 1846     		mov	r0, r3
 2286 0e68 FFF7FEFF 		bl	RTC_Bcd2ToByte
 2287 0e6c 0346     		mov	r3, r0
 2288 0e6e 1A46     		mov	r2, r3
 2289 0e70 029B     		ldr	r3, [sp, #8]
 2290 0e72 9A70     		strb	r2, [r3, #2]
 2291              		.loc 1 1266 0
 2292 0e74 029B     		ldr	r3, [sp, #8]
 2293 0e76 93F82030 		ldrb	r3, [r3, #32]	@ zero_extendqisi2
 2294 0e7a 1846     		mov	r0, r3
 2295 0e7c FFF7FEFF 		bl	RTC_Bcd2ToByte
 2296 0e80 0346     		mov	r3, r0
 2297 0e82 1A46     		mov	r2, r3
 2298 0e84 029B     		ldr	r3, [sp, #8]
 2299 0e86 83F82020 		strb	r2, [r3, #32]
 2300              	.L86:
 2301              		.loc 1 1269 0
 2302 0e8a 0023     		movs	r3, #0
 2303              		.loc 1 1270 0
 2304 0e8c 1846     		mov	r0, r3
 2305 0e8e 07B0     		add	sp, sp, #28
 2306              		@ sp needed
 2307 0e90 5DF804FB 		ldr	pc, [sp], #4
 2308              		.cfi_endproc
 2309              	.LFE136:
 2310              		.size	HAL_RTC_GetAlarm, .-HAL_RTC_GetAlarm
 2311              		.align	2
 2312 0e94 AFF30080 		.p2align 4,,15
 2312      AFF30080 
 2312      AFF30080 
 2313              		.global	HAL_RTC_AlarmIRQHandler
 2314              		.thumb
 2315              		.thumb_func
 2316              		.type	HAL_RTC_AlarmIRQHandler, %function
 2317              	HAL_RTC_AlarmIRQHandler:
 2318              	.LFB137:
 2319              		.loc 1 1278 0
 2320              		.cfi_startproc
 2321              		@ args = 0, pretend = 0, frame = 8
 2322              		@ frame_needed = 0, uses_anonymous_args = 0
 2323 0ea0 00B5     		push	{lr}
 2324              		.cfi_def_cfa_offset 4
 2325              		.cfi_offset 14, -4
ARM GAS  /tmp/ccHRl1iB.s 			page 42


 2326 0ea2 83B0     		sub	sp, sp, #12
 2327              		.cfi_def_cfa_offset 16
 2328 0ea4 0190     		str	r0, [sp, #4]
 2329              		.loc 1 1280 0
 2330 0ea6 019B     		ldr	r3, [sp, #4]
 2331 0ea8 1B68     		ldr	r3, [r3]
 2332 0eaa 9B68     		ldr	r3, [r3, #8]
 2333 0eac 03F48053 		and	r3, r3, #4096
 2334 0eb0 002B     		cmp	r3, #0
 2335 0eb2 12D0     		beq	.L89
 2336              		.loc 1 1283 0
 2337 0eb4 019B     		ldr	r3, [sp, #4]
 2338 0eb6 1B68     		ldr	r3, [r3]
 2339 0eb8 DB68     		ldr	r3, [r3, #12]
 2340 0eba 03F48073 		and	r3, r3, #256
 2341 0ebe 002B     		cmp	r3, #0
 2342 0ec0 0BD0     		beq	.L89
 2343              		.loc 1 1286 0
 2344 0ec2 0198     		ldr	r0, [sp, #4]
 2345 0ec4 FFF7FEFF 		bl	HAL_RTC_AlarmAEventCallback
 2346              		.loc 1 1289 0
 2347 0ec8 019B     		ldr	r3, [sp, #4]
 2348 0eca 1B68     		ldr	r3, [r3]
 2349 0ecc 019A     		ldr	r2, [sp, #4]
 2350 0ece 1268     		ldr	r2, [r2]
 2351 0ed0 D268     		ldr	r2, [r2, #12]
 2352 0ed2 D2B2     		uxtb	r2, r2
 2353 0ed4 62F4C072 		orn	r2, r2, #384
 2354 0ed8 DA60     		str	r2, [r3, #12]
 2355              	.L89:
 2356              		.loc 1 1294 0
 2357 0eda 019B     		ldr	r3, [sp, #4]
 2358 0edc 1B68     		ldr	r3, [r3]
 2359 0ede 9B68     		ldr	r3, [r3, #8]
 2360 0ee0 03F40053 		and	r3, r3, #8192
 2361 0ee4 002B     		cmp	r3, #0
 2362 0ee6 12D0     		beq	.L90
 2363              		.loc 1 1297 0
 2364 0ee8 019B     		ldr	r3, [sp, #4]
 2365 0eea 1B68     		ldr	r3, [r3]
 2366 0eec DB68     		ldr	r3, [r3, #12]
 2367 0eee 03F40073 		and	r3, r3, #512
 2368 0ef2 002B     		cmp	r3, #0
 2369 0ef4 0BD0     		beq	.L90
 2370              		.loc 1 1300 0
 2371 0ef6 0198     		ldr	r0, [sp, #4]
 2372 0ef8 FFF7FEFF 		bl	HAL_RTCEx_AlarmBEventCallback
 2373              		.loc 1 1303 0
 2374 0efc 019B     		ldr	r3, [sp, #4]
 2375 0efe 1B68     		ldr	r3, [r3]
 2376 0f00 019A     		ldr	r2, [sp, #4]
 2377 0f02 1268     		ldr	r2, [r2]
 2378 0f04 D268     		ldr	r2, [r2, #12]
 2379 0f06 D2B2     		uxtb	r2, r2
 2380 0f08 62F42072 		orn	r2, r2, #640
 2381 0f0c DA60     		str	r2, [r3, #12]
 2382              	.L90:
ARM GAS  /tmp/ccHRl1iB.s 			page 43


 2383              		.loc 1 1308 0
 2384 0f0e 054B     		ldr	r3, .L91
 2385 0f10 4FF48022 		mov	r2, #262144
 2386 0f14 5A61     		str	r2, [r3, #20]
 2387              		.loc 1 1311 0
 2388 0f16 019B     		ldr	r3, [sp, #4]
 2389 0f18 0122     		movs	r2, #1
 2390 0f1a 83F82120 		strb	r2, [r3, #33]
 2391              		.loc 1 1312 0
 2392 0f1e 03B0     		add	sp, sp, #12
 2393              		@ sp needed
 2394 0f20 5DF804FB 		ldr	pc, [sp], #4
 2395              	.L92:
 2396              		.align	2
 2397              	.L91:
 2398 0f24 00040140 		.word	1073808384
 2399              		.cfi_endproc
 2400              	.LFE137:
 2401              		.size	HAL_RTC_AlarmIRQHandler, .-HAL_RTC_AlarmIRQHandler
 2402              		.align	2
 2403 0f28 AFF30080 		.p2align 4,,15
 2403      AFF30080 
 2404              		.weak	HAL_RTC_AlarmAEventCallback
 2405              		.thumb
 2406              		.thumb_func
 2407              		.type	HAL_RTC_AlarmAEventCallback, %function
 2408              	HAL_RTC_AlarmAEventCallback:
 2409              	.LFB138:
 2410              		.loc 1 1320 0
 2411              		.cfi_startproc
 2412              		@ args = 0, pretend = 0, frame = 8
 2413              		@ frame_needed = 0, uses_anonymous_args = 0
 2414              		@ link register save eliminated.
 2415 0f30 82B0     		sub	sp, sp, #8
 2416              		.cfi_def_cfa_offset 8
 2417 0f32 0190     		str	r0, [sp, #4]
 2418              		.loc 1 1327 0
 2419 0f34 02B0     		add	sp, sp, #8
 2420              		@ sp needed
 2421 0f36 7047     		bx	lr
 2422              		.cfi_endproc
 2423              	.LFE138:
 2424              		.size	HAL_RTC_AlarmAEventCallback, .-HAL_RTC_AlarmAEventCallback
 2425              		.align	2
 2426 0f38 AFF30080 		.p2align 4,,15
 2426      AFF30080 
 2427              		.global	HAL_RTC_PollForAlarmAEvent
 2428              		.thumb
 2429              		.thumb_func
 2430              		.type	HAL_RTC_PollForAlarmAEvent, %function
 2431              	HAL_RTC_PollForAlarmAEvent:
 2432              	.LFB139:
 2433              		.loc 1 1336 0
 2434              		.cfi_startproc
 2435              		@ args = 0, pretend = 0, frame = 16
 2436              		@ frame_needed = 0, uses_anonymous_args = 0
 2437 0f40 00B5     		push	{lr}
ARM GAS  /tmp/ccHRl1iB.s 			page 44


 2438              		.cfi_def_cfa_offset 4
 2439              		.cfi_offset 14, -4
 2440 0f42 85B0     		sub	sp, sp, #20
 2441              		.cfi_def_cfa_offset 24
 2442 0f44 0190     		str	r0, [sp, #4]
 2443 0f46 0091     		str	r1, [sp]
 2444              		.loc 1 1338 0
 2445 0f48 FFF7FEFF 		bl	HAL_GetTick
 2446 0f4c 0390     		str	r0, [sp, #12]
 2447              		.loc 1 1340 0
 2448 0f4e 14E0     		b	.L95
 2449              	.L98:
 2450              		.loc 1 1342 0
 2451 0f50 009B     		ldr	r3, [sp]
 2452 0f52 B3F1FF3F 		cmp	r3, #-1
 2453 0f56 10D0     		beq	.L95
 2454              		.loc 1 1344 0
 2455 0f58 009B     		ldr	r3, [sp]
 2456 0f5a 002B     		cmp	r3, #0
 2457 0f5c 07D0     		beq	.L96
 2458              		.loc 1 1344 0 is_stmt 0 discriminator 1
 2459 0f5e FFF7FEFF 		bl	HAL_GetTick
 2460 0f62 0246     		mov	r2, r0
 2461 0f64 039B     		ldr	r3, [sp, #12]
 2462 0f66 D21A     		subs	r2, r2, r3
 2463 0f68 009B     		ldr	r3, [sp]
 2464 0f6a 9A42     		cmp	r2, r3
 2465 0f6c 05D9     		bls	.L95
 2466              	.L96:
 2467              		.loc 1 1346 0 is_stmt 1
 2468 0f6e 019B     		ldr	r3, [sp, #4]
 2469 0f70 0322     		movs	r2, #3
 2470 0f72 83F82120 		strb	r2, [r3, #33]
 2471              		.loc 1 1347 0
 2472 0f76 0323     		movs	r3, #3
 2473 0f78 14E0     		b	.L97
 2474              	.L95:
 2475              		.loc 1 1340 0 discriminator 1
 2476 0f7a 019B     		ldr	r3, [sp, #4]
 2477 0f7c 1B68     		ldr	r3, [r3]
 2478 0f7e DB68     		ldr	r3, [r3, #12]
 2479 0f80 03F48073 		and	r3, r3, #256
 2480 0f84 002B     		cmp	r3, #0
 2481 0f86 E3D0     		beq	.L98
 2482              		.loc 1 1353 0
 2483 0f88 019B     		ldr	r3, [sp, #4]
 2484 0f8a 1B68     		ldr	r3, [r3]
 2485 0f8c 019A     		ldr	r2, [sp, #4]
 2486 0f8e 1268     		ldr	r2, [r2]
 2487 0f90 D268     		ldr	r2, [r2, #12]
 2488 0f92 D2B2     		uxtb	r2, r2
 2489 0f94 62F4C072 		orn	r2, r2, #384
 2490 0f98 DA60     		str	r2, [r3, #12]
 2491              		.loc 1 1356 0
 2492 0f9a 019B     		ldr	r3, [sp, #4]
 2493 0f9c 0122     		movs	r2, #1
 2494 0f9e 83F82120 		strb	r2, [r3, #33]
ARM GAS  /tmp/ccHRl1iB.s 			page 45


 2495              		.loc 1 1358 0
 2496 0fa2 0023     		movs	r3, #0
 2497              	.L97:
 2498              		.loc 1 1359 0
 2499 0fa4 1846     		mov	r0, r3
 2500 0fa6 05B0     		add	sp, sp, #20
 2501              		@ sp needed
 2502 0fa8 5DF804FB 		ldr	pc, [sp], #4
 2503              		.cfi_endproc
 2504              	.LFE139:
 2505              		.size	HAL_RTC_PollForAlarmAEvent, .-HAL_RTC_PollForAlarmAEvent
 2506              		.align	2
 2507 0fac AFF30080 		.p2align 4,,15
 2508              		.global	HAL_RTC_WaitForSynchro
 2509              		.thumb
 2510              		.thumb_func
 2511              		.type	HAL_RTC_WaitForSynchro, %function
 2512              	HAL_RTC_WaitForSynchro:
 2513              	.LFB140:
 2514              		.loc 1 1395 0
 2515              		.cfi_startproc
 2516              		@ args = 0, pretend = 0, frame = 16
 2517              		@ frame_needed = 0, uses_anonymous_args = 0
 2518 0fb0 00B5     		push	{lr}
 2519              		.cfi_def_cfa_offset 4
 2520              		.cfi_offset 14, -4
 2521 0fb2 85B0     		sub	sp, sp, #20
 2522              		.cfi_def_cfa_offset 24
 2523 0fb4 0190     		str	r0, [sp, #4]
 2524              		.loc 1 1396 0
 2525 0fb6 0023     		movs	r3, #0
 2526 0fb8 0393     		str	r3, [sp, #12]
 2527              		.loc 1 1399 0
 2528 0fba 019B     		ldr	r3, [sp, #4]
 2529 0fbc 1B68     		ldr	r3, [r3]
 2530 0fbe 019A     		ldr	r2, [sp, #4]
 2531 0fc0 1268     		ldr	r2, [r2]
 2532 0fc2 D268     		ldr	r2, [r2, #12]
 2533 0fc4 22F0A002 		bic	r2, r2, #160
 2534 0fc8 DA60     		str	r2, [r3, #12]
 2535              		.loc 1 1401 0
 2536 0fca FFF7FEFF 		bl	HAL_GetTick
 2537 0fce 0390     		str	r0, [sp, #12]
 2538              		.loc 1 1404 0
 2539 0fd0 09E0     		b	.L100
 2540              	.L102:
 2541              		.loc 1 1406 0
 2542 0fd2 FFF7FEFF 		bl	HAL_GetTick
 2543 0fd6 0246     		mov	r2, r0
 2544 0fd8 039B     		ldr	r3, [sp, #12]
 2545 0fda D31A     		subs	r3, r2, r3
 2546 0fdc B3F57A7F 		cmp	r3, #1000
 2547 0fe0 01D9     		bls	.L100
 2548              		.loc 1 1408 0
 2549 0fe2 0323     		movs	r3, #3
 2550 0fe4 07E0     		b	.L101
 2551              	.L100:
ARM GAS  /tmp/ccHRl1iB.s 			page 46


 2552              		.loc 1 1404 0 discriminator 1
 2553 0fe6 019B     		ldr	r3, [sp, #4]
 2554 0fe8 1B68     		ldr	r3, [r3]
 2555 0fea DB68     		ldr	r3, [r3, #12]
 2556 0fec 03F02003 		and	r3, r3, #32
 2557 0ff0 002B     		cmp	r3, #0
 2558 0ff2 EED0     		beq	.L102
 2559              		.loc 1 1412 0
 2560 0ff4 0023     		movs	r3, #0
 2561              	.L101:
 2562              		.loc 1 1413 0
 2563 0ff6 1846     		mov	r0, r3
 2564 0ff8 05B0     		add	sp, sp, #20
 2565              		@ sp needed
 2566 0ffa 5DF804FB 		ldr	pc, [sp], #4
 2567              		.cfi_endproc
 2568              	.LFE140:
 2569              		.size	HAL_RTC_WaitForSynchro, .-HAL_RTC_WaitForSynchro
 2570 0ffe 00BF     		.align	2
 2571              		.p2align 4,,15
 2572              		.global	HAL_RTC_GetState
 2573              		.thumb
 2574              		.thumb_func
 2575              		.type	HAL_RTC_GetState, %function
 2576              	HAL_RTC_GetState:
 2577              	.LFB141:
 2578              		.loc 1 1439 0
 2579              		.cfi_startproc
 2580              		@ args = 0, pretend = 0, frame = 8
 2581              		@ frame_needed = 0, uses_anonymous_args = 0
 2582              		@ link register save eliminated.
 2583 1000 82B0     		sub	sp, sp, #8
 2584              		.cfi_def_cfa_offset 8
 2585 1002 0190     		str	r0, [sp, #4]
 2586              		.loc 1 1441 0
 2587 1004 019B     		ldr	r3, [sp, #4]
 2588 1006 93F82130 		ldrb	r3, [r3, #33]
 2589 100a DBB2     		uxtb	r3, r3
 2590              		.loc 1 1442 0
 2591 100c 1846     		mov	r0, r3
 2592 100e 02B0     		add	sp, sp, #8
 2593              		@ sp needed
 2594 1010 7047     		bx	lr
 2595              		.cfi_endproc
 2596              	.LFE141:
 2597              		.size	HAL_RTC_GetState, .-HAL_RTC_GetState
 2598 1012 00BF     		.align	2
 2599 1014 AFF30080 		.p2align 4,,15
 2599      AFF30080 
 2599      AFF30080 
 2600              		.global	RTC_EnterInitMode
 2601              		.thumb
 2602              		.thumb_func
 2603              		.type	RTC_EnterInitMode, %function
 2604              	RTC_EnterInitMode:
 2605              	.LFB142:
 2606              		.loc 1 1463 0
ARM GAS  /tmp/ccHRl1iB.s 			page 47


 2607              		.cfi_startproc
 2608              		@ args = 0, pretend = 0, frame = 16
 2609              		@ frame_needed = 0, uses_anonymous_args = 0
 2610 1020 00B5     		push	{lr}
 2611              		.cfi_def_cfa_offset 4
 2612              		.cfi_offset 14, -4
 2613 1022 85B0     		sub	sp, sp, #20
 2614              		.cfi_def_cfa_offset 24
 2615 1024 0190     		str	r0, [sp, #4]
 2616              		.loc 1 1464 0
 2617 1026 0023     		movs	r3, #0
 2618 1028 0393     		str	r3, [sp, #12]
 2619              		.loc 1 1467 0
 2620 102a 019B     		ldr	r3, [sp, #4]
 2621 102c 1B68     		ldr	r3, [r3]
 2622 102e DB68     		ldr	r3, [r3, #12]
 2623 1030 03F04003 		and	r3, r3, #64
 2624 1034 002B     		cmp	r3, #0
 2625 1036 19D1     		bne	.L106
 2626              		.loc 1 1470 0
 2627 1038 019B     		ldr	r3, [sp, #4]
 2628 103a 1B68     		ldr	r3, [r3]
 2629 103c 4FF0FF32 		mov	r2, #-1
 2630 1040 DA60     		str	r2, [r3, #12]
 2631              		.loc 1 1472 0
 2632 1042 FFF7FEFF 		bl	HAL_GetTick
 2633 1046 0390     		str	r0, [sp, #12]
 2634              		.loc 1 1474 0
 2635 1048 09E0     		b	.L107
 2636              	.L109:
 2637              		.loc 1 1476 0
 2638 104a FFF7FEFF 		bl	HAL_GetTick
 2639 104e 0246     		mov	r2, r0
 2640 1050 039B     		ldr	r3, [sp, #12]
 2641 1052 D31A     		subs	r3, r2, r3
 2642 1054 B3F57A7F 		cmp	r3, #1000
 2643 1058 01D9     		bls	.L107
 2644              		.loc 1 1478 0
 2645 105a 0323     		movs	r3, #3
 2646 105c 07E0     		b	.L108
 2647              	.L107:
 2648              		.loc 1 1474 0 discriminator 1
 2649 105e 019B     		ldr	r3, [sp, #4]
 2650 1060 1B68     		ldr	r3, [r3]
 2651 1062 DB68     		ldr	r3, [r3, #12]
 2652 1064 03F04003 		and	r3, r3, #64
 2653 1068 002B     		cmp	r3, #0
 2654 106a EED0     		beq	.L109
 2655              	.L106:
 2656              		.loc 1 1483 0
 2657 106c 0023     		movs	r3, #0
 2658              	.L108:
 2659              		.loc 1 1484 0
 2660 106e 1846     		mov	r0, r3
 2661 1070 05B0     		add	sp, sp, #20
 2662              		@ sp needed
 2663 1072 5DF804FB 		ldr	pc, [sp], #4
ARM GAS  /tmp/ccHRl1iB.s 			page 48


 2664              		.cfi_endproc
 2665              	.LFE142:
 2666              		.size	RTC_EnterInitMode, .-RTC_EnterInitMode
 2667 1076 00BF     		.align	2
 2668 1078 AFF30080 		.p2align 4,,15
 2668      AFF30080 
 2669              		.global	RTC_ByteToBcd2
 2670              		.thumb
 2671              		.thumb_func
 2672              		.type	RTC_ByteToBcd2, %function
 2673              	RTC_ByteToBcd2:
 2674              	.LFB143:
 2675              		.loc 1 1493 0
 2676              		.cfi_startproc
 2677              		@ args = 0, pretend = 0, frame = 16
 2678              		@ frame_needed = 0, uses_anonymous_args = 0
 2679              		@ link register save eliminated.
 2680 1080 84B0     		sub	sp, sp, #16
 2681              		.cfi_def_cfa_offset 16
 2682 1082 0346     		mov	r3, r0
 2683 1084 8DF80730 		strb	r3, [sp, #7]
 2684              		.loc 1 1494 0
 2685 1088 0023     		movs	r3, #0
 2686 108a 0393     		str	r3, [sp, #12]
 2687              		.loc 1 1496 0
 2688 108c 07E0     		b	.L111
 2689              	.L112:
 2690              		.loc 1 1498 0
 2691 108e 039B     		ldr	r3, [sp, #12]
 2692 1090 0133     		adds	r3, r3, #1
 2693 1092 0393     		str	r3, [sp, #12]
 2694              		.loc 1 1499 0
 2695 1094 9DF80730 		ldrb	r3, [sp, #7]
 2696 1098 0A3B     		subs	r3, r3, #10
 2697 109a 8DF80730 		strb	r3, [sp, #7]
 2698              	.L111:
 2699              		.loc 1 1496 0 discriminator 1
 2700 109e 9DF80730 		ldrb	r3, [sp, #7]	@ zero_extendqisi2
 2701 10a2 092B     		cmp	r3, #9
 2702 10a4 F3D8     		bhi	.L112
 2703              		.loc 1 1502 0
 2704 10a6 039B     		ldr	r3, [sp, #12]
 2705 10a8 DBB2     		uxtb	r3, r3
 2706 10aa 1B01     		lsls	r3, r3, #4
 2707 10ac DAB2     		uxtb	r2, r3
 2708 10ae 9DF80730 		ldrb	r3, [sp, #7]
 2709 10b2 1343     		orrs	r3, r3, r2
 2710 10b4 DBB2     		uxtb	r3, r3
 2711              		.loc 1 1503 0
 2712 10b6 1846     		mov	r0, r3
 2713 10b8 04B0     		add	sp, sp, #16
 2714              		@ sp needed
 2715 10ba 7047     		bx	lr
 2716              		.cfi_endproc
 2717              	.LFE143:
 2718              		.size	RTC_ByteToBcd2, .-RTC_ByteToBcd2
 2719              		.align	2
ARM GAS  /tmp/ccHRl1iB.s 			page 49


 2720 10bc AFF30080 		.p2align 4,,15
 2721              		.global	RTC_Bcd2ToByte
 2722              		.thumb
 2723              		.thumb_func
 2724              		.type	RTC_Bcd2ToByte, %function
 2725              	RTC_Bcd2ToByte:
 2726              	.LFB144:
 2727              		.loc 1 1511 0
 2728              		.cfi_startproc
 2729              		@ args = 0, pretend = 0, frame = 16
 2730              		@ frame_needed = 0, uses_anonymous_args = 0
 2731              		@ link register save eliminated.
 2732 10c0 84B0     		sub	sp, sp, #16
 2733              		.cfi_def_cfa_offset 16
 2734 10c2 0346     		mov	r3, r0
 2735 10c4 8DF80730 		strb	r3, [sp, #7]
 2736              		.loc 1 1512 0
 2737 10c8 0023     		movs	r3, #0
 2738 10ca 0393     		str	r3, [sp, #12]
 2739              		.loc 1 1513 0
 2740 10cc 9DF80730 		ldrb	r3, [sp, #7]	@ zero_extendqisi2
 2741 10d0 1B09     		lsrs	r3, r3, #4
 2742 10d2 DBB2     		uxtb	r3, r3
 2743 10d4 1A46     		mov	r2, r3
 2744 10d6 1346     		mov	r3, r2
 2745 10d8 9B00     		lsls	r3, r3, #2
 2746 10da 1344     		add	r3, r3, r2
 2747 10dc 5B00     		lsls	r3, r3, #1
 2748 10de 0393     		str	r3, [sp, #12]
 2749              		.loc 1 1514 0
 2750 10e0 9DF80730 		ldrb	r3, [sp, #7]
 2751 10e4 03F00F03 		and	r3, r3, #15
 2752 10e8 DAB2     		uxtb	r2, r3
 2753 10ea 039B     		ldr	r3, [sp, #12]
 2754 10ec DBB2     		uxtb	r3, r3
 2755 10ee 1344     		add	r3, r3, r2
 2756 10f0 DBB2     		uxtb	r3, r3
 2757              		.loc 1 1515 0
 2758 10f2 1846     		mov	r0, r3
 2759 10f4 04B0     		add	sp, sp, #16
 2760              		@ sp needed
 2761 10f6 7047     		bx	lr
 2762              		.cfi_endproc
 2763              	.LFE144:
 2764              		.size	RTC_Bcd2ToByte, .-RTC_Bcd2ToByte
 2765              	.Letext0:
 2766              		.file 2 "/nfs/nfs5/home/research/hardware/arm2/gcc-arm-embedded/gcc-arm-none-eabi-4_8-2014q2/arm-n
 2767              		.file 3 "/nfs/nfs5/home/research/hardware/arm2/gcc-arm-embedded/gcc-arm-none-eabi-4_8-2014q2/arm-n
 2768              		.file 4 "../../../../../../ChibiOS/os/ext/CMSIS/ST/STM32L4xx/stm32l476xx.h"
 2769              		.file 5 "../../../../../../ChibiOS/os/ext/CMSIS/ST/STM32L4xx/stm32l4xx.h"
 2770              		.file 6 "../../../../../Drivers/STM32L4xx_HAL_Driver/Inc/stm32l4xx_hal_def.h"
 2771              		.file 7 "../../../../../Drivers/STM32L4xx_HAL_Driver/Inc/stm32l4xx_hal_rtc.h"
 2772              		.file 8 "../../../../../../ChibiOS/os/ext/CMSIS/include/core_cm4.h"