ARM GAS  /tmp/ccJqmpZo.s 			page 1


   1              		.syntax unified
   2              		.cpu cortex-m4
   3              		.fpu softvfp
   4              		.eabi_attribute 20, 1
   5              		.eabi_attribute 21, 1
   6              		.eabi_attribute 23, 3
   7              		.eabi_attribute 24, 1
   8              		.eabi_attribute 25, 1
   9              		.eabi_attribute 26, 1
  10              		.eabi_attribute 30, 6
  11              		.eabi_attribute 34, 1
  12              		.eabi_attribute 18, 4
  13              		.thumb
  14              		.file	"stm32l4xx_hal_rcc_ex.c"
  15              		.text
  16              	.Ltext0:
  17              		.cfi_sections	.debug_frame
  18              		.align	2
  19              		.p2align 4,,15
  20              		.global	HAL_RCCEx_PeriphCLKConfig
  21              		.thumb
  22              		.thumb_func
  23              		.type	HAL_RCCEx_PeriphCLKConfig, %function
  24              	HAL_RCCEx_PeriphCLKConfig:
  25              	.LFB125:
  26              		.file 1 "../../../../../Drivers/STM32L4xx_HAL_Driver/Src/stm32l4xx_hal_rcc_ex.c"
  27              		.loc 1 164 0
  28              		.cfi_startproc
  29              		@ args = 0, pretend = 0, frame = 24
  30              		@ frame_needed = 0, uses_anonymous_args = 0
  31 0000 00B5     		push	{lr}
  32              		.cfi_def_cfa_offset 4
  33              		.cfi_offset 14, -4
  34 0002 87B0     		sub	sp, sp, #28
  35              		.cfi_def_cfa_offset 32
  36 0004 0190     		str	r0, [sp, #4]
  37              		.loc 1 165 0
  38 0006 0023     		movs	r3, #0
  39 0008 0593     		str	r3, [sp, #20]
  40              		.loc 1 166 0
  41 000a 0023     		movs	r3, #0
  42 000c 0393     		str	r3, [sp, #12]
  43              		.loc 1 167 0
  44 000e 0023     		movs	r3, #0
  45 0010 8DF81330 		strb	r3, [sp, #19]
  46              		.loc 1 168 0
  47 0014 0023     		movs	r3, #0
  48 0016 8DF81230 		strb	r3, [sp, #18]
  49              		.loc 1 174 0
  50 001a 019B     		ldr	r3, [sp, #4]
  51 001c 1B68     		ldr	r3, [r3]
  52 001e 03F40063 		and	r3, r3, #2048
  53 0022 002B     		cmp	r3, #0
  54 0024 45D0     		beq	.L2
  55              		.loc 1 179 0
  56 0026 019B     		ldr	r3, [sp, #4]
  57 0028 5B6E     		ldr	r3, [r3, #100]
ARM GAS  /tmp/ccJqmpZo.s 			page 2


  58 002a B3F5800F 		cmp	r3, #4194304
  59 002e 1DD0     		beq	.L4
  60 0030 B3F5800F 		cmp	r3, #4194304
  61 0034 02D8     		bhi	.L5
  62 0036 002B     		cmp	r3, #0
  63 0038 0ED0     		beq	.L6
  64 003a 21E0     		b	.L3
  65              	.L5:
  66 003c B3F5000F 		cmp	r3, #8388608
  67 0040 03D0     		beq	.L7
  68 0042 B3F5400F 		cmp	r3, #12582912
  69 0046 1FD0     		beq	.L56
  70 0048 1AE0     		b	.L3
  71              	.L7:
  72              		.loc 1 184 0
  73 004a 8D4B     		ldr	r3, .L58
  74 004c 8C4A     		ldr	r2, .L58
  75 004e D268     		ldr	r2, [r2, #12]
  76 0050 42F48032 		orr	r2, r2, #65536
  77 0054 DA60     		str	r2, [r3, #12]
  78              		.loc 1 189 0
  79 0056 18E0     		b	.L9
  80              	.L6:
  81              		.loc 1 193 0
  82 0058 019B     		ldr	r3, [sp, #4]
  83 005a 0433     		adds	r3, r3, #4
  84 005c 1846     		mov	r0, r3
  85 005e 0021     		movs	r1, #0
  86 0060 01F0AEFC 		bl	RCCEx_PLLSAI1_Config
  87 0064 0346     		mov	r3, r0
  88 0066 8DF81330 		strb	r3, [sp, #19]
  89              		.loc 1 195 0
  90 006a 0EE0     		b	.L9
  91              	.L4:
  92              		.loc 1 201 0
  93 006c 019B     		ldr	r3, [sp, #4]
  94 006e 2033     		adds	r3, r3, #32
  95 0070 1846     		mov	r0, r3
  96 0072 0021     		movs	r1, #0
  97 0074 01F0F4FD 		bl	RCCEx_PLLSAI2_Config
  98 0078 0346     		mov	r3, r0
  99 007a 8DF81330 		strb	r3, [sp, #19]
 100              		.loc 1 203 0
 101 007e 04E0     		b	.L9
 102              	.L3:
 103              		.loc 1 212 0
 104 0080 0123     		movs	r3, #1
 105 0082 8DF81330 		strb	r3, [sp, #19]
 106              		.loc 1 213 0
 107 0086 00E0     		b	.L9
 108              	.L56:
 109              		.loc 1 209 0
 110 0088 00BF     		nop
 111              	.L9:
 112              		.loc 1 216 0
 113 008a 9DF81330 		ldrb	r3, [sp, #19]	@ zero_extendqisi2
 114 008e 002B     		cmp	r3, #0
ARM GAS  /tmp/ccJqmpZo.s 			page 3


 115 0090 0BD1     		bne	.L10
 116              		.loc 1 219 0
 117 0092 7B4B     		ldr	r3, .L58
 118 0094 7A4A     		ldr	r2, .L58
 119 0096 D2F88820 		ldr	r2, [r2, #136]
 120 009a 22F44001 		bic	r1, r2, #12582912
 121 009e 019A     		ldr	r2, [sp, #4]
 122 00a0 526E     		ldr	r2, [r2, #100]
 123 00a2 0A43     		orrs	r2, r2, r1
 124 00a4 C3F88820 		str	r2, [r3, #136]
 125 00a8 03E0     		b	.L2
 126              	.L10:
 127              		.loc 1 224 0
 128 00aa 9DF81330 		ldrb	r3, [sp, #19]
 129 00ae 8DF81230 		strb	r3, [sp, #18]
 130              	.L2:
 131              		.loc 1 231 0
 132 00b2 019B     		ldr	r3, [sp, #4]
 133 00b4 1B68     		ldr	r3, [r3]
 134 00b6 03F48053 		and	r3, r3, #4096
 135 00ba 002B     		cmp	r3, #0
 136 00bc 45D0     		beq	.L11
 137              		.loc 1 236 0
 138 00be 019B     		ldr	r3, [sp, #4]
 139 00c0 9B6E     		ldr	r3, [r3, #104]
 140 00c2 B3F1807F 		cmp	r3, #16777216
 141 00c6 1DD0     		beq	.L13
 142 00c8 B3F1807F 		cmp	r3, #16777216
 143 00cc 02D8     		bhi	.L14
 144 00ce 002B     		cmp	r3, #0
 145 00d0 0ED0     		beq	.L15
 146 00d2 21E0     		b	.L12
 147              	.L14:
 148 00d4 B3F1007F 		cmp	r3, #33554432
 149 00d8 03D0     		beq	.L16
 150 00da B3F1407F 		cmp	r3, #50331648
 151 00de 1FD0     		beq	.L57
 152 00e0 1AE0     		b	.L12
 153              	.L16:
 154              		.loc 1 240 0
 155 00e2 674B     		ldr	r3, .L58
 156 00e4 664A     		ldr	r2, .L58
 157 00e6 D268     		ldr	r2, [r2, #12]
 158 00e8 42F48032 		orr	r2, r2, #65536
 159 00ec DA60     		str	r2, [r3, #12]
 160              		.loc 1 242 0
 161 00ee 18E0     		b	.L18
 162              	.L15:
 163              		.loc 1 246 0
 164 00f0 019B     		ldr	r3, [sp, #4]
 165 00f2 0433     		adds	r3, r3, #4
 166 00f4 1846     		mov	r0, r3
 167 00f6 0021     		movs	r1, #0
 168 00f8 01F062FC 		bl	RCCEx_PLLSAI1_Config
 169 00fc 0346     		mov	r3, r0
 170 00fe 8DF81330 		strb	r3, [sp, #19]
 171              		.loc 1 248 0
ARM GAS  /tmp/ccJqmpZo.s 			page 4


 172 0102 0EE0     		b	.L18
 173              	.L13:
 174              		.loc 1 252 0
 175 0104 019B     		ldr	r3, [sp, #4]
 176 0106 2033     		adds	r3, r3, #32
 177 0108 1846     		mov	r0, r3
 178 010a 0021     		movs	r1, #0
 179 010c 01F0A8FD 		bl	RCCEx_PLLSAI2_Config
 180 0110 0346     		mov	r3, r0
 181 0112 8DF81330 		strb	r3, [sp, #19]
 182              		.loc 1 254 0
 183 0116 04E0     		b	.L18
 184              	.L12:
 185              		.loc 1 261 0
 186 0118 0123     		movs	r3, #1
 187 011a 8DF81330 		strb	r3, [sp, #19]
 188              		.loc 1 262 0
 189 011e 00E0     		b	.L18
 190              	.L57:
 191              		.loc 1 258 0
 192 0120 00BF     		nop
 193              	.L18:
 194              		.loc 1 265 0
 195 0122 9DF81330 		ldrb	r3, [sp, #19]	@ zero_extendqisi2
 196 0126 002B     		cmp	r3, #0
 197 0128 0BD1     		bne	.L19
 198              		.loc 1 268 0
 199 012a 554B     		ldr	r3, .L58
 200 012c 544A     		ldr	r2, .L58
 201 012e D2F88820 		ldr	r2, [r2, #136]
 202 0132 22F04071 		bic	r1, r2, #50331648
 203 0136 019A     		ldr	r2, [sp, #4]
 204 0138 926E     		ldr	r2, [r2, #104]
 205 013a 0A43     		orrs	r2, r2, r1
 206 013c C3F88820 		str	r2, [r3, #136]
 207 0140 03E0     		b	.L11
 208              	.L19:
 209              		.loc 1 273 0
 210 0142 9DF81330 		ldrb	r3, [sp, #19]
 211 0146 8DF81230 		strb	r3, [sp, #18]
 212              	.L11:
 213              		.loc 1 279 0
 214 014a 019B     		ldr	r3, [sp, #4]
 215 014c 1B68     		ldr	r3, [r3]
 216 014e 03F40033 		and	r3, r3, #131072
 217 0152 002B     		cmp	r3, #0
 218 0154 00F0A680 		beq	.L20
 219              	.LBB86:
 220              		.loc 1 281 0
 221 0158 0023     		movs	r3, #0
 222 015a 8DF81130 		strb	r3, [sp, #17]
 223              		.loc 1 287 0
 224 015e 484B     		ldr	r3, .L58
 225 0160 9B6D     		ldr	r3, [r3, #88]
 226 0162 03F08053 		and	r3, r3, #268435456
 227 0166 002B     		cmp	r3, #0
 228 0168 0ED1     		bne	.L21
ARM GAS  /tmp/ccJqmpZo.s 			page 5


 229              	.LBB87:
 230              		.loc 1 289 0
 231 016a 454B     		ldr	r3, .L58
 232 016c 444A     		ldr	r2, .L58
 233 016e 926D     		ldr	r2, [r2, #88]
 234 0170 42F08052 		orr	r2, r2, #268435456
 235 0174 9A65     		str	r2, [r3, #88]
 236 0176 424B     		ldr	r3, .L58
 237 0178 9B6D     		ldr	r3, [r3, #88]
 238 017a 03F08053 		and	r3, r3, #268435456
 239 017e 0293     		str	r3, [sp, #8]
 240 0180 029B     		ldr	r3, [sp, #8]
 241              	.LBE87:
 242              		.loc 1 290 0
 243 0182 0123     		movs	r3, #1
 244 0184 8DF81130 		strb	r3, [sp, #17]
 245              	.L21:
 246              		.loc 1 294 0
 247 0188 3E4B     		ldr	r3, .L58+4
 248 018a 3E4A     		ldr	r2, .L58+4
 249 018c 1268     		ldr	r2, [r2]
 250 018e 42F48072 		orr	r2, r2, #256
 251 0192 1A60     		str	r2, [r3]
 252              		.loc 1 297 0
 253 0194 FFF7FEFF 		bl	HAL_GetTick
 254 0198 0390     		str	r0, [sp, #12]
 255              		.loc 1 299 0
 256 019a 0AE0     		b	.L22
 257              	.L24:
 258              		.loc 1 301 0
 259 019c FFF7FEFF 		bl	HAL_GetTick
 260 01a0 0246     		mov	r2, r0
 261 01a2 039B     		ldr	r3, [sp, #12]
 262 01a4 D31A     		subs	r3, r2, r3
 263 01a6 022B     		cmp	r3, #2
 264 01a8 03D9     		bls	.L22
 265              		.loc 1 303 0
 266 01aa 0323     		movs	r3, #3
 267 01ac 8DF81330 		strb	r3, [sp, #19]
 268              		.loc 1 304 0
 269 01b0 05E0     		b	.L23
 270              	.L22:
 271              		.loc 1 299 0 discriminator 1
 272 01b2 344B     		ldr	r3, .L58+4
 273 01b4 1B68     		ldr	r3, [r3]
 274 01b6 03F48073 		and	r3, r3, #256
 275 01ba 002B     		cmp	r3, #0
 276 01bc EED0     		beq	.L24
 277              	.L23:
 278              		.loc 1 308 0
 279 01be 9DF81330 		ldrb	r3, [sp, #19]	@ zero_extendqisi2
 280 01c2 002B     		cmp	r3, #0
 281 01c4 60D1     		bne	.L25
 282              		.loc 1 311 0
 283 01c6 2E4B     		ldr	r3, .L58
 284 01c8 D3F89030 		ldr	r3, [r3, #144]
 285 01cc 03F44073 		and	r3, r3, #768
ARM GAS  /tmp/ccJqmpZo.s 			page 6


 286 01d0 0593     		str	r3, [sp, #20]
 287              		.loc 1 313 0
 288 01d2 059B     		ldr	r3, [sp, #20]
 289 01d4 002B     		cmp	r3, #0
 290 01d6 1FD0     		beq	.L26
 291              		.loc 1 313 0 is_stmt 0 discriminator 1
 292 01d8 019B     		ldr	r3, [sp, #4]
 293 01da D3F88420 		ldr	r2, [r3, #132]
 294 01de 059B     		ldr	r3, [sp, #20]
 295 01e0 9A42     		cmp	r2, r3
 296 01e2 19D0     		beq	.L26
 297              		.loc 1 316 0 is_stmt 1
 298 01e4 264B     		ldr	r3, .L58
 299 01e6 D3F89030 		ldr	r3, [r3, #144]
 300 01ea 23F44073 		bic	r3, r3, #768
 301 01ee 0593     		str	r3, [sp, #20]
 302              		.loc 1 318 0
 303 01f0 234B     		ldr	r3, .L58
 304 01f2 234A     		ldr	r2, .L58
 305 01f4 D2F89020 		ldr	r2, [r2, #144]
 306 01f8 42F48032 		orr	r2, r2, #65536
 307 01fc C3F89020 		str	r2, [r3, #144]
 308              		.loc 1 319 0
 309 0200 1F4B     		ldr	r3, .L58
 310 0202 1F4A     		ldr	r2, .L58
 311 0204 D2F89020 		ldr	r2, [r2, #144]
 312 0208 22F48032 		bic	r2, r2, #65536
 313 020c C3F89020 		str	r2, [r3, #144]
 314              		.loc 1 321 0
 315 0210 1B4B     		ldr	r3, .L58
 316 0212 059A     		ldr	r2, [sp, #20]
 317 0214 C3F89020 		str	r2, [r3, #144]
 318              	.L26:
 319              		.loc 1 325 0
 320 0218 059B     		ldr	r3, [sp, #20]
 321 021a 03F00103 		and	r3, r3, #1
 322 021e 002B     		cmp	r3, #0
 323 0220 17D0     		beq	.L27
 324              		.loc 1 328 0
 325 0222 FFF7FEFF 		bl	HAL_GetTick
 326 0226 0390     		str	r0, [sp, #12]
 327              		.loc 1 331 0
 328 0228 0CE0     		b	.L28
 329              	.L29:
 330              		.loc 1 333 0
 331 022a FFF7FEFF 		bl	HAL_GetTick
 332 022e 0246     		mov	r2, r0
 333 0230 039B     		ldr	r3, [sp, #12]
 334 0232 D21A     		subs	r2, r2, r3
 335 0234 41F28833 		movw	r3, #5000
 336 0238 9A42     		cmp	r2, r3
 337 023a 03D9     		bls	.L28
 338              		.loc 1 335 0
 339 023c 0323     		movs	r3, #3
 340 023e 8DF81330 		strb	r3, [sp, #19]
 341              		.loc 1 336 0
 342 0242 06E0     		b	.L27
ARM GAS  /tmp/ccJqmpZo.s 			page 7


 343              	.L28:
 344              		.loc 1 331 0 discriminator 1
 345 0244 0E4B     		ldr	r3, .L58
 346 0246 D3F89030 		ldr	r3, [r3, #144]
 347 024a 03F00203 		and	r3, r3, #2
 348 024e 002B     		cmp	r3, #0
 349 0250 EBD0     		beq	.L29
 350              	.L27:
 351              		.loc 1 341 0
 352 0252 9DF81330 		ldrb	r3, [sp, #19]	@ zero_extendqisi2
 353 0256 002B     		cmp	r3, #0
 354 0258 0CD1     		bne	.L30
 355              		.loc 1 344 0
 356 025a 094B     		ldr	r3, .L58
 357 025c 084A     		ldr	r2, .L58
 358 025e D2F89020 		ldr	r2, [r2, #144]
 359 0262 22F44071 		bic	r1, r2, #768
 360 0266 019A     		ldr	r2, [sp, #4]
 361 0268 D2F88420 		ldr	r2, [r2, #132]
 362 026c 0A43     		orrs	r2, r2, r1
 363 026e C3F89020 		str	r2, [r3, #144]
 364 0272 0DE0     		b	.L32
 365              	.L30:
 366              		.loc 1 349 0
 367 0274 9DF81330 		ldrb	r3, [sp, #19]
 368 0278 8DF81230 		strb	r3, [sp, #18]
 369 027c 08E0     		b	.L32
 370              	.L59:
 371 027e 00BF     		.align	2
 372              	.L58:
 373 0280 00100240 		.word	1073876992
 374 0284 00700040 		.word	1073770496
 375              	.L25:
 376              		.loc 1 355 0
 377 0288 9DF81330 		ldrb	r3, [sp, #19]
 378 028c 8DF81230 		strb	r3, [sp, #18]
 379              	.L32:
 380              		.loc 1 359 0
 381 0290 9DF81130 		ldrb	r3, [sp, #17]	@ zero_extendqisi2
 382 0294 012B     		cmp	r3, #1
 383 0296 05D1     		bne	.L20
 384              		.loc 1 361 0
 385 0298 A14B     		ldr	r3, .L60
 386 029a A14A     		ldr	r2, .L60
 387 029c 926D     		ldr	r2, [r2, #88]
 388 029e 22F08052 		bic	r2, r2, #268435456
 389 02a2 9A65     		str	r2, [r3, #88]
 390              	.L20:
 391              	.LBE86:
 392              		.loc 1 366 0
 393 02a4 019B     		ldr	r3, [sp, #4]
 394 02a6 1B68     		ldr	r3, [r3]
 395 02a8 03F00103 		and	r3, r3, #1
 396 02ac 002B     		cmp	r3, #0
 397 02ae 0AD0     		beq	.L33
 398              		.loc 1 372 0
 399 02b0 9B4B     		ldr	r3, .L60
ARM GAS  /tmp/ccJqmpZo.s 			page 8


 400 02b2 9B4A     		ldr	r2, .L60
 401 02b4 D2F88820 		ldr	r2, [r2, #136]
 402 02b8 22F00301 		bic	r1, r2, #3
 403 02bc 019A     		ldr	r2, [sp, #4]
 404 02be 926B     		ldr	r2, [r2, #56]
 405 02c0 0A43     		orrs	r2, r2, r1
 406 02c2 C3F88820 		str	r2, [r3, #136]
 407              	.L33:
 408              		.loc 1 376 0
 409 02c6 019B     		ldr	r3, [sp, #4]
 410 02c8 1B68     		ldr	r3, [r3]
 411 02ca 03F00203 		and	r3, r3, #2
 412 02ce 002B     		cmp	r3, #0
 413 02d0 0AD0     		beq	.L34
 414              		.loc 1 382 0
 415 02d2 934B     		ldr	r3, .L60
 416 02d4 924A     		ldr	r2, .L60
 417 02d6 D2F88820 		ldr	r2, [r2, #136]
 418 02da 22F00C01 		bic	r1, r2, #12
 419 02de 019A     		ldr	r2, [sp, #4]
 420 02e0 D26B     		ldr	r2, [r2, #60]
 421 02e2 0A43     		orrs	r2, r2, r1
 422 02e4 C3F88820 		str	r2, [r3, #136]
 423              	.L34:
 424              		.loc 1 388 0
 425 02e8 019B     		ldr	r3, [sp, #4]
 426 02ea 1B68     		ldr	r3, [r3]
 427 02ec 03F00403 		and	r3, r3, #4
 428 02f0 002B     		cmp	r3, #0
 429 02f2 0AD0     		beq	.L35
 430              		.loc 1 394 0
 431 02f4 8A4B     		ldr	r3, .L60
 432 02f6 8A4A     		ldr	r2, .L60
 433 02f8 D2F88820 		ldr	r2, [r2, #136]
 434 02fc 22F03001 		bic	r1, r2, #48
 435 0300 019A     		ldr	r2, [sp, #4]
 436 0302 126C     		ldr	r2, [r2, #64]
 437 0304 0A43     		orrs	r2, r2, r1
 438 0306 C3F88820 		str	r2, [r3, #136]
 439              	.L35:
 440              		.loc 1 402 0
 441 030a 019B     		ldr	r3, [sp, #4]
 442 030c 1B68     		ldr	r3, [r3]
 443 030e 03F00803 		and	r3, r3, #8
 444 0312 002B     		cmp	r3, #0
 445 0314 0AD0     		beq	.L36
 446              		.loc 1 408 0
 447 0316 824B     		ldr	r3, .L60
 448 0318 814A     		ldr	r2, .L60
 449 031a D2F88820 		ldr	r2, [r2, #136]
 450 031e 22F0C001 		bic	r1, r2, #192
 451 0322 019A     		ldr	r2, [sp, #4]
 452 0324 526C     		ldr	r2, [r2, #68]
 453 0326 0A43     		orrs	r2, r2, r1
 454 0328 C3F88820 		str	r2, [r3, #136]
 455              	.L36:
 456              		.loc 1 416 0
ARM GAS  /tmp/ccJqmpZo.s 			page 9


 457 032c 019B     		ldr	r3, [sp, #4]
 458 032e 1B68     		ldr	r3, [r3]
 459 0330 03F01003 		and	r3, r3, #16
 460 0334 002B     		cmp	r3, #0
 461 0336 0AD0     		beq	.L37
 462              		.loc 1 422 0
 463 0338 794B     		ldr	r3, .L60
 464 033a 794A     		ldr	r2, .L60
 465 033c D2F88820 		ldr	r2, [r2, #136]
 466 0340 22F44071 		bic	r1, r2, #768
 467 0344 019A     		ldr	r2, [sp, #4]
 468 0346 926C     		ldr	r2, [r2, #72]
 469 0348 0A43     		orrs	r2, r2, r1
 470 034a C3F88820 		str	r2, [r3, #136]
 471              	.L37:
 472              		.loc 1 428 0
 473 034e 019B     		ldr	r3, [sp, #4]
 474 0350 1B68     		ldr	r3, [r3]
 475 0352 03F02003 		and	r3, r3, #32
 476 0356 002B     		cmp	r3, #0
 477 0358 0AD0     		beq	.L38
 478              		.loc 1 434 0
 479 035a 714B     		ldr	r3, .L60
 480 035c 704A     		ldr	r2, .L60
 481 035e D2F88820 		ldr	r2, [r2, #136]
 482 0362 22F44061 		bic	r1, r2, #3072
 483 0366 019A     		ldr	r2, [sp, #4]
 484 0368 D26C     		ldr	r2, [r2, #76]
 485 036a 0A43     		orrs	r2, r2, r1
 486 036c C3F88820 		str	r2, [r3, #136]
 487              	.L38:
 488              		.loc 1 438 0
 489 0370 019B     		ldr	r3, [sp, #4]
 490 0372 1B68     		ldr	r3, [r3]
 491 0374 03F40073 		and	r3, r3, #512
 492 0378 002B     		cmp	r3, #0
 493 037a 0AD0     		beq	.L39
 494              		.loc 1 441 0
 495 037c 684B     		ldr	r3, .L60
 496 037e 684A     		ldr	r2, .L60
 497 0380 D2F88820 		ldr	r2, [r2, #136]
 498 0384 22F44021 		bic	r1, r2, #786432
 499 0388 019A     		ldr	r2, [sp, #4]
 500 038a D26D     		ldr	r2, [r2, #92]
 501 038c 0A43     		orrs	r2, r2, r1
 502 038e C3F88820 		str	r2, [r3, #136]
 503              	.L39:
 504              		.loc 1 445 0
 505 0392 019B     		ldr	r3, [sp, #4]
 506 0394 1B68     		ldr	r3, [r3]
 507 0396 03F48063 		and	r3, r3, #1024
 508 039a 002B     		cmp	r3, #0
 509 039c 0AD0     		beq	.L40
 510              		.loc 1 448 0
 511 039e 604B     		ldr	r3, .L60
 512 03a0 5F4A     		ldr	r2, .L60
 513 03a2 D2F88820 		ldr	r2, [r2, #136]
ARM GAS  /tmp/ccJqmpZo.s 			page 10


 514 03a6 22F44011 		bic	r1, r2, #3145728
 515 03aa 019A     		ldr	r2, [sp, #4]
 516 03ac 126E     		ldr	r2, [r2, #96]
 517 03ae 0A43     		orrs	r2, r2, r1
 518 03b0 C3F88820 		str	r2, [r3, #136]
 519              	.L40:
 520              		.loc 1 452 0
 521 03b4 019B     		ldr	r3, [sp, #4]
 522 03b6 1B68     		ldr	r3, [r3]
 523 03b8 03F04003 		and	r3, r3, #64
 524 03bc 002B     		cmp	r3, #0
 525 03be 0AD0     		beq	.L41
 526              		.loc 1 458 0
 527 03c0 574B     		ldr	r3, .L60
 528 03c2 574A     		ldr	r2, .L60
 529 03c4 D2F88820 		ldr	r2, [r2, #136]
 530 03c8 22F44051 		bic	r1, r2, #12288
 531 03cc 019A     		ldr	r2, [sp, #4]
 532 03ce 126D     		ldr	r2, [r2, #80]
 533 03d0 0A43     		orrs	r2, r2, r1
 534 03d2 C3F88820 		str	r2, [r3, #136]
 535              	.L41:
 536              		.loc 1 464 0
 537 03d6 019B     		ldr	r3, [sp, #4]
 538 03d8 1B68     		ldr	r3, [r3]
 539 03da 03F08003 		and	r3, r3, #128
 540 03de 002B     		cmp	r3, #0
 541 03e0 0AD0     		beq	.L42
 542              		.loc 1 470 0
 543 03e2 4F4B     		ldr	r3, .L60
 544 03e4 4E4A     		ldr	r2, .L60
 545 03e6 D2F88820 		ldr	r2, [r2, #136]
 546 03ea 22F44041 		bic	r1, r2, #49152
 547 03ee 019A     		ldr	r2, [sp, #4]
 548 03f0 526D     		ldr	r2, [r2, #84]
 549 03f2 0A43     		orrs	r2, r2, r1
 550 03f4 C3F88820 		str	r2, [r3, #136]
 551              	.L42:
 552              		.loc 1 476 0
 553 03f8 019B     		ldr	r3, [sp, #4]
 554 03fa 1B68     		ldr	r3, [r3]
 555 03fc 03F48073 		and	r3, r3, #256
 556 0400 002B     		cmp	r3, #0
 557 0402 0AD0     		beq	.L43
 558              		.loc 1 482 0
 559 0404 464B     		ldr	r3, .L60
 560 0406 464A     		ldr	r2, .L60
 561 0408 D2F88820 		ldr	r2, [r2, #136]
 562 040c 22F44031 		bic	r1, r2, #196608
 563 0410 019A     		ldr	r2, [sp, #4]
 564 0412 926D     		ldr	r2, [r2, #88]
 565 0414 0A43     		orrs	r2, r2, r1
 566 0416 C3F88820 		str	r2, [r3, #136]
 567              	.L43:
 568              		.loc 1 488 0
 569 041a 019B     		ldr	r3, [sp, #4]
 570 041c 1B68     		ldr	r3, [r3]
ARM GAS  /tmp/ccJqmpZo.s 			page 11


 571 041e 03F40053 		and	r3, r3, #8192
 572 0422 002B     		cmp	r3, #0
 573 0424 2CD0     		beq	.L44
 574              		.loc 1 491 0
 575 0426 3E4B     		ldr	r3, .L60
 576 0428 3D4A     		ldr	r2, .L60
 577 042a D2F88820 		ldr	r2, [r2, #136]
 578 042e 22F04061 		bic	r1, r2, #201326592
 579 0432 019A     		ldr	r2, [sp, #4]
 580 0434 D26E     		ldr	r2, [r2, #108]
 581 0436 0A43     		orrs	r2, r2, r1
 582 0438 C3F88820 		str	r2, [r3, #136]
 583              		.loc 1 493 0
 584 043c 019B     		ldr	r3, [sp, #4]
 585 043e DB6E     		ldr	r3, [r3, #108]
 586 0440 B3F1006F 		cmp	r3, #134217728
 587 0444 06D1     		bne	.L45
 588              		.loc 1 496 0
 589 0446 364B     		ldr	r3, .L60
 590 0448 354A     		ldr	r2, .L60
 591 044a D268     		ldr	r2, [r2, #12]
 592 044c 42F48012 		orr	r2, r2, #1048576
 593 0450 DA60     		str	r2, [r3, #12]
 594 0452 15E0     		b	.L44
 595              	.L45:
 596              		.loc 1 498 0
 597 0454 019B     		ldr	r3, [sp, #4]
 598 0456 DB6E     		ldr	r3, [r3, #108]
 599 0458 B3F1806F 		cmp	r3, #67108864
 600 045c 10D1     		bne	.L44
 601              		.loc 1 501 0
 602 045e 019B     		ldr	r3, [sp, #4]
 603 0460 0433     		adds	r3, r3, #4
 604 0462 1846     		mov	r0, r3
 605 0464 0121     		movs	r1, #1
 606 0466 01F0ABFA 		bl	RCCEx_PLLSAI1_Config
 607 046a 0346     		mov	r3, r0
 608 046c 8DF81330 		strb	r3, [sp, #19]
 609              		.loc 1 503 0
 610 0470 9DF81330 		ldrb	r3, [sp, #19]	@ zero_extendqisi2
 611 0474 002B     		cmp	r3, #0
 612 0476 03D0     		beq	.L44
 613              		.loc 1 506 0
 614 0478 9DF81330 		ldrb	r3, [sp, #19]
 615 047c 8DF81230 		strb	r3, [sp, #18]
 616              	.L44:
 617              		.loc 1 516 0
 618 0480 019B     		ldr	r3, [sp, #4]
 619 0482 1B68     		ldr	r3, [r3]
 620 0484 03F40023 		and	r3, r3, #524288
 621 0488 002B     		cmp	r3, #0
 622 048a 2CD0     		beq	.L46
 623              		.loc 1 519 0
 624 048c 244B     		ldr	r3, .L60
 625 048e 244A     		ldr	r2, .L60
 626 0490 D2F88820 		ldr	r2, [r2, #136]
 627 0494 22F04061 		bic	r1, r2, #201326592
ARM GAS  /tmp/ccJqmpZo.s 			page 12


 628 0498 019A     		ldr	r2, [sp, #4]
 629 049a 126F     		ldr	r2, [r2, #112]
 630 049c 0A43     		orrs	r2, r2, r1
 631 049e C3F88820 		str	r2, [r3, #136]
 632              		.loc 1 521 0
 633 04a2 019B     		ldr	r3, [sp, #4]
 634 04a4 1B6F     		ldr	r3, [r3, #112]
 635 04a6 B3F1006F 		cmp	r3, #134217728
 636 04aa 06D1     		bne	.L47
 637              		.loc 1 524 0
 638 04ac 1C4B     		ldr	r3, .L60
 639 04ae 1C4A     		ldr	r2, .L60
 640 04b0 D268     		ldr	r2, [r2, #12]
 641 04b2 42F48012 		orr	r2, r2, #1048576
 642 04b6 DA60     		str	r2, [r3, #12]
 643 04b8 15E0     		b	.L46
 644              	.L47:
 645              		.loc 1 526 0
 646 04ba 019B     		ldr	r3, [sp, #4]
 647 04bc 1B6F     		ldr	r3, [r3, #112]
 648 04be B3F1806F 		cmp	r3, #67108864
 649 04c2 10D1     		bne	.L46
 650              		.loc 1 529 0
 651 04c4 019B     		ldr	r3, [sp, #4]
 652 04c6 0433     		adds	r3, r3, #4
 653 04c8 1846     		mov	r0, r3
 654 04ca 0121     		movs	r1, #1
 655 04cc 01F078FA 		bl	RCCEx_PLLSAI1_Config
 656 04d0 0346     		mov	r3, r0
 657 04d2 8DF81330 		strb	r3, [sp, #19]
 658              		.loc 1 531 0
 659 04d6 9DF81330 		ldrb	r3, [sp, #19]	@ zero_extendqisi2
 660 04da 002B     		cmp	r3, #0
 661 04dc 03D0     		beq	.L46
 662              		.loc 1 534 0
 663 04de 9DF81330 		ldrb	r3, [sp, #19]
 664 04e2 8DF81230 		strb	r3, [sp, #18]
 665              	.L46:
 666              		.loc 1 542 0
 667 04e6 019B     		ldr	r3, [sp, #4]
 668 04e8 1B68     		ldr	r3, [r3]
 669 04ea 03F48023 		and	r3, r3, #262144
 670 04ee 002B     		cmp	r3, #0
 671 04f0 2ED0     		beq	.L48
 672              		.loc 1 545 0
 673 04f2 0B4B     		ldr	r3, .L60
 674 04f4 0A4A     		ldr	r2, .L60
 675 04f6 D2F88820 		ldr	r2, [r2, #136]
 676 04fa 22F04061 		bic	r1, r2, #201326592
 677 04fe 019A     		ldr	r2, [sp, #4]
 678 0500 526F     		ldr	r2, [r2, #116]
 679 0502 0A43     		orrs	r2, r2, r1
 680 0504 C3F88820 		str	r2, [r3, #136]
 681              		.loc 1 547 0
 682 0508 019B     		ldr	r3, [sp, #4]
 683 050a 5B6F     		ldr	r3, [r3, #116]
 684 050c B3F1006F 		cmp	r3, #134217728
ARM GAS  /tmp/ccJqmpZo.s 			page 13


 685 0510 08D1     		bne	.L49
 686              		.loc 1 550 0
 687 0512 034B     		ldr	r3, .L60
 688 0514 024A     		ldr	r2, .L60
 689 0516 D268     		ldr	r2, [r2, #12]
 690 0518 42F48012 		orr	r2, r2, #1048576
 691 051c DA60     		str	r2, [r3, #12]
 692 051e 17E0     		b	.L48
 693              	.L61:
 694              		.align	2
 695              	.L60:
 696 0520 00100240 		.word	1073876992
 697              	.L49:
 698              		.loc 1 552 0
 699 0524 019B     		ldr	r3, [sp, #4]
 700 0526 5B6F     		ldr	r3, [r3, #116]
 701 0528 B3F1806F 		cmp	r3, #67108864
 702 052c 10D1     		bne	.L48
 703              		.loc 1 555 0
 704 052e 019B     		ldr	r3, [sp, #4]
 705 0530 0433     		adds	r3, r3, #4
 706 0532 1846     		mov	r0, r3
 707 0534 0121     		movs	r1, #1
 708 0536 01F043FA 		bl	RCCEx_PLLSAI1_Config
 709 053a 0346     		mov	r3, r0
 710 053c 8DF81330 		strb	r3, [sp, #19]
 711              		.loc 1 557 0
 712 0540 9DF81330 		ldrb	r3, [sp, #19]	@ zero_extendqisi2
 713 0544 002B     		cmp	r3, #0
 714 0546 03D0     		beq	.L48
 715              		.loc 1 560 0
 716 0548 9DF81330 		ldrb	r3, [sp, #19]
 717 054c 8DF81230 		strb	r3, [sp, #18]
 718              	.L48:
 719              		.loc 1 566 0
 720 0550 019B     		ldr	r3, [sp, #4]
 721 0552 1B68     		ldr	r3, [r3]
 722 0554 03F48043 		and	r3, r3, #16384
 723 0558 002B     		cmp	r3, #0
 724 055a 37D0     		beq	.L50
 725              		.loc 1 572 0
 726 055c 304B     		ldr	r3, .L62
 727 055e 304A     		ldr	r2, .L62
 728 0560 D2F88820 		ldr	r2, [r2, #136]
 729 0564 22F04051 		bic	r1, r2, #805306368
 730 0568 019A     		ldr	r2, [sp, #4]
 731 056a 926F     		ldr	r2, [r2, #120]
 732 056c 0A43     		orrs	r2, r2, r1
 733 056e C3F88820 		str	r2, [r3, #136]
 734              		.loc 1 574 0
 735 0572 019B     		ldr	r3, [sp, #4]
 736 0574 9B6F     		ldr	r3, [r3, #120]
 737 0576 B3F1805F 		cmp	r3, #268435456
 738 057a 11D1     		bne	.L51
 739              		.loc 1 577 0
 740 057c 019B     		ldr	r3, [sp, #4]
 741 057e 0433     		adds	r3, r3, #4
ARM GAS  /tmp/ccJqmpZo.s 			page 14


 742 0580 1846     		mov	r0, r3
 743 0582 0221     		movs	r1, #2
 744 0584 01F01CFA 		bl	RCCEx_PLLSAI1_Config
 745 0588 0346     		mov	r3, r0
 746 058a 8DF81330 		strb	r3, [sp, #19]
 747              		.loc 1 579 0
 748 058e 9DF81330 		ldrb	r3, [sp, #19]	@ zero_extendqisi2
 749 0592 002B     		cmp	r3, #0
 750 0594 1AD0     		beq	.L50
 751              		.loc 1 582 0
 752 0596 9DF81330 		ldrb	r3, [sp, #19]
 753 059a 8DF81230 		strb	r3, [sp, #18]
 754 059e 15E0     		b	.L50
 755              	.L51:
 756              		.loc 1 588 0
 757 05a0 019B     		ldr	r3, [sp, #4]
 758 05a2 9B6F     		ldr	r3, [r3, #120]
 759 05a4 B3F1005F 		cmp	r3, #536870912
 760 05a8 10D1     		bne	.L50
 761              		.loc 1 591 0
 762 05aa 019B     		ldr	r3, [sp, #4]
 763 05ac 2033     		adds	r3, r3, #32
 764 05ae 1846     		mov	r0, r3
 765 05b0 0221     		movs	r1, #2
 766 05b2 01F055FB 		bl	RCCEx_PLLSAI2_Config
 767 05b6 0346     		mov	r3, r0
 768 05b8 8DF81330 		strb	r3, [sp, #19]
 769              		.loc 1 593 0
 770 05bc 9DF81330 		ldrb	r3, [sp, #19]	@ zero_extendqisi2
 771 05c0 002B     		cmp	r3, #0
 772 05c2 03D0     		beq	.L50
 773              		.loc 1 596 0
 774 05c4 9DF81330 		ldrb	r3, [sp, #19]
 775 05c8 8DF81230 		strb	r3, [sp, #18]
 776              	.L50:
 777              		.loc 1 607 0
 778 05cc 019B     		ldr	r3, [sp, #4]
 779 05ce 1B68     		ldr	r3, [r3]
 780 05d0 03F40043 		and	r3, r3, #32768
 781 05d4 002B     		cmp	r3, #0
 782 05d6 0AD0     		beq	.L53
 783              		.loc 1 613 0
 784 05d8 114B     		ldr	r3, .L62
 785 05da 114A     		ldr	r2, .L62
 786 05dc D2F88820 		ldr	r2, [r2, #136]
 787 05e0 22F08041 		bic	r1, r2, #1073741824
 788 05e4 019A     		ldr	r2, [sp, #4]
 789 05e6 D26F     		ldr	r2, [r2, #124]
 790 05e8 0A43     		orrs	r2, r2, r1
 791 05ea C3F88820 		str	r2, [r3, #136]
 792              	.L53:
 793              		.loc 1 621 0
 794 05ee 019B     		ldr	r3, [sp, #4]
 795 05f0 1B68     		ldr	r3, [r3]
 796 05f2 03F48033 		and	r3, r3, #65536
 797 05f6 002B     		cmp	r3, #0
 798 05f8 0BD0     		beq	.L54
ARM GAS  /tmp/ccJqmpZo.s 			page 15


 799              		.loc 1 627 0
 800 05fa 094B     		ldr	r3, .L62
 801 05fc 084A     		ldr	r2, .L62
 802 05fe D2F88820 		ldr	r2, [r2, #136]
 803 0602 22F00041 		bic	r1, r2, #-2147483648
 804 0606 019A     		ldr	r2, [sp, #4]
 805 0608 D2F88020 		ldr	r2, [r2, #128]
 806 060c 0A43     		orrs	r2, r2, r1
 807 060e C3F88820 		str	r2, [r3, #136]
 808              	.L54:
 809              		.loc 1 632 0
 810 0612 9DF81230 		ldrb	r3, [sp, #18]	@ zero_extendqisi2
 811              		.loc 1 633 0
 812 0616 1846     		mov	r0, r3
 813 0618 07B0     		add	sp, sp, #28
 814              		@ sp needed
 815 061a 5DF804FB 		ldr	pc, [sp], #4
 816              	.L63:
 817 061e 00BF     		.align	2
 818              	.L62:
 819 0620 00100240 		.word	1073876992
 820              		.cfi_endproc
 821              	.LFE125:
 822              		.size	HAL_RCCEx_PeriphCLKConfig, .-HAL_RCCEx_PeriphCLKConfig
 823              		.align	2
 824 0624 AFF30080 		.p2align 4,,15
 824      AFF30080 
 824      AFF30080 
 825              		.global	HAL_RCCEx_GetPeriphCLKConfig
 826              		.thumb
 827              		.thumb_func
 828              		.type	HAL_RCCEx_GetPeriphCLKConfig, %function
 829              	HAL_RCCEx_GetPeriphCLKConfig:
 830              	.LFB126:
 831              		.loc 1 644 0
 832              		.cfi_startproc
 833              		@ args = 0, pretend = 0, frame = 80
 834              		@ frame_needed = 0, uses_anonymous_args = 0
 835              		@ link register save eliminated.
 836 0630 94B0     		sub	sp, sp, #80
 837              		.cfi_def_cfa_offset 80
 838 0632 0190     		str	r0, [sp, #4]
 839              		.loc 1 680 0
 840 0634 019B     		ldr	r3, [sp, #4]
 841 0636 A14A     		ldr	r2, .L74
 842 0638 1A60     		str	r2, [r3]
 843              		.loc 1 690 0
 844 063a A14B     		ldr	r3, .L74+4
 845 063c DB68     		ldr	r3, [r3, #12]
 846 063e 03F00302 		and	r2, r3, #3
 847 0642 0323     		movs	r3, #3
 848 0644 1393     		str	r3, [sp, #76]
 849              	.LBB88:
 850              	.LBB89:
 851              		.file 2 "../../../../../../ChibiOS/os/ext/CMSIS/include/core_cmInstr.h"
 852              		.loc 2 586 0
 853 0646 139B     		ldr	r3, [sp, #76]
ARM GAS  /tmp/ccJqmpZo.s 			page 16


 854              	@ 586 "../../../../../../ChibiOS/os/ext/CMSIS/include/core_cmInstr.h" 1
 855 0648 93FAA3F3 		rbit r3, r3
 856              	@ 0 "" 2
 857              		.thumb
 858 064c 1293     		str	r3, [sp, #72]
 859              		.loc 2 599 0
 860 064e 129B     		ldr	r3, [sp, #72]
 861              	.LBE89:
 862              	.LBE88:
 863              		.loc 1 690 0
 864 0650 B3FA83F3 		clz	r3, r3
 865 0654 DA40     		lsrs	r2, r2, r3
 866 0656 019B     		ldr	r3, [sp, #4]
 867 0658 5A60     		str	r2, [r3, #4]
 868              		.loc 1 691 0
 869 065a 994B     		ldr	r3, .L74+4
 870 065c DB68     		ldr	r3, [r3, #12]
 871 065e 03F07002 		and	r2, r3, #112
 872 0662 7023     		movs	r3, #112
 873 0664 1193     		str	r3, [sp, #68]
 874              	.LBB90:
 875              	.LBB91:
 876              		.loc 2 586 0
 877 0666 119B     		ldr	r3, [sp, #68]
 878              	@ 586 "../../../../../../ChibiOS/os/ext/CMSIS/include/core_cmInstr.h" 1
 879 0668 93FAA3F3 		rbit r3, r3
 880              	@ 0 "" 2
 881              		.thumb
 882 066c 1093     		str	r3, [sp, #64]
 883              		.loc 2 599 0
 884 066e 109B     		ldr	r3, [sp, #64]
 885              	.LBE91:
 886              	.LBE90:
 887              		.loc 1 691 0
 888 0670 B3FA83F3 		clz	r3, r3
 889 0674 22FA03F3 		lsr	r3, r2, r3
 890 0678 5A1C     		adds	r2, r3, #1
 891 067a 019B     		ldr	r3, [sp, #4]
 892 067c 9A60     		str	r2, [r3, #8]
 893              		.loc 1 692 0
 894 067e 904B     		ldr	r3, .L74+4
 895 0680 1B69     		ldr	r3, [r3, #16]
 896 0682 03F4FE42 		and	r2, r3, #32512
 897 0686 4FF4FE43 		mov	r3, #32512
 898 068a 0F93     		str	r3, [sp, #60]
 899              	.LBB92:
 900              	.LBB93:
 901              		.loc 2 586 0
 902 068c 0F9B     		ldr	r3, [sp, #60]
 903              	@ 586 "../../../../../../ChibiOS/os/ext/CMSIS/include/core_cmInstr.h" 1
 904 068e 93FAA3F3 		rbit r3, r3
 905              	@ 0 "" 2
 906              		.thumb
 907 0692 0E93     		str	r3, [sp, #56]
 908              		.loc 2 599 0
 909 0694 0E9B     		ldr	r3, [sp, #56]
 910              	.LBE93:
ARM GAS  /tmp/ccJqmpZo.s 			page 17


 911              	.LBE92:
 912              		.loc 1 692 0
 913 0696 B3FA83F3 		clz	r3, r3
 914 069a DA40     		lsrs	r2, r2, r3
 915 069c 019B     		ldr	r3, [sp, #4]
 916 069e DA60     		str	r2, [r3, #12]
 917              		.loc 1 693 0
 918 06a0 874B     		ldr	r3, .L74+4
 919 06a2 1B69     		ldr	r3, [r3, #16]
 920 06a4 03F40032 		and	r2, r3, #131072
 921 06a8 4FF40033 		mov	r3, #131072
 922 06ac 0D93     		str	r3, [sp, #52]
 923              	.LBB94:
 924              	.LBB95:
 925              		.loc 2 586 0
 926 06ae 0D9B     		ldr	r3, [sp, #52]
 927              	@ 586 "../../../../../../ChibiOS/os/ext/CMSIS/include/core_cmInstr.h" 1
 928 06b0 93FAA3F3 		rbit r3, r3
 929              	@ 0 "" 2
 930              		.thumb
 931 06b4 0C93     		str	r3, [sp, #48]
 932              		.loc 2 599 0
 933 06b6 0C9B     		ldr	r3, [sp, #48]
 934              	.LBE95:
 935              	.LBE94:
 936              		.loc 1 693 0
 937 06b8 B3FA83F3 		clz	r3, r3
 938 06bc 22FA03F3 		lsr	r3, r2, r3
 939 06c0 1B01     		lsls	r3, r3, #4
 940 06c2 DA1D     		adds	r2, r3, #7
 941 06c4 019B     		ldr	r3, [sp, #4]
 942 06c6 1A61     		str	r2, [r3, #16]
 943              		.loc 1 694 0
 944 06c8 7D4B     		ldr	r3, .L74+4
 945 06ca 1B69     		ldr	r3, [r3, #16]
 946 06cc 03F4C002 		and	r2, r3, #6291456
 947 06d0 4FF4C003 		mov	r3, #6291456
 948 06d4 0B93     		str	r3, [sp, #44]
 949              	.LBB96:
 950              	.LBB97:
 951              		.loc 2 586 0
 952 06d6 0B9B     		ldr	r3, [sp, #44]
 953              	@ 586 "../../../../../../ChibiOS/os/ext/CMSIS/include/core_cmInstr.h" 1
 954 06d8 93FAA3F3 		rbit r3, r3
 955              	@ 0 "" 2
 956              		.thumb
 957 06dc 0A93     		str	r3, [sp, #40]
 958              		.loc 2 599 0
 959 06de 0A9B     		ldr	r3, [sp, #40]
 960              	.LBE97:
 961              	.LBE96:
 962              		.loc 1 694 0
 963 06e0 B3FA83F3 		clz	r3, r3
 964 06e4 22FA03F3 		lsr	r3, r2, r3
 965 06e8 0133     		adds	r3, r3, #1
 966 06ea 5A00     		lsls	r2, r3, #1
 967 06ec 019B     		ldr	r3, [sp, #4]
ARM GAS  /tmp/ccJqmpZo.s 			page 18


 968 06ee 5A61     		str	r2, [r3, #20]
 969              		.loc 1 695 0
 970 06f0 734B     		ldr	r3, .L74+4
 971 06f2 1B69     		ldr	r3, [r3, #16]
 972 06f4 03F0C062 		and	r2, r3, #100663296
 973 06f8 4FF0C063 		mov	r3, #100663296
 974 06fc 0993     		str	r3, [sp, #36]
 975              	.LBB98:
 976              	.LBB99:
 977              		.loc 2 586 0
 978 06fe 099B     		ldr	r3, [sp, #36]
 979              	@ 586 "../../../../../../ChibiOS/os/ext/CMSIS/include/core_cmInstr.h" 1
 980 0700 93FAA3F3 		rbit r3, r3
 981              	@ 0 "" 2
 982              		.thumb
 983 0704 0893     		str	r3, [sp, #32]
 984              		.loc 2 599 0
 985 0706 089B     		ldr	r3, [sp, #32]
 986              	.LBE99:
 987              	.LBE98:
 988              		.loc 1 695 0
 989 0708 B3FA83F3 		clz	r3, r3
 990 070c 22FA03F3 		lsr	r3, r2, r3
 991 0710 0133     		adds	r3, r3, #1
 992 0712 5A00     		lsls	r2, r3, #1
 993 0714 019B     		ldr	r3, [sp, #4]
 994 0716 9A61     		str	r2, [r3, #24]
 995              		.loc 1 701 0
 996 0718 019B     		ldr	r3, [sp, #4]
 997 071a 5A68     		ldr	r2, [r3, #4]
 998 071c 019B     		ldr	r3, [sp, #4]
 999 071e 1A62     		str	r2, [r3, #32]
 1000              		.loc 1 702 0
 1001 0720 019B     		ldr	r3, [sp, #4]
 1002 0722 9A68     		ldr	r2, [r3, #8]
 1003 0724 019B     		ldr	r3, [sp, #4]
 1004 0726 5A62     		str	r2, [r3, #36]
 1005              		.loc 1 703 0
 1006 0728 654B     		ldr	r3, .L74+4
 1007 072a 5B69     		ldr	r3, [r3, #20]
 1008 072c 03F4FE42 		and	r2, r3, #32512
 1009 0730 4FF4FE43 		mov	r3, #32512
 1010 0734 0793     		str	r3, [sp, #28]
 1011              	.LBB100:
 1012              	.LBB101:
 1013              		.loc 2 586 0
 1014 0736 079B     		ldr	r3, [sp, #28]
 1015              	@ 586 "../../../../../../ChibiOS/os/ext/CMSIS/include/core_cmInstr.h" 1
 1016 0738 93FAA3F3 		rbit r3, r3
 1017              	@ 0 "" 2
 1018              		.thumb
 1019 073c 0693     		str	r3, [sp, #24]
 1020              		.loc 2 599 0
 1021 073e 069B     		ldr	r3, [sp, #24]
 1022              	.LBE101:
 1023              	.LBE100:
 1024              		.loc 1 703 0
ARM GAS  /tmp/ccJqmpZo.s 			page 19


 1025 0740 B3FA83F3 		clz	r3, r3
 1026 0744 DA40     		lsrs	r2, r2, r3
 1027 0746 019B     		ldr	r3, [sp, #4]
 1028 0748 9A62     		str	r2, [r3, #40]
 1029              		.loc 1 704 0
 1030 074a 5D4B     		ldr	r3, .L74+4
 1031 074c 5B69     		ldr	r3, [r3, #20]
 1032 074e 03F40032 		and	r2, r3, #131072
 1033 0752 4FF40033 		mov	r3, #131072
 1034 0756 0593     		str	r3, [sp, #20]
 1035              	.LBB102:
 1036              	.LBB103:
 1037              		.loc 2 586 0
 1038 0758 059B     		ldr	r3, [sp, #20]
 1039              	@ 586 "../../../../../../ChibiOS/os/ext/CMSIS/include/core_cmInstr.h" 1
 1040 075a 93FAA3F3 		rbit r3, r3
 1041              	@ 0 "" 2
 1042              		.thumb
 1043 075e 0493     		str	r3, [sp, #16]
 1044              		.loc 2 599 0
 1045 0760 049B     		ldr	r3, [sp, #16]
 1046              	.LBE103:
 1047              	.LBE102:
 1048              		.loc 1 704 0
 1049 0762 B3FA83F3 		clz	r3, r3
 1050 0766 22FA03F3 		lsr	r3, r2, r3
 1051 076a 1B01     		lsls	r3, r3, #4
 1052 076c DA1D     		adds	r2, r3, #7
 1053 076e 019B     		ldr	r3, [sp, #4]
 1054 0770 DA62     		str	r2, [r3, #44]
 1055              		.loc 1 705 0
 1056 0772 534B     		ldr	r3, .L74+4
 1057 0774 5B69     		ldr	r3, [r3, #20]
 1058 0776 03F0C062 		and	r2, r3, #100663296
 1059 077a 4FF0C063 		mov	r3, #100663296
 1060 077e 0393     		str	r3, [sp, #12]
 1061              	.LBB104:
 1062              	.LBB105:
 1063              		.loc 2 586 0
 1064 0780 039B     		ldr	r3, [sp, #12]
 1065              	@ 586 "../../../../../../ChibiOS/os/ext/CMSIS/include/core_cmInstr.h" 1
 1066 0782 93FAA3F3 		rbit r3, r3
 1067              	@ 0 "" 2
 1068              		.thumb
 1069 0786 0293     		str	r3, [sp, #8]
 1070              		.loc 2 599 0
 1071 0788 029B     		ldr	r3, [sp, #8]
 1072              	.LBE105:
 1073              	.LBE104:
 1074              		.loc 1 705 0
 1075 078a B3FA83F3 		clz	r3, r3
 1076 078e 22FA03F3 		lsr	r3, r2, r3
 1077 0792 0133     		adds	r3, r3, #1
 1078 0794 5A00     		lsls	r2, r3, #1
 1079 0796 019B     		ldr	r3, [sp, #4]
 1080 0798 1A63     		str	r2, [r3, #48]
 1081              		.loc 1 710 0
ARM GAS  /tmp/ccJqmpZo.s 			page 20


 1082 079a 494B     		ldr	r3, .L74+4
 1083 079c D3F88830 		ldr	r3, [r3, #136]
 1084 07a0 03F00302 		and	r2, r3, #3
 1085 07a4 019B     		ldr	r3, [sp, #4]
 1086 07a6 9A63     		str	r2, [r3, #56]
 1087              		.loc 1 712 0
 1088 07a8 454B     		ldr	r3, .L74+4
 1089 07aa D3F88830 		ldr	r3, [r3, #136]
 1090 07ae 03F00C02 		and	r2, r3, #12
 1091 07b2 019B     		ldr	r3, [sp, #4]
 1092 07b4 DA63     		str	r2, [r3, #60]
 1093              		.loc 1 716 0
 1094 07b6 424B     		ldr	r3, .L74+4
 1095 07b8 D3F88830 		ldr	r3, [r3, #136]
 1096 07bc 03F03002 		and	r2, r3, #48
 1097 07c0 019B     		ldr	r3, [sp, #4]
 1098 07c2 1A64     		str	r2, [r3, #64]
 1099              		.loc 1 721 0
 1100 07c4 3E4B     		ldr	r3, .L74+4
 1101 07c6 D3F88830 		ldr	r3, [r3, #136]
 1102 07ca 03F0C002 		and	r2, r3, #192
 1103 07ce 019B     		ldr	r3, [sp, #4]
 1104 07d0 5A64     		str	r2, [r3, #68]
 1105              		.loc 1 726 0
 1106 07d2 3B4B     		ldr	r3, .L74+4
 1107 07d4 D3F88830 		ldr	r3, [r3, #136]
 1108 07d8 03F44072 		and	r2, r3, #768
 1109 07dc 019B     		ldr	r3, [sp, #4]
 1110 07de 9A64     		str	r2, [r3, #72]
 1111              		.loc 1 730 0
 1112 07e0 374B     		ldr	r3, .L74+4
 1113 07e2 D3F88830 		ldr	r3, [r3, #136]
 1114 07e6 03F44062 		and	r2, r3, #3072
 1115 07ea 019B     		ldr	r3, [sp, #4]
 1116 07ec DA64     		str	r2, [r3, #76]
 1117              		.loc 1 733 0
 1118 07ee 344B     		ldr	r3, .L74+4
 1119 07f0 D3F88830 		ldr	r3, [r3, #136]
 1120 07f4 03F44052 		and	r2, r3, #12288
 1121 07f8 019B     		ldr	r3, [sp, #4]
 1122 07fa 1A65     		str	r2, [r3, #80]
 1123              		.loc 1 737 0
 1124 07fc 304B     		ldr	r3, .L74+4
 1125 07fe D3F88830 		ldr	r3, [r3, #136]
 1126 0802 03F44042 		and	r2, r3, #49152
 1127 0806 019B     		ldr	r3, [sp, #4]
 1128 0808 5A65     		str	r2, [r3, #84]
 1129              		.loc 1 741 0
 1130 080a 2D4B     		ldr	r3, .L74+4
 1131 080c D3F88830 		ldr	r3, [r3, #136]
 1132 0810 03F44032 		and	r2, r3, #196608
 1133 0814 019B     		ldr	r3, [sp, #4]
 1134 0816 9A65     		str	r2, [r3, #88]
 1135              		.loc 1 744 0
 1136 0818 294B     		ldr	r3, .L74+4
 1137 081a D3F88830 		ldr	r3, [r3, #136]
 1138 081e 03F44022 		and	r2, r3, #786432
ARM GAS  /tmp/ccJqmpZo.s 			page 21


 1139 0822 019B     		ldr	r3, [sp, #4]
 1140 0824 DA65     		str	r2, [r3, #92]
 1141              		.loc 1 747 0
 1142 0826 264B     		ldr	r3, .L74+4
 1143 0828 D3F88830 		ldr	r3, [r3, #136]
 1144 082c 03F44012 		and	r2, r3, #3145728
 1145 0830 019B     		ldr	r3, [sp, #4]
 1146 0832 1A66     		str	r2, [r3, #96]
 1147              		.loc 1 750 0
 1148 0834 224B     		ldr	r3, .L74+4
 1149 0836 D3F88830 		ldr	r3, [r3, #136]
 1150 083a 03F44002 		and	r2, r3, #12582912
 1151 083e 019B     		ldr	r3, [sp, #4]
 1152 0840 5A66     		str	r2, [r3, #100]
 1153              		.loc 1 754 0
 1154 0842 1F4B     		ldr	r3, .L74+4
 1155 0844 D3F88830 		ldr	r3, [r3, #136]
 1156 0848 03F04072 		and	r2, r3, #50331648
 1157 084c 019B     		ldr	r3, [sp, #4]
 1158 084e 9A66     		str	r2, [r3, #104]
 1159              		.loc 1 758 0
 1160 0850 1B4B     		ldr	r3, .L74+4
 1161 0852 D3F89030 		ldr	r3, [r3, #144]
 1162 0856 03F44072 		and	r2, r3, #768
 1163 085a 019B     		ldr	r3, [sp, #4]
 1164 085c C3F88420 		str	r2, [r3, #132]
 1165              		.loc 1 762 0
 1166 0860 174B     		ldr	r3, .L74+4
 1167 0862 D3F88830 		ldr	r3, [r3, #136]
 1168 0866 03F04062 		and	r2, r3, #201326592
 1169 086a 019B     		ldr	r3, [sp, #4]
 1170 086c DA66     		str	r2, [r3, #108]
 1171              		.loc 1 767 0
 1172 086e 144B     		ldr	r3, .L74+4
 1173 0870 D3F88830 		ldr	r3, [r3, #136]
 1174 0874 03F04062 		and	r2, r3, #201326592
 1175 0878 019B     		ldr	r3, [sp, #4]
 1176 087a 1A67     		str	r2, [r3, #112]
 1177              		.loc 1 771 0
 1178 087c 104B     		ldr	r3, .L74+4
 1179 087e D3F88830 		ldr	r3, [r3, #136]
 1180 0882 03F04062 		and	r2, r3, #201326592
 1181 0886 019B     		ldr	r3, [sp, #4]
 1182 0888 5A67     		str	r2, [r3, #116]
 1183              		.loc 1 774 0
 1184 088a 0D4B     		ldr	r3, .L74+4
 1185 088c D3F88830 		ldr	r3, [r3, #136]
 1186 0890 03F04052 		and	r2, r3, #805306368
 1187 0894 019B     		ldr	r3, [sp, #4]
 1188 0896 9A67     		str	r2, [r3, #120]
 1189              		.loc 1 778 0
 1190 0898 094B     		ldr	r3, .L74+4
 1191 089a D3F88830 		ldr	r3, [r3, #136]
 1192 089e 03F08042 		and	r2, r3, #1073741824
 1193 08a2 019B     		ldr	r3, [sp, #4]
 1194 08a4 DA67     		str	r2, [r3, #124]
 1195              		.loc 1 783 0
ARM GAS  /tmp/ccJqmpZo.s 			page 22


 1196 08a6 064B     		ldr	r3, .L74+4
 1197 08a8 D3F88830 		ldr	r3, [r3, #136]
 1198 08ac 03F00042 		and	r2, r3, #-2147483648
 1199 08b0 019B     		ldr	r3, [sp, #4]
 1200 08b2 C3F88020 		str	r2, [r3, #128]
 1201              		.loc 1 785 0
 1202 08b6 14B0     		add	sp, sp, #80
 1203              		@ sp needed
 1204 08b8 7047     		bx	lr
 1205              	.L75:
 1206 08ba 00BF     		.align	2
 1207              	.L74:
 1208 08bc FFFF0F00 		.word	1048575
 1209 08c0 00100240 		.word	1073876992
 1210              		.cfi_endproc
 1211              	.LFE126:
 1212              		.size	HAL_RCCEx_GetPeriphCLKConfig, .-HAL_RCCEx_GetPeriphCLKConfig
 1213              		.align	2
 1214 08c4 AFF30080 		.p2align 4,,15
 1214      AFF30080 
 1214      AFF30080 
 1215              		.global	HAL_RCCEx_GetPeriphCLKFreq
 1216              		.thumb
 1217              		.thumb_func
 1218              		.type	HAL_RCCEx_GetPeriphCLKFreq, %function
 1219              	HAL_RCCEx_GetPeriphCLKFreq:
 1220              	.LFB127:
 1221              		.loc 1 821 0
 1222              		.cfi_startproc
 1223              		@ args = 0, pretend = 0, frame = 128
 1224              		@ frame_needed = 0, uses_anonymous_args = 0
 1225 08d0 00B5     		push	{lr}
 1226              		.cfi_def_cfa_offset 4
 1227              		.cfi_offset 14, -4
 1228 08d2 A1B0     		sub	sp, sp, #132
 1229              		.cfi_def_cfa_offset 136
 1230 08d4 0190     		str	r0, [sp, #4]
 1231              		.loc 1 822 0
 1232 08d6 0023     		movs	r3, #0
 1233 08d8 1F93     		str	r3, [sp, #124]
 1234              		.loc 1 823 0
 1235 08da 0023     		movs	r3, #0
 1236 08dc 1E93     		str	r3, [sp, #120]
 1237              		.loc 1 824 0
 1238 08de 0023     		movs	r3, #0
 1239 08e0 1D93     		str	r3, [sp, #116]
 1240 08e2 0023     		movs	r3, #0
 1241 08e4 1B93     		str	r3, [sp, #108]
 1242 08e6 0023     		movs	r3, #0
 1243 08e8 1C93     		str	r3, [sp, #112]
 1244              		.loc 1 829 0
 1245 08ea 019B     		ldr	r3, [sp, #4]
 1246 08ec B3F5003F 		cmp	r3, #131072
 1247 08f0 36D1     		bne	.L77
 1248              		.loc 1 832 0
 1249 08f2 AD4B     		ldr	r3, .L226
 1250 08f4 D3F89030 		ldr	r3, [r3, #144]
ARM GAS  /tmp/ccJqmpZo.s 			page 23


 1251 08f8 03F44073 		and	r3, r3, #768
 1252 08fc 1E93     		str	r3, [sp, #120]
 1253              		.loc 1 835 0
 1254 08fe 1E9B     		ldr	r3, [sp, #120]
 1255 0900 B3F5807F 		cmp	r3, #256
 1256 0904 0AD1     		bne	.L78
 1257              		.loc 1 835 0 is_stmt 0 discriminator 1
 1258 0906 A84B     		ldr	r3, .L226
 1259 0908 D3F89030 		ldr	r3, [r3, #144]
 1260 090c 03F00203 		and	r3, r3, #2
 1261 0910 002B     		cmp	r3, #0
 1262 0912 03D0     		beq	.L78
 1263              		.loc 1 837 0 is_stmt 1
 1264 0914 4FF40043 		mov	r3, #32768
 1265 0918 1F93     		str	r3, [sp, #124]
 1266 091a 1FE0     		b	.L79
 1267              	.L78:
 1268              		.loc 1 840 0
 1269 091c 1E9B     		ldr	r3, [sp, #120]
 1270 091e B3F5007F 		cmp	r3, #512
 1271 0922 0AD1     		bne	.L80
 1272              		.loc 1 840 0 is_stmt 0 discriminator 1
 1273 0924 A04B     		ldr	r3, .L226
 1274 0926 D3F89430 		ldr	r3, [r3, #148]
 1275 092a 03F00203 		and	r3, r3, #2
 1276 092e 002B     		cmp	r3, #0
 1277 0930 03D0     		beq	.L80
 1278              		.loc 1 842 0 is_stmt 1
 1279 0932 4FF4FA43 		mov	r3, #32000
 1280 0936 1F93     		str	r3, [sp, #124]
 1281 0938 10E0     		b	.L79
 1282              	.L80:
 1283              		.loc 1 845 0
 1284 093a 1E9B     		ldr	r3, [sp, #120]
 1285 093c B3F5407F 		cmp	r3, #768
 1286 0940 08D1     		bne	.L81
 1287              		.loc 1 845 0 is_stmt 0 discriminator 1
 1288 0942 994B     		ldr	r3, .L226
 1289 0944 1B68     		ldr	r3, [r3]
 1290 0946 03F40033 		and	r3, r3, #131072
 1291 094a 002B     		cmp	r3, #0
 1292 094c 02D0     		beq	.L81
 1293              		.loc 1 847 0 is_stmt 1
 1294 094e 974B     		ldr	r3, .L226+4
 1295 0950 1F93     		str	r3, [sp, #124]
 1296 0952 03E0     		b	.L79
 1297              	.L81:
 1298              		.loc 1 852 0
 1299 0954 0023     		movs	r3, #0
 1300 0956 1F93     		str	r3, [sp, #124]
 1301 0958 00F021BD 		b	.L82
 1302              	.L79:
 1303 095c 00F01FBD 		b	.L82
 1304              	.L77:
 1305              		.loc 1 860 0
 1306 0960 914B     		ldr	r3, .L226
 1307 0962 DB68     		ldr	r3, [r3, #12]
ARM GAS  /tmp/ccJqmpZo.s 			page 24


 1308 0964 03F00303 		and	r3, r3, #3
 1309 0968 012B     		cmp	r3, #1
 1310 096a 24D1     		bne	.L83
 1311              		.loc 1 862 0
 1312 096c 8E4B     		ldr	r3, .L226
 1313 096e 1B68     		ldr	r3, [r3]
 1314 0970 03F00203 		and	r3, r3, #2
 1315 0974 002B     		cmp	r3, #0
 1316 0976 1BD0     		beq	.L84
 1317              		.loc 1 864 0
 1318 0978 8B4B     		ldr	r3, .L226
 1319 097a 1B68     		ldr	r3, [r3]
 1320 097c 03F00803 		and	r3, r3, #8
 1321 0980 002B     		cmp	r3, #0
 1322 0982 09D0     		beq	.L85
 1323              		.loc 1 864 0 is_stmt 0 discriminator 1
 1324 0984 884B     		ldr	r3, .L226
 1325 0986 1B68     		ldr	r3, [r3]
 1326 0988 03F0F003 		and	r3, r3, #240
 1327 098c 1B09     		lsrs	r3, r3, #4
 1328 098e 043B     		subs	r3, r3, #4
 1329 0990 874A     		ldr	r2, .L226+8
 1330 0992 02FA03F3 		lsl	r3, r2, r3
 1331 0996 09E0     		b	.L86
 1332              	.L85:
 1333              		.loc 1 864 0 discriminator 2
 1334 0998 834B     		ldr	r3, .L226
 1335 099a D3F89430 		ldr	r3, [r3, #148]
 1336 099e 03F47063 		and	r3, r3, #3840
 1337 09a2 1B0A     		lsrs	r3, r3, #8
 1338 09a4 043B     		subs	r3, r3, #4
 1339 09a6 824A     		ldr	r2, .L226+8
 1340 09a8 02FA03F3 		lsl	r3, r2, r3
 1341              	.L86:
 1342              		.loc 1 864 0 discriminator 1
 1343 09ac 1D93     		str	r3, [sp, #116]
 1344 09ae 28E0     		b	.L88
 1345              	.L84:
 1346              		.loc 1 868 0 is_stmt 1
 1347 09b0 0023     		movs	r3, #0
 1348 09b2 1D93     		str	r3, [sp, #116]
 1349 09b4 25E0     		b	.L88
 1350              	.L83:
 1351              		.loc 1 871 0
 1352 09b6 7C4B     		ldr	r3, .L226
 1353 09b8 DB68     		ldr	r3, [r3, #12]
 1354 09ba 03F00303 		and	r3, r3, #3
 1355 09be 022B     		cmp	r3, #2
 1356 09c0 0BD1     		bne	.L89
 1357              		.loc 1 873 0
 1358 09c2 794B     		ldr	r3, .L226
 1359 09c4 1B68     		ldr	r3, [r3]
 1360 09c6 03F48063 		and	r3, r3, #1024
 1361 09ca 002B     		cmp	r3, #0
 1362 09cc 02D0     		beq	.L90
 1363              		.loc 1 875 0
 1364 09ce 794B     		ldr	r3, .L226+12
ARM GAS  /tmp/ccJqmpZo.s 			page 25


 1365 09d0 1D93     		str	r3, [sp, #116]
 1366 09d2 16E0     		b	.L88
 1367              	.L90:
 1368              		.loc 1 879 0
 1369 09d4 0023     		movs	r3, #0
 1370 09d6 1D93     		str	r3, [sp, #116]
 1371 09d8 13E0     		b	.L88
 1372              	.L89:
 1373              		.loc 1 882 0
 1374 09da 734B     		ldr	r3, .L226
 1375 09dc DB68     		ldr	r3, [r3, #12]
 1376 09de 03F00303 		and	r3, r3, #3
 1377 09e2 032B     		cmp	r3, #3
 1378 09e4 0BD1     		bne	.L92
 1379              		.loc 1 884 0
 1380 09e6 704B     		ldr	r3, .L226
 1381 09e8 1B68     		ldr	r3, [r3]
 1382 09ea 03F40033 		and	r3, r3, #131072
 1383 09ee 002B     		cmp	r3, #0
 1384 09f0 02D0     		beq	.L93
 1385              		.loc 1 886 0
 1386 09f2 714B     		ldr	r3, .L226+16
 1387 09f4 1D93     		str	r3, [sp, #116]
 1388 09f6 04E0     		b	.L88
 1389              	.L93:
 1390              		.loc 1 890 0
 1391 09f8 0023     		movs	r3, #0
 1392 09fa 1D93     		str	r3, [sp, #116]
 1393 09fc 01E0     		b	.L88
 1394              	.L92:
 1395              		.loc 1 895 0
 1396 09fe 0023     		movs	r3, #0
 1397 0a00 1D93     		str	r3, [sp, #116]
 1398              	.L88:
 1399              		.loc 1 899 0
 1400 0a02 694B     		ldr	r3, .L226
 1401 0a04 DB68     		ldr	r3, [r3, #12]
 1402 0a06 03F07002 		and	r2, r3, #112
 1403 0a0a 7023     		movs	r3, #112
 1404 0a0c 1A93     		str	r3, [sp, #104]
 1405              	.LBB106:
 1406              	.LBB107:
 1407              		.loc 2 586 0
 1408 0a0e 1A9B     		ldr	r3, [sp, #104]
 1409              	@ 586 "../../../../../../ChibiOS/os/ext/CMSIS/include/core_cmInstr.h" 1
 1410 0a10 93FAA3F3 		rbit r3, r3
 1411              	@ 0 "" 2
 1412              		.thumb
 1413 0a14 1993     		str	r3, [sp, #100]
 1414              		.loc 2 599 0
 1415 0a16 199B     		ldr	r3, [sp, #100]
 1416              	.LBE107:
 1417              	.LBE106:
 1418              		.loc 1 899 0
 1419 0a18 B3FA83F3 		clz	r3, r3
 1420 0a1c 22FA03F3 		lsr	r3, r2, r3
 1421 0a20 0133     		adds	r3, r3, #1
ARM GAS  /tmp/ccJqmpZo.s 			page 26


 1422 0a22 1D9A     		ldr	r2, [sp, #116]
 1423 0a24 B2FBF3F3 		udiv	r3, r2, r3
 1424 0a28 1D93     		str	r3, [sp, #116]
 1425              		.loc 1 901 0
 1426 0a2a 019B     		ldr	r3, [sp, #4]
 1427 0a2c B3F5007F 		cmp	r3, #512
 1428 0a30 00F01A84 		beq	.L97
 1429 0a34 B3F5007F 		cmp	r3, #512
 1430 0a38 29D8     		bhi	.L98
 1431 0a3a 102B     		cmp	r3, #16
 1432 0a3c 00F0A782 		beq	.L99
 1433 0a40 102B     		cmp	r3, #16
 1434 0a42 11D8     		bhi	.L100
 1435 0a44 022B     		cmp	r3, #2
 1436 0a46 00F00682 		beq	.L101
 1437 0a4a 022B     		cmp	r3, #2
 1438 0a4c 04D8     		bhi	.L102
 1439 0a4e 012B     		cmp	r3, #1
 1440 0a50 00F0CF81 		beq	.L103
 1441              		.loc 1 1550 0
 1442 0a54 00F0A3BC 		b	.L82
 1443              	.L102:
 1444              		.loc 1 901 0
 1445 0a58 042B     		cmp	r3, #4
 1446 0a5a 00F03482 		beq	.L104
 1447 0a5e 082B     		cmp	r3, #8
 1448 0a60 00F06382 		beq	.L105
 1449              		.loc 1 1550 0
 1450 0a64 00F09BBC 		b	.L82
 1451              	.L100:
 1452              		.loc 1 901 0
 1453 0a68 402B     		cmp	r3, #64
 1454 0a6a 00F08B83 		beq	.L106
 1455 0a6e 402B     		cmp	r3, #64
 1456 0a70 04D8     		bhi	.L107
 1457 0a72 202B     		cmp	r3, #32
 1458 0a74 00F0C082 		beq	.L108
 1459              		.loc 1 1550 0
 1460 0a78 00F091BC 		b	.L82
 1461              	.L107:
 1462              		.loc 1 901 0
 1463 0a7c 802B     		cmp	r3, #128
 1464 0a7e 00F0A783 		beq	.L109
 1465 0a82 B3F5807F 		cmp	r3, #256
 1466 0a86 00F0C983 		beq	.L110
 1467              		.loc 1 1550 0
 1468 0a8a 00F088BC 		b	.L82
 1469              	.L98:
 1470              		.loc 1 901 0
 1471 0a8e B3F5804F 		cmp	r3, #16384
 1472 0a92 00F0E682 		beq	.L111
 1473 0a96 B3F5804F 		cmp	r3, #16384
 1474 0a9a 14D8     		bhi	.L112
 1475 0a9c B3F5006F 		cmp	r3, #2048
 1476 0aa0 28D0     		beq	.L113
 1477 0aa2 B3F5006F 		cmp	r3, #2048
 1478 0aa6 05D8     		bhi	.L114
ARM GAS  /tmp/ccJqmpZo.s 			page 27


 1479 0aa8 B3F5806F 		cmp	r3, #1024
 1480 0aac 00F01884 		beq	.L115
 1481              		.loc 1 1550 0
 1482 0ab0 00F075BC 		b	.L82
 1483              	.L114:
 1484              		.loc 1 901 0
 1485 0ab4 B3F5805F 		cmp	r3, #4096
 1486 0ab8 1CD0     		beq	.L113
 1487 0aba B3F5005F 		cmp	r3, #8192
 1488 0abe 00F0E980 		beq	.L116
 1489              		.loc 1 1550 0
 1490 0ac2 00F06CBC 		b	.L82
 1491              	.L112:
 1492              		.loc 1 901 0
 1493 0ac6 B3F5803F 		cmp	r3, #65536
 1494 0aca 00F04A83 		beq	.L117
 1495 0ace B3F5803F 		cmp	r3, #65536
 1496 0ad2 05D8     		bhi	.L118
 1497 0ad4 B3F5004F 		cmp	r3, #32768
 1498 0ad8 00F03E84 		beq	.L119
 1499              		.loc 1 1550 0
 1500 0adc 00F05FBC 		b	.L82
 1501              	.L118:
 1502              		.loc 1 901 0
 1503 0ae0 B3F5802F 		cmp	r3, #262144
 1504 0ae4 00F0D680 		beq	.L116
 1505 0ae8 B3F5002F 		cmp	r3, #524288
 1506 0aec 00F0D280 		beq	.L116
 1507              		.loc 1 1550 0
 1508 0af0 00F055BC 		b	.L82
 1509              	.L113:
 1510              		.loc 1 908 0
 1511 0af4 019B     		ldr	r3, [sp, #4]
 1512 0af6 B3F5006F 		cmp	r3, #2048
 1513 0afa 0DD1     		bne	.L120
 1514              		.loc 1 910 0
 1515 0afc 2A4B     		ldr	r3, .L226
 1516 0afe D3F88830 		ldr	r3, [r3, #136]
 1517 0b02 03F44003 		and	r3, r3, #12582912
 1518 0b06 1E93     		str	r3, [sp, #120]
 1519              		.loc 1 912 0
 1520 0b08 1E9B     		ldr	r3, [sp, #120]
 1521 0b0a B3F5400F 		cmp	r3, #12582912
 1522 0b0e 10D1     		bne	.L122
 1523              		.loc 1 914 0
 1524 0b10 4BF68033 		movw	r3, #48000
 1525 0b14 1F93     		str	r3, [sp, #124]
 1526 0b16 0CE0     		b	.L122
 1527              	.L120:
 1528              		.loc 1 920 0
 1529 0b18 234B     		ldr	r3, .L226
 1530 0b1a D3F88830 		ldr	r3, [r3, #136]
 1531 0b1e 03F04073 		and	r3, r3, #50331648
 1532 0b22 1E93     		str	r3, [sp, #120]
 1533              		.loc 1 922 0
 1534 0b24 1E9B     		ldr	r3, [sp, #120]
 1535 0b26 B3F1407F 		cmp	r3, #50331648
ARM GAS  /tmp/ccJqmpZo.s 			page 28


 1536 0b2a 02D1     		bne	.L122
 1537              		.loc 1 924 0
 1538 0b2c 4BF68033 		movw	r3, #48000
 1539 0b30 1F93     		str	r3, [sp, #124]
 1540              	.L122:
 1541              		.loc 1 946 0
 1542 0b32 1F9B     		ldr	r3, [sp, #124]
 1543 0b34 002B     		cmp	r3, #0
 1544 0b36 40F0AC80 		bne	.L123
 1545              		.loc 1 949 0
 1546 0b3a 1E9B     		ldr	r3, [sp, #120]
 1547 0b3c B3F5000F 		cmp	r3, #8388608
 1548 0b40 03D0     		beq	.L124
 1549              		.loc 1 949 0 is_stmt 0 discriminator 1
 1550 0b42 1E9B     		ldr	r3, [sp, #120]
 1551 0b44 B3F1007F 		cmp	r3, #33554432
 1552 0b48 38D1     		bne	.L125
 1553              	.L124:
 1554              		.loc 1 951 0 is_stmt 1
 1555 0b4a 174B     		ldr	r3, .L226
 1556 0b4c DB68     		ldr	r3, [r3, #12]
 1557 0b4e 03F48033 		and	r3, r3, #65536
 1558 0b52 002B     		cmp	r3, #0
 1559 0b54 27D0     		beq	.L126
 1560              		.loc 1 954 0
 1561 0b56 144B     		ldr	r3, .L226
 1562 0b58 DB68     		ldr	r3, [r3, #12]
 1563 0b5a 03F4FE42 		and	r2, r3, #32512
 1564 0b5e 4FF4FE43 		mov	r3, #32512
 1565 0b62 1893     		str	r3, [sp, #96]
 1566              	.LBB108:
 1567              	.LBB109:
 1568              		.loc 2 586 0
 1569 0b64 189B     		ldr	r3, [sp, #96]
 1570              	@ 586 "../../../../../../ChibiOS/os/ext/CMSIS/include/core_cmInstr.h" 1
 1571 0b66 93FAA3F3 		rbit r3, r3
 1572              	@ 0 "" 2
 1573              		.thumb
 1574 0b6a 1793     		str	r3, [sp, #92]
 1575              		.loc 2 599 0
 1576 0b6c 179B     		ldr	r3, [sp, #92]
 1577              	.LBE109:
 1578              	.LBE108:
 1579              		.loc 1 954 0
 1580 0b6e B3FA83F3 		clz	r3, r3
 1581 0b72 22FA03F3 		lsr	r3, r2, r3
 1582 0b76 1B93     		str	r3, [sp, #108]
 1583              		.loc 1 958 0
 1584 0b78 1C9B     		ldr	r3, [sp, #112]
 1585 0b7a 002B     		cmp	r3, #0
 1586 0b7c 0AD1     		bne	.L128
 1587              		.loc 1 960 0
 1588 0b7e 0A4B     		ldr	r3, .L226
 1589 0b80 DB68     		ldr	r3, [r3, #12]
 1590 0b82 03F40033 		and	r3, r3, #131072
 1591 0b86 002B     		cmp	r3, #0
 1592 0b88 02D0     		beq	.L129
ARM GAS  /tmp/ccJqmpZo.s 			page 29


 1593              		.loc 1 962 0
 1594 0b8a 1123     		movs	r3, #17
 1595 0b8c 1C93     		str	r3, [sp, #112]
 1596 0b8e 01E0     		b	.L128
 1597              	.L129:
 1598              		.loc 1 966 0
 1599 0b90 0723     		movs	r3, #7
 1600 0b92 1C93     		str	r3, [sp, #112]
 1601              	.L128:
 1602              		.loc 1 969 0
 1603 0b94 1D9B     		ldr	r3, [sp, #116]
 1604 0b96 1B9A     		ldr	r2, [sp, #108]
 1605 0b98 02FB03F2 		mul	r2, r2, r3
 1606 0b9c 1C9B     		ldr	r3, [sp, #112]
 1607 0b9e B2FBF3F3 		udiv	r3, r2, r3
 1608 0ba2 1F93     		str	r3, [sp, #124]
 1609              		.loc 1 951 0
 1610 0ba4 75E0     		b	.L123
 1611              	.L126:
 1612              		.loc 1 951 0 is_stmt 0 discriminator 1
 1613 0ba6 74E0     		b	.L123
 1614              	.L227:
 1615              		.align	2
 1616              	.L226:
 1617 0ba8 00100240 		.word	1073876992
 1618 0bac 90D00300 		.word	250000
 1619 0bb0 40420F00 		.word	1000000
 1620 0bb4 0024F400 		.word	16000000
 1621 0bb8 00127A00 		.word	8000000
 1622              	.L125:
 1623              		.loc 1 972 0 is_stmt 1
 1624 0bbc 1E9B     		ldr	r3, [sp, #120]
 1625 0bbe 002B     		cmp	r3, #0
 1626 0bc0 2DD1     		bne	.L130
 1627              		.loc 1 974 0
 1628 0bc2 AB4B     		ldr	r3, .L228
 1629 0bc4 1B69     		ldr	r3, [r3, #16]
 1630 0bc6 03F48033 		and	r3, r3, #65536
 1631 0bca 002B     		cmp	r3, #0
 1632 0bcc 61D0     		beq	.L123
 1633              		.loc 1 977 0
 1634 0bce A84B     		ldr	r3, .L228
 1635 0bd0 1B69     		ldr	r3, [r3, #16]
 1636 0bd2 03F4FE42 		and	r2, r3, #32512
 1637 0bd6 4FF4FE43 		mov	r3, #32512
 1638 0bda 1693     		str	r3, [sp, #88]
 1639              	.LBB110:
 1640              	.LBB111:
 1641              		.loc 2 586 0
 1642 0bdc 169B     		ldr	r3, [sp, #88]
 1643              	@ 586 "../../../../../../ChibiOS/os/ext/CMSIS/include/core_cmInstr.h" 1
 1644 0bde 93FAA3F3 		rbit r3, r3
 1645              	@ 0 "" 2
 1646              		.thumb
 1647 0be2 1593     		str	r3, [sp, #84]
 1648              		.loc 2 599 0
 1649 0be4 159B     		ldr	r3, [sp, #84]
ARM GAS  /tmp/ccJqmpZo.s 			page 30


 1650              	.LBE111:
 1651              	.LBE110:
 1652              		.loc 1 977 0
 1653 0be6 B3FA83F3 		clz	r3, r3
 1654 0bea 22FA03F3 		lsr	r3, r2, r3
 1655 0bee 1B93     		str	r3, [sp, #108]
 1656              		.loc 1 981 0
 1657 0bf0 1C9B     		ldr	r3, [sp, #112]
 1658 0bf2 002B     		cmp	r3, #0
 1659 0bf4 0AD1     		bne	.L133
 1660              		.loc 1 983 0
 1661 0bf6 9E4B     		ldr	r3, .L228
 1662 0bf8 1B69     		ldr	r3, [r3, #16]
 1663 0bfa 03F40033 		and	r3, r3, #131072
 1664 0bfe 002B     		cmp	r3, #0
 1665 0c00 02D0     		beq	.L134
 1666              		.loc 1 985 0
 1667 0c02 1123     		movs	r3, #17
 1668 0c04 1C93     		str	r3, [sp, #112]
 1669 0c06 01E0     		b	.L133
 1670              	.L134:
 1671              		.loc 1 989 0
 1672 0c08 0723     		movs	r3, #7
 1673 0c0a 1C93     		str	r3, [sp, #112]
 1674              	.L133:
 1675              		.loc 1 992 0
 1676 0c0c 1D9B     		ldr	r3, [sp, #116]
 1677 0c0e 1B9A     		ldr	r2, [sp, #108]
 1678 0c10 02FB03F2 		mul	r2, r2, r3
 1679 0c14 1C9B     		ldr	r3, [sp, #112]
 1680 0c16 B2FBF3F3 		udiv	r3, r2, r3
 1681 0c1a 1F93     		str	r3, [sp, #124]
 1682              		.loc 1 1100 0
 1683 0c1c BFE3     		b	.L82
 1684              	.L130:
 1685              		.loc 1 1068 0
 1686 0c1e 1E9B     		ldr	r3, [sp, #120]
 1687 0c20 B3F5800F 		cmp	r3, #4194304
 1688 0c24 03D0     		beq	.L135
 1689              		.loc 1 1068 0 is_stmt 0 discriminator 1
 1690 0c26 1E9B     		ldr	r3, [sp, #120]
 1691 0c28 B3F1807F 		cmp	r3, #16777216
 1692 0c2c 2ED1     		bne	.L136
 1693              	.L135:
 1694              		.loc 1 1070 0 is_stmt 1
 1695 0c2e 904B     		ldr	r3, .L228
 1696 0c30 5B69     		ldr	r3, [r3, #20]
 1697 0c32 03F48033 		and	r3, r3, #65536
 1698 0c36 002B     		cmp	r3, #0
 1699 0c38 27D0     		beq	.L137
 1700              		.loc 1 1073 0
 1701 0c3a 8D4B     		ldr	r3, .L228
 1702 0c3c 5B69     		ldr	r3, [r3, #20]
 1703 0c3e 03F4FE42 		and	r2, r3, #32512
 1704 0c42 4FF4FE43 		mov	r3, #32512
 1705 0c46 1493     		str	r3, [sp, #80]
 1706              	.LBB112:
ARM GAS  /tmp/ccJqmpZo.s 			page 31


 1707              	.LBB113:
 1708              		.loc 2 586 0
 1709 0c48 149B     		ldr	r3, [sp, #80]
 1710              	@ 586 "../../../../../../ChibiOS/os/ext/CMSIS/include/core_cmInstr.h" 1
 1711 0c4a 93FAA3F3 		rbit r3, r3
 1712              	@ 0 "" 2
 1713              		.thumb
 1714 0c4e 1393     		str	r3, [sp, #76]
 1715              		.loc 2 599 0
 1716 0c50 139B     		ldr	r3, [sp, #76]
 1717              	.LBE113:
 1718              	.LBE112:
 1719              		.loc 1 1073 0
 1720 0c52 B3FA83F3 		clz	r3, r3
 1721 0c56 22FA03F3 		lsr	r3, r2, r3
 1722 0c5a 1B93     		str	r3, [sp, #108]
 1723              		.loc 1 1077 0
 1724 0c5c 1C9B     		ldr	r3, [sp, #112]
 1725 0c5e 002B     		cmp	r3, #0
 1726 0c60 0AD1     		bne	.L139
 1727              		.loc 1 1079 0
 1728 0c62 834B     		ldr	r3, .L228
 1729 0c64 5B69     		ldr	r3, [r3, #20]
 1730 0c66 03F40033 		and	r3, r3, #131072
 1731 0c6a 002B     		cmp	r3, #0
 1732 0c6c 02D0     		beq	.L140
 1733              		.loc 1 1081 0
 1734 0c6e 1123     		movs	r3, #17
 1735 0c70 1C93     		str	r3, [sp, #112]
 1736 0c72 01E0     		b	.L139
 1737              	.L140:
 1738              		.loc 1 1085 0
 1739 0c74 0723     		movs	r3, #7
 1740 0c76 1C93     		str	r3, [sp, #112]
 1741              	.L139:
 1742              		.loc 1 1088 0
 1743 0c78 1D9B     		ldr	r3, [sp, #116]
 1744 0c7a 1B9A     		ldr	r2, [sp, #108]
 1745 0c7c 02FB03F2 		mul	r2, r2, r3
 1746 0c80 1C9B     		ldr	r3, [sp, #112]
 1747 0c82 B2FBF3F3 		udiv	r3, r2, r3
 1748 0c86 1F93     		str	r3, [sp, #124]
 1749              		.loc 1 1070 0
 1750 0c88 03E0     		b	.L123
 1751              	.L137:
 1752              		.loc 1 1070 0 is_stmt 0 discriminator 1
 1753 0c8a 02E0     		b	.L123
 1754              	.L136:
 1755              		.loc 1 1097 0 is_stmt 1
 1756 0c8c 0023     		movs	r3, #0
 1757 0c8e 1F93     		str	r3, [sp, #124]
 1758              		.loc 1 1100 0
 1759 0c90 85E3     		b	.L82
 1760              	.L123:
 1761 0c92 84E3     		b	.L82
 1762              	.L116:
 1763              		.loc 1 1116 0
ARM GAS  /tmp/ccJqmpZo.s 			page 32


 1764 0c94 764B     		ldr	r3, .L228
 1765 0c96 D3F88830 		ldr	r3, [r3, #136]
 1766 0c9a 03F04063 		and	r3, r3, #201326592
 1767 0c9e 1E93     		str	r3, [sp, #120]
 1768              		.loc 1 1118 0
 1769 0ca0 1E9B     		ldr	r3, [sp, #120]
 1770 0ca2 B3F1406F 		cmp	r3, #201326592
 1771 0ca6 24D1     		bne	.L141
 1772              		.loc 1 1120 0
 1773 0ca8 714B     		ldr	r3, .L228
 1774 0caa 1B68     		ldr	r3, [r3]
 1775 0cac 03F00203 		and	r3, r3, #2
 1776 0cb0 002B     		cmp	r3, #0
 1777 0cb2 1BD0     		beq	.L142
 1778              		.loc 1 1122 0
 1779 0cb4 6E4B     		ldr	r3, .L228
 1780 0cb6 1B68     		ldr	r3, [r3]
 1781 0cb8 03F00803 		and	r3, r3, #8
 1782 0cbc 002B     		cmp	r3, #0
 1783 0cbe 09D0     		beq	.L143
 1784              		.loc 1 1122 0 is_stmt 0 discriminator 1
 1785 0cc0 6B4B     		ldr	r3, .L228
 1786 0cc2 1B68     		ldr	r3, [r3]
 1787 0cc4 03F0F003 		and	r3, r3, #240
 1788 0cc8 1B09     		lsrs	r3, r3, #4
 1789 0cca 043B     		subs	r3, r3, #4
 1790 0ccc 694A     		ldr	r2, .L228+4
 1791 0cce 02FA03F3 		lsl	r3, r2, r3
 1792 0cd2 09E0     		b	.L144
 1793              	.L143:
 1794              		.loc 1 1122 0 discriminator 2
 1795 0cd4 664B     		ldr	r3, .L228
 1796 0cd6 D3F89430 		ldr	r3, [r3, #148]
 1797 0cda 03F47063 		and	r3, r3, #3840
 1798 0cde 1B0A     		lsrs	r3, r3, #8
 1799 0ce0 043B     		subs	r3, r3, #4
 1800 0ce2 644A     		ldr	r2, .L228+4
 1801 0ce4 02FA03F3 		lsl	r3, r2, r3
 1802              	.L144:
 1803              		.loc 1 1122 0 discriminator 5
 1804 0ce8 1F93     		str	r3, [sp, #124]
 1805 0cea 81E0     		b	.L146
 1806              	.L142:
 1807              		.loc 1 1126 0 is_stmt 1
 1808 0cec 0023     		movs	r3, #0
 1809 0cee 1F93     		str	r3, [sp, #124]
 1810              		.loc 1 1170 0
 1811 0cf0 55E3     		b	.L82
 1812              	.L141:
 1813              		.loc 1 1129 0
 1814 0cf2 1E9B     		ldr	r3, [sp, #120]
 1815 0cf4 B3F1006F 		cmp	r3, #134217728
 1816 0cf8 39D1     		bne	.L147
 1817              		.loc 1 1131 0
 1818 0cfa 5D4B     		ldr	r3, .L228
 1819 0cfc 1B68     		ldr	r3, [r3]
 1820 0cfe 03F00073 		and	r3, r3, #33554432
ARM GAS  /tmp/ccJqmpZo.s 			page 33


 1821 0d02 002B     		cmp	r3, #0
 1822 0d04 30D0     		beq	.L148
 1823              		.loc 1 1131 0 is_stmt 0 discriminator 1
 1824 0d06 5A4B     		ldr	r3, .L228
 1825 0d08 DB68     		ldr	r3, [r3, #12]
 1826 0d0a 03F48013 		and	r3, r3, #1048576
 1827 0d0e 002B     		cmp	r3, #0
 1828 0d10 2AD0     		beq	.L148
 1829              		.loc 1 1134 0 is_stmt 1
 1830 0d12 574B     		ldr	r3, .L228
 1831 0d14 DB68     		ldr	r3, [r3, #12]
 1832 0d16 03F4FE42 		and	r2, r3, #32512
 1833 0d1a 4FF4FE43 		mov	r3, #32512
 1834 0d1e 1293     		str	r3, [sp, #72]
 1835              	.LBB114:
 1836              	.LBB115:
 1837              		.loc 2 586 0
 1838 0d20 129B     		ldr	r3, [sp, #72]
 1839              	@ 586 "../../../../../../ChibiOS/os/ext/CMSIS/include/core_cmInstr.h" 1
 1840 0d22 93FAA3F3 		rbit r3, r3
 1841              	@ 0 "" 2
 1842              		.thumb
 1843 0d26 1193     		str	r3, [sp, #68]
 1844              		.loc 2 599 0
 1845 0d28 119B     		ldr	r3, [sp, #68]
 1846              	.LBE115:
 1847              	.LBE114:
 1848              		.loc 1 1134 0
 1849 0d2a B3FA83F3 		clz	r3, r3
 1850 0d2e 22FA03F3 		lsr	r3, r2, r3
 1851 0d32 1B93     		str	r3, [sp, #108]
 1852              		.loc 1 1135 0
 1853 0d34 1D9B     		ldr	r3, [sp, #116]
 1854 0d36 1B9A     		ldr	r2, [sp, #108]
 1855 0d38 02FB03F2 		mul	r2, r2, r3
 1856 0d3c 4C4B     		ldr	r3, .L228
 1857 0d3e DB68     		ldr	r3, [r3, #12]
 1858 0d40 03F4C001 		and	r1, r3, #6291456
 1859 0d44 4FF4C003 		mov	r3, #6291456
 1860 0d48 1093     		str	r3, [sp, #64]
 1861              	.LBB116:
 1862              	.LBB117:
 1863              		.loc 2 586 0
 1864 0d4a 109B     		ldr	r3, [sp, #64]
 1865              	@ 586 "../../../../../../ChibiOS/os/ext/CMSIS/include/core_cmInstr.h" 1
 1866 0d4c 93FAA3F3 		rbit r3, r3
 1867              	@ 0 "" 2
 1868              		.thumb
 1869 0d50 0F93     		str	r3, [sp, #60]
 1870              		.loc 2 599 0
 1871 0d52 0F9B     		ldr	r3, [sp, #60]
 1872              	.LBE117:
 1873              	.LBE116:
 1874              		.loc 1 1135 0
 1875 0d54 B3FA83F3 		clz	r3, r3
 1876 0d58 21FA03F3 		lsr	r3, r1, r3
 1877 0d5c 0133     		adds	r3, r3, #1
ARM GAS  /tmp/ccJqmpZo.s 			page 34


 1878 0d5e 5B00     		lsls	r3, r3, #1
 1879 0d60 B2FBF3F3 		udiv	r3, r2, r3
 1880 0d64 1F93     		str	r3, [sp, #124]
 1881 0d66 43E0     		b	.L146
 1882              	.L148:
 1883              		.loc 1 1139 0
 1884 0d68 0023     		movs	r3, #0
 1885 0d6a 1F93     		str	r3, [sp, #124]
 1886 0d6c 40E0     		b	.L146
 1887              	.L147:
 1888              		.loc 1 1142 0
 1889 0d6e 1E9B     		ldr	r3, [sp, #120]
 1890 0d70 B3F1806F 		cmp	r3, #67108864
 1891 0d74 39D1     		bne	.L152
 1892              		.loc 1 1144 0
 1893 0d76 3E4B     		ldr	r3, .L228
 1894 0d78 1B68     		ldr	r3, [r3]
 1895 0d7a 03F00063 		and	r3, r3, #134217728
 1896 0d7e 002B     		cmp	r3, #0
 1897 0d80 30D0     		beq	.L153
 1898              		.loc 1 1144 0 is_stmt 0 discriminator 1
 1899 0d82 3B4B     		ldr	r3, .L228
 1900 0d84 1B69     		ldr	r3, [r3, #16]
 1901 0d86 03F48013 		and	r3, r3, #1048576
 1902 0d8a 002B     		cmp	r3, #0
 1903 0d8c 2AD0     		beq	.L153
 1904              		.loc 1 1147 0 is_stmt 1
 1905 0d8e 384B     		ldr	r3, .L228
 1906 0d90 1B69     		ldr	r3, [r3, #16]
 1907 0d92 03F4FE42 		and	r2, r3, #32512
 1908 0d96 4FF4FE43 		mov	r3, #32512
 1909 0d9a 0E93     		str	r3, [sp, #56]
 1910              	.LBB118:
 1911              	.LBB119:
 1912              		.loc 2 586 0
 1913 0d9c 0E9B     		ldr	r3, [sp, #56]
 1914              	@ 586 "../../../../../../ChibiOS/os/ext/CMSIS/include/core_cmInstr.h" 1
 1915 0d9e 93FAA3F3 		rbit r3, r3
 1916              	@ 0 "" 2
 1917              		.thumb
 1918 0da2 0D93     		str	r3, [sp, #52]
 1919              		.loc 2 599 0
 1920 0da4 0D9B     		ldr	r3, [sp, #52]
 1921              	.LBE119:
 1922              	.LBE118:
 1923              		.loc 1 1147 0
 1924 0da6 B3FA83F3 		clz	r3, r3
 1925 0daa 22FA03F3 		lsr	r3, r2, r3
 1926 0dae 1B93     		str	r3, [sp, #108]
 1927              		.loc 1 1148 0
 1928 0db0 1D9B     		ldr	r3, [sp, #116]
 1929 0db2 1B9A     		ldr	r2, [sp, #108]
 1930 0db4 02FB03F2 		mul	r2, r2, r3
 1931 0db8 2D4B     		ldr	r3, .L228
 1932 0dba 1B69     		ldr	r3, [r3, #16]
 1933 0dbc 03F4C001 		and	r1, r3, #6291456
 1934 0dc0 4FF4C003 		mov	r3, #6291456
ARM GAS  /tmp/ccJqmpZo.s 			page 35


 1935 0dc4 0C93     		str	r3, [sp, #48]
 1936              	.LBB120:
 1937              	.LBB121:
 1938              		.loc 2 586 0
 1939 0dc6 0C9B     		ldr	r3, [sp, #48]
 1940              	@ 586 "../../../../../../ChibiOS/os/ext/CMSIS/include/core_cmInstr.h" 1
 1941 0dc8 93FAA3F3 		rbit r3, r3
 1942              	@ 0 "" 2
 1943              		.thumb
 1944 0dcc 0B93     		str	r3, [sp, #44]
 1945              		.loc 2 599 0
 1946 0dce 0B9B     		ldr	r3, [sp, #44]
 1947              	.LBE121:
 1948              	.LBE120:
 1949              		.loc 1 1148 0
 1950 0dd0 B3FA83F3 		clz	r3, r3
 1951 0dd4 21FA03F3 		lsr	r3, r1, r3
 1952 0dd8 0133     		adds	r3, r3, #1
 1953 0dda 5B00     		lsls	r3, r3, #1
 1954 0ddc B2FBF3F3 		udiv	r3, r2, r3
 1955 0de0 1F93     		str	r3, [sp, #124]
 1956 0de2 05E0     		b	.L146
 1957              	.L153:
 1958              		.loc 1 1152 0
 1959 0de4 0023     		movs	r3, #0
 1960 0de6 1F93     		str	r3, [sp, #124]
 1961 0de8 02E0     		b	.L146
 1962              	.L152:
 1963              		.loc 1 1167 0
 1964 0dea 0023     		movs	r3, #0
 1965 0dec 1F93     		str	r3, [sp, #124]
 1966              		.loc 1 1170 0
 1967 0dee D6E2     		b	.L82
 1968              	.L146:
 1969 0df0 D5E2     		b	.L82
 1970              	.L103:
 1971              		.loc 1 1174 0
 1972 0df2 1F4B     		ldr	r3, .L228
 1973 0df4 D3F88830 		ldr	r3, [r3, #136]
 1974 0df8 03F00303 		and	r3, r3, #3
 1975 0dfc 1E93     		str	r3, [sp, #120]
 1976              		.loc 1 1176 0
 1977 0dfe 1E9B     		ldr	r3, [sp, #120]
 1978 0e00 002B     		cmp	r3, #0
 1979 0e02 03D1     		bne	.L157
 1980              		.loc 1 1178 0
 1981 0e04 FFF7FEFF 		bl	HAL_RCC_GetPCLK2Freq
 1982 0e08 1F90     		str	r0, [sp, #124]
 1983 0e0a 23E0     		b	.L158
 1984              	.L157:
 1985              		.loc 1 1180 0
 1986 0e0c 1E9B     		ldr	r3, [sp, #120]
 1987 0e0e 012B     		cmp	r3, #1
 1988 0e10 03D1     		bne	.L159
 1989              		.loc 1 1182 0
 1990 0e12 FFF7FEFF 		bl	HAL_RCC_GetSysClockFreq
 1991 0e16 1F90     		str	r0, [sp, #124]
ARM GAS  /tmp/ccJqmpZo.s 			page 36


 1992 0e18 1CE0     		b	.L158
 1993              	.L159:
 1994              		.loc 1 1184 0
 1995 0e1a 1E9B     		ldr	r3, [sp, #120]
 1996 0e1c 022B     		cmp	r3, #2
 1997 0e1e 08D1     		bne	.L160
 1998              		.loc 1 1184 0 is_stmt 0 discriminator 1
 1999 0e20 134B     		ldr	r3, .L228
 2000 0e22 1B68     		ldr	r3, [r3]
 2001 0e24 03F48063 		and	r3, r3, #1024
 2002 0e28 002B     		cmp	r3, #0
 2003 0e2a 02D0     		beq	.L160
 2004              		.loc 1 1186 0 is_stmt 1
 2005 0e2c 124B     		ldr	r3, .L228+8
 2006 0e2e 1F93     		str	r3, [sp, #124]
 2007 0e30 10E0     		b	.L158
 2008              	.L160:
 2009              		.loc 1 1188 0
 2010 0e32 1E9B     		ldr	r3, [sp, #120]
 2011 0e34 032B     		cmp	r3, #3
 2012 0e36 0AD1     		bne	.L161
 2013              		.loc 1 1188 0 is_stmt 0 discriminator 1
 2014 0e38 0D4B     		ldr	r3, .L228
 2015 0e3a D3F89030 		ldr	r3, [r3, #144]
 2016 0e3e 03F00203 		and	r3, r3, #2
 2017 0e42 002B     		cmp	r3, #0
 2018 0e44 03D0     		beq	.L161
 2019              		.loc 1 1190 0 is_stmt 1
 2020 0e46 4FF40043 		mov	r3, #32768
 2021 0e4a 1F93     		str	r3, [sp, #124]
 2022 0e4c 02E0     		b	.L158
 2023              	.L161:
 2024              		.loc 1 1195 0
 2025 0e4e 0023     		movs	r3, #0
 2026 0e50 1F93     		str	r3, [sp, #124]
 2027              		.loc 1 1197 0
 2028 0e52 A4E2     		b	.L82
 2029              	.L158:
 2030 0e54 A3E2     		b	.L82
 2031              	.L101:
 2032              		.loc 1 1201 0
 2033 0e56 064B     		ldr	r3, .L228
 2034 0e58 D3F88830 		ldr	r3, [r3, #136]
 2035 0e5c 03F00C03 		and	r3, r3, #12
 2036 0e60 1E93     		str	r3, [sp, #120]
 2037              		.loc 1 1203 0
 2038 0e62 1E9B     		ldr	r3, [sp, #120]
 2039 0e64 002B     		cmp	r3, #0
 2040 0e66 09D1     		bne	.L162
 2041              		.loc 1 1205 0
 2042 0e68 FFF7FEFF 		bl	HAL_RCC_GetPCLK1Freq
 2043 0e6c 1F90     		str	r0, [sp, #124]
 2044 0e6e 29E0     		b	.L163
 2045              	.L229:
 2046              		.align	2
 2047              	.L228:
 2048 0e70 00100240 		.word	1073876992
ARM GAS  /tmp/ccJqmpZo.s 			page 37


 2049 0e74 40420F00 		.word	1000000
 2050 0e78 0024F400 		.word	16000000
 2051              	.L162:
 2052              		.loc 1 1207 0
 2053 0e7c 1E9B     		ldr	r3, [sp, #120]
 2054 0e7e 042B     		cmp	r3, #4
 2055 0e80 03D1     		bne	.L164
 2056              		.loc 1 1209 0
 2057 0e82 FFF7FEFF 		bl	HAL_RCC_GetSysClockFreq
 2058 0e86 1F90     		str	r0, [sp, #124]
 2059 0e88 1CE0     		b	.L163
 2060              	.L164:
 2061              		.loc 1 1211 0
 2062 0e8a 1E9B     		ldr	r3, [sp, #120]
 2063 0e8c 082B     		cmp	r3, #8
 2064 0e8e 08D1     		bne	.L165
 2065              		.loc 1 1211 0 is_stmt 0 discriminator 1
 2066 0e90 954B     		ldr	r3, .L230
 2067 0e92 1B68     		ldr	r3, [r3]
 2068 0e94 03F48063 		and	r3, r3, #1024
 2069 0e98 002B     		cmp	r3, #0
 2070 0e9a 02D0     		beq	.L165
 2071              		.loc 1 1213 0 is_stmt 1
 2072 0e9c 934B     		ldr	r3, .L230+4
 2073 0e9e 1F93     		str	r3, [sp, #124]
 2074 0ea0 10E0     		b	.L163
 2075              	.L165:
 2076              		.loc 1 1215 0
 2077 0ea2 1E9B     		ldr	r3, [sp, #120]
 2078 0ea4 0C2B     		cmp	r3, #12
 2079 0ea6 0AD1     		bne	.L166
 2080              		.loc 1 1215 0 is_stmt 0 discriminator 1
 2081 0ea8 8F4B     		ldr	r3, .L230
 2082 0eaa D3F89030 		ldr	r3, [r3, #144]
 2083 0eae 03F00203 		and	r3, r3, #2
 2084 0eb2 002B     		cmp	r3, #0
 2085 0eb4 03D0     		beq	.L166
 2086              		.loc 1 1217 0 is_stmt 1
 2087 0eb6 4FF40043 		mov	r3, #32768
 2088 0eba 1F93     		str	r3, [sp, #124]
 2089 0ebc 02E0     		b	.L163
 2090              	.L166:
 2091              		.loc 1 1222 0
 2092 0ebe 0023     		movs	r3, #0
 2093 0ec0 1F93     		str	r3, [sp, #124]
 2094              		.loc 1 1224 0
 2095 0ec2 6CE2     		b	.L82
 2096              	.L163:
 2097 0ec4 6BE2     		b	.L82
 2098              	.L104:
 2099              		.loc 1 1230 0
 2100 0ec6 884B     		ldr	r3, .L230
 2101 0ec8 D3F88830 		ldr	r3, [r3, #136]
 2102 0ecc 03F03003 		and	r3, r3, #48
 2103 0ed0 1E93     		str	r3, [sp, #120]
 2104              		.loc 1 1232 0
 2105 0ed2 1E9B     		ldr	r3, [sp, #120]
ARM GAS  /tmp/ccJqmpZo.s 			page 38


 2106 0ed4 002B     		cmp	r3, #0
 2107 0ed6 03D1     		bne	.L167
 2108              		.loc 1 1234 0
 2109 0ed8 FFF7FEFF 		bl	HAL_RCC_GetPCLK1Freq
 2110 0edc 1F90     		str	r0, [sp, #124]
 2111 0ede 23E0     		b	.L168
 2112              	.L167:
 2113              		.loc 1 1236 0
 2114 0ee0 1E9B     		ldr	r3, [sp, #120]
 2115 0ee2 102B     		cmp	r3, #16
 2116 0ee4 03D1     		bne	.L169
 2117              		.loc 1 1238 0
 2118 0ee6 FFF7FEFF 		bl	HAL_RCC_GetSysClockFreq
 2119 0eea 1F90     		str	r0, [sp, #124]
 2120 0eec 1CE0     		b	.L168
 2121              	.L169:
 2122              		.loc 1 1240 0
 2123 0eee 1E9B     		ldr	r3, [sp, #120]
 2124 0ef0 202B     		cmp	r3, #32
 2125 0ef2 08D1     		bne	.L170
 2126              		.loc 1 1240 0 is_stmt 0 discriminator 1
 2127 0ef4 7C4B     		ldr	r3, .L230
 2128 0ef6 1B68     		ldr	r3, [r3]
 2129 0ef8 03F48063 		and	r3, r3, #1024
 2130 0efc 002B     		cmp	r3, #0
 2131 0efe 02D0     		beq	.L170
 2132              		.loc 1 1242 0 is_stmt 1
 2133 0f00 7A4B     		ldr	r3, .L230+4
 2134 0f02 1F93     		str	r3, [sp, #124]
 2135 0f04 10E0     		b	.L168
 2136              	.L170:
 2137              		.loc 1 1244 0
 2138 0f06 1E9B     		ldr	r3, [sp, #120]
 2139 0f08 302B     		cmp	r3, #48
 2140 0f0a 0AD1     		bne	.L171
 2141              		.loc 1 1244 0 is_stmt 0 discriminator 1
 2142 0f0c 764B     		ldr	r3, .L230
 2143 0f0e D3F89030 		ldr	r3, [r3, #144]
 2144 0f12 03F00203 		and	r3, r3, #2
 2145 0f16 002B     		cmp	r3, #0
 2146 0f18 03D0     		beq	.L171
 2147              		.loc 1 1246 0 is_stmt 1
 2148 0f1a 4FF40043 		mov	r3, #32768
 2149 0f1e 1F93     		str	r3, [sp, #124]
 2150 0f20 02E0     		b	.L168
 2151              	.L171:
 2152              		.loc 1 1251 0
 2153 0f22 0023     		movs	r3, #0
 2154 0f24 1F93     		str	r3, [sp, #124]
 2155              		.loc 1 1253 0
 2156 0f26 3AE2     		b	.L82
 2157              	.L168:
 2158 0f28 39E2     		b	.L82
 2159              	.L105:
 2160              		.loc 1 1261 0
 2161 0f2a 6F4B     		ldr	r3, .L230
 2162 0f2c D3F88830 		ldr	r3, [r3, #136]
ARM GAS  /tmp/ccJqmpZo.s 			page 39


 2163 0f30 03F0C003 		and	r3, r3, #192
 2164 0f34 1E93     		str	r3, [sp, #120]
 2165              		.loc 1 1263 0
 2166 0f36 1E9B     		ldr	r3, [sp, #120]
 2167 0f38 002B     		cmp	r3, #0
 2168 0f3a 03D1     		bne	.L172
 2169              		.loc 1 1265 0
 2170 0f3c FFF7FEFF 		bl	HAL_RCC_GetPCLK1Freq
 2171 0f40 1F90     		str	r0, [sp, #124]
 2172 0f42 23E0     		b	.L173
 2173              	.L172:
 2174              		.loc 1 1267 0
 2175 0f44 1E9B     		ldr	r3, [sp, #120]
 2176 0f46 402B     		cmp	r3, #64
 2177 0f48 03D1     		bne	.L174
 2178              		.loc 1 1269 0
 2179 0f4a FFF7FEFF 		bl	HAL_RCC_GetSysClockFreq
 2180 0f4e 1F90     		str	r0, [sp, #124]
 2181 0f50 1CE0     		b	.L173
 2182              	.L174:
 2183              		.loc 1 1271 0
 2184 0f52 1E9B     		ldr	r3, [sp, #120]
 2185 0f54 802B     		cmp	r3, #128
 2186 0f56 08D1     		bne	.L175
 2187              		.loc 1 1271 0 is_stmt 0 discriminator 1
 2188 0f58 634B     		ldr	r3, .L230
 2189 0f5a 1B68     		ldr	r3, [r3]
 2190 0f5c 03F48063 		and	r3, r3, #1024
 2191 0f60 002B     		cmp	r3, #0
 2192 0f62 02D0     		beq	.L175
 2193              		.loc 1 1273 0 is_stmt 1
 2194 0f64 614B     		ldr	r3, .L230+4
 2195 0f66 1F93     		str	r3, [sp, #124]
 2196 0f68 10E0     		b	.L173
 2197              	.L175:
 2198              		.loc 1 1275 0
 2199 0f6a 1E9B     		ldr	r3, [sp, #120]
 2200 0f6c C02B     		cmp	r3, #192
 2201 0f6e 0AD1     		bne	.L176
 2202              		.loc 1 1275 0 is_stmt 0 discriminator 1
 2203 0f70 5D4B     		ldr	r3, .L230
 2204 0f72 D3F89030 		ldr	r3, [r3, #144]
 2205 0f76 03F00203 		and	r3, r3, #2
 2206 0f7a 002B     		cmp	r3, #0
 2207 0f7c 03D0     		beq	.L176
 2208              		.loc 1 1277 0 is_stmt 1
 2209 0f7e 4FF40043 		mov	r3, #32768
 2210 0f82 1F93     		str	r3, [sp, #124]
 2211 0f84 02E0     		b	.L173
 2212              	.L176:
 2213              		.loc 1 1282 0
 2214 0f86 0023     		movs	r3, #0
 2215 0f88 1F93     		str	r3, [sp, #124]
 2216              		.loc 1 1284 0
 2217 0f8a 08E2     		b	.L82
 2218              	.L173:
 2219 0f8c 07E2     		b	.L82
ARM GAS  /tmp/ccJqmpZo.s 			page 40


 2220              	.L99:
 2221              		.loc 1 1292 0
 2222 0f8e 564B     		ldr	r3, .L230
 2223 0f90 D3F88830 		ldr	r3, [r3, #136]
 2224 0f94 03F44073 		and	r3, r3, #768
 2225 0f98 1E93     		str	r3, [sp, #120]
 2226              		.loc 1 1294 0
 2227 0f9a 1E9B     		ldr	r3, [sp, #120]
 2228 0f9c 002B     		cmp	r3, #0
 2229 0f9e 03D1     		bne	.L177
 2230              		.loc 1 1296 0
 2231 0fa0 FFF7FEFF 		bl	HAL_RCC_GetPCLK1Freq
 2232 0fa4 1F90     		str	r0, [sp, #124]
 2233 0fa6 26E0     		b	.L178
 2234              	.L177:
 2235              		.loc 1 1298 0
 2236 0fa8 1E9B     		ldr	r3, [sp, #120]
 2237 0faa B3F5807F 		cmp	r3, #256
 2238 0fae 03D1     		bne	.L179
 2239              		.loc 1 1300 0
 2240 0fb0 FFF7FEFF 		bl	HAL_RCC_GetSysClockFreq
 2241 0fb4 1F90     		str	r0, [sp, #124]
 2242 0fb6 1EE0     		b	.L178
 2243              	.L179:
 2244              		.loc 1 1302 0
 2245 0fb8 1E9B     		ldr	r3, [sp, #120]
 2246 0fba B3F5007F 		cmp	r3, #512
 2247 0fbe 08D1     		bne	.L180
 2248              		.loc 1 1302 0 is_stmt 0 discriminator 1
 2249 0fc0 494B     		ldr	r3, .L230
 2250 0fc2 1B68     		ldr	r3, [r3]
 2251 0fc4 03F48063 		and	r3, r3, #1024
 2252 0fc8 002B     		cmp	r3, #0
 2253 0fca 02D0     		beq	.L180
 2254              		.loc 1 1304 0 is_stmt 1
 2255 0fcc 474B     		ldr	r3, .L230+4
 2256 0fce 1F93     		str	r3, [sp, #124]
 2257 0fd0 11E0     		b	.L178
 2258              	.L180:
 2259              		.loc 1 1306 0
 2260 0fd2 1E9B     		ldr	r3, [sp, #120]
 2261 0fd4 B3F5407F 		cmp	r3, #768
 2262 0fd8 0AD1     		bne	.L181
 2263              		.loc 1 1306 0 is_stmt 0 discriminator 1
 2264 0fda 434B     		ldr	r3, .L230
 2265 0fdc D3F89030 		ldr	r3, [r3, #144]
 2266 0fe0 03F00203 		and	r3, r3, #2
 2267 0fe4 002B     		cmp	r3, #0
 2268 0fe6 03D0     		beq	.L181
 2269              		.loc 1 1308 0 is_stmt 1
 2270 0fe8 4FF40043 		mov	r3, #32768
 2271 0fec 1F93     		str	r3, [sp, #124]
 2272 0fee 02E0     		b	.L178
 2273              	.L181:
 2274              		.loc 1 1313 0
 2275 0ff0 0023     		movs	r3, #0
 2276 0ff2 1F93     		str	r3, [sp, #124]
ARM GAS  /tmp/ccJqmpZo.s 			page 41


 2277              		.loc 1 1315 0
 2278 0ff4 D3E1     		b	.L82
 2279              	.L178:
 2280 0ff6 D2E1     		b	.L82
 2281              	.L108:
 2282              		.loc 1 1321 0
 2283 0ff8 3B4B     		ldr	r3, .L230
 2284 0ffa D3F88830 		ldr	r3, [r3, #136]
 2285 0ffe 03F44063 		and	r3, r3, #3072
 2286 1002 1E93     		str	r3, [sp, #120]
 2287              		.loc 1 1323 0
 2288 1004 1E9B     		ldr	r3, [sp, #120]
 2289 1006 002B     		cmp	r3, #0
 2290 1008 03D1     		bne	.L182
 2291              		.loc 1 1325 0
 2292 100a FFF7FEFF 		bl	HAL_RCC_GetPCLK1Freq
 2293 100e 1F90     		str	r0, [sp, #124]
 2294 1010 26E0     		b	.L183
 2295              	.L182:
 2296              		.loc 1 1327 0
 2297 1012 1E9B     		ldr	r3, [sp, #120]
 2298 1014 B3F5806F 		cmp	r3, #1024
 2299 1018 03D1     		bne	.L184
 2300              		.loc 1 1329 0
 2301 101a FFF7FEFF 		bl	HAL_RCC_GetSysClockFreq
 2302 101e 1F90     		str	r0, [sp, #124]
 2303 1020 1EE0     		b	.L183
 2304              	.L184:
 2305              		.loc 1 1331 0
 2306 1022 1E9B     		ldr	r3, [sp, #120]
 2307 1024 B3F5006F 		cmp	r3, #2048
 2308 1028 08D1     		bne	.L185
 2309              		.loc 1 1331 0 is_stmt 0 discriminator 1
 2310 102a 2F4B     		ldr	r3, .L230
 2311 102c 1B68     		ldr	r3, [r3]
 2312 102e 03F48063 		and	r3, r3, #1024
 2313 1032 002B     		cmp	r3, #0
 2314 1034 02D0     		beq	.L185
 2315              		.loc 1 1333 0 is_stmt 1
 2316 1036 2D4B     		ldr	r3, .L230+4
 2317 1038 1F93     		str	r3, [sp, #124]
 2318 103a 11E0     		b	.L183
 2319              	.L185:
 2320              		.loc 1 1335 0
 2321 103c 1E9B     		ldr	r3, [sp, #120]
 2322 103e B3F5406F 		cmp	r3, #3072
 2323 1042 0AD1     		bne	.L186
 2324              		.loc 1 1335 0 is_stmt 0 discriminator 1
 2325 1044 284B     		ldr	r3, .L230
 2326 1046 D3F89030 		ldr	r3, [r3, #144]
 2327 104a 03F00203 		and	r3, r3, #2
 2328 104e 002B     		cmp	r3, #0
 2329 1050 03D0     		beq	.L186
 2330              		.loc 1 1337 0 is_stmt 1
 2331 1052 4FF40043 		mov	r3, #32768
 2332 1056 1F93     		str	r3, [sp, #124]
 2333 1058 02E0     		b	.L183
ARM GAS  /tmp/ccJqmpZo.s 			page 42


 2334              	.L186:
 2335              		.loc 1 1342 0
 2336 105a 0023     		movs	r3, #0
 2337 105c 1F93     		str	r3, [sp, #124]
 2338              		.loc 1 1344 0
 2339 105e 9EE1     		b	.L82
 2340              	.L183:
 2341 1060 9DE1     		b	.L82
 2342              	.L111:
 2343              		.loc 1 1348 0
 2344 1062 214B     		ldr	r3, .L230
 2345 1064 D3F88830 		ldr	r3, [r3, #136]
 2346 1068 03F04053 		and	r3, r3, #805306368
 2347 106c 1E93     		str	r3, [sp, #120]
 2348              		.loc 1 1350 0
 2349 106e 1E9B     		ldr	r3, [sp, #120]
 2350 1070 B3F1405F 		cmp	r3, #805306368
 2351 1074 03D1     		bne	.L187
 2352              		.loc 1 1352 0
 2353 1076 FFF7FEFF 		bl	HAL_RCC_GetSysClockFreq
 2354 107a 1F90     		str	r0, [sp, #124]
 2355 107c 70E0     		b	.L188
 2356              	.L187:
 2357              		.loc 1 1354 0
 2358 107e 1E9B     		ldr	r3, [sp, #120]
 2359 1080 B3F1805F 		cmp	r3, #268435456
 2360 1084 34D1     		bne	.L189
 2361              		.loc 1 1356 0
 2362 1086 184B     		ldr	r3, .L230
 2363 1088 1B69     		ldr	r3, [r3, #16]
 2364 108a 03F08073 		and	r3, r3, #16777216
 2365 108e 002B     		cmp	r3, #0
 2366 1090 66D0     		beq	.L188
 2367              		.loc 1 1359 0
 2368 1092 154B     		ldr	r3, .L230
 2369 1094 1B69     		ldr	r3, [r3, #16]
 2370 1096 03F4FE42 		and	r2, r3, #32512
 2371 109a 4FF4FE43 		mov	r3, #32512
 2372 109e 0A93     		str	r3, [sp, #40]
 2373              	.LBB122:
 2374              	.LBB123:
 2375              		.loc 2 586 0
 2376 10a0 0A9B     		ldr	r3, [sp, #40]
 2377              	@ 586 "../../../../../../ChibiOS/os/ext/CMSIS/include/core_cmInstr.h" 1
 2378 10a2 93FAA3F3 		rbit r3, r3
 2379              	@ 0 "" 2
 2380              		.thumb
 2381 10a6 0993     		str	r3, [sp, #36]
 2382              		.loc 2 599 0
 2383 10a8 099B     		ldr	r3, [sp, #36]
 2384              	.LBE123:
 2385              	.LBE122:
 2386              		.loc 1 1359 0
 2387 10aa B3FA83F3 		clz	r3, r3
 2388 10ae 22FA03F3 		lsr	r3, r2, r3
 2389 10b2 1B93     		str	r3, [sp, #108]
 2390              		.loc 1 1360 0
ARM GAS  /tmp/ccJqmpZo.s 			page 43


 2391 10b4 1D9B     		ldr	r3, [sp, #116]
 2392 10b6 1B9A     		ldr	r2, [sp, #108]
 2393 10b8 02FB03F2 		mul	r2, r2, r3
 2394 10bc 0A4B     		ldr	r3, .L230
 2395 10be 1B69     		ldr	r3, [r3, #16]
 2396 10c0 03F0C061 		and	r1, r3, #100663296
 2397 10c4 4FF0C063 		mov	r3, #100663296
 2398 10c8 0893     		str	r3, [sp, #32]
 2399              	.LBB124:
 2400              	.LBB125:
 2401              		.loc 2 586 0
 2402 10ca 089B     		ldr	r3, [sp, #32]
 2403              	@ 586 "../../../../../../ChibiOS/os/ext/CMSIS/include/core_cmInstr.h" 1
 2404 10cc 93FAA3F3 		rbit r3, r3
 2405              	@ 0 "" 2
 2406              		.thumb
 2407 10d0 0793     		str	r3, [sp, #28]
 2408              		.loc 2 599 0
 2409 10d2 079B     		ldr	r3, [sp, #28]
 2410              	.LBE125:
 2411              	.LBE124:
 2412              		.loc 1 1360 0
 2413 10d4 B3FA83F3 		clz	r3, r3
 2414 10d8 21FA03F3 		lsr	r3, r1, r3
 2415 10dc 0133     		adds	r3, r3, #1
 2416 10de 5B00     		lsls	r3, r3, #1
 2417 10e0 B2FBF3F3 		udiv	r3, r2, r3
 2418 10e4 1F93     		str	r3, [sp, #124]
 2419              		.loc 1 1379 0
 2420 10e6 5AE1     		b	.L82
 2421              	.L231:
 2422              		.align	2
 2423              	.L230:
 2424 10e8 00100240 		.word	1073876992
 2425 10ec 0024F400 		.word	16000000
 2426              	.L189:
 2427              		.loc 1 1364 0
 2428 10f0 1E9B     		ldr	r3, [sp, #120]
 2429 10f2 B3F1005F 		cmp	r3, #536870912
 2430 10f6 30D1     		bne	.L193
 2431              		.loc 1 1366 0
 2432 10f8 A64B     		ldr	r3, .L232
 2433 10fa 5B69     		ldr	r3, [r3, #20]
 2434 10fc 03F08073 		and	r3, r3, #16777216
 2435 1100 002B     		cmp	r3, #0
 2436 1102 2DD0     		beq	.L188
 2437              		.loc 1 1369 0
 2438 1104 A34B     		ldr	r3, .L232
 2439 1106 5B69     		ldr	r3, [r3, #20]
 2440 1108 03F4FE42 		and	r2, r3, #32512
 2441 110c 4FF4FE43 		mov	r3, #32512
 2442 1110 0693     		str	r3, [sp, #24]
 2443              	.LBB126:
 2444              	.LBB127:
 2445              		.loc 2 586 0
 2446 1112 069B     		ldr	r3, [sp, #24]
 2447              	@ 586 "../../../../../../ChibiOS/os/ext/CMSIS/include/core_cmInstr.h" 1
ARM GAS  /tmp/ccJqmpZo.s 			page 44


 2448 1114 93FAA3F3 		rbit r3, r3
 2449              	@ 0 "" 2
 2450              		.thumb
 2451 1118 0593     		str	r3, [sp, #20]
 2452              		.loc 2 599 0
 2453 111a 059B     		ldr	r3, [sp, #20]
 2454              	.LBE127:
 2455              	.LBE126:
 2456              		.loc 1 1369 0
 2457 111c B3FA83F3 		clz	r3, r3
 2458 1120 22FA03F3 		lsr	r3, r2, r3
 2459 1124 1B93     		str	r3, [sp, #108]
 2460              		.loc 1 1370 0
 2461 1126 1D9B     		ldr	r3, [sp, #116]
 2462 1128 1B9A     		ldr	r2, [sp, #108]
 2463 112a 02FB03F2 		mul	r2, r2, r3
 2464 112e 994B     		ldr	r3, .L232
 2465 1130 5B69     		ldr	r3, [r3, #20]
 2466 1132 03F0C061 		and	r1, r3, #100663296
 2467 1136 4FF0C063 		mov	r3, #100663296
 2468 113a 0493     		str	r3, [sp, #16]
 2469              	.LBB128:
 2470              	.LBB129:
 2471              		.loc 2 586 0
 2472 113c 049B     		ldr	r3, [sp, #16]
 2473              	@ 586 "../../../../../../ChibiOS/os/ext/CMSIS/include/core_cmInstr.h" 1
 2474 113e 93FAA3F3 		rbit r3, r3
 2475              	@ 0 "" 2
 2476              		.thumb
 2477 1142 0393     		str	r3, [sp, #12]
 2478              		.loc 2 599 0
 2479 1144 039B     		ldr	r3, [sp, #12]
 2480              	.LBE129:
 2481              	.LBE128:
 2482              		.loc 1 1370 0
 2483 1146 B3FA83F3 		clz	r3, r3
 2484 114a 21FA03F3 		lsr	r3, r1, r3
 2485 114e 0133     		adds	r3, r3, #1
 2486 1150 5B00     		lsls	r3, r3, #1
 2487 1152 B2FBF3F3 		udiv	r3, r2, r3
 2488 1156 1F93     		str	r3, [sp, #124]
 2489              		.loc 1 1379 0
 2490 1158 21E1     		b	.L82
 2491              	.L193:
 2492              		.loc 1 1377 0
 2493 115a 0023     		movs	r3, #0
 2494 115c 1F93     		str	r3, [sp, #124]
 2495              		.loc 1 1379 0
 2496 115e 1EE1     		b	.L82
 2497              	.L188:
 2498 1160 1DE1     		b	.L82
 2499              	.L117:
 2500              		.loc 1 1385 0
 2501 1162 8C4B     		ldr	r3, .L232
 2502 1164 D3F88830 		ldr	r3, [r3, #136]
 2503 1168 03F00043 		and	r3, r3, #-2147483648
 2504 116c 1E93     		str	r3, [sp, #120]
ARM GAS  /tmp/ccJqmpZo.s 			page 45


 2505              		.loc 1 1387 0
 2506 116e 1E9B     		ldr	r3, [sp, #120]
 2507 1170 002B     		cmp	r3, #0
 2508 1172 03D1     		bne	.L197
 2509              		.loc 1 1389 0
 2510 1174 FFF7FEFF 		bl	HAL_RCC_GetPCLK1Freq
 2511 1178 1F90     		str	r0, [sp, #124]
 2512              		.loc 1 1395 0
 2513 117a 10E1     		b	.L82
 2514              	.L197:
 2515              		.loc 1 1393 0
 2516 117c FFF7FEFF 		bl	HAL_RCC_GetSysClockFreq
 2517 1180 1F90     		str	r0, [sp, #124]
 2518              		.loc 1 1395 0
 2519 1182 0CE1     		b	.L82
 2520              	.L106:
 2521              		.loc 1 1401 0
 2522 1184 834B     		ldr	r3, .L232
 2523 1186 D3F88830 		ldr	r3, [r3, #136]
 2524 118a 03F44053 		and	r3, r3, #12288
 2525 118e 1E93     		str	r3, [sp, #120]
 2526              		.loc 1 1403 0
 2527 1190 1E9B     		ldr	r3, [sp, #120]
 2528 1192 002B     		cmp	r3, #0
 2529 1194 03D1     		bne	.L199
 2530              		.loc 1 1405 0
 2531 1196 FFF7FEFF 		bl	HAL_RCC_GetPCLK1Freq
 2532 119a 1F90     		str	r0, [sp, #124]
 2533 119c 17E0     		b	.L200
 2534              	.L199:
 2535              		.loc 1 1407 0
 2536 119e 1E9B     		ldr	r3, [sp, #120]
 2537 11a0 B3F5805F 		cmp	r3, #4096
 2538 11a4 03D1     		bne	.L201
 2539              		.loc 1 1409 0
 2540 11a6 FFF7FEFF 		bl	HAL_RCC_GetSysClockFreq
 2541 11aa 1F90     		str	r0, [sp, #124]
 2542 11ac 0FE0     		b	.L200
 2543              	.L201:
 2544              		.loc 1 1411 0
 2545 11ae 1E9B     		ldr	r3, [sp, #120]
 2546 11b0 B3F5005F 		cmp	r3, #8192
 2547 11b4 08D1     		bne	.L202
 2548              		.loc 1 1411 0 is_stmt 0 discriminator 1
 2549 11b6 774B     		ldr	r3, .L232
 2550 11b8 1B68     		ldr	r3, [r3]
 2551 11ba 03F48063 		and	r3, r3, #1024
 2552 11be 002B     		cmp	r3, #0
 2553 11c0 02D0     		beq	.L202
 2554              		.loc 1 1413 0 is_stmt 1
 2555 11c2 754B     		ldr	r3, .L232+4
 2556 11c4 1F93     		str	r3, [sp, #124]
 2557 11c6 02E0     		b	.L200
 2558              	.L202:
 2559              		.loc 1 1418 0
 2560 11c8 0023     		movs	r3, #0
 2561 11ca 1F93     		str	r3, [sp, #124]
ARM GAS  /tmp/ccJqmpZo.s 			page 46


 2562              		.loc 1 1420 0
 2563 11cc E7E0     		b	.L82
 2564              	.L200:
 2565 11ce E6E0     		b	.L82
 2566              	.L109:
 2567              		.loc 1 1426 0
 2568 11d0 704B     		ldr	r3, .L232
 2569 11d2 D3F88830 		ldr	r3, [r3, #136]
 2570 11d6 03F44043 		and	r3, r3, #49152
 2571 11da 1E93     		str	r3, [sp, #120]
 2572              		.loc 1 1428 0
 2573 11dc 1E9B     		ldr	r3, [sp, #120]
 2574 11de 002B     		cmp	r3, #0
 2575 11e0 03D1     		bne	.L203
 2576              		.loc 1 1430 0
 2577 11e2 FFF7FEFF 		bl	HAL_RCC_GetPCLK1Freq
 2578 11e6 1F90     		str	r0, [sp, #124]
 2579 11e8 17E0     		b	.L204
 2580              	.L203:
 2581              		.loc 1 1432 0
 2582 11ea 1E9B     		ldr	r3, [sp, #120]
 2583 11ec B3F5804F 		cmp	r3, #16384
 2584 11f0 03D1     		bne	.L205
 2585              		.loc 1 1434 0
 2586 11f2 FFF7FEFF 		bl	HAL_RCC_GetSysClockFreq
 2587 11f6 1F90     		str	r0, [sp, #124]
 2588 11f8 0FE0     		b	.L204
 2589              	.L205:
 2590              		.loc 1 1436 0
 2591 11fa 1E9B     		ldr	r3, [sp, #120]
 2592 11fc B3F5004F 		cmp	r3, #32768
 2593 1200 08D1     		bne	.L206
 2594              		.loc 1 1436 0 is_stmt 0 discriminator 1
 2595 1202 644B     		ldr	r3, .L232
 2596 1204 1B68     		ldr	r3, [r3]
 2597 1206 03F48063 		and	r3, r3, #1024
 2598 120a 002B     		cmp	r3, #0
 2599 120c 02D0     		beq	.L206
 2600              		.loc 1 1438 0 is_stmt 1
 2601 120e 624B     		ldr	r3, .L232+4
 2602 1210 1F93     		str	r3, [sp, #124]
 2603 1212 02E0     		b	.L204
 2604              	.L206:
 2605              		.loc 1 1443 0
 2606 1214 0023     		movs	r3, #0
 2607 1216 1F93     		str	r3, [sp, #124]
 2608              		.loc 1 1445 0
 2609 1218 C1E0     		b	.L82
 2610              	.L204:
 2611 121a C0E0     		b	.L82
 2612              	.L110:
 2613              		.loc 1 1451 0
 2614 121c 5D4B     		ldr	r3, .L232
 2615 121e D3F88830 		ldr	r3, [r3, #136]
 2616 1222 03F44033 		and	r3, r3, #196608
 2617 1226 1E93     		str	r3, [sp, #120]
 2618              		.loc 1 1453 0
ARM GAS  /tmp/ccJqmpZo.s 			page 47


 2619 1228 1E9B     		ldr	r3, [sp, #120]
 2620 122a 002B     		cmp	r3, #0
 2621 122c 03D1     		bne	.L207
 2622              		.loc 1 1455 0
 2623 122e FFF7FEFF 		bl	HAL_RCC_GetPCLK1Freq
 2624 1232 1F90     		str	r0, [sp, #124]
 2625 1234 17E0     		b	.L208
 2626              	.L207:
 2627              		.loc 1 1457 0
 2628 1236 1E9B     		ldr	r3, [sp, #120]
 2629 1238 B3F5803F 		cmp	r3, #65536
 2630 123c 03D1     		bne	.L209
 2631              		.loc 1 1459 0
 2632 123e FFF7FEFF 		bl	HAL_RCC_GetSysClockFreq
 2633 1242 1F90     		str	r0, [sp, #124]
 2634 1244 0FE0     		b	.L208
 2635              	.L209:
 2636              		.loc 1 1461 0
 2637 1246 1E9B     		ldr	r3, [sp, #120]
 2638 1248 B3F5003F 		cmp	r3, #131072
 2639 124c 08D1     		bne	.L210
 2640              		.loc 1 1461 0 is_stmt 0 discriminator 1
 2641 124e 514B     		ldr	r3, .L232
 2642 1250 1B68     		ldr	r3, [r3]
 2643 1252 03F48063 		and	r3, r3, #1024
 2644 1256 002B     		cmp	r3, #0
 2645 1258 02D0     		beq	.L210
 2646              		.loc 1 1463 0 is_stmt 1
 2647 125a 4F4B     		ldr	r3, .L232+4
 2648 125c 1F93     		str	r3, [sp, #124]
 2649 125e 02E0     		b	.L208
 2650              	.L210:
 2651              		.loc 1 1468 0
 2652 1260 0023     		movs	r3, #0
 2653 1262 1F93     		str	r3, [sp, #124]
 2654              		.loc 1 1470 0
 2655 1264 9BE0     		b	.L82
 2656              	.L208:
 2657 1266 9AE0     		b	.L82
 2658              	.L97:
 2659              		.loc 1 1474 0
 2660 1268 4A4B     		ldr	r3, .L232
 2661 126a D3F88830 		ldr	r3, [r3, #136]
 2662 126e 03F44023 		and	r3, r3, #786432
 2663 1272 1E93     		str	r3, [sp, #120]
 2664              		.loc 1 1476 0
 2665 1274 1E9B     		ldr	r3, [sp, #120]
 2666 1276 002B     		cmp	r3, #0
 2667 1278 03D1     		bne	.L211
 2668              		.loc 1 1478 0
 2669 127a FFF7FEFF 		bl	HAL_RCC_GetPCLK1Freq
 2670 127e 1F90     		str	r0, [sp, #124]
 2671 1280 2DE0     		b	.L212
 2672              	.L211:
 2673              		.loc 1 1480 0
 2674 1282 1E9B     		ldr	r3, [sp, #120]
 2675 1284 B3F5802F 		cmp	r3, #262144
ARM GAS  /tmp/ccJqmpZo.s 			page 48


 2676 1288 0AD1     		bne	.L213
 2677              		.loc 1 1480 0 is_stmt 0 discriminator 1
 2678 128a 424B     		ldr	r3, .L232
 2679 128c D3F89430 		ldr	r3, [r3, #148]
 2680 1290 03F00203 		and	r3, r3, #2
 2681 1294 002B     		cmp	r3, #0
 2682 1296 03D0     		beq	.L213
 2683              		.loc 1 1482 0 is_stmt 1
 2684 1298 4FF4FA43 		mov	r3, #32000
 2685 129c 1F93     		str	r3, [sp, #124]
 2686 129e 1EE0     		b	.L212
 2687              	.L213:
 2688              		.loc 1 1484 0
 2689 12a0 1E9B     		ldr	r3, [sp, #120]
 2690 12a2 B3F5002F 		cmp	r3, #524288
 2691 12a6 08D1     		bne	.L214
 2692              		.loc 1 1484 0 is_stmt 0 discriminator 1
 2693 12a8 3A4B     		ldr	r3, .L232
 2694 12aa 1B68     		ldr	r3, [r3]
 2695 12ac 03F48063 		and	r3, r3, #1024
 2696 12b0 002B     		cmp	r3, #0
 2697 12b2 02D0     		beq	.L214
 2698              		.loc 1 1486 0 is_stmt 1
 2699 12b4 384B     		ldr	r3, .L232+4
 2700 12b6 1F93     		str	r3, [sp, #124]
 2701 12b8 11E0     		b	.L212
 2702              	.L214:
 2703              		.loc 1 1488 0
 2704 12ba 1E9B     		ldr	r3, [sp, #120]
 2705 12bc B3F5402F 		cmp	r3, #786432
 2706 12c0 0AD1     		bne	.L215
 2707              		.loc 1 1488 0 is_stmt 0 discriminator 1
 2708 12c2 344B     		ldr	r3, .L232
 2709 12c4 D3F89030 		ldr	r3, [r3, #144]
 2710 12c8 03F00203 		and	r3, r3, #2
 2711 12cc 002B     		cmp	r3, #0
 2712 12ce 03D0     		beq	.L215
 2713              		.loc 1 1490 0 is_stmt 1
 2714 12d0 4FF40043 		mov	r3, #32768
 2715 12d4 1F93     		str	r3, [sp, #124]
 2716 12d6 02E0     		b	.L212
 2717              	.L215:
 2718              		.loc 1 1495 0
 2719 12d8 0023     		movs	r3, #0
 2720 12da 1F93     		str	r3, [sp, #124]
 2721              		.loc 1 1497 0
 2722 12dc 5FE0     		b	.L82
 2723              	.L212:
 2724 12de 5EE0     		b	.L82
 2725              	.L115:
 2726              		.loc 1 1501 0
 2727 12e0 2C4B     		ldr	r3, .L232
 2728 12e2 D3F88830 		ldr	r3, [r3, #136]
 2729 12e6 03F44013 		and	r3, r3, #3145728
 2730 12ea 1E93     		str	r3, [sp, #120]
 2731              		.loc 1 1503 0
 2732 12ec 1E9B     		ldr	r3, [sp, #120]
ARM GAS  /tmp/ccJqmpZo.s 			page 49


 2733 12ee 002B     		cmp	r3, #0
 2734 12f0 03D1     		bne	.L216
 2735              		.loc 1 1505 0
 2736 12f2 FFF7FEFF 		bl	HAL_RCC_GetPCLK1Freq
 2737 12f6 1F90     		str	r0, [sp, #124]
 2738 12f8 2DE0     		b	.L217
 2739              	.L216:
 2740              		.loc 1 1507 0
 2741 12fa 1E9B     		ldr	r3, [sp, #120]
 2742 12fc B3F5801F 		cmp	r3, #1048576
 2743 1300 0AD1     		bne	.L218
 2744              		.loc 1 1507 0 is_stmt 0 discriminator 1
 2745 1302 244B     		ldr	r3, .L232
 2746 1304 D3F89430 		ldr	r3, [r3, #148]
 2747 1308 03F00203 		and	r3, r3, #2
 2748 130c 002B     		cmp	r3, #0
 2749 130e 03D0     		beq	.L218
 2750              		.loc 1 1509 0 is_stmt 1
 2751 1310 4FF4FA43 		mov	r3, #32000
 2752 1314 1F93     		str	r3, [sp, #124]
 2753 1316 1EE0     		b	.L217
 2754              	.L218:
 2755              		.loc 1 1511 0
 2756 1318 1E9B     		ldr	r3, [sp, #120]
 2757 131a B3F5001F 		cmp	r3, #2097152
 2758 131e 08D1     		bne	.L219
 2759              		.loc 1 1511 0 is_stmt 0 discriminator 1
 2760 1320 1C4B     		ldr	r3, .L232
 2761 1322 1B68     		ldr	r3, [r3]
 2762 1324 03F48063 		and	r3, r3, #1024
 2763 1328 002B     		cmp	r3, #0
 2764 132a 02D0     		beq	.L219
 2765              		.loc 1 1513 0 is_stmt 1
 2766 132c 1A4B     		ldr	r3, .L232+4
 2767 132e 1F93     		str	r3, [sp, #124]
 2768 1330 11E0     		b	.L217
 2769              	.L219:
 2770              		.loc 1 1515 0
 2771 1332 1E9B     		ldr	r3, [sp, #120]
 2772 1334 B3F5401F 		cmp	r3, #3145728
 2773 1338 0AD1     		bne	.L220
 2774              		.loc 1 1515 0 is_stmt 0 discriminator 1
 2775 133a 164B     		ldr	r3, .L232
 2776 133c D3F89030 		ldr	r3, [r3, #144]
 2777 1340 03F00203 		and	r3, r3, #2
 2778 1344 002B     		cmp	r3, #0
 2779 1346 03D0     		beq	.L220
 2780              		.loc 1 1517 0 is_stmt 1
 2781 1348 4FF40043 		mov	r3, #32768
 2782 134c 1F93     		str	r3, [sp, #124]
 2783 134e 02E0     		b	.L217
 2784              	.L220:
 2785              		.loc 1 1522 0
 2786 1350 0023     		movs	r3, #0
 2787 1352 1F93     		str	r3, [sp, #124]
 2788              		.loc 1 1524 0
 2789 1354 23E0     		b	.L82
ARM GAS  /tmp/ccJqmpZo.s 			page 50


 2790              	.L217:
 2791 1356 22E0     		b	.L82
 2792              	.L119:
 2793              		.loc 1 1530 0
 2794 1358 0E4B     		ldr	r3, .L232
 2795 135a D3F88830 		ldr	r3, [r3, #136]
 2796 135e 03F08043 		and	r3, r3, #1073741824
 2797 1362 1E93     		str	r3, [sp, #120]
 2798              		.loc 1 1532 0
 2799 1364 1E9B     		ldr	r3, [sp, #120]
 2800 1366 002B     		cmp	r3, #0
 2801 1368 03D1     		bne	.L221
 2802              		.loc 1 1534 0
 2803 136a FFF7FEFF 		bl	HAL_RCC_GetPCLK1Freq
 2804 136e 1F90     		str	r0, [sp, #124]
 2805 1370 14E0     		b	.L222
 2806              	.L221:
 2807              		.loc 1 1536 0
 2808 1372 1E9B     		ldr	r3, [sp, #120]
 2809 1374 B3F1804F 		cmp	r3, #1073741824
 2810 1378 08D1     		bne	.L223
 2811              		.loc 1 1536 0 is_stmt 0 discriminator 1
 2812 137a 064B     		ldr	r3, .L232
 2813 137c 1B68     		ldr	r3, [r3]
 2814 137e 03F48063 		and	r3, r3, #1024
 2815 1382 002B     		cmp	r3, #0
 2816 1384 02D0     		beq	.L223
 2817              		.loc 1 1538 0 is_stmt 1
 2818 1386 044B     		ldr	r3, .L232+4
 2819 1388 1F93     		str	r3, [sp, #124]
 2820 138a 07E0     		b	.L222
 2821              	.L223:
 2822              		.loc 1 1543 0
 2823 138c 0023     		movs	r3, #0
 2824 138e 1F93     		str	r3, [sp, #124]
 2825              		.loc 1 1545 0
 2826 1390 04E0     		b	.L225
 2827              	.L233:
 2828 1392 00BF     		.align	2
 2829              	.L232:
 2830 1394 00100240 		.word	1073876992
 2831 1398 0024F400 		.word	16000000
 2832              	.L222:
 2833              	.L225:
 2834 139c 00BF     		nop
 2835              	.L82:
 2836              		.loc 1 1554 0
 2837 139e 1F9B     		ldr	r3, [sp, #124]
 2838              		.loc 1 1555 0
 2839 13a0 1846     		mov	r0, r3
 2840 13a2 21B0     		add	sp, sp, #132
 2841              		@ sp needed
 2842 13a4 5DF804FB 		ldr	pc, [sp], #4
 2843              		.cfi_endproc
 2844              	.LFE127:
 2845              		.size	HAL_RCCEx_GetPeriphCLKFreq, .-HAL_RCCEx_GetPeriphCLKFreq
 2846              		.align	2
ARM GAS  /tmp/ccJqmpZo.s 			page 51


 2847 13a8 AFF30080 		.p2align 4,,15
 2847      AFF30080 
 2848              		.global	HAL_RCCEx_EnablePLLSAI1
 2849              		.thumb
 2850              		.thumb_func
 2851              		.type	HAL_RCCEx_EnablePLLSAI1, %function
 2852              	HAL_RCCEx_EnablePLLSAI1:
 2853              	.LFB128:
 2854              		.loc 1 1583 0
 2855              		.cfi_startproc
 2856              		@ args = 0, pretend = 0, frame = 48
 2857              		@ frame_needed = 0, uses_anonymous_args = 0
 2858 13b0 00B5     		push	{lr}
 2859              		.cfi_def_cfa_offset 4
 2860              		.cfi_offset 14, -4
 2861 13b2 8DB0     		sub	sp, sp, #52
 2862              		.cfi_def_cfa_offset 56
 2863 13b4 0190     		str	r0, [sp, #4]
 2864              		.loc 1 1584 0
 2865 13b6 0023     		movs	r3, #0
 2866 13b8 0A93     		str	r3, [sp, #40]
 2867              		.loc 1 1585 0
 2868 13ba 0023     		movs	r3, #0
 2869 13bc 8DF82F30 		strb	r3, [sp, #47]
 2870              		.loc 1 1597 0
 2871 13c0 434B     		ldr	r3, .L246
 2872 13c2 434A     		ldr	r2, .L246
 2873 13c4 1268     		ldr	r2, [r2]
 2874 13c6 22F08062 		bic	r2, r2, #67108864
 2875 13ca 1A60     		str	r2, [r3]
 2876              		.loc 1 1600 0
 2877 13cc FFF7FEFF 		bl	HAL_GetTick
 2878 13d0 0A90     		str	r0, [sp, #40]
 2879              		.loc 1 1603 0
 2880 13d2 0AE0     		b	.L235
 2881              	.L237:
 2882              		.loc 1 1605 0
 2883 13d4 FFF7FEFF 		bl	HAL_GetTick
 2884 13d8 0246     		mov	r2, r0
 2885 13da 0A9B     		ldr	r3, [sp, #40]
 2886 13dc D31A     		subs	r3, r2, r3
 2887 13de 022B     		cmp	r3, #2
 2888 13e0 03D9     		bls	.L235
 2889              		.loc 1 1607 0
 2890 13e2 0323     		movs	r3, #3
 2891 13e4 8DF82F30 		strb	r3, [sp, #47]
 2892              		.loc 1 1608 0
 2893 13e8 05E0     		b	.L236
 2894              	.L235:
 2895              		.loc 1 1603 0 discriminator 1
 2896 13ea 394B     		ldr	r3, .L246
 2897 13ec 1B68     		ldr	r3, [r3]
 2898 13ee 03F00063 		and	r3, r3, #134217728
 2899 13f2 002B     		cmp	r3, #0
 2900 13f4 EED1     		bne	.L237
 2901              	.L236:
 2902              		.loc 1 1612 0
ARM GAS  /tmp/ccJqmpZo.s 			page 52


 2903 13f6 9DF82F30 		ldrb	r3, [sp, #47]	@ zero_extendqisi2
 2904 13fa 002B     		cmp	r3, #0
 2905 13fc 62D1     		bne	.L238
 2906              		.loc 1 1616 0
 2907 13fe 344B     		ldr	r3, .L246
 2908 1400 019A     		ldr	r2, [sp, #4]
 2909 1402 9168     		ldr	r1, [r2, #8]
 2910 1404 4FF4FE42 		mov	r2, #32512
 2911 1408 0992     		str	r2, [sp, #36]
 2912              	.LBB130:
 2913              	.LBB131:
 2914              		.loc 2 586 0
 2915 140a 099A     		ldr	r2, [sp, #36]
 2916              	@ 586 "../../../../../../ChibiOS/os/ext/CMSIS/include/core_cmInstr.h" 1
 2917 140c 92FAA2F2 		rbit r2, r2
 2918              	@ 0 "" 2
 2919              		.thumb
 2920 1410 0892     		str	r2, [sp, #32]
 2921              		.loc 2 599 0
 2922 1412 089A     		ldr	r2, [sp, #32]
 2923              	.LBE131:
 2924              	.LBE130:
 2925              		.loc 1 1616 0
 2926 1414 B2FA82F2 		clz	r2, r2
 2927 1418 9140     		lsls	r1, r1, r2
 2928 141a 019A     		ldr	r2, [sp, #4]
 2929 141c D268     		ldr	r2, [r2, #12]
 2930 141e 1009     		lsrs	r0, r2, #4
 2931 1420 4FF40032 		mov	r2, #131072
 2932 1424 0792     		str	r2, [sp, #28]
 2933              	.LBB132:
 2934              	.LBB133:
 2935              		.loc 2 586 0
 2936 1426 079A     		ldr	r2, [sp, #28]
 2937              	@ 586 "../../../../../../ChibiOS/os/ext/CMSIS/include/core_cmInstr.h" 1
 2938 1428 92FAA2F2 		rbit r2, r2
 2939              	@ 0 "" 2
 2940              		.thumb
 2941 142c 0692     		str	r2, [sp, #24]
 2942              		.loc 2 599 0
 2943 142e 069A     		ldr	r2, [sp, #24]
 2944              	.LBE133:
 2945              	.LBE132:
 2946              		.loc 1 1616 0
 2947 1430 B2FA82F2 		clz	r2, r2
 2948 1434 00FA02F2 		lsl	r2, r0, r2
 2949 1438 1143     		orrs	r1, r1, r2
 2950 143a 019A     		ldr	r2, [sp, #4]
 2951 143c 1269     		ldr	r2, [r2, #16]
 2952 143e 5208     		lsrs	r2, r2, #1
 2953 1440 501E     		subs	r0, r2, #1
 2954 1442 4FF4C002 		mov	r2, #6291456
 2955 1446 0592     		str	r2, [sp, #20]
 2956              	.LBB134:
 2957              	.LBB135:
 2958              		.loc 2 586 0
 2959 1448 059A     		ldr	r2, [sp, #20]
ARM GAS  /tmp/ccJqmpZo.s 			page 53


 2960              	@ 586 "../../../../../../ChibiOS/os/ext/CMSIS/include/core_cmInstr.h" 1
 2961 144a 92FAA2F2 		rbit r2, r2
 2962              	@ 0 "" 2
 2963              		.thumb
 2964 144e 0492     		str	r2, [sp, #16]
 2965              		.loc 2 599 0
 2966 1450 049A     		ldr	r2, [sp, #16]
 2967              	.LBE135:
 2968              	.LBE134:
 2969              		.loc 1 1616 0
 2970 1452 B2FA82F2 		clz	r2, r2
 2971 1456 00FA02F2 		lsl	r2, r0, r2
 2972 145a 1143     		orrs	r1, r1, r2
 2973 145c 019A     		ldr	r2, [sp, #4]
 2974 145e 5269     		ldr	r2, [r2, #20]
 2975 1460 5208     		lsrs	r2, r2, #1
 2976 1462 501E     		subs	r0, r2, #1
 2977 1464 4FF0C062 		mov	r2, #100663296
 2978 1468 0392     		str	r2, [sp, #12]
 2979              	.LBB136:
 2980              	.LBB137:
 2981              		.loc 2 586 0
 2982 146a 039A     		ldr	r2, [sp, #12]
 2983              	@ 586 "../../../../../../ChibiOS/os/ext/CMSIS/include/core_cmInstr.h" 1
 2984 146c 92FAA2F2 		rbit r2, r2
 2985              	@ 0 "" 2
 2986              		.thumb
 2987 1470 0292     		str	r2, [sp, #8]
 2988              		.loc 2 599 0
 2989 1472 029A     		ldr	r2, [sp, #8]
 2990              	.LBE137:
 2991              	.LBE136:
 2992              		.loc 1 1616 0
 2993 1474 B2FA82F2 		clz	r2, r2
 2994 1478 00FA02F2 		lsl	r2, r0, r2
 2995 147c 0A43     		orrs	r2, r2, r1
 2996 147e 1A61     		str	r2, [r3, #16]
 2997              		.loc 1 1618 0
 2998 1480 134B     		ldr	r3, .L246
 2999 1482 134A     		ldr	r2, .L246
 3000 1484 1169     		ldr	r1, [r2, #16]
 3001 1486 019A     		ldr	r2, [sp, #4]
 3002 1488 9269     		ldr	r2, [r2, #24]
 3003 148a 0A43     		orrs	r2, r2, r1
 3004 148c 1A61     		str	r2, [r3, #16]
 3005              		.loc 1 1621 0
 3006 148e 104B     		ldr	r3, .L246
 3007 1490 0F4A     		ldr	r2, .L246
 3008 1492 1268     		ldr	r2, [r2]
 3009 1494 42F08062 		orr	r2, r2, #67108864
 3010 1498 1A60     		str	r2, [r3]
 3011              		.loc 1 1624 0
 3012 149a FFF7FEFF 		bl	HAL_GetTick
 3013 149e 0A90     		str	r0, [sp, #40]
 3014              		.loc 1 1627 0
 3015 14a0 0AE0     		b	.L243
 3016              	.L244:
ARM GAS  /tmp/ccJqmpZo.s 			page 54


 3017              		.loc 1 1629 0
 3018 14a2 FFF7FEFF 		bl	HAL_GetTick
 3019 14a6 0246     		mov	r2, r0
 3020 14a8 0A9B     		ldr	r3, [sp, #40]
 3021 14aa D31A     		subs	r3, r2, r3
 3022 14ac 022B     		cmp	r3, #2
 3023 14ae 03D9     		bls	.L243
 3024              		.loc 1 1631 0
 3025 14b0 0323     		movs	r3, #3
 3026 14b2 8DF82F30 		strb	r3, [sp, #47]
 3027              		.loc 1 1632 0
 3028 14b6 05E0     		b	.L238
 3029              	.L243:
 3030              		.loc 1 1627 0 discriminator 1
 3031 14b8 054B     		ldr	r3, .L246
 3032 14ba 1B68     		ldr	r3, [r3]
 3033 14bc 03F00063 		and	r3, r3, #134217728
 3034 14c0 002B     		cmp	r3, #0
 3035 14c2 EED0     		beq	.L244
 3036              	.L238:
 3037              		.loc 1 1637 0
 3038 14c4 9DF82F30 		ldrb	r3, [sp, #47]	@ zero_extendqisi2
 3039              		.loc 1 1638 0
 3040 14c8 1846     		mov	r0, r3
 3041 14ca 0DB0     		add	sp, sp, #52
 3042              		@ sp needed
 3043 14cc 5DF804FB 		ldr	pc, [sp], #4
 3044              	.L247:
 3045              		.align	2
 3046              	.L246:
 3047 14d0 00100240 		.word	1073876992
 3048              		.cfi_endproc
 3049              	.LFE128:
 3050              		.size	HAL_RCCEx_EnablePLLSAI1, .-HAL_RCCEx_EnablePLLSAI1
 3051              		.align	2
 3052 14d4 AFF30080 		.p2align 4,,15
 3052      AFF30080 
 3052      AFF30080 
 3053              		.global	HAL_RCCEx_DisablePLLSAI1
 3054              		.thumb
 3055              		.thumb_func
 3056              		.type	HAL_RCCEx_DisablePLLSAI1, %function
 3057              	HAL_RCCEx_DisablePLLSAI1:
 3058              	.LFB129:
 3059              		.loc 1 1645 0
 3060              		.cfi_startproc
 3061              		@ args = 0, pretend = 0, frame = 8
 3062              		@ frame_needed = 0, uses_anonymous_args = 0
 3063 14e0 00B5     		push	{lr}
 3064              		.cfi_def_cfa_offset 4
 3065              		.cfi_offset 14, -4
 3066 14e2 83B0     		sub	sp, sp, #12
 3067              		.cfi_def_cfa_offset 16
 3068              		.loc 1 1646 0
 3069 14e4 0023     		movs	r3, #0
 3070 14e6 0093     		str	r3, [sp]
 3071              		.loc 1 1647 0
ARM GAS  /tmp/ccJqmpZo.s 			page 55


 3072 14e8 0023     		movs	r3, #0
 3073 14ea 8DF80730 		strb	r3, [sp, #7]
 3074              		.loc 1 1650 0
 3075 14ee 1D4B     		ldr	r3, .L254
 3076 14f0 1C4A     		ldr	r2, .L254
 3077 14f2 1268     		ldr	r2, [r2]
 3078 14f4 22F08062 		bic	r2, r2, #67108864
 3079 14f8 1A60     		str	r2, [r3]
 3080              		.loc 1 1653 0
 3081 14fa FFF7FEFF 		bl	HAL_GetTick
 3082 14fe 0090     		str	r0, [sp]
 3083              		.loc 1 1656 0
 3084 1500 0AE0     		b	.L249
 3085              	.L251:
 3086              		.loc 1 1658 0
 3087 1502 FFF7FEFF 		bl	HAL_GetTick
 3088 1506 0246     		mov	r2, r0
 3089 1508 009B     		ldr	r3, [sp]
 3090 150a D31A     		subs	r3, r2, r3
 3091 150c 022B     		cmp	r3, #2
 3092 150e 03D9     		bls	.L249
 3093              		.loc 1 1660 0
 3094 1510 0323     		movs	r3, #3
 3095 1512 8DF80730 		strb	r3, [sp, #7]
 3096              		.loc 1 1661 0
 3097 1516 05E0     		b	.L250
 3098              	.L249:
 3099              		.loc 1 1656 0 discriminator 1
 3100 1518 124B     		ldr	r3, .L254
 3101 151a 1B68     		ldr	r3, [r3]
 3102 151c 03F00063 		and	r3, r3, #134217728
 3103 1520 002B     		cmp	r3, #0
 3104 1522 EED1     		bne	.L251
 3105              	.L250:
 3106              		.loc 1 1666 0
 3107 1524 0F4A     		ldr	r2, .L254
 3108 1526 0F4B     		ldr	r3, .L254
 3109 1528 1B69     		ldr	r3, [r3, #16]
 3110 152a 23F08873 		bic	r3, r3, #17825792
 3111 152e 23F48033 		bic	r3, r3, #65536
 3112 1532 1361     		str	r3, [r2, #16]
 3113              		.loc 1 1669 0
 3114 1534 0B4B     		ldr	r3, .L254
 3115 1536 1B68     		ldr	r3, [r3]
 3116 1538 03F00073 		and	r3, r3, #33554432
 3117 153c 002B     		cmp	r3, #0
 3118 153e 0BD1     		bne	.L252
 3119              		.loc 1 1672 0
 3120 1540 084B     		ldr	r3, .L254
 3121 1542 1B68     		ldr	r3, [r3]
 3122 1544 03F00053 		and	r3, r3, #536870912
 3123              		.loc 1 1671 0
 3124 1548 002B     		cmp	r3, #0
 3125 154a 05D1     		bne	.L252
 3126              		.loc 1 1676 0
 3127 154c 054B     		ldr	r3, .L254
 3128 154e 054A     		ldr	r2, .L254
ARM GAS  /tmp/ccJqmpZo.s 			page 56


 3129 1550 D268     		ldr	r2, [r2, #12]
 3130 1552 22F00302 		bic	r2, r2, #3
 3131 1556 DA60     		str	r2, [r3, #12]
 3132              	.L252:
 3133              		.loc 1 1679 0
 3134 1558 9DF80730 		ldrb	r3, [sp, #7]	@ zero_extendqisi2
 3135              		.loc 1 1680 0
 3136 155c 1846     		mov	r0, r3
 3137 155e 03B0     		add	sp, sp, #12
 3138              		@ sp needed
 3139 1560 5DF804FB 		ldr	pc, [sp], #4
 3140              	.L255:
 3141              		.align	2
 3142              	.L254:
 3143 1564 00100240 		.word	1073876992
 3144              		.cfi_endproc
 3145              	.LFE129:
 3146              		.size	HAL_RCCEx_DisablePLLSAI1, .-HAL_RCCEx_DisablePLLSAI1
 3147              		.align	2
 3148 1568 AFF30080 		.p2align 4,,15
 3148      AFF30080 
 3149              		.global	HAL_RCCEx_EnablePLLSAI2
 3150              		.thumb
 3151              		.thumb_func
 3152              		.type	HAL_RCCEx_EnablePLLSAI2, %function
 3153              	HAL_RCCEx_EnablePLLSAI2:
 3154              	.LFB130:
 3155              		.loc 1 1691 0
 3156              		.cfi_startproc
 3157              		@ args = 0, pretend = 0, frame = 40
 3158              		@ frame_needed = 0, uses_anonymous_args = 0
 3159 1570 00B5     		push	{lr}
 3160              		.cfi_def_cfa_offset 4
 3161              		.cfi_offset 14, -4
 3162 1572 8BB0     		sub	sp, sp, #44
 3163              		.cfi_def_cfa_offset 48
 3164 1574 0190     		str	r0, [sp, #4]
 3165              		.loc 1 1692 0
 3166 1576 0023     		movs	r3, #0
 3167 1578 0893     		str	r3, [sp, #32]
 3168              		.loc 1 1693 0
 3169 157a 0023     		movs	r3, #0
 3170 157c 8DF82730 		strb	r3, [sp, #39]
 3171              		.loc 1 1704 0
 3172 1580 3B4B     		ldr	r3, .L267
 3173 1582 3B4A     		ldr	r2, .L267
 3174 1584 1268     		ldr	r2, [r2]
 3175 1586 22F08052 		bic	r2, r2, #268435456
 3176 158a 1A60     		str	r2, [r3]
 3177              		.loc 1 1707 0
 3178 158c FFF7FEFF 		bl	HAL_GetTick
 3179 1590 0890     		str	r0, [sp, #32]
 3180              		.loc 1 1710 0
 3181 1592 0AE0     		b	.L257
 3182              	.L259:
 3183              		.loc 1 1712 0
 3184 1594 FFF7FEFF 		bl	HAL_GetTick
ARM GAS  /tmp/ccJqmpZo.s 			page 57


 3185 1598 0246     		mov	r2, r0
 3186 159a 089B     		ldr	r3, [sp, #32]
 3187 159c D31A     		subs	r3, r2, r3
 3188 159e 022B     		cmp	r3, #2
 3189 15a0 03D9     		bls	.L257
 3190              		.loc 1 1714 0
 3191 15a2 0323     		movs	r3, #3
 3192 15a4 8DF82730 		strb	r3, [sp, #39]
 3193              		.loc 1 1715 0
 3194 15a8 05E0     		b	.L258
 3195              	.L257:
 3196              		.loc 1 1710 0 discriminator 1
 3197 15aa 314B     		ldr	r3, .L267
 3198 15ac 1B68     		ldr	r3, [r3]
 3199 15ae 03F00053 		and	r3, r3, #536870912
 3200 15b2 002B     		cmp	r3, #0
 3201 15b4 EED1     		bne	.L259
 3202              	.L258:
 3203              		.loc 1 1719 0
 3204 15b6 9DF82730 		ldrb	r3, [sp, #39]	@ zero_extendqisi2
 3205 15ba 002B     		cmp	r3, #0
 3206 15bc 51D1     		bne	.L260
 3207              		.loc 1 1723 0
 3208 15be 2C4B     		ldr	r3, .L267
 3209 15c0 019A     		ldr	r2, [sp, #4]
 3210 15c2 9168     		ldr	r1, [r2, #8]
 3211 15c4 4FF4FE42 		mov	r2, #32512
 3212 15c8 0792     		str	r2, [sp, #28]
 3213              	.LBB138:
 3214              	.LBB139:
 3215              		.loc 2 586 0
 3216 15ca 079A     		ldr	r2, [sp, #28]
 3217              	@ 586 "../../../../../../ChibiOS/os/ext/CMSIS/include/core_cmInstr.h" 1
 3218 15cc 92FAA2F2 		rbit r2, r2
 3219              	@ 0 "" 2
 3220              		.thumb
 3221 15d0 0692     		str	r2, [sp, #24]
 3222              		.loc 2 599 0
 3223 15d2 069A     		ldr	r2, [sp, #24]
 3224              	.LBE139:
 3225              	.LBE138:
 3226              		.loc 1 1723 0
 3227 15d4 B2FA82F2 		clz	r2, r2
 3228 15d8 9140     		lsls	r1, r1, r2
 3229 15da 019A     		ldr	r2, [sp, #4]
 3230 15dc D268     		ldr	r2, [r2, #12]
 3231 15de 1009     		lsrs	r0, r2, #4
 3232 15e0 4FF40032 		mov	r2, #131072
 3233 15e4 0592     		str	r2, [sp, #20]
 3234              	.LBB140:
 3235              	.LBB141:
 3236              		.loc 2 586 0
 3237 15e6 059A     		ldr	r2, [sp, #20]
 3238              	@ 586 "../../../../../../ChibiOS/os/ext/CMSIS/include/core_cmInstr.h" 1
 3239 15e8 92FAA2F2 		rbit r2, r2
 3240              	@ 0 "" 2
 3241              		.thumb
ARM GAS  /tmp/ccJqmpZo.s 			page 58


 3242 15ec 0492     		str	r2, [sp, #16]
 3243              		.loc 2 599 0
 3244 15ee 049A     		ldr	r2, [sp, #16]
 3245              	.LBE141:
 3246              	.LBE140:
 3247              		.loc 1 1723 0
 3248 15f0 B2FA82F2 		clz	r2, r2
 3249 15f4 00FA02F2 		lsl	r2, r0, r2
 3250 15f8 1143     		orrs	r1, r1, r2
 3251 15fa 019A     		ldr	r2, [sp, #4]
 3252 15fc 1269     		ldr	r2, [r2, #16]
 3253 15fe 5208     		lsrs	r2, r2, #1
 3254 1600 501E     		subs	r0, r2, #1
 3255 1602 4FF0C062 		mov	r2, #100663296
 3256 1606 0392     		str	r2, [sp, #12]
 3257              	.LBB142:
 3258              	.LBB143:
 3259              		.loc 2 586 0
 3260 1608 039A     		ldr	r2, [sp, #12]
 3261              	@ 586 "../../../../../../ChibiOS/os/ext/CMSIS/include/core_cmInstr.h" 1
 3262 160a 92FAA2F2 		rbit r2, r2
 3263              	@ 0 "" 2
 3264              		.thumb
 3265 160e 0292     		str	r2, [sp, #8]
 3266              		.loc 2 599 0
 3267 1610 029A     		ldr	r2, [sp, #8]
 3268              	.LBE143:
 3269              	.LBE142:
 3270              		.loc 1 1723 0
 3271 1612 B2FA82F2 		clz	r2, r2
 3272 1616 00FA02F2 		lsl	r2, r0, r2
 3273 161a 0A43     		orrs	r2, r2, r1
 3274 161c 5A61     		str	r2, [r3, #20]
 3275              		.loc 1 1725 0
 3276 161e 144B     		ldr	r3, .L267
 3277 1620 134A     		ldr	r2, .L267
 3278 1622 5169     		ldr	r1, [r2, #20]
 3279 1624 019A     		ldr	r2, [sp, #4]
 3280 1626 5269     		ldr	r2, [r2, #20]
 3281 1628 0A43     		orrs	r2, r2, r1
 3282 162a 5A61     		str	r2, [r3, #20]
 3283              		.loc 1 1728 0
 3284 162c 104B     		ldr	r3, .L267
 3285 162e 104A     		ldr	r2, .L267
 3286 1630 1268     		ldr	r2, [r2]
 3287 1632 42F08052 		orr	r2, r2, #268435456
 3288 1636 1A60     		str	r2, [r3]
 3289              		.loc 1 1731 0
 3290 1638 FFF7FEFF 		bl	HAL_GetTick
 3291 163c 0890     		str	r0, [sp, #32]
 3292              		.loc 1 1734 0
 3293 163e 0AE0     		b	.L264
 3294              	.L265:
 3295              		.loc 1 1736 0
 3296 1640 FFF7FEFF 		bl	HAL_GetTick
 3297 1644 0246     		mov	r2, r0
 3298 1646 089B     		ldr	r3, [sp, #32]
ARM GAS  /tmp/ccJqmpZo.s 			page 59


 3299 1648 D31A     		subs	r3, r2, r3
 3300 164a 022B     		cmp	r3, #2
 3301 164c 03D9     		bls	.L264
 3302              		.loc 1 1738 0
 3303 164e 0323     		movs	r3, #3
 3304 1650 8DF82730 		strb	r3, [sp, #39]
 3305              		.loc 1 1739 0
 3306 1654 05E0     		b	.L260
 3307              	.L264:
 3308              		.loc 1 1734 0 discriminator 1
 3309 1656 064B     		ldr	r3, .L267
 3310 1658 1B68     		ldr	r3, [r3]
 3311 165a 03F00053 		and	r3, r3, #536870912
 3312 165e 002B     		cmp	r3, #0
 3313 1660 EED0     		beq	.L265
 3314              	.L260:
 3315              		.loc 1 1744 0
 3316 1662 9DF82730 		ldrb	r3, [sp, #39]	@ zero_extendqisi2
 3317              		.loc 1 1745 0
 3318 1666 1846     		mov	r0, r3
 3319 1668 0BB0     		add	sp, sp, #44
 3320              		@ sp needed
 3321 166a 5DF804FB 		ldr	pc, [sp], #4
 3322              	.L268:
 3323 166e 00BF     		.align	2
 3324              	.L267:
 3325 1670 00100240 		.word	1073876992
 3326              		.cfi_endproc
 3327              	.LFE130:
 3328              		.size	HAL_RCCEx_EnablePLLSAI2, .-HAL_RCCEx_EnablePLLSAI2
 3329              		.align	2
 3330 1674 AFF30080 		.p2align 4,,15
 3330      AFF30080 
 3330      AFF30080 
 3331              		.global	HAL_RCCEx_DisablePLLSAI2
 3332              		.thumb
 3333              		.thumb_func
 3334              		.type	HAL_RCCEx_DisablePLLSAI2, %function
 3335              	HAL_RCCEx_DisablePLLSAI2:
 3336              	.LFB131:
 3337              		.loc 1 1752 0
 3338              		.cfi_startproc
 3339              		@ args = 0, pretend = 0, frame = 8
 3340              		@ frame_needed = 0, uses_anonymous_args = 0
 3341 1680 00B5     		push	{lr}
 3342              		.cfi_def_cfa_offset 4
 3343              		.cfi_offset 14, -4
 3344 1682 83B0     		sub	sp, sp, #12
 3345              		.cfi_def_cfa_offset 16
 3346              		.loc 1 1753 0
 3347 1684 0023     		movs	r3, #0
 3348 1686 0093     		str	r3, [sp]
 3349              		.loc 1 1754 0
 3350 1688 0023     		movs	r3, #0
 3351 168a 8DF80730 		strb	r3, [sp, #7]
 3352              		.loc 1 1757 0
 3353 168e 1D4B     		ldr	r3, .L275
ARM GAS  /tmp/ccJqmpZo.s 			page 60


 3354 1690 1C4A     		ldr	r2, .L275
 3355 1692 1268     		ldr	r2, [r2]
 3356 1694 22F08052 		bic	r2, r2, #268435456
 3357 1698 1A60     		str	r2, [r3]
 3358              		.loc 1 1760 0
 3359 169a FFF7FEFF 		bl	HAL_GetTick
 3360 169e 0090     		str	r0, [sp]
 3361              		.loc 1 1763 0
 3362 16a0 0AE0     		b	.L270
 3363              	.L272:
 3364              		.loc 1 1765 0
 3365 16a2 FFF7FEFF 		bl	HAL_GetTick
 3366 16a6 0246     		mov	r2, r0
 3367 16a8 009B     		ldr	r3, [sp]
 3368 16aa D31A     		subs	r3, r2, r3
 3369 16ac 022B     		cmp	r3, #2
 3370 16ae 03D9     		bls	.L270
 3371              		.loc 1 1767 0
 3372 16b0 0323     		movs	r3, #3
 3373 16b2 8DF80730 		strb	r3, [sp, #7]
 3374              		.loc 1 1768 0
 3375 16b6 05E0     		b	.L271
 3376              	.L270:
 3377              		.loc 1 1763 0 discriminator 1
 3378 16b8 124B     		ldr	r3, .L275
 3379 16ba 1B68     		ldr	r3, [r3]
 3380 16bc 03F00053 		and	r3, r3, #536870912
 3381 16c0 002B     		cmp	r3, #0
 3382 16c2 EED1     		bne	.L272
 3383              	.L271:
 3384              		.loc 1 1773 0
 3385 16c4 0F4A     		ldr	r2, .L275
 3386 16c6 0F4B     		ldr	r3, .L275
 3387 16c8 5B69     		ldr	r3, [r3, #20]
 3388 16ca 23F08073 		bic	r3, r3, #16777216
 3389 16ce 23F48033 		bic	r3, r3, #65536
 3390 16d2 5361     		str	r3, [r2, #20]
 3391              		.loc 1 1776 0
 3392 16d4 0B4B     		ldr	r3, .L275
 3393 16d6 1B68     		ldr	r3, [r3]
 3394 16d8 03F00073 		and	r3, r3, #33554432
 3395 16dc 002B     		cmp	r3, #0
 3396 16de 0BD1     		bne	.L273
 3397              		.loc 1 1778 0
 3398 16e0 084B     		ldr	r3, .L275
 3399 16e2 1B68     		ldr	r3, [r3]
 3400 16e4 03F00063 		and	r3, r3, #134217728
 3401              		.loc 1 1777 0
 3402 16e8 002B     		cmp	r3, #0
 3403 16ea 05D1     		bne	.L273
 3404              		.loc 1 1781 0
 3405 16ec 054B     		ldr	r3, .L275
 3406 16ee 054A     		ldr	r2, .L275
 3407 16f0 D268     		ldr	r2, [r2, #12]
 3408 16f2 22F00302 		bic	r2, r2, #3
 3409 16f6 DA60     		str	r2, [r3, #12]
 3410              	.L273:
ARM GAS  /tmp/ccJqmpZo.s 			page 61


 3411              		.loc 1 1784 0
 3412 16f8 9DF80730 		ldrb	r3, [sp, #7]	@ zero_extendqisi2
 3413              		.loc 1 1785 0
 3414 16fc 1846     		mov	r0, r3
 3415 16fe 03B0     		add	sp, sp, #12
 3416              		@ sp needed
 3417 1700 5DF804FB 		ldr	pc, [sp], #4
 3418              	.L276:
 3419              		.align	2
 3420              	.L275:
 3421 1704 00100240 		.word	1073876992
 3422              		.cfi_endproc
 3423              	.LFE131:
 3424              		.size	HAL_RCCEx_DisablePLLSAI2, .-HAL_RCCEx_DisablePLLSAI2
 3425              		.align	2
 3426 1708 AFF30080 		.p2align 4,,15
 3426      AFF30080 
 3427              		.global	HAL_RCCEx_WakeUpStopCLKConfig
 3428              		.thumb
 3429              		.thumb_func
 3430              		.type	HAL_RCCEx_WakeUpStopCLKConfig, %function
 3431              	HAL_RCCEx_WakeUpStopCLKConfig:
 3432              	.LFB132:
 3433              		.loc 1 1800 0
 3434              		.cfi_startproc
 3435              		@ args = 0, pretend = 0, frame = 8
 3436              		@ frame_needed = 0, uses_anonymous_args = 0
 3437              		@ link register save eliminated.
 3438 1710 82B0     		sub	sp, sp, #8
 3439              		.cfi_def_cfa_offset 8
 3440 1712 0190     		str	r0, [sp, #4]
 3441              		.loc 1 1803 0
 3442 1714 044B     		ldr	r3, .L278
 3443 1716 044A     		ldr	r2, .L278
 3444 1718 9268     		ldr	r2, [r2, #8]
 3445 171a 22F40041 		bic	r1, r2, #32768
 3446 171e 019A     		ldr	r2, [sp, #4]
 3447 1720 0A43     		orrs	r2, r2, r1
 3448 1722 9A60     		str	r2, [r3, #8]
 3449              		.loc 1 1804 0
 3450 1724 02B0     		add	sp, sp, #8
 3451              		@ sp needed
 3452 1726 7047     		bx	lr
 3453              	.L279:
 3454              		.align	2
 3455              	.L278:
 3456 1728 00100240 		.word	1073876992
 3457              		.cfi_endproc
 3458              	.LFE132:
 3459              		.size	HAL_RCCEx_WakeUpStopCLKConfig, .-HAL_RCCEx_WakeUpStopCLKConfig
 3460              		.align	2
 3461 172c AFF30080 		.p2align 4,,15
 3462              		.global	HAL_RCCEx_StandbyMSIRangeConfig
 3463              		.thumb
 3464              		.thumb_func
 3465              		.type	HAL_RCCEx_StandbyMSIRangeConfig, %function
 3466              	HAL_RCCEx_StandbyMSIRangeConfig:
ARM GAS  /tmp/ccJqmpZo.s 			page 62


 3467              	.LFB133:
 3468              		.loc 1 1818 0
 3469              		.cfi_startproc
 3470              		@ args = 0, pretend = 0, frame = 8
 3471              		@ frame_needed = 0, uses_anonymous_args = 0
 3472              		@ link register save eliminated.
 3473 1730 82B0     		sub	sp, sp, #8
 3474              		.cfi_def_cfa_offset 8
 3475 1732 0190     		str	r0, [sp, #4]
 3476              		.loc 1 1821 0
 3477 1734 064B     		ldr	r3, .L281
 3478 1736 064A     		ldr	r2, .L281
 3479 1738 D2F89420 		ldr	r2, [r2, #148]
 3480 173c 22F47061 		bic	r1, r2, #3840
 3481 1740 019A     		ldr	r2, [sp, #4]
 3482 1742 1201     		lsls	r2, r2, #4
 3483 1744 0A43     		orrs	r2, r2, r1
 3484 1746 C3F89420 		str	r2, [r3, #148]
 3485              		.loc 1 1822 0
 3486 174a 02B0     		add	sp, sp, #8
 3487              		@ sp needed
 3488 174c 7047     		bx	lr
 3489              	.L282:
 3490 174e 00BF     		.align	2
 3491              	.L281:
 3492 1750 00100240 		.word	1073876992
 3493              		.cfi_endproc
 3494              	.LFE133:
 3495              		.size	HAL_RCCEx_StandbyMSIRangeConfig, .-HAL_RCCEx_StandbyMSIRangeConfig
 3496              		.align	2
 3497 1754 AFF30080 		.p2align 4,,15
 3497      AFF30080 
 3497      AFF30080 
 3498              		.global	HAL_RCCEx_EnableLSECSS
 3499              		.thumb
 3500              		.thumb_func
 3501              		.type	HAL_RCCEx_EnableLSECSS, %function
 3502              	HAL_RCCEx_EnableLSECSS:
 3503              	.LFB134:
 3504              		.loc 1 1832 0
 3505              		.cfi_startproc
 3506              		@ args = 0, pretend = 0, frame = 0
 3507              		@ frame_needed = 0, uses_anonymous_args = 0
 3508              		@ link register save eliminated.
 3509              		.loc 1 1833 0
 3510 1760 044B     		ldr	r3, .L284
 3511 1762 044A     		ldr	r2, .L284
 3512 1764 D2F89020 		ldr	r2, [r2, #144]
 3513 1768 42F02002 		orr	r2, r2, #32
 3514 176c C3F89020 		str	r2, [r3, #144]
 3515              		.loc 1 1834 0
 3516 1770 7047     		bx	lr
 3517              	.L285:
 3518 1772 00BF     		.align	2
 3519              	.L284:
 3520 1774 00100240 		.word	1073876992
 3521              		.cfi_endproc
ARM GAS  /tmp/ccJqmpZo.s 			page 63


 3522              	.LFE134:
 3523              		.size	HAL_RCCEx_EnableLSECSS, .-HAL_RCCEx_EnableLSECSS
 3524              		.align	2
 3525 1778 AFF30080 		.p2align 4,,15
 3525      AFF30080 
 3526              		.global	HAL_RCCEx_DisableLSECSS
 3527              		.thumb
 3528              		.thumb_func
 3529              		.type	HAL_RCCEx_DisableLSECSS, %function
 3530              	HAL_RCCEx_DisableLSECSS:
 3531              	.LFB135:
 3532              		.loc 1 1842 0
 3533              		.cfi_startproc
 3534              		@ args = 0, pretend = 0, frame = 0
 3535              		@ frame_needed = 0, uses_anonymous_args = 0
 3536              		@ link register save eliminated.
 3537              		.loc 1 1843 0
 3538 1780 074B     		ldr	r3, .L287
 3539 1782 074A     		ldr	r2, .L287
 3540 1784 D2F89020 		ldr	r2, [r2, #144]
 3541 1788 22F02002 		bic	r2, r2, #32
 3542 178c C3F89020 		str	r2, [r3, #144]
 3543              		.loc 1 1846 0
 3544 1790 034B     		ldr	r3, .L287
 3545 1792 034A     		ldr	r2, .L287
 3546 1794 9269     		ldr	r2, [r2, #24]
 3547 1796 22F40072 		bic	r2, r2, #512
 3548 179a 9A61     		str	r2, [r3, #24]
 3549              		.loc 1 1847 0
 3550 179c 7047     		bx	lr
 3551              	.L288:
 3552 179e 00BF     		.align	2
 3553              	.L287:
 3554 17a0 00100240 		.word	1073876992
 3555              		.cfi_endproc
 3556              	.LFE135:
 3557              		.size	HAL_RCCEx_DisableLSECSS, .-HAL_RCCEx_DisableLSECSS
 3558              		.align	2
 3559 17a4 AFF30080 		.p2align 4,,15
 3559      AFF30080 
 3559      AFF30080 
 3560              		.global	HAL_RCCEx_EnableLSECSS_IT
 3561              		.thumb
 3562              		.thumb_func
 3563              		.type	HAL_RCCEx_EnableLSECSS_IT, %function
 3564              	HAL_RCCEx_EnableLSECSS_IT:
 3565              	.LFB136:
 3566              		.loc 1 1855 0
 3567              		.cfi_startproc
 3568              		@ args = 0, pretend = 0, frame = 0
 3569              		@ frame_needed = 0, uses_anonymous_args = 0
 3570              		@ link register save eliminated.
 3571              		.loc 1 1857 0
 3572 17b0 0D4B     		ldr	r3, .L290
 3573 17b2 0D4A     		ldr	r2, .L290
 3574 17b4 D2F89020 		ldr	r2, [r2, #144]
 3575 17b8 42F02002 		orr	r2, r2, #32
ARM GAS  /tmp/ccJqmpZo.s 			page 64


 3576 17bc C3F89020 		str	r2, [r3, #144]
 3577              		.loc 1 1860 0
 3578 17c0 094B     		ldr	r3, .L290
 3579 17c2 094A     		ldr	r2, .L290
 3580 17c4 9269     		ldr	r2, [r2, #24]
 3581 17c6 42F40072 		orr	r2, r2, #512
 3582 17ca 9A61     		str	r2, [r3, #24]
 3583              		.loc 1 1863 0
 3584 17cc 074B     		ldr	r3, .L290+4
 3585 17ce 074A     		ldr	r2, .L290+4
 3586 17d0 1268     		ldr	r2, [r2]
 3587 17d2 42F40022 		orr	r2, r2, #524288
 3588 17d6 1A60     		str	r2, [r3]
 3589              		.loc 1 1864 0
 3590 17d8 044B     		ldr	r3, .L290+4
 3591 17da 044A     		ldr	r2, .L290+4
 3592 17dc 9268     		ldr	r2, [r2, #8]
 3593 17de 42F40022 		orr	r2, r2, #524288
 3594 17e2 9A60     		str	r2, [r3, #8]
 3595              		.loc 1 1865 0
 3596 17e4 7047     		bx	lr
 3597              	.L291:
 3598 17e6 00BF     		.align	2
 3599              	.L290:
 3600 17e8 00100240 		.word	1073876992
 3601 17ec 00040140 		.word	1073808384
 3602              		.cfi_endproc
 3603              	.LFE136:
 3604              		.size	HAL_RCCEx_EnableLSECSS_IT, .-HAL_RCCEx_EnableLSECSS_IT
 3605              		.align	2
 3606              		.p2align 4,,15
 3607              		.global	HAL_RCCEx_LSECSS_IRQHandler
 3608              		.thumb
 3609              		.thumb_func
 3610              		.type	HAL_RCCEx_LSECSS_IRQHandler, %function
 3611              	HAL_RCCEx_LSECSS_IRQHandler:
 3612              	.LFB137:
 3613              		.loc 1 1872 0
 3614              		.cfi_startproc
 3615              		@ args = 0, pretend = 0, frame = 0
 3616              		@ frame_needed = 0, uses_anonymous_args = 0
 3617 17f0 08B5     		push	{r3, lr}
 3618              		.cfi_def_cfa_offset 8
 3619              		.cfi_offset 3, -8
 3620              		.cfi_offset 14, -4
 3621              		.loc 1 1874 0
 3622 17f2 064B     		ldr	r3, .L294
 3623 17f4 DB69     		ldr	r3, [r3, #28]
 3624 17f6 03F40073 		and	r3, r3, #512
 3625 17fa 002B     		cmp	r3, #0
 3626 17fc 05D0     		beq	.L292
 3627              		.loc 1 1877 0
 3628 17fe FFF7FEFF 		bl	HAL_RCCEx_LSECSS_Callback
 3629              		.loc 1 1880 0
 3630 1802 024B     		ldr	r3, .L294
 3631 1804 4FF40072 		mov	r2, #512
 3632 1808 1A62     		str	r2, [r3, #32]
ARM GAS  /tmp/ccJqmpZo.s 			page 65


 3633              	.L292:
 3634              		.loc 1 1882 0
 3635 180a 08BD     		pop	{r3, pc}
 3636              	.L295:
 3637              		.align	2
 3638              	.L294:
 3639 180c 00100240 		.word	1073876992
 3640              		.cfi_endproc
 3641              	.LFE137:
 3642              		.size	HAL_RCCEx_LSECSS_IRQHandler, .-HAL_RCCEx_LSECSS_IRQHandler
 3643              		.align	2
 3644              		.p2align 4,,15
 3645              		.weak	HAL_RCCEx_LSECSS_Callback
 3646              		.thumb
 3647              		.thumb_func
 3648              		.type	HAL_RCCEx_LSECSS_Callback, %function
 3649              	HAL_RCCEx_LSECSS_Callback:
 3650              	.LFB138:
 3651              		.loc 1 1889 0
 3652              		.cfi_startproc
 3653              		@ args = 0, pretend = 0, frame = 0
 3654              		@ frame_needed = 0, uses_anonymous_args = 0
 3655              		@ link register save eliminated.
 3656              		.loc 1 1893 0
 3657 1810 7047     		bx	lr
 3658              		.cfi_endproc
 3659              	.LFE138:
 3660              		.size	HAL_RCCEx_LSECSS_Callback, .-HAL_RCCEx_LSECSS_Callback
 3661 1812 00BF     		.align	2
 3662 1814 AFF30080 		.p2align 4,,15
 3662      AFF30080 
 3662      AFF30080 
 3663              		.global	HAL_RCCEx_EnableLSCO
 3664              		.thumb
 3665              		.thumb_func
 3666              		.type	HAL_RCCEx_EnableLSCO, %function
 3667              	HAL_RCCEx_EnableLSCO:
 3668              	.LFB139:
 3669              		.loc 1 1904 0
 3670              		.cfi_startproc
 3671              		@ args = 0, pretend = 0, frame = 40
 3672              		@ frame_needed = 0, uses_anonymous_args = 0
 3673 1820 00B5     		push	{lr}
 3674              		.cfi_def_cfa_offset 4
 3675              		.cfi_offset 14, -4
 3676 1822 8BB0     		sub	sp, sp, #44
 3677              		.cfi_def_cfa_offset 48
 3678 1824 0190     		str	r0, [sp, #4]
 3679              		.loc 1 1906 0
 3680 1826 0023     		movs	r3, #0
 3681 1828 8DF82730 		strb	r3, [sp, #39]
 3682              		.loc 1 1907 0
 3683 182c 0023     		movs	r3, #0
 3684 182e 8DF82630 		strb	r3, [sp, #38]
 3685              	.LBB144:
 3686              		.loc 1 1913 0
 3687 1832 2C4B     		ldr	r3, .L302
ARM GAS  /tmp/ccJqmpZo.s 			page 66


 3688 1834 2B4A     		ldr	r2, .L302
 3689 1836 D26C     		ldr	r2, [r2, #76]
 3690 1838 42F00102 		orr	r2, r2, #1
 3691 183c DA64     		str	r2, [r3, #76]
 3692 183e 294B     		ldr	r3, .L302
 3693 1840 DB6C     		ldr	r3, [r3, #76]
 3694 1842 03F00103 		and	r3, r3, #1
 3695 1846 0393     		str	r3, [sp, #12]
 3696 1848 039B     		ldr	r3, [sp, #12]
 3697              	.LBE144:
 3698              		.loc 1 1916 0
 3699 184a 0423     		movs	r3, #4
 3700 184c 0493     		str	r3, [sp, #16]
 3701              		.loc 1 1917 0
 3702 184e 0323     		movs	r3, #3
 3703 1850 0593     		str	r3, [sp, #20]
 3704              		.loc 1 1918 0
 3705 1852 0223     		movs	r3, #2
 3706 1854 0793     		str	r3, [sp, #28]
 3707              		.loc 1 1919 0
 3708 1856 0023     		movs	r3, #0
 3709 1858 0693     		str	r3, [sp, #24]
 3710              		.loc 1 1920 0
 3711 185a 04AB     		add	r3, sp, #16
 3712 185c 4FF09040 		mov	r0, #1207959552
 3713 1860 1946     		mov	r1, r3
 3714 1862 FFF7FEFF 		bl	HAL_GPIO_Init
 3715              		.loc 1 1923 0
 3716 1866 1F4B     		ldr	r3, .L302
 3717 1868 9B6D     		ldr	r3, [r3, #88]
 3718 186a 03F08053 		and	r3, r3, #268435456
 3719 186e 002B     		cmp	r3, #0
 3720 1870 0ED1     		bne	.L298
 3721              	.LBB145:
 3722              		.loc 1 1925 0
 3723 1872 1C4B     		ldr	r3, .L302
 3724 1874 1B4A     		ldr	r2, .L302
 3725 1876 926D     		ldr	r2, [r2, #88]
 3726 1878 42F08052 		orr	r2, r2, #268435456
 3727 187c 9A65     		str	r2, [r3, #88]
 3728 187e 194B     		ldr	r3, .L302
 3729 1880 9B6D     		ldr	r3, [r3, #88]
 3730 1882 03F08053 		and	r3, r3, #268435456
 3731 1886 0293     		str	r3, [sp, #8]
 3732 1888 029B     		ldr	r3, [sp, #8]
 3733              	.LBE145:
 3734              		.loc 1 1926 0
 3735 188a 0123     		movs	r3, #1
 3736 188c 8DF82730 		strb	r3, [sp, #39]
 3737              	.L298:
 3738              		.loc 1 1928 0
 3739 1890 154B     		ldr	r3, .L302+4
 3740 1892 1B68     		ldr	r3, [r3]
 3741 1894 03F48073 		and	r3, r3, #256
 3742 1898 002B     		cmp	r3, #0
 3743 189a 04D1     		bne	.L299
 3744              		.loc 1 1930 0
ARM GAS  /tmp/ccJqmpZo.s 			page 67


 3745 189c FFF7FEFF 		bl	HAL_PWR_EnableBkUpAccess
 3746              		.loc 1 1931 0
 3747 18a0 0123     		movs	r3, #1
 3748 18a2 8DF82630 		strb	r3, [sp, #38]
 3749              	.L299:
 3750              		.loc 1 1934 0
 3751 18a6 0F4B     		ldr	r3, .L302
 3752 18a8 0E4A     		ldr	r2, .L302
 3753 18aa D2F89020 		ldr	r2, [r2, #144]
 3754 18ae 22F04071 		bic	r1, r2, #50331648
 3755 18b2 019A     		ldr	r2, [sp, #4]
 3756 18b4 0A43     		orrs	r2, r2, r1
 3757 18b6 42F08072 		orr	r2, r2, #16777216
 3758 18ba C3F89020 		str	r2, [r3, #144]
 3759              		.loc 1 1936 0
 3760 18be 9DF82630 		ldrb	r3, [sp, #38]	@ zero_extendqisi2
 3761 18c2 012B     		cmp	r3, #1
 3762 18c4 01D1     		bne	.L300
 3763              		.loc 1 1938 0
 3764 18c6 FFF7FEFF 		bl	HAL_PWR_DisableBkUpAccess
 3765              	.L300:
 3766              		.loc 1 1940 0
 3767 18ca 9DF82730 		ldrb	r3, [sp, #39]	@ zero_extendqisi2
 3768 18ce 012B     		cmp	r3, #1
 3769 18d0 05D1     		bne	.L297
 3770              		.loc 1 1942 0
 3771 18d2 044B     		ldr	r3, .L302
 3772 18d4 034A     		ldr	r2, .L302
 3773 18d6 926D     		ldr	r2, [r2, #88]
 3774 18d8 22F08052 		bic	r2, r2, #268435456
 3775 18dc 9A65     		str	r2, [r3, #88]
 3776              	.L297:
 3777              		.loc 1 1944 0
 3778 18de 0BB0     		add	sp, sp, #44
 3779              		@ sp needed
 3780 18e0 5DF804FB 		ldr	pc, [sp], #4
 3781              	.L303:
 3782              		.align	2
 3783              	.L302:
 3784 18e4 00100240 		.word	1073876992
 3785 18e8 00700040 		.word	1073770496
 3786              		.cfi_endproc
 3787              	.LFE139:
 3788              		.size	HAL_RCCEx_EnableLSCO, .-HAL_RCCEx_EnableLSCO
 3789              		.align	2
 3790 18ec AFF30080 		.p2align 4,,15
 3791              		.global	HAL_RCCEx_DisableLSCO
 3792              		.thumb
 3793              		.thumb_func
 3794              		.type	HAL_RCCEx_DisableLSCO, %function
 3795              	HAL_RCCEx_DisableLSCO:
 3796              	.LFB140:
 3797              		.loc 1 1951 0
 3798              		.cfi_startproc
 3799              		@ args = 0, pretend = 0, frame = 8
 3800              		@ frame_needed = 0, uses_anonymous_args = 0
 3801 18f0 00B5     		push	{lr}
ARM GAS  /tmp/ccJqmpZo.s 			page 68


 3802              		.cfi_def_cfa_offset 4
 3803              		.cfi_offset 14, -4
 3804 18f2 83B0     		sub	sp, sp, #12
 3805              		.cfi_def_cfa_offset 16
 3806              		.loc 1 1952 0
 3807 18f4 0023     		movs	r3, #0
 3808 18f6 8DF80730 		strb	r3, [sp, #7]
 3809              		.loc 1 1953 0
 3810 18fa 0023     		movs	r3, #0
 3811 18fc 8DF80630 		strb	r3, [sp, #6]
 3812              		.loc 1 1956 0
 3813 1900 1D4B     		ldr	r3, .L309
 3814 1902 9B6D     		ldr	r3, [r3, #88]
 3815 1904 03F08053 		and	r3, r3, #268435456
 3816 1908 002B     		cmp	r3, #0
 3817 190a 0ED1     		bne	.L305
 3818              	.LBB146:
 3819              		.loc 1 1958 0
 3820 190c 1A4B     		ldr	r3, .L309
 3821 190e 1A4A     		ldr	r2, .L309
 3822 1910 926D     		ldr	r2, [r2, #88]
 3823 1912 42F08052 		orr	r2, r2, #268435456
 3824 1916 9A65     		str	r2, [r3, #88]
 3825 1918 174B     		ldr	r3, .L309
 3826 191a 9B6D     		ldr	r3, [r3, #88]
 3827 191c 03F08053 		and	r3, r3, #268435456
 3828 1920 0093     		str	r3, [sp]
 3829 1922 009B     		ldr	r3, [sp]
 3830              	.LBE146:
 3831              		.loc 1 1959 0
 3832 1924 0123     		movs	r3, #1
 3833 1926 8DF80730 		strb	r3, [sp, #7]
 3834              	.L305:
 3835              		.loc 1 1961 0
 3836 192a 144B     		ldr	r3, .L309+4
 3837 192c 1B68     		ldr	r3, [r3]
 3838 192e 03F48073 		and	r3, r3, #256
 3839 1932 002B     		cmp	r3, #0
 3840 1934 04D1     		bne	.L306
 3841              		.loc 1 1964 0
 3842 1936 FFF7FEFF 		bl	HAL_PWR_EnableBkUpAccess
 3843              		.loc 1 1965 0
 3844 193a 0123     		movs	r3, #1
 3845 193c 8DF80630 		strb	r3, [sp, #6]
 3846              	.L306:
 3847              		.loc 1 1968 0
 3848 1940 0D4B     		ldr	r3, .L309
 3849 1942 0D4A     		ldr	r2, .L309
 3850 1944 D2F89020 		ldr	r2, [r2, #144]
 3851 1948 22F08072 		bic	r2, r2, #16777216
 3852 194c C3F89020 		str	r2, [r3, #144]
 3853              		.loc 1 1971 0
 3854 1950 9DF80630 		ldrb	r3, [sp, #6]	@ zero_extendqisi2
 3855 1954 012B     		cmp	r3, #1
 3856 1956 01D1     		bne	.L307
 3857              		.loc 1 1974 0
 3858 1958 FFF7FEFF 		bl	HAL_PWR_DisableBkUpAccess
ARM GAS  /tmp/ccJqmpZo.s 			page 69


 3859              	.L307:
 3860              		.loc 1 1976 0
 3861 195c 9DF80730 		ldrb	r3, [sp, #7]	@ zero_extendqisi2
 3862 1960 012B     		cmp	r3, #1
 3863 1962 05D1     		bne	.L304
 3864              		.loc 1 1978 0
 3865 1964 044B     		ldr	r3, .L309
 3866 1966 044A     		ldr	r2, .L309
 3867 1968 926D     		ldr	r2, [r2, #88]
 3868 196a 22F08052 		bic	r2, r2, #268435456
 3869 196e 9A65     		str	r2, [r3, #88]
 3870              	.L304:
 3871              		.loc 1 1980 0
 3872 1970 03B0     		add	sp, sp, #12
 3873              		@ sp needed
 3874 1972 5DF804FB 		ldr	pc, [sp], #4
 3875              	.L310:
 3876 1976 00BF     		.align	2
 3877              	.L309:
 3878 1978 00100240 		.word	1073876992
 3879 197c 00700040 		.word	1073770496
 3880              		.cfi_endproc
 3881              	.LFE140:
 3882              		.size	HAL_RCCEx_DisableLSCO, .-HAL_RCCEx_DisableLSCO
 3883              		.align	2
 3884              		.p2align 4,,15
 3885              		.global	HAL_RCCEx_EnableMSIPLLMode
 3886              		.thumb
 3887              		.thumb_func
 3888              		.type	HAL_RCCEx_EnableMSIPLLMode, %function
 3889              	HAL_RCCEx_EnableMSIPLLMode:
 3890              	.LFB141:
 3891              		.loc 1 1989 0
 3892              		.cfi_startproc
 3893              		@ args = 0, pretend = 0, frame = 0
 3894              		@ frame_needed = 0, uses_anonymous_args = 0
 3895              		@ link register save eliminated.
 3896              		.loc 1 1990 0
 3897 1980 034B     		ldr	r3, .L312
 3898 1982 034A     		ldr	r2, .L312
 3899 1984 1268     		ldr	r2, [r2]
 3900 1986 42F00402 		orr	r2, r2, #4
 3901 198a 1A60     		str	r2, [r3]
 3902              		.loc 1 1991 0
 3903 198c 7047     		bx	lr
 3904              	.L313:
 3905 198e 00BF     		.align	2
 3906              	.L312:
 3907 1990 00100240 		.word	1073876992
 3908              		.cfi_endproc
 3909              	.LFE141:
 3910              		.size	HAL_RCCEx_EnableMSIPLLMode, .-HAL_RCCEx_EnableMSIPLLMode
 3911              		.align	2
 3912 1994 AFF30080 		.p2align 4,,15
 3912      AFF30080 
 3912      AFF30080 
 3913              		.global	HAL_RCCEx_DisableMSIPLLMode
ARM GAS  /tmp/ccJqmpZo.s 			page 70


 3914              		.thumb
 3915              		.thumb_func
 3916              		.type	HAL_RCCEx_DisableMSIPLLMode, %function
 3917              	HAL_RCCEx_DisableMSIPLLMode:
 3918              	.LFB142:
 3919              		.loc 1 1999 0
 3920              		.cfi_startproc
 3921              		@ args = 0, pretend = 0, frame = 0
 3922              		@ frame_needed = 0, uses_anonymous_args = 0
 3923              		@ link register save eliminated.
 3924              		.loc 1 2000 0
 3925 19a0 034B     		ldr	r3, .L315
 3926 19a2 034A     		ldr	r2, .L315
 3927 19a4 1268     		ldr	r2, [r2]
 3928 19a6 22F00402 		bic	r2, r2, #4
 3929 19aa 1A60     		str	r2, [r3]
 3930              		.loc 1 2001 0
 3931 19ac 7047     		bx	lr
 3932              	.L316:
 3933 19ae 00BF     		.align	2
 3934              	.L315:
 3935 19b0 00100240 		.word	1073876992
 3936              		.cfi_endproc
 3937              	.LFE142:
 3938              		.size	HAL_RCCEx_DisableMSIPLLMode, .-HAL_RCCEx_DisableMSIPLLMode
 3939              		.align	2
 3940 19b4 AFF30080 		.p2align 4,,15
 3940      AFF30080 
 3940      AFF30080 
 3941              		.thumb
 3942              		.thumb_func
 3943              		.type	RCCEx_PLLSAI1_Config, %function
 3944              	RCCEx_PLLSAI1_Config:
 3945              	.LFB143:
 3946              		.loc 1 2384 0
 3947              		.cfi_startproc
 3948              		@ args = 0, pretend = 0, frame = 80
 3949              		@ frame_needed = 0, uses_anonymous_args = 0
 3950 19c0 10B5     		push	{r4, lr}
 3951              		.cfi_def_cfa_offset 8
 3952              		.cfi_offset 4, -8
 3953              		.cfi_offset 14, -4
 3954 19c2 94B0     		sub	sp, sp, #80
 3955              		.cfi_def_cfa_offset 88
 3956 19c4 0190     		str	r0, [sp, #4]
 3957 19c6 0091     		str	r1, [sp]
 3958              		.loc 1 2385 0
 3959 19c8 0023     		movs	r3, #0
 3960 19ca 1293     		str	r3, [sp, #72]
 3961              		.loc 1 2386 0
 3962 19cc 0023     		movs	r3, #0
 3963 19ce 8DF84F30 		strb	r3, [sp, #79]
 3964              		.loc 1 2396 0
 3965 19d2 A24B     		ldr	r3, .L350
 3966 19d4 DB68     		ldr	r3, [r3, #12]
 3967 19d6 03F00303 		and	r3, r3, #3
 3968 19da 002B     		cmp	r3, #0
ARM GAS  /tmp/ccJqmpZo.s 			page 71


 3969 19dc 23D0     		beq	.L318
 3970              		.loc 1 2399 0
 3971 19de 9F4B     		ldr	r3, .L350
 3972 19e0 DB68     		ldr	r3, [r3, #12]
 3973 19e2 03F00302 		and	r2, r3, #3
 3974 19e6 019B     		ldr	r3, [sp, #4]
 3975 19e8 1B68     		ldr	r3, [r3]
 3976 19ea 9A42     		cmp	r2, r3
 3977 19ec 17D1     		bne	.L319
 3978              		.loc 1 2401 0
 3979 19ee 019B     		ldr	r3, [sp, #4]
 3980 19f0 1B68     		ldr	r3, [r3]
 3981              		.loc 1 2400 0
 3982 19f2 002B     		cmp	r3, #0
 3983 19f4 13D0     		beq	.L319
 3984              		.loc 1 2403 0
 3985 19f6 994B     		ldr	r3, .L350
 3986 19f8 DB68     		ldr	r3, [r3, #12]
 3987 19fa 03F07002 		and	r2, r3, #112
 3988 19fe 7023     		movs	r3, #112
 3989 1a00 1193     		str	r3, [sp, #68]
 3990              	.LBB147:
 3991              	.LBB148:
 3992              		.loc 2 586 0
 3993 1a02 119B     		ldr	r3, [sp, #68]
 3994              	@ 586 "../../../../../../ChibiOS/os/ext/CMSIS/include/core_cmInstr.h" 1
 3995 1a04 93FAA3F3 		rbit r3, r3
 3996              	@ 0 "" 2
 3997              		.thumb
 3998 1a08 1093     		str	r3, [sp, #64]
 3999              		.loc 2 599 0
 4000 1a0a 109B     		ldr	r3, [sp, #64]
 4001              	.LBE148:
 4002              	.LBE147:
 4003              		.loc 1 2403 0
 4004 1a0c B3FA83F3 		clz	r3, r3
 4005 1a10 22FA03F3 		lsr	r3, r2, r3
 4006 1a14 5A1C     		adds	r2, r3, #1
 4007 1a16 019B     		ldr	r3, [sp, #4]
 4008 1a18 5B68     		ldr	r3, [r3, #4]
 4009              		.loc 1 2402 0
 4010 1a1a 9A42     		cmp	r2, r3
 4011 1a1c 52D0     		beq	.L322
 4012              	.L319:
 4013              		.loc 1 2406 0
 4014 1a1e 0123     		movs	r3, #1
 4015 1a20 8DF84F30 		strb	r3, [sp, #79]
 4016 1a24 4EE0     		b	.L322
 4017              	.L318:
 4018              		.loc 1 2412 0
 4019 1a26 019B     		ldr	r3, [sp, #4]
 4020 1a28 1B68     		ldr	r3, [r3]
 4021 1a2a 022B     		cmp	r3, #2
 4022 1a2c 0ED0     		beq	.L324
 4023 1a2e 032B     		cmp	r3, #3
 4024 1a30 17D0     		beq	.L325
 4025 1a32 012B     		cmp	r3, #1
ARM GAS  /tmp/ccJqmpZo.s 			page 72


 4026 1a34 26D1     		bne	.L349
 4027              		.loc 1 2415 0
 4028 1a36 894B     		ldr	r3, .L350
 4029 1a38 1B68     		ldr	r3, [r3]
 4030 1a3a 03F00203 		and	r3, r3, #2
 4031 1a3e 002B     		cmp	r3, #0
 4032 1a40 03D1     		bne	.L327
 4033              		.loc 1 2417 0
 4034 1a42 0123     		movs	r3, #1
 4035 1a44 8DF84F30 		strb	r3, [sp, #79]
 4036              		.loc 1 2419 0
 4037 1a48 20E0     		b	.L328
 4038              	.L327:
 4039 1a4a 1FE0     		b	.L328
 4040              	.L324:
 4041              		.loc 1 2421 0
 4042 1a4c 834B     		ldr	r3, .L350
 4043 1a4e 1B68     		ldr	r3, [r3]
 4044 1a50 03F48063 		and	r3, r3, #1024
 4045 1a54 002B     		cmp	r3, #0
 4046 1a56 03D1     		bne	.L329
 4047              		.loc 1 2423 0
 4048 1a58 0123     		movs	r3, #1
 4049 1a5a 8DF84F30 		strb	r3, [sp, #79]
 4050              		.loc 1 2425 0
 4051 1a5e 15E0     		b	.L328
 4052              	.L329:
 4053 1a60 14E0     		b	.L328
 4054              	.L325:
 4055              		.loc 1 2427 0
 4056 1a62 7E4B     		ldr	r3, .L350
 4057 1a64 1B68     		ldr	r3, [r3]
 4058 1a66 03F40033 		and	r3, r3, #131072
 4059 1a6a 002B     		cmp	r3, #0
 4060 1a6c 09D1     		bne	.L330
 4061              		.loc 1 2427 0 is_stmt 0 discriminator 1
 4062 1a6e 7B4B     		ldr	r3, .L350
 4063 1a70 1B68     		ldr	r3, [r3]
 4064 1a72 03F48023 		and	r3, r3, #262144
 4065 1a76 002B     		cmp	r3, #0
 4066 1a78 03D1     		bne	.L330
 4067              		.loc 1 2429 0 is_stmt 1
 4068 1a7a 0123     		movs	r3, #1
 4069 1a7c 8DF84F30 		strb	r3, [sp, #79]
 4070              		.loc 1 2431 0
 4071 1a80 04E0     		b	.L328
 4072              	.L330:
 4073 1a82 03E0     		b	.L328
 4074              	.L349:
 4075              		.loc 1 2433 0
 4076 1a84 0123     		movs	r3, #1
 4077 1a86 8DF84F30 		strb	r3, [sp, #79]
 4078              		.loc 1 2434 0
 4079 1a8a 00BF     		nop
 4080              	.L328:
 4081              		.loc 1 2437 0
 4082 1a8c 9DF84F30 		ldrb	r3, [sp, #79]	@ zero_extendqisi2
ARM GAS  /tmp/ccJqmpZo.s 			page 73


 4083 1a90 002B     		cmp	r3, #0
 4084 1a92 17D1     		bne	.L322
 4085              		.loc 1 2440 0
 4086 1a94 714B     		ldr	r3, .L350
 4087 1a96 714A     		ldr	r2, .L350
 4088 1a98 D268     		ldr	r2, [r2, #12]
 4089 1a9a 22F07301 		bic	r1, r2, #115
 4090 1a9e 019A     		ldr	r2, [sp, #4]
 4091 1aa0 1068     		ldr	r0, [r2]
 4092 1aa2 019A     		ldr	r2, [sp, #4]
 4093 1aa4 5268     		ldr	r2, [r2, #4]
 4094 1aa6 541E     		subs	r4, r2, #1
 4095 1aa8 7022     		movs	r2, #112
 4096 1aaa 0F92     		str	r2, [sp, #60]
 4097              	.LBB149:
 4098              	.LBB150:
 4099              		.loc 2 586 0
 4100 1aac 0F9A     		ldr	r2, [sp, #60]
 4101              	@ 586 "../../../../../../ChibiOS/os/ext/CMSIS/include/core_cmInstr.h" 1
 4102 1aae 92FAA2F2 		rbit r2, r2
 4103              	@ 0 "" 2
 4104              		.thumb
 4105 1ab2 0E92     		str	r2, [sp, #56]
 4106              		.loc 2 599 0
 4107 1ab4 0E9A     		ldr	r2, [sp, #56]
 4108              	.LBE150:
 4109              	.LBE149:
 4110              		.loc 1 2440 0
 4111 1ab6 B2FA82F2 		clz	r2, r2
 4112 1aba 04FA02F2 		lsl	r2, r4, r2
 4113 1abe 0243     		orrs	r2, r2, r0
 4114 1ac0 0A43     		orrs	r2, r2, r1
 4115 1ac2 DA60     		str	r2, [r3, #12]
 4116              	.L322:
 4117              		.loc 1 2444 0
 4118 1ac4 9DF84F30 		ldrb	r3, [sp, #79]	@ zero_extendqisi2
 4119 1ac8 002B     		cmp	r3, #0
 4120 1aca 40F0C280 		bne	.L332
 4121              		.loc 1 2447 0
 4122 1ace 634B     		ldr	r3, .L350
 4123 1ad0 624A     		ldr	r2, .L350
 4124 1ad2 1268     		ldr	r2, [r2]
 4125 1ad4 22F08062 		bic	r2, r2, #67108864
 4126 1ad8 1A60     		str	r2, [r3]
 4127              		.loc 1 2450 0
 4128 1ada FFF7FEFF 		bl	HAL_GetTick
 4129 1ade 1290     		str	r0, [sp, #72]
 4130              		.loc 1 2453 0
 4131 1ae0 0AE0     		b	.L333
 4132              	.L335:
 4133              		.loc 1 2455 0
 4134 1ae2 FFF7FEFF 		bl	HAL_GetTick
 4135 1ae6 0246     		mov	r2, r0
 4136 1ae8 129B     		ldr	r3, [sp, #72]
 4137 1aea D31A     		subs	r3, r2, r3
 4138 1aec 022B     		cmp	r3, #2
 4139 1aee 03D9     		bls	.L333
ARM GAS  /tmp/ccJqmpZo.s 			page 74


 4140              		.loc 1 2457 0
 4141 1af0 0323     		movs	r3, #3
 4142 1af2 8DF84F30 		strb	r3, [sp, #79]
 4143              		.loc 1 2458 0
 4144 1af6 05E0     		b	.L334
 4145              	.L333:
 4146              		.loc 1 2453 0 discriminator 1
 4147 1af8 584B     		ldr	r3, .L350
 4148 1afa 1B68     		ldr	r3, [r3]
 4149 1afc 03F00063 		and	r3, r3, #134217728
 4150 1b00 002B     		cmp	r3, #0
 4151 1b02 EED1     		bne	.L335
 4152              	.L334:
 4153              		.loc 1 2462 0
 4154 1b04 9DF84F30 		ldrb	r3, [sp, #79]	@ zero_extendqisi2
 4155 1b08 002B     		cmp	r3, #0
 4156 1b0a 40F0A280 		bne	.L332
 4157              		.loc 1 2464 0
 4158 1b0e 009B     		ldr	r3, [sp]
 4159 1b10 002B     		cmp	r3, #0
 4160 1b12 26D1     		bne	.L336
 4161              		.loc 1 2474 0
 4162 1b14 514A     		ldr	r2, .L350
 4163 1b16 514B     		ldr	r3, .L350
 4164 1b18 1B69     		ldr	r3, [r3, #16]
 4165 1b1a 23F41F33 		bic	r3, r3, #162816
 4166 1b1e 23F44073 		bic	r3, r3, #768
 4167 1b22 0199     		ldr	r1, [sp, #4]
 4168 1b24 8868     		ldr	r0, [r1, #8]
 4169 1b26 4FF4FE41 		mov	r1, #32512
 4170 1b2a 0D91     		str	r1, [sp, #52]
 4171              	.LBB151:
 4172              	.LBB152:
 4173              		.loc 2 586 0
 4174 1b2c 0D99     		ldr	r1, [sp, #52]
 4175              	@ 586 "../../../../../../ChibiOS/os/ext/CMSIS/include/core_cmInstr.h" 1
 4176 1b2e 91FAA1F1 		rbit r1, r1
 4177              	@ 0 "" 2
 4178              		.thumb
 4179 1b32 0C91     		str	r1, [sp, #48]
 4180              		.loc 2 599 0
 4181 1b34 0C99     		ldr	r1, [sp, #48]
 4182              	.LBE152:
 4183              	.LBE151:
 4184              		.loc 1 2474 0
 4185 1b36 B1FA81F1 		clz	r1, r1
 4186 1b3a 8840     		lsls	r0, r0, r1
 4187 1b3c 0199     		ldr	r1, [sp, #4]
 4188 1b3e C968     		ldr	r1, [r1, #12]
 4189 1b40 0C09     		lsrs	r4, r1, #4
 4190 1b42 4FF40031 		mov	r1, #131072
 4191 1b46 0B91     		str	r1, [sp, #44]
 4192              	.LBB153:
 4193              	.LBB154:
 4194              		.loc 2 586 0
 4195 1b48 0B99     		ldr	r1, [sp, #44]
 4196              	@ 586 "../../../../../../ChibiOS/os/ext/CMSIS/include/core_cmInstr.h" 1
ARM GAS  /tmp/ccJqmpZo.s 			page 75


 4197 1b4a 91FAA1F1 		rbit r1, r1
 4198              	@ 0 "" 2
 4199              		.thumb
 4200 1b4e 0A91     		str	r1, [sp, #40]
 4201              		.loc 2 599 0
 4202 1b50 0A99     		ldr	r1, [sp, #40]
 4203              	.LBE154:
 4204              	.LBE153:
 4205              		.loc 1 2474 0
 4206 1b52 B1FA81F1 		clz	r1, r1
 4207 1b56 04FA01F1 		lsl	r1, r4, r1
 4208 1b5a 0143     		orrs	r1, r1, r0
 4209 1b5c 0B43     		orrs	r3, r3, r1
 4210 1b5e 1361     		str	r3, [r2, #16]
 4211 1b60 51E0     		b	.L339
 4212              	.L336:
 4213              		.loc 1 2480 0
 4214 1b62 009B     		ldr	r3, [sp]
 4215 1b64 012B     		cmp	r3, #1
 4216 1b66 27D1     		bne	.L340
 4217              		.loc 1 2484 0
 4218 1b68 3C4A     		ldr	r2, .L350
 4219 1b6a 3C4B     		ldr	r3, .L350
 4220 1b6c 1B69     		ldr	r3, [r3, #16]
 4221 1b6e 23F4C003 		bic	r3, r3, #6291456
 4222 1b72 23F4FE43 		bic	r3, r3, #32512
 4223 1b76 0199     		ldr	r1, [sp, #4]
 4224 1b78 8868     		ldr	r0, [r1, #8]
 4225 1b7a 4FF4FE41 		mov	r1, #32512
 4226 1b7e 0991     		str	r1, [sp, #36]
 4227              	.LBB155:
 4228              	.LBB156:
 4229              		.loc 2 586 0
 4230 1b80 0999     		ldr	r1, [sp, #36]
 4231              	@ 586 "../../../../../../ChibiOS/os/ext/CMSIS/include/core_cmInstr.h" 1
 4232 1b82 91FAA1F1 		rbit r1, r1
 4233              	@ 0 "" 2
 4234              		.thumb
 4235 1b86 0891     		str	r1, [sp, #32]
 4236              		.loc 2 599 0
 4237 1b88 0899     		ldr	r1, [sp, #32]
 4238              	.LBE156:
 4239              	.LBE155:
 4240              		.loc 1 2484 0
 4241 1b8a B1FA81F1 		clz	r1, r1
 4242 1b8e 8840     		lsls	r0, r0, r1
 4243 1b90 0199     		ldr	r1, [sp, #4]
 4244 1b92 0969     		ldr	r1, [r1, #16]
 4245 1b94 4908     		lsrs	r1, r1, #1
 4246 1b96 4C1E     		subs	r4, r1, #1
 4247 1b98 4FF4C001 		mov	r1, #6291456
 4248 1b9c 0791     		str	r1, [sp, #28]
 4249              	.LBB157:
 4250              	.LBB158:
 4251              		.loc 2 586 0
 4252 1b9e 0799     		ldr	r1, [sp, #28]
 4253              	@ 586 "../../../../../../ChibiOS/os/ext/CMSIS/include/core_cmInstr.h" 1
ARM GAS  /tmp/ccJqmpZo.s 			page 76


 4254 1ba0 91FAA1F1 		rbit r1, r1
 4255              	@ 0 "" 2
 4256              		.thumb
 4257 1ba4 0691     		str	r1, [sp, #24]
 4258              		.loc 2 599 0
 4259 1ba6 0699     		ldr	r1, [sp, #24]
 4260              	.LBE158:
 4261              	.LBE157:
 4262              		.loc 1 2484 0
 4263 1ba8 B1FA81F1 		clz	r1, r1
 4264 1bac 04FA01F1 		lsl	r1, r4, r1
 4265 1bb0 0143     		orrs	r1, r1, r0
 4266 1bb2 0B43     		orrs	r3, r3, r1
 4267 1bb4 1361     		str	r3, [r2, #16]
 4268 1bb6 26E0     		b	.L339
 4269              	.L340:
 4270              		.loc 1 2493 0
 4271 1bb8 284A     		ldr	r2, .L350
 4272 1bba 284B     		ldr	r3, .L350
 4273 1bbc 1B69     		ldr	r3, [r3, #16]
 4274 1bbe 23F0C063 		bic	r3, r3, #100663296
 4275 1bc2 23F4FE43 		bic	r3, r3, #32512
 4276 1bc6 0199     		ldr	r1, [sp, #4]
 4277 1bc8 8868     		ldr	r0, [r1, #8]
 4278 1bca 4FF4FE41 		mov	r1, #32512
 4279 1bce 0591     		str	r1, [sp, #20]
 4280              	.LBB159:
 4281              	.LBB160:
 4282              		.loc 2 586 0
 4283 1bd0 0599     		ldr	r1, [sp, #20]
 4284              	@ 586 "../../../../../../ChibiOS/os/ext/CMSIS/include/core_cmInstr.h" 1
 4285 1bd2 91FAA1F1 		rbit r1, r1
 4286              	@ 0 "" 2
 4287              		.thumb
 4288 1bd6 0491     		str	r1, [sp, #16]
 4289              		.loc 2 599 0
 4290 1bd8 0499     		ldr	r1, [sp, #16]
 4291              	.LBE160:
 4292              	.LBE159:
 4293              		.loc 1 2493 0
 4294 1bda B1FA81F1 		clz	r1, r1
 4295 1bde 8840     		lsls	r0, r0, r1
 4296 1be0 0199     		ldr	r1, [sp, #4]
 4297 1be2 4969     		ldr	r1, [r1, #20]
 4298 1be4 4908     		lsrs	r1, r1, #1
 4299 1be6 4C1E     		subs	r4, r1, #1
 4300 1be8 4FF0C061 		mov	r1, #100663296
 4301 1bec 0391     		str	r1, [sp, #12]
 4302              	.LBB161:
 4303              	.LBB162:
 4304              		.loc 2 586 0
 4305 1bee 0399     		ldr	r1, [sp, #12]
 4306              	@ 586 "../../../../../../ChibiOS/os/ext/CMSIS/include/core_cmInstr.h" 1
 4307 1bf0 91FAA1F1 		rbit r1, r1
 4308              	@ 0 "" 2
 4309              		.thumb
 4310 1bf4 0291     		str	r1, [sp, #8]
ARM GAS  /tmp/ccJqmpZo.s 			page 77


 4311              		.loc 2 599 0
 4312 1bf6 0299     		ldr	r1, [sp, #8]
 4313              	.LBE162:
 4314              	.LBE161:
 4315              		.loc 1 2493 0
 4316 1bf8 B1FA81F1 		clz	r1, r1
 4317 1bfc 04FA01F1 		lsl	r1, r4, r1
 4318 1c00 0143     		orrs	r1, r1, r0
 4319 1c02 0B43     		orrs	r3, r3, r1
 4320 1c04 1361     		str	r3, [r2, #16]
 4321              	.L339:
 4322              		.loc 1 2500 0
 4323 1c06 154B     		ldr	r3, .L350
 4324 1c08 144A     		ldr	r2, .L350
 4325 1c0a 1268     		ldr	r2, [r2]
 4326 1c0c 42F08062 		orr	r2, r2, #67108864
 4327 1c10 1A60     		str	r2, [r3]
 4328              		.loc 1 2503 0
 4329 1c12 FFF7FEFF 		bl	HAL_GetTick
 4330 1c16 1290     		str	r0, [sp, #72]
 4331              		.loc 1 2506 0
 4332 1c18 0AE0     		b	.L345
 4333              	.L347:
 4334              		.loc 1 2508 0
 4335 1c1a FFF7FEFF 		bl	HAL_GetTick
 4336 1c1e 0246     		mov	r2, r0
 4337 1c20 129B     		ldr	r3, [sp, #72]
 4338 1c22 D31A     		subs	r3, r2, r3
 4339 1c24 022B     		cmp	r3, #2
 4340 1c26 03D9     		bls	.L345
 4341              		.loc 1 2510 0
 4342 1c28 0323     		movs	r3, #3
 4343 1c2a 8DF84F30 		strb	r3, [sp, #79]
 4344              		.loc 1 2511 0
 4345 1c2e 05E0     		b	.L346
 4346              	.L345:
 4347              		.loc 1 2506 0 discriminator 1
 4348 1c30 0A4B     		ldr	r3, .L350
 4349 1c32 1B68     		ldr	r3, [r3]
 4350 1c34 03F00063 		and	r3, r3, #134217728
 4351 1c38 002B     		cmp	r3, #0
 4352 1c3a EED0     		beq	.L347
 4353              	.L346:
 4354              		.loc 1 2515 0
 4355 1c3c 9DF84F30 		ldrb	r3, [sp, #79]	@ zero_extendqisi2
 4356 1c40 002B     		cmp	r3, #0
 4357 1c42 06D1     		bne	.L332
 4358              		.loc 1 2518 0
 4359 1c44 054B     		ldr	r3, .L350
 4360 1c46 054A     		ldr	r2, .L350
 4361 1c48 1169     		ldr	r1, [r2, #16]
 4362 1c4a 019A     		ldr	r2, [sp, #4]
 4363 1c4c 9269     		ldr	r2, [r2, #24]
 4364 1c4e 0A43     		orrs	r2, r2, r1
 4365 1c50 1A61     		str	r2, [r3, #16]
 4366              	.L332:
 4367              		.loc 1 2523 0
ARM GAS  /tmp/ccJqmpZo.s 			page 78


 4368 1c52 9DF84F30 		ldrb	r3, [sp, #79]	@ zero_extendqisi2
 4369              		.loc 1 2524 0
 4370 1c56 1846     		mov	r0, r3
 4371 1c58 14B0     		add	sp, sp, #80
 4372              		@ sp needed
 4373 1c5a 10BD     		pop	{r4, pc}
 4374              	.L351:
 4375              		.align	2
 4376              	.L350:
 4377 1c5c 00100240 		.word	1073876992
 4378              		.cfi_endproc
 4379              	.LFE143:
 4380              		.size	RCCEx_PLLSAI1_Config, .-RCCEx_PLLSAI1_Config
 4381              		.align	2
 4382              		.p2align 4,,15
 4383              		.thumb
 4384              		.thumb_func
 4385              		.type	RCCEx_PLLSAI2_Config, %function
 4386              	RCCEx_PLLSAI2_Config:
 4387              	.LFB144:
 4388              		.loc 1 2539 0
 4389              		.cfi_startproc
 4390              		@ args = 0, pretend = 0, frame = 64
 4391              		@ frame_needed = 0, uses_anonymous_args = 0
 4392 1c60 10B5     		push	{r4, lr}
 4393              		.cfi_def_cfa_offset 8
 4394              		.cfi_offset 4, -8
 4395              		.cfi_offset 14, -4
 4396 1c62 90B0     		sub	sp, sp, #64
 4397              		.cfi_def_cfa_offset 72
 4398 1c64 0190     		str	r0, [sp, #4]
 4399 1c66 0091     		str	r1, [sp]
 4400              		.loc 1 2540 0
 4401 1c68 0023     		movs	r3, #0
 4402 1c6a 0E93     		str	r3, [sp, #56]
 4403              		.loc 1 2541 0
 4404 1c6c 0023     		movs	r3, #0
 4405 1c6e 8DF83F30 		strb	r3, [sp, #63]
 4406              		.loc 1 2551 0
 4407 1c72 8C4B     		ldr	r3, .L382
 4408 1c74 DB68     		ldr	r3, [r3, #12]
 4409 1c76 03F00303 		and	r3, r3, #3
 4410 1c7a 002B     		cmp	r3, #0
 4411 1c7c 23D0     		beq	.L353
 4412              		.loc 1 2554 0
 4413 1c7e 894B     		ldr	r3, .L382
 4414 1c80 DB68     		ldr	r3, [r3, #12]
 4415 1c82 03F00302 		and	r2, r3, #3
 4416 1c86 019B     		ldr	r3, [sp, #4]
 4417 1c88 1B68     		ldr	r3, [r3]
 4418 1c8a 9A42     		cmp	r2, r3
 4419 1c8c 17D1     		bne	.L354
 4420              		.loc 1 2556 0
 4421 1c8e 019B     		ldr	r3, [sp, #4]
 4422 1c90 1B68     		ldr	r3, [r3]
 4423              		.loc 1 2555 0
 4424 1c92 002B     		cmp	r3, #0
ARM GAS  /tmp/ccJqmpZo.s 			page 79


 4425 1c94 13D0     		beq	.L354
 4426              		.loc 1 2558 0
 4427 1c96 834B     		ldr	r3, .L382
 4428 1c98 DB68     		ldr	r3, [r3, #12]
 4429 1c9a 03F07002 		and	r2, r3, #112
 4430 1c9e 7023     		movs	r3, #112
 4431 1ca0 0D93     		str	r3, [sp, #52]
 4432              	.LBB163:
 4433              	.LBB164:
 4434              		.loc 2 586 0
 4435 1ca2 0D9B     		ldr	r3, [sp, #52]
 4436              	@ 586 "../../../../../../ChibiOS/os/ext/CMSIS/include/core_cmInstr.h" 1
 4437 1ca4 93FAA3F3 		rbit r3, r3
 4438              	@ 0 "" 2
 4439              		.thumb
 4440 1ca8 0C93     		str	r3, [sp, #48]
 4441              		.loc 2 599 0
 4442 1caa 0C9B     		ldr	r3, [sp, #48]
 4443              	.LBE164:
 4444              	.LBE163:
 4445              		.loc 1 2558 0
 4446 1cac B3FA83F3 		clz	r3, r3
 4447 1cb0 22FA03F3 		lsr	r3, r2, r3
 4448 1cb4 5A1C     		adds	r2, r3, #1
 4449 1cb6 019B     		ldr	r3, [sp, #4]
 4450 1cb8 5B68     		ldr	r3, [r3, #4]
 4451              		.loc 1 2557 0
 4452 1cba 9A42     		cmp	r2, r3
 4453 1cbc 52D0     		beq	.L357
 4454              	.L354:
 4455              		.loc 1 2561 0
 4456 1cbe 0123     		movs	r3, #1
 4457 1cc0 8DF83F30 		strb	r3, [sp, #63]
 4458 1cc4 4EE0     		b	.L357
 4459              	.L353:
 4460              		.loc 1 2567 0
 4461 1cc6 019B     		ldr	r3, [sp, #4]
 4462 1cc8 1B68     		ldr	r3, [r3]
 4463 1cca 022B     		cmp	r3, #2
 4464 1ccc 0ED0     		beq	.L359
 4465 1cce 032B     		cmp	r3, #3
 4466 1cd0 17D0     		beq	.L360
 4467 1cd2 012B     		cmp	r3, #1
 4468 1cd4 26D1     		bne	.L381
 4469              		.loc 1 2570 0
 4470 1cd6 734B     		ldr	r3, .L382
 4471 1cd8 1B68     		ldr	r3, [r3]
 4472 1cda 03F00203 		and	r3, r3, #2
 4473 1cde 002B     		cmp	r3, #0
 4474 1ce0 03D1     		bne	.L362
 4475              		.loc 1 2572 0
 4476 1ce2 0123     		movs	r3, #1
 4477 1ce4 8DF83F30 		strb	r3, [sp, #63]
 4478              		.loc 1 2574 0
 4479 1ce8 20E0     		b	.L363
 4480              	.L362:
 4481 1cea 1FE0     		b	.L363
ARM GAS  /tmp/ccJqmpZo.s 			page 80


 4482              	.L359:
 4483              		.loc 1 2576 0
 4484 1cec 6D4B     		ldr	r3, .L382
 4485 1cee 1B68     		ldr	r3, [r3]
 4486 1cf0 03F48063 		and	r3, r3, #1024
 4487 1cf4 002B     		cmp	r3, #0
 4488 1cf6 03D1     		bne	.L364
 4489              		.loc 1 2578 0
 4490 1cf8 0123     		movs	r3, #1
 4491 1cfa 8DF83F30 		strb	r3, [sp, #63]
 4492              		.loc 1 2580 0
 4493 1cfe 15E0     		b	.L363
 4494              	.L364:
 4495 1d00 14E0     		b	.L363
 4496              	.L360:
 4497              		.loc 1 2582 0
 4498 1d02 684B     		ldr	r3, .L382
 4499 1d04 1B68     		ldr	r3, [r3]
 4500 1d06 03F40033 		and	r3, r3, #131072
 4501 1d0a 002B     		cmp	r3, #0
 4502 1d0c 09D1     		bne	.L365
 4503              		.loc 1 2582 0 is_stmt 0 discriminator 1
 4504 1d0e 654B     		ldr	r3, .L382
 4505 1d10 1B68     		ldr	r3, [r3]
 4506 1d12 03F48023 		and	r3, r3, #262144
 4507 1d16 002B     		cmp	r3, #0
 4508 1d18 03D1     		bne	.L365
 4509              		.loc 1 2584 0 is_stmt 1
 4510 1d1a 0123     		movs	r3, #1
 4511 1d1c 8DF83F30 		strb	r3, [sp, #63]
 4512              		.loc 1 2586 0
 4513 1d20 04E0     		b	.L363
 4514              	.L365:
 4515 1d22 03E0     		b	.L363
 4516              	.L381:
 4517              		.loc 1 2588 0
 4518 1d24 0123     		movs	r3, #1
 4519 1d26 8DF83F30 		strb	r3, [sp, #63]
 4520              		.loc 1 2589 0
 4521 1d2a 00BF     		nop
 4522              	.L363:
 4523              		.loc 1 2592 0
 4524 1d2c 9DF83F30 		ldrb	r3, [sp, #63]	@ zero_extendqisi2
 4525 1d30 002B     		cmp	r3, #0
 4526 1d32 17D1     		bne	.L357
 4527              		.loc 1 2595 0
 4528 1d34 5B4B     		ldr	r3, .L382
 4529 1d36 5B4A     		ldr	r2, .L382
 4530 1d38 D268     		ldr	r2, [r2, #12]
 4531 1d3a 22F07301 		bic	r1, r2, #115
 4532 1d3e 019A     		ldr	r2, [sp, #4]
 4533 1d40 1068     		ldr	r0, [r2]
 4534 1d42 019A     		ldr	r2, [sp, #4]
 4535 1d44 5268     		ldr	r2, [r2, #4]
 4536 1d46 541E     		subs	r4, r2, #1
 4537 1d48 7022     		movs	r2, #112
 4538 1d4a 0B92     		str	r2, [sp, #44]
ARM GAS  /tmp/ccJqmpZo.s 			page 81


 4539              	.LBB165:
 4540              	.LBB166:
 4541              		.loc 2 586 0
 4542 1d4c 0B9A     		ldr	r2, [sp, #44]
 4543              	@ 586 "../../../../../../ChibiOS/os/ext/CMSIS/include/core_cmInstr.h" 1
 4544 1d4e 92FAA2F2 		rbit r2, r2
 4545              	@ 0 "" 2
 4546              		.thumb
 4547 1d52 0A92     		str	r2, [sp, #40]
 4548              		.loc 2 599 0
 4549 1d54 0A9A     		ldr	r2, [sp, #40]
 4550              	.LBE166:
 4551              	.LBE165:
 4552              		.loc 1 2595 0
 4553 1d56 B2FA82F2 		clz	r2, r2
 4554 1d5a 04FA02F2 		lsl	r2, r4, r2
 4555 1d5e 0243     		orrs	r2, r2, r0
 4556 1d60 0A43     		orrs	r2, r2, r1
 4557 1d62 DA60     		str	r2, [r3, #12]
 4558              	.L357:
 4559              		.loc 1 2599 0
 4560 1d64 9DF83F30 		ldrb	r3, [sp, #63]	@ zero_extendqisi2
 4561 1d68 002B     		cmp	r3, #0
 4562 1d6a 40F09680 		bne	.L367
 4563              		.loc 1 2602 0
 4564 1d6e 4D4B     		ldr	r3, .L382
 4565 1d70 4C4A     		ldr	r2, .L382
 4566 1d72 1268     		ldr	r2, [r2]
 4567 1d74 22F08052 		bic	r2, r2, #268435456
 4568 1d78 1A60     		str	r2, [r3]
 4569              		.loc 1 2605 0
 4570 1d7a FFF7FEFF 		bl	HAL_GetTick
 4571 1d7e 0E90     		str	r0, [sp, #56]
 4572              		.loc 1 2608 0
 4573 1d80 0AE0     		b	.L368
 4574              	.L370:
 4575              		.loc 1 2610 0
 4576 1d82 FFF7FEFF 		bl	HAL_GetTick
 4577 1d86 0246     		mov	r2, r0
 4578 1d88 0E9B     		ldr	r3, [sp, #56]
 4579 1d8a D31A     		subs	r3, r2, r3
 4580 1d8c 022B     		cmp	r3, #2
 4581 1d8e 03D9     		bls	.L368
 4582              		.loc 1 2612 0
 4583 1d90 0323     		movs	r3, #3
 4584 1d92 8DF83F30 		strb	r3, [sp, #63]
 4585              		.loc 1 2613 0
 4586 1d96 05E0     		b	.L369
 4587              	.L368:
 4588              		.loc 1 2608 0 discriminator 1
 4589 1d98 424B     		ldr	r3, .L382
 4590 1d9a 1B68     		ldr	r3, [r3]
 4591 1d9c 03F00053 		and	r3, r3, #536870912
 4592 1da0 002B     		cmp	r3, #0
 4593 1da2 EED1     		bne	.L370
 4594              	.L369:
 4595              		.loc 1 2617 0
ARM GAS  /tmp/ccJqmpZo.s 			page 82


 4596 1da4 9DF83F30 		ldrb	r3, [sp, #63]	@ zero_extendqisi2
 4597 1da8 002B     		cmp	r3, #0
 4598 1daa 76D1     		bne	.L367
 4599              		.loc 1 2619 0
 4600 1dac 009B     		ldr	r3, [sp]
 4601 1dae 002B     		cmp	r3, #0
 4602 1db0 26D1     		bne	.L371
 4603              		.loc 1 2629 0
 4604 1db2 3C4A     		ldr	r2, .L382
 4605 1db4 3B4B     		ldr	r3, .L382
 4606 1db6 5B69     		ldr	r3, [r3, #20]
 4607 1db8 23F41F33 		bic	r3, r3, #162816
 4608 1dbc 23F44073 		bic	r3, r3, #768
 4609 1dc0 0199     		ldr	r1, [sp, #4]
 4610 1dc2 8868     		ldr	r0, [r1, #8]
 4611 1dc4 4FF4FE41 		mov	r1, #32512
 4612 1dc8 0991     		str	r1, [sp, #36]
 4613              	.LBB167:
 4614              	.LBB168:
 4615              		.loc 2 586 0
 4616 1dca 0999     		ldr	r1, [sp, #36]
 4617              	@ 586 "../../../../../../ChibiOS/os/ext/CMSIS/include/core_cmInstr.h" 1
 4618 1dcc 91FAA1F1 		rbit r1, r1
 4619              	@ 0 "" 2
 4620              		.thumb
 4621 1dd0 0891     		str	r1, [sp, #32]
 4622              		.loc 2 599 0
 4623 1dd2 0899     		ldr	r1, [sp, #32]
 4624              	.LBE168:
 4625              	.LBE167:
 4626              		.loc 1 2629 0
 4627 1dd4 B1FA81F1 		clz	r1, r1
 4628 1dd8 8840     		lsls	r0, r0, r1
 4629 1dda 0199     		ldr	r1, [sp, #4]
 4630 1ddc C968     		ldr	r1, [r1, #12]
 4631 1dde 0C09     		lsrs	r4, r1, #4
 4632 1de0 4FF40031 		mov	r1, #131072
 4633 1de4 0791     		str	r1, [sp, #28]
 4634              	.LBB169:
 4635              	.LBB170:
 4636              		.loc 2 586 0
 4637 1de6 0799     		ldr	r1, [sp, #28]
 4638              	@ 586 "../../../../../../ChibiOS/os/ext/CMSIS/include/core_cmInstr.h" 1
 4639 1de8 91FAA1F1 		rbit r1, r1
 4640              	@ 0 "" 2
 4641              		.thumb
 4642 1dec 0691     		str	r1, [sp, #24]
 4643              		.loc 2 599 0
 4644 1dee 0699     		ldr	r1, [sp, #24]
 4645              	.LBE170:
 4646              	.LBE169:
 4647              		.loc 1 2629 0
 4648 1df0 B1FA81F1 		clz	r1, r1
 4649 1df4 04FA01F1 		lsl	r1, r4, r1
 4650 1df8 0143     		orrs	r1, r1, r0
 4651 1dfa 0B43     		orrs	r3, r3, r1
 4652 1dfc 5361     		str	r3, [r2, #20]
ARM GAS  /tmp/ccJqmpZo.s 			page 83


 4653 1dfe 26E0     		b	.L374
 4654              	.L371:
 4655              		.loc 1 2639 0
 4656 1e00 284A     		ldr	r2, .L382
 4657 1e02 284B     		ldr	r3, .L382
 4658 1e04 5B69     		ldr	r3, [r3, #20]
 4659 1e06 23F0C063 		bic	r3, r3, #100663296
 4660 1e0a 23F4FE43 		bic	r3, r3, #32512
 4661 1e0e 0199     		ldr	r1, [sp, #4]
 4662 1e10 8868     		ldr	r0, [r1, #8]
 4663 1e12 4FF4FE41 		mov	r1, #32512
 4664 1e16 0591     		str	r1, [sp, #20]
 4665              	.LBB171:
 4666              	.LBB172:
 4667              		.loc 2 586 0
 4668 1e18 0599     		ldr	r1, [sp, #20]
 4669              	@ 586 "../../../../../../ChibiOS/os/ext/CMSIS/include/core_cmInstr.h" 1
 4670 1e1a 91FAA1F1 		rbit r1, r1
 4671              	@ 0 "" 2
 4672              		.thumb
 4673 1e1e 0491     		str	r1, [sp, #16]
 4674              		.loc 2 599 0
 4675 1e20 0499     		ldr	r1, [sp, #16]
 4676              	.LBE172:
 4677              	.LBE171:
 4678              		.loc 1 2639 0
 4679 1e22 B1FA81F1 		clz	r1, r1
 4680 1e26 8840     		lsls	r0, r0, r1
 4681 1e28 0199     		ldr	r1, [sp, #4]
 4682 1e2a 0969     		ldr	r1, [r1, #16]
 4683 1e2c 4908     		lsrs	r1, r1, #1
 4684 1e2e 4C1E     		subs	r4, r1, #1
 4685 1e30 4FF0C061 		mov	r1, #100663296
 4686 1e34 0391     		str	r1, [sp, #12]
 4687              	.LBB173:
 4688              	.LBB174:
 4689              		.loc 2 586 0
 4690 1e36 0399     		ldr	r1, [sp, #12]
 4691              	@ 586 "../../../../../../ChibiOS/os/ext/CMSIS/include/core_cmInstr.h" 1
 4692 1e38 91FAA1F1 		rbit r1, r1
 4693              	@ 0 "" 2
 4694              		.thumb
 4695 1e3c 0291     		str	r1, [sp, #8]
 4696              		.loc 2 599 0
 4697 1e3e 0299     		ldr	r1, [sp, #8]
 4698              	.LBE174:
 4699              	.LBE173:
 4700              		.loc 1 2639 0
 4701 1e40 B1FA81F1 		clz	r1, r1
 4702 1e44 04FA01F1 		lsl	r1, r4, r1
 4703 1e48 0143     		orrs	r1, r1, r0
 4704 1e4a 0B43     		orrs	r3, r3, r1
 4705 1e4c 5361     		str	r3, [r2, #20]
 4706              	.L374:
 4707              		.loc 1 2646 0
 4708 1e4e 154B     		ldr	r3, .L382
 4709 1e50 144A     		ldr	r2, .L382
ARM GAS  /tmp/ccJqmpZo.s 			page 84


 4710 1e52 1268     		ldr	r2, [r2]
 4711 1e54 42F08052 		orr	r2, r2, #268435456
 4712 1e58 1A60     		str	r2, [r3]
 4713              		.loc 1 2649 0
 4714 1e5a FFF7FEFF 		bl	HAL_GetTick
 4715 1e5e 0E90     		str	r0, [sp, #56]
 4716              		.loc 1 2652 0
 4717 1e60 0AE0     		b	.L377
 4718              	.L379:
 4719              		.loc 1 2654 0
 4720 1e62 FFF7FEFF 		bl	HAL_GetTick
 4721 1e66 0246     		mov	r2, r0
 4722 1e68 0E9B     		ldr	r3, [sp, #56]
 4723 1e6a D31A     		subs	r3, r2, r3
 4724 1e6c 022B     		cmp	r3, #2
 4725 1e6e 03D9     		bls	.L377
 4726              		.loc 1 2656 0
 4727 1e70 0323     		movs	r3, #3
 4728 1e72 8DF83F30 		strb	r3, [sp, #63]
 4729              		.loc 1 2657 0
 4730 1e76 05E0     		b	.L378
 4731              	.L377:
 4732              		.loc 1 2652 0 discriminator 1
 4733 1e78 0A4B     		ldr	r3, .L382
 4734 1e7a 1B68     		ldr	r3, [r3]
 4735 1e7c 03F00053 		and	r3, r3, #536870912
 4736 1e80 002B     		cmp	r3, #0
 4737 1e82 EED0     		beq	.L379
 4738              	.L378:
 4739              		.loc 1 2661 0
 4740 1e84 9DF83F30 		ldrb	r3, [sp, #63]	@ zero_extendqisi2
 4741 1e88 002B     		cmp	r3, #0
 4742 1e8a 06D1     		bne	.L367
 4743              		.loc 1 2664 0
 4744 1e8c 054B     		ldr	r3, .L382
 4745 1e8e 054A     		ldr	r2, .L382
 4746 1e90 5169     		ldr	r1, [r2, #20]
 4747 1e92 019A     		ldr	r2, [sp, #4]
 4748 1e94 5269     		ldr	r2, [r2, #20]
 4749 1e96 0A43     		orrs	r2, r2, r1
 4750 1e98 5A61     		str	r2, [r3, #20]
 4751              	.L367:
 4752              		.loc 1 2669 0
 4753 1e9a 9DF83F30 		ldrb	r3, [sp, #63]	@ zero_extendqisi2
 4754              		.loc 1 2670 0
 4755 1e9e 1846     		mov	r0, r3
 4756 1ea0 10B0     		add	sp, sp, #64
 4757              		@ sp needed
 4758 1ea2 10BD     		pop	{r4, pc}
 4759              	.L383:
 4760              		.align	2
 4761              	.L382:
 4762 1ea4 00100240 		.word	1073876992
 4763              		.cfi_endproc
 4764              	.LFE144:
 4765              		.size	RCCEx_PLLSAI2_Config, .-RCCEx_PLLSAI2_Config
 4766              	.Letext0:
ARM GAS  /tmp/ccJqmpZo.s 			page 85


 4767              		.file 3 "/nfs/nfs5/home/research/hardware/arm2/gcc-arm-embedded/gcc-arm-none-eabi-4_8-2014q2/arm-n
 4768              		.file 4 "/nfs/nfs5/home/research/hardware/arm2/gcc-arm-embedded/gcc-arm-none-eabi-4_8-2014q2/arm-n
 4769              		.file 5 "../../../../../../ChibiOS/os/ext/CMSIS/ST/STM32L4xx/stm32l476xx.h"
 4770              		.file 6 "../../../../../../ChibiOS/os/ext/CMSIS/ST/STM32L4xx/stm32l4xx.h"
 4771              		.file 7 "../../../../../Drivers/STM32L4xx_HAL_Driver/Inc/stm32l4xx_hal_def.h"
 4772              		.file 8 "../../../../../Drivers/STM32L4xx_HAL_Driver/Inc/stm32l4xx_hal_rcc_ex.h"
 4773              		.file 9 "../../../../../Drivers/STM32L4xx_HAL_Driver/Inc/stm32l4xx_hal_gpio.h"
 4774              		.file 10 "../../../../../../ChibiOS/os/ext/CMSIS/include/core_cm4.h"
 4775 1ea8 AFF30080 		.section	.debug_info,"",%progbits
 4775      AFF30080 
 4776              	.Ldebug_info0:
 4777 0000 A0140000 		.4byte	0x14a0
 4778 0004 0400     		.2byte	0x4
 4779 0006 00000000 		.4byte	.Ldebug_abbrev0
 4780 000a 04       		.byte	0x4
 4781 000b 01       		.uleb128 0x1
 4782 000c 23070000 		.4byte	.LASF184
 4783 0010 01       		.byte	0x1
 4784 0011 81010000 		.4byte	.LASF185
 4785 0015 8F030000 		.4byte	.LASF186
 4786 0019 00000000 		.4byte	.Ltext0
 4787 001d A81E0000 		.4byte	.Letext0-.Ltext0
 4788 0021 00000000 		.4byte	.Ldebug_line0
 4789 0025 02       		.uleb128 0x2
 4790 0026 01       		.byte	0x1
 4791 0027 06       		.byte	0x6
 4792 0028 380A0000 		.4byte	.LASF0
 4793 002c 02       		.uleb128 0x2
 4794 002d 01       		.byte	0x1
 4795 002e 08       		.byte	0x8
 4796 002f EF060000 		.4byte	.LASF1
 4797 0033 02       		.uleb128 0x2
 4798 0034 02       		.byte	0x2
 4799 0035 05       		.byte	0x5
 4800 0036 00000000 		.4byte	.LASF2
 4801 003a 03       		.uleb128 0x3
 4802 003b E0080000 		.4byte	.LASF4
 4803 003f 03       		.byte	0x3
 4804 0040 26       		.byte	0x26
 4805 0041 45000000 		.4byte	0x45
 4806 0045 02       		.uleb128 0x2
 4807 0046 02       		.byte	0x2
 4808 0047 07       		.byte	0x7
 4809 0048 C7040000 		.4byte	.LASF3
 4810 004c 03       		.uleb128 0x3
 4811 004d 22090000 		.4byte	.LASF5
 4812 0051 03       		.byte	0x3
 4813 0052 37       		.byte	0x37
 4814 0053 57000000 		.4byte	0x57
 4815 0057 02       		.uleb128 0x2
 4816 0058 04       		.byte	0x4
 4817 0059 05       		.byte	0x5
 4818 005a B0020000 		.4byte	.LASF6
 4819 005e 03       		.uleb128 0x3
 4820 005f 2C090000 		.4byte	.LASF7
 4821 0063 03       		.byte	0x3
 4822 0064 38       		.byte	0x38
ARM GAS  /tmp/ccJqmpZo.s 			page 86


 4823 0065 69000000 		.4byte	0x69
 4824 0069 02       		.uleb128 0x2
 4825 006a 04       		.byte	0x4
 4826 006b 07       		.byte	0x7
 4827 006c 80040000 		.4byte	.LASF8
 4828 0070 02       		.uleb128 0x2
 4829 0071 08       		.byte	0x8
 4830 0072 05       		.byte	0x5
 4831 0073 F0020000 		.4byte	.LASF9
 4832 0077 02       		.uleb128 0x2
 4833 0078 08       		.byte	0x8
 4834 0079 07       		.byte	0x7
 4835 007a 07030000 		.4byte	.LASF10
 4836 007e 04       		.uleb128 0x4
 4837 007f 04       		.byte	0x4
 4838 0080 05       		.byte	0x5
 4839 0081 696E7400 		.ascii	"int\000"
 4840 0085 02       		.uleb128 0x2
 4841 0086 04       		.byte	0x4
 4842 0087 07       		.byte	0x7
 4843 0088 5E040000 		.4byte	.LASF11
 4844 008c 03       		.uleb128 0x3
 4845 008d FE020000 		.4byte	.LASF12
 4846 0091 04       		.byte	0x4
 4847 0092 36       		.byte	0x36
 4848 0093 3A000000 		.4byte	0x3a
 4849 0097 03       		.uleb128 0x3
 4850 0098 E7060000 		.4byte	.LASF13
 4851 009c 04       		.byte	0x4
 4852 009d 41       		.byte	0x41
 4853 009e 4C000000 		.4byte	0x4c
 4854 00a2 03       		.uleb128 0x3
 4855 00a3 55080000 		.4byte	.LASF14
 4856 00a7 04       		.byte	0x4
 4857 00a8 42       		.byte	0x42
 4858 00a9 5E000000 		.4byte	0x5e
 4859 00ad 02       		.uleb128 0x2
 4860 00ae 04       		.byte	0x4
 4861 00af 07       		.byte	0x7
 4862 00b0 B0050000 		.4byte	.LASF15
 4863 00b4 05       		.uleb128 0x5
 4864 00b5 A2000000 		.4byte	0xa2
 4865 00b9 06       		.uleb128 0x6
 4866 00ba A2000000 		.4byte	0xa2
 4867 00be C9000000 		.4byte	0xc9
 4868 00c2 07       		.uleb128 0x7
 4869 00c3 AD000000 		.4byte	0xad
 4870 00c7 01       		.byte	0x1
 4871 00c8 00       		.byte	0
 4872 00c9 08       		.uleb128 0x8
 4873 00ca 38       		.byte	0x38
 4874 00cb 05       		.byte	0x5
 4875 00cc C201     		.2byte	0x1c2
 4876 00ce 89010000 		.4byte	0x189
 4877 00d2 09       		.uleb128 0x9
 4878 00d3 DA040000 		.4byte	.LASF16
 4879 00d7 05       		.byte	0x5
ARM GAS  /tmp/ccJqmpZo.s 			page 87


 4880 00d8 C401     		.2byte	0x1c4
 4881 00da B4000000 		.4byte	0xb4
 4882 00de 00       		.byte	0
 4883 00df 09       		.uleb128 0x9
 4884 00e0 5F090000 		.4byte	.LASF17
 4885 00e4 05       		.byte	0x5
 4886 00e5 C501     		.2byte	0x1c5
 4887 00e7 B4000000 		.4byte	0xb4
 4888 00eb 04       		.byte	0x4
 4889 00ec 09       		.uleb128 0x9
 4890 00ed 97060000 		.4byte	.LASF18
 4891 00f1 05       		.byte	0x5
 4892 00f2 C601     		.2byte	0x1c6
 4893 00f4 B4000000 		.4byte	0xb4
 4894 00f8 08       		.byte	0x8
 4895 00f9 09       		.uleb128 0x9
 4896 00fa B5000000 		.4byte	.LASF19
 4897 00fe 05       		.byte	0x5
 4898 00ff C701     		.2byte	0x1c7
 4899 0101 B4000000 		.4byte	0xb4
 4900 0105 0C       		.byte	0xc
 4901 0106 09       		.uleb128 0x9
 4902 0107 64010000 		.4byte	.LASF20
 4903 010b 05       		.byte	0x5
 4904 010c C801     		.2byte	0x1c8
 4905 010e B4000000 		.4byte	0xb4
 4906 0112 10       		.byte	0x10
 4907 0113 0A       		.uleb128 0xa
 4908 0114 50523100 		.ascii	"PR1\000"
 4909 0118 05       		.byte	0x5
 4910 0119 C901     		.2byte	0x1c9
 4911 011b B4000000 		.4byte	0xb4
 4912 011f 14       		.byte	0x14
 4913 0120 09       		.uleb128 0x9
 4914 0121 83060000 		.4byte	.LASF21
 4915 0125 05       		.byte	0x5
 4916 0126 CA01     		.2byte	0x1ca
 4917 0128 A2000000 		.4byte	0xa2
 4918 012c 18       		.byte	0x18
 4919 012d 09       		.uleb128 0x9
 4920 012e 8D060000 		.4byte	.LASF22
 4921 0132 05       		.byte	0x5
 4922 0133 CB01     		.2byte	0x1cb
 4923 0135 A2000000 		.4byte	0xa2
 4924 0139 1C       		.byte	0x1c
 4925 013a 09       		.uleb128 0x9
 4926 013b DF040000 		.4byte	.LASF23
 4927 013f 05       		.byte	0x5
 4928 0140 CC01     		.2byte	0x1cc
 4929 0142 B4000000 		.4byte	0xb4
 4930 0146 20       		.byte	0x20
 4931 0147 09       		.uleb128 0x9
 4932 0148 64090000 		.4byte	.LASF24
 4933 014c 05       		.byte	0x5
 4934 014d CD01     		.2byte	0x1cd
 4935 014f B4000000 		.4byte	0xb4
 4936 0153 24       		.byte	0x24
ARM GAS  /tmp/ccJqmpZo.s 			page 88


 4937 0154 09       		.uleb128 0x9
 4938 0155 9D060000 		.4byte	.LASF25
 4939 0159 05       		.byte	0x5
 4940 015a CE01     		.2byte	0x1ce
 4941 015c B4000000 		.4byte	0xb4
 4942 0160 28       		.byte	0x28
 4943 0161 09       		.uleb128 0x9
 4944 0162 BB000000 		.4byte	.LASF26
 4945 0166 05       		.byte	0x5
 4946 0167 CF01     		.2byte	0x1cf
 4947 0169 B4000000 		.4byte	0xb4
 4948 016d 2C       		.byte	0x2c
 4949 016e 09       		.uleb128 0x9
 4950 016f 6B010000 		.4byte	.LASF27
 4951 0173 05       		.byte	0x5
 4952 0174 D001     		.2byte	0x1d0
 4953 0176 B4000000 		.4byte	0xb4
 4954 017a 30       		.byte	0x30
 4955 017b 0A       		.uleb128 0xa
 4956 017c 50523200 		.ascii	"PR2\000"
 4957 0180 05       		.byte	0x5
 4958 0181 D101     		.2byte	0x1d1
 4959 0183 B4000000 		.4byte	0xb4
 4960 0187 34       		.byte	0x34
 4961 0188 00       		.byte	0
 4962 0189 0B       		.uleb128 0xb
 4963 018a 440A0000 		.4byte	.LASF28
 4964 018e 05       		.byte	0x5
 4965 018f D201     		.2byte	0x1d2
 4966 0191 C9000000 		.4byte	0xc9
 4967 0195 08       		.uleb128 0x8
 4968 0196 30       		.byte	0x30
 4969 0197 05       		.byte	0x5
 4970 0198 2602     		.2byte	0x226
 4971 019a 2E020000 		.4byte	0x22e
 4972 019e 09       		.uleb128 0x9
 4973 019f 0D010000 		.4byte	.LASF29
 4974 01a3 05       		.byte	0x5
 4975 01a4 2802     		.2byte	0x228
 4976 01a6 B4000000 		.4byte	0xb4
 4977 01aa 00       		.byte	0
 4978 01ab 09       		.uleb128 0x9
 4979 01ac 89000000 		.4byte	.LASF30
 4980 01b0 05       		.byte	0x5
 4981 01b1 2902     		.2byte	0x229
 4982 01b3 B4000000 		.4byte	0xb4
 4983 01b7 04       		.byte	0x4
 4984 01b8 09       		.uleb128 0x9
 4985 01b9 6B030000 		.4byte	.LASF31
 4986 01bd 05       		.byte	0x5
 4987 01be 2A02     		.2byte	0x22a
 4988 01c0 B4000000 		.4byte	0xb4
 4989 01c4 08       		.byte	0x8
 4990 01c5 09       		.uleb128 0x9
 4991 01c6 1A000000 		.4byte	.LASF32
 4992 01ca 05       		.byte	0x5
 4993 01cb 2B02     		.2byte	0x22b
ARM GAS  /tmp/ccJqmpZo.s 			page 89


 4994 01cd B4000000 		.4byte	0xb4
 4995 01d1 0C       		.byte	0xc
 4996 01d2 0A       		.uleb128 0xa
 4997 01d3 49445200 		.ascii	"IDR\000"
 4998 01d7 05       		.byte	0x5
 4999 01d8 2C02     		.2byte	0x22c
 5000 01da B4000000 		.4byte	0xb4
 5001 01de 10       		.byte	0x10
 5002 01df 0A       		.uleb128 0xa
 5003 01e0 4F445200 		.ascii	"ODR\000"
 5004 01e4 05       		.byte	0x5
 5005 01e5 2D02     		.2byte	0x22d
 5006 01e7 B4000000 		.4byte	0xb4
 5007 01eb 14       		.byte	0x14
 5008 01ec 09       		.uleb128 0x9
 5009 01ed 09020000 		.4byte	.LASF33
 5010 01f1 05       		.byte	0x5
 5011 01f2 2E02     		.2byte	0x22e
 5012 01f4 B4000000 		.4byte	0xb4
 5013 01f8 18       		.byte	0x18
 5014 01f9 09       		.uleb128 0x9
 5015 01fa 20000000 		.4byte	.LASF34
 5016 01fe 05       		.byte	0x5
 5017 01ff 2F02     		.2byte	0x22f
 5018 0201 B4000000 		.4byte	0xb4
 5019 0205 1C       		.byte	0x1c
 5020 0206 0A       		.uleb128 0xa
 5021 0207 41465200 		.ascii	"AFR\000"
 5022 020b 05       		.byte	0x5
 5023 020c 3002     		.2byte	0x230
 5024 020e 2E020000 		.4byte	0x22e
 5025 0212 20       		.byte	0x20
 5026 0213 0A       		.uleb128 0xa
 5027 0214 42525200 		.ascii	"BRR\000"
 5028 0218 05       		.byte	0x5
 5029 0219 3102     		.2byte	0x231
 5030 021b B4000000 		.4byte	0xb4
 5031 021f 28       		.byte	0x28
 5032 0220 09       		.uleb128 0x9
 5033 0221 6B040000 		.4byte	.LASF35
 5034 0225 05       		.byte	0x5
 5035 0226 3202     		.2byte	0x232
 5036 0228 B4000000 		.4byte	0xb4
 5037 022c 2C       		.byte	0x2c
 5038 022d 00       		.byte	0
 5039 022e 05       		.uleb128 0x5
 5040 022f B9000000 		.4byte	0xb9
 5041 0233 0B       		.uleb128 0xb
 5042 0234 92040000 		.4byte	.LASF36
 5043 0238 05       		.byte	0x5
 5044 0239 3402     		.2byte	0x234
 5045 023b 95010000 		.4byte	0x195
 5046 023f 08       		.uleb128 0x8
 5047 0240 60       		.byte	0x60
 5048 0241 05       		.byte	0x5
 5049 0242 8902     		.2byte	0x289
 5050 0244 81030000 		.4byte	0x381
ARM GAS  /tmp/ccJqmpZo.s 			page 90


 5051 0248 0A       		.uleb128 0xa
 5052 0249 43523100 		.ascii	"CR1\000"
 5053 024d 05       		.byte	0x5
 5054 024e 8B02     		.2byte	0x28b
 5055 0250 B4000000 		.4byte	0xb4
 5056 0254 00       		.byte	0
 5057 0255 0A       		.uleb128 0xa
 5058 0256 43523200 		.ascii	"CR2\000"
 5059 025a 05       		.byte	0x5
 5060 025b 8C02     		.2byte	0x28c
 5061 025d B4000000 		.4byte	0xb4
 5062 0261 04       		.byte	0x4
 5063 0262 0A       		.uleb128 0xa
 5064 0263 43523300 		.ascii	"CR3\000"
 5065 0267 05       		.byte	0x5
 5066 0268 8D02     		.2byte	0x28d
 5067 026a B4000000 		.4byte	0xb4
 5068 026e 08       		.byte	0x8
 5069 026f 0A       		.uleb128 0xa
 5070 0270 43523400 		.ascii	"CR4\000"
 5071 0274 05       		.byte	0x5
 5072 0275 8E02     		.2byte	0x28e
 5073 0277 B4000000 		.4byte	0xb4
 5074 027b 0C       		.byte	0xc
 5075 027c 0A       		.uleb128 0xa
 5076 027d 53523100 		.ascii	"SR1\000"
 5077 0281 05       		.byte	0x5
 5078 0282 8F02     		.2byte	0x28f
 5079 0284 B4000000 		.4byte	0xb4
 5080 0288 10       		.byte	0x10
 5081 0289 0A       		.uleb128 0xa
 5082 028a 53523200 		.ascii	"SR2\000"
 5083 028e 05       		.byte	0x5
 5084 028f 9002     		.2byte	0x290
 5085 0291 B4000000 		.4byte	0xb4
 5086 0295 14       		.byte	0x14
 5087 0296 0A       		.uleb128 0xa
 5088 0297 53435200 		.ascii	"SCR\000"
 5089 029b 05       		.byte	0x5
 5090 029c 9102     		.2byte	0x291
 5091 029e B4000000 		.4byte	0xb4
 5092 02a2 18       		.byte	0x18
 5093 02a3 09       		.uleb128 0x9
 5094 02a4 16080000 		.4byte	.LASF37
 5095 02a8 05       		.byte	0x5
 5096 02a9 9202     		.2byte	0x292
 5097 02ab A2000000 		.4byte	0xa2
 5098 02af 1C       		.byte	0x1c
 5099 02b0 09       		.uleb128 0x9
 5100 02b1 5E020000 		.4byte	.LASF38
 5101 02b5 05       		.byte	0x5
 5102 02b6 9302     		.2byte	0x293
 5103 02b8 B4000000 		.4byte	0xb4
 5104 02bc 20       		.byte	0x20
 5105 02bd 09       		.uleb128 0x9
 5106 02be 13010000 		.4byte	.LASF39
 5107 02c2 05       		.byte	0x5
ARM GAS  /tmp/ccJqmpZo.s 			page 91


 5108 02c3 9402     		.2byte	0x294
 5109 02c5 B4000000 		.4byte	0xb4
 5110 02c9 24       		.byte	0x24
 5111 02ca 09       		.uleb128 0x9
 5112 02cb 64020000 		.4byte	.LASF40
 5113 02cf 05       		.byte	0x5
 5114 02d0 9502     		.2byte	0x295
 5115 02d2 B4000000 		.4byte	0xb4
 5116 02d6 28       		.byte	0x28
 5117 02d7 09       		.uleb128 0x9
 5118 02d8 30010000 		.4byte	.LASF41
 5119 02dc 05       		.byte	0x5
 5120 02dd 9602     		.2byte	0x296
 5121 02df B4000000 		.4byte	0xb4
 5122 02e3 2C       		.byte	0x2c
 5123 02e4 09       		.uleb128 0x9
 5124 02e5 6A020000 		.4byte	.LASF42
 5125 02e9 05       		.byte	0x5
 5126 02ea 9702     		.2byte	0x297
 5127 02ec B4000000 		.4byte	0xb4
 5128 02f0 30       		.byte	0x30
 5129 02f1 09       		.uleb128 0x9
 5130 02f2 78000000 		.4byte	.LASF43
 5131 02f6 05       		.byte	0x5
 5132 02f7 9802     		.2byte	0x298
 5133 02f9 B4000000 		.4byte	0xb4
 5134 02fd 34       		.byte	0x34
 5135 02fe 09       		.uleb128 0x9
 5136 02ff 70020000 		.4byte	.LASF44
 5137 0303 05       		.byte	0x5
 5138 0304 9902     		.2byte	0x299
 5139 0306 B4000000 		.4byte	0xb4
 5140 030a 38       		.byte	0x38
 5141 030b 09       		.uleb128 0x9
 5142 030c 36010000 		.4byte	.LASF45
 5143 0310 05       		.byte	0x5
 5144 0311 9A02     		.2byte	0x29a
 5145 0313 B4000000 		.4byte	0xb4
 5146 0317 3C       		.byte	0x3c
 5147 0318 09       		.uleb128 0x9
 5148 0319 620A0000 		.4byte	.LASF46
 5149 031d 05       		.byte	0x5
 5150 031e 9B02     		.2byte	0x29b
 5151 0320 B4000000 		.4byte	0xb4
 5152 0324 40       		.byte	0x40
 5153 0325 09       		.uleb128 0x9
 5154 0326 83000000 		.4byte	.LASF47
 5155 032a 05       		.byte	0x5
 5156 032b 9C02     		.2byte	0x29c
 5157 032d B4000000 		.4byte	0xb4
 5158 0331 44       		.byte	0x44
 5159 0332 09       		.uleb128 0x9
 5160 0333 680A0000 		.4byte	.LASF48
 5161 0337 05       		.byte	0x5
 5162 0338 9D02     		.2byte	0x29d
 5163 033a B4000000 		.4byte	0xb4
 5164 033e 48       		.byte	0x48
ARM GAS  /tmp/ccJqmpZo.s 			page 92


 5165 033f 09       		.uleb128 0x9
 5166 0340 3C010000 		.4byte	.LASF49
 5167 0344 05       		.byte	0x5
 5168 0345 9E02     		.2byte	0x29e
 5169 0347 B4000000 		.4byte	0xb4
 5170 034b 4C       		.byte	0x4c
 5171 034c 09       		.uleb128 0x9
 5172 034d 86020000 		.4byte	.LASF50
 5173 0351 05       		.byte	0x5
 5174 0352 9F02     		.2byte	0x29f
 5175 0354 B4000000 		.4byte	0xb4
 5176 0358 50       		.byte	0x50
 5177 0359 09       		.uleb128 0x9
 5178 035a 90000000 		.4byte	.LASF51
 5179 035e 05       		.byte	0x5
 5180 035f A002     		.2byte	0x2a0
 5181 0361 B4000000 		.4byte	0xb4
 5182 0365 54       		.byte	0x54
 5183 0366 09       		.uleb128 0x9
 5184 0367 8C020000 		.4byte	.LASF52
 5185 036b 05       		.byte	0x5
 5186 036c A102     		.2byte	0x2a1
 5187 036e B4000000 		.4byte	0xb4
 5188 0372 58       		.byte	0x58
 5189 0373 09       		.uleb128 0x9
 5190 0374 96000000 		.4byte	.LASF53
 5191 0378 05       		.byte	0x5
 5192 0379 A202     		.2byte	0x2a2
 5193 037b B4000000 		.4byte	0xb4
 5194 037f 5C       		.byte	0x5c
 5195 0380 00       		.byte	0
 5196 0381 0B       		.uleb128 0xb
 5197 0382 37090000 		.4byte	.LASF54
 5198 0386 05       		.byte	0x5
 5199 0387 A302     		.2byte	0x2a3
 5200 0389 3F020000 		.4byte	0x23f
 5201 038d 08       		.uleb128 0x8
 5202 038e 98       		.byte	0x98
 5203 038f 05       		.byte	0x5
 5204 0390 C002     		.2byte	0x2c0
 5205 0392 84050000 		.4byte	0x584
 5206 0396 0A       		.uleb128 0xa
 5207 0397 435200   		.ascii	"CR\000"
 5208 039a 05       		.byte	0x5
 5209 039b C202     		.2byte	0x2c2
 5210 039d B4000000 		.4byte	0xb4
 5211 03a1 00       		.byte	0
 5212 03a2 09       		.uleb128 0x9
 5213 03a3 200A0000 		.4byte	.LASF55
 5214 03a7 05       		.byte	0x5
 5215 03a8 C302     		.2byte	0x2c3
 5216 03aa B4000000 		.4byte	0xb4
 5217 03ae 04       		.byte	0x4
 5218 03af 09       		.uleb128 0x9
 5219 03b0 330A0000 		.4byte	.LASF56
 5220 03b4 05       		.byte	0x5
 5221 03b5 C402     		.2byte	0x2c4
ARM GAS  /tmp/ccJqmpZo.s 			page 93


 5222 03b7 B4000000 		.4byte	0xb4
 5223 03bb 08       		.byte	0x8
 5224 03bc 09       		.uleb128 0x9
 5225 03bd 47030000 		.4byte	.LASF57
 5226 03c1 05       		.byte	0x5
 5227 03c2 C502     		.2byte	0x2c5
 5228 03c4 B4000000 		.4byte	0xb4
 5229 03c8 0C       		.byte	0xc
 5230 03c9 09       		.uleb128 0x9
 5231 03ca D0090000 		.4byte	.LASF58
 5232 03ce 05       		.byte	0x5
 5233 03cf C602     		.2byte	0x2c6
 5234 03d1 B4000000 		.4byte	0xb4
 5235 03d5 10       		.byte	0x10
 5236 03d6 09       		.uleb128 0x9
 5237 03d7 BF050000 		.4byte	.LASF59
 5238 03db 05       		.byte	0x5
 5239 03dc C702     		.2byte	0x2c7
 5240 03de B4000000 		.4byte	0xb4
 5241 03e2 14       		.byte	0x14
 5242 03e3 09       		.uleb128 0x9
 5243 03e4 7C010000 		.4byte	.LASF60
 5244 03e8 05       		.byte	0x5
 5245 03e9 C802     		.2byte	0x2c8
 5246 03eb B4000000 		.4byte	0xb4
 5247 03ef 18       		.byte	0x18
 5248 03f0 09       		.uleb128 0x9
 5249 03f1 56030000 		.4byte	.LASF61
 5250 03f5 05       		.byte	0x5
 5251 03f6 C902     		.2byte	0x2c9
 5252 03f8 B4000000 		.4byte	0xb4
 5253 03fc 1C       		.byte	0x1c
 5254 03fd 09       		.uleb128 0x9
 5255 03fe 9A090000 		.4byte	.LASF62
 5256 0402 05       		.byte	0x5
 5257 0403 CA02     		.2byte	0x2ca
 5258 0405 B4000000 		.4byte	0xb4
 5259 0409 20       		.byte	0x20
 5260 040a 09       		.uleb128 0x9
 5261 040b 79060000 		.4byte	.LASF63
 5262 040f 05       		.byte	0x5
 5263 0410 CB02     		.2byte	0x2cb
 5264 0412 A2000000 		.4byte	0xa2
 5265 0416 24       		.byte	0x24
 5266 0417 09       		.uleb128 0x9
 5267 0418 71090000 		.4byte	.LASF64
 5268 041c 05       		.byte	0x5
 5269 041d CC02     		.2byte	0x2cc
 5270 041f B4000000 		.4byte	0xb4
 5271 0423 28       		.byte	0x28
 5272 0424 09       		.uleb128 0x9
 5273 0425 07090000 		.4byte	.LASF65
 5274 0429 05       		.byte	0x5
 5275 042a CD02     		.2byte	0x2cd
 5276 042c B4000000 		.4byte	0xb4
 5277 0430 2C       		.byte	0x2c
 5278 0431 09       		.uleb128 0x9
ARM GAS  /tmp/ccJqmpZo.s 			page 94


 5279 0432 EE040000 		.4byte	.LASF66
 5280 0436 05       		.byte	0x5
 5281 0437 CE02     		.2byte	0x2ce
 5282 0439 B4000000 		.4byte	0xb4
 5283 043d 30       		.byte	0x30
 5284 043e 09       		.uleb128 0x9
 5285 043f 83060000 		.4byte	.LASF21
 5286 0443 05       		.byte	0x5
 5287 0444 CF02     		.2byte	0x2cf
 5288 0446 A2000000 		.4byte	0xa2
 5289 044a 34       		.byte	0x34
 5290 044b 09       		.uleb128 0x9
 5291 044c C2020000 		.4byte	.LASF67
 5292 0450 05       		.byte	0x5
 5293 0451 D002     		.2byte	0x2d0
 5294 0453 B4000000 		.4byte	0xb4
 5295 0457 38       		.byte	0x38
 5296 0458 09       		.uleb128 0x9
 5297 0459 CC020000 		.4byte	.LASF68
 5298 045d 05       		.byte	0x5
 5299 045e D102     		.2byte	0x2d1
 5300 0460 B4000000 		.4byte	0xb4
 5301 0464 3C       		.byte	0x3c
 5302 0465 09       		.uleb128 0x9
 5303 0466 B9020000 		.4byte	.LASF69
 5304 046a 05       		.byte	0x5
 5305 046b D202     		.2byte	0x2d2
 5306 046d B4000000 		.4byte	0xb4
 5307 0471 40       		.byte	0x40
 5308 0472 09       		.uleb128 0x9
 5309 0473 8D060000 		.4byte	.LASF22
 5310 0477 05       		.byte	0x5
 5311 0478 D302     		.2byte	0x2d3
 5312 047a A2000000 		.4byte	0xa2
 5313 047e 44       		.byte	0x44
 5314 047f 09       		.uleb128 0x9
 5315 0480 260A0000 		.4byte	.LASF70
 5316 0484 05       		.byte	0x5
 5317 0485 D402     		.2byte	0x2d4
 5318 0487 B4000000 		.4byte	0xb4
 5319 048b 48       		.byte	0x48
 5320 048c 09       		.uleb128 0x9
 5321 048d 43090000 		.4byte	.LASF71
 5322 0491 05       		.byte	0x5
 5323 0492 D502     		.2byte	0x2d5
 5324 0494 B4000000 		.4byte	0xb4
 5325 0498 4C       		.byte	0x4c
 5326 0499 09       		.uleb128 0x9
 5327 049a 39080000 		.4byte	.LASF72
 5328 049e 05       		.byte	0x5
 5329 049f D602     		.2byte	0x2d6
 5330 04a1 B4000000 		.4byte	0xb4
 5331 04a5 50       		.byte	0x50
 5332 04a6 09       		.uleb128 0x9
 5333 04a7 41080000 		.4byte	.LASF73
 5334 04ab 05       		.byte	0x5
 5335 04ac D702     		.2byte	0x2d7
ARM GAS  /tmp/ccJqmpZo.s 			page 95


 5336 04ae A2000000 		.4byte	0xa2
 5337 04b2 54       		.byte	0x54
 5338 04b3 09       		.uleb128 0x9
 5339 04b4 37060000 		.4byte	.LASF74
 5340 04b8 05       		.byte	0x5
 5341 04b9 D802     		.2byte	0x2d8
 5342 04bb B4000000 		.4byte	0xb4
 5343 04bf 58       		.byte	0x58
 5344 04c0 09       		.uleb128 0x9
 5345 04c1 40060000 		.4byte	.LASF75
 5346 04c5 05       		.byte	0x5
 5347 04c6 D902     		.2byte	0x2d9
 5348 04c8 B4000000 		.4byte	0xb4
 5349 04cc 5C       		.byte	0x5c
 5350 04cd 09       		.uleb128 0x9
 5351 04ce 31080000 		.4byte	.LASF76
 5352 04d2 05       		.byte	0x5
 5353 04d3 DA02     		.2byte	0x2da
 5354 04d5 B4000000 		.4byte	0xb4
 5355 04d9 60       		.byte	0x60
 5356 04da 09       		.uleb128 0x9
 5357 04db 4B080000 		.4byte	.LASF77
 5358 04df 05       		.byte	0x5
 5359 04e0 DB02     		.2byte	0x2db
 5360 04e2 A2000000 		.4byte	0xa2
 5361 04e6 64       		.byte	0x64
 5362 04e7 09       		.uleb128 0x9
 5363 04e8 3E020000 		.4byte	.LASF78
 5364 04ec 05       		.byte	0x5
 5365 04ed DC02     		.2byte	0x2dc
 5366 04ef B4000000 		.4byte	0xb4
 5367 04f3 68       		.byte	0x68
 5368 04f4 09       		.uleb128 0x9
 5369 04f5 85030000 		.4byte	.LASF79
 5370 04f9 05       		.byte	0x5
 5371 04fa DD02     		.2byte	0x2dd
 5372 04fc B4000000 		.4byte	0xb4
 5373 0500 6C       		.byte	0x6c
 5374 0501 09       		.uleb128 0x9
 5375 0502 E4040000 		.4byte	.LASF80
 5376 0506 05       		.byte	0x5
 5377 0507 DE02     		.2byte	0x2de
 5378 0509 B4000000 		.4byte	0xb4
 5379 050d 70       		.byte	0x70
 5380 050e 09       		.uleb128 0x9
 5381 050f A3060000 		.4byte	.LASF81
 5382 0513 05       		.byte	0x5
 5383 0514 DF02     		.2byte	0x2df
 5384 0516 A2000000 		.4byte	0xa2
 5385 051a 74       		.byte	0x74
 5386 051b 09       		.uleb128 0x9
 5387 051c 6E0A0000 		.4byte	.LASF82
 5388 0520 05       		.byte	0x5
 5389 0521 E002     		.2byte	0x2e0
 5390 0523 B4000000 		.4byte	0xb4
 5391 0527 78       		.byte	0x78
 5392 0528 09       		.uleb128 0x9
ARM GAS  /tmp/ccJqmpZo.s 			page 96


 5393 0529 790A0000 		.4byte	.LASF83
 5394 052d 05       		.byte	0x5
 5395 052e E102     		.2byte	0x2e1
 5396 0530 B4000000 		.4byte	0xb4
 5397 0534 7C       		.byte	0x7c
 5398 0535 09       		.uleb128 0x9
 5399 0536 54020000 		.4byte	.LASF84
 5400 053a 05       		.byte	0x5
 5401 053b E202     		.2byte	0x2e2
 5402 053d B4000000 		.4byte	0xb4
 5403 0541 80       		.byte	0x80
 5404 0542 09       		.uleb128 0x9
 5405 0543 AD060000 		.4byte	.LASF85
 5406 0547 05       		.byte	0x5
 5407 0548 E302     		.2byte	0x2e3
 5408 054a A2000000 		.4byte	0xa2
 5409 054e 84       		.byte	0x84
 5410 054f 09       		.uleb128 0x9
 5411 0550 D6070000 		.4byte	.LASF86
 5412 0554 05       		.byte	0x5
 5413 0555 E402     		.2byte	0x2e4
 5414 0557 B4000000 		.4byte	0xb4
 5415 055b 88       		.byte	0x88
 5416 055c 09       		.uleb128 0x9
 5417 055d 7A090000 		.4byte	.LASF87
 5418 0561 05       		.byte	0x5
 5419 0562 E502     		.2byte	0x2e5
 5420 0564 B4000000 		.4byte	0xb4
 5421 0568 8C       		.byte	0x8c
 5422 0569 09       		.uleb128 0x9
 5423 056a DC090000 		.4byte	.LASF88
 5424 056e 05       		.byte	0x5
 5425 056f E602     		.2byte	0x2e6
 5426 0571 B4000000 		.4byte	0xb4
 5427 0575 90       		.byte	0x90
 5428 0576 0A       		.uleb128 0xa
 5429 0577 43535200 		.ascii	"CSR\000"
 5430 057b 05       		.byte	0x5
 5431 057c E702     		.2byte	0x2e7
 5432 057e B4000000 		.4byte	0xb4
 5433 0582 94       		.byte	0x94
 5434 0583 00       		.byte	0
 5435 0584 0B       		.uleb128 0xb
 5436 0585 9F040000 		.4byte	.LASF89
 5437 0589 05       		.byte	0x5
 5438 058a E802     		.2byte	0x2e8
 5439 058c 8D030000 		.4byte	0x38d
 5440 0590 0C       		.uleb128 0xc
 5441 0591 01       		.byte	0x1
 5442 0592 06       		.byte	0x6
 5443 0593 AE       		.byte	0xae
 5444 0594 A5050000 		.4byte	0x5a5
 5445 0598 0D       		.uleb128 0xd
 5446 0599 B7060000 		.4byte	.LASF90
 5447 059d 00       		.sleb128 0
 5448 059e 0E       		.uleb128 0xe
 5449 059f 53455400 		.ascii	"SET\000"
ARM GAS  /tmp/ccJqmpZo.s 			page 97


 5450 05a3 01       		.sleb128 1
 5451 05a4 00       		.byte	0
 5452 05a5 03       		.uleb128 0x3
 5453 05a6 25000000 		.4byte	.LASF91
 5454 05aa 06       		.byte	0x6
 5455 05ab B1       		.byte	0xb1
 5456 05ac 90050000 		.4byte	0x590
 5457 05b0 02       		.uleb128 0x2
 5458 05b1 01       		.byte	0x1
 5459 05b2 08       		.byte	0x8
 5460 05b3 C1080000 		.4byte	.LASF92
 5461 05b7 0C       		.uleb128 0xc
 5462 05b8 01       		.byte	0x1
 5463 05b9 07       		.byte	0x7
 5464 05ba 3A       		.byte	0x3a
 5465 05bb D8050000 		.4byte	0x5d8
 5466 05bf 0D       		.uleb128 0xd
 5467 05c0 AB040000 		.4byte	.LASF93
 5468 05c4 00       		.sleb128 0
 5469 05c5 0D       		.uleb128 0xd
 5470 05c6 85080000 		.4byte	.LASF94
 5471 05ca 01       		.sleb128 1
 5472 05cb 0D       		.uleb128 0xd
 5473 05cc 9C000000 		.4byte	.LASF95
 5474 05d0 02       		.sleb128 2
 5475 05d1 0D       		.uleb128 0xd
 5476 05d2 4B040000 		.4byte	.LASF96
 5477 05d6 03       		.sleb128 3
 5478 05d7 00       		.byte	0
 5479 05d8 03       		.uleb128 0x3
 5480 05d9 23050000 		.4byte	.LASF97
 5481 05dd 07       		.byte	0x7
 5482 05de 3F       		.byte	0x3f
 5483 05df B7050000 		.4byte	0x5b7
 5484 05e3 0F       		.uleb128 0xf
 5485 05e4 1C       		.byte	0x1c
 5486 05e5 08       		.byte	0x8
 5487 05e6 42       		.byte	0x42
 5488 05e7 40060000 		.4byte	0x640
 5489 05eb 10       		.uleb128 0x10
 5490 05ec D0050000 		.4byte	.LASF98
 5491 05f0 08       		.byte	0x8
 5492 05f1 45       		.byte	0x45
 5493 05f2 A2000000 		.4byte	0xa2
 5494 05f6 00       		.byte	0
 5495 05f7 10       		.uleb128 0x10
 5496 05f8 C8010000 		.4byte	.LASF99
 5497 05fc 08       		.byte	0x8
 5498 05fd 48       		.byte	0x48
 5499 05fe A2000000 		.4byte	0xa2
 5500 0602 04       		.byte	0x4
 5501 0603 10       		.uleb128 0x10
 5502 0604 35020000 		.4byte	.LASF100
 5503 0608 08       		.byte	0x8
 5504 0609 4B       		.byte	0x4b
 5505 060a A2000000 		.4byte	0xa2
 5506 060e 08       		.byte	0x8
ARM GAS  /tmp/ccJqmpZo.s 			page 98


 5507 060f 10       		.uleb128 0x10
 5508 0610 00020000 		.4byte	.LASF101
 5509 0614 08       		.byte	0x8
 5510 0615 4E       		.byte	0x4e
 5511 0616 A2000000 		.4byte	0xa2
 5512 061a 0C       		.byte	0xc
 5513 061b 10       		.uleb128 0x10
 5514 061c 76020000 		.4byte	.LASF102
 5515 0620 08       		.byte	0x8
 5516 0621 51       		.byte	0x51
 5517 0622 A2000000 		.4byte	0xa2
 5518 0626 10       		.byte	0x10
 5519 0627 10       		.uleb128 0x10
 5520 0628 0E020000 		.4byte	.LASF103
 5521 062c 08       		.byte	0x8
 5522 062d 54       		.byte	0x54
 5523 062e A2000000 		.4byte	0xa2
 5524 0632 14       		.byte	0x14
 5525 0633 10       		.uleb128 0x10
 5526 0634 92020000 		.4byte	.LASF104
 5527 0638 08       		.byte	0x8
 5528 0639 57       		.byte	0x57
 5529 063a A2000000 		.4byte	0xa2
 5530 063e 18       		.byte	0x18
 5531 063f 00       		.byte	0
 5532 0640 03       		.uleb128 0x3
 5533 0641 0C050000 		.4byte	.LASF105
 5534 0645 08       		.byte	0x8
 5535 0646 59       		.byte	0x59
 5536 0647 E3050000 		.4byte	0x5e3
 5537 064b 0F       		.uleb128 0xf
 5538 064c 18       		.byte	0x18
 5539 064d 08       		.byte	0x8
 5540 064e 60       		.byte	0x60
 5541 064f 9C060000 		.4byte	0x69c
 5542 0653 10       		.uleb128 0x10
 5543 0654 77080000 		.4byte	.LASF106
 5544 0658 08       		.byte	0x8
 5545 0659 63       		.byte	0x63
 5546 065a A2000000 		.4byte	0xa2
 5547 065e 00       		.byte	0
 5548 065f 10       		.uleb128 0x10
 5549 0660 170A0000 		.4byte	.LASF107
 5550 0664 08       		.byte	0x8
 5551 0665 66       		.byte	0x66
 5552 0666 A2000000 		.4byte	0xa2
 5553 066a 04       		.byte	0x4
 5554 066b 10       		.uleb128 0x10
 5555 066c 62030000 		.4byte	.LASF108
 5556 0670 08       		.byte	0x8
 5557 0671 69       		.byte	0x69
 5558 0672 A2000000 		.4byte	0xa2
 5559 0676 08       		.byte	0x8
 5560 0677 10       		.uleb128 0x10
 5561 0678 73030000 		.4byte	.LASF109
 5562 067c 08       		.byte	0x8
 5563 067d 6C       		.byte	0x6c
ARM GAS  /tmp/ccJqmpZo.s 			page 99


 5564 067e A2000000 		.4byte	0xa2
 5565 0682 0C       		.byte	0xc
 5566 0683 10       		.uleb128 0x10
 5567 0684 7C030000 		.4byte	.LASF110
 5568 0688 08       		.byte	0x8
 5569 0689 6F       		.byte	0x6f
 5570 068a A2000000 		.4byte	0xa2
 5571 068e 10       		.byte	0x10
 5572 068f 10       		.uleb128 0x10
 5573 0690 70040000 		.4byte	.LASF111
 5574 0694 08       		.byte	0x8
 5575 0695 72       		.byte	0x72
 5576 0696 A2000000 		.4byte	0xa2
 5577 069a 14       		.byte	0x14
 5578 069b 00       		.byte	0
 5579 069c 03       		.uleb128 0x3
 5580 069d BD060000 		.4byte	.LASF112
 5581 06a1 08       		.byte	0x8
 5582 06a2 74       		.byte	0x74
 5583 06a3 4B060000 		.4byte	0x64b
 5584 06a7 0F       		.uleb128 0xf
 5585 06a8 88       		.byte	0x88
 5586 06a9 08       		.byte	0x8
 5587 06aa 7B       		.byte	0x7b
 5588 06ab C4070000 		.4byte	0x7c4
 5589 06af 10       		.uleb128 0x10
 5590 06b0 B2040000 		.4byte	.LASF113
 5591 06b4 08       		.byte	0x8
 5592 06b5 7D       		.byte	0x7d
 5593 06b6 A2000000 		.4byte	0xa2
 5594 06ba 00       		.byte	0
 5595 06bb 10       		.uleb128 0x10
 5596 06bc 69060000 		.4byte	.LASF114
 5597 06c0 08       		.byte	0x8
 5598 06c1 80       		.byte	0x80
 5599 06c2 40060000 		.4byte	0x640
 5600 06c6 04       		.byte	0x4
 5601 06c7 10       		.uleb128 0x10
 5602 06c8 71060000 		.4byte	.LASF115
 5603 06cc 08       		.byte	0x8
 5604 06cd 85       		.byte	0x85
 5605 06ce 9C060000 		.4byte	0x69c
 5606 06d2 20       		.byte	0x20
 5607 06d3 10       		.uleb128 0x10
 5608 06d4 9F090000 		.4byte	.LASF116
 5609 06d8 08       		.byte	0x8
 5610 06d9 8A       		.byte	0x8a
 5611 06da A2000000 		.4byte	0xa2
 5612 06de 38       		.byte	0x38
 5613 06df 10       		.uleb128 0x10
 5614 06e0 F7070000 		.4byte	.LASF117
 5615 06e4 08       		.byte	0x8
 5616 06e5 8D       		.byte	0x8d
 5617 06e6 A2000000 		.4byte	0xa2
 5618 06ea 3C       		.byte	0x3c
 5619 06eb 10       		.uleb128 0x10
 5620 06ec BB090000 		.4byte	.LASF118
ARM GAS  /tmp/ccJqmpZo.s 			page 100


 5621 06f0 08       		.byte	0x8
 5622 06f1 92       		.byte	0x92
 5623 06f2 A2000000 		.4byte	0xa2
 5624 06f6 40       		.byte	0x40
 5625 06f7 10       		.uleb128 0x10
 5626 06f8 4B090000 		.4byte	.LASF119
 5627 06fc 08       		.byte	0x8
 5628 06fd 99       		.byte	0x99
 5629 06fe A2000000 		.4byte	0xa2
 5630 0702 44       		.byte	0x44
 5631 0703 10       		.uleb128 0x10
 5632 0704 1E030000 		.4byte	.LASF120
 5633 0708 08       		.byte	0x8
 5634 0709 A0       		.byte	0xa0
 5635 070a A2000000 		.4byte	0xa2
 5636 070e 48       		.byte	0x48
 5637 070f 10       		.uleb128 0x10
 5638 0710 84090000 		.4byte	.LASF121
 5639 0714 08       		.byte	0x8
 5640 0715 A5       		.byte	0xa5
 5641 0716 A2000000 		.4byte	0xa2
 5642 071a 4C       		.byte	0x4c
 5643 071b 10       		.uleb128 0x10
 5644 071c FD060000 		.4byte	.LASF122
 5645 0720 08       		.byte	0x8
 5646 0721 A8       		.byte	0xa8
 5647 0722 A2000000 		.4byte	0xa2
 5648 0726 50       		.byte	0x50
 5649 0727 10       		.uleb128 0x10
 5650 0728 D1010000 		.4byte	.LASF123
 5651 072c 08       		.byte	0x8
 5652 072d AD       		.byte	0xad
 5653 072e A2000000 		.4byte	0xa2
 5654 0732 54       		.byte	0x54
 5655 0733 10       		.uleb128 0x10
 5656 0734 D4060000 		.4byte	.LASF124
 5657 0738 08       		.byte	0x8
 5658 0739 B2       		.byte	0xb2
 5659 073a A2000000 		.4byte	0xa2
 5660 073e 58       		.byte	0x58
 5661 073f 10       		.uleb128 0x10
 5662 0740 42010000 		.4byte	.LASF125
 5663 0744 08       		.byte	0x8
 5664 0745 B5       		.byte	0xb5
 5665 0746 A2000000 		.4byte	0xa2
 5666 074a 5C       		.byte	0x5c
 5667 074b 10       		.uleb128 0x10
 5668 074c 3F050000 		.4byte	.LASF126
 5669 0750 08       		.byte	0x8
 5670 0751 B8       		.byte	0xb8
 5671 0752 A2000000 		.4byte	0xa2
 5672 0756 60       		.byte	0x60
 5673 0757 10       		.uleb128 0x10
 5674 0758 10070000 		.4byte	.LASF127
 5675 075c 08       		.byte	0x8
 5676 075d BB       		.byte	0xbb
 5677 075e A2000000 		.4byte	0xa2
ARM GAS  /tmp/ccJqmpZo.s 			page 101


 5678 0762 64       		.byte	0x64
 5679 0763 10       		.uleb128 0x10
 5680 0764 17020000 		.4byte	.LASF128
 5681 0768 08       		.byte	0x8
 5682 0769 C0       		.byte	0xc0
 5683 076a A2000000 		.4byte	0xa2
 5684 076e 68       		.byte	0x68
 5685 076f 10       		.uleb128 0x10
 5686 0770 69050000 		.4byte	.LASF129
 5687 0774 08       		.byte	0x8
 5688 0775 C7       		.byte	0xc7
 5689 0776 A2000000 		.4byte	0xa2
 5690 077a 6C       		.byte	0x6c
 5691 077b 10       		.uleb128 0x10
 5692 077c DB000000 		.4byte	.LASF130
 5693 0780 08       		.byte	0x8
 5694 0781 CE       		.byte	0xce
 5695 0782 A2000000 		.4byte	0xa2
 5696 0786 70       		.byte	0x70
 5697 0787 10       		.uleb128 0x10
 5698 0788 1F080000 		.4byte	.LASF131
 5699 078c 08       		.byte	0x8
 5700 078d D3       		.byte	0xd3
 5701 078e A2000000 		.4byte	0xa2
 5702 0792 74       		.byte	0x74
 5703 0793 10       		.uleb128 0x10
 5704 0794 10090000 		.4byte	.LASF132
 5705 0798 08       		.byte	0x8
 5706 0799 D6       		.byte	0xd6
 5707 079a A2000000 		.4byte	0xa2
 5708 079e 78       		.byte	0x78
 5709 079f 10       		.uleb128 0x10
 5710 07a0 C6080000 		.4byte	.LASF133
 5711 07a4 08       		.byte	0x8
 5712 07a5 DB       		.byte	0xdb
 5713 07a6 A2000000 		.4byte	0xa2
 5714 07aa 7C       		.byte	0x7c
 5715 07ab 10       		.uleb128 0x10
 5716 07ac 54050000 		.4byte	.LASF134
 5717 07b0 08       		.byte	0x8
 5718 07b1 E2       		.byte	0xe2
 5719 07b2 A2000000 		.4byte	0xa2
 5720 07b6 80       		.byte	0x80
 5721 07b7 10       		.uleb128 0x10
 5722 07b8 9E050000 		.4byte	.LASF135
 5723 07bc 08       		.byte	0x8
 5724 07bd E7       		.byte	0xe7
 5725 07be A2000000 		.4byte	0xa2
 5726 07c2 84       		.byte	0x84
 5727 07c3 00       		.byte	0
 5728 07c4 03       		.uleb128 0x3
 5729 07c5 5E080000 		.4byte	.LASF136
 5730 07c9 08       		.byte	0x8
 5731 07ca E9       		.byte	0xe9
 5732 07cb A7060000 		.4byte	0x6a7
 5733 07cf 0F       		.uleb128 0xf
 5734 07d0 14       		.byte	0x14
ARM GAS  /tmp/ccJqmpZo.s 			page 102


 5735 07d1 09       		.byte	0x9
 5736 07d2 41       		.byte	0x41
 5737 07d3 14080000 		.4byte	0x814
 5738 07d7 11       		.uleb128 0x11
 5739 07d8 50696E00 		.ascii	"Pin\000"
 5740 07dc 09       		.byte	0x9
 5741 07dd 43       		.byte	0x43
 5742 07de A2000000 		.4byte	0xa2
 5743 07e2 00       		.byte	0
 5744 07e3 10       		.uleb128 0x10
 5745 07e4 DB080000 		.4byte	.LASF137
 5746 07e8 09       		.byte	0x9
 5747 07e9 46       		.byte	0x46
 5748 07ea A2000000 		.4byte	0xa2
 5749 07ee 04       		.byte	0x4
 5750 07ef 10       		.uleb128 0x10
 5751 07f0 2E0A0000 		.4byte	.LASF138
 5752 07f4 09       		.byte	0x9
 5753 07f5 49       		.byte	0x49
 5754 07f6 A2000000 		.4byte	0xa2
 5755 07fa 08       		.byte	0x8
 5756 07fb 10       		.uleb128 0x10
 5757 07fc B9050000 		.4byte	.LASF139
 5758 0800 09       		.byte	0x9
 5759 0801 4C       		.byte	0x4c
 5760 0802 A2000000 		.4byte	0xa2
 5761 0806 0C       		.byte	0xc
 5762 0807 10       		.uleb128 0x10
 5763 0808 510A0000 		.4byte	.LASF140
 5764 080c 09       		.byte	0x9
 5765 080d 4F       		.byte	0x4f
 5766 080e A2000000 		.4byte	0xa2
 5767 0812 10       		.byte	0x10
 5768 0813 00       		.byte	0
 5769 0814 03       		.uleb128 0x3
 5770 0815 10060000 		.4byte	.LASF141
 5771 0819 09       		.byte	0x9
 5772 081a 51       		.byte	0x51
 5773 081b CF070000 		.4byte	0x7cf
 5774 081f 12       		.uleb128 0x12
 5775 0820 4F030000 		.4byte	.LASF187
 5776 0824 02       		.byte	0x2
 5777 0825 4502     		.2byte	0x245
 5778 0827 A2000000 		.4byte	0xa2
 5779 082b 03       		.byte	0x3
 5780 082c 49080000 		.4byte	0x849
 5781 0830 13       		.uleb128 0x13
 5782 0831 45040000 		.4byte	.LASF188
 5783 0835 02       		.byte	0x2
 5784 0836 4502     		.2byte	0x245
 5785 0838 A2000000 		.4byte	0xa2
 5786 083c 14       		.uleb128 0x14
 5787 083d 5B0A0000 		.4byte	.LASF189
 5788 0841 02       		.byte	0x2
 5789 0842 4702     		.2byte	0x247
 5790 0844 A2000000 		.4byte	0xa2
 5791 0848 00       		.byte	0
ARM GAS  /tmp/ccJqmpZo.s 			page 103


 5792 0849 15       		.uleb128 0x15
 5793 084a C1000000 		.4byte	.LASF148
 5794 084e 01       		.byte	0x1
 5795 084f A3       		.byte	0xa3
 5796 0850 D8050000 		.4byte	0x5d8
 5797 0854 00000000 		.4byte	.LFB125
 5798 0858 24060000 		.4byte	.LFE125-.LFB125
 5799 085c 01       		.uleb128 0x1
 5800 085d 9C       		.byte	0x9c
 5801 085e DB080000 		.4byte	0x8db
 5802 0862 16       		.uleb128 0x16
 5803 0863 30000000 		.4byte	.LASF147
 5804 0867 01       		.byte	0x1
 5805 0868 A3       		.byte	0xa3
 5806 0869 DB080000 		.4byte	0x8db
 5807 086d 02       		.uleb128 0x2
 5808 086e 91       		.byte	0x91
 5809 086f 64       		.sleb128 -28
 5810 0870 17       		.uleb128 0x17
 5811 0871 EA050000 		.4byte	.LASF142
 5812 0875 01       		.byte	0x1
 5813 0876 A5       		.byte	0xa5
 5814 0877 A2000000 		.4byte	0xa2
 5815 087b 02       		.uleb128 0x2
 5816 087c 91       		.byte	0x91
 5817 087d 74       		.sleb128 -12
 5818 087e 17       		.uleb128 0x17
 5819 087f 0C080000 		.4byte	.LASF143
 5820 0883 01       		.byte	0x1
 5821 0884 A6       		.byte	0xa6
 5822 0885 A2000000 		.4byte	0xa2
 5823 0889 02       		.uleb128 0x2
 5824 088a 91       		.byte	0x91
 5825 088b 6C       		.sleb128 -20
 5826 088c 18       		.uleb128 0x18
 5827 088d 72657400 		.ascii	"ret\000"
 5828 0891 01       		.byte	0x1
 5829 0892 A7       		.byte	0xa7
 5830 0893 D8050000 		.4byte	0x5d8
 5831 0897 02       		.uleb128 0x2
 5832 0898 91       		.byte	0x91
 5833 0899 73       		.sleb128 -13
 5834 089a 17       		.uleb128 0x17
 5835 089b B4090000 		.4byte	.LASF144
 5836 089f 01       		.byte	0x1
 5837 08a0 A8       		.byte	0xa8
 5838 08a1 D8050000 		.4byte	0x5d8
 5839 08a5 02       		.uleb128 0x2
 5840 08a6 91       		.byte	0x91
 5841 08a7 72       		.sleb128 -14
 5842 08a8 19       		.uleb128 0x19
 5843 08a9 58010000 		.4byte	.LBB86
 5844 08ad 4C010000 		.4byte	.LBE86-.LBB86
 5845 08b1 1A       		.uleb128 0x1a
 5846 08b2 90050000 		.4byte	.LASF145
 5847 08b6 01       		.byte	0x1
 5848 08b7 1901     		.2byte	0x119
ARM GAS  /tmp/ccJqmpZo.s 			page 104


 5849 08b9 A5050000 		.4byte	0x5a5
 5850 08bd 02       		.uleb128 0x2
 5851 08be 91       		.byte	0x91
 5852 08bf 71       		.sleb128 -15
 5853 08c0 19       		.uleb128 0x19
 5854 08c1 6A010000 		.4byte	.LBB87
 5855 08c5 18000000 		.4byte	.LBE87-.LBB87
 5856 08c9 1A       		.uleb128 0x1a
 5857 08ca 7F020000 		.4byte	.LASF146
 5858 08ce 01       		.byte	0x1
 5859 08cf 2101     		.2byte	0x121
 5860 08d1 B4000000 		.4byte	0xb4
 5861 08d5 02       		.uleb128 0x2
 5862 08d6 91       		.byte	0x91
 5863 08d7 68       		.sleb128 -24
 5864 08d8 00       		.byte	0
 5865 08d9 00       		.byte	0
 5866 08da 00       		.byte	0
 5867 08db 1B       		.uleb128 0x1b
 5868 08dc 04       		.byte	0x4
 5869 08dd C4070000 		.4byte	0x7c4
 5870 08e1 1C       		.uleb128 0x1c
 5871 08e2 F0000000 		.4byte	.LASF162
 5872 08e6 01       		.byte	0x1
 5873 08e7 8302     		.2byte	0x283
 5874 08e9 30060000 		.4byte	.LFB126
 5875 08ed 94020000 		.4byte	.LFE126-.LFB126
 5876 08f1 01       		.uleb128 0x1
 5877 08f2 9C       		.byte	0x9c
 5878 08f3 AD0A0000 		.4byte	0xaad
 5879 08f7 1D       		.uleb128 0x1d
 5880 08f8 30000000 		.4byte	.LASF147
 5881 08fc 01       		.byte	0x1
 5882 08fd 8302     		.2byte	0x283
 5883 08ff DB080000 		.4byte	0x8db
 5884 0903 03       		.uleb128 0x3
 5885 0904 91       		.byte	0x91
 5886 0905 B47F     		.sleb128 -76
 5887 0907 1E       		.uleb128 0x1e
 5888 0908 1F080000 		.4byte	0x81f
 5889 090c 46060000 		.4byte	.LBB88
 5890 0910 0A000000 		.4byte	.LBE88-.LBB88
 5891 0914 01       		.byte	0x1
 5892 0915 B202     		.2byte	0x2b2
 5893 0917 36090000 		.4byte	0x936
 5894 091b 1F       		.uleb128 0x1f
 5895 091c 30080000 		.4byte	0x830
 5896 0920 02       		.uleb128 0x2
 5897 0921 91       		.byte	0x91
 5898 0922 7C       		.sleb128 -4
 5899 0923 19       		.uleb128 0x19
 5900 0924 46060000 		.4byte	.LBB89
 5901 0928 0A000000 		.4byte	.LBE89-.LBB89
 5902 092c 20       		.uleb128 0x20
 5903 092d 3C080000 		.4byte	0x83c
 5904 0931 02       		.uleb128 0x2
 5905 0932 91       		.byte	0x91
ARM GAS  /tmp/ccJqmpZo.s 			page 105


 5906 0933 78       		.sleb128 -8
 5907 0934 00       		.byte	0
 5908 0935 00       		.byte	0
 5909 0936 1E       		.uleb128 0x1e
 5910 0937 1F080000 		.4byte	0x81f
 5911 093b 66060000 		.4byte	.LBB90
 5912 093f 0A000000 		.4byte	.LBE90-.LBB90
 5913 0943 01       		.byte	0x1
 5914 0944 B302     		.2byte	0x2b3
 5915 0946 65090000 		.4byte	0x965
 5916 094a 1F       		.uleb128 0x1f
 5917 094b 30080000 		.4byte	0x830
 5918 094f 02       		.uleb128 0x2
 5919 0950 91       		.byte	0x91
 5920 0951 74       		.sleb128 -12
 5921 0952 19       		.uleb128 0x19
 5922 0953 66060000 		.4byte	.LBB91
 5923 0957 0A000000 		.4byte	.LBE91-.LBB91
 5924 095b 20       		.uleb128 0x20
 5925 095c 3C080000 		.4byte	0x83c
 5926 0960 02       		.uleb128 0x2
 5927 0961 91       		.byte	0x91
 5928 0962 70       		.sleb128 -16
 5929 0963 00       		.byte	0
 5930 0964 00       		.byte	0
 5931 0965 1E       		.uleb128 0x1e
 5932 0966 1F080000 		.4byte	0x81f
 5933 096a 8C060000 		.4byte	.LBB92
 5934 096e 0A000000 		.4byte	.LBE92-.LBB92
 5935 0972 01       		.byte	0x1
 5936 0973 B402     		.2byte	0x2b4
 5937 0975 94090000 		.4byte	0x994
 5938 0979 1F       		.uleb128 0x1f
 5939 097a 30080000 		.4byte	0x830
 5940 097e 02       		.uleb128 0x2
 5941 097f 91       		.byte	0x91
 5942 0980 6C       		.sleb128 -20
 5943 0981 19       		.uleb128 0x19
 5944 0982 8C060000 		.4byte	.LBB93
 5945 0986 0A000000 		.4byte	.LBE93-.LBB93
 5946 098a 20       		.uleb128 0x20
 5947 098b 3C080000 		.4byte	0x83c
 5948 098f 02       		.uleb128 0x2
 5949 0990 91       		.byte	0x91
 5950 0991 68       		.sleb128 -24
 5951 0992 00       		.byte	0
 5952 0993 00       		.byte	0
 5953 0994 1E       		.uleb128 0x1e
 5954 0995 1F080000 		.4byte	0x81f
 5955 0999 AE060000 		.4byte	.LBB94
 5956 099d 0A000000 		.4byte	.LBE94-.LBB94
 5957 09a1 01       		.byte	0x1
 5958 09a2 B502     		.2byte	0x2b5
 5959 09a4 C3090000 		.4byte	0x9c3
 5960 09a8 1F       		.uleb128 0x1f
 5961 09a9 30080000 		.4byte	0x830
 5962 09ad 02       		.uleb128 0x2
ARM GAS  /tmp/ccJqmpZo.s 			page 106


 5963 09ae 91       		.byte	0x91
 5964 09af 64       		.sleb128 -28
 5965 09b0 19       		.uleb128 0x19
 5966 09b1 AE060000 		.4byte	.LBB95
 5967 09b5 0A000000 		.4byte	.LBE95-.LBB95
 5968 09b9 20       		.uleb128 0x20
 5969 09ba 3C080000 		.4byte	0x83c
 5970 09be 02       		.uleb128 0x2
 5971 09bf 91       		.byte	0x91
 5972 09c0 60       		.sleb128 -32
 5973 09c1 00       		.byte	0
 5974 09c2 00       		.byte	0
 5975 09c3 1E       		.uleb128 0x1e
 5976 09c4 1F080000 		.4byte	0x81f
 5977 09c8 D6060000 		.4byte	.LBB96
 5978 09cc 0A000000 		.4byte	.LBE96-.LBB96
 5979 09d0 01       		.byte	0x1
 5980 09d1 B602     		.2byte	0x2b6
 5981 09d3 F2090000 		.4byte	0x9f2
 5982 09d7 1F       		.uleb128 0x1f
 5983 09d8 30080000 		.4byte	0x830
 5984 09dc 02       		.uleb128 0x2
 5985 09dd 91       		.byte	0x91
 5986 09de 5C       		.sleb128 -36
 5987 09df 19       		.uleb128 0x19
 5988 09e0 D6060000 		.4byte	.LBB97
 5989 09e4 0A000000 		.4byte	.LBE97-.LBB97
 5990 09e8 20       		.uleb128 0x20
 5991 09e9 3C080000 		.4byte	0x83c
 5992 09ed 02       		.uleb128 0x2
 5993 09ee 91       		.byte	0x91
 5994 09ef 58       		.sleb128 -40
 5995 09f0 00       		.byte	0
 5996 09f1 00       		.byte	0
 5997 09f2 1E       		.uleb128 0x1e
 5998 09f3 1F080000 		.4byte	0x81f
 5999 09f7 FE060000 		.4byte	.LBB98
 6000 09fb 0A000000 		.4byte	.LBE98-.LBB98
 6001 09ff 01       		.byte	0x1
 6002 0a00 B702     		.2byte	0x2b7
 6003 0a02 210A0000 		.4byte	0xa21
 6004 0a06 1F       		.uleb128 0x1f
 6005 0a07 30080000 		.4byte	0x830
 6006 0a0b 02       		.uleb128 0x2
 6007 0a0c 91       		.byte	0x91
 6008 0a0d 54       		.sleb128 -44
 6009 0a0e 19       		.uleb128 0x19
 6010 0a0f FE060000 		.4byte	.LBB99
 6011 0a13 0A000000 		.4byte	.LBE99-.LBB99
 6012 0a17 20       		.uleb128 0x20
 6013 0a18 3C080000 		.4byte	0x83c
 6014 0a1c 02       		.uleb128 0x2
 6015 0a1d 91       		.byte	0x91
 6016 0a1e 50       		.sleb128 -48
 6017 0a1f 00       		.byte	0
 6018 0a20 00       		.byte	0
 6019 0a21 1E       		.uleb128 0x1e
ARM GAS  /tmp/ccJqmpZo.s 			page 107


 6020 0a22 1F080000 		.4byte	0x81f
 6021 0a26 36070000 		.4byte	.LBB100
 6022 0a2a 0A000000 		.4byte	.LBE100-.LBB100
 6023 0a2e 01       		.byte	0x1
 6024 0a2f BF02     		.2byte	0x2bf
 6025 0a31 500A0000 		.4byte	0xa50
 6026 0a35 1F       		.uleb128 0x1f
 6027 0a36 30080000 		.4byte	0x830
 6028 0a3a 02       		.uleb128 0x2
 6029 0a3b 91       		.byte	0x91
 6030 0a3c 4C       		.sleb128 -52
 6031 0a3d 19       		.uleb128 0x19
 6032 0a3e 36070000 		.4byte	.LBB101
 6033 0a42 0A000000 		.4byte	.LBE101-.LBB101
 6034 0a46 20       		.uleb128 0x20
 6035 0a47 3C080000 		.4byte	0x83c
 6036 0a4b 02       		.uleb128 0x2
 6037 0a4c 91       		.byte	0x91
 6038 0a4d 48       		.sleb128 -56
 6039 0a4e 00       		.byte	0
 6040 0a4f 00       		.byte	0
 6041 0a50 1E       		.uleb128 0x1e
 6042 0a51 1F080000 		.4byte	0x81f
 6043 0a55 58070000 		.4byte	.LBB102
 6044 0a59 0A000000 		.4byte	.LBE102-.LBB102
 6045 0a5d 01       		.byte	0x1
 6046 0a5e C002     		.2byte	0x2c0
 6047 0a60 7F0A0000 		.4byte	0xa7f
 6048 0a64 1F       		.uleb128 0x1f
 6049 0a65 30080000 		.4byte	0x830
 6050 0a69 02       		.uleb128 0x2
 6051 0a6a 91       		.byte	0x91
 6052 0a6b 44       		.sleb128 -60
 6053 0a6c 19       		.uleb128 0x19
 6054 0a6d 58070000 		.4byte	.LBB103
 6055 0a71 0A000000 		.4byte	.LBE103-.LBB103
 6056 0a75 20       		.uleb128 0x20
 6057 0a76 3C080000 		.4byte	0x83c
 6058 0a7a 02       		.uleb128 0x2
 6059 0a7b 91       		.byte	0x91
 6060 0a7c 40       		.sleb128 -64
 6061 0a7d 00       		.byte	0
 6062 0a7e 00       		.byte	0
 6063 0a7f 21       		.uleb128 0x21
 6064 0a80 1F080000 		.4byte	0x81f
 6065 0a84 80070000 		.4byte	.LBB104
 6066 0a88 0A000000 		.4byte	.LBE104-.LBB104
 6067 0a8c 01       		.byte	0x1
 6068 0a8d C102     		.2byte	0x2c1
 6069 0a8f 1F       		.uleb128 0x1f
 6070 0a90 30080000 		.4byte	0x830
 6071 0a94 03       		.uleb128 0x3
 6072 0a95 91       		.byte	0x91
 6073 0a96 BC7F     		.sleb128 -68
 6074 0a98 19       		.uleb128 0x19
 6075 0a99 80070000 		.4byte	.LBB105
 6076 0a9d 0A000000 		.4byte	.LBE105-.LBB105
ARM GAS  /tmp/ccJqmpZo.s 			page 108


 6077 0aa1 20       		.uleb128 0x20
 6078 0aa2 3C080000 		.4byte	0x83c
 6079 0aa6 03       		.uleb128 0x3
 6080 0aa7 91       		.byte	0x91
 6081 0aa8 B87F     		.sleb128 -72
 6082 0aaa 00       		.byte	0
 6083 0aab 00       		.byte	0
 6084 0aac 00       		.byte	0
 6085 0aad 22       		.uleb128 0x22
 6086 0aae DC070000 		.4byte	.LASF149
 6087 0ab2 01       		.byte	0x1
 6088 0ab3 3403     		.2byte	0x334
 6089 0ab5 A2000000 		.4byte	0xa2
 6090 0ab9 D0080000 		.4byte	.LFB127
 6091 0abd D80A0000 		.4byte	.LFE127-.LFB127
 6092 0ac1 01       		.uleb128 0x1
 6093 0ac2 9C       		.byte	0x9c
 6094 0ac3 620D0000 		.4byte	0xd62
 6095 0ac7 1D       		.uleb128 0x1d
 6096 0ac8 3E000000 		.4byte	.LASF150
 6097 0acc 01       		.byte	0x1
 6098 0acd 3403     		.2byte	0x334
 6099 0acf A2000000 		.4byte	0xa2
 6100 0ad3 03       		.uleb128 0x3
 6101 0ad4 91       		.byte	0x91
 6102 0ad5 FC7E     		.sleb128 -132
 6103 0ad7 1A       		.uleb128 0x1a
 6104 0ad8 72010000 		.4byte	.LASF151
 6105 0adc 01       		.byte	0x1
 6106 0add 3603     		.2byte	0x336
 6107 0adf A2000000 		.4byte	0xa2
 6108 0ae3 02       		.uleb128 0x2
 6109 0ae4 91       		.byte	0x91
 6110 0ae5 74       		.sleb128 -12
 6111 0ae6 1A       		.uleb128 0x1a
 6112 0ae7 5B030000 		.4byte	.LASF152
 6113 0aeb 01       		.byte	0x1
 6114 0aec 3703     		.2byte	0x337
 6115 0aee A2000000 		.4byte	0xa2
 6116 0af2 02       		.uleb128 0x2
 6117 0af3 91       		.byte	0x91
 6118 0af4 70       		.sleb128 -16
 6119 0af5 1A       		.uleb128 0x1a
 6120 0af6 57040000 		.4byte	.LASF153
 6121 0afa 01       		.byte	0x1
 6122 0afb 3803     		.2byte	0x338
 6123 0afd A2000000 		.4byte	0xa2
 6124 0b01 02       		.uleb128 0x2
 6125 0b02 91       		.byte	0x91
 6126 0b03 6C       		.sleb128 -20
 6127 0b04 1A       		.uleb128 0x1a
 6128 0b05 7E000000 		.4byte	.LASF154
 6129 0b09 01       		.byte	0x1
 6130 0b0a 3803     		.2byte	0x338
 6131 0b0c A2000000 		.4byte	0xa2
 6132 0b10 02       		.uleb128 0x2
 6133 0b11 91       		.byte	0x91
ARM GAS  /tmp/ccJqmpZo.s 			page 109


 6134 0b12 64       		.sleb128 -28
 6135 0b13 1A       		.uleb128 0x1a
 6136 0b14 CB050000 		.4byte	.LASF155
 6137 0b18 01       		.byte	0x1
 6138 0b19 3803     		.2byte	0x338
 6139 0b1b A2000000 		.4byte	0xa2
 6140 0b1f 02       		.uleb128 0x2
 6141 0b20 91       		.byte	0x91
 6142 0b21 68       		.sleb128 -24
 6143 0b22 1E       		.uleb128 0x1e
 6144 0b23 1F080000 		.4byte	0x81f
 6145 0b27 0E0A0000 		.4byte	.LBB106
 6146 0b2b 0A000000 		.4byte	.LBE106-.LBB106
 6147 0b2f 01       		.byte	0x1
 6148 0b30 8303     		.2byte	0x383
 6149 0b32 510B0000 		.4byte	0xb51
 6150 0b36 1F       		.uleb128 0x1f
 6151 0b37 30080000 		.4byte	0x830
 6152 0b3b 02       		.uleb128 0x2
 6153 0b3c 91       		.byte	0x91
 6154 0b3d 60       		.sleb128 -32
 6155 0b3e 19       		.uleb128 0x19
 6156 0b3f 0E0A0000 		.4byte	.LBB107
 6157 0b43 0A000000 		.4byte	.LBE107-.LBB107
 6158 0b47 20       		.uleb128 0x20
 6159 0b48 3C080000 		.4byte	0x83c
 6160 0b4c 02       		.uleb128 0x2
 6161 0b4d 91       		.byte	0x91
 6162 0b4e 5C       		.sleb128 -36
 6163 0b4f 00       		.byte	0
 6164 0b50 00       		.byte	0
 6165 0b51 1E       		.uleb128 0x1e
 6166 0b52 1F080000 		.4byte	0x81f
 6167 0b56 640B0000 		.4byte	.LBB108
 6168 0b5a 0A000000 		.4byte	.LBE108-.LBB108
 6169 0b5e 01       		.byte	0x1
 6170 0b5f BA03     		.2byte	0x3ba
 6171 0b61 800B0000 		.4byte	0xb80
 6172 0b65 1F       		.uleb128 0x1f
 6173 0b66 30080000 		.4byte	0x830
 6174 0b6a 02       		.uleb128 0x2
 6175 0b6b 91       		.byte	0x91
 6176 0b6c 58       		.sleb128 -40
 6177 0b6d 19       		.uleb128 0x19
 6178 0b6e 640B0000 		.4byte	.LBB109
 6179 0b72 0A000000 		.4byte	.LBE109-.LBB109
 6180 0b76 20       		.uleb128 0x20
 6181 0b77 3C080000 		.4byte	0x83c
 6182 0b7b 02       		.uleb128 0x2
 6183 0b7c 91       		.byte	0x91
 6184 0b7d 54       		.sleb128 -44
 6185 0b7e 00       		.byte	0
 6186 0b7f 00       		.byte	0
 6187 0b80 1E       		.uleb128 0x1e
 6188 0b81 1F080000 		.4byte	0x81f
 6189 0b85 DC0B0000 		.4byte	.LBB110
 6190 0b89 0A000000 		.4byte	.LBE110-.LBB110
ARM GAS  /tmp/ccJqmpZo.s 			page 110


 6191 0b8d 01       		.byte	0x1
 6192 0b8e D103     		.2byte	0x3d1
 6193 0b90 AF0B0000 		.4byte	0xbaf
 6194 0b94 1F       		.uleb128 0x1f
 6195 0b95 30080000 		.4byte	0x830
 6196 0b99 02       		.uleb128 0x2
 6197 0b9a 91       		.byte	0x91
 6198 0b9b 50       		.sleb128 -48
 6199 0b9c 19       		.uleb128 0x19
 6200 0b9d DC0B0000 		.4byte	.LBB111
 6201 0ba1 0A000000 		.4byte	.LBE111-.LBB111
 6202 0ba5 20       		.uleb128 0x20
 6203 0ba6 3C080000 		.4byte	0x83c
 6204 0baa 02       		.uleb128 0x2
 6205 0bab 91       		.byte	0x91
 6206 0bac 4C       		.sleb128 -52
 6207 0bad 00       		.byte	0
 6208 0bae 00       		.byte	0
 6209 0baf 1E       		.uleb128 0x1e
 6210 0bb0 1F080000 		.4byte	0x81f
 6211 0bb4 480C0000 		.4byte	.LBB112
 6212 0bb8 0A000000 		.4byte	.LBE112-.LBB112
 6213 0bbc 01       		.byte	0x1
 6214 0bbd 3104     		.2byte	0x431
 6215 0bbf DE0B0000 		.4byte	0xbde
 6216 0bc3 1F       		.uleb128 0x1f
 6217 0bc4 30080000 		.4byte	0x830
 6218 0bc8 02       		.uleb128 0x2
 6219 0bc9 91       		.byte	0x91
 6220 0bca 48       		.sleb128 -56
 6221 0bcb 19       		.uleb128 0x19
 6222 0bcc 480C0000 		.4byte	.LBB113
 6223 0bd0 0A000000 		.4byte	.LBE113-.LBB113
 6224 0bd4 20       		.uleb128 0x20
 6225 0bd5 3C080000 		.4byte	0x83c
 6226 0bd9 02       		.uleb128 0x2
 6227 0bda 91       		.byte	0x91
 6228 0bdb 44       		.sleb128 -60
 6229 0bdc 00       		.byte	0
 6230 0bdd 00       		.byte	0
 6231 0bde 1E       		.uleb128 0x1e
 6232 0bdf 1F080000 		.4byte	0x81f
 6233 0be3 200D0000 		.4byte	.LBB114
 6234 0be7 0A000000 		.4byte	.LBE114-.LBB114
 6235 0beb 01       		.byte	0x1
 6236 0bec 6E04     		.2byte	0x46e
 6237 0bee 0E0C0000 		.4byte	0xc0e
 6238 0bf2 1F       		.uleb128 0x1f
 6239 0bf3 30080000 		.4byte	0x830
 6240 0bf7 02       		.uleb128 0x2
 6241 0bf8 91       		.byte	0x91
 6242 0bf9 40       		.sleb128 -64
 6243 0bfa 19       		.uleb128 0x19
 6244 0bfb 200D0000 		.4byte	.LBB115
 6245 0bff 0A000000 		.4byte	.LBE115-.LBB115
 6246 0c03 20       		.uleb128 0x20
 6247 0c04 3C080000 		.4byte	0x83c
ARM GAS  /tmp/ccJqmpZo.s 			page 111


 6248 0c08 03       		.uleb128 0x3
 6249 0c09 91       		.byte	0x91
 6250 0c0a BC7F     		.sleb128 -68
 6251 0c0c 00       		.byte	0
 6252 0c0d 00       		.byte	0
 6253 0c0e 1E       		.uleb128 0x1e
 6254 0c0f 1F080000 		.4byte	0x81f
 6255 0c13 4A0D0000 		.4byte	.LBB116
 6256 0c17 0A000000 		.4byte	.LBE116-.LBB116
 6257 0c1b 01       		.byte	0x1
 6258 0c1c 6F04     		.2byte	0x46f
 6259 0c1e 3F0C0000 		.4byte	0xc3f
 6260 0c22 1F       		.uleb128 0x1f
 6261 0c23 30080000 		.4byte	0x830
 6262 0c27 03       		.uleb128 0x3
 6263 0c28 91       		.byte	0x91
 6264 0c29 B87F     		.sleb128 -72
 6265 0c2b 19       		.uleb128 0x19
 6266 0c2c 4A0D0000 		.4byte	.LBB117
 6267 0c30 0A000000 		.4byte	.LBE117-.LBB117
 6268 0c34 20       		.uleb128 0x20
 6269 0c35 3C080000 		.4byte	0x83c
 6270 0c39 03       		.uleb128 0x3
 6271 0c3a 91       		.byte	0x91
 6272 0c3b B47F     		.sleb128 -76
 6273 0c3d 00       		.byte	0
 6274 0c3e 00       		.byte	0
 6275 0c3f 1E       		.uleb128 0x1e
 6276 0c40 1F080000 		.4byte	0x81f
 6277 0c44 9C0D0000 		.4byte	.LBB118
 6278 0c48 0A000000 		.4byte	.LBE118-.LBB118
 6279 0c4c 01       		.byte	0x1
 6280 0c4d 7B04     		.2byte	0x47b
 6281 0c4f 700C0000 		.4byte	0xc70
 6282 0c53 1F       		.uleb128 0x1f
 6283 0c54 30080000 		.4byte	0x830
 6284 0c58 03       		.uleb128 0x3
 6285 0c59 91       		.byte	0x91
 6286 0c5a B07F     		.sleb128 -80
 6287 0c5c 19       		.uleb128 0x19
 6288 0c5d 9C0D0000 		.4byte	.LBB119
 6289 0c61 0A000000 		.4byte	.LBE119-.LBB119
 6290 0c65 20       		.uleb128 0x20
 6291 0c66 3C080000 		.4byte	0x83c
 6292 0c6a 03       		.uleb128 0x3
 6293 0c6b 91       		.byte	0x91
 6294 0c6c AC7F     		.sleb128 -84
 6295 0c6e 00       		.byte	0
 6296 0c6f 00       		.byte	0
 6297 0c70 1E       		.uleb128 0x1e
 6298 0c71 1F080000 		.4byte	0x81f
 6299 0c75 C60D0000 		.4byte	.LBB120
 6300 0c79 0A000000 		.4byte	.LBE120-.LBB120
 6301 0c7d 01       		.byte	0x1
 6302 0c7e 7C04     		.2byte	0x47c
 6303 0c80 A10C0000 		.4byte	0xca1
 6304 0c84 1F       		.uleb128 0x1f
ARM GAS  /tmp/ccJqmpZo.s 			page 112


 6305 0c85 30080000 		.4byte	0x830
 6306 0c89 03       		.uleb128 0x3
 6307 0c8a 91       		.byte	0x91
 6308 0c8b A87F     		.sleb128 -88
 6309 0c8d 19       		.uleb128 0x19
 6310 0c8e C60D0000 		.4byte	.LBB121
 6311 0c92 0A000000 		.4byte	.LBE121-.LBB121
 6312 0c96 20       		.uleb128 0x20
 6313 0c97 3C080000 		.4byte	0x83c
 6314 0c9b 03       		.uleb128 0x3
 6315 0c9c 91       		.byte	0x91
 6316 0c9d A47F     		.sleb128 -92
 6317 0c9f 00       		.byte	0
 6318 0ca0 00       		.byte	0
 6319 0ca1 1E       		.uleb128 0x1e
 6320 0ca2 1F080000 		.4byte	0x81f
 6321 0ca6 A0100000 		.4byte	.LBB122
 6322 0caa 0A000000 		.4byte	.LBE122-.LBB122
 6323 0cae 01       		.byte	0x1
 6324 0caf 4F05     		.2byte	0x54f
 6325 0cb1 D20C0000 		.4byte	0xcd2
 6326 0cb5 1F       		.uleb128 0x1f
 6327 0cb6 30080000 		.4byte	0x830
 6328 0cba 03       		.uleb128 0x3
 6329 0cbb 91       		.byte	0x91
 6330 0cbc A07F     		.sleb128 -96
 6331 0cbe 19       		.uleb128 0x19
 6332 0cbf A0100000 		.4byte	.LBB123
 6333 0cc3 0A000000 		.4byte	.LBE123-.LBB123
 6334 0cc7 20       		.uleb128 0x20
 6335 0cc8 3C080000 		.4byte	0x83c
 6336 0ccc 03       		.uleb128 0x3
 6337 0ccd 91       		.byte	0x91
 6338 0cce 9C7F     		.sleb128 -100
 6339 0cd0 00       		.byte	0
 6340 0cd1 00       		.byte	0
 6341 0cd2 1E       		.uleb128 0x1e
 6342 0cd3 1F080000 		.4byte	0x81f
 6343 0cd7 CA100000 		.4byte	.LBB124
 6344 0cdb 0A000000 		.4byte	.LBE124-.LBB124
 6345 0cdf 01       		.byte	0x1
 6346 0ce0 5005     		.2byte	0x550
 6347 0ce2 030D0000 		.4byte	0xd03
 6348 0ce6 1F       		.uleb128 0x1f
 6349 0ce7 30080000 		.4byte	0x830
 6350 0ceb 03       		.uleb128 0x3
 6351 0cec 91       		.byte	0x91
 6352 0ced 987F     		.sleb128 -104
 6353 0cef 19       		.uleb128 0x19
 6354 0cf0 CA100000 		.4byte	.LBB125
 6355 0cf4 0A000000 		.4byte	.LBE125-.LBB125
 6356 0cf8 20       		.uleb128 0x20
 6357 0cf9 3C080000 		.4byte	0x83c
 6358 0cfd 03       		.uleb128 0x3
 6359 0cfe 91       		.byte	0x91
 6360 0cff 947F     		.sleb128 -108
 6361 0d01 00       		.byte	0
ARM GAS  /tmp/ccJqmpZo.s 			page 113


 6362 0d02 00       		.byte	0
 6363 0d03 1E       		.uleb128 0x1e
 6364 0d04 1F080000 		.4byte	0x81f
 6365 0d08 12110000 		.4byte	.LBB126
 6366 0d0c 0A000000 		.4byte	.LBE126-.LBB126
 6367 0d10 01       		.byte	0x1
 6368 0d11 5905     		.2byte	0x559
 6369 0d13 340D0000 		.4byte	0xd34
 6370 0d17 1F       		.uleb128 0x1f
 6371 0d18 30080000 		.4byte	0x830
 6372 0d1c 03       		.uleb128 0x3
 6373 0d1d 91       		.byte	0x91
 6374 0d1e 907F     		.sleb128 -112
 6375 0d20 19       		.uleb128 0x19
 6376 0d21 12110000 		.4byte	.LBB127
 6377 0d25 0A000000 		.4byte	.LBE127-.LBB127
 6378 0d29 20       		.uleb128 0x20
 6379 0d2a 3C080000 		.4byte	0x83c
 6380 0d2e 03       		.uleb128 0x3
 6381 0d2f 91       		.byte	0x91
 6382 0d30 8C7F     		.sleb128 -116
 6383 0d32 00       		.byte	0
 6384 0d33 00       		.byte	0
 6385 0d34 21       		.uleb128 0x21
 6386 0d35 1F080000 		.4byte	0x81f
 6387 0d39 3C110000 		.4byte	.LBB128
 6388 0d3d 0A000000 		.4byte	.LBE128-.LBB128
 6389 0d41 01       		.byte	0x1
 6390 0d42 5A05     		.2byte	0x55a
 6391 0d44 1F       		.uleb128 0x1f
 6392 0d45 30080000 		.4byte	0x830
 6393 0d49 03       		.uleb128 0x3
 6394 0d4a 91       		.byte	0x91
 6395 0d4b 887F     		.sleb128 -120
 6396 0d4d 19       		.uleb128 0x19
 6397 0d4e 3C110000 		.4byte	.LBB129
 6398 0d52 0A000000 		.4byte	.LBE129-.LBB129
 6399 0d56 20       		.uleb128 0x20
 6400 0d57 3C080000 		.4byte	0x83c
 6401 0d5b 03       		.uleb128 0x3
 6402 0d5c 91       		.byte	0x91
 6403 0d5d 847F     		.sleb128 -124
 6404 0d5f 00       		.byte	0
 6405 0d60 00       		.byte	0
 6406 0d61 00       		.byte	0
 6407 0d62 22       		.uleb128 0x22
 6408 0d63 48000000 		.4byte	.LASF156
 6409 0d67 01       		.byte	0x1
 6410 0d68 2E06     		.2byte	0x62e
 6411 0d6a D8050000 		.4byte	0x5d8
 6412 0d6e B0130000 		.4byte	.LFB128
 6413 0d72 24010000 		.4byte	.LFE128-.LFB128
 6414 0d76 01       		.uleb128 0x1
 6415 0d77 9C       		.byte	0x9c
 6416 0d78 620E0000 		.4byte	0xe62
 6417 0d7c 1D       		.uleb128 0x1d
 6418 0d7d DE050000 		.4byte	.LASF157
ARM GAS  /tmp/ccJqmpZo.s 			page 114


 6419 0d81 01       		.byte	0x1
 6420 0d82 2E06     		.2byte	0x62e
 6421 0d84 620E0000 		.4byte	0xe62
 6422 0d88 02       		.uleb128 0x2
 6423 0d89 91       		.byte	0x91
 6424 0d8a 4C       		.sleb128 -52
 6425 0d8b 1A       		.uleb128 0x1a
 6426 0d8c 0C080000 		.4byte	.LASF143
 6427 0d90 01       		.byte	0x1
 6428 0d91 3006     		.2byte	0x630
 6429 0d93 A2000000 		.4byte	0xa2
 6430 0d97 02       		.uleb128 0x2
 6431 0d98 91       		.byte	0x91
 6432 0d99 70       		.sleb128 -16
 6433 0d9a 1A       		.uleb128 0x1a
 6434 0d9b B4090000 		.4byte	.LASF144
 6435 0d9f 01       		.byte	0x1
 6436 0da0 3106     		.2byte	0x631
 6437 0da2 D8050000 		.4byte	0x5d8
 6438 0da6 02       		.uleb128 0x2
 6439 0da7 91       		.byte	0x91
 6440 0da8 77       		.sleb128 -9
 6441 0da9 1E       		.uleb128 0x1e
 6442 0daa 1F080000 		.4byte	0x81f
 6443 0dae 0A140000 		.4byte	.LBB130
 6444 0db2 0A000000 		.4byte	.LBE130-.LBB130
 6445 0db6 01       		.byte	0x1
 6446 0db7 5006     		.2byte	0x650
 6447 0db9 D80D0000 		.4byte	0xdd8
 6448 0dbd 1F       		.uleb128 0x1f
 6449 0dbe 30080000 		.4byte	0x830
 6450 0dc2 02       		.uleb128 0x2
 6451 0dc3 91       		.byte	0x91
 6452 0dc4 6C       		.sleb128 -20
 6453 0dc5 19       		.uleb128 0x19
 6454 0dc6 0A140000 		.4byte	.LBB131
 6455 0dca 0A000000 		.4byte	.LBE131-.LBB131
 6456 0dce 20       		.uleb128 0x20
 6457 0dcf 3C080000 		.4byte	0x83c
 6458 0dd3 02       		.uleb128 0x2
 6459 0dd4 91       		.byte	0x91
 6460 0dd5 68       		.sleb128 -24
 6461 0dd6 00       		.byte	0
 6462 0dd7 00       		.byte	0
 6463 0dd8 1E       		.uleb128 0x1e
 6464 0dd9 1F080000 		.4byte	0x81f
 6465 0ddd 26140000 		.4byte	.LBB132
 6466 0de1 0A000000 		.4byte	.LBE132-.LBB132
 6467 0de5 01       		.byte	0x1
 6468 0de6 5006     		.2byte	0x650
 6469 0de8 070E0000 		.4byte	0xe07
 6470 0dec 1F       		.uleb128 0x1f
 6471 0ded 30080000 		.4byte	0x830
 6472 0df1 02       		.uleb128 0x2
 6473 0df2 91       		.byte	0x91
 6474 0df3 64       		.sleb128 -28
 6475 0df4 19       		.uleb128 0x19
ARM GAS  /tmp/ccJqmpZo.s 			page 115


 6476 0df5 26140000 		.4byte	.LBB133
 6477 0df9 0A000000 		.4byte	.LBE133-.LBB133
 6478 0dfd 20       		.uleb128 0x20
 6479 0dfe 3C080000 		.4byte	0x83c
 6480 0e02 02       		.uleb128 0x2
 6481 0e03 91       		.byte	0x91
 6482 0e04 60       		.sleb128 -32
 6483 0e05 00       		.byte	0
 6484 0e06 00       		.byte	0
 6485 0e07 1E       		.uleb128 0x1e
 6486 0e08 1F080000 		.4byte	0x81f
 6487 0e0c 48140000 		.4byte	.LBB134
 6488 0e10 0A000000 		.4byte	.LBE134-.LBB134
 6489 0e14 01       		.byte	0x1
 6490 0e15 5006     		.2byte	0x650
 6491 0e17 360E0000 		.4byte	0xe36
 6492 0e1b 1F       		.uleb128 0x1f
 6493 0e1c 30080000 		.4byte	0x830
 6494 0e20 02       		.uleb128 0x2
 6495 0e21 91       		.byte	0x91
 6496 0e22 5C       		.sleb128 -36
 6497 0e23 19       		.uleb128 0x19
 6498 0e24 48140000 		.4byte	.LBB135
 6499 0e28 0A000000 		.4byte	.LBE135-.LBB135
 6500 0e2c 20       		.uleb128 0x20
 6501 0e2d 3C080000 		.4byte	0x83c
 6502 0e31 02       		.uleb128 0x2
 6503 0e32 91       		.byte	0x91
 6504 0e33 58       		.sleb128 -40
 6505 0e34 00       		.byte	0
 6506 0e35 00       		.byte	0
 6507 0e36 21       		.uleb128 0x21
 6508 0e37 1F080000 		.4byte	0x81f
 6509 0e3b 6A140000 		.4byte	.LBB136
 6510 0e3f 0A000000 		.4byte	.LBE136-.LBB136
 6511 0e43 01       		.byte	0x1
 6512 0e44 5006     		.2byte	0x650
 6513 0e46 1F       		.uleb128 0x1f
 6514 0e47 30080000 		.4byte	0x830
 6515 0e4b 02       		.uleb128 0x2
 6516 0e4c 91       		.byte	0x91
 6517 0e4d 54       		.sleb128 -44
 6518 0e4e 19       		.uleb128 0x19
 6519 0e4f 6A140000 		.4byte	.LBB137
 6520 0e53 0A000000 		.4byte	.LBE137-.LBB137
 6521 0e57 20       		.uleb128 0x20
 6522 0e58 3C080000 		.4byte	0x83c
 6523 0e5c 02       		.uleb128 0x2
 6524 0e5d 91       		.byte	0x91
 6525 0e5e 50       		.sleb128 -48
 6526 0e5f 00       		.byte	0
 6527 0e60 00       		.byte	0
 6528 0e61 00       		.byte	0
 6529 0e62 1B       		.uleb128 0x1b
 6530 0e63 04       		.byte	0x4
 6531 0e64 40060000 		.4byte	0x640
 6532 0e68 22       		.uleb128 0x22
ARM GAS  /tmp/ccJqmpZo.s 			page 116


 6533 0e69 8F080000 		.4byte	.LASF158
 6534 0e6d 01       		.byte	0x1
 6535 0e6e 6C06     		.2byte	0x66c
 6536 0e70 D8050000 		.4byte	0x5d8
 6537 0e74 E0140000 		.4byte	.LFB129
 6538 0e78 88000000 		.4byte	.LFE129-.LFB129
 6539 0e7c 01       		.uleb128 0x1
 6540 0e7d 9C       		.byte	0x9c
 6541 0e7e A10E0000 		.4byte	0xea1
 6542 0e82 1A       		.uleb128 0x1a
 6543 0e83 0C080000 		.4byte	.LASF143
 6544 0e87 01       		.byte	0x1
 6545 0e88 6E06     		.2byte	0x66e
 6546 0e8a A2000000 		.4byte	0xa2
 6547 0e8e 02       		.uleb128 0x2
 6548 0e8f 91       		.byte	0x91
 6549 0e90 70       		.sleb128 -16
 6550 0e91 1A       		.uleb128 0x1a
 6551 0e92 B4090000 		.4byte	.LASF144
 6552 0e96 01       		.byte	0x1
 6553 0e97 6F06     		.2byte	0x66f
 6554 0e99 D8050000 		.4byte	0x5d8
 6555 0e9d 02       		.uleb128 0x2
 6556 0e9e 91       		.byte	0x91
 6557 0e9f 77       		.sleb128 -9
 6558 0ea0 00       		.byte	0
 6559 0ea1 22       		.uleb128 0x22
 6560 0ea2 60000000 		.4byte	.LASF159
 6561 0ea6 01       		.byte	0x1
 6562 0ea7 9A06     		.2byte	0x69a
 6563 0ea9 D8050000 		.4byte	0x5d8
 6564 0ead 70150000 		.4byte	.LFB130
 6565 0eb1 04010000 		.4byte	.LFE130-.LFB130
 6566 0eb5 01       		.uleb128 0x1
 6567 0eb6 9C       		.byte	0x9c
 6568 0eb7 720F0000 		.4byte	0xf72
 6569 0ebb 1D       		.uleb128 0x1d
 6570 0ebc 48020000 		.4byte	.LASF160
 6571 0ec0 01       		.byte	0x1
 6572 0ec1 9A06     		.2byte	0x69a
 6573 0ec3 720F0000 		.4byte	0xf72
 6574 0ec7 02       		.uleb128 0x2
 6575 0ec8 91       		.byte	0x91
 6576 0ec9 54       		.sleb128 -44
 6577 0eca 1A       		.uleb128 0x1a
 6578 0ecb 0C080000 		.4byte	.LASF143
 6579 0ecf 01       		.byte	0x1
 6580 0ed0 9C06     		.2byte	0x69c
 6581 0ed2 A2000000 		.4byte	0xa2
 6582 0ed6 02       		.uleb128 0x2
 6583 0ed7 91       		.byte	0x91
 6584 0ed8 70       		.sleb128 -16
 6585 0ed9 1A       		.uleb128 0x1a
 6586 0eda B4090000 		.4byte	.LASF144
 6587 0ede 01       		.byte	0x1
 6588 0edf 9D06     		.2byte	0x69d
 6589 0ee1 D8050000 		.4byte	0x5d8
ARM GAS  /tmp/ccJqmpZo.s 			page 117


 6590 0ee5 02       		.uleb128 0x2
 6591 0ee6 91       		.byte	0x91
 6592 0ee7 77       		.sleb128 -9
 6593 0ee8 1E       		.uleb128 0x1e
 6594 0ee9 1F080000 		.4byte	0x81f
 6595 0eed CA150000 		.4byte	.LBB138
 6596 0ef1 0A000000 		.4byte	.LBE138-.LBB138
 6597 0ef5 01       		.byte	0x1
 6598 0ef6 BB06     		.2byte	0x6bb
 6599 0ef8 170F0000 		.4byte	0xf17
 6600 0efc 1F       		.uleb128 0x1f
 6601 0efd 30080000 		.4byte	0x830
 6602 0f01 02       		.uleb128 0x2
 6603 0f02 91       		.byte	0x91
 6604 0f03 6C       		.sleb128 -20
 6605 0f04 19       		.uleb128 0x19
 6606 0f05 CA150000 		.4byte	.LBB139
 6607 0f09 0A000000 		.4byte	.LBE139-.LBB139
 6608 0f0d 20       		.uleb128 0x20
 6609 0f0e 3C080000 		.4byte	0x83c
 6610 0f12 02       		.uleb128 0x2
 6611 0f13 91       		.byte	0x91
 6612 0f14 68       		.sleb128 -24
 6613 0f15 00       		.byte	0
 6614 0f16 00       		.byte	0
 6615 0f17 1E       		.uleb128 0x1e
 6616 0f18 1F080000 		.4byte	0x81f
 6617 0f1c E6150000 		.4byte	.LBB140
 6618 0f20 0A000000 		.4byte	.LBE140-.LBB140
 6619 0f24 01       		.byte	0x1
 6620 0f25 BB06     		.2byte	0x6bb
 6621 0f27 460F0000 		.4byte	0xf46
 6622 0f2b 1F       		.uleb128 0x1f
 6623 0f2c 30080000 		.4byte	0x830
 6624 0f30 02       		.uleb128 0x2
 6625 0f31 91       		.byte	0x91
 6626 0f32 64       		.sleb128 -28
 6627 0f33 19       		.uleb128 0x19
 6628 0f34 E6150000 		.4byte	.LBB141
 6629 0f38 0A000000 		.4byte	.LBE141-.LBB141
 6630 0f3c 20       		.uleb128 0x20
 6631 0f3d 3C080000 		.4byte	0x83c
 6632 0f41 02       		.uleb128 0x2
 6633 0f42 91       		.byte	0x91
 6634 0f43 60       		.sleb128 -32
 6635 0f44 00       		.byte	0
 6636 0f45 00       		.byte	0
 6637 0f46 21       		.uleb128 0x21
 6638 0f47 1F080000 		.4byte	0x81f
 6639 0f4b 08160000 		.4byte	.LBB142
 6640 0f4f 0A000000 		.4byte	.LBE142-.LBB142
 6641 0f53 01       		.byte	0x1
 6642 0f54 BB06     		.2byte	0x6bb
 6643 0f56 1F       		.uleb128 0x1f
 6644 0f57 30080000 		.4byte	0x830
 6645 0f5b 02       		.uleb128 0x2
 6646 0f5c 91       		.byte	0x91
ARM GAS  /tmp/ccJqmpZo.s 			page 118


 6647 0f5d 5C       		.sleb128 -36
 6648 0f5e 19       		.uleb128 0x19
 6649 0f5f 08160000 		.4byte	.LBB143
 6650 0f63 0A000000 		.4byte	.LBE143-.LBB143
 6651 0f67 20       		.uleb128 0x20
 6652 0f68 3C080000 		.4byte	0x83c
 6653 0f6c 02       		.uleb128 0x2
 6654 0f6d 91       		.byte	0x91
 6655 0f6e 58       		.sleb128 -40
 6656 0f6f 00       		.byte	0
 6657 0f70 00       		.byte	0
 6658 0f71 00       		.byte	0
 6659 0f72 1B       		.uleb128 0x1b
 6660 0f73 04       		.byte	0x4
 6661 0f74 9C060000 		.4byte	0x69c
 6662 0f78 22       		.uleb128 0x22
 6663 0f79 A8080000 		.4byte	.LASF161
 6664 0f7d 01       		.byte	0x1
 6665 0f7e D706     		.2byte	0x6d7
 6666 0f80 D8050000 		.4byte	0x5d8
 6667 0f84 80160000 		.4byte	.LFB131
 6668 0f88 88000000 		.4byte	.LFE131-.LFB131
 6669 0f8c 01       		.uleb128 0x1
 6670 0f8d 9C       		.byte	0x9c
 6671 0f8e B10F0000 		.4byte	0xfb1
 6672 0f92 1A       		.uleb128 0x1a
 6673 0f93 0C080000 		.4byte	.LASF143
 6674 0f97 01       		.byte	0x1
 6675 0f98 D906     		.2byte	0x6d9
 6676 0f9a A2000000 		.4byte	0xa2
 6677 0f9e 02       		.uleb128 0x2
 6678 0f9f 91       		.byte	0x91
 6679 0fa0 70       		.sleb128 -16
 6680 0fa1 1A       		.uleb128 0x1a
 6681 0fa2 B4090000 		.4byte	.LASF144
 6682 0fa6 01       		.byte	0x1
 6683 0fa7 DA06     		.2byte	0x6da
 6684 0fa9 D8050000 		.4byte	0x5d8
 6685 0fad 02       		.uleb128 0x2
 6686 0fae 91       		.byte	0x91
 6687 0faf 77       		.sleb128 -9
 6688 0fb0 00       		.byte	0
 6689 0fb1 1C       		.uleb128 0x1c
 6690 0fb2 E1090000 		.4byte	.LASF163
 6691 0fb6 01       		.byte	0x1
 6692 0fb7 0707     		.2byte	0x707
 6693 0fb9 10170000 		.4byte	.LFB132
 6694 0fbd 1C000000 		.4byte	.LFE132-.LFB132
 6695 0fc1 01       		.uleb128 0x1
 6696 0fc2 9C       		.byte	0x9c
 6697 0fc3 D70F0000 		.4byte	0xfd7
 6698 0fc7 1D       		.uleb128 0x1d
 6699 0fc8 35050000 		.4byte	.LASF164
 6700 0fcc 01       		.byte	0x1
 6701 0fcd 0707     		.2byte	0x707
 6702 0fcf A2000000 		.4byte	0xa2
 6703 0fd3 02       		.uleb128 0x2
ARM GAS  /tmp/ccJqmpZo.s 			page 119


 6704 0fd4 91       		.byte	0x91
 6705 0fd5 7C       		.sleb128 -4
 6706 0fd6 00       		.byte	0
 6707 0fd7 1C       		.uleb128 0x1c
 6708 0fd8 49060000 		.4byte	.LASF165
 6709 0fdc 01       		.byte	0x1
 6710 0fdd 1907     		.2byte	0x719
 6711 0fdf 30170000 		.4byte	.LFB133
 6712 0fe3 24000000 		.4byte	.LFE133-.LFB133
 6713 0fe7 01       		.uleb128 0x1
 6714 0fe8 9C       		.byte	0x9c
 6715 0fe9 FD0F0000 		.4byte	0xffd
 6716 0fed 1D       		.uleb128 0x1d
 6717 0fee 3C040000 		.4byte	.LASF166
 6718 0ff2 01       		.byte	0x1
 6719 0ff3 1907     		.2byte	0x719
 6720 0ff5 A2000000 		.4byte	0xa2
 6721 0ff9 02       		.uleb128 0x2
 6722 0ffa 91       		.byte	0x91
 6723 0ffb 7C       		.sleb128 -4
 6724 0ffc 00       		.byte	0
 6725 0ffd 23       		.uleb128 0x23
 6726 0ffe 19010000 		.4byte	.LASF167
 6727 1002 01       		.byte	0x1
 6728 1003 2707     		.2byte	0x727
 6729 1005 60170000 		.4byte	.LFB134
 6730 1009 18000000 		.4byte	.LFE134-.LFB134
 6731 100d 01       		.uleb128 0x1
 6732 100e 9C       		.byte	0x9c
 6733 100f 23       		.uleb128 0x23
 6734 1010 FF090000 		.4byte	.LASF168
 6735 1014 01       		.byte	0x1
 6736 1015 3107     		.2byte	0x731
 6737 1017 80170000 		.4byte	.LFB135
 6738 101b 24000000 		.4byte	.LFE135-.LFB135
 6739 101f 01       		.uleb128 0x1
 6740 1020 9C       		.byte	0x9c
 6741 1021 23       		.uleb128 0x23
 6742 1022 F6050000 		.4byte	.LASF169
 6743 1026 01       		.byte	0x1
 6744 1027 3E07     		.2byte	0x73e
 6745 1029 B0170000 		.4byte	.LFB136
 6746 102d 40000000 		.4byte	.LFE136-.LFB136
 6747 1031 01       		.uleb128 0x1
 6748 1032 9C       		.byte	0x9c
 6749 1033 24       		.uleb128 0x24
 6750 1034 EB080000 		.4byte	.LASF170
 6751 1038 01       		.byte	0x1
 6752 1039 4F07     		.2byte	0x74f
 6753 103b F0170000 		.4byte	.LFB137
 6754 103f 20000000 		.4byte	.LFE137-.LFB137
 6755 1043 01       		.uleb128 0x1
 6756 1044 9C       		.byte	0x9c
 6757 1045 23       		.uleb128 0x23
 6758 1046 D6020000 		.4byte	.LASF171
 6759 104a 01       		.byte	0x1
 6760 104b 6007     		.2byte	0x760
ARM GAS  /tmp/ccJqmpZo.s 			page 120


 6761 104d 10180000 		.4byte	.LFB138
 6762 1051 02000000 		.4byte	.LFE138-.LFB138
 6763 1055 01       		.uleb128 0x1
 6764 1056 9C       		.byte	0x9c
 6765 1057 25       		.uleb128 0x25
 6766 1058 32030000 		.4byte	.LASF172
 6767 105c 01       		.byte	0x1
 6768 105d 6F07     		.2byte	0x76f
 6769 105f 20180000 		.4byte	.LFB139
 6770 1063 CC000000 		.4byte	.LFE139-.LFB139
 6771 1067 01       		.uleb128 0x1
 6772 1068 9C       		.byte	0x9c
 6773 1069 E0100000 		.4byte	0x10e0
 6774 106d 1D       		.uleb128 0x1d
 6775 106e 2A020000 		.4byte	.LASF173
 6776 1072 01       		.byte	0x1
 6777 1073 6F07     		.2byte	0x76f
 6778 1075 A2000000 		.4byte	0xa2
 6779 1079 02       		.uleb128 0x2
 6780 107a 91       		.byte	0x91
 6781 107b 54       		.sleb128 -44
 6782 107c 1A       		.uleb128 0x1a
 6783 107d 0A000000 		.4byte	.LASF174
 6784 1081 01       		.byte	0x1
 6785 1082 7107     		.2byte	0x771
 6786 1084 14080000 		.4byte	0x814
 6787 1088 02       		.uleb128 0x2
 6788 1089 91       		.byte	0x91
 6789 108a 60       		.sleb128 -32
 6790 108b 1A       		.uleb128 0x1a
 6791 108c 90050000 		.4byte	.LASF145
 6792 1090 01       		.byte	0x1
 6793 1091 7207     		.2byte	0x772
 6794 1093 A5050000 		.4byte	0x5a5
 6795 1097 02       		.uleb128 0x2
 6796 1098 91       		.byte	0x91
 6797 1099 77       		.sleb128 -9
 6798 109a 1A       		.uleb128 0x1a
 6799 109b A2020000 		.4byte	.LASF175
 6800 109f 01       		.byte	0x1
 6801 10a0 7307     		.2byte	0x773
 6802 10a2 A5050000 		.4byte	0x5a5
 6803 10a6 02       		.uleb128 0x2
 6804 10a7 91       		.byte	0x91
 6805 10a8 76       		.sleb128 -10
 6806 10a9 26       		.uleb128 0x26
 6807 10aa 32180000 		.4byte	.LBB144
 6808 10ae 18000000 		.4byte	.LBE144-.LBB144
 6809 10b2 C6100000 		.4byte	0x10c6
 6810 10b6 1A       		.uleb128 0x1a
 6811 10b7 7F020000 		.4byte	.LASF146
 6812 10bb 01       		.byte	0x1
 6813 10bc 7907     		.2byte	0x779
 6814 10be B4000000 		.4byte	0xb4
 6815 10c2 02       		.uleb128 0x2
 6816 10c3 91       		.byte	0x91
 6817 10c4 5C       		.sleb128 -36
ARM GAS  /tmp/ccJqmpZo.s 			page 121


 6818 10c5 00       		.byte	0
 6819 10c6 19       		.uleb128 0x19
 6820 10c7 72180000 		.4byte	.LBB145
 6821 10cb 18000000 		.4byte	.LBE145-.LBB145
 6822 10cf 1A       		.uleb128 0x1a
 6823 10d0 7F020000 		.4byte	.LASF146
 6824 10d4 01       		.byte	0x1
 6825 10d5 8507     		.2byte	0x785
 6826 10d7 B4000000 		.4byte	0xb4
 6827 10db 02       		.uleb128 0x2
 6828 10dc 91       		.byte	0x91
 6829 10dd 58       		.sleb128 -40
 6830 10de 00       		.byte	0
 6831 10df 00       		.byte	0
 6832 10e0 25       		.uleb128 0x25
 6833 10e1 21060000 		.4byte	.LASF176
 6834 10e5 01       		.byte	0x1
 6835 10e6 9E07     		.2byte	0x79e
 6836 10e8 F0180000 		.4byte	.LFB140
 6837 10ec 90000000 		.4byte	.LFE140-.LFB140
 6838 10f0 01       		.uleb128 0x1
 6839 10f1 9C       		.byte	0x9c
 6840 10f2 2E110000 		.4byte	0x112e
 6841 10f6 1A       		.uleb128 0x1a
 6842 10f7 90050000 		.4byte	.LASF145
 6843 10fb 01       		.byte	0x1
 6844 10fc A007     		.2byte	0x7a0
 6845 10fe A5050000 		.4byte	0x5a5
 6846 1102 02       		.uleb128 0x2
 6847 1103 91       		.byte	0x91
 6848 1104 77       		.sleb128 -9
 6849 1105 1A       		.uleb128 0x1a
 6850 1106 A2020000 		.4byte	.LASF175
 6851 110a 01       		.byte	0x1
 6852 110b A107     		.2byte	0x7a1
 6853 110d A5050000 		.4byte	0x5a5
 6854 1111 02       		.uleb128 0x2
 6855 1112 91       		.byte	0x91
 6856 1113 76       		.sleb128 -10
 6857 1114 19       		.uleb128 0x19
 6858 1115 0C190000 		.4byte	.LBB146
 6859 1119 18000000 		.4byte	.LBE146-.LBB146
 6860 111d 1A       		.uleb128 0x1a
 6861 111e 7F020000 		.4byte	.LASF146
 6862 1122 01       		.byte	0x1
 6863 1123 A607     		.2byte	0x7a6
 6864 1125 B4000000 		.4byte	0xb4
 6865 1129 02       		.uleb128 0x2
 6866 112a 91       		.byte	0x91
 6867 112b 70       		.sleb128 -16
 6868 112c 00       		.byte	0
 6869 112d 00       		.byte	0
 6870 112e 23       		.uleb128 0x23
 6871 112f 21040000 		.4byte	.LASF177
 6872 1133 01       		.byte	0x1
 6873 1134 C407     		.2byte	0x7c4
 6874 1136 80190000 		.4byte	.LFB141
ARM GAS  /tmp/ccJqmpZo.s 			page 122


 6875 113a 14000000 		.4byte	.LFE141-.LFB141
 6876 113e 01       		.uleb128 0x1
 6877 113f 9C       		.byte	0x9c
 6878 1140 23       		.uleb128 0x23
 6879 1141 E4010000 		.4byte	.LASF178
 6880 1145 01       		.byte	0x1
 6881 1146 CE07     		.2byte	0x7ce
 6882 1148 A0190000 		.4byte	.LFB142
 6883 114c 14000000 		.4byte	.LFE142-.LFB142
 6884 1150 01       		.uleb128 0x1
 6885 1151 9C       		.byte	0x9c
 6886 1152 27       		.uleb128 0x27
 6887 1153 F7040000 		.4byte	.LASF181
 6888 1157 01       		.byte	0x1
 6889 1158 4F09     		.2byte	0x94f
 6890 115a D8050000 		.4byte	0x5d8
 6891 115e C0190000 		.4byte	.LFB143
 6892 1162 A0020000 		.4byte	.LFE143-.LFB143
 6893 1166 01       		.uleb128 0x1
 6894 1167 9C       		.byte	0x9c
 6895 1168 23130000 		.4byte	0x1323
 6896 116c 1D       		.uleb128 0x1d
 6897 116d A5000000 		.4byte	.LASF179
 6898 1171 01       		.byte	0x1
 6899 1172 4F09     		.2byte	0x94f
 6900 1174 620E0000 		.4byte	0xe62
 6901 1178 03       		.uleb128 0x3
 6902 1179 91       		.byte	0x91
 6903 117a AC7F     		.sleb128 -84
 6904 117c 1D       		.uleb128 0x1d
 6905 117d 69090000 		.4byte	.LASF180
 6906 1181 01       		.byte	0x1
 6907 1182 4F09     		.2byte	0x94f
 6908 1184 A2000000 		.4byte	0xa2
 6909 1188 03       		.uleb128 0x3
 6910 1189 91       		.byte	0x91
 6911 118a A87F     		.sleb128 -88
 6912 118c 1A       		.uleb128 0x1a
 6913 118d 0C080000 		.4byte	.LASF143
 6914 1191 01       		.byte	0x1
 6915 1192 5109     		.2byte	0x951
 6916 1194 A2000000 		.4byte	0xa2
 6917 1198 02       		.uleb128 0x2
 6918 1199 91       		.byte	0x91
 6919 119a 70       		.sleb128 -16
 6920 119b 1A       		.uleb128 0x1a
 6921 119c B4090000 		.4byte	.LASF144
 6922 11a0 01       		.byte	0x1
 6923 11a1 5209     		.2byte	0x952
 6924 11a3 D8050000 		.4byte	0x5d8
 6925 11a7 02       		.uleb128 0x2
 6926 11a8 91       		.byte	0x91
 6927 11a9 77       		.sleb128 -9
 6928 11aa 1E       		.uleb128 0x1e
 6929 11ab 1F080000 		.4byte	0x81f
 6930 11af 021A0000 		.4byte	.LBB147
 6931 11b3 0A000000 		.4byte	.LBE147-.LBB147
ARM GAS  /tmp/ccJqmpZo.s 			page 123


 6932 11b7 01       		.byte	0x1
 6933 11b8 6309     		.2byte	0x963
 6934 11ba D9110000 		.4byte	0x11d9
 6935 11be 1F       		.uleb128 0x1f
 6936 11bf 30080000 		.4byte	0x830
 6937 11c3 02       		.uleb128 0x2
 6938 11c4 91       		.byte	0x91
 6939 11c5 6C       		.sleb128 -20
 6940 11c6 19       		.uleb128 0x19
 6941 11c7 021A0000 		.4byte	.LBB148
 6942 11cb 0A000000 		.4byte	.LBE148-.LBB148
 6943 11cf 20       		.uleb128 0x20
 6944 11d0 3C080000 		.4byte	0x83c
 6945 11d4 02       		.uleb128 0x2
 6946 11d5 91       		.byte	0x91
 6947 11d6 68       		.sleb128 -24
 6948 11d7 00       		.byte	0
 6949 11d8 00       		.byte	0
 6950 11d9 1E       		.uleb128 0x1e
 6951 11da 1F080000 		.4byte	0x81f
 6952 11de AC1A0000 		.4byte	.LBB149
 6953 11e2 0A000000 		.4byte	.LBE149-.LBB149
 6954 11e6 01       		.byte	0x1
 6955 11e7 8809     		.2byte	0x988
 6956 11e9 08120000 		.4byte	0x1208
 6957 11ed 1F       		.uleb128 0x1f
 6958 11ee 30080000 		.4byte	0x830
 6959 11f2 02       		.uleb128 0x2
 6960 11f3 91       		.byte	0x91
 6961 11f4 64       		.sleb128 -28
 6962 11f5 19       		.uleb128 0x19
 6963 11f6 AC1A0000 		.4byte	.LBB150
 6964 11fa 0A000000 		.4byte	.LBE150-.LBB150
 6965 11fe 20       		.uleb128 0x20
 6966 11ff 3C080000 		.4byte	0x83c
 6967 1203 02       		.uleb128 0x2
 6968 1204 91       		.byte	0x91
 6969 1205 60       		.sleb128 -32
 6970 1206 00       		.byte	0
 6971 1207 00       		.byte	0
 6972 1208 1E       		.uleb128 0x1e
 6973 1209 1F080000 		.4byte	0x81f
 6974 120d 2C1B0000 		.4byte	.LBB151
 6975 1211 0A000000 		.4byte	.LBE151-.LBB151
 6976 1215 01       		.byte	0x1
 6977 1216 AA09     		.2byte	0x9aa
 6978 1218 37120000 		.4byte	0x1237
 6979 121c 1F       		.uleb128 0x1f
 6980 121d 30080000 		.4byte	0x830
 6981 1221 02       		.uleb128 0x2
 6982 1222 91       		.byte	0x91
 6983 1223 5C       		.sleb128 -36
 6984 1224 19       		.uleb128 0x19
 6985 1225 2C1B0000 		.4byte	.LBB152
 6986 1229 0A000000 		.4byte	.LBE152-.LBB152
 6987 122d 20       		.uleb128 0x20
 6988 122e 3C080000 		.4byte	0x83c
ARM GAS  /tmp/ccJqmpZo.s 			page 124


 6989 1232 02       		.uleb128 0x2
 6990 1233 91       		.byte	0x91
 6991 1234 58       		.sleb128 -40
 6992 1235 00       		.byte	0
 6993 1236 00       		.byte	0
 6994 1237 1E       		.uleb128 0x1e
 6995 1238 1F080000 		.4byte	0x81f
 6996 123c 481B0000 		.4byte	.LBB153
 6997 1240 0A000000 		.4byte	.LBE153-.LBB153
 6998 1244 01       		.byte	0x1
 6999 1245 AA09     		.2byte	0x9aa
 7000 1247 66120000 		.4byte	0x1266
 7001 124b 1F       		.uleb128 0x1f
 7002 124c 30080000 		.4byte	0x830
 7003 1250 02       		.uleb128 0x2
 7004 1251 91       		.byte	0x91
 7005 1252 54       		.sleb128 -44
 7006 1253 19       		.uleb128 0x19
 7007 1254 481B0000 		.4byte	.LBB154
 7008 1258 0A000000 		.4byte	.LBE154-.LBB154
 7009 125c 20       		.uleb128 0x20
 7010 125d 3C080000 		.4byte	0x83c
 7011 1261 02       		.uleb128 0x2
 7012 1262 91       		.byte	0x91
 7013 1263 50       		.sleb128 -48
 7014 1264 00       		.byte	0
 7015 1265 00       		.byte	0
 7016 1266 1E       		.uleb128 0x1e
 7017 1267 1F080000 		.4byte	0x81f
 7018 126b 801B0000 		.4byte	.LBB155
 7019 126f 0A000000 		.4byte	.LBE155-.LBB155
 7020 1273 01       		.byte	0x1
 7021 1274 B409     		.2byte	0x9b4
 7022 1276 95120000 		.4byte	0x1295
 7023 127a 1F       		.uleb128 0x1f
 7024 127b 30080000 		.4byte	0x830
 7025 127f 02       		.uleb128 0x2
 7026 1280 91       		.byte	0x91
 7027 1281 4C       		.sleb128 -52
 7028 1282 19       		.uleb128 0x19
 7029 1283 801B0000 		.4byte	.LBB156
 7030 1287 0A000000 		.4byte	.LBE156-.LBB156
 7031 128b 20       		.uleb128 0x20
 7032 128c 3C080000 		.4byte	0x83c
 7033 1290 02       		.uleb128 0x2
 7034 1291 91       		.byte	0x91
 7035 1292 48       		.sleb128 -56
 7036 1293 00       		.byte	0
 7037 1294 00       		.byte	0
 7038 1295 1E       		.uleb128 0x1e
 7039 1296 1F080000 		.4byte	0x81f
 7040 129a 9E1B0000 		.4byte	.LBB157
 7041 129e 0A000000 		.4byte	.LBE157-.LBB157
 7042 12a2 01       		.byte	0x1
 7043 12a3 B409     		.2byte	0x9b4
 7044 12a5 C4120000 		.4byte	0x12c4
 7045 12a9 1F       		.uleb128 0x1f
ARM GAS  /tmp/ccJqmpZo.s 			page 125


 7046 12aa 30080000 		.4byte	0x830
 7047 12ae 02       		.uleb128 0x2
 7048 12af 91       		.byte	0x91
 7049 12b0 44       		.sleb128 -60
 7050 12b1 19       		.uleb128 0x19
 7051 12b2 9E1B0000 		.4byte	.LBB158
 7052 12b6 0A000000 		.4byte	.LBE158-.LBB158
 7053 12ba 20       		.uleb128 0x20
 7054 12bb 3C080000 		.4byte	0x83c
 7055 12bf 02       		.uleb128 0x2
 7056 12c0 91       		.byte	0x91
 7057 12c1 40       		.sleb128 -64
 7058 12c2 00       		.byte	0
 7059 12c3 00       		.byte	0
 7060 12c4 1E       		.uleb128 0x1e
 7061 12c5 1F080000 		.4byte	0x81f
 7062 12c9 D01B0000 		.4byte	.LBB159
 7063 12cd 0A000000 		.4byte	.LBE159-.LBB159
 7064 12d1 01       		.byte	0x1
 7065 12d2 BD09     		.2byte	0x9bd
 7066 12d4 F5120000 		.4byte	0x12f5
 7067 12d8 1F       		.uleb128 0x1f
 7068 12d9 30080000 		.4byte	0x830
 7069 12dd 03       		.uleb128 0x3
 7070 12de 91       		.byte	0x91
 7071 12df BC7F     		.sleb128 -68
 7072 12e1 19       		.uleb128 0x19
 7073 12e2 D01B0000 		.4byte	.LBB160
 7074 12e6 0A000000 		.4byte	.LBE160-.LBB160
 7075 12ea 20       		.uleb128 0x20
 7076 12eb 3C080000 		.4byte	0x83c
 7077 12ef 03       		.uleb128 0x3
 7078 12f0 91       		.byte	0x91
 7079 12f1 B87F     		.sleb128 -72
 7080 12f3 00       		.byte	0
 7081 12f4 00       		.byte	0
 7082 12f5 21       		.uleb128 0x21
 7083 12f6 1F080000 		.4byte	0x81f
 7084 12fa EE1B0000 		.4byte	.LBB161
 7085 12fe 0A000000 		.4byte	.LBE161-.LBB161
 7086 1302 01       		.byte	0x1
 7087 1303 BD09     		.2byte	0x9bd
 7088 1305 1F       		.uleb128 0x1f
 7089 1306 30080000 		.4byte	0x830
 7090 130a 03       		.uleb128 0x3
 7091 130b 91       		.byte	0x91
 7092 130c B47F     		.sleb128 -76
 7093 130e 19       		.uleb128 0x19
 7094 130f EE1B0000 		.4byte	.LBB162
 7095 1313 0A000000 		.4byte	.LBE162-.LBB162
 7096 1317 20       		.uleb128 0x20
 7097 1318 3C080000 		.4byte	0x83c
 7098 131c 03       		.uleb128 0x3
 7099 131d 91       		.byte	0x91
 7100 131e B07F     		.sleb128 -80
 7101 1320 00       		.byte	0
 7102 1321 00       		.byte	0
ARM GAS  /tmp/ccJqmpZo.s 			page 126


 7103 1322 00       		.byte	0
 7104 1323 27       		.uleb128 0x27
 7105 1324 7B050000 		.4byte	.LASF182
 7106 1328 01       		.byte	0x1
 7107 1329 EA09     		.2byte	0x9ea
 7108 132b D8050000 		.4byte	0x5d8
 7109 132f 601C0000 		.4byte	.LFB144
 7110 1333 48020000 		.4byte	.LFE144-.LFB144
 7111 1337 01       		.uleb128 0x1
 7112 1338 9C       		.byte	0x9c
 7113 1339 92140000 		.4byte	0x1492
 7114 133d 1D       		.uleb128 0x1d
 7115 133e AD000000 		.4byte	.LASF183
 7116 1342 01       		.byte	0x1
 7117 1343 EA09     		.2byte	0x9ea
 7118 1345 720F0000 		.4byte	0xf72
 7119 1349 03       		.uleb128 0x3
 7120 134a 91       		.byte	0x91
 7121 134b BC7F     		.sleb128 -68
 7122 134d 1D       		.uleb128 0x1d
 7123 134e 69090000 		.4byte	.LASF180
 7124 1352 01       		.byte	0x1
 7125 1353 EA09     		.2byte	0x9ea
 7126 1355 A2000000 		.4byte	0xa2
 7127 1359 03       		.uleb128 0x3
 7128 135a 91       		.byte	0x91
 7129 135b B87F     		.sleb128 -72
 7130 135d 1A       		.uleb128 0x1a
 7131 135e 0C080000 		.4byte	.LASF143
 7132 1362 01       		.byte	0x1
 7133 1363 EC09     		.2byte	0x9ec
 7134 1365 A2000000 		.4byte	0xa2
 7135 1369 02       		.uleb128 0x2
 7136 136a 91       		.byte	0x91
 7137 136b 70       		.sleb128 -16
 7138 136c 1A       		.uleb128 0x1a
 7139 136d B4090000 		.4byte	.LASF144
 7140 1371 01       		.byte	0x1
 7141 1372 ED09     		.2byte	0x9ed
 7142 1374 D8050000 		.4byte	0x5d8
 7143 1378 02       		.uleb128 0x2
 7144 1379 91       		.byte	0x91
 7145 137a 77       		.sleb128 -9
 7146 137b 1E       		.uleb128 0x1e
 7147 137c 1F080000 		.4byte	0x81f
 7148 1380 A21C0000 		.4byte	.LBB163
 7149 1384 0A000000 		.4byte	.LBE163-.LBB163
 7150 1388 01       		.byte	0x1
 7151 1389 FE09     		.2byte	0x9fe
 7152 138b AA130000 		.4byte	0x13aa
 7153 138f 1F       		.uleb128 0x1f
 7154 1390 30080000 		.4byte	0x830
 7155 1394 02       		.uleb128 0x2
 7156 1395 91       		.byte	0x91
 7157 1396 6C       		.sleb128 -20
 7158 1397 19       		.uleb128 0x19
 7159 1398 A21C0000 		.4byte	.LBB164
ARM GAS  /tmp/ccJqmpZo.s 			page 127


 7160 139c 0A000000 		.4byte	.LBE164-.LBB164
 7161 13a0 20       		.uleb128 0x20
 7162 13a1 3C080000 		.4byte	0x83c
 7163 13a5 02       		.uleb128 0x2
 7164 13a6 91       		.byte	0x91
 7165 13a7 68       		.sleb128 -24
 7166 13a8 00       		.byte	0
 7167 13a9 00       		.byte	0
 7168 13aa 1E       		.uleb128 0x1e
 7169 13ab 1F080000 		.4byte	0x81f
 7170 13af 4C1D0000 		.4byte	.LBB165
 7171 13b3 0A000000 		.4byte	.LBE165-.LBB165
 7172 13b7 01       		.byte	0x1
 7173 13b8 230A     		.2byte	0xa23
 7174 13ba D9130000 		.4byte	0x13d9
 7175 13be 1F       		.uleb128 0x1f
 7176 13bf 30080000 		.4byte	0x830
 7177 13c3 02       		.uleb128 0x2
 7178 13c4 91       		.byte	0x91
 7179 13c5 64       		.sleb128 -28
 7180 13c6 19       		.uleb128 0x19
 7181 13c7 4C1D0000 		.4byte	.LBB166
 7182 13cb 0A000000 		.4byte	.LBE166-.LBB166
 7183 13cf 20       		.uleb128 0x20
 7184 13d0 3C080000 		.4byte	0x83c
 7185 13d4 02       		.uleb128 0x2
 7186 13d5 91       		.byte	0x91
 7187 13d6 60       		.sleb128 -32
 7188 13d7 00       		.byte	0
 7189 13d8 00       		.byte	0
 7190 13d9 1E       		.uleb128 0x1e
 7191 13da 1F080000 		.4byte	0x81f
 7192 13de CA1D0000 		.4byte	.LBB167
 7193 13e2 0A000000 		.4byte	.LBE167-.LBB167
 7194 13e6 01       		.byte	0x1
 7195 13e7 450A     		.2byte	0xa45
 7196 13e9 08140000 		.4byte	0x1408
 7197 13ed 1F       		.uleb128 0x1f
 7198 13ee 30080000 		.4byte	0x830
 7199 13f2 02       		.uleb128 0x2
 7200 13f3 91       		.byte	0x91
 7201 13f4 5C       		.sleb128 -36
 7202 13f5 19       		.uleb128 0x19
 7203 13f6 CA1D0000 		.4byte	.LBB168
 7204 13fa 0A000000 		.4byte	.LBE168-.LBB168
 7205 13fe 20       		.uleb128 0x20
 7206 13ff 3C080000 		.4byte	0x83c
 7207 1403 02       		.uleb128 0x2
 7208 1404 91       		.byte	0x91
 7209 1405 58       		.sleb128 -40
 7210 1406 00       		.byte	0
 7211 1407 00       		.byte	0
 7212 1408 1E       		.uleb128 0x1e
 7213 1409 1F080000 		.4byte	0x81f
 7214 140d E61D0000 		.4byte	.LBB169
 7215 1411 0A000000 		.4byte	.LBE169-.LBB169
 7216 1415 01       		.byte	0x1
ARM GAS  /tmp/ccJqmpZo.s 			page 128


 7217 1416 450A     		.2byte	0xa45
 7218 1418 37140000 		.4byte	0x1437
 7219 141c 1F       		.uleb128 0x1f
 7220 141d 30080000 		.4byte	0x830
 7221 1421 02       		.uleb128 0x2
 7222 1422 91       		.byte	0x91
 7223 1423 54       		.sleb128 -44
 7224 1424 19       		.uleb128 0x19
 7225 1425 E61D0000 		.4byte	.LBB170
 7226 1429 0A000000 		.4byte	.LBE170-.LBB170
 7227 142d 20       		.uleb128 0x20
 7228 142e 3C080000 		.4byte	0x83c
 7229 1432 02       		.uleb128 0x2
 7230 1433 91       		.byte	0x91
 7231 1434 50       		.sleb128 -48
 7232 1435 00       		.byte	0
 7233 1436 00       		.byte	0
 7234 1437 1E       		.uleb128 0x1e
 7235 1438 1F080000 		.4byte	0x81f
 7236 143c 181E0000 		.4byte	.LBB171
 7237 1440 0A000000 		.4byte	.LBE171-.LBB171
 7238 1444 01       		.byte	0x1
 7239 1445 4F0A     		.2byte	0xa4f
 7240 1447 66140000 		.4byte	0x1466
 7241 144b 1F       		.uleb128 0x1f
 7242 144c 30080000 		.4byte	0x830
 7243 1450 02       		.uleb128 0x2
 7244 1451 91       		.byte	0x91
 7245 1452 4C       		.sleb128 -52
 7246 1453 19       		.uleb128 0x19
 7247 1454 181E0000 		.4byte	.LBB172
 7248 1458 0A000000 		.4byte	.LBE172-.LBB172
 7249 145c 20       		.uleb128 0x20
 7250 145d 3C080000 		.4byte	0x83c
 7251 1461 02       		.uleb128 0x2
 7252 1462 91       		.byte	0x91
 7253 1463 48       		.sleb128 -56
 7254 1464 00       		.byte	0
 7255 1465 00       		.byte	0
 7256 1466 21       		.uleb128 0x21
 7257 1467 1F080000 		.4byte	0x81f
 7258 146b 361E0000 		.4byte	.LBB173
 7259 146f 0A000000 		.4byte	.LBE173-.LBB173
 7260 1473 01       		.byte	0x1
 7261 1474 4F0A     		.2byte	0xa4f
 7262 1476 1F       		.uleb128 0x1f
 7263 1477 30080000 		.4byte	0x830
 7264 147b 02       		.uleb128 0x2
 7265 147c 91       		.byte	0x91
 7266 147d 44       		.sleb128 -60
 7267 147e 19       		.uleb128 0x19
 7268 147f 361E0000 		.4byte	.LBB174
 7269 1483 0A000000 		.4byte	.LBE174-.LBB174
 7270 1487 20       		.uleb128 0x20
 7271 1488 3C080000 		.4byte	0x83c
 7272 148c 02       		.uleb128 0x2
 7273 148d 91       		.byte	0x91
ARM GAS  /tmp/ccJqmpZo.s 			page 129


 7274 148e 40       		.sleb128 -64
 7275 148f 00       		.byte	0
 7276 1490 00       		.byte	0
 7277 1491 00       		.byte	0
 7278 1492 28       		.uleb128 0x28
 7279 1493 57010000 		.4byte	.LASF190
 7280 1497 0A       		.byte	0xa
 7281 1498 FA06     		.2byte	0x6fa
 7282 149a 9E140000 		.4byte	0x149e
 7283 149e 05       		.uleb128 0x5
 7284 149f 97000000 		.4byte	0x97
 7285 14a3 00       		.byte	0
 7286              		.section	.debug_abbrev,"",%progbits
 7287              	.Ldebug_abbrev0:
 7288 0000 01       		.uleb128 0x1
 7289 0001 11       		.uleb128 0x11
 7290 0002 01       		.byte	0x1
 7291 0003 25       		.uleb128 0x25
 7292 0004 0E       		.uleb128 0xe
 7293 0005 13       		.uleb128 0x13
 7294 0006 0B       		.uleb128 0xb
 7295 0007 03       		.uleb128 0x3
 7296 0008 0E       		.uleb128 0xe
 7297 0009 1B       		.uleb128 0x1b
 7298 000a 0E       		.uleb128 0xe
 7299 000b 11       		.uleb128 0x11
 7300 000c 01       		.uleb128 0x1
 7301 000d 12       		.uleb128 0x12
 7302 000e 06       		.uleb128 0x6
 7303 000f 10       		.uleb128 0x10
 7304 0010 17       		.uleb128 0x17
 7305 0011 00       		.byte	0
 7306 0012 00       		.byte	0
 7307 0013 02       		.uleb128 0x2
 7308 0014 24       		.uleb128 0x24
 7309 0015 00       		.byte	0
 7310 0016 0B       		.uleb128 0xb
 7311 0017 0B       		.uleb128 0xb
 7312 0018 3E       		.uleb128 0x3e
 7313 0019 0B       		.uleb128 0xb
 7314 001a 03       		.uleb128 0x3
 7315 001b 0E       		.uleb128 0xe
 7316 001c 00       		.byte	0
 7317 001d 00       		.byte	0
 7318 001e 03       		.uleb128 0x3
 7319 001f 16       		.uleb128 0x16
 7320 0020 00       		.byte	0
 7321 0021 03       		.uleb128 0x3
 7322 0022 0E       		.uleb128 0xe
 7323 0023 3A       		.uleb128 0x3a
 7324 0024 0B       		.uleb128 0xb
 7325 0025 3B       		.uleb128 0x3b
 7326 0026 0B       		.uleb128 0xb
 7327 0027 49       		.uleb128 0x49
 7328 0028 13       		.uleb128 0x13
 7329 0029 00       		.byte	0
 7330 002a 00       		.byte	0
ARM GAS  /tmp/ccJqmpZo.s 			page 130


 7331 002b 04       		.uleb128 0x4
 7332 002c 24       		.uleb128 0x24
 7333 002d 00       		.byte	0
 7334 002e 0B       		.uleb128 0xb
 7335 002f 0B       		.uleb128 0xb
 7336 0030 3E       		.uleb128 0x3e
 7337 0031 0B       		.uleb128 0xb
 7338 0032 03       		.uleb128 0x3
 7339 0033 08       		.uleb128 0x8
 7340 0034 00       		.byte	0
 7341 0035 00       		.byte	0
 7342 0036 05       		.uleb128 0x5
 7343 0037 35       		.uleb128 0x35
 7344 0038 00       		.byte	0
 7345 0039 49       		.uleb128 0x49
 7346 003a 13       		.uleb128 0x13
 7347 003b 00       		.byte	0
 7348 003c 00       		.byte	0
 7349 003d 06       		.uleb128 0x6
 7350 003e 01       		.uleb128 0x1
 7351 003f 01       		.byte	0x1
 7352 0040 49       		.uleb128 0x49
 7353 0041 13       		.uleb128 0x13
 7354 0042 01       		.uleb128 0x1
 7355 0043 13       		.uleb128 0x13
 7356 0044 00       		.byte	0
 7357 0045 00       		.byte	0
 7358 0046 07       		.uleb128 0x7
 7359 0047 21       		.uleb128 0x21
 7360 0048 00       		.byte	0
 7361 0049 49       		.uleb128 0x49
 7362 004a 13       		.uleb128 0x13
 7363 004b 2F       		.uleb128 0x2f
 7364 004c 0B       		.uleb128 0xb
 7365 004d 00       		.byte	0
 7366 004e 00       		.byte	0
 7367 004f 08       		.uleb128 0x8
 7368 0050 13       		.uleb128 0x13
 7369 0051 01       		.byte	0x1
 7370 0052 0B       		.uleb128 0xb
 7371 0053 0B       		.uleb128 0xb
 7372 0054 3A       		.uleb128 0x3a
 7373 0055 0B       		.uleb128 0xb
 7374 0056 3B       		.uleb128 0x3b
 7375 0057 05       		.uleb128 0x5
 7376 0058 01       		.uleb128 0x1
 7377 0059 13       		.uleb128 0x13
 7378 005a 00       		.byte	0
 7379 005b 00       		.byte	0
 7380 005c 09       		.uleb128 0x9
 7381 005d 0D       		.uleb128 0xd
 7382 005e 00       		.byte	0
 7383 005f 03       		.uleb128 0x3
 7384 0060 0E       		.uleb128 0xe
 7385 0061 3A       		.uleb128 0x3a
 7386 0062 0B       		.uleb128 0xb
 7387 0063 3B       		.uleb128 0x3b
ARM GAS  /tmp/ccJqmpZo.s 			page 131


 7388 0064 05       		.uleb128 0x5
 7389 0065 49       		.uleb128 0x49
 7390 0066 13       		.uleb128 0x13
 7391 0067 38       		.uleb128 0x38
 7392 0068 0B       		.uleb128 0xb
 7393 0069 00       		.byte	0
 7394 006a 00       		.byte	0
 7395 006b 0A       		.uleb128 0xa
 7396 006c 0D       		.uleb128 0xd
 7397 006d 00       		.byte	0
 7398 006e 03       		.uleb128 0x3
 7399 006f 08       		.uleb128 0x8
 7400 0070 3A       		.uleb128 0x3a
 7401 0071 0B       		.uleb128 0xb
 7402 0072 3B       		.uleb128 0x3b
 7403 0073 05       		.uleb128 0x5
 7404 0074 49       		.uleb128 0x49
 7405 0075 13       		.uleb128 0x13
 7406 0076 38       		.uleb128 0x38
 7407 0077 0B       		.uleb128 0xb
 7408 0078 00       		.byte	0
 7409 0079 00       		.byte	0
 7410 007a 0B       		.uleb128 0xb
 7411 007b 16       		.uleb128 0x16
 7412 007c 00       		.byte	0
 7413 007d 03       		.uleb128 0x3
 7414 007e 0E       		.uleb128 0xe
 7415 007f 3A       		.uleb128 0x3a
 7416 0080 0B       		.uleb128 0xb
 7417 0081 3B       		.uleb128 0x3b
 7418 0082 05       		.uleb128 0x5
 7419 0083 49       		.uleb128 0x49
 7420 0084 13       		.uleb128 0x13
 7421 0085 00       		.byte	0
 7422 0086 00       		.byte	0
 7423 0087 0C       		.uleb128 0xc
 7424 0088 04       		.uleb128 0x4
 7425 0089 01       		.byte	0x1
 7426 008a 0B       		.uleb128 0xb
 7427 008b 0B       		.uleb128 0xb
 7428 008c 3A       		.uleb128 0x3a
 7429 008d 0B       		.uleb128 0xb
 7430 008e 3B       		.uleb128 0x3b
 7431 008f 0B       		.uleb128 0xb
 7432 0090 01       		.uleb128 0x1
 7433 0091 13       		.uleb128 0x13
 7434 0092 00       		.byte	0
 7435 0093 00       		.byte	0
 7436 0094 0D       		.uleb128 0xd
 7437 0095 28       		.uleb128 0x28
 7438 0096 00       		.byte	0
 7439 0097 03       		.uleb128 0x3
 7440 0098 0E       		.uleb128 0xe
 7441 0099 1C       		.uleb128 0x1c
 7442 009a 0D       		.uleb128 0xd
 7443 009b 00       		.byte	0
 7444 009c 00       		.byte	0
ARM GAS  /tmp/ccJqmpZo.s 			page 132


 7445 009d 0E       		.uleb128 0xe
 7446 009e 28       		.uleb128 0x28
 7447 009f 00       		.byte	0
 7448 00a0 03       		.uleb128 0x3
 7449 00a1 08       		.uleb128 0x8
 7450 00a2 1C       		.uleb128 0x1c
 7451 00a3 0D       		.uleb128 0xd
 7452 00a4 00       		.byte	0
 7453 00a5 00       		.byte	0
 7454 00a6 0F       		.uleb128 0xf
 7455 00a7 13       		.uleb128 0x13
 7456 00a8 01       		.byte	0x1
 7457 00a9 0B       		.uleb128 0xb
 7458 00aa 0B       		.uleb128 0xb
 7459 00ab 3A       		.uleb128 0x3a
 7460 00ac 0B       		.uleb128 0xb
 7461 00ad 3B       		.uleb128 0x3b
 7462 00ae 0B       		.uleb128 0xb
 7463 00af 01       		.uleb128 0x1
 7464 00b0 13       		.uleb128 0x13
 7465 00b1 00       		.byte	0
 7466 00b2 00       		.byte	0
 7467 00b3 10       		.uleb128 0x10
 7468 00b4 0D       		.uleb128 0xd
 7469 00b5 00       		.byte	0
 7470 00b6 03       		.uleb128 0x3
 7471 00b7 0E       		.uleb128 0xe
 7472 00b8 3A       		.uleb128 0x3a
 7473 00b9 0B       		.uleb128 0xb
 7474 00ba 3B       		.uleb128 0x3b
 7475 00bb 0B       		.uleb128 0xb
 7476 00bc 49       		.uleb128 0x49
 7477 00bd 13       		.uleb128 0x13
 7478 00be 38       		.uleb128 0x38
 7479 00bf 0B       		.uleb128 0xb
 7480 00c0 00       		.byte	0
 7481 00c1 00       		.byte	0
 7482 00c2 11       		.uleb128 0x11
 7483 00c3 0D       		.uleb128 0xd
 7484 00c4 00       		.byte	0
 7485 00c5 03       		.uleb128 0x3
 7486 00c6 08       		.uleb128 0x8
 7487 00c7 3A       		.uleb128 0x3a
 7488 00c8 0B       		.uleb128 0xb
 7489 00c9 3B       		.uleb128 0x3b
 7490 00ca 0B       		.uleb128 0xb
 7491 00cb 49       		.uleb128 0x49
 7492 00cc 13       		.uleb128 0x13
 7493 00cd 38       		.uleb128 0x38
 7494 00ce 0B       		.uleb128 0xb
 7495 00cf 00       		.byte	0
 7496 00d0 00       		.byte	0
 7497 00d1 12       		.uleb128 0x12
 7498 00d2 2E       		.uleb128 0x2e
 7499 00d3 01       		.byte	0x1
 7500 00d4 03       		.uleb128 0x3
 7501 00d5 0E       		.uleb128 0xe
ARM GAS  /tmp/ccJqmpZo.s 			page 133


 7502 00d6 3A       		.uleb128 0x3a
 7503 00d7 0B       		.uleb128 0xb
 7504 00d8 3B       		.uleb128 0x3b
 7505 00d9 05       		.uleb128 0x5
 7506 00da 27       		.uleb128 0x27
 7507 00db 19       		.uleb128 0x19
 7508 00dc 49       		.uleb128 0x49
 7509 00dd 13       		.uleb128 0x13
 7510 00de 20       		.uleb128 0x20
 7511 00df 0B       		.uleb128 0xb
 7512 00e0 01       		.uleb128 0x1
 7513 00e1 13       		.uleb128 0x13
 7514 00e2 00       		.byte	0
 7515 00e3 00       		.byte	0
 7516 00e4 13       		.uleb128 0x13
 7517 00e5 05       		.uleb128 0x5
 7518 00e6 00       		.byte	0
 7519 00e7 03       		.uleb128 0x3
 7520 00e8 0E       		.uleb128 0xe
 7521 00e9 3A       		.uleb128 0x3a
 7522 00ea 0B       		.uleb128 0xb
 7523 00eb 3B       		.uleb128 0x3b
 7524 00ec 05       		.uleb128 0x5
 7525 00ed 49       		.uleb128 0x49
 7526 00ee 13       		.uleb128 0x13
 7527 00ef 00       		.byte	0
 7528 00f0 00       		.byte	0
 7529 00f1 14       		.uleb128 0x14
 7530 00f2 34       		.uleb128 0x34
 7531 00f3 00       		.byte	0
 7532 00f4 03       		.uleb128 0x3
 7533 00f5 0E       		.uleb128 0xe
 7534 00f6 3A       		.uleb128 0x3a
 7535 00f7 0B       		.uleb128 0xb
 7536 00f8 3B       		.uleb128 0x3b
 7537 00f9 05       		.uleb128 0x5
 7538 00fa 49       		.uleb128 0x49
 7539 00fb 13       		.uleb128 0x13
 7540 00fc 00       		.byte	0
 7541 00fd 00       		.byte	0
 7542 00fe 15       		.uleb128 0x15
 7543 00ff 2E       		.uleb128 0x2e
 7544 0100 01       		.byte	0x1
 7545 0101 3F       		.uleb128 0x3f
 7546 0102 19       		.uleb128 0x19
 7547 0103 03       		.uleb128 0x3
 7548 0104 0E       		.uleb128 0xe
 7549 0105 3A       		.uleb128 0x3a
 7550 0106 0B       		.uleb128 0xb
 7551 0107 3B       		.uleb128 0x3b
 7552 0108 0B       		.uleb128 0xb
 7553 0109 27       		.uleb128 0x27
 7554 010a 19       		.uleb128 0x19
 7555 010b 49       		.uleb128 0x49
 7556 010c 13       		.uleb128 0x13
 7557 010d 11       		.uleb128 0x11
 7558 010e 01       		.uleb128 0x1
ARM GAS  /tmp/ccJqmpZo.s 			page 134


 7559 010f 12       		.uleb128 0x12
 7560 0110 06       		.uleb128 0x6
 7561 0111 40       		.uleb128 0x40
 7562 0112 18       		.uleb128 0x18
 7563 0113 9642     		.uleb128 0x2116
 7564 0115 19       		.uleb128 0x19
 7565 0116 01       		.uleb128 0x1
 7566 0117 13       		.uleb128 0x13
 7567 0118 00       		.byte	0
 7568 0119 00       		.byte	0
 7569 011a 16       		.uleb128 0x16
 7570 011b 05       		.uleb128 0x5
 7571 011c 00       		.byte	0
 7572 011d 03       		.uleb128 0x3
 7573 011e 0E       		.uleb128 0xe
 7574 011f 3A       		.uleb128 0x3a
 7575 0120 0B       		.uleb128 0xb
 7576 0121 3B       		.uleb128 0x3b
 7577 0122 0B       		.uleb128 0xb
 7578 0123 49       		.uleb128 0x49
 7579 0124 13       		.uleb128 0x13
 7580 0125 02       		.uleb128 0x2
 7581 0126 18       		.uleb128 0x18
 7582 0127 00       		.byte	0
 7583 0128 00       		.byte	0
 7584 0129 17       		.uleb128 0x17
 7585 012a 34       		.uleb128 0x34
 7586 012b 00       		.byte	0
 7587 012c 03       		.uleb128 0x3
 7588 012d 0E       		.uleb128 0xe
 7589 012e 3A       		.uleb128 0x3a
 7590 012f 0B       		.uleb128 0xb
 7591 0130 3B       		.uleb128 0x3b
 7592 0131 0B       		.uleb128 0xb
 7593 0132 49       		.uleb128 0x49
 7594 0133 13       		.uleb128 0x13
 7595 0134 02       		.uleb128 0x2
 7596 0135 18       		.uleb128 0x18
 7597 0136 00       		.byte	0
 7598 0137 00       		.byte	0
 7599 0138 18       		.uleb128 0x18
 7600 0139 34       		.uleb128 0x34
 7601 013a 00       		.byte	0
 7602 013b 03       		.uleb128 0x3
 7603 013c 08       		.uleb128 0x8
 7604 013d 3A       		.uleb128 0x3a
 7605 013e 0B       		.uleb128 0xb
 7606 013f 3B       		.uleb128 0x3b
 7607 0140 0B       		.uleb128 0xb
 7608 0141 49       		.uleb128 0x49
 7609 0142 13       		.uleb128 0x13
 7610 0143 02       		.uleb128 0x2
 7611 0144 18       		.uleb128 0x18
 7612 0145 00       		.byte	0
 7613 0146 00       		.byte	0
 7614 0147 19       		.uleb128 0x19
 7615 0148 0B       		.uleb128 0xb
ARM GAS  /tmp/ccJqmpZo.s 			page 135


 7616 0149 01       		.byte	0x1
 7617 014a 11       		.uleb128 0x11
 7618 014b 01       		.uleb128 0x1
 7619 014c 12       		.uleb128 0x12
 7620 014d 06       		.uleb128 0x6
 7621 014e 00       		.byte	0
 7622 014f 00       		.byte	0
 7623 0150 1A       		.uleb128 0x1a
 7624 0151 34       		.uleb128 0x34
 7625 0152 00       		.byte	0
 7626 0153 03       		.uleb128 0x3
 7627 0154 0E       		.uleb128 0xe
 7628 0155 3A       		.uleb128 0x3a
 7629 0156 0B       		.uleb128 0xb
 7630 0157 3B       		.uleb128 0x3b
 7631 0158 05       		.uleb128 0x5
 7632 0159 49       		.uleb128 0x49
 7633 015a 13       		.uleb128 0x13
 7634 015b 02       		.uleb128 0x2
 7635 015c 18       		.uleb128 0x18
 7636 015d 00       		.byte	0
 7637 015e 00       		.byte	0
 7638 015f 1B       		.uleb128 0x1b
 7639 0160 0F       		.uleb128 0xf
 7640 0161 00       		.byte	0
 7641 0162 0B       		.uleb128 0xb
 7642 0163 0B       		.uleb128 0xb
 7643 0164 49       		.uleb128 0x49
 7644 0165 13       		.uleb128 0x13
 7645 0166 00       		.byte	0
 7646 0167 00       		.byte	0
 7647 0168 1C       		.uleb128 0x1c
 7648 0169 2E       		.uleb128 0x2e
 7649 016a 01       		.byte	0x1
 7650 016b 3F       		.uleb128 0x3f
 7651 016c 19       		.uleb128 0x19
 7652 016d 03       		.uleb128 0x3
 7653 016e 0E       		.uleb128 0xe
 7654 016f 3A       		.uleb128 0x3a
 7655 0170 0B       		.uleb128 0xb
 7656 0171 3B       		.uleb128 0x3b
 7657 0172 05       		.uleb128 0x5
 7658 0173 27       		.uleb128 0x27
 7659 0174 19       		.uleb128 0x19
 7660 0175 11       		.uleb128 0x11
 7661 0176 01       		.uleb128 0x1
 7662 0177 12       		.uleb128 0x12
 7663 0178 06       		.uleb128 0x6
 7664 0179 40       		.uleb128 0x40
 7665 017a 18       		.uleb128 0x18
 7666 017b 9742     		.uleb128 0x2117
 7667 017d 19       		.uleb128 0x19
 7668 017e 01       		.uleb128 0x1
 7669 017f 13       		.uleb128 0x13
 7670 0180 00       		.byte	0
 7671 0181 00       		.byte	0
 7672 0182 1D       		.uleb128 0x1d
ARM GAS  /tmp/ccJqmpZo.s 			page 136


 7673 0183 05       		.uleb128 0x5
 7674 0184 00       		.byte	0
 7675 0185 03       		.uleb128 0x3
 7676 0186 0E       		.uleb128 0xe
 7677 0187 3A       		.uleb128 0x3a
 7678 0188 0B       		.uleb128 0xb
 7679 0189 3B       		.uleb128 0x3b
 7680 018a 05       		.uleb128 0x5
 7681 018b 49       		.uleb128 0x49
 7682 018c 13       		.uleb128 0x13
 7683 018d 02       		.uleb128 0x2
 7684 018e 18       		.uleb128 0x18
 7685 018f 00       		.byte	0
 7686 0190 00       		.byte	0
 7687 0191 1E       		.uleb128 0x1e
 7688 0192 1D       		.uleb128 0x1d
 7689 0193 01       		.byte	0x1
 7690 0194 31       		.uleb128 0x31
 7691 0195 13       		.uleb128 0x13
 7692 0196 11       		.uleb128 0x11
 7693 0197 01       		.uleb128 0x1
 7694 0198 12       		.uleb128 0x12
 7695 0199 06       		.uleb128 0x6
 7696 019a 58       		.uleb128 0x58
 7697 019b 0B       		.uleb128 0xb
 7698 019c 59       		.uleb128 0x59
 7699 019d 05       		.uleb128 0x5
 7700 019e 01       		.uleb128 0x1
 7701 019f 13       		.uleb128 0x13
 7702 01a0 00       		.byte	0
 7703 01a1 00       		.byte	0
 7704 01a2 1F       		.uleb128 0x1f
 7705 01a3 05       		.uleb128 0x5
 7706 01a4 00       		.byte	0
 7707 01a5 31       		.uleb128 0x31
 7708 01a6 13       		.uleb128 0x13
 7709 01a7 02       		.uleb128 0x2
 7710 01a8 18       		.uleb128 0x18
 7711 01a9 00       		.byte	0
 7712 01aa 00       		.byte	0
 7713 01ab 20       		.uleb128 0x20
 7714 01ac 34       		.uleb128 0x34
 7715 01ad 00       		.byte	0
 7716 01ae 31       		.uleb128 0x31
 7717 01af 13       		.uleb128 0x13
 7718 01b0 02       		.uleb128 0x2
 7719 01b1 18       		.uleb128 0x18
 7720 01b2 00       		.byte	0
 7721 01b3 00       		.byte	0
 7722 01b4 21       		.uleb128 0x21
 7723 01b5 1D       		.uleb128 0x1d
 7724 01b6 01       		.byte	0x1
 7725 01b7 31       		.uleb128 0x31
 7726 01b8 13       		.uleb128 0x13
 7727 01b9 11       		.uleb128 0x11
 7728 01ba 01       		.uleb128 0x1
 7729 01bb 12       		.uleb128 0x12
ARM GAS  /tmp/ccJqmpZo.s 			page 137


 7730 01bc 06       		.uleb128 0x6
 7731 01bd 58       		.uleb128 0x58
 7732 01be 0B       		.uleb128 0xb
 7733 01bf 59       		.uleb128 0x59
 7734 01c0 05       		.uleb128 0x5
 7735 01c1 00       		.byte	0
 7736 01c2 00       		.byte	0
 7737 01c3 22       		.uleb128 0x22
 7738 01c4 2E       		.uleb128 0x2e
 7739 01c5 01       		.byte	0x1
 7740 01c6 3F       		.uleb128 0x3f
 7741 01c7 19       		.uleb128 0x19
 7742 01c8 03       		.uleb128 0x3
 7743 01c9 0E       		.uleb128 0xe
 7744 01ca 3A       		.uleb128 0x3a
 7745 01cb 0B       		.uleb128 0xb
 7746 01cc 3B       		.uleb128 0x3b
 7747 01cd 05       		.uleb128 0x5
 7748 01ce 27       		.uleb128 0x27
 7749 01cf 19       		.uleb128 0x19
 7750 01d0 49       		.uleb128 0x49
 7751 01d1 13       		.uleb128 0x13
 7752 01d2 11       		.uleb128 0x11
 7753 01d3 01       		.uleb128 0x1
 7754 01d4 12       		.uleb128 0x12
 7755 01d5 06       		.uleb128 0x6
 7756 01d6 40       		.uleb128 0x40
 7757 01d7 18       		.uleb128 0x18
 7758 01d8 9642     		.uleb128 0x2116
 7759 01da 19       		.uleb128 0x19
 7760 01db 01       		.uleb128 0x1
 7761 01dc 13       		.uleb128 0x13
 7762 01dd 00       		.byte	0
 7763 01de 00       		.byte	0
 7764 01df 23       		.uleb128 0x23
 7765 01e0 2E       		.uleb128 0x2e
 7766 01e1 00       		.byte	0
 7767 01e2 3F       		.uleb128 0x3f
 7768 01e3 19       		.uleb128 0x19
 7769 01e4 03       		.uleb128 0x3
 7770 01e5 0E       		.uleb128 0xe
 7771 01e6 3A       		.uleb128 0x3a
 7772 01e7 0B       		.uleb128 0xb
 7773 01e8 3B       		.uleb128 0x3b
 7774 01e9 05       		.uleb128 0x5
 7775 01ea 27       		.uleb128 0x27
 7776 01eb 19       		.uleb128 0x19
 7777 01ec 11       		.uleb128 0x11
 7778 01ed 01       		.uleb128 0x1
 7779 01ee 12       		.uleb128 0x12
 7780 01ef 06       		.uleb128 0x6
 7781 01f0 40       		.uleb128 0x40
 7782 01f1 18       		.uleb128 0x18
 7783 01f2 9742     		.uleb128 0x2117
 7784 01f4 19       		.uleb128 0x19
 7785 01f5 00       		.byte	0
 7786 01f6 00       		.byte	0
ARM GAS  /tmp/ccJqmpZo.s 			page 138


 7787 01f7 24       		.uleb128 0x24
 7788 01f8 2E       		.uleb128 0x2e
 7789 01f9 00       		.byte	0
 7790 01fa 3F       		.uleb128 0x3f
 7791 01fb 19       		.uleb128 0x19
 7792 01fc 03       		.uleb128 0x3
 7793 01fd 0E       		.uleb128 0xe
 7794 01fe 3A       		.uleb128 0x3a
 7795 01ff 0B       		.uleb128 0xb
 7796 0200 3B       		.uleb128 0x3b
 7797 0201 05       		.uleb128 0x5
 7798 0202 27       		.uleb128 0x27
 7799 0203 19       		.uleb128 0x19
 7800 0204 11       		.uleb128 0x11
 7801 0205 01       		.uleb128 0x1
 7802 0206 12       		.uleb128 0x12
 7803 0207 06       		.uleb128 0x6
 7804 0208 40       		.uleb128 0x40
 7805 0209 18       		.uleb128 0x18
 7806 020a 9642     		.uleb128 0x2116
 7807 020c 19       		.uleb128 0x19
 7808 020d 00       		.byte	0
 7809 020e 00       		.byte	0
 7810 020f 25       		.uleb128 0x25
 7811 0210 2E       		.uleb128 0x2e
 7812 0211 01       		.byte	0x1
 7813 0212 3F       		.uleb128 0x3f
 7814 0213 19       		.uleb128 0x19
 7815 0214 03       		.uleb128 0x3
 7816 0215 0E       		.uleb128 0xe
 7817 0216 3A       		.uleb128 0x3a
 7818 0217 0B       		.uleb128 0xb
 7819 0218 3B       		.uleb128 0x3b
 7820 0219 05       		.uleb128 0x5
 7821 021a 27       		.uleb128 0x27
 7822 021b 19       		.uleb128 0x19
 7823 021c 11       		.uleb128 0x11
 7824 021d 01       		.uleb128 0x1
 7825 021e 12       		.uleb128 0x12
 7826 021f 06       		.uleb128 0x6
 7827 0220 40       		.uleb128 0x40
 7828 0221 18       		.uleb128 0x18
 7829 0222 9642     		.uleb128 0x2116
 7830 0224 19       		.uleb128 0x19
 7831 0225 01       		.uleb128 0x1
 7832 0226 13       		.uleb128 0x13
 7833 0227 00       		.byte	0
 7834 0228 00       		.byte	0
 7835 0229 26       		.uleb128 0x26
 7836 022a 0B       		.uleb128 0xb
 7837 022b 01       		.byte	0x1
 7838 022c 11       		.uleb128 0x11
 7839 022d 01       		.uleb128 0x1
 7840 022e 12       		.uleb128 0x12
 7841 022f 06       		.uleb128 0x6
 7842 0230 01       		.uleb128 0x1
 7843 0231 13       		.uleb128 0x13
ARM GAS  /tmp/ccJqmpZo.s 			page 139


 7844 0232 00       		.byte	0
 7845 0233 00       		.byte	0
 7846 0234 27       		.uleb128 0x27
 7847 0235 2E       		.uleb128 0x2e
 7848 0236 01       		.byte	0x1
 7849 0237 03       		.uleb128 0x3
 7850 0238 0E       		.uleb128 0xe
 7851 0239 3A       		.uleb128 0x3a
 7852 023a 0B       		.uleb128 0xb
 7853 023b 3B       		.uleb128 0x3b
 7854 023c 05       		.uleb128 0x5
 7855 023d 27       		.uleb128 0x27
 7856 023e 19       		.uleb128 0x19
 7857 023f 49       		.uleb128 0x49
 7858 0240 13       		.uleb128 0x13
 7859 0241 11       		.uleb128 0x11
 7860 0242 01       		.uleb128 0x1
 7861 0243 12       		.uleb128 0x12
 7862 0244 06       		.uleb128 0x6
 7863 0245 40       		.uleb128 0x40
 7864 0246 18       		.uleb128 0x18
 7865 0247 9642     		.uleb128 0x2116
 7866 0249 19       		.uleb128 0x19
 7867 024a 01       		.uleb128 0x1
 7868 024b 13       		.uleb128 0x13
 7869 024c 00       		.byte	0
 7870 024d 00       		.byte	0
 7871 024e 28       		.uleb128 0x28
 7872 024f 34       		.uleb128 0x34
 7873 0250 00       		.byte	0
 7874 0251 03       		.uleb128 0x3
 7875 0252 0E       		.uleb128 0xe
 7876 0253 3A       		.uleb128 0x3a
 7877 0254 0B       		.uleb128 0xb
 7878 0255 3B       		.uleb128 0x3b
 7879 0256 05       		.uleb128 0x5
 7880 0257 49       		.uleb128 0x49
 7881 0258 13       		.uleb128 0x13
 7882 0259 3F       		.uleb128 0x3f
 7883 025a 19       		.uleb128 0x19
 7884 025b 3C       		.uleb128 0x3c
 7885 025c 19       		.uleb128 0x19
 7886 025d 00       		.byte	0
 7887 025e 00       		.byte	0
 7888 025f 00       		.byte	0
 7889              		.section	.debug_aranges,"",%progbits
 7890 0000 1C000000 		.4byte	0x1c
 7891 0004 0200     		.2byte	0x2
 7892 0006 00000000 		.4byte	.Ldebug_info0
 7893 000a 04       		.byte	0x4
 7894 000b 00       		.byte	0
 7895 000c 0000     		.2byte	0
 7896 000e 0000     		.2byte	0
 7897 0010 00000000 		.4byte	.Ltext0
 7898 0014 A81E0000 		.4byte	.Letext0-.Ltext0
 7899 0018 00000000 		.4byte	0
 7900 001c 00000000 		.4byte	0
ARM GAS  /tmp/ccJqmpZo.s 			page 140


 7901              		.section	.debug_line,"",%progbits
 7902              	.Ldebug_line0:
 7903 0000 62090000 		.section	.debug_str,"MS",%progbits,1
 7903      02007502 
 7903      00000201 
 7903      FB0E0D00 
 7903      01010101 
 7904              	.LASF2:
 7905 0000 73686F72 		.ascii	"short int\000"
 7905      7420696E 
 7905      7400
 7906              	.LASF174:
 7907 000a 4750494F 		.ascii	"GPIO_InitStruct\000"
 7907      5F496E69 
 7907      74537472 
 7907      75637400 
 7908              	.LASF32:
 7909 001a 50555044 		.ascii	"PUPDR\000"
 7909      5200
 7910              	.LASF34:
 7911 0020 4C434B52 		.ascii	"LCKR\000"
 7911      00
 7912              	.LASF91:
 7913 0025 466C6167 		.ascii	"FlagStatus\000"
 7913      53746174 
 7913      757300
 7914              	.LASF147:
 7915 0030 50657269 		.ascii	"PeriphClkInit\000"
 7915      7068436C 
 7915      6B496E69 
 7915      7400
 7916              	.LASF150:
 7917 003e 50657269 		.ascii	"PeriphClk\000"
 7917      7068436C 
 7917      6B00
 7918              	.LASF156:
 7919 0048 48414C5F 		.ascii	"HAL_RCCEx_EnablePLLSAI1\000"
 7919      52434345 
 7919      785F456E 
 7919      61626C65 
 7919      504C4C53 
 7920              	.LASF159:
 7921 0060 48414C5F 		.ascii	"HAL_RCCEx_EnablePLLSAI2\000"
 7921      52434345 
 7921      785F456E 
 7921      61626C65 
 7921      504C4C53 
 7922              	.LASF43:
 7923 0078 50444352 		.ascii	"PDCRC\000"
 7923      4300
 7924              	.LASF154:
 7925 007e 706C6C6E 		.ascii	"plln\000"
 7925      00
 7926              	.LASF47:
 7927 0083 50444352 		.ascii	"PDCRE\000"
 7927      4500
 7928              	.LASF30:
ARM GAS  /tmp/ccJqmpZo.s 			page 141


 7929 0089 4F545950 		.ascii	"OTYPER\000"
 7929      455200
 7930              	.LASF51:
 7931 0090 50444352 		.ascii	"PDCRG\000"
 7931      4700
 7932              	.LASF53:
 7933 0096 50444352 		.ascii	"PDCRH\000"
 7933      4800
 7934              	.LASF95:
 7935 009c 48414C5F 		.ascii	"HAL_BUSY\000"
 7935      42555359 
 7935      00
 7936              	.LASF179:
 7937 00a5 506C6C53 		.ascii	"PllSai1\000"
 7937      61693100 
 7938              	.LASF183:
 7939 00ad 506C6C53 		.ascii	"PllSai2\000"
 7939      61693200 
 7940              	.LASF19:
 7941 00b5 46545352 		.ascii	"FTSR1\000"
 7941      3100
 7942              	.LASF26:
 7943 00bb 46545352 		.ascii	"FTSR2\000"
 7943      3200
 7944              	.LASF148:
 7945 00c1 48414C5F 		.ascii	"HAL_RCCEx_PeriphCLKConfig\000"
 7945      52434345 
 7945      785F5065 
 7945      72697068 
 7945      434C4B43 
 7946              	.LASF130:
 7947 00db 53646D6D 		.ascii	"Sdmmc1ClockSelection\000"
 7947      6331436C 
 7947      6F636B53 
 7947      656C6563 
 7947      74696F6E 
 7948              	.LASF162:
 7949 00f0 48414C5F 		.ascii	"HAL_RCCEx_GetPeriphCLKConfig\000"
 7949      52434345 
 7949      785F4765 
 7949      74506572 
 7949      69706843 
 7950              	.LASF29:
 7951 010d 4D4F4445 		.ascii	"MODER\000"
 7951      5200
 7952              	.LASF39:
 7953 0113 50444352 		.ascii	"PDCRA\000"
 7953      4100
 7954              	.LASF167:
 7955 0119 48414C5F 		.ascii	"HAL_RCCEx_EnableLSECSS\000"
 7955      52434345 
 7955      785F456E 
 7955      61626C65 
 7955      4C534543 
 7956              	.LASF41:
 7957 0130 50444352 		.ascii	"PDCRB\000"
 7957      4200
ARM GAS  /tmp/ccJqmpZo.s 			page 142


 7958              	.LASF45:
 7959 0136 50444352 		.ascii	"PDCRD\000"
 7959      4400
 7960              	.LASF49:
 7961 013c 50444352 		.ascii	"PDCRF\000"
 7961      4600
 7962              	.LASF125:
 7963 0142 4C707469 		.ascii	"Lptim1ClockSelection\000"
 7963      6D31436C 
 7963      6F636B53 
 7963      656C6563 
 7963      74696F6E 
 7964              	.LASF190:
 7965 0157 49544D5F 		.ascii	"ITM_RxBuffer\000"
 7965      52784275 
 7965      66666572 
 7965      00
 7966              	.LASF20:
 7967 0164 53574945 		.ascii	"SWIER1\000"
 7967      523100
 7968              	.LASF27:
 7969 016b 53574945 		.ascii	"SWIER2\000"
 7969      523200
 7970              	.LASF151:
 7971 0172 66726571 		.ascii	"frequency\000"
 7971      75656E63 
 7971      7900
 7972              	.LASF60:
 7973 017c 43494552 		.ascii	"CIER\000"
 7973      00
 7974              	.LASF185:
 7975 0181 2E2E2F2E 		.ascii	"../../../../../Drivers/STM32L4xx_HAL_Driver/Src/stm"
 7975      2E2F2E2E 
 7975      2F2E2E2F 
 7975      2E2E2F44 
 7975      72697665 
 7976 01b4 33326C34 		.ascii	"32l4xx_hal_rcc_ex.c\000"
 7976      78785F68 
 7976      616C5F72 
 7976      63635F65 
 7976      782E6300 
 7977              	.LASF99:
 7978 01c8 504C4C53 		.ascii	"PLLSAI1M\000"
 7978      4149314D 
 7978      00
 7979              	.LASF123:
 7980 01d1 49326332 		.ascii	"I2c2ClockSelection\000"
 7980      436C6F63 
 7980      6B53656C 
 7980      65637469 
 7980      6F6E00
 7981              	.LASF178:
 7982 01e4 48414C5F 		.ascii	"HAL_RCCEx_DisableMSIPLLMode\000"
 7982      52434345 
 7982      785F4469 
 7982      7361626C 
 7982      654D5349 
ARM GAS  /tmp/ccJqmpZo.s 			page 143


 7983              	.LASF101:
 7984 0200 504C4C53 		.ascii	"PLLSAI1P\000"
 7984      41493150 
 7984      00
 7985              	.LASF33:
 7986 0209 42535252 		.ascii	"BSRR\000"
 7986      00
 7987              	.LASF103:
 7988 020e 504C4C53 		.ascii	"PLLSAI1R\000"
 7988      41493152 
 7988      00
 7989              	.LASF128:
 7990 0217 53616932 		.ascii	"Sai2ClockSelection\000"
 7990      436C6F63 
 7990      6B53656C 
 7990      65637469 
 7990      6F6E00
 7991              	.LASF173:
 7992 022a 4C53434F 		.ascii	"LSCOSource\000"
 7992      536F7572 
 7992      636500
 7993              	.LASF100:
 7994 0235 504C4C53 		.ascii	"PLLSAI1N\000"
 7994      4149314E 
 7994      00
 7995              	.LASF78:
 7996 023e 41484231 		.ascii	"AHB1SMENR\000"
 7996      534D454E 
 7996      5200
 7997              	.LASF160:
 7998 0248 504C4C53 		.ascii	"PLLSAI2Init\000"
 7998      41493249 
 7998      6E697400 
 7999              	.LASF84:
 8000 0254 41504232 		.ascii	"APB2SMENR\000"
 8000      534D454E 
 8000      5200
 8001              	.LASF38:
 8002 025e 50554352 		.ascii	"PUCRA\000"
 8002      4100
 8003              	.LASF40:
 8004 0264 50554352 		.ascii	"PUCRB\000"
 8004      4200
 8005              	.LASF42:
 8006 026a 50554352 		.ascii	"PUCRC\000"
 8006      4300
 8007              	.LASF44:
 8008 0270 50554352 		.ascii	"PUCRD\000"
 8008      4400
 8009              	.LASF102:
 8010 0276 504C4C53 		.ascii	"PLLSAI1Q\000"
 8010      41493151 
 8010      00
 8011              	.LASF146:
 8012 027f 746D7072 		.ascii	"tmpreg\000"
 8012      656700
 8013              	.LASF50:
ARM GAS  /tmp/ccJqmpZo.s 			page 144


 8014 0286 50554352 		.ascii	"PUCRG\000"
 8014      4700
 8015              	.LASF52:
 8016 028c 50554352 		.ascii	"PUCRH\000"
 8016      4800
 8017              	.LASF104:
 8018 0292 504C4C53 		.ascii	"PLLSAI1ClockOut\000"
 8018      41493143 
 8018      6C6F636B 
 8018      4F757400 
 8019              	.LASF175:
 8020 02a2 6261636B 		.ascii	"backupchanged\000"
 8020      75706368 
 8020      616E6765 
 8020      6400
 8021              	.LASF6:
 8022 02b0 6C6F6E67 		.ascii	"long int\000"
 8022      20696E74 
 8022      00
 8023              	.LASF69:
 8024 02b9 41504232 		.ascii	"APB2RSTR\000"
 8024      52535452 
 8024      00
 8025              	.LASF67:
 8026 02c2 41504231 		.ascii	"APB1RSTR1\000"
 8026      52535452 
 8026      3100
 8027              	.LASF68:
 8028 02cc 41504231 		.ascii	"APB1RSTR2\000"
 8028      52535452 
 8028      3200
 8029              	.LASF171:
 8030 02d6 48414C5F 		.ascii	"HAL_RCCEx_LSECSS_Callback\000"
 8030      52434345 
 8030      785F4C53 
 8030      45435353 
 8030      5F43616C 
 8031              	.LASF9:
 8032 02f0 6C6F6E67 		.ascii	"long long int\000"
 8032      206C6F6E 
 8032      6720696E 
 8032      7400
 8033              	.LASF12:
 8034 02fe 75696E74 		.ascii	"uint16_t\000"
 8034      31365F74 
 8034      00
 8035              	.LASF10:
 8036 0307 6C6F6E67 		.ascii	"long long unsigned int\000"
 8036      206C6F6E 
 8036      6720756E 
 8036      7369676E 
 8036      65642069 
 8037              	.LASF120:
 8038 031e 55617274 		.ascii	"Uart5ClockSelection\000"
 8038      35436C6F 
 8038      636B5365 
 8038      6C656374 
ARM GAS  /tmp/ccJqmpZo.s 			page 145


 8038      696F6E00 
 8039              	.LASF172:
 8040 0332 48414C5F 		.ascii	"HAL_RCCEx_EnableLSCO\000"
 8040      52434345 
 8040      785F456E 
 8040      61626C65 
 8040      4C53434F 
 8041              	.LASF57:
 8042 0347 504C4C43 		.ascii	"PLLCFGR\000"
 8042      46475200 
 8043              	.LASF187:
 8044 034f 5F5F5242 		.ascii	"__RBIT\000"
 8044      495400
 8045              	.LASF61:
 8046 0356 43494652 		.ascii	"CIFR\000"
 8046      00
 8047              	.LASF152:
 8048 035b 73726363 		.ascii	"srcclk\000"
 8048      6C6B00
 8049              	.LASF108:
 8050 0362 504C4C53 		.ascii	"PLLSAI2N\000"
 8050      4149324E 
 8050      00
 8051              	.LASF31:
 8052 036b 4F535045 		.ascii	"OSPEEDR\000"
 8052      45445200 
 8053              	.LASF109:
 8054 0373 504C4C53 		.ascii	"PLLSAI2P\000"
 8054      41493250 
 8054      00
 8055              	.LASF110:
 8056 037c 504C4C53 		.ascii	"PLLSAI2R\000"
 8056      41493252 
 8056      00
 8057              	.LASF79:
 8058 0385 41484232 		.ascii	"AHB2SMENR\000"
 8058      534D454E 
 8058      5200
 8059              	.LASF186:
 8060 038f 2F752F65 		.ascii	"/u/elawton2/p442-submissions/sensortile/reference/b"
 8060      6C617774 
 8060      6F6E322F 
 8060      70343432 
 8060      2D737562 
 8061 03c2 6C75656D 		.ascii	"luemicrosystem2/BlueMicrosystem2_V2.2.0/Projects/Mu"
 8061      6963726F 
 8061      73797374 
 8061      656D322F 
 8061      426C7565 
 8062 03f5 6C74692F 		.ascii	"lti/Applications/BlueMicrosystem2/bluechibi\000"
 8062      4170706C 
 8062      69636174 
 8062      696F6E73 
 8062      2F426C75 
 8063              	.LASF177:
 8064 0421 48414C5F 		.ascii	"HAL_RCCEx_EnableMSIPLLMode\000"
 8064      52434345 
ARM GAS  /tmp/ccJqmpZo.s 			page 146


 8064      785F456E 
 8064      61626C65 
 8064      4D534950 
 8065              	.LASF166:
 8066 043c 4D534952 		.ascii	"MSIRange\000"
 8066      616E6765 
 8066      00
 8067              	.LASF188:
 8068 0445 76616C75 		.ascii	"value\000"
 8068      6500
 8069              	.LASF96:
 8070 044b 48414C5F 		.ascii	"HAL_TIMEOUT\000"
 8070      54494D45 
 8070      4F555400 
 8071              	.LASF153:
 8072 0457 706C6C76 		.ascii	"pllvco\000"
 8072      636F00
 8073              	.LASF11:
 8074 045e 756E7369 		.ascii	"unsigned int\000"
 8074      676E6564 
 8074      20696E74 
 8074      00
 8075              	.LASF35:
 8076 046b 41534352 		.ascii	"ASCR\000"
 8076      00
 8077              	.LASF111:
 8078 0470 504C4C53 		.ascii	"PLLSAI2ClockOut\000"
 8078      41493243 
 8078      6C6F636B 
 8078      4F757400 
 8079              	.LASF8:
 8080 0480 6C6F6E67 		.ascii	"long unsigned int\000"
 8080      20756E73 
 8080      69676E65 
 8080      6420696E 
 8080      7400
 8081              	.LASF36:
 8082 0492 4750494F 		.ascii	"GPIO_TypeDef\000"
 8082      5F547970 
 8082      65446566 
 8082      00
 8083              	.LASF89:
 8084 049f 5243435F 		.ascii	"RCC_TypeDef\000"
 8084      54797065 
 8084      44656600 
 8085              	.LASF93:
 8086 04ab 48414C5F 		.ascii	"HAL_OK\000"
 8086      4F4B00
 8087              	.LASF113:
 8088 04b2 50657269 		.ascii	"PeriphClockSelection\000"
 8088      7068436C 
 8088      6F636B53 
 8088      656C6563 
 8088      74696F6E 
 8089              	.LASF3:
 8090 04c7 73686F72 		.ascii	"short unsigned int\000"
 8090      7420756E 
ARM GAS  /tmp/ccJqmpZo.s 			page 147


 8090      7369676E 
 8090      65642069 
 8090      6E7400
 8091              	.LASF16:
 8092 04da 494D5231 		.ascii	"IMR1\000"
 8092      00
 8093              	.LASF23:
 8094 04df 494D5232 		.ascii	"IMR2\000"
 8094      00
 8095              	.LASF80:
 8096 04e4 41484233 		.ascii	"AHB3SMENR\000"
 8096      534D454E 
 8096      5200
 8097              	.LASF66:
 8098 04ee 41484233 		.ascii	"AHB3RSTR\000"
 8098      52535452 
 8098      00
 8099              	.LASF181:
 8100 04f7 52434345 		.ascii	"RCCEx_PLLSAI1_Config\000"
 8100      785F504C 
 8100      4C534149 
 8100      315F436F 
 8100      6E666967 
 8101              	.LASF105:
 8102 050c 5243435F 		.ascii	"RCC_PLLSAI1InitTypeDef\000"
 8102      504C4C53 
 8102      41493149 
 8102      6E697454 
 8102      79706544 
 8103              	.LASF97:
 8104 0523 48414C5F 		.ascii	"HAL_StatusTypeDef\000"
 8104      53746174 
 8104      75735479 
 8104      70654465 
 8104      6600
 8105              	.LASF164:
 8106 0535 57616B65 		.ascii	"WakeUpClk\000"
 8106      5570436C 
 8106      6B00
 8107              	.LASF126:
 8108 053f 4C707469 		.ascii	"Lptim2ClockSelection\000"
 8108      6D32436C 
 8108      6F636B53 
 8108      656C6563 
 8108      74696F6E 
 8109              	.LASF134:
 8110 0554 44667364 		.ascii	"Dfsdm1ClockSelection\000"
 8110      6D31436C 
 8110      6F636B53 
 8110      656C6563 
 8110      74696F6E 
 8111              	.LASF129:
 8112 0569 55736243 		.ascii	"UsbClockSelection\000"
 8112      6C6F636B 
 8112      53656C65 
 8112      6374696F 
 8112      6E00
ARM GAS  /tmp/ccJqmpZo.s 			page 148


 8113              	.LASF182:
 8114 057b 52434345 		.ascii	"RCCEx_PLLSAI2_Config\000"
 8114      785F504C 
 8114      4C534149 
 8114      325F436F 
 8114      6E666967 
 8115              	.LASF145:
 8116 0590 70777263 		.ascii	"pwrclkchanged\000"
 8116      6C6B6368 
 8116      616E6765 
 8116      6400
 8117              	.LASF135:
 8118 059e 52544343 		.ascii	"RTCClockSelection\000"
 8118      6C6F636B 
 8118      53656C65 
 8118      6374696F 
 8118      6E00
 8119              	.LASF15:
 8120 05b0 73697A65 		.ascii	"sizetype\000"
 8120      74797065 
 8120      00
 8121              	.LASF139:
 8122 05b9 53706565 		.ascii	"Speed\000"
 8122      6400
 8123              	.LASF59:
 8124 05bf 504C4C53 		.ascii	"PLLSAI2CFGR\000"
 8124      41493243 
 8124      46475200 
 8125              	.LASF155:
 8126 05cb 706C6C70 		.ascii	"pllp\000"
 8126      00
 8127              	.LASF98:
 8128 05d0 504C4C53 		.ascii	"PLLSAI1Source\000"
 8128      41493153 
 8128      6F757263 
 8128      6500
 8129              	.LASF157:
 8130 05de 504C4C53 		.ascii	"PLLSAI1Init\000"
 8130      41493149 
 8130      6E697400 
 8131              	.LASF142:
 8132 05ea 746D7072 		.ascii	"tmpregister\000"
 8132      65676973 
 8132      74657200 
 8133              	.LASF169:
 8134 05f6 48414C5F 		.ascii	"HAL_RCCEx_EnableLSECSS_IT\000"
 8134      52434345 
 8134      785F456E 
 8134      61626C65 
 8134      4C534543 
 8135              	.LASF141:
 8136 0610 4750494F 		.ascii	"GPIO_InitTypeDef\000"
 8136      5F496E69 
 8136      74547970 
 8136      65446566 
 8136      00
 8137              	.LASF176:
ARM GAS  /tmp/ccJqmpZo.s 			page 149


 8138 0621 48414C5F 		.ascii	"HAL_RCCEx_DisableLSCO\000"
 8138      52434345 
 8138      785F4469 
 8138      7361626C 
 8138      654C5343 
 8139              	.LASF74:
 8140 0637 41504231 		.ascii	"APB1ENR1\000"
 8140      454E5231 
 8140      00
 8141              	.LASF75:
 8142 0640 41504231 		.ascii	"APB1ENR2\000"
 8142      454E5232 
 8142      00
 8143              	.LASF165:
 8144 0649 48414C5F 		.ascii	"HAL_RCCEx_StandbyMSIRangeConfig\000"
 8144      52434345 
 8144      785F5374 
 8144      616E6462 
 8144      794D5349 
 8145              	.LASF114:
 8146 0669 504C4C53 		.ascii	"PLLSAI1\000"
 8146      41493100 
 8147              	.LASF115:
 8148 0671 504C4C53 		.ascii	"PLLSAI2\000"
 8148      41493200 
 8149              	.LASF63:
 8150 0679 52455345 		.ascii	"RESERVED0\000"
 8150      52564544 
 8150      3000
 8151              	.LASF21:
 8152 0683 52455345 		.ascii	"RESERVED1\000"
 8152      52564544 
 8152      3100
 8153              	.LASF22:
 8154 068d 52455345 		.ascii	"RESERVED2\000"
 8154      52564544 
 8154      3200
 8155              	.LASF18:
 8156 0697 52545352 		.ascii	"RTSR1\000"
 8156      3100
 8157              	.LASF25:
 8158 069d 52545352 		.ascii	"RTSR2\000"
 8158      3200
 8159              	.LASF81:
 8160 06a3 52455345 		.ascii	"RESERVED5\000"
 8160      52564544 
 8160      3500
 8161              	.LASF85:
 8162 06ad 52455345 		.ascii	"RESERVED6\000"
 8162      52564544 
 8162      3600
 8163              	.LASF90:
 8164 06b7 52455345 		.ascii	"RESET\000"
 8164      5400
 8165              	.LASF112:
 8166 06bd 5243435F 		.ascii	"RCC_PLLSAI2InitTypeDef\000"
 8166      504C4C53 
ARM GAS  /tmp/ccJqmpZo.s 			page 150


 8166      41493249 
 8166      6E697454 
 8166      79706544 
 8167              	.LASF124:
 8168 06d4 49326333 		.ascii	"I2c3ClockSelection\000"
 8168      436C6F63 
 8168      6B53656C 
 8168      65637469 
 8168      6F6E00
 8169              	.LASF13:
 8170 06e7 696E7433 		.ascii	"int32_t\000"
 8170      325F7400 
 8171              	.LASF1:
 8172 06ef 756E7369 		.ascii	"unsigned char\000"
 8172      676E6564 
 8172      20636861 
 8172      7200
 8173              	.LASF122:
 8174 06fd 49326331 		.ascii	"I2c1ClockSelection\000"
 8174      436C6F63 
 8174      6B53656C 
 8174      65637469 
 8174      6F6E00
 8175              	.LASF127:
 8176 0710 53616931 		.ascii	"Sai1ClockSelection\000"
 8176      436C6F63 
 8176      6B53656C 
 8176      65637469 
 8176      6F6E00
 8177              	.LASF184:
 8178 0723 474E5520 		.ascii	"GNU C 4.8.4 20140526 (release) [ARM/embedded-4_8-br"
 8178      4320342E 
 8178      382E3420 
 8178      32303134 
 8178      30353236 
 8179 0756 616E6368 		.ascii	"anch revision 211358] -mcpu=cortex-m4 -mno-thumb-in"
 8179      20726576 
 8179      6973696F 
 8179      6E203231 
 8179      31333538 
 8180 0789 74657277 		.ascii	"terwork -mthumb -ggdb -O0 -std=c99 -fomit-frame-poi"
 8180      6F726B20 
 8180      2D6D7468 
 8180      756D6220 
 8180      2D676764 
 8181 07bc 6E746572 		.ascii	"nter -falign-functions=16\000"
 8181      202D6661 
 8181      6C69676E 
 8181      2D66756E 
 8181      6374696F 
 8182              	.LASF86:
 8183 07d6 43434950 		.ascii	"CCIPR\000"
 8183      5200
 8184              	.LASF149:
 8185 07dc 48414C5F 		.ascii	"HAL_RCCEx_GetPeriphCLKFreq\000"
 8185      52434345 
 8185      785F4765 
ARM GAS  /tmp/ccJqmpZo.s 			page 151


 8185      74506572 
 8185      69706843 
 8186              	.LASF117:
 8187 07f7 55736172 		.ascii	"Usart2ClockSelection\000"
 8187      7432436C 
 8187      6F636B53 
 8187      656C6563 
 8187      74696F6E 
 8188              	.LASF143:
 8189 080c 7469636B 		.ascii	"tickstart\000"
 8189      73746172 
 8189      7400
 8190              	.LASF37:
 8191 0816 52455345 		.ascii	"RESERVED\000"
 8191      52564544 
 8191      00
 8192              	.LASF131:
 8193 081f 526E6743 		.ascii	"RngClockSelection\000"
 8193      6C6F636B 
 8193      53656C65 
 8193      6374696F 
 8193      6E00
 8194              	.LASF76:
 8195 0831 41504232 		.ascii	"APB2ENR\000"
 8195      454E5200 
 8196              	.LASF72:
 8197 0839 41484233 		.ascii	"AHB3ENR\000"
 8197      454E5200 
 8198              	.LASF73:
 8199 0841 52455345 		.ascii	"RESERVED3\000"
 8199      52564544 
 8199      3300
 8200              	.LASF77:
 8201 084b 52455345 		.ascii	"RESERVED4\000"
 8201      52564544 
 8201      3400
 8202              	.LASF14:
 8203 0855 75696E74 		.ascii	"uint32_t\000"
 8203      33325F74 
 8203      00
 8204              	.LASF136:
 8205 085e 5243435F 		.ascii	"RCC_PeriphCLKInitTypeDef\000"
 8205      50657269 
 8205      7068434C 
 8205      4B496E69 
 8205      74547970 
 8206              	.LASF106:
 8207 0877 504C4C53 		.ascii	"PLLSAI2Source\000"
 8207      41493253 
 8207      6F757263 
 8207      6500
 8208              	.LASF94:
 8209 0885 48414C5F 		.ascii	"HAL_ERROR\000"
 8209      4552524F 
 8209      5200
 8210              	.LASF158:
 8211 088f 48414C5F 		.ascii	"HAL_RCCEx_DisablePLLSAI1\000"
ARM GAS  /tmp/ccJqmpZo.s 			page 152


 8211      52434345 
 8211      785F4469 
 8211      7361626C 
 8211      65504C4C 
 8212              	.LASF161:
 8213 08a8 48414C5F 		.ascii	"HAL_RCCEx_DisablePLLSAI2\000"
 8213      52434345 
 8213      785F4469 
 8213      7361626C 
 8213      65504C4C 
 8214              	.LASF92:
 8215 08c1 63686172 		.ascii	"char\000"
 8215      00
 8216              	.LASF133:
 8217 08c6 5377706D 		.ascii	"Swpmi1ClockSelection\000"
 8217      6931436C 
 8217      6F636B53 
 8217      656C6563 
 8217      74696F6E 
 8218              	.LASF137:
 8219 08db 4D6F6465 		.ascii	"Mode\000"
 8219      00
 8220              	.LASF4:
 8221 08e0 5F5F7569 		.ascii	"__uint16_t\000"
 8221      6E743136 
 8221      5F7400
 8222              	.LASF170:
 8223 08eb 48414C5F 		.ascii	"HAL_RCCEx_LSECSS_IRQHandler\000"
 8223      52434345 
 8223      785F4C53 
 8223      45435353 
 8223      5F495251 
 8224              	.LASF65:
 8225 0907 41484232 		.ascii	"AHB2RSTR\000"
 8225      52535452 
 8225      00
 8226              	.LASF132:
 8227 0910 41646343 		.ascii	"AdcClockSelection\000"
 8227      6C6F636B 
 8227      53656C65 
 8227      6374696F 
 8227      6E00
 8228              	.LASF5:
 8229 0922 5F5F696E 		.ascii	"__int32_t\000"
 8229      7433325F 
 8229      7400
 8230              	.LASF7:
 8231 092c 5F5F7569 		.ascii	"__uint32_t\000"
 8231      6E743332 
 8231      5F7400
 8232              	.LASF54:
 8233 0937 5057525F 		.ascii	"PWR_TypeDef\000"
 8233      54797065 
 8233      44656600 
 8234              	.LASF71:
 8235 0943 41484232 		.ascii	"AHB2ENR\000"
 8235      454E5200 
ARM GAS  /tmp/ccJqmpZo.s 			page 153


 8236              	.LASF119:
 8237 094b 55617274 		.ascii	"Uart4ClockSelection\000"
 8237      34436C6F 
 8237      636B5365 
 8237      6C656374 
 8237      696F6E00 
 8238              	.LASF17:
 8239 095f 454D5231 		.ascii	"EMR1\000"
 8239      00
 8240              	.LASF24:
 8241 0964 454D5232 		.ascii	"EMR2\000"
 8241      00
 8242              	.LASF180:
 8243 0969 44697669 		.ascii	"Divider\000"
 8243      64657200 
 8244              	.LASF64:
 8245 0971 41484231 		.ascii	"AHB1RSTR\000"
 8245      52535452 
 8245      00
 8246              	.LASF87:
 8247 097a 52455345 		.ascii	"RESERVED7\000"
 8247      52564544 
 8247      3700
 8248              	.LASF121:
 8249 0984 4C707561 		.ascii	"Lpuart1ClockSelection\000"
 8249      72743143 
 8249      6C6F636B 
 8249      53656C65 
 8249      6374696F 
 8250              	.LASF62:
 8251 099a 43494352 		.ascii	"CICR\000"
 8251      00
 8252              	.LASF116:
 8253 099f 55736172 		.ascii	"Usart1ClockSelection\000"
 8253      7431436C 
 8253      6F636B53 
 8253      656C6563 
 8253      74696F6E 
 8254              	.LASF144:
 8255 09b4 73746174 		.ascii	"status\000"
 8255      757300
 8256              	.LASF118:
 8257 09bb 55736172 		.ascii	"Usart3ClockSelection\000"
 8257      7433436C 
 8257      6F636B53 
 8257      656C6563 
 8257      74696F6E 
 8258              	.LASF58:
 8259 09d0 504C4C53 		.ascii	"PLLSAI1CFGR\000"
 8259      41493143 
 8259      46475200 
 8260              	.LASF88:
 8261 09dc 42444352 		.ascii	"BDCR\000"
 8261      00
 8262              	.LASF163:
 8263 09e1 48414C5F 		.ascii	"HAL_RCCEx_WakeUpStopCLKConfig\000"
 8263      52434345 
ARM GAS  /tmp/ccJqmpZo.s 			page 154


 8263      785F5761 
 8263      6B655570 
 8263      53746F70 
 8264              	.LASF168:
 8265 09ff 48414C5F 		.ascii	"HAL_RCCEx_DisableLSECSS\000"
 8265      52434345 
 8265      785F4469 
 8265      7361626C 
 8265      654C5345 
 8266              	.LASF107:
 8267 0a17 504C4C53 		.ascii	"PLLSAI2M\000"
 8267      4149324D 
 8267      00
 8268              	.LASF55:
 8269 0a20 49435343 		.ascii	"ICSCR\000"
 8269      5200
 8270              	.LASF70:
 8271 0a26 41484231 		.ascii	"AHB1ENR\000"
 8271      454E5200 
 8272              	.LASF138:
 8273 0a2e 50756C6C 		.ascii	"Pull\000"
 8273      00
 8274              	.LASF56:
 8275 0a33 43464752 		.ascii	"CFGR\000"
 8275      00
 8276              	.LASF0:
 8277 0a38 7369676E 		.ascii	"signed char\000"
 8277      65642063 
 8277      68617200 
 8278              	.LASF28:
 8279 0a44 45585449 		.ascii	"EXTI_TypeDef\000"
 8279      5F547970 
 8279      65446566 
 8279      00
 8280              	.LASF140:
 8281 0a51 416C7465 		.ascii	"Alternate\000"
 8281      726E6174 
 8281      6500
 8282              	.LASF189:
 8283 0a5b 72657375 		.ascii	"result\000"
 8283      6C7400
 8284              	.LASF46:
 8285 0a62 50554352 		.ascii	"PUCRE\000"
 8285      4500
 8286              	.LASF48:
 8287 0a68 50554352 		.ascii	"PUCRF\000"
 8287      4600
 8288              	.LASF82:
 8289 0a6e 41504231 		.ascii	"APB1SMENR1\000"
 8289      534D454E 
 8289      523100
 8290              	.LASF83:
 8291 0a79 41504231 		.ascii	"APB1SMENR2\000"
 8291      534D454E 
 8291      523200
 8292              		.ident	"GCC: (GNU Tools for ARM Embedded Processors) 4.8.4 20140526 (release) [ARM/embedded-4_8-br
ARM GAS  /tmp/ccJqmpZo.s 			page 155


DEFINED SYMBOLS
                            *ABS*:00000000 stm32l4xx_hal_rcc_ex.c
     /tmp/ccJqmpZo.s:18     .text:00000000 $t
     /tmp/ccJqmpZo.s:24     .text:00000000 HAL_RCCEx_PeriphCLKConfig
     /tmp/ccJqmpZo.s:3944   .text:000019c0 RCCEx_PLLSAI1_Config
     /tmp/ccJqmpZo.s:4386   .text:00001c60 RCCEx_PLLSAI2_Config
     /tmp/ccJqmpZo.s:373    .text:00000280 $d
     /tmp/ccJqmpZo.s:377    .text:00000288 $t
     /tmp/ccJqmpZo.s:696    .text:00000520 $d
     /tmp/ccJqmpZo.s:699    .text:00000524 $t
     /tmp/ccJqmpZo.s:819    .text:00000620 $d
     /tmp/ccJqmpZo.s:823    .text:00000624 $t
     /tmp/ccJqmpZo.s:829    .text:00000630 HAL_RCCEx_GetPeriphCLKConfig
     /tmp/ccJqmpZo.s:1208   .text:000008bc $d
     /tmp/ccJqmpZo.s:1213   .text:000008c4 $t
     /tmp/ccJqmpZo.s:1219   .text:000008d0 HAL_RCCEx_GetPeriphCLKFreq
     /tmp/ccJqmpZo.s:1617   .text:00000ba8 $d
     /tmp/ccJqmpZo.s:1624   .text:00000bbc $t
     /tmp/ccJqmpZo.s:2048   .text:00000e70 $d
     /tmp/ccJqmpZo.s:2053   .text:00000e7c $t
     /tmp/ccJqmpZo.s:2424   .text:000010e8 $d
     /tmp/ccJqmpZo.s:2428   .text:000010f0 $t
     /tmp/ccJqmpZo.s:2830   .text:00001394 $d
     /tmp/ccJqmpZo.s:2834   .text:0000139c $t
     /tmp/ccJqmpZo.s:2852   .text:000013b0 HAL_RCCEx_EnablePLLSAI1
     /tmp/ccJqmpZo.s:3047   .text:000014d0 $d
     /tmp/ccJqmpZo.s:3051   .text:000014d4 $t
     /tmp/ccJqmpZo.s:3057   .text:000014e0 HAL_RCCEx_DisablePLLSAI1
     /tmp/ccJqmpZo.s:3143   .text:00001564 $d
     /tmp/ccJqmpZo.s:3147   .text:00001568 $t
     /tmp/ccJqmpZo.s:3153   .text:00001570 HAL_RCCEx_EnablePLLSAI2
     /tmp/ccJqmpZo.s:3325   .text:00001670 $d
     /tmp/ccJqmpZo.s:3329   .text:00001674 $t
     /tmp/ccJqmpZo.s:3335   .text:00001680 HAL_RCCEx_DisablePLLSAI2
     /tmp/ccJqmpZo.s:3421   .text:00001704 $d
     /tmp/ccJqmpZo.s:3425   .text:00001708 $t
     /tmp/ccJqmpZo.s:3431   .text:00001710 HAL_RCCEx_WakeUpStopCLKConfig
     /tmp/ccJqmpZo.s:3456   .text:00001728 $d
     /tmp/ccJqmpZo.s:3460   .text:0000172c $t
     /tmp/ccJqmpZo.s:3466   .text:00001730 HAL_RCCEx_StandbyMSIRangeConfig
     /tmp/ccJqmpZo.s:3492   .text:00001750 $d
     /tmp/ccJqmpZo.s:3496   .text:00001754 $t
     /tmp/ccJqmpZo.s:3502   .text:00001760 HAL_RCCEx_EnableLSECSS
     /tmp/ccJqmpZo.s:3520   .text:00001774 $d
     /tmp/ccJqmpZo.s:3524   .text:00001778 $t
     /tmp/ccJqmpZo.s:3530   .text:00001780 HAL_RCCEx_DisableLSECSS
     /tmp/ccJqmpZo.s:3554   .text:000017a0 $d
     /tmp/ccJqmpZo.s:3558   .text:000017a4 $t
     /tmp/ccJqmpZo.s:3564   .text:000017b0 HAL_RCCEx_EnableLSECSS_IT
     /tmp/ccJqmpZo.s:3600   .text:000017e8 $d
     /tmp/ccJqmpZo.s:3605   .text:000017f0 $t
     /tmp/ccJqmpZo.s:3611   .text:000017f0 HAL_RCCEx_LSECSS_IRQHandler
     /tmp/ccJqmpZo.s:3649   .text:00001810 HAL_RCCEx_LSECSS_Callback
     /tmp/ccJqmpZo.s:3639   .text:0000180c $d
     /tmp/ccJqmpZo.s:3643   .text:00001810 $t
     /tmp/ccJqmpZo.s:3667   .text:00001820 HAL_RCCEx_EnableLSCO
     /tmp/ccJqmpZo.s:3784   .text:000018e4 $d
ARM GAS  /tmp/ccJqmpZo.s 			page 156


     /tmp/ccJqmpZo.s:3789   .text:000018ec $t
     /tmp/ccJqmpZo.s:3795   .text:000018f0 HAL_RCCEx_DisableLSCO
     /tmp/ccJqmpZo.s:3878   .text:00001978 $d
     /tmp/ccJqmpZo.s:3883   .text:00001980 $t
     /tmp/ccJqmpZo.s:3889   .text:00001980 HAL_RCCEx_EnableMSIPLLMode
     /tmp/ccJqmpZo.s:3907   .text:00001990 $d
     /tmp/ccJqmpZo.s:3911   .text:00001994 $t
     /tmp/ccJqmpZo.s:3917   .text:000019a0 HAL_RCCEx_DisableMSIPLLMode
     /tmp/ccJqmpZo.s:3935   .text:000019b0 $d
     /tmp/ccJqmpZo.s:3939   .text:000019b4 $t
     /tmp/ccJqmpZo.s:4377   .text:00001c5c $d
     /tmp/ccJqmpZo.s:4381   .text:00001c60 $t
     /tmp/ccJqmpZo.s:4762   .text:00001ea4 $d
                     .debug_frame:00000010 $d
     /tmp/ccJqmpZo.s:4775   .text:00001ea8 $t

UNDEFINED SYMBOLS
HAL_GetTick
HAL_RCC_GetPCLK2Freq
HAL_RCC_GetSysClockFreq
HAL_RCC_GetPCLK1Freq
HAL_GPIO_Init
HAL_PWR_EnableBkUpAccess
HAL_PWR_DisableBkUpAccess
