ARM GAS  /tmp/ccJqmpZo.s 			page 1


   1              		.syntax unified
   2              		.cpu cortex-m4
   3              		.fpu softvfp
   4              		.eabi_attribute 20, 1
   5              		.eabi_attribute 21, 1
   6              		.eabi_attribute 23, 3
   7              		.eabi_attribute 24, 1
   8              		.eabi_attribute 25, 1
   9              		.eabi_attribute 26, 1
  10              		.eabi_attribute 30, 6
  11              		.eabi_attribute 34, 1
  12              		.eabi_attribute 18, 4
  13              		.thumb
  14              		.file	"stm32l4xx_hal_rcc_ex.c"
  15              		.text
  16              	.Ltext0:
  17              		.cfi_sections	.debug_frame
  18              		.align	2
  19              		.p2align 4,,15
  20              		.global	HAL_RCCEx_PeriphCLKConfig
  21              		.thumb
  22              		.thumb_func
  23              		.type	HAL_RCCEx_PeriphCLKConfig, %function
  24              	HAL_RCCEx_PeriphCLKConfig:
  25              	.LFB125:
  26              		.file 1 "../../../../../Drivers/STM32L4xx_HAL_Driver/Src/stm32l4xx_hal_rcc_ex.c"
  27              		.loc 1 164 0
  28              		.cfi_startproc
  29              		@ args = 0, pretend = 0, frame = 24
  30              		@ frame_needed = 0, uses_anonymous_args = 0
  31 0000 00B5     		push	{lr}
  32              		.cfi_def_cfa_offset 4
  33              		.cfi_offset 14, -4
  34 0002 87B0     		sub	sp, sp, #28
  35              		.cfi_def_cfa_offset 32
  36 0004 0190     		str	r0, [sp, #4]
  37              		.loc 1 165 0
  38 0006 0023     		movs	r3, #0
  39 0008 0593     		str	r3, [sp, #20]
  40              		.loc 1 166 0
  41 000a 0023     		movs	r3, #0
  42 000c 0393     		str	r3, [sp, #12]
  43              		.loc 1 167 0
  44 000e 0023     		movs	r3, #0
  45 0010 8DF81330 		strb	r3, [sp, #19]
  46              		.loc 1 168 0
  47 0014 0023     		movs	r3, #0
  48 0016 8DF81230 		strb	r3, [sp, #18]
  49              		.loc 1 174 0
  50 001a 019B     		ldr	r3, [sp, #4]
  51 001c 1B68     		ldr	r3, [r3]
  52 001e 03F40063 		and	r3, r3, #2048
  53 0022 002B     		cmp	r3, #0
  54 0024 45D0     		beq	.L2
  55              		.loc 1 179 0
  56 0026 019B     		ldr	r3, [sp, #4]
  57 0028 5B6E     		ldr	r3, [r3, #100]
ARM GAS  /tmp/ccJqmpZo.s 			page 2


  58 002a B3F5800F 		cmp	r3, #4194304
  59 002e 1DD0     		beq	.L4
  60 0030 B3F5800F 		cmp	r3, #4194304
  61 0034 02D8     		bhi	.L5
  62 0036 002B     		cmp	r3, #0
  63 0038 0ED0     		beq	.L6
  64 003a 21E0     		b	.L3
  65              	.L5:
  66 003c B3F5000F 		cmp	r3, #8388608
  67 0040 03D0     		beq	.L7
  68 0042 B3F5400F 		cmp	r3, #12582912
  69 0046 1FD0     		beq	.L56
  70 0048 1AE0     		b	.L3
  71              	.L7:
  72              		.loc 1 184 0
  73 004a 8D4B     		ldr	r3, .L58
  74 004c 8C4A     		ldr	r2, .L58
  75 004e D268     		ldr	r2, [r2, #12]
  76 0050 42F48032 		orr	r2, r2, #65536
  77 0054 DA60     		str	r2, [r3, #12]
  78              		.loc 1 189 0
  79 0056 18E0     		b	.L9
  80              	.L6:
  81              		.loc 1 193 0
  82 0058 019B     		ldr	r3, [sp, #4]
  83 005a 0433     		adds	r3, r3, #4
  84 005c 1846     		mov	r0, r3
  85 005e 0021     		movs	r1, #0
  86 0060 01F0AEFC 		bl	RCCEx_PLLSAI1_Config
  87 0064 0346     		mov	r3, r0
  88 0066 8DF81330 		strb	r3, [sp, #19]
  89              		.loc 1 195 0
  90 006a 0EE0     		b	.L9
  91              	.L4:
  92              		.loc 1 201 0
  93 006c 019B     		ldr	r3, [sp, #4]
  94 006e 2033     		adds	r3, r3, #32
  95 0070 1846     		mov	r0, r3
  96 0072 0021     		movs	r1, #0
  97 0074 01F0F4FD 		bl	RCCEx_PLLSAI2_Config
  98 0078 0346     		mov	r3, r0
  99 007a 8DF81330 		strb	r3, [sp, #19]
 100              		.loc 1 203 0
 101 007e 04E0     		b	.L9
 102              	.L3:
 103              		.loc 1 212 0
 104 0080 0123     		movs	r3, #1
 105 0082 8DF81330 		strb	r3, [sp, #19]
 106              		.loc 1 213 0
 107 0086 00E0     		b	.L9
 108              	.L56:
 109              		.loc 1 209 0
 110 0088 00BF     		nop
 111              	.L9:
 112              		.loc 1 216 0
 113 008a 9DF81330 		ldrb	r3, [sp, #19]	@ zero_extendqisi2
 114 008e 002B     		cmp	r3, #0
ARM GAS  /tmp/ccJqmpZo.s 			page 3


 115 0090 0BD1     		bne	.L10
 116              		.loc 1 219 0
 117 0092 7B4B     		ldr	r3, .L58
 118 0094 7A4A     		ldr	r2, .L58
 119 0096 D2F88820 		ldr	r2, [r2, #136]
 120 009a 22F44001 		bic	r1, r2, #12582912
 121 009e 019A     		ldr	r2, [sp, #4]
 122 00a0 526E     		ldr	r2, [r2, #100]
 123 00a2 0A43     		orrs	r2, r2, r1
 124 00a4 C3F88820 		str	r2, [r3, #136]
 125 00a8 03E0     		b	.L2
 126              	.L10:
 127              		.loc 1 224 0
 128 00aa 9DF81330 		ldrb	r3, [sp, #19]
 129 00ae 8DF81230 		strb	r3, [sp, #18]
 130              	.L2:
 131              		.loc 1 231 0
 132 00b2 019B     		ldr	r3, [sp, #4]
 133 00b4 1B68     		ldr	r3, [r3]
 134 00b6 03F48053 		and	r3, r3, #4096
 135 00ba 002B     		cmp	r3, #0
 136 00bc 45D0     		beq	.L11
 137              		.loc 1 236 0
 138 00be 019B     		ldr	r3, [sp, #4]
 139 00c0 9B6E     		ldr	r3, [r3, #104]
 140 00c2 B3F1807F 		cmp	r3, #16777216
 141 00c6 1DD0     		beq	.L13
 142 00c8 B3F1807F 		cmp	r3, #16777216
 143 00cc 02D8     		bhi	.L14
 144 00ce 002B     		cmp	r3, #0
 145 00d0 0ED0     		beq	.L15
 146 00d2 21E0     		b	.L12
 147              	.L14:
 148 00d4 B3F1007F 		cmp	r3, #33554432
 149 00d8 03D0     		beq	.L16
 150 00da B3F1407F 		cmp	r3, #50331648
 151 00de 1FD0     		beq	.L57
 152 00e0 1AE0     		b	.L12
 153              	.L16:
 154              		.loc 1 240 0
 155 00e2 674B     		ldr	r3, .L58
 156 00e4 664A     		ldr	r2, .L58
 157 00e6 D268     		ldr	r2, [r2, #12]
 158 00e8 42F48032 		orr	r2, r2, #65536
 159 00ec DA60     		str	r2, [r3, #12]
 160              		.loc 1 242 0
 161 00ee 18E0     		b	.L18
 162              	.L15:
 163              		.loc 1 246 0
 164 00f0 019B     		ldr	r3, [sp, #4]
 165 00f2 0433     		adds	r3, r3, #4
 166 00f4 1846     		mov	r0, r3
 167 00f6 0021     		movs	r1, #0
 168 00f8 01F062FC 		bl	RCCEx_PLLSAI1_Config
 169 00fc 0346     		mov	r3, r0
 170 00fe 8DF81330 		strb	r3, [sp, #19]
 171              		.loc 1 248 0
ARM GAS  /tmp/ccJqmpZo.s 			page 4


 172 0102 0EE0     		b	.L18
 173              	.L13:
 174              		.loc 1 252 0
 175 0104 019B     		ldr	r3, [sp, #4]
 176 0106 2033     		adds	r3, r3, #32
 177 0108 1846     		mov	r0, r3
 178 010a 0021     		movs	r1, #0
 179 010c 01F0A8FD 		bl	RCCEx_PLLSAI2_Config
 180 0110 0346     		mov	r3, r0
 181 0112 8DF81330 		strb	r3, [sp, #19]
 182              		.loc 1 254 0
 183 0116 04E0     		b	.L18
 184              	.L12:
 185              		.loc 1 261 0
 186 0118 0123     		movs	r3, #1
 187 011a 8DF81330 		strb	r3, [sp, #19]
 188              		.loc 1 262 0
 189 011e 00E0     		b	.L18
 190              	.L57:
 191              		.loc 1 258 0
 192 0120 00BF     		nop
 193              	.L18:
 194              		.loc 1 265 0
 195 0122 9DF81330 		ldrb	r3, [sp, #19]	@ zero_extendqisi2
 196 0126 002B     		cmp	r3, #0
 197 0128 0BD1     		bne	.L19
 198              		.loc 1 268 0
 199 012a 554B     		ldr	r3, .L58
 200 012c 544A     		ldr	r2, .L58
 201 012e D2F88820 		ldr	r2, [r2, #136]
 202 0132 22F04071 		bic	r1, r2, #50331648
 203 0136 019A     		ldr	r2, [sp, #4]
 204 0138 926E     		ldr	r2, [r2, #104]
 205 013a 0A43     		orrs	r2, r2, r1
 206 013c C3F88820 		str	r2, [r3, #136]
 207 0140 03E0     		b	.L11
 208              	.L19:
 209              		.loc 1 273 0
 210 0142 9DF81330 		ldrb	r3, [sp, #19]
 211 0146 8DF81230 		strb	r3, [sp, #18]
 212              	.L11:
 213              		.loc 1 279 0
 214 014a 019B     		ldr	r3, [sp, #4]
 215 014c 1B68     		ldr	r3, [r3]
 216 014e 03F40033 		and	r3, r3, #131072
 217 0152 002B     		cmp	r3, #0
 218 0154 00F0A680 		beq	.L20
 219              	.LBB86:
 220              		.loc 1 281 0
 221 0158 0023     		movs	r3, #0
 222 015a 8DF81130 		strb	r3, [sp, #17]
 223              		.loc 1 287 0
 224 015e 484B     		ldr	r3, .L58
 225 0160 9B6D     		ldr	r3, [r3, #88]
 226 0162 03F08053 		and	r3, r3, #268435456
 227 0166 002B     		cmp	r3, #0
 228 0168 0ED1     		bne	.L21
ARM GAS  /tmp/ccJqmpZo.s 			page 5


 229              	.LBB87:
 230              		.loc 1 289 0
 231 016a 454B     		ldr	r3, .L58
 232 016c 444A     		ldr	r2, .L58
 233 016e 926D     		ldr	r2, [r2, #88]
 234 0170 42F08052 		orr	r2, r2, #268435456
 235 0174 9A65     		str	r2, [r3, #88]
 236 0176 424B     		ldr	r3, .L58
 237 0178 9B6D     		ldr	r3, [r3, #88]
 238 017a 03F08053 		and	r3, r3, #268435456
 239 017e 0293     		str	r3, [sp, #8]
 240 0180 029B     		ldr	r3, [sp, #8]
 241              	.LBE87:
 242              		.loc 1 290 0
 243 0182 0123     		movs	r3, #1
 244 0184 8DF81130 		strb	r3, [sp, #17]
 245              	.L21:
 246              		.loc 1 294 0
 247 0188 3E4B     		ldr	r3, .L58+4
 248 018a 3E4A     		ldr	r2, .L58+4
 249 018c 1268     		ldr	r2, [r2]
 250 018e 42F48072 		orr	r2, r2, #256
 251 0192 1A60     		str	r2, [r3]
 252              		.loc 1 297 0
 253 0194 FFF7FEFF 		bl	HAL_GetTick
 254 0198 0390     		str	r0, [sp, #12]
 255              		.loc 1 299 0
 256 019a 0AE0     		b	.L22
 257              	.L24:
 258              		.loc 1 301 0
 259 019c FFF7FEFF 		bl	HAL_GetTick
 260 01a0 0246     		mov	r2, r0
 261 01a2 039B     		ldr	r3, [sp, #12]
 262 01a4 D31A     		subs	r3, r2, r3
 263 01a6 022B     		cmp	r3, #2
 264 01a8 03D9     		bls	.L22
 265              		.loc 1 303 0
 266 01aa 0323     		movs	r3, #3
 267 01ac 8DF81330 		strb	r3, [sp, #19]
 268              		.loc 1 304 0
 269 01b0 05E0     		b	.L23
 270              	.L22:
 271              		.loc 1 299 0 discriminator 1
 272 01b2 344B     		ldr	r3, .L58+4
 273 01b4 1B68     		ldr	r3, [r3]
 274 01b6 03F48073 		and	r3, r3, #256
 275 01ba 002B     		cmp	r3, #0
 276 01bc EED0     		beq	.L24
 277              	.L23:
 278              		.loc 1 308 0
 279 01be 9DF81330 		ldrb	r3, [sp, #19]	@ zero_extendqisi2
 280 01c2 002B     		cmp	r3, #0
 281 01c4 60D1     		bne	.L25
 282              		.loc 1 311 0
 283 01c6 2E4B     		ldr	r3, .L58
 284 01c8 D3F89030 		ldr	r3, [r3, #144]
 285 01cc 03F44073 		and	r3, r3, #768
ARM GAS  /tmp/ccJqmpZo.s 			page 6


 286 01d0 0593     		str	r3, [sp, #20]
 287              		.loc 1 313 0
 288 01d2 059B     		ldr	r3, [sp, #20]
 289 01d4 002B     		cmp	r3, #0
 290 01d6 1FD0     		beq	.L26
 291              		.loc 1 313 0 is_stmt 0 discriminator 1
 292 01d8 019B     		ldr	r3, [sp, #4]
 293 01da D3F88420 		ldr	r2, [r3, #132]
 294 01de 059B     		ldr	r3, [sp, #20]
 295 01e0 9A42     		cmp	r2, r3
 296 01e2 19D0     		beq	.L26
 297              		.loc 1 316 0 is_stmt 1
 298 01e4 264B     		ldr	r3, .L58
 299 01e6 D3F89030 		ldr	r3, [r3, #144]
 300 01ea 23F44073 		bic	r3, r3, #768
 301 01ee 0593     		str	r3, [sp, #20]
 302              		.loc 1 318 0
 303 01f0 234B     		ldr	r3, .L58
 304 01f2 234A     		ldr	r2, .L58
 305 01f4 D2F89020 		ldr	r2, [r2, #144]
 306 01f8 42F48032 		orr	r2, r2, #65536
 307 01fc C3F89020 		str	r2, [r3, #144]
 308              		.loc 1 319 0
 309 0200 1F4B     		ldr	r3, .L58
 310 0202 1F4A     		ldr	r2, .L58
 311 0204 D2F89020 		ldr	r2, [r2, #144]
 312 0208 22F48032 		bic	r2, r2, #65536
 313 020c C3F89020 		str	r2, [r3, #144]
 314              		.loc 1 321 0
 315 0210 1B4B     		ldr	r3, .L58
 316 0212 059A     		ldr	r2, [sp, #20]
 317 0214 C3F89020 		str	r2, [r3, #144]
 318              	.L26:
 319              		.loc 1 325 0
 320 0218 059B     		ldr	r3, [sp, #20]
 321 021a 03F00103 		and	r3, r3, #1
 322 021e 002B     		cmp	r3, #0
 323 0220 17D0     		beq	.L27
 324              		.loc 1 328 0
 325 0222 FFF7FEFF 		bl	HAL_GetTick
 326 0226 0390     		str	r0, [sp, #12]
 327              		.loc 1 331 0
 328 0228 0CE0     		b	.L28
 329              	.L29:
 330              		.loc 1 333 0
 331 022a FFF7FEFF 		bl	HAL_GetTick
 332 022e 0246     		mov	r2, r0
 333 0230 039B     		ldr	r3, [sp, #12]
 334 0232 D21A     		subs	r2, r2, r3
 335 0234 41F28833 		movw	r3, #5000
 336 0238 9A42     		cmp	r2, r3
 337 023a 03D9     		bls	.L28
 338              		.loc 1 335 0
 339 023c 0323     		movs	r3, #3
 340 023e 8DF81330 		strb	r3, [sp, #19]
 341              		.loc 1 336 0
 342 0242 06E0     		b	.L27
ARM GAS  /tmp/ccJqmpZo.s 			page 7


 343              	.L28:
 344              		.loc 1 331 0 discriminator 1
 345 0244 0E4B     		ldr	r3, .L58
 346 0246 D3F89030 		ldr	r3, [r3, #144]
 347 024a 03F00203 		and	r3, r3, #2
 348 024e 002B     		cmp	r3, #0
 349 0250 EBD0     		beq	.L29
 350              	.L27:
 351              		.loc 1 341 0
 352 0252 9DF81330 		ldrb	r3, [sp, #19]	@ zero_extendqisi2
 353 0256 002B     		cmp	r3, #0
 354 0258 0CD1     		bne	.L30
 355              		.loc 1 344 0
 356 025a 094B     		ldr	r3, .L58
 357 025c 084A     		ldr	r2, .L58
 358 025e D2F89020 		ldr	r2, [r2, #144]
 359 0262 22F44071 		bic	r1, r2, #768
 360 0266 019A     		ldr	r2, [sp, #4]
 361 0268 D2F88420 		ldr	r2, [r2, #132]
 362 026c 0A43     		orrs	r2, r2, r1
 363 026e C3F89020 		str	r2, [r3, #144]
 364 0272 0DE0     		b	.L32
 365              	.L30:
 366              		.loc 1 349 0
 367 0274 9DF81330 		ldrb	r3, [sp, #19]
 368 0278 8DF81230 		strb	r3, [sp, #18]
 369 027c 08E0     		b	.L32
 370              	.L59:
 371 027e 00BF     		.align	2
 372              	.L58:
 373 0280 00100240 		.word	1073876992
 374 0284 00700040 		.word	1073770496
 375              	.L25:
 376              		.loc 1 355 0
 377 0288 9DF81330 		ldrb	r3, [sp, #19]
 378 028c 8DF81230 		strb	r3, [sp, #18]
 379              	.L32:
 380              		.loc 1 359 0
 381 0290 9DF81130 		ldrb	r3, [sp, #17]	@ zero_extendqisi2
 382 0294 012B     		cmp	r3, #1
 383 0296 05D1     		bne	.L20
 384              		.loc 1 361 0
 385 0298 A14B     		ldr	r3, .L60
 386 029a A14A     		ldr	r2, .L60
 387 029c 926D     		ldr	r2, [r2, #88]
 388 029e 22F08052 		bic	r2, r2, #268435456
 389 02a2 9A65     		str	r2, [r3, #88]
 390              	.L20:
 391              	.LBE86:
 392              		.loc 1 366 0
 393 02a4 019B     		ldr	r3, [sp, #4]
 394 02a6 1B68     		ldr	r3, [r3]
 395 02a8 03F00103 		and	r3, r3, #1
 396 02ac 002B     		cmp	r3, #0
 397 02ae 0AD0     		beq	.L33
 398              		.loc 1 372 0
 399 02b0 9B4B     		ldr	r3, .L60
ARM GAS  /tmp/ccJqmpZo.s 			page 8


 400 02b2 9B4A     		ldr	r2, .L60
 401 02b4 D2F88820 		ldr	r2, [r2, #136]
 402 02b8 22F00301 		bic	r1, r2, #3
 403 02bc 019A     		ldr	r2, [sp, #4]
 404 02be 926B     		ldr	r2, [r2, #56]
 405 02c0 0A43     		orrs	r2, r2, r1
 406 02c2 C3F88820 		str	r2, [r3, #136]
 407              	.L33:
 408              		.loc 1 376 0
 409 02c6 019B     		ldr	r3, [sp, #4]
 410 02c8 1B68     		ldr	r3, [r3]
 411 02ca 03F00203 		and	r3, r3, #2
 412 02ce 002B     		cmp	r3, #0
 413 02d0 0AD0     		beq	.L34
 414              		.loc 1 382 0
 415 02d2 934B     		ldr	r3, .L60
 416 02d4 924A     		ldr	r2, .L60
 417 02d6 D2F88820 		ldr	r2, [r2, #136]
 418 02da 22F00C01 		bic	r1, r2, #12
 419 02de 019A     		ldr	r2, [sp, #4]
 420 02e0 D26B     		ldr	r2, [r2, #60]
 421 02e2 0A43     		orrs	r2, r2, r1
 422 02e4 C3F88820 		str	r2, [r3, #136]
 423              	.L34:
 424              		.loc 1 388 0
 425 02e8 019B     		ldr	r3, [sp, #4]
 426 02ea 1B68     		ldr	r3, [r3]
 427 02ec 03F00403 		and	r3, r3, #4
 428 02f0 002B     		cmp	r3, #0
 429 02f2 0AD0     		beq	.L35
 430              		.loc 1 394 0
 431 02f4 8A4B     		ldr	r3, .L60
 432 02f6 8A4A     		ldr	r2, .L60
 433 02f8 D2F88820 		ldr	r2, [r2, #136]
 434 02fc 22F03001 		bic	r1, r2, #48
 435 0300 019A     		ldr	r2, [sp, #4]
 436 0302 126C     		ldr	r2, [r2, #64]
 437 0304 0A43     		orrs	r2, r2, r1
 438 0306 C3F88820 		str	r2, [r3, #136]
 439              	.L35:
 440              		.loc 1 402 0
 441 030a 019B     		ldr	r3, [sp, #4]
 442 030c 1B68     		ldr	r3, [r3]
 443 030e 03F00803 		and	r3, r3, #8
 444 0312 002B     		cmp	r3, #0
 445 0314 0AD0     		beq	.L36
 446              		.loc 1 408 0
 447 0316 824B     		ldr	r3, .L60
 448 0318 814A     		ldr	r2, .L60
 449 031a D2F88820 		ldr	r2, [r2, #136]
 450 031e 22F0C001 		bic	r1, r2, #192
 451 0322 019A     		ldr	r2, [sp, #4]
 452 0324 526C     		ldr	r2, [r2, #68]
 453 0326 0A43     		orrs	r2, r2, r1
 454 0328 C3F88820 		str	r2, [r3, #136]
 455              	.L36:
 456              		.loc 1 416 0
ARM GAS  /tmp/ccJqmpZo.s 			page 9


 457 032c 019B     		ldr	r3, [sp, #4]
 458 032e 1B68     		ldr	r3, [r3]
 459 0330 03F01003 		and	r3, r3, #16
 460 0334 002B     		cmp	r3, #0
 461 0336 0AD0     		beq	.L37
 462              		.loc 1 422 0
 463 0338 794B     		ldr	r3, .L60
 464 033a 794A     		ldr	r2, .L60
 465 033c D2F88820 		ldr	r2, [r2, #136]
 466 0340 22F44071 		bic	r1, r2, #768
 467 0344 019A     		ldr	r2, [sp, #4]
 468 0346 926C     		ldr	r2, [r2, #72]
 469 0348 0A43     		orrs	r2, r2, r1
 470 034a C3F88820 		str	r2, [r3, #136]
 471              	.L37:
 472              		.loc 1 428 0
 473 034e 019B     		ldr	r3, [sp, #4]
 474 0350 1B68     		ldr	r3, [r3]
 475 0352 03F02003 		and	r3, r3, #32
 476 0356 002B     		cmp	r3, #0
 477 0358 0AD0     		beq	.L38
 478              		.loc 1 434 0
 479 035a 714B     		ldr	r3, .L60
 480 035c 704A     		ldr	r2, .L60
 481 035e D2F88820 		ldr	r2, [r2, #136]
 482 0362 22F44061 		bic	r1, r2, #3072
 483 0366 019A     		ldr	r2, [sp, #4]
 484 0368 D26C     		ldr	r2, [r2, #76]
 485 036a 0A43     		orrs	r2, r2, r1
 486 036c C3F88820 		str	r2, [r3, #136]
 487              	.L38:
 488              		.loc 1 438 0
 489 0370 019B     		ldr	r3, [sp, #4]
 490 0372 1B68     		ldr	r3, [r3]
 491 0374 03F40073 		and	r3, r3, #512
 492 0378 002B     		cmp	r3, #0
 493 037a 0AD0     		beq	.L39
 494              		.loc 1 441 0
 495 037c 684B     		ldr	r3, .L60
 496 037e 684A     		ldr	r2, .L60
 497 0380 D2F88820 		ldr	r2, [r2, #136]
 498 0384 22F44021 		bic	r1, r2, #786432
 499 0388 019A     		ldr	r2, [sp, #4]
 500 038a D26D     		ldr	r2, [r2, #92]
 501 038c 0A43     		orrs	r2, r2, r1
 502 038e C3F88820 		str	r2, [r3, #136]
 503              	.L39:
 504              		.loc 1 445 0
 505 0392 019B     		ldr	r3, [sp, #4]
 506 0394 1B68     		ldr	r3, [r3]
 507 0396 03F48063 		and	r3, r3, #1024
 508 039a 002B     		cmp	r3, #0
 509 039c 0AD0     		beq	.L40
 510              		.loc 1 448 0
 511 039e 604B     		ldr	r3, .L60
 512 03a0 5F4A     		ldr	r2, .L60
 513 03a2 D2F88820 		ldr	r2, [r2, #136]
ARM GAS  /tmp/ccJqmpZo.s 			page 10


 514 03a6 22F44011 		bic	r1, r2, #3145728
 515 03aa 019A     		ldr	r2, [sp, #4]
 516 03ac 126E     		ldr	r2, [r2, #96]
 517 03ae 0A43     		orrs	r2, r2, r1
 518 03b0 C3F88820 		str	r2, [r3, #136]
 519              	.L40:
 520              		.loc 1 452 0
 521 03b4 019B     		ldr	r3, [sp, #4]
 522 03b6 1B68     		ldr	r3, [r3]
 523 03b8 03F04003 		and	r3, r3, #64
 524 03bc 002B     		cmp	r3, #0
 525 03be 0AD0     		beq	.L41
 526              		.loc 1 458 0
 527 03c0 574B     		ldr	r3, .L60
 528 03c2 574A     		ldr	r2, .L60
 529 03c4 D2F88820 		ldr	r2, [r2, #136]
 530 03c8 22F44051 		bic	r1, r2, #12288
 531 03cc 019A     		ldr	r2, [sp, #4]
 532 03ce 126D     		ldr	r2, [r2, #80]
 533 03d0 0A43     		orrs	r2, r2, r1
 534 03d2 C3F88820 		str	r2, [r3, #136]
 535              	.L41:
 536              		.loc 1 464 0
 537 03d6 019B     		ldr	r3, [sp, #4]
 538 03d8 1B68     		ldr	r3, [r3]
 539 03da 03F08003 		and	r3, r3, #128
 540 03de 002B     		cmp	r3, #0
 541 03e0 0AD0     		beq	.L42
 542              		.loc 1 470 0
 543 03e2 4F4B     		ldr	r3, .L60
 544 03e4 4E4A     		ldr	r2, .L60
 545 03e6 D2F88820 		ldr	r2, [r2, #136]
 546 03ea 22F44041 		bic	r1, r2, #49152
 547 03ee 019A     		ldr	r2, [sp, #4]
 548 03f0 526D     		ldr	r2, [r2, #84]
 549 03f2 0A43     		orrs	r2, r2, r1
 550 03f4 C3F88820 		str	r2, [r3, #136]
 551              	.L42:
 552              		.loc 1 476 0
 553 03f8 019B     		ldr	r3, [sp, #4]
 554 03fa 1B68     		ldr	r3, [r3]
 555 03fc 03F48073 		and	r3, r3, #256
 556 0400 002B     		cmp	r3, #0
 557 0402 0AD0     		beq	.L43
 558              		.loc 1 482 0
 559 0404 464B     		ldr	r3, .L60
 560 0406 464A     		ldr	r2, .L60
 561 0408 D2F88820 		ldr	r2, [r2, #136]
 562 040c 22F44031 		bic	r1, r2, #196608
 563 0410 019A     		ldr	r2, [sp, #4]
 564 0412 926D     		ldr	r2, [r2, #88]
 565 0414 0A43     		orrs	r2, r2, r1
 566 0416 C3F88820 		str	r2, [r3, #136]
 567              	.L43:
 568              		.loc 1 488 0
 569 041a 019B     		ldr	r3, [sp, #4]
 570 041c 1B68     		ldr	r3, [r3]
ARM GAS  /tmp/ccJqmpZo.s 			page 11


 571 041e 03F40053 		and	r3, r3, #8192
 572 0422 002B     		cmp	r3, #0
 573 0424 2CD0     		beq	.L44
 574              		.loc 1 491 0
 575 0426 3E4B     		ldr	r3, .L60
 576 0428 3D4A     		ldr	r2, .L60
 577 042a D2F88820 		ldr	r2, [r2, #136]
 578 042e 22F04061 		bic	r1, r2, #201326592
 579 0432 019A     		ldr	r2, [sp, #4]
 580 0434 D26E     		ldr	r2, [r2, #108]
 581 0436 0A43     		orrs	r2, r2, r1
 582 0438 C3F88820 		str	r2, [r3, #136]
 583              		.loc 1 493 0
 584 043c 019B     		ldr	r3, [sp, #4]
 585 043e DB6E     		ldr	r3, [r3, #108]
 586 0440 B3F1006F 		cmp	r3, #134217728
 587 0444 06D1     		bne	.L45
 588              		.loc 1 496 0
 589 0446 364B     		ldr	r3, .L60
 590 0448 354A     		ldr	r2, .L60
 591 044a D268     		ldr	r2, [r2, #12]
 592 044c 42F48012 		orr	r2, r2, #1048576
 593 0450 DA60     		str	r2, [r3, #12]
 594 0452 15E0     		b	.L44
 595              	.L45:
 596              		.loc 1 498 0
 597 0454 019B     		ldr	r3, [sp, #4]
 598 0456 DB6E     		ldr	r3, [r3, #108]
 599 0458 B3F1806F 		cmp	r3, #67108864
 600 045c 10D1     		bne	.L44
 601              		.loc 1 501 0
 602 045e 019B     		ldr	r3, [sp, #4]
 603 0460 0433     		adds	r3, r3, #4
 604 0462 1846     		mov	r0, r3
 605 0464 0121     		movs	r1, #1
 606 0466 01F0ABFA 		bl	RCCEx_PLLSAI1_Config
 607 046a 0346     		mov	r3, r0
 608 046c 8DF81330 		strb	r3, [sp, #19]
 609              		.loc 1 503 0
 610 0470 9DF81330 		ldrb	r3, [sp, #19]	@ zero_extendqisi2
 611 0474 002B     		cmp	r3, #0
 612 0476 03D0     		beq	.L44
 613              		.loc 1 506 0
 614 0478 9DF81330 		ldrb	r3, [sp, #19]
 615 047c 8DF81230 		strb	r3, [sp, #18]
 616              	.L44:
 617              		.loc 1 516 0
 618 0480 019B     		ldr	r3, [sp, #4]
 619 0482 1B68     		ldr	r3, [r3]
 620 0484 03F40023 		and	r3, r3, #524288
 621 0488 002B     		cmp	r3, #0
 622 048a 2CD0     		beq	.L46
 623              		.loc 1 519 0
 624 048c 244B     		ldr	r3, .L60
 625 048e 244A     		ldr	r2, .L60
 626 0490 D2F88820 		ldr	r2, [r2, #136]
 627 0494 22F04061 		bic	r1, r2, #201326592
ARM GAS  /tmp/ccJqmpZo.s 			page 12


 628 0498 019A     		ldr	r2, [sp, #4]
 629 049a 126F     		ldr	r2, [r2, #112]
 630 049c 0A43     		orrs	r2, r2, r1
 631 049e C3F88820 		str	r2, [r3, #136]
 632              		.loc 1 521 0
 633 04a2 019B     		ldr	r3, [sp, #4]
 634 04a4 1B6F     		ldr	r3, [r3, #112]
 635 04a6 B3F1006F 		cmp	r3, #134217728
 636 04aa 06D1     		bne	.L47
 637              		.loc 1 524 0
 638 04ac 1C4B     		ldr	r3, .L60
 639 04ae 1C4A     		ldr	r2, .L60
 640 04b0 D268     		ldr	r2, [r2, #12]
 641 04b2 42F48012 		orr	r2, r2, #1048576
 642 04b6 DA60     		str	r2, [r3, #12]
 643 04b8 15E0     		b	.L46
 644              	.L47:
 645              		.loc 1 526 0
 646 04ba 019B     		ldr	r3, [sp, #4]
 647 04bc 1B6F     		ldr	r3, [r3, #112]
 648 04be B3F1806F 		cmp	r3, #67108864
 649 04c2 10D1     		bne	.L46
 650              		.loc 1 529 0
 651 04c4 019B     		ldr	r3, [sp, #4]
 652 04c6 0433     		adds	r3, r3, #4
 653 04c8 1846     		mov	r0, r3
 654 04ca 0121     		movs	r1, #1
 655 04cc 01F078FA 		bl	RCCEx_PLLSAI1_Config
 656 04d0 0346     		mov	r3, r0
 657 04d2 8DF81330 		strb	r3, [sp, #19]
 658              		.loc 1 531 0
 659 04d6 9DF81330 		ldrb	r3, [sp, #19]	@ zero_extendqisi2
 660 04da 002B     		cmp	r3, #0
 661 04dc 03D0     		beq	.L46
 662              		.loc 1 534 0
 663 04de 9DF81330 		ldrb	r3, [sp, #19]
 664 04e2 8DF81230 		strb	r3, [sp, #18]
 665              	.L46:
 666              		.loc 1 542 0
 667 04e6 019B     		ldr	r3, [sp, #4]
 668 04e8 1B68     		ldr	r3, [r3]
 669 04ea 03F48023 		and	r3, r3, #262144
 670 04ee 002B     		cmp	r3, #0
 671 04f0 2ED0     		beq	.L48
 672              		.loc 1 545 0
 673 04f2 0B4B     		ldr	r3, .L60
 674 04f4 0A4A     		ldr	r2, .L60
 675 04f6 D2F88820 		ldr	r2, [r2, #136]
 676 04fa 22F04061 		bic	r1, r2, #201326592
 677 04fe 019A     		ldr	r2, [sp, #4]
 678 0500 526F     		ldr	r2, [r2, #116]
 679 0502 0A43     		orrs	r2, r2, r1
 680 0504 C3F88820 		str	r2, [r3, #136]
 681              		.loc 1 547 0
 682 0508 019B     		ldr	r3, [sp, #4]
 683 050a 5B6F     		ldr	r3, [r3, #116]
 684 050c B3F1006F 		cmp	r3, #134217728
ARM GAS  /tmp/ccJqmpZo.s 			page 13


 685 0510 08D1     		bne	.L49
 686              		.loc 1 550 0
 687 0512 034B     		ldr	r3, .L60
 688 0514 024A     		ldr	r2, .L60
 689 0516 D268     		ldr	r2, [r2, #12]
 690 0518 42F48012 		orr	r2, r2, #1048576
 691 051c DA60     		str	r2, [r3, #12]
 692 051e 17E0     		b	.L48
 693              	.L61:
 694              		.align	2
 695              	.L60:
 696 0520 00100240 		.word	1073876992
 697              	.L49:
 698              		.loc 1 552 0
 699 0524 019B     		ldr	r3, [sp, #4]
 700 0526 5B6F     		ldr	r3, [r3, #116]
 701 0528 B3F1806F 		cmp	r3, #67108864
 702 052c 10D1     		bne	.L48
 703              		.loc 1 555 0
 704 052e 019B     		ldr	r3, [sp, #4]
 705 0530 0433     		adds	r3, r3, #4
 706 0532 1846     		mov	r0, r3
 707 0534 0121     		movs	r1, #1
 708 0536 01F043FA 		bl	RCCEx_PLLSAI1_Config
 709 053a 0346     		mov	r3, r0
 710 053c 8DF81330 		strb	r3, [sp, #19]
 711              		.loc 1 557 0
 712 0540 9DF81330 		ldrb	r3, [sp, #19]	@ zero_extendqisi2
 713 0544 002B     		cmp	r3, #0
 714 0546 03D0     		beq	.L48
 715              		.loc 1 560 0
 716 0548 9DF81330 		ldrb	r3, [sp, #19]
 717 054c 8DF81230 		strb	r3, [sp, #18]
 718              	.L48:
 719              		.loc 1 566 0
 720 0550 019B     		ldr	r3, [sp, #4]
 721 0552 1B68     		ldr	r3, [r3]
 722 0554 03F48043 		and	r3, r3, #16384
 723 0558 002B     		cmp	r3, #0
 724 055a 37D0     		beq	.L50
 725              		.loc 1 572 0
 726 055c 304B     		ldr	r3, .L62
 727 055e 304A     		ldr	r2, .L62
 728 0560 D2F88820 		ldr	r2, [r2, #136]
 729 0564 22F04051 		bic	r1, r2, #805306368
 730 0568 019A     		ldr	r2, [sp, #4]
 731 056a 926F     		ldr	r2, [r2, #120]
 732 056c 0A43     		orrs	r2, r2, r1
 733 056e C3F88820 		str	r2, [r3, #136]
 734              		.loc 1 574 0
 735 0572 019B     		ldr	r3, [sp, #4]
 736 0574 9B6F     		ldr	r3, [r3, #120]
 737 0576 B3F1805F 		cmp	r3, #268435456
 738 057a 11D1     		bne	.L51
 739              		.loc 1 577 0
 740 057c 019B     		ldr	r3, [sp, #4]
 741 057e 0433     		adds	r3, r3, #4
ARM GAS  /tmp/ccJqmpZo.s 			page 14


 742 0580 1846     		mov	r0, r3
 743 0582 0221     		movs	r1, #2
 744 0584 01F01CFA 		bl	RCCEx_PLLSAI1_Config
 745 0588 0346     		mov	r3, r0
 746 058a 8DF81330 		strb	r3, [sp, #19]
 747              		.loc 1 579 0
 748 058e 9DF81330 		ldrb	r3, [sp, #19]	@ zero_extendqisi2
 749 0592 002B     		cmp	r3, #0
 750 0594 1AD0     		beq	.L50
 751              		.loc 1 582 0
 752 0596 9DF81330 		ldrb	r3, [sp, #19]
 753 059a 8DF81230 		strb	r3, [sp, #18]
 754 059e 15E0     		b	.L50
 755              	.L51:
 756              		.loc 1 588 0
 757 05a0 019B     		ldr	r3, [sp, #4]
 758 05a2 9B6F     		ldr	r3, [r3, #120]
 759 05a4 B3F1005F 		cmp	r3, #536870912
 760 05a8 10D1     		bne	.L50
 761              		.loc 1 591 0
 762 05aa 019B     		ldr	r3, [sp, #4]
 763 05ac 2033     		adds	r3, r3, #32
 764 05ae 1846     		mov	r0, r3
 765 05b0 0221     		movs	r1, #2
 766 05b2 01F055FB 		bl	RCCEx_PLLSAI2_Config
 767 05b6 0346     		mov	r3, r0
 768 05b8 8DF81330 		strb	r3, [sp, #19]
 769              		.loc 1 593 0
 770 05bc 9DF81330 		ldrb	r3, [sp, #19]	@ zero_extendqisi2
 771 05c0 002B     		cmp	r3, #0
 772 05c2 03D0     		beq	.L50
 773              		.loc 1 596 0
 774 05c4 9DF81330 		ldrb	r3, [sp, #19]
 775 05c8 8DF81230 		strb	r3, [sp, #18]
 776              	.L50:
 777              		.loc 1 607 0
 778 05cc 019B     		ldr	r3, [sp, #4]
 779 05ce 1B68     		ldr	r3, [r3]
 780 05d0 03F40043 		and	r3, r3, #32768
 781 05d4 002B     		cmp	r3, #0
 782 05d6 0AD0     		beq	.L53
 783              		.loc 1 613 0
 784 05d8 114B     		ldr	r3, .L62
 785 05da 114A     		ldr	r2, .L62
 786 05dc D2F88820 		ldr	r2, [r2, #136]
 787 05e0 22F08041 		bic	r1, r2, #1073741824
 788 05e4 019A     		ldr	r2, [sp, #4]
 789 05e6 D26F     		ldr	r2, [r2, #124]
 790 05e8 0A43     		orrs	r2, r2, r1
 791 05ea C3F88820 		str	r2, [r3, #136]
 792              	.L53:
 793              		.loc 1 621 0
 794 05ee 019B     		ldr	r3, [sp, #4]
 795 05f0 1B68     		ldr	r3, [r3]
 796 05f2 03F48033 		and	r3, r3, #65536
 797 05f6 002B     		cmp	r3, #0
 798 05f8 0BD0     		beq	.L54
ARM GAS  /tmp/ccJqmpZo.s 			page 15


 799              		.loc 1 627 0
 800 05fa 094B     		ldr	r3, .L62
 801 05fc 084A     		ldr	r2, .L62
 802 05fe D2F88820 		ldr	r2, [r2, #136]
 803 0602 22F00041 		bic	r1, r2, #-2147483648
 804 0606 019A     		ldr	r2, [sp, #4]
 805 0608 D2F88020 		ldr	r2, [r2, #128]
 806 060c 0A43     		orrs	r2, r2, r1
 807 060e C3F88820 		str	r2, [r3, #136]
 808              	.L54:
 809              		.loc 1 632 0
 810 0612 9DF81230 		ldrb	r3, [sp, #18]	@ zero_extendqisi2
 811              		.loc 1 633 0
 812 0616 1846     		mov	r0, r3
 813 0618 07B0     		add	sp, sp, #28
 814              		@ sp needed
 815 061a 5DF804FB 		ldr	pc, [sp], #4
 816              	.L63:
 817 061e 00BF     		.align	2
 818              	.L62:
 819 0620 00100240 		.word	1073876992
 820              		.cfi_endproc
 821              	.LFE125:
 822              		.size	HAL_RCCEx_PeriphCLKConfig, .-HAL_RCCEx_PeriphCLKConfig
 823              		.align	2
 824 0624 AFF30080 		.p2align 4,,15
 824      AFF30080 
 824      AFF30080 
 825              		.global	HAL_RCCEx_GetPeriphCLKConfig
 826              		.thumb
 827              		.thumb_func
 828              		.type	HAL_RCCEx_GetPeriphCLKConfig, %function
 829              	HAL_RCCEx_GetPeriphCLKConfig:
 830              	.LFB126:
 831              		.loc 1 644 0
 832              		.cfi_startproc
 833              		@ args = 0, pretend = 0, frame = 80
 834              		@ frame_needed = 0, uses_anonymous_args = 0
 835              		@ link register save eliminated.
 836 0630 94B0     		sub	sp, sp, #80
 837              		.cfi_def_cfa_offset 80
 838 0632 0190     		str	r0, [sp, #4]
 839              		.loc 1 680 0
 840 0634 019B     		ldr	r3, [sp, #4]
 841 0636 A14A     		ldr	r2, .L74
 842 0638 1A60     		str	r2, [r3]
 843              		.loc 1 690 0
 844 063a A14B     		ldr	r3, .L74+4
 845 063c DB68     		ldr	r3, [r3, #12]
 846 063e 03F00302 		and	r2, r3, #3
 847 0642 0323     		movs	r3, #3
 848 0644 1393     		str	r3, [sp, #76]
 849              	.LBB88:
 850              	.LBB89:
 851              		.file 2 "../../../../../../ChibiOS/os/ext/CMSIS/include/core_cmInstr.h"
 852              		.loc 2 586 0
 853 0646 139B     		ldr	r3, [sp, #76]
ARM GAS  /tmp/ccJqmpZo.s 			page 16


 854              	@ 586 "../../../../../../ChibiOS/os/ext/CMSIS/include/core_cmInstr.h" 1
 855 0648 93FAA3F3 		rbit r3, r3
 856              	@ 0 "" 2
 857              		.thumb
 858 064c 1293     		str	r3, [sp, #72]
 859              		.loc 2 599 0
 860 064e 129B     		ldr	r3, [sp, #72]
 861              	.LBE89:
 862              	.LBE88:
 863              		.loc 1 690 0
 864 0650 B3FA83F3 		clz	r3, r3
 865 0654 DA40     		lsrs	r2, r2, r3
 866 0656 019B     		ldr	r3, [sp, #4]
 867 0658 5A60     		str	r2, [r3, #4]
 868              		.loc 1 691 0
 869 065a 994B     		ldr	r3, .L74+4
 870 065c DB68     		ldr	r3, [r3, #12]
 871 065e 03F07002 		and	r2, r3, #112
 872 0662 7023     		movs	r3, #112
 873 0664 1193     		str	r3, [sp, #68]
 874              	.LBB90:
 875              	.LBB91:
 876              		.loc 2 586 0
 877 0666 119B     		ldr	r3, [sp, #68]
 878              	@ 586 "../../../../../../ChibiOS/os/ext/CMSIS/include/core_cmInstr.h" 1
 879 0668 93FAA3F3 		rbit r3, r3
 880              	@ 0 "" 2
 881              		.thumb
 882 066c 1093     		str	r3, [sp, #64]
 883              		.loc 2 599 0
 884 066e 109B     		ldr	r3, [sp, #64]
 885              	.LBE91:
 886              	.LBE90:
 887              		.loc 1 691 0
 888 0670 B3FA83F3 		clz	r3, r3
 889 0674 22FA03F3 		lsr	r3, r2, r3
 890 0678 5A1C     		adds	r2, r3, #1
 891 067a 019B     		ldr	r3, [sp, #4]
 892 067c 9A60     		str	r2, [r3, #8]
 893              		.loc 1 692 0
 894 067e 904B     		ldr	r3, .L74+4
 895 0680 1B69     		ldr	r3, [r3, #16]
 896 0682 03F4FE42 		and	r2, r3, #32512
 897 0686 4FF4FE43 		mov	r3, #32512
 898 068a 0F93     		str	r3, [sp, #60]
 899              	.LBB92:
 900              	.LBB93:
 901              		.loc 2 586 0
 902 068c 0F9B     		ldr	r3, [sp, #60]
 903              	@ 586 "../../../../../../ChibiOS/os/ext/CMSIS/include/core_cmInstr.h" 1
 904 068e 93FAA3F3 		rbit r3, r3
 905              	@ 0 "" 2
 906              		.thumb
 907 0692 0E93     		str	r3, [sp, #56]
 908              		.loc 2 599 0
 909 0694 0E9B     		ldr	r3, [sp, #56]
 910              	.LBE93:
ARM GAS  /tmp/ccJqmpZo.s 			page 17


 911              	.LBE92:
 912              		.loc 1 692 0
 913 0696 B3FA83F3 		clz	r3, r3
 914 069a DA40     		lsrs	r2, r2, r3
 915 069c 019B     		ldr	r3, [sp, #4]
 916 069e DA60     		str	r2, [r3, #12]
 917              		.loc 1 693 0
 918 06a0 874B     		ldr	r3, .L74+4
 919 06a2 1B69     		ldr	r3, [r3, #16]
 920 06a4 03F40032 		and	r2, r3, #131072
 921 06a8 4FF40033 		mov	r3, #131072
 922 06ac 0D93     		str	r3, [sp, #52]
 923              	.LBB94:
 924              	.LBB95:
 925              		.loc 2 586 0
 926 06ae 0D9B     		ldr	r3, [sp, #52]
 927              	@ 586 "../../../../../../ChibiOS/os/ext/CMSIS/include/core_cmInstr.h" 1
 928 06b0 93FAA3F3 		rbit r3, r3
 929              	@ 0 "" 2
 930              		.thumb
 931 06b4 0C93     		str	r3, [sp, #48]
 932              		.loc 2 599 0
 933 06b6 0C9B     		ldr	r3, [sp, #48]
 934              	.LBE95:
 935              	.LBE94:
 936              		.loc 1 693 0
 937 06b8 B3FA83F3 		clz	r3, r3
 938 06bc 22FA03F3 		lsr	r3, r2, r3
 939 06c0 1B01     		lsls	r3, r3, #4
 940 06c2 DA1D     		adds	r2, r3, #7
 941 06c4 019B     		ldr	r3, [sp, #4]
 942 06c6 1A61     		str	r2, [r3, #16]
 943              		.loc 1 694 0
 944 06c8 7D4B     		ldr	r3, .L74+4
 945 06ca 1B69     		ldr	r3, [r3, #16]
 946 06cc 03F4C002 		and	r2, r3, #6291456
 947 06d0 4FF4C003 		mov	r3, #6291456
 948 06d4 0B93     		str	r3, [sp, #44]
 949              	.LBB96:
 950              	.LBB97:
 951              		.loc 2 586 0
 952 06d6 0B9B     		ldr	r3, [sp, #44]
 953              	@ 586 "../../../../../../ChibiOS/os/ext/CMSIS/include/core_cmInstr.h" 1
 954 06d8 93FAA3F3 		rbit r3, r3
 955              	@ 0 "" 2
 956              		.thumb
 957 06dc 0A93     		str	r3, [sp, #40]
 958              		.loc 2 599 0
 959 06de 0A9B     		ldr	r3, [sp, #40]
 960              	.LBE97:
 961              	.LBE96:
 962              		.loc 1 694 0
 963 06e0 B3FA83F3 		clz	r3, r3
 964 06e4 22FA03F3 		lsr	r3, r2, r3
 965 06e8 0133     		adds	r3, r3, #1
 966 06ea 5A00     		lsls	r2, r3, #1
 967 06ec 019B     		ldr	r3, [sp, #4]
ARM GAS  /tmp/ccJqmpZo.s 			page 18


 968 06ee 5A61     		str	r2, [r3, #20]
 969              		.loc 1 695 0
 970 06f0 734B     		ldr	r3, .L74+4
 971 06f2 1B69     		ldr	r3, [r3, #16]
 972 06f4 03F0C062 		and	r2, r3, #100663296
 973 06f8 4FF0C063 		mov	r3, #100663296
 974 06fc 0993     		str	r3, [sp, #36]
 975              	.LBB98:
 976              	.LBB99:
 977              		.loc 2 586 0
 978 06fe 099B     		ldr	r3, [sp, #36]
 979              	@ 586 "../../../../../../ChibiOS/os/ext/CMSIS/include/core_cmInstr.h" 1
 980 0700 93FAA3F3 		rbit r3, r3
 981              	@ 0 "" 2
 982              		.thumb
 983 0704 0893     		str	r3, [sp, #32]
 984              		.loc 2 599 0
 985 0706 089B     		ldr	r3, [sp, #32]
 986              	.LBE99:
 987              	.LBE98:
 988              		.loc 1 695 0
 989 0708 B3FA83F3 		clz	r3, r3
 990 070c 22FA03F3 		lsr	r3, r2, r3
 991 0710 0133     		adds	r3, r3, #1
 992 0712 5A00     		lsls	r2, r3, #1
 993 0714 019B     		ldr	r3, [sp, #4]
 994 0716 9A61     		str	r2, [r3, #24]
 995              		.loc 1 701 0
 996 0718 019B     		ldr	r3, [sp, #4]
 997 071a 5A68     		ldr	r2, [r3, #4]
 998 071c 019B     		ldr	r3, [sp, #4]
 999 071e 1A62     		str	r2, [r3, #32]
 1000              		.loc 1 702 0
 1001 0720 019B     		ldr	r3, [sp, #4]
 1002 0722 9A68     		ldr	r2, [r3, #8]
 1003 0724 019B     		ldr	r3, [sp, #4]
 1004 0726 5A62     		str	r2, [r3, #36]
 1005              		.loc 1 703 0
 1006 0728 654B     		ldr	r3, .L74+4
 1007 072a 5B69     		ldr	r3, [r3, #20]
 1008 072c 03F4FE42 		and	r2, r3, #32512
 1009 0730 4FF4FE43 		mov	r3, #32512
 1010 0734 0793     		str	r3, [sp, #28]
 1011              	.LBB100:
 1012              	.LBB101:
 1013              		.loc 2 586 0
 1014 0736 079B     		ldr	r3, [sp, #28]
 1015              	@ 586 "../../../../../../ChibiOS/os/ext/CMSIS/include/core_cmInstr.h" 1
 1016 0738 93FAA3F3 		rbit r3, r3
 1017              	@ 0 "" 2
 1018              		.thumb
 1019 073c 0693     		str	r3, [sp, #24]
 1020              		.loc 2 599 0
 1021 073e 069B     		ldr	r3, [sp, #24]
 1022              	.LBE101:
 1023              	.LBE100:
 1024              		.loc 1 703 0
ARM GAS  /tmp/ccJqmpZo.s 			page 19


 1025 0740 B3FA83F3 		clz	r3, r3
 1026 0744 DA40     		lsrs	r2, r2, r3
 1027 0746 019B     		ldr	r3, [sp, #4]
 1028 0748 9A62     		str	r2, [r3, #40]
 1029              		.loc 1 704 0
 1030 074a 5D4B     		ldr	r3, .L74+4
 1031 074c 5B69     		ldr	r3, [r3, #20]
 1032 074e 03F40032 		and	r2, r3, #131072
 1033 0752 4FF40033 		mov	r3, #131072
 1034 0756 0593     		str	r3, [sp, #20]
 1035              	.LBB102:
 1036              	.LBB103:
 1037              		.loc 2 586 0
 1038 0758 059B     		ldr	r3, [sp, #20]
 1039              	@ 586 "../../../../../../ChibiOS/os/ext/CMSIS/include/core_cmInstr.h" 1
 1040 075a 93FAA3F3 		rbit r3, r3
 1041              	@ 0 "" 2
 1042              		.thumb
 1043 075e 0493     		str	r3, [sp, #16]
 1044              		.loc 2 599 0
 1045 0760 049B     		ldr	r3, [sp, #16]
 1046              	.LBE103:
 1047              	.LBE102:
 1048              		.loc 1 704 0
 1049 0762 B3FA83F3 		clz	r3, r3
 1050 0766 22FA03F3 		lsr	r3, r2, r3
 1051 076a 1B01     		lsls	r3, r3, #4
 1052 076c DA1D     		adds	r2, r3, #7
 1053 076e 019B     		ldr	r3, [sp, #4]
 1054 0770 DA62     		str	r2, [r3, #44]
 1055              		.loc 1 705 0
 1056 0772 534B     		ldr	r3, .L74+4
 1057 0774 5B69     		ldr	r3, [r3, #20]
 1058 0776 03F0C062 		and	r2, r3, #100663296
 1059 077a 4FF0C063 		mov	r3, #100663296
 1060 077e 0393     		str	r3, [sp, #12]
 1061              	.LBB104:
 1062              	.LBB105:
 1063              		.loc 2 586 0
 1064 0780 039B     		ldr	r3, [sp, #12]
 1065              	@ 586 "../../../../../../ChibiOS/os/ext/CMSIS/include/core_cmInstr.h" 1
 1066 0782 93FAA3F3 		rbit r3, r3
 1067              	@ 0 "" 2
 1068              		.thumb
 1069 0786 0293     		str	r3, [sp, #8]
 1070              		.loc 2 599 0
 1071 0788 029B     		ldr	r3, [sp, #8]
 1072              	.LBE105:
 1073              	.LBE104:
 1074              		.loc 1 705 0
 1075 078a B3FA83F3 		clz	r3, r3
 1076 078e 22FA03F3 		lsr	r3, r2, r3
 1077 0792 0133     		adds	r3, r3, #1
 1078 0794 5A00     		lsls	r2, r3, #1
 1079 0796 019B     		ldr	r3, [sp, #4]
 1080 0798 1A63     		str	r2, [r3, #48]
 1081              		.loc 1 710 0
ARM GAS  /tmp/ccJqmpZo.s 			page 20


 1082 079a 494B     		ldr	r3, .L74+4
 1083 079c D3F88830 		ldr	r3, [r3, #136]
 1084 07a0 03F00302 		and	r2, r3, #3
 1085 07a4 019B     		ldr	r3, [sp, #4]
 1086 07a6 9A63     		str	r2, [r3, #56]
 1087              		.loc 1 712 0
 1088 07a8 454B     		ldr	r3, .L74+4
 1089 07aa D3F88830 		ldr	r3, [r3, #136]
 1090 07ae 03F00C02 		and	r2, r3, #12
 1091 07b2 019B     		ldr	r3, [sp, #4]
 1092 07b4 DA63     		str	r2, [r3, #60]
 1093              		.loc 1 716 0
 1094 07b6 424B     		ldr	r3, .L74+4
 1095 07b8 D3F88830 		ldr	r3, [r3, #136]
 1096 07bc 03F03002 		and	r2, r3, #48
 1097 07c0 019B     		ldr	r3, [sp, #4]
 1098 07c2 1A64     		str	r2, [r3, #64]
 1099              		.loc 1 721 0
 1100 07c4 3E4B     		ldr	r3, .L74+4
 1101 07c6 D3F88830 		ldr	r3, [r3, #136]
 1102 07ca 03F0C002 		and	r2, r3, #192
 1103 07ce 019B     		ldr	r3, [sp, #4]
 1104 07d0 5A64     		str	r2, [r3, #68]
 1105              		.loc 1 726 0
 1106 07d2 3B4B     		ldr	r3, .L74+4
 1107 07d4 D3F88830 		ldr	r3, [r3, #136]
 1108 07d8 03F44072 		and	r2, r3, #768
 1109 07dc 019B     		ldr	r3, [sp, #4]
 1110 07de 9A64     		str	r2, [r3, #72]
 1111              		.loc 1 730 0
 1112 07e0 374B     		ldr	r3, .L74+4
 1113 07e2 D3F88830 		ldr	r3, [r3, #136]
 1114 07e6 03F44062 		and	r2, r3, #3072
 1115 07ea 019B     		ldr	r3, [sp, #4]
 1116 07ec DA64     		str	r2, [r3, #76]
 1117              		.loc 1 733 0
 1118 07ee 344B     		ldr	r3, .L74+4
 1119 07f0 D3F88830 		ldr	r3, [r3, #136]
 1120 07f4 03F44052 		and	r2, r3, #12288
 1121 07f8 019B     		ldr	r3, [sp, #4]
 1122 07fa 1A65     		str	r2, [r3, #80]
 1123              		.loc 1 737 0
 1124 07fc 304B     		ldr	r3, .L74+4
 1125 07fe D3F88830 		ldr	r3, [r3, #136]
 1126 0802 03F44042 		and	r2, r3, #49152
 1127 0806 019B     		ldr	r3, [sp, #4]
 1128 0808 5A65     		str	r2, [r3, #84]
 1129              		.loc 1 741 0
 1130 080a 2D4B     		ldr	r3, .L74+4
 1131 080c D3F88830 		ldr	r3, [r3, #136]
 1132 0810 03F44032 		and	r2, r3, #196608
 1133 0814 019B     		ldr	r3, [sp, #4]
 1134 0816 9A65     		str	r2, [r3, #88]
 1135              		.loc 1 744 0
 1136 0818 294B     		ldr	r3, .L74+4
 1137 081a D3F88830 		ldr	r3, [r3, #136]
 1138 081e 03F44022 		and	r2, r3, #786432
ARM GAS  /tmp/ccJqmpZo.s 			page 21


 1139 0822 019B     		ldr	r3, [sp, #4]
 1140 0824 DA65     		str	r2, [r3, #92]
 1141              		.loc 1 747 0
 1142 0826 264B     		ldr	r3, .L74+4
 1143 0828 D3F88830 		ldr	r3, [r3, #136]
 1144 082c 03F44012 		and	r2, r3, #3145728
 1145 0830 019B     		ldr	r3, [sp, #4]
 1146 0832 1A66     		str	r2, [r3, #96]
 1147              		.loc 1 750 0
 1148 0834 224B     		ldr	r3, .L74+4
 1149 0836 D3F88830 		ldr	r3, [r3, #136]
 1150 083a 03F44002 		and	r2, r3, #12582912
 1151 083e 019B     		ldr	r3, [sp, #4]
 1152 0840 5A66     		str	r2, [r3, #100]
 1153              		.loc 1 754 0
 1154 0842 1F4B     		ldr	r3, .L74+4
 1155 0844 D3F88830 		ldr	r3, [r3, #136]
 1156 0848 03F04072 		and	r2, r3, #50331648
 1157 084c 019B     		ldr	r3, [sp, #4]
 1158 084e 9A66     		str	r2, [r3, #104]
 1159              		.loc 1 758 0
 1160 0850 1B4B     		ldr	r3, .L74+4
 1161 0852 D3F89030 		ldr	r3, [r3, #144]
 1162 0856 03F44072 		and	r2, r3, #768
 1163 085a 019B     		ldr	r3, [sp, #4]
 1164 085c C3F88420 		str	r2, [r3, #132]
 1165              		.loc 1 762 0
 1166 0860 174B     		ldr	r3, .L74+4
 1167 0862 D3F88830 		ldr	r3, [r3, #136]
 1168 0866 03F04062 		and	r2, r3, #201326592
 1169 086a 019B     		ldr	r3, [sp, #4]
 1170 086c DA66     		str	r2, [r3, #108]
 1171              		.loc 1 767 0
 1172 086e 144B     		ldr	r3, .L74+4
 1173 0870 D3F88830 		ldr	r3, [r3, #136]
 1174 0874 03F04062 		and	r2, r3, #201326592
 1175 0878 019B     		ldr	r3, [sp, #4]
 1176 087a 1A67     		str	r2, [r3, #112]
 1177              		.loc 1 771 0
 1178 087c 104B     		ldr	r3, .L74+4
 1179 087e D3F88830 		ldr	r3, [r3, #136]
 1180 0882 03F04062 		and	r2, r3, #201326592
 1181 0886 019B     		ldr	r3, [sp, #4]
 1182 0888 5A67     		str	r2, [r3, #116]
 1183              		.loc 1 774 0
 1184 088a 0D4B     		ldr	r3, .L74+4
 1185 088c D3F88830 		ldr	r3, [r3, #136]
 1186 0890 03F04052 		and	r2, r3, #805306368
 1187 0894 019B     		ldr	r3, [sp, #4]
 1188 0896 9A67     		str	r2, [r3, #120]
 1189              		.loc 1 778 0
 1190 0898 094B     		ldr	r3, .L74+4
 1191 089a D3F88830 		ldr	r3, [r3, #136]
 1192 089e 03F08042 		and	r2, r3, #1073741824
 1193 08a2 019B     		ldr	r3, [sp, #4]
 1194 08a4 DA67     		str	r2, [r3, #124]
 1195              		.loc 1 783 0
ARM GAS  /tmp/ccJqmpZo.s 			page 22


 1196 08a6 064B     		ldr	r3, .L74+4
 1197 08a8 D3F88830 		ldr	r3, [r3, #136]
 1198 08ac 03F00042 		and	r2, r3, #-2147483648
 1199 08b0 019B     		ldr	r3, [sp, #4]
 1200 08b2 C3F88020 		str	r2, [r3, #128]
 1201              		.loc 1 785 0
 1202 08b6 14B0     		add	sp, sp, #80
 1203              		@ sp needed
 1204 08b8 7047     		bx	lr
 1205              	.L75:
 1206 08ba 00BF     		.align	2
 1207              	.L74:
 1208 08bc FFFF0F00 		.word	1048575
 1209 08c0 00100240 		.word	1073876992
 1210              		.cfi_endproc
 1211              	.LFE126:
 1212              		.size	HAL_RCCEx_GetPeriphCLKConfig, .-HAL_RCCEx_GetPeriphCLKConfig
 1213              		.align	2
 1214 08c4 AFF30080 		.p2align 4,,15
 1214      AFF30080 
 1214      AFF30080 
 1215              		.global	HAL_RCCEx_GetPeriphCLKFreq
 1216              		.thumb
 1217              		.thumb_func
 1218              		.type	HAL_RCCEx_GetPeriphCLKFreq, %function
 1219              	HAL_RCCEx_GetPeriphCLKFreq:
 1220              	.LFB127:
 1221              		.loc 1 821 0
 1222              		.cfi_startproc
 1223              		@ args = 0, pretend = 0, frame = 128
 1224              		@ frame_needed = 0, uses_anonymous_args = 0
 1225 08d0 00B5     		push	{lr}
 1226              		.cfi_def_cfa_offset 4
 1227              		.cfi_offset 14, -4
 1228 08d2 A1B0     		sub	sp, sp, #132
 1229              		.cfi_def_cfa_offset 136
 1230 08d4 0190     		str	r0, [sp, #4]
 1231              		.loc 1 822 0
 1232 08d6 0023     		movs	r3, #0
 1233 08d8 1F93     		str	r3, [sp, #124]
 1234              		.loc 1 823 0
 1235 08da 0023     		movs	r3, #0
 1236 08dc 1E93     		str	r3, [sp, #120]
 1237              		.loc 1 824 0
 1238 08de 0023     		movs	r3, #0
 1239 08e0 1D93     		str	r3, [sp, #116]
 1240 08e2 0023     		movs	r3, #0
 1241 08e4 1B93     		str	r3, [sp, #108]
 1242 08e6 0023     		movs	r3, #0
 1243 08e8 1C93     		str	r3, [sp, #112]
 1244              		.loc 1 829 0
 1245 08ea 019B     		ldr	r3, [sp, #4]
 1246 08ec B3F5003F 		cmp	r3, #131072
 1247 08f0 36D1     		bne	.L77
 1248              		.loc 1 832 0
 1249 08f2 AD4B     		ldr	r3, .L226
 1250 08f4 D3F89030 		ldr	r3, [r3, #144]
ARM GAS  /tmp/ccJqmpZo.s 			page 23


 1251 08f8 03F44073 		and	r3, r3, #768
 1252 08fc 1E93     		str	r3, [sp, #120]
 1253              		.loc 1 835 0
 1254 08fe 1E9B     		ldr	r3, [sp, #120]
 1255 0900 B3F5807F 		cmp	r3, #256
 1256 0904 0AD1     		bne	.L78
 1257              		.loc 1 835 0 is_stmt 0 discriminator 1
 1258 0906 A84B     		ldr	r3, .L226
 1259 0908 D3F89030 		ldr	r3, [r3, #144]
 1260 090c 03F00203 		and	r3, r3, #2
 1261 0910 002B     		cmp	r3, #0
 1262 0912 03D0     		beq	.L78
 1263              		.loc 1 837 0 is_stmt 1
 1264 0914 4FF40043 		mov	r3, #32768
 1265 0918 1F93     		str	r3, [sp, #124]
 1266 091a 1FE0     		b	.L79
 1267              	.L78:
 1268              		.loc 1 840 0
 1269 091c 1E9B     		ldr	r3, [sp, #120]
 1270 091e B3F5007F 		cmp	r3, #512
 1271 0922 0AD1     		bne	.L80
 1272              		.loc 1 840 0 is_stmt 0 discriminator 1
 1273 0924 A04B     		ldr	r3, .L226
 1274 0926 D3F89430 		ldr	r3, [r3, #148]
 1275 092a 03F00203 		and	r3, r3, #2
 1276 092e 002B     		cmp	r3, #0
 1277 0930 03D0     		beq	.L80
 1278              		.loc 1 842 0 is_stmt 1
 1279 0932 4FF4FA43 		mov	r3, #32000
 1280 0936 1F93     		str	r3, [sp, #124]
 1281 0938 10E0     		b	.L79
 1282              	.L80:
 1283              		.loc 1 845 0
 1284 093a 1E9B     		ldr	r3, [sp, #120]
 1285 093c B3F5407F 		cmp	r3, #768
 1286 0940 08D1     		bne	.L81
 1287              		.loc 1 845 0 is_stmt 0 discriminator 1
 1288 0942 994B     		ldr	r3, .L226
 1289 0944 1B68     		ldr	r3, [r3]
 1290 0946 03F40033 		and	r3, r3, #131072
 1291 094a 002B     		cmp	r3, #0
 1292 094c 02D0     		beq	.L81
 1293              		.loc 1 847 0 is_stmt 1
 1294 094e 974B     		ldr	r3, .L226+4
 1295 0950 1F93     		str	r3, [sp, #124]
 1296 0952 03E0     		b	.L79
 1297              	.L81:
 1298              		.loc 1 852 0
 1299 0954 0023     		movs	r3, #0
 1300 0956 1F93     		str	r3, [sp, #124]
 1301 0958 00F021BD 		b	.L82
 1302              	.L79:
 1303 095c 00F01FBD 		b	.L82
 1304              	.L77:
 1305              		.loc 1 860 0
 1306 0960 914B     		ldr	r3, .L226
 1307 0962 DB68     		ldr	r3, [r3, #12]
ARM GAS  /tmp/ccJqmpZo.s 			page 24


 1308 0964 03F00303 		and	r3, r3, #3
 1309 0968 012B     		cmp	r3, #1
 1310 096a 24D1     		bne	.L83
 1311              		.loc 1 862 0
 1312 096c 8E4B     		ldr	r3, .L226
 1313 096e 1B68     		ldr	r3, [r3]
 1314 0970 03F00203 		and	r3, r3, #2
 1315 0974 002B     		cmp	r3, #0
 1316 0976 1BD0     		beq	.L84
 1317              		.loc 1 864 0
 1318 0978 8B4B     		ldr	r3, .L226
 1319 097a 1B68     		ldr	r3, [r3]
 1320 097c 03F00803 		and	r3, r3, #8
 1321 0980 002B     		cmp	r3, #0
 1322 0982 09D0     		beq	.L85
 1323              		.loc 1 864 0 is_stmt 0 discriminator 1
 1324 0984 884B     		ldr	r3, .L226
 1325 0986 1B68     		ldr	r3, [r3]
 1326 0988 03F0F003 		and	r3, r3, #240
 1327 098c 1B09     		lsrs	r3, r3, #4
 1328 098e 043B     		subs	r3, r3, #4
 1329 0990 874A     		ldr	r2, .L226+8
 1330 0992 02FA03F3 		lsl	r3, r2, r3
 1331 0996 09E0     		b	.L86
 1332              	.L85:
 1333              		.loc 1 864 0 discriminator 2
 1334 0998 834B     		ldr	r3, .L226
 1335 099a D3F89430 		ldr	r3, [r3, #148]
 1336 099e 03F47063 		and	r3, r3, #3840
 1337 09a2 1B0A     		lsrs	r3, r3, #8
 1338 09a4 043B     		subs	r3, r3, #4
 1339 09a6 824A     		ldr	r2, .L226+8
 1340 09a8 02FA03F3 		lsl	r3, r2, r3
 1341              	.L86:
 1342              		.loc 1 864 0 discriminator 1
 1343 09ac 1D93     		str	r3, [sp, #116]
 1344 09ae 28E0     		b	.L88
 1345              	.L84:
 1346              		.loc 1 868 0 is_stmt 1
 1347 09b0 0023     		movs	r3, #0
 1348 09b2 1D93     		str	r3, [sp, #116]
 1349 09b4 25E0     		b	.L88
 1350              	.L83:
 1351              		.loc 1 871 0
 1352 09b6 7C4B     		ldr	r3, .L226
 1353 09b8 DB68     		ldr	r3, [r3, #12]
 1354 09ba 03F00303 		and	r3, r3, #3
 1355 09be 022B     		cmp	r3, #2
 1356 09c0 0BD1     		bne	.L89
 1357              		.loc 1 873 0
 1358 09c2 794B     		ldr	r3, .L226
 1359 09c4 1B68     		ldr	r3, [r3]
 1360 09c6 03F48063 		and	r3, r3, #1024
 1361 09ca 002B     		cmp	r3, #0
 1362 09cc 02D0     		beq	.L90
 1363              		.loc 1 875 0
 1364 09ce 794B     		ldr	r3, .L226+12
ARM GAS  /tmp/ccJqmpZo.s 			page 25


 1365 09d0 1D93     		str	r3, [sp, #116]
 1366 09d2 16E0     		b	.L88
 1367              	.L90:
 1368              		.loc 1 879 0
 1369 09d4 0023     		movs	r3, #0
 1370 09d6 1D93     		str	r3, [sp, #116]
 1371 09d8 13E0     		b	.L88
 1372              	.L89:
 1373              		.loc 1 882 0
 1374 09da 734B     		ldr	r3, .L226
 1375 09dc DB68     		ldr	r3, [r3, #12]
 1376 09de 03F00303 		and	r3, r3, #3
 1377 09e2 032B     		cmp	r3, #3
 1378 09e4 0BD1     		bne	.L92
 1379              		.loc 1 884 0
 1380 09e6 704B     		ldr	r3, .L226
 1381 09e8 1B68     		ldr	r3, [r3]
 1382 09ea 03F40033 		and	r3, r3, #131072
 1383 09ee 002B     		cmp	r3, #0
 1384 09f0 02D0     		beq	.L93
 1385              		.loc 1 886 0
 1386 09f2 714B     		ldr	r3, .L226+16
 1387 09f4 1D93     		str	r3, [sp, #116]
 1388 09f6 04E0     		b	.L88
 1389              	.L93:
 1390              		.loc 1 890 0
 1391 09f8 0023     		movs	r3, #0
 1392 09fa 1D93     		str	r3, [sp, #116]
 1393 09fc 01E0     		b	.L88
 1394              	.L92:
 1395              		.loc 1 895 0
 1396 09fe 0023     		movs	r3, #0
 1397 0a00 1D93     		str	r3, [sp, #116]
 1398              	.L88:
 1399              		.loc 1 899 0
 1400 0a02 694B     		ldr	r3, .L226
 1401 0a04 DB68     		ldr	r3, [r3, #12]
 1402 0a06 03F07002 		and	r2, r3, #112
 1403 0a0a 7023     		movs	r3, #112
 1404 0a0c 1A93     		str	r3, [sp, #104]
 1405              	.LBB106:
 1406              	.LBB107:
 1407              		.loc 2 586 0
 1408 0a0e 1A9B     		ldr	r3, [sp, #104]
 1409              	@ 586 "../../../../../../ChibiOS/os/ext/CMSIS/include/core_cmInstr.h" 1
 1410 0a10 93FAA3F3 		rbit r3, r3
 1411              	@ 0 "" 2
 1412              		.thumb
 1413 0a14 1993     		str	r3, [sp, #100]
 1414              		.loc 2 599 0
 1415 0a16 199B     		ldr	r3, [sp, #100]
 1416              	.LBE107:
 1417              	.LBE106:
 1418              		.loc 1 899 0
 1419 0a18 B3FA83F3 		clz	r3, r3
 1420 0a1c 22FA03F3 		lsr	r3, r2, r3
 1421 0a20 0133     		adds	r3, r3, #1
ARM GAS  /tmp/ccJqmpZo.s 			page 26


 1422 0a22 1D9A     		ldr	r2, [sp, #116]
 1423 0a24 B2FBF3F3 		udiv	r3, r2, r3
 1424 0a28 1D93     		str	r3, [sp, #116]
 1425              		.loc 1 901 0
 1426 0a2a 019B     		ldr	r3, [sp, #4]
 1427 0a2c B3F5007F 		cmp	r3, #512
 1428 0a30 00F01A84 		beq	.L97
 1429 0a34 B3F5007F 		cmp	r3, #512
 1430 0a38 29D8     		bhi	.L98
 1431 0a3a 102B     		cmp	r3, #16
 1432 0a3c 00F0A782 		beq	.L99
 1433 0a40 102B     		cmp	r3, #16
 1434 0a42 11D8     		bhi	.L100
 1435 0a44 022B     		cmp	r3, #2
 1436 0a46 00F00682 		beq	.L101
 1437 0a4a 022B     		cmp	r3, #2
 1438 0a4c 04D8     		bhi	.L102
 1439 0a4e 012B     		cmp	r3, #1
 1440 0a50 00F0CF81 		beq	.L103
 1441              		.loc 1 1550 0
 1442 0a54 00F0A3BC 		b	.L82
 1443              	.L102:
 1444              		.loc 1 901 0
 1445 0a58 042B     		cmp	r3, #4
 1446 0a5a 00F03482 		beq	.L104
 1447 0a5e 082B     		cmp	r3, #8
 1448 0a60 00F06382 		beq	.L105
 1449              		.loc 1 1550 0
 1450 0a64 00F09BBC 		b	.L82
 1451              	.L100:
 1452              		.loc 1 901 0
 1453 0a68 402B     		cmp	r3, #64
 1454 0a6a 00F08B83 		beq	.L106
 1455 0a6e 402B     		cmp	r3, #64
 1456 0a70 04D8     		bhi	.L107
 1457 0a72 202B     		cmp	r3, #32
 1458 0a74 00F0C082 		beq	.L108
 1459              		.loc 1 1550 0
 1460 0a78 00F091BC 		b	.L82
 1461              	.L107:
 1462              		.loc 1 901 0
 1463 0a7c 802B     		cmp	r3, #128
 1464 0a7e 00F0A783 		beq	.L109
 1465 0a82 B3F5807F 		cmp	r3, #256
 1466 0a86 00F0C983 		beq	.L110
 1467              		.loc 1 1550 0
 1468 0a8a 00F088BC 		b	.L82
 1469              	.L98:
 1470              		.loc 1 901 0
 1471 0a8e B3F5804F 		cmp	r3, #16384
 1472 0a92 00F0E682 		beq	.L111
 1473 0a96 B3F5804F 		cmp	r3, #16384
 1474 0a9a 14D8     		bhi	.L112
 1475 0a9c B3F5006F 		cmp	r3, #2048
 1476 0aa0 28D0     		beq	.L113
 1477 0aa2 B3F5006F 		cmp	r3, #2048
 1478 0aa6 05D8     		bhi	.L114
ARM GAS  /tmp/ccJqmpZo.s 			page 27


 1479 0aa8 B3F5806F 		cmp	r3, #1024
 1480 0aac 00F01884 		beq	.L115
 1481              		.loc 1 1550 0
 1482 0ab0 00F075BC 		b	.L82
 1483              	.L114:
 1484              		.loc 1 901 0
 1485 0ab4 B3F5805F 		cmp	r3, #4096
 1486 0ab8 1CD0     		beq	.L113
 1487 0aba B3F5005F 		cmp	r3, #8192
 1488 0abe 00F0E980 		beq	.L116
 1489              		.loc 1 1550 0
 1490 0ac2 00F06CBC 		b	.L82
 1491              	.L112:
 1492              		.loc 1 901 0
 1493 0ac6 B3F5803F 		cmp	r3, #65536
 1494 0aca 00F04A83 		beq	.L117
 1495 0ace B3F5803F 		cmp	r3, #65536
 1496 0ad2 05D8     		bhi	.L118
 1497 0ad4 B3F5004F 		cmp	r3, #32768
 1498 0ad8 00F03E84 		beq	.L119
 1499              		.loc 1 1550 0
 1500 0adc 00F05FBC 		b	.L82
 1501              	.L118:
 1502              		.loc 1 901 0
 1503 0ae0 B3F5802F 		cmp	r3, #262144
 1504 0ae4 00F0D680 		beq	.L116
 1505 0ae8 B3F5002F 		cmp	r3, #524288
 1506 0aec 00F0D280 		beq	.L116
 1507              		.loc 1 1550 0
 1508 0af0 00F055BC 		b	.L82
 1509              	.L113:
 1510              		.loc 1 908 0
 1511 0af4 019B     		ldr	r3, [sp, #4]
 1512 0af6 B3F5006F 		cmp	r3, #2048
 1513 0afa 0DD1     		bne	.L120
 1514              		.loc 1 910 0
 1515 0afc 2A4B     		ldr	r3, .L226
 1516 0afe D3F88830 		ldr	r3, [r3, #136]
 1517 0b02 03F44003 		and	r3, r3, #12582912
 1518 0b06 1E93     		str	r3, [sp, #120]
 1519              		.loc 1 912 0
 1520 0b08 1E9B     		ldr	r3, [sp, #120]
 1521 0b0a B3F5400F 		cmp	r3, #12582912
 1522 0b0e 10D1     		bne	.L122
 1523              		.loc 1 914 0
 1524 0b10 4BF68033 		movw	r3, #48000
 1525 0b14 1F93     		str	r3, [sp, #124]
 1526 0b16 0CE0     		b	.L122
 1527              	.L120:
 1528              		.loc 1 920 0
 1529 0b18 234B     		ldr	r3, .L226
 1530 0b1a D3F88830 		ldr	r3, [r3, #136]
 1531 0b1e 03F04073 		and	r3, r3, #50331648
 1532 0b22 1E93     		str	r3, [sp, #120]
 1533              		.loc 1 922 0
 1534 0b24 1E9B     		ldr	r3, [sp, #120]
 1535 0b26 B3F1407F 		cmp	r3, #50331648
ARM GAS  /tmp/ccJqmpZo.s 			page 28


 1536 0b2a 02D1     		bne	.L122
 1537              		.loc 1 924 0
 1538 0b2c 4BF68033 		movw	r3, #48000
 1539 0b30 1F93     		str	r3, [sp, #124]
 1540              	.L122:
 1541              		.loc 1 946 0
 1542 0b32 1F9B     		ldr	r3, [sp, #124]
 1543 0b34 002B     		cmp	r3, #0
 1544 0b36 40F0AC80 		bne	.L123
 1545              		.loc 1 949 0
 1546 0b3a 1E9B     		ldr	r3, [sp, #120]
 1547 0b3c B3F5000F 		cmp	r3, #8388608
 1548 0b40 03D0     		beq	.L124
 1549              		.loc 1 949 0 is_stmt 0 discriminator 1
 1550 0b42 1E9B     		ldr	r3, [sp, #120]
 1551 0b44 B3F1007F 		cmp	r3, #33554432
 1552 0b48 38D1     		bne	.L125
 1553              	.L124:
 1554              		.loc 1 951 0 is_stmt 1
 1555 0b4a 174B     		ldr	r3, .L226
 1556 0b4c DB68     		ldr	r3, [r3, #12]
 1557 0b4e 03F48033 		and	r3, r3, #65536
 1558 0b52 002B     		cmp	r3, #0
 1559 0b54 27D0     		beq	.L126
 1560              		.loc 1 954 0
 1561 0b56 144B     		ldr	r3, .L226
 1562 0b58 DB68     		ldr	r3, [r3, #12]
 1563 0b5a 03F4FE42 		and	r2, r3, #32512
 1564 0b5e 4FF4FE43 		mov	r3, #32512
 1565 0b62 1893     		str	r3, [sp, #96]
 1566              	.LBB108:
 1567              	.LBB109:
 1568              		.loc 2 586 0
 1569 0b64 189B     		ldr	r3, [sp, #96]
 1570              	@ 586 "../../../../../../ChibiOS/os/ext/CMSIS/include/core_cmInstr.h" 1
 1571 0b66 93FAA3F3 		rbit r3, r3
 1572              	@ 0 "" 2
 1573              		.thumb
 1574 0b6a 1793     		str	r3, [sp, #92]
 1575              		.loc 2 599 0
 1576 0b6c 179B     		ldr	r3, [sp, #92]
 1577              	.LBE109:
 1578              	.LBE108:
 1579              		.loc 1 954 0
 1580 0b6e B3FA83F3 		clz	r3, r3
 1581 0b72 22FA03F3 		lsr	r3, r2, r3
 1582 0b76 1B93     		str	r3, [sp, #108]
 1583              		.loc 1 958 0
 1584 0b78 1C9B     		ldr	r3, [sp, #112]
 1585 0b7a 002B     		cmp	r3, #0
 1586 0b7c 0AD1     		bne	.L128
 1587              		.loc 1 960 0
 1588 0b7e 0A4B     		ldr	r3, .L226
 1589 0b80 DB68     		ldr	r3, [r3, #12]
 1590 0b82 03F40033 		and	r3, r3, #131072
 1591 0b86 002B     		cmp	r3, #0
 1592 0b88 02D0     		beq	.L129
ARM GAS  /tmp/ccJqmpZo.s 			page 29


 1593              		.loc 1 962 0
 1594 0b8a 1123     		movs	r3, #17
 1595 0b8c 1C93     		str	r3, [sp, #112]
 1596 0b8e 01E0     		b	.L128
 1597              	.L129:
 1598              		.loc 1 966 0
 1599 0b90 0723     		movs	r3, #7
 1600 0b92 1C93     		str	r3, [sp, #112]
 1601              	.L128:
 1602              		.loc 1 969 0
 1603 0b94 1D9B     		ldr	r3, [sp, #116]
 1604 0b96 1B9A     		ldr	r2, [sp, #108]
 1605 0b98 02FB03F2 		mul	r2, r2, r3
 1606 0b9c 1C9B     		ldr	r3, [sp, #112]
 1607 0b9e B2FBF3F3 		udiv	r3, r2, r3
 1608 0ba2 1F93     		str	r3, [sp, #124]
 1609              		.loc 1 951 0
 1610 0ba4 75E0     		b	.L123
 1611              	.L126:
 1612              		.loc 1 951 0 is_stmt 0 discriminator 1
 1613 0ba6 74E0     		b	.L123
 1614              	.L227:
 1615              		.align	2
 1616              	.L226:
 1617 0ba8 00100240 		.word	1073876992
 1618 0bac 90D00300 		.word	250000
 1619 0bb0 40420F00 		.word	1000000
 1620 0bb4 0024F400 		.word	16000000
 1621 0bb8 00127A00 		.word	8000000
 1622              	.L125:
 1623              		.loc 1 972 0 is_stmt 1
 1624 0bbc 1E9B     		ldr	r3, [sp, #120]
 1625 0bbe 002B     		cmp	r3, #0
 1626 0bc0 2DD1     		bne	.L130
 1627              		.loc 1 974 0
 1628 0bc2 AB4B     		ldr	r3, .L228
 1629 0bc4 1B69     		ldr	r3, [r3, #16]
 1630 0bc6 03F48033 		and	r3, r3, #65536
 1631 0bca 002B     		cmp	r3, #0
 1632 0bcc 61D0     		beq	.L123
 1633              		.loc 1 977 0
 1634 0bce A84B     		ldr	r3, .L228
 1635 0bd0 1B69     		ldr	r3, [r3, #16]
 1636 0bd2 03F4FE42 		and	r2, r3, #32512
 1637 0bd6 4FF4FE43 		mov	r3, #32512
 1638 0bda 1693     		str	r3, [sp, #88]
 1639              	.LBB110:
 1640              	.LBB111:
 1641              		.loc 2 586 0
 1642 0bdc 169B     		ldr	r3, [sp, #88]
 1643              	@ 586 "../../../../../../ChibiOS/os/ext/CMSIS/include/core_cmInstr.h" 1
 1644 0bde 93FAA3F3 		rbit r3, r3
 1645              	@ 0 "" 2
 1646              		.thumb
 1647 0be2 1593     		str	r3, [sp, #84]
 1648              		.loc 2 599 0
 1649 0be4 159B     		ldr	r3, [sp, #84]
ARM GAS  /tmp/ccJqmpZo.s 			page 30


 1650              	.LBE111:
 1651              	.LBE110:
 1652              		.loc 1 977 0
 1653 0be6 B3FA83F3 		clz	r3, r3
 1654 0bea 22FA03F3 		lsr	r3, r2, r3
 1655 0bee 1B93     		str	r3, [sp, #108]
 1656              		.loc 1 981 0
 1657 0bf0 1C9B     		ldr	r3, [sp, #112]
 1658 0bf2 002B     		cmp	r3, #0
 1659 0bf4 0AD1     		bne	.L133
 1660              		.loc 1 983 0
 1661 0bf6 9E4B     		ldr	r3, .L228
 1662 0bf8 1B69     		ldr	r3, [r3, #16]
 1663 0bfa 03F40033 		and	r3, r3, #131072
 1664 0bfe 002B     		cmp	r3, #0
 1665 0c00 02D0     		beq	.L134
 1666              		.loc 1 985 0
 1667 0c02 1123     		movs	r3, #17
 1668 0c04 1C93     		str	r3, [sp, #112]
 1669 0c06 01E0     		b	.L133
 1670              	.L134:
 1671              		.loc 1 989 0
 1672 0c08 0723     		movs	r3, #7
 1673 0c0a 1C93     		str	r3, [sp, #112]
 1674              	.L133:
 1675              		.loc 1 992 0
 1676 0c0c 1D9B     		ldr	r3, [sp, #116]
 1677 0c0e 1B9A     		ldr	r2, [sp, #108]
 1678 0c10 02FB03F2 		mul	r2, r2, r3
 1679 0c14 1C9B     		ldr	r3, [sp, #112]
 1680 0c16 B2FBF3F3 		udiv	r3, r2, r3
 1681 0c1a 1F93     		str	r3, [sp, #124]
 1682              		.loc 1 1100 0
 1683 0c1c BFE3     		b	.L82
 1684              	.L130:
 1685              		.loc 1 1068 0
 1686 0c1e 1E9B     		ldr	r3, [sp, #120]
 1687 0c20 B3F5800F 		cmp	r3, #4194304
 1688 0c24 03D0     		beq	.L135
 1689              		.loc 1 1068 0 is_stmt 0 discriminator 1
 1690 0c26 1E9B     		ldr	r3, [sp, #120]
 1691 0c28 B3F1807F 		cmp	r3, #16777216
 1692 0c2c 2ED1     		bne	.L136
 1693              	.L135:
 1694              		.loc 1 1070 0 is_stmt 1
 1695 0c2e 904B     		ldr	r3, .L228
 1696 0c30 5B69     		ldr	r3, [r3, #20]
 1697 0c32 03F48033 		and	r3, r3, #65536
 1698 0c36 002B     		cmp	r3, #0
 1699 0c38 27D0     		beq	.L137
 1700              		.loc 1 1073 0
 1701 0c3a 8D4B     		ldr	r3, .L228
 1702 0c3c 5B69     		ldr	r3, [r3, #20]
 1703 0c3e 03F4FE42 		and	r2, r3, #32512
 1704 0c42 4FF4FE43 		mov	r3, #32512
 1705 0c46 1493     		str	r3, [sp, #80]
 1706              	.LBB112:
ARM GAS  /tmp/ccJqmpZo.s 			page 31


 1707              	.LBB113:
 1708              		.loc 2 586 0
 1709 0c48 149B     		ldr	r3, [sp, #80]
 1710              	@ 586 "../../../../../../ChibiOS/os/ext/CMSIS/include/core_cmInstr.h" 1
 1711 0c4a 93FAA3F3 		rbit r3, r3
 1712              	@ 0 "" 2
 1713              		.thumb
 1714 0c4e 1393     		str	r3, [sp, #76]
 1715              		.loc 2 599 0
 1716 0c50 139B     		ldr	r3, [sp, #76]
 1717              	.LBE113:
 1718              	.LBE112:
 1719              		.loc 1 1073 0
 1720 0c52 B3FA83F3 		clz	r3, r3
 1721 0c56 22FA03F3 		lsr	r3, r2, r3
 1722 0c5a 1B93     		str	r3, [sp, #108]
 1723              		.loc 1 1077 0
 1724 0c5c 1C9B     		ldr	r3, [sp, #112]
 1725 0c5e 002B     		cmp	r3, #0
 1726 0c60 0AD1     		bne	.L139
 1727              		.loc 1 1079 0
 1728 0c62 834B     		ldr	r3, .L228
 1729 0c64 5B69     		ldr	r3, [r3, #20]
 1730 0c66 03F40033 		and	r3, r3, #131072
 1731 0c6a 002B     		cmp	r3, #0
 1732 0c6c 02D0     		beq	.L140
 1733              		.loc 1 1081 0
 1734 0c6e 1123     		movs	r3, #17
 1735 0c70 1C93     		str	r3, [sp, #112]
 1736 0c72 01E0     		b	.L139
 1737              	.L140:
 1738              		.loc 1 1085 0
 1739 0c74 0723     		movs	r3, #7
 1740 0c76 1C93     		str	r3, [sp, #112]
 1741              	.L139:
 1742              		.loc 1 1088 0
 1743 0c78 1D9B     		ldr	r3, [sp, #116]
 1744 0c7a 1B9A     		ldr	r2, [sp, #108]
 1745 0c7c 02FB03F2 		mul	r2, r2, r3
 1746 0c80 1C9B     		ldr	r3, [sp, #112]
 1747 0c82 B2FBF3F3 		udiv	r3, r2, r3
 1748 0c86 1F93     		str	r3, [sp, #124]
 1749              		.loc 1 1070 0
 1750 0c88 03E0     		b	.L123
 1751              	.L137:
 1752              		.loc 1 1070 0 is_stmt 0 discriminator 1
 1753 0c8a 02E0     		b	.L123
 1754              	.L136:
 1755              		.loc 1 1097 0 is_stmt 1
 1756 0c8c 0023     		movs	r3, #0
 1757 0c8e 1F93     		str	r3, [sp, #124]
 1758              		.loc 1 1100 0
 1759 0c90 85E3     		b	.L82
 1760              	.L123:
 1761 0c92 84E3     		b	.L82
 1762              	.L116:
 1763              		.loc 1 1116 0
ARM GAS  /tmp/ccJqmpZo.s 			page 32


 1764 0c94 764B     		ldr	r3, .L228
 1765 0c96 D3F88830 		ldr	r3, [r3, #136]
 1766 0c9a 03F04063 		and	r3, r3, #201326592
 1767 0c9e 1E93     		str	r3, [sp, #120]
 1768              		.loc 1 1118 0
 1769 0ca0 1E9B     		ldr	r3, [sp, #120]
 1770 0ca2 B3F1406F 		cmp	r3, #201326592
 1771 0ca6 24D1     		bne	.L141
 1772              		.loc 1 1120 0
 1773 0ca8 714B     		ldr	r3, .L228
 1774 0caa 1B68     		ldr	r3, [r3]
 1775 0cac 03F00203 		and	r3, r3, #2
 1776 0cb0 002B     		cmp	r3, #0
 1777 0cb2 1BD0     		beq	.L142
 1778              		.loc 1 1122 0
 1779 0cb4 6E4B     		ldr	r3, .L228
 1780 0cb6 1B68     		ldr	r3, [r3]
 1781 0cb8 03F00803 		and	r3, r3, #8
 1782 0cbc 002B     		cmp	r3, #0
 1783 0cbe 09D0     		beq	.L143
 1784              		.loc 1 1122 0 is_stmt 0 discriminator 1
 1785 0cc0 6B4B     		ldr	r3, .L228
 1786 0cc2 1B68     		ldr	r3, [r3]
 1787 0cc4 03F0F003 		and	r3, r3, #240
 1788 0cc8 1B09     		lsrs	r3, r3, #4
 1789 0cca 043B     		subs	r3, r3, #4
 1790 0ccc 694A     		ldr	r2, .L228+4
 1791 0cce 02FA03F3 		lsl	r3, r2, r3
 1792 0cd2 09E0     		b	.L144
 1793              	.L143:
 1794              		.loc 1 1122 0 discriminator 2
 1795 0cd4 664B     		ldr	r3, .L228
 1796 0cd6 D3F89430 		ldr	r3, [r3, #148]
 1797 0cda 03F47063 		and	r3, r3, #3840
 1798 0cde 1B0A     		lsrs	r3, r3, #8
 1799 0ce0 043B     		subs	r3, r3, #4
 1800 0ce2 644A     		ldr	r2, .L228+4
 1801 0ce4 02FA03F3 		lsl	r3, r2, r3
 1802              	.L144:
 1803              		.loc 1 1122 0 discriminator 5
 1804 0ce8 1F93     		str	r3, [sp, #124]
 1805 0cea 81E0     		b	.L146
 1806              	.L142:
 1807              		.loc 1 1126 0 is_stmt 1
 1808 0cec 0023     		movs	r3, #0
 1809 0cee 1F93     		str	r3, [sp, #124]
 1810              		.loc 1 1170 0
 1811 0cf0 55E3     		b	.L82
 1812              	.L141:
 1813              		.loc 1 1129 0
 1814 0cf2 1E9B     		ldr	r3, [sp, #120]
 1815 0cf4 B3F1006F 		cmp	r3, #134217728
 1816 0cf8 39D1     		bne	.L147
 1817              		.loc 1 1131 0
 1818 0cfa 5D4B     		ldr	r3, .L228
 1819 0cfc 1B68     		ldr	r3, [r3]
 1820 0cfe 03F00073 		and	r3, r3, #33554432
ARM GAS  /tmp/ccJqmpZo.s 			page 33


 1821 0d02 002B     		cmp	r3, #0
 1822 0d04 30D0     		beq	.L148
 1823              		.loc 1 1131 0 is_stmt 0 discriminator 1
 1824 0d06 5A4B     		ldr	r3, .L228
 1825 0d08 DB68     		ldr	r3, [r3, #12]
 1826 0d0a 03F48013 		and	r3, r3, #1048576
 1827 0d0e 002B     		cmp	r3, #0
 1828 0d10 2AD0     		beq	.L148
 1829              		.loc 1 1134 0 is_stmt 1
 1830 0d12 574B     		ldr	r3, .L228
 1831 0d14 DB68     		ldr	r3, [r3, #12]
 1832 0d16 03F4FE42 		and	r2, r3, #32512
 1833 0d1a 4FF4FE43 		mov	r3, #32512
 1834 0d1e 1293     		str	r3, [sp, #72]
 1835              	.LBB114:
 1836              	.LBB115:
 1837              		.loc 2 586 0
 1838 0d20 129B     		ldr	r3, [sp, #72]
 1839              	@ 586 "../../../../../../ChibiOS/os/ext/CMSIS/include/core_cmInstr.h" 1
 1840 0d22 93FAA3F3 		rbit r3, r3
 1841              	@ 0 "" 2
 1842              		.thumb
 1843 0d26 1193     		str	r3, [sp, #68]
 1844              		.loc 2 599 0
 1845 0d28 119B     		ldr	r3, [sp, #68]
 1846              	.LBE115:
 1847              	.LBE114:
 1848              		.loc 1 1134 0
 1849 0d2a B3FA83F3 		clz	r3, r3
 1850 0d2e 22FA03F3 		lsr	r3, r2, r3
 1851 0d32 1B93     		str	r3, [sp, #108]
 1852              		.loc 1 1135 0
 1853 0d34 1D9B     		ldr	r3, [sp, #116]
 1854 0d36 1B9A     		ldr	r2, [sp, #108]
 1855 0d38 02FB03F2 		mul	r2, r2, r3
 1856 0d3c 4C4B     		ldr	r3, .L228
 1857 0d3e DB68     		ldr	r3, [r3, #12]
 1858 0d40 03F4C001 		and	r1, r3, #6291456
 1859 0d44 4FF4C003 		mov	r3, #6291456
 1860 0d48 1093     		str	r3, [sp, #64]
 1861              	.LBB116:
 1862              	.LBB117:
 1863              		.loc 2 586 0
 1864 0d4a 109B     		ldr	r3, [sp, #64]
 1865              	@ 586 "../../../../../../ChibiOS/os/ext/CMSIS/include/core_cmInstr.h" 1
 1866 0d4c 93FAA3F3 		rbit r3, r3
 1867              	@ 0 "" 2
 1868              		.thumb
 1869 0d50 0F93     		str	r3, [sp, #60]
 1870              		.loc 2 599 0
 1871 0d52 0F9B     		ldr	r3, [sp, #60]
 1872              	.LBE117:
 1873              	.LBE116:
 1874              		.loc 1 1135 0
 1875 0d54 B3FA83F3 		clz	r3, r3
 1876 0d58 21FA03F3 		lsr	r3, r1, r3
 1877 0d5c 0133     		adds	r3, r3, #1
ARM GAS  /tmp/ccJqmpZo.s 			page 34


 1878 0d5e 5B00     		lsls	r3, r3, #1
 1879 0d60 B2FBF3F3 		udiv	r3, r2, r3
 1880 0d64 1F93     		str	r3, [sp, #124]
 1881 0d66 43E0     		b	.L146
 1882              	.L148:
 1883              		.loc 1 1139 0
 1884 0d68 0023     		movs	r3, #0
 1885 0d6a 1F93     		str	r3, [sp, #124]
 1886 0d6c 40E0     		b	.L146
 1887              	.L147:
 1888              		.loc 1 1142 0
 1889 0d6e 1E9B     		ldr	r3, [sp, #120]
 1890 0d70 B3F1806F 		cmp	r3, #67108864
 1891 0d74 39D1     		bne	.L152
 1892              		.loc 1 1144 0
 1893 0d76 3E4B     		ldr	r3, .L228
 1894 0d78 1B68     		ldr	r3, [r3]
 1895 0d7a 03F00063 		and	r3, r3, #134217728
 1896 0d7e 002B     		cmp	r3, #0
 1897 0d80 30D0     		beq	.L153
 1898              		.loc 1 1144 0 is_stmt 0 discriminator 1
 1899 0d82 3B4B     		ldr	r3, .L228
 1900 0d84 1B69     		ldr	r3, [r3, #16]
 1901 0d86 03F48013 		and	r3, r3, #1048576
 1902 0d8a 002B     		cmp	r3, #0
 1903 0d8c 2AD0     		beq	.L153
 1904              		.loc 1 1147 0 is_stmt 1
 1905 0d8e 384B     		ldr	r3, .L228
 1906 0d90 1B69     		ldr	r3, [r3, #16]
 1907 0d92 03F4FE42 		and	r2, r3, #32512
 1908 0d96 4FF4FE43 		mov	r3, #32512
 1909 0d9a 0E93     		str	r3, [sp, #56]
 1910              	.LBB118:
 1911              	.LBB119:
 1912              		.loc 2 586 0
 1913 0d9c 0E9B     		ldr	r3, [sp, #56]
 1914              	@ 586 "../../../../../../ChibiOS/os/ext/CMSIS/include/core_cmInstr.h" 1
 1915 0d9e 93FAA3F3 		rbit r3, r3
 1916              	@ 0 "" 2
 1917              		.thumb
 1918 0da2 0D93     		str	r3, [sp, #52]
 1919              		.loc 2 599 0
 1920 0da4 0D9B     		ldr	r3, [sp, #52]
 1921              	.LBE119:
 1922              	.LBE118:
 1923              		.loc 1 1147 0
 1924 0da6 B3FA83F3 		clz	r3, r3
 1925 0daa 22FA03F3 		lsr	r3, r2, r3
 1926 0dae 1B93     		str	r3, [sp, #108]
 1927              		.loc 1 1148 0
 1928 0db0 1D9B     		ldr	r3, [sp, #116]
 1929 0db2 1B9A     		ldr	r2, [sp, #108]
 1930 0db4 02FB03F2 		mul	r2, r2, r3
 1931 0db8 2D4B     		ldr	r3, .L228
 1932 0dba 1B69     		ldr	r3, [r3, #16]
 1933 0dbc 03F4C001 		and	r1, r3, #6291456
 1934 0dc0 4FF4C003 		mov	r3, #6291456
ARM GAS  /tmp/ccJqmpZo.s 			page 35


 1935 0dc4 0C93     		str	r3, [sp, #48]
 1936              	.LBB120:
 1937              	.LBB121:
 1938              		.loc 2 586 0
 1939 0dc6 0C9B     		ldr	r3, [sp, #48]
 1940              	@ 586 "../../../../../../ChibiOS/os/ext/CMSIS/include/core_cmInstr.h" 1
 1941 0dc8 93FAA3F3 		rbit r3, r3
 1942              	@ 0 "" 2
 1943              		.thumb
 1944 0dcc 0B93     		str	r3, [sp, #44]
 1945              		.loc 2 599 0
 1946 0dce 0B9B     		ldr	r3, [sp, #44]
 1947              	.LBE121:
 1948              	.LBE120:
 1949              		.loc 1 1148 0
 1950 0dd0 B3FA83F3 		clz	r3, r3
 1951 0dd4 21FA03F3 		lsr	r3, r1, r3
 1952 0dd8 0133     		adds	r3, r3, #1
 1953 0dda 5B00     		lsls	r3, r3, #1
 1954 0ddc B2FBF3F3 		udiv	r3, r2, r3
 1955 0de0 1F93     		str	r3, [sp, #124]
 1956 0de2 05E0     		b	.L146
 1957              	.L153:
 1958              		.loc 1 1152 0
 1959 0de4 0023     		movs	r3, #0
 1960 0de6 1F93     		str	r3, [sp, #124]
 1961 0de8 02E0     		b	.L146
 1962              	.L152:
 1963              		.loc 1 1167 0
 1964 0dea 0023     		movs	r3, #0
 1965 0dec 1F93     		str	r3, [sp, #124]
 1966              		.loc 1 1170 0
 1967 0dee D6E2     		b	.L82
 1968              	.L146:
 1969 0df0 D5E2     		b	.L82
 1970              	.L103:
 1971              		.loc 1 1174 0
 1972 0df2 1F4B     		ldr	r3, .L228
 1973 0df4 D3F88830 		ldr	r3, [r3, #136]
 1974 0df8 03F00303 		and	r3, r3, #3
 1975 0dfc 1E93     		str	r3, [sp, #120]
 1976              		.loc 1 1176 0
 1977 0dfe 1E9B     		ldr	r3, [sp, #120]
 1978 0e00 002B     		cmp	r3, #0
 1979 0e02 03D1     		bne	.L157
 1980              		.loc 1 1178 0
 1981 0e04 FFF7FEFF 		bl	HAL_RCC_GetPCLK2Freq
 1982 0e08 1F90     		str	r0, [sp, #124]
 1983 0e0a 23E0     		b	.L158
 1984              	.L157:
 1985              		.loc 1 1180 0
 1986 0e0c 1E9B     		ldr	r3, [sp, #120]
 1987 0e0e 012B     		cmp	r3, #1
 1988 0e10 03D1     		bne	.L159
 1989              		.loc 1 1182 0
 1990 0e12 FFF7FEFF 		bl	HAL_RCC_GetSysClockFreq
 1991 0e16 1F90     		str	r0, [sp, #124]
ARM GAS  /tmp/ccJqmpZo.s 			page 36


 1992 0e18 1CE0     		b	.L158
 1993              	.L159:
 1994              		.loc 1 1184 0
 1995 0e1a 1E9B     		ldr	r3, [sp, #120]
 1996 0e1c 022B     		cmp	r3, #2
 1997 0e1e 08D1     		bne	.L160
 1998              		.loc 1 1184 0 is_stmt 0 discriminator 1
 1999 0e20 134B     		ldr	r3, .L228
 2000 0e22 1B68     		ldr	r3, [r3]
 2001 0e24 03F48063 		and	r3, r3, #1024
 2002 0e28 002B     		cmp	r3, #0
 2003 0e2a 02D0     		beq	.L160
 2004              		.loc 1 1186 0 is_stmt 1
 2005 0e2c 124B     		ldr	r3, .L228+8
 2006 0e2e 1F93     		str	r3, [sp, #124]
 2007 0e30 10E0     		b	.L158
 2008              	.L160:
 2009              		.loc 1 1188 0
 2010 0e32 1E9B     		ldr	r3, [sp, #120]
 2011 0e34 032B     		cmp	r3, #3
 2012 0e36 0AD1     		bne	.L161
 2013              		.loc 1 1188 0 is_stmt 0 discriminator 1
 2014 0e38 0D4B     		ldr	r3, .L228
 2015 0e3a D3F89030 		ldr	r3, [r3, #144]
 2016 0e3e 03F00203 		and	r3, r3, #2
 2017 0e42 002B     		cmp	r3, #0
 2018 0e44 03D0     		beq	.L161
 2019              		.loc 1 1190 0 is_stmt 1
 2020 0e46 4FF40043 		mov	r3, #32768
 2021 0e4a 1F93     		str	r3, [sp, #124]
 2022 0e4c 02E0     		b	.L158
 2023              	.L161:
 2024              		.loc 1 1195 0
 2025 0e4e 0023     		movs	r3, #0
 2026 0e50 1F93     		str	r3, [sp, #124]
 2027              		.loc 1 1197 0
 2028 0e52 A4E2     		b	.L82
 2029              	.L158:
 2030 0e54 A3E2     		b	.L82
 2031              	.L101:
 2032              		.loc 1 1201 0
 2033 0e56 064B     		ldr	r3, .L228
 2034 0e58 D3F88830 		ldr	r3, [r3, #136]
 2035 0e5c 03F00C03 		and	r3, r3, #12
 2036 0e60 1E93     		str	r3, [sp, #120]
 2037              		.loc 1 1203 0
 2038 0e62 1E9B     		ldr	r3, [sp, #120]
 2039 0e64 002B     		cmp	r3, #0
 2040 0e66 09D1     		bne	.L162
 2041              		.loc 1 1205 0
 2042 0e68 FFF7FEFF 		bl	HAL_RCC_GetPCLK1Freq
 2043 0e6c 1F90     		str	r0, [sp, #124]
 2044 0e6e 29E0     		b	.L163
 2045              	.L229:
 2046              		.align	2
 2047              	.L228:
 2048 0e70 00100240 		.word	1073876992
ARM GAS  /tmp/ccJqmpZo.s 			page 37


 2049 0e74 40420F00 		.word	1000000
 2050 0e78 0024F400 		.word	16000000
 2051              	.L162:
 2052              		.loc 1 1207 0
 2053 0e7c 1E9B     		ldr	r3, [sp, #120]
 2054 0e7e 042B     		cmp	r3, #4
 2055 0e80 03D1     		bne	.L164
 2056              		.loc 1 1209 0
 2057 0e82 FFF7FEFF 		bl	HAL_RCC_GetSysClockFreq
 2058 0e86 1F90     		str	r0, [sp, #124]
 2059 0e88 1CE0     		b	.L163
 2060              	.L164:
 2061              		.loc 1 1211 0
 2062 0e8a 1E9B     		ldr	r3, [sp, #120]
 2063 0e8c 082B     		cmp	r3, #8
 2064 0e8e 08D1     		bne	.L165
 2065              		.loc 1 1211 0 is_stmt 0 discriminator 1
 2066 0e90 954B     		ldr	r3, .L230
 2067 0e92 1B68     		ldr	r3, [r3]
 2068 0e94 03F48063 		and	r3, r3, #1024
 2069 0e98 002B     		cmp	r3, #0
 2070 0e9a 02D0     		beq	.L165
 2071              		.loc 1 1213 0 is_stmt 1
 2072 0e9c 934B     		ldr	r3, .L230+4
 2073 0e9e 1F93     		str	r3, [sp, #124]
 2074 0ea0 10E0     		b	.L163
 2075              	.L165:
 2076              		.loc 1 1215 0
 2077 0ea2 1E9B     		ldr	r3, [sp, #120]
 2078 0ea4 0C2B     		cmp	r3, #12
 2079 0ea6 0AD1     		bne	.L166
 2080              		.loc 1 1215 0 is_stmt 0 discriminator 1
 2081 0ea8 8F4B     		ldr	r3, .L230
 2082 0eaa D3F89030 		ldr	r3, [r3, #144]
 2083 0eae 03F00203 		and	r3, r3, #2
 2084 0eb2 002B     		cmp	r3, #0
 2085 0eb4 03D0     		beq	.L166
 2086              		.loc 1 1217 0 is_stmt 1
 2087 0eb6 4FF40043 		mov	r3, #32768
 2088 0eba 1F93     		str	r3, [sp, #124]
 2089 0ebc 02E0     		b	.L163
 2090              	.L166:
 2091              		.loc 1 1222 0
 2092 0ebe 0023     		movs	r3, #0
 2093 0ec0 1F93     		str	r3, [sp, #124]
 2094              		.loc 1 1224 0
 2095 0ec2 6CE2     		b	.L82
 2096              	.L163:
 2097 0ec4 6BE2     		b	.L82
 2098              	.L104:
 2099              		.loc 1 1230 0
 2100 0ec6 884B     		ldr	r3, .L230
 2101 0ec8 D3F88830 		ldr	r3, [r3, #136]
 2102 0ecc 03F03003 		and	r3, r3, #48
 2103 0ed0 1E93     		str	r3, [sp, #120]
 2104              		.loc 1 1232 0
 2105 0ed2 1E9B     		ldr	r3, [sp, #120]
ARM GAS  /tmp/ccJqmpZo.s 			page 38


 2106 0ed4 002B     		cmp	r3, #0
 2107 0ed6 03D1     		bne	.L167
 2108              		.loc 1 1234 0
 2109 0ed8 FFF7FEFF 		bl	HAL_RCC_GetPCLK1Freq
 2110 0edc 1F90     		str	r0, [sp, #124]
 2111 0ede 23E0     		b	.L168
 2112              	.L167:
 2113              		.loc 1 1236 0
 2114 0ee0 1E9B     		ldr	r3, [sp, #120]
 2115 0ee2 102B     		cmp	r3, #16
 2116 0ee4 03D1     		bne	.L169
 2117              		.loc 1 1238 0
 2118 0ee6 FFF7FEFF 		bl	HAL_RCC_GetSysClockFreq
 2119 0eea 1F90     		str	r0, [sp, #124]
 2120 0eec 1CE0     		b	.L168
 2121              	.L169:
 2122              		.loc 1 1240 0
 2123 0eee 1E9B     		ldr	r3, [sp, #120]
 2124 0ef0 202B     		cmp	r3, #32
 2125 0ef2 08D1     		bne	.L170
 2126              		.loc 1 1240 0 is_stmt 0 discriminator 1
 2127 0ef4 7C4B     		ldr	r3, .L230
 2128 0ef6 1B68     		ldr	r3, [r3]
 2129 0ef8 03F48063 		and	r3, r3, #1024
 2130 0efc 002B     		cmp	r3, #0
 2131 0efe 02D0     		beq	.L170
 2132              		.loc 1 1242 0 is_stmt 1
 2133 0f00 7A4B     		ldr	r3, .L230+4
 2134 0f02 1F93     		str	r3, [sp, #124]
 2135 0f04 10E0     		b	.L168
 2136              	.L170:
 2137              		.loc 1 1244 0
 2138 0f06 1E9B     		ldr	r3, [sp, #120]
 2139 0f08 302B     		cmp	r3, #48
 2140 0f0a 0AD1     		bne	.L171
 2141              		.loc 1 1244 0 is_stmt 0 discriminator 1
 2142 0f0c 764B     		ldr	r3, .L230
 2143 0f0e D3F89030 		ldr	r3, [r3, #144]
 2144 0f12 03F00203 		and	r3, r3, #2
 2145 0f16 002B     		cmp	r3, #0
 2146 0f18 03D0     		beq	.L171
 2147              		.loc 1 1246 0 is_stmt 1
 2148 0f1a 4FF40043 		mov	r3, #32768
 2149 0f1e 1F93     		str	r3, [sp, #124]
 2150 0f20 02E0     		b	.L168
 2151              	.L171:
 2152              		.loc 1 1251 0
 2153 0f22 0023     		movs	r3, #0
 2154 0f24 1F93     		str	r3, [sp, #124]
 2155              		.loc 1 1253 0
 2156 0f26 3AE2     		b	.L82
 2157              	.L168:
 2158 0f28 39E2     		b	.L82
 2159              	.L105:
 2160              		.loc 1 1261 0
 2161 0f2a 6F4B     		ldr	r3, .L230
 2162 0f2c D3F88830 		ldr	r3, [r3, #136]
ARM GAS  /tmp/ccJqmpZo.s 			page 39


 2163 0f30 03F0C003 		and	r3, r3, #192
 2164 0f34 1E93     		str	r3, [sp, #120]
 2165              		.loc 1 1263 0
 2166 0f36 1E9B     		ldr	r3, [sp, #120]
 2167 0f38 002B     		cmp	r3, #0
 2168 0f3a 03D1     		bne	.L172
 2169              		.loc 1 1265 0
 2170 0f3c FFF7FEFF 		bl	HAL_RCC_GetPCLK1Freq
 2171 0f40 1F90     		str	r0, [sp, #124]
 2172 0f42 23E0     		b	.L173
 2173              	.L172:
 2174              		.loc 1 1267 0
 2175 0f44 1E9B     		ldr	r3, [sp, #120]
 2176 0f46 402B     		cmp	r3, #64
 2177 0f48 03D1     		bne	.L174
 2178              		.loc 1 1269 0
 2179 0f4a FFF7FEFF 		bl	HAL_RCC_GetSysClockFreq
 2180 0f4e 1F90     		str	r0, [sp, #124]
 2181 0f50 1CE0     		b	.L173
 2182              	.L174:
 2183              		.loc 1 1271 0
 2184 0f52 1E9B     		ldr	r3, [sp, #120]
 2185 0f54 802B     		cmp	r3, #128
 2186 0f56 08D1     		bne	.L175
 2187              		.loc 1 1271 0 is_stmt 0 discriminator 1
 2188 0f58 634B     		ldr	r3, .L230
 2189 0f5a 1B68     		ldr	r3, [r3]
 2190 0f5c 03F48063 		and	r3, r3, #1024
 2191 0f60 002B     		cmp	r3, #0
 2192 0f62 02D0     		beq	.L175
 2193              		.loc 1 1273 0 is_stmt 1
 2194 0f64 614B     		ldr	r3, .L230+4
 2195 0f66 1F93     		str	r3, [sp, #124]
 2196 0f68 10E0     		b	.L173
 2197              	.L175:
 2198              		.loc 1 1275 0
 2199 0f6a 1E9B     		ldr	r3, [sp, #120]
 2200 0f6c C02B     		cmp	r3, #192
 2201 0f6e 0AD1     		bne	.L176
 2202              		.loc 1 1275 0 is_stmt 0 discriminator 1
 2203 0f70 5D4B     		ldr	r3, .L230
 2204 0f72 D3F89030 		ldr	r3, [r3, #144]
 2205 0f76 03F00203 		and	r3, r3, #2
 2206 0f7a 002B     		cmp	r3, #0
 2207 0f7c 03D0     		beq	.L176
 2208              		.loc 1 1277 0 is_stmt 1
 2209 0f7e 4FF40043 		mov	r3, #32768
 2210 0f82 1F93     		str	r3, [sp, #124]
 2211 0f84 02E0     		b	.L173
 2212              	.L176:
 2213              		.loc 1 1282 0
 2214 0f86 0023     		movs	r3, #0
 2215 0f88 1F93     		str	r3, [sp, #124]
 2216              		.loc 1 1284 0
 2217 0f8a 08E2     		b	.L82
 2218              	.L173:
 2219 0f8c 07E2     		b	.L82
ARM GAS  /tmp/ccJqmpZo.s 			page 40


 2220              	.L99:
 2221              		.loc 1 1292 0
 2222 0f8e 564B     		ldr	r3, .L230
 2223 0f90 D3F88830 		ldr	r3, [r3, #136]
 2224 0f94 03F44073 		and	r3, r3, #768
 2225 0f98 1E93     		str	r3, [sp, #120]
 2226              		.loc 1 1294 0
 2227 0f9a 1E9B     		ldr	r3, [sp, #120]
 2228 0f9c 002B     		cmp	r3, #0
 2229 0f9e 03D1     		bne	.L177
 2230              		.loc 1 1296 0
 2231 0fa0 FFF7FEFF 		bl	HAL_RCC_GetPCLK1Freq
 2232 0fa4 1F90     		str	r0, [sp, #124]
 2233 0fa6 26E0     		b	.L178
 2234              	.L177:
 2235              		.loc 1 1298 0
 2236 0fa8 1E9B     		ldr	r3, [sp, #120]
 2237 0faa B3F5807F 		cmp	r3, #256
 2238 0fae 03D1     		bne	.L179
 2239              		.loc 1 1300 0
 2240 0fb0 FFF7FEFF 		bl	HAL_RCC_GetSysClockFreq
 2241 0fb4 1F90     		str	r0, [sp, #124]
 2242 0fb6 1EE0     		b	.L178
 2243              	.L179:
 2244              		.loc 1 1302 0
 2245 0fb8 1E9B     		ldr	r3, [sp, #120]
 2246 0fba B3F5007F 		cmp	r3, #512
 2247 0fbe 08D1     		bne	.L180
 2248              		.loc 1 1302 0 is_stmt 0 discriminator 1
 2249 0fc0 494B     		ldr	r3, .L230
 2250 0fc2 1B68     		ldr	r3, [r3]
 2251 0fc4 03F48063 		and	r3, r3, #1024
 2252 0fc8 002B     		cmp	r3, #0
 2253 0fca 02D0     		beq	.L180
 2254              		.loc 1 1304 0 is_stmt 1
 2255 0fcc 474B     		ldr	r3, .L230+4
 2256 0fce 1F93     		str	r3, [sp, #124]
 2257 0fd0 11E0     		b	.L178
 2258              	.L180:
 2259              		.loc 1 1306 0
 2260 0fd2 1E9B     		ldr	r3, [sp, #120]
 2261 0fd4 B3F5407F 		cmp	r3, #768
 2262 0fd8 0AD1     		bne	.L181
 2263              		.loc 1 1306 0 is_stmt 0 discriminator 1
 2264 0fda 434B     		ldr	r3, .L230
 2265 0fdc D3F89030 		ldr	r3, [r3, #144]
 2266 0fe0 03F00203 		and	r3, r3, #2
 2267 0fe4 002B     		cmp	r3, #0
 2268 0fe6 03D0     		beq	.L181
 2269              		.loc 1 1308 0 is_stmt 1
 2270 0fe8 4FF40043 		mov	r3, #32768
 2271 0fec 1F93     		str	r3, [sp, #124]
 2272 0fee 02E0     		b	.L178
 2273              	.L181:
 2274              		.loc 1 1313 0
 2275 0ff0 0023     		movs	r3, #0
 2276 0ff2 1F93     		str	r3, [sp, #124]
ARM GAS  /tmp/ccJqmpZo.s 			page 41


 2277              		.loc 1 1315 0
 2278 0ff4 D3E1     		b	.L82
 2279              	.L178:
 2280 0ff6 D2E1     		b	.L82
 2281              	.L108:
 2282              		.loc 1 1321 0
 2283 0ff8 3B4B     		ldr	r3, .L230
 2284 0ffa D3F88830 		ldr	r3, [r3, #136]
 2285 0ffe 03F44063 		and	r3, r3, #3072
 2286 1002 1E93     		str	r3, [sp, #120]
 2287              		.loc 1 1323 0
 2288 1004 1E9B     		ldr	r3, [sp, #120]
 2289 1006 002B     		cmp	r3, #0
 2290 1008 03D1     		bne	.L182
 2291              		.loc 1 1325 0
 2292 100a FFF7FEFF 		bl	HAL_RCC_GetPCLK1Freq
 2293 100e 1F90     		str	r0, [sp, #124]
 2294 1010 26E0     		b	.L183
 2295              	.L182:
 2296              		.loc 1 1327 0
 2297 1012 1E9B     		ldr	r3, [sp, #120]
 2298 1014 B3F5806F 		cmp	r3, #1024
 2299 1018 03D1     		bne	.L184
 2300              		.loc 1 1329 0
 2301 101a FFF7FEFF 		bl	HAL_RCC_GetSysClockFreq
 2302 101e 1F90     		str	r0, [sp, #124]
 2303 1020 1EE0     		b	.L183
 2304              	.L184:
 2305              		.loc 1 1331 0
 2306 1022 1E9B     		ldr	r3, [sp, #120]
 2307 1024 B3F5006F 		cmp	r3, #2048
 2308 1028 08D1     		bne	.L185
 2309              		.loc 1 1331 0 is_stmt 0 discriminator 1
 2310 102a 2F4B     		ldr	r3, .L230
 2311 102c 1B68     		ldr	r3, [r3]
 2312 102e 03F48063 		and	r3, r3, #1024
 2313 1032 002B     		cmp	r3, #0
 2314 1034 02D0     		beq	.L185
 2315              		.loc 1 1333 0 is_stmt 1
 2316 1036 2D4B     		ldr	r3, .L230+4
 2317 1038 1F93     		str	r3, [sp, #124]
 2318 103a 11E0     		b	.L183
 2319              	.L185:
 2320              		.loc 1 1335 0
 2321 103c 1E9B     		ldr	r3, [sp, #120]
 2322 103e B3F5406F 		cmp	r3, #3072
 2323 1042 0AD1     		bne	.L186
 2324              		.loc 1 1335 0 is_stmt 0 discriminator 1
 2325 1044 284B     		ldr	r3, .L230
 2326 1046 D3F89030 		ldr	r3, [r3, #144]
 2327 104a 03F00203 		and	r3, r3, #2
 2328 104e 002B     		cmp	r3, #0
 2329 1050 03D0     		beq	.L186
 2330              		.loc 1 1337 0 is_stmt 1
 2331 1052 4FF40043 		mov	r3, #32768
 2332 1056 1F93     		str	r3, [sp, #124]
 2333 1058 02E0     		b	.L183
ARM GAS  /tmp/ccJqmpZo.s 			page 42


 2334              	.L186:
 2335              		.loc 1 1342 0
 2336 105a 0023     		movs	r3, #0
 2337 105c 1F93     		str	r3, [sp, #124]
 2338              		.loc 1 1344 0
 2339 105e 9EE1     		b	.L82
 2340              	.L183:
 2341 1060 9DE1     		b	.L82
 2342              	.L111:
 2343              		.loc 1 1348 0
 2344 1062 214B     		ldr	r3, .L230
 2345 1064 D3F88830 		ldr	r3, [r3, #136]
 2346 1068 03F04053 		and	r3, r3, #805306368
 2347 106c 1E93     		str	r3, [sp, #120]
 2348              		.loc 1 1350 0
 2349 106e 1E9B     		ldr	r3, [sp, #120]
 2350 1070 B3F1405F 		cmp	r3, #805306368
 2351 1074 03D1     		bne	.L187
 2352              		.loc 1 1352 0
 2353 1076 FFF7FEFF 		bl	HAL_RCC_GetSysClockFreq
 2354 107a 1F90     		str	r0, [sp, #124]
 2355 107c 70E0     		b	.L188
 2356              	.L187:
 2357              		.loc 1 1354 0
 2358 107e 1E9B     		ldr	r3, [sp, #120]
 2359 1080 B3F1805F 		cmp	r3, #268435456
 2360 1084 34D1     		bne	.L189
 2361              		.loc 1 1356 0
 2362 1086 184B     		ldr	r3, .L230
 2363 1088 1B69     		ldr	r3, [r3, #16]
 2364 108a 03F08073 		and	r3, r3, #16777216
 2365 108e 002B     		cmp	r3, #0
 2366 1090 66D0     		beq	.L188
 2367              		.loc 1 1359 0
 2368 1092 154B     		ldr	r3, .L230
 2369 1094 1B69     		ldr	r3, [r3, #16]
 2370 1096 03F4FE42 		and	r2, r3, #32512
 2371 109a 4FF4FE43 		mov	r3, #32512
 2372 109e 0A93     		str	r3, [sp, #40]
 2373              	.LBB122:
 2374              	.LBB123:
 2375              		.loc 2 586 0
 2376 10a0 0A9B     		ldr	r3, [sp, #40]
 2377              	@ 586 "../../../../../../ChibiOS/os/ext/CMSIS/include/core_cmInstr.h" 1
 2378 10a2 93FAA3F3 		rbit r3, r3
 2379              	@ 0 "" 2
 2380              		.thumb
 2381 10a6 0993     		str	r3, [sp, #36]
 2382              		.loc 2 599 0
 2383 10a8 099B     		ldr	r3, [sp, #36]
 2384              	.LBE123:
 2385              	.LBE122:
 2386              		.loc 1 1359 0
 2387 10aa B3FA83F3 		clz	r3, r3
 2388 10ae 22FA03F3 		lsr	r3, r2, r3
 2389 10b2 1B93     		str	r3, [sp, #108]
 2390              		.loc 1 1360 0
ARM GAS  /tmp/ccJqmpZo.s 			page 43


 2391 10b4 1D9B     		ldr	r3, [sp, #116]
 2392 10b6 1B9A     		ldr	r2, [sp, #108]
 2393 10b8 02FB03F2 		mul	r2, r2, r3
 2394 10bc 0A4B     		ldr	r3, .L230
 2395 10be 1B69     		ldr	r3, [r3, #16]
 2396 10c0 03F0C061 		and	r1, r3, #100663296
 2397 10c4 4FF0C063 		mov	r3, #100663296
 2398 10c8 0893     		str	r3, [sp, #32]
 2399              	.LBB124:
 2400              	.LBB125:
 2401              		.loc 2 586 0
 2402 10ca 089B     		ldr	r3, [sp, #32]
 2403              	@ 586 "../../../../../../ChibiOS/os/ext/CMSIS/include/core_cmInstr.h" 1
 2404 10cc 93FAA3F3 		rbit r3, r3
 2405              	@ 0 "" 2
 2406              		.thumb
 2407 10d0 0793     		str	r3, [sp, #28]
 2408              		.loc 2 599 0
 2409 10d2 079B     		ldr	r3, [sp, #28]
 2410              	.LBE125:
 2411              	.LBE124:
 2412              		.loc 1 1360 0
 2413 10d4 B3FA83F3 		clz	r3, r3
 2414 10d8 21FA03F3 		lsr	r3, r1, r3
 2415 10dc 0133     		adds	r3, r3, #1
 2416 10de 5B00     		lsls	r3, r3, #1
 2417 10e0 B2FBF3F3 		udiv	r3, r2, r3
 2418 10e4 1F93     		str	r3, [sp, #124]
 2419              		.loc 1 1379 0
 2420 10e6 5AE1     		b	.L82
 2421              	.L231:
 2422              		.align	2
 2423              	.L230:
 2424 10e8 00100240 		.word	1073876992
 2425 10ec 0024F400 		.word	16000000
 2426              	.L189:
 2427              		.loc 1 1364 0
 2428 10f0 1E9B     		ldr	r3, [sp, #120]
 2429 10f2 B3F1005F 		cmp	r3, #536870912
 2430 10f6 30D1     		bne	.L193
 2431              		.loc 1 1366 0
 2432 10f8 A64B     		ldr	r3, .L232
 2433 10fa 5B69     		ldr	r3, [r3, #20]
 2434 10fc 03F08073 		and	r3, r3, #16777216
 2435 1100 002B     		cmp	r3, #0
 2436 1102 2DD0     		beq	.L188
 2437              		.loc 1 1369 0
 2438 1104 A34B     		ldr	r3, .L232
 2439 1106 5B69     		ldr	r3, [r3, #20]
 2440 1108 03F4FE42 		and	r2, r3, #32512
 2441 110c 4FF4FE43 		mov	r3, #32512
 2442 1110 0693     		str	r3, [sp, #24]
 2443              	.LBB126:
 2444              	.LBB127:
 2445              		.loc 2 586 0
 2446 1112 069B     		ldr	r3, [sp, #24]
 2447              	@ 586 "../../../../../../ChibiOS/os/ext/CMSIS/include/core_cmInstr.h" 1
ARM GAS  /tmp/ccJqmpZo.s 			page 44


 2448 1114 93FAA3F3 		rbit r3, r3
 2449              	@ 0 "" 2
 2450              		.thumb
 2451 1118 0593     		str	r3, [sp, #20]
 2452              		.loc 2 599 0
 2453 111a 059B     		ldr	r3, [sp, #20]
 2454              	.LBE127:
 2455              	.LBE126:
 2456              		.loc 1 1369 0
 2457 111c B3FA83F3 		clz	r3, r3
 2458 1120 22FA03F3 		lsr	r3, r2, r3
 2459 1124 1B93     		str	r3, [sp, #108]
 2460              		.loc 1 1370 0
 2461 1126 1D9B     		ldr	r3, [sp, #116]
 2462 1128 1B9A     		ldr	r2, [sp, #108]
 2463 112a 02FB03F2 		mul	r2, r2, r3
 2464 112e 994B     		ldr	r3, .L232
 2465 1130 5B69     		ldr	r3, [r3, #20]
 2466 1132 03F0C061 		and	r1, r3, #100663296
 2467 1136 4FF0C063 		mov	r3, #100663296
 2468 113a 0493     		str	r3, [sp, #16]
 2469              	.LBB128:
 2470              	.LBB129:
 2471              		.loc 2 586 0
 2472 113c 049B     		ldr	r3, [sp, #16]
 2473              	@ 586 "../../../../../../ChibiOS/os/ext/CMSIS/include/core_cmInstr.h" 1
 2474 113e 93FAA3F3 		rbit r3, r3
 2475              	@ 0 "" 2
 2476              		.thumb
 2477 1142 0393     		str	r3, [sp, #12]
 2478              		.loc 2 599 0
 2479 1144 039B     		ldr	r3, [sp, #12]
 2480              	.LBE129:
 2481              	.LBE128:
 2482              		.loc 1 1370 0
 2483 1146 B3FA83F3 		clz	r3, r3
 2484 114a 21FA03F3 		lsr	r3, r1, r3
 2485 114e 0133     		adds	r3, r3, #1
 2486 1150 5B00     		lsls	r3, r3, #1
 2487 1152 B2FBF3F3 		udiv	r3, r2, r3
 2488 1156 1F93     		str	r3, [sp, #124]
 2489              		.loc 1 1379 0
 2490 1158 21E1     		b	.L82
 2491              	.L193:
 2492              		.loc 1 1377 0
 2493 115a 0023     		movs	r3, #0
 2494 115c 1F93     		str	r3, [sp, #124]
 2495              		.loc 1 1379 0
 2496 115e 1EE1     		b	.L82
 2497              	.L188:
 2498 1160 1DE1     		b	.L82
 2499              	.L117:
 2500              		.loc 1 1385 0
 2501 1162 8C4B     		ldr	r3, .L232
 2502 1164 D3F88830 		ldr	r3, [r3, #136]
 2503 1168 03F00043 		and	r3, r3, #-2147483648
 2504 116c 1E93     		str	r3, [sp, #120]
ARM GAS  /tmp/ccJqmpZo.s 			page 45


 2505              		.loc 1 1387 0
 2506 116e 1E9B     		ldr	r3, [sp, #120]
 2507 1170 002B     		cmp	r3, #0
 2508 1172 03D1     		bne	.L197
 2509              		.loc 1 1389 0
 2510 1174 FFF7FEFF 		bl	HAL_RCC_GetPCLK1Freq
 2511 1178 1F90     		str	r0, [sp, #124]
 2512              		.loc 1 1395 0
 2513 117a 10E1     		b	.L82
 2514              	.L197:
 2515              		.loc 1 1393 0
 2516 117c FFF7FEFF 		bl	HAL_RCC_GetSysClockFreq
 2517 1180 1F90     		str	r0, [sp, #124]
 2518              		.loc 1 1395 0
 2519 1182 0CE1     		b	.L82
 2520              	.L106:
 2521              		.loc 1 1401 0
 2522 1184 834B     		ldr	r3, .L232
 2523 1186 D3F88830 		ldr	r3, [r3, #136]
 2524 118a 03F44053 		and	r3, r3, #12288
 2525 118e 1E93     		str	r3, [sp, #120]
 2526              		.loc 1 1403 0
 2527 1190 1E9B     		ldr	r3, [sp, #120]
 2528 1192 002B     		cmp	r3, #0
 2529 1194 03D1     		bne	.L199
 2530              		.loc 1 1405 0
 2531 1196 FFF7FEFF 		bl	HAL_RCC_GetPCLK1Freq
 2532 119a 1F90     		str	r0, [sp, #124]
 2533 119c 17E0     		b	.L200
 2534              	.L199:
 2535              		.loc 1 1407 0
 2536 119e 1E9B     		ldr	r3, [sp, #120]
 2537 11a0 B3F5805F 		cmp	r3, #4096
 2538 11a4 03D1     		bne	.L201
 2539              		.loc 1 1409 0
 2540 11a6 FFF7FEFF 		bl	HAL_RCC_GetSysClockFreq
 2541 11aa 1F90     		str	r0, [sp, #124]
 2542 11ac 0FE0     		b	.L200
 2543              	.L201:
 2544              		.loc 1 1411 0
 2545 11ae 1E9B     		ldr	r3, [sp, #120]
 2546 11b0 B3F5005F 		cmp	r3, #8192
 2547 11b4 08D1     		bne	.L202
 2548              		.loc 1 1411 0 is_stmt 0 discriminator 1
 2549 11b6 774B     		ldr	r3, .L232
 2550 11b8 1B68     		ldr	r3, [r3]
 2551 11ba 03F48063 		and	r3, r3, #1024
 2552 11be 002B     		cmp	r3, #0
 2553 11c0 02D0     		beq	.L202
 2554              		.loc 1 1413 0 is_stmt 1
 2555 11c2 754B     		ldr	r3, .L232+4
 2556 11c4 1F93     		str	r3, [sp, #124]
 2557 11c6 02E0     		b	.L200
 2558              	.L202:
 2559              		.loc 1 1418 0
 2560 11c8 0023     		movs	r3, #0
 2561 11ca 1F93     		str	r3, [sp, #124]
ARM GAS  /tmp/ccJqmpZo.s 			page 46


 2562              		.loc 1 1420 0
 2563 11cc E7E0     		b	.L82
 2564              	.L200:
 2565 11ce E6E0     		b	.L82
 2566              	.L109:
 2567              		.loc 1 1426 0
 2568 11d0 704B     		ldr	r3, .L232
 2569 11d2 D3F88830 		ldr	r3, [r3, #136]
 2570 11d6 03F44043 		and	r3, r3, #49152
 2571 11da 1E93     		str	r3, [sp, #120]
 2572              		.loc 1 1428 0
 2573 11dc 1E9B     		ldr	r3, [sp, #120]
 2574 11de 002B     		cmp	r3, #0
 2575 11e0 03D1     		bne	.L203
 2576              		.loc 1 1430 0
 2577 11e2 FFF7FEFF 		bl	HAL_RCC_GetPCLK1Freq
 2578 11e6 1F90     		str	r0, [sp, #124]
 2579 11e8 17E0     		b	.L204
 2580              	.L203:
 2581              		.loc 1 1432 0
 2582 11ea 1E9B     		ldr	r3, [sp, #120]
 2583 11ec B3F5804F 		cmp	r3, #16384
 2584 11f0 03D1     		bne	.L205
 2585              		.loc 1 1434 0
 2586 11f2 FFF7FEFF 		bl	HAL_RCC_GetSysClockFreq
 2587 11f6 1F90     		str	r0, [sp, #124]
 2588 11f8 0FE0     		b	.L204
 2589              	.L205:
 2590              		.loc 1 1436 0
 2591 11fa 1E9B     		ldr	r3, [sp, #120]
 2592 11fc B3F5004F 		cmp	r3, #32768
 2593 1200 08D1     		bne	.L206
 2594              		.loc 1 1436 0 is_stmt 0 discriminator 1
 2595 1202 644B     		ldr	r3, .L232
 2596 1204 1B68     		ldr	r3, [r3]
 2597 1206 03F48063 		and	r3, r3, #1024
 2598 120a 002B     		cmp	r3, #0
 2599 120c 02D0     		beq	.L206
 2600              		.loc 1 1438 0 is_stmt 1
 2601 120e 624B     		ldr	r3, .L232+4
 2602 1210 1F93     		str	r3, [sp, #124]
 2603 1212 02E0     		b	.L204
 2604              	.L206:
 2605              		.loc 1 1443 0
 2606 1214 0023     		movs	r3, #0
 2607 1216 1F93     		str	r3, [sp, #124]
 2608              		.loc 1 1445 0
 2609 1218 C1E0     		b	.L82
 2610              	.L204:
 2611 121a C0E0     		b	.L82
 2612              	.L110:
 2613              		.loc 1 1451 0
 2614 121c 5D4B     		ldr	r3, .L232
 2615 121e D3F88830 		ldr	r3, [r3, #136]
 2616 1222 03F44033 		and	r3, r3, #196608
 2617 1226 1E93     		str	r3, [sp, #120]
 2618              		.loc 1 1453 0
ARM GAS  /tmp/ccJqmpZo.s 			page 47


 2619 1228 1E9B     		ldr	r3, [sp, #120]
 2620 122a 002B     		cmp	r3, #0
 2621 122c 03D1     		bne	.L207
 2622              		.loc 1 1455 0
 2623 122e FFF7FEFF 		bl	HAL_RCC_GetPCLK1Freq
 2624 1232 1F90     		str	r0, [sp, #124]
 2625 1234 17E0     		b	.L208
 2626              	.L207:
 2627              		.loc 1 1457 0
 2628 1236 1E9B     		ldr	r3, [sp, #120]
 2629 1238 B3F5803F 		cmp	r3, #65536
 2630 123c 03D1     		bne	.L209
 2631              		.loc 1 1459 0
 2632 123e FFF7FEFF 		bl	HAL_RCC_GetSysClockFreq
 2633 1242 1F90     		str	r0, [sp, #124]
 2634 1244 0FE0     		b	.L208
 2635              	.L209:
 2636              		.loc 1 1461 0
 2637 1246 1E9B     		ldr	r3, [sp, #120]
 2638 1248 B3F5003F 		cmp	r3, #131072
 2639 124c 08D1     		bne	.L210
 2640              		.loc 1 1461 0 is_stmt 0 discriminator 1
 2641 124e 514B     		ldr	r3, .L232
 2642 1250 1B68     		ldr	r3, [r3]
 2643 1252 03F48063 		and	r3, r3, #1024
 2644 1256 002B     		cmp	r3, #0
 2645 1258 02D0     		beq	.L210
 2646              		.loc 1 1463 0 is_stmt 1
 2647 125a 4F4B     		ldr	r3, .L232+4
 2648 125c 1F93     		str	r3, [sp, #124]
 2649 125e 02E0     		b	.L208
 2650              	.L210:
 2651              		.loc 1 1468 0
 2652 1260 0023     		movs	r3, #0
 2653 1262 1F93     		str	r3, [sp, #124]
 2654              		.loc 1 1470 0
 2655 1264 9BE0     		b	.L82
 2656              	.L208:
 2657 1266 9AE0     		b	.L82
 2658              	.L97:
 2659              		.loc 1 1474 0
 2660 1268 4A4B     		ldr	r3, .L232
 2661 126a D3F88830 		ldr	r3, [r3, #136]
 2662 126e 03F44023 		and	r3, r3, #786432
 2663 1272 1E93     		str	r3, [sp, #120]
 2664              		.loc 1 1476 0
 2665 1274 1E9B     		ldr	r3, [sp, #120]
 2666 1276 002B     		cmp	r3, #0
 2667 1278 03D1     		bne	.L211
 2668              		.loc 1 1478 0
 2669 127a FFF7FEFF 		bl	HAL_RCC_GetPCLK1Freq
 2670 127e 1F90     		str	r0, [sp, #124]
 2671 1280 2DE0     		b	.L212
 2672              	.L211:
 2673              		.loc 1 1480 0
 2674 1282 1E9B     		ldr	r3, [sp, #120]
 2675 1284 B3F5802F 		cmp	r3, #262144
ARM GAS  /tmp/ccJqmpZo.s 			page 48


 2676 1288 0AD1     		bne	.L213
 2677              		.loc 1 1480 0 is_stmt 0 discriminator 1
 2678 128a 424B     		ldr	r3, .L232
 2679 128c D3F89430 		ldr	r3, [r3, #148]
 2680 1290 03F00203 		and	r3, r3, #2
 2681 1294 002B     		cmp	r3, #0
 2682 1296 03D0     		beq	.L213
 2683              		.loc 1 1482 0 is_stmt 1
 2684 1298 4FF4FA43 		mov	r3, #32000
 2685 129c 1F93     		str	r3, [sp, #124]
 2686 129e 1EE0     		b	.L212
 2687              	.L213:
 2688              		.loc 1 1484 0
 2689 12a0 1E9B     		ldr	r3, [sp, #120]
 2690 12a2 B3F5002F 		cmp	r3, #524288
 2691 12a6 08D1     		bne	.L214
 2692              		.loc 1 1484 0 is_stmt 0 discriminator 1
 2693 12a8 3A4B     		ldr	r3, .L232
 2694 12aa 1B68     		ldr	r3, [r3]
 2695 12ac 03F48063 		and	r3, r3, #1024
 2696 12b0 002B     		cmp	r3, #0
 2697 12b2 02D0     		beq	.L214
 2698              		.loc 1 1486 0 is_stmt 1
 2699 12b4 384B     		ldr	r3, .L232+4
 2700 12b6 1F93     		str	r3, [sp, #124]
 2701 12b8 11E0     		b	.L212
 2702              	.L214:
 2703              		.loc 1 1488 0
 2704 12ba 1E9B     		ldr	r3, [sp, #120]
 2705 12bc B3F5402F 		cmp	r3, #786432
 2706 12c0 0AD1     		bne	.L215
 2707              		.loc 1 1488 0 is_stmt 0 discriminator 1
 2708 12c2 344B     		ldr	r3, .L232
 2709 12c4 D3F89030 		ldr	r3, [r3, #144]
 2710 12c8 03F00203 		and	r3, r3, #2
 2711 12cc 002B     		cmp	r3, #0
 2712 12ce 03D0     		beq	.L215
 2713              		.loc 1 1490 0 is_stmt 1
 2714 12d0 4FF40043 		mov	r3, #32768
 2715 12d4 1F93     		str	r3, [sp, #124]
 2716 12d6 02E0     		b	.L212
 2717              	.L215:
 2718              		.loc 1 1495 0
 2719 12d8 0023     		movs	r3, #0
 2720 12da 1F93     		str	r3, [sp, #124]
 2721              		.loc 1 1497 0
 2722 12dc 5FE0     		b	.L82
 2723              	.L212:
 2724 12de 5EE0     		b	.L82
 2725              	.L115:
 2726              		.loc 1 1501 0
 2727 12e0 2C4B     		ldr	r3, .L232
 2728 12e2 D3F88830 		ldr	r3, [r3, #136]
 2729 12e6 03F44013 		and	r3, r3, #3145728
 2730 12ea 1E93     		str	r3, [sp, #120]
 2731              		.loc 1 1503 0
 2732 12ec 1E9B     		ldr	r3, [sp, #120]
ARM GAS  /tmp/ccJqmpZo.s 			page 49


 2733 12ee 002B     		cmp	r3, #0
 2734 12f0 03D1     		bne	.L216
 2735              		.loc 1 1505 0
 2736 12f2 FFF7FEFF 		bl	HAL_RCC_GetPCLK1Freq
 2737 12f6 1F90     		str	r0, [sp, #124]
 2738 12f8 2DE0     		b	.L217
 2739              	.L216:
 2740              		.loc 1 1507 0
 2741 12fa 1E9B     		ldr	r3, [sp, #120]
 2742 12fc B3F5801F 		cmp	r3, #1048576
 2743 1300 0AD1     		bne	.L218
 2744              		.loc 1 1507 0 is_stmt 0 discriminator 1
 2745 1302 244B     		ldr	r3, .L232
 2746 1304 D3F89430 		ldr	r3, [r3, #148]
 2747 1308 03F00203 		and	r3, r3, #2
 2748 130c 002B     		cmp	r3, #0
 2749 130e 03D0     		beq	.L218
 2750              		.loc 1 1509 0 is_stmt 1
 2751 1310 4FF4FA43 		mov	r3, #32000
 2752 1314 1F93     		str	r3, [sp, #124]
 2753 1316 1EE0     		b	.L217
 2754              	.L218:
 2755              		.loc 1 1511 0
 2756 1318 1E9B     		ldr	r3, [sp, #120]
 2757 131a B3F5001F 		cmp	r3, #2097152
 2758 131e 08D1     		bne	.L219
 2759              		.loc 1 1511 0 is_stmt 0 discriminator 1
 2760 1320 1C4B     		ldr	r3, .L232
 2761 1322 1B68     		ldr	r3, [r3]
 2762 1324 03F48063 		and	r3, r3, #1024
 2763 1328 002B     		cmp	r3, #0
 2764 132a 02D0     		beq	.L219
 2765              		.loc 1 1513 0 is_stmt 1
 2766 132c 1A4B     		ldr	r3, .L232+4
 2767 132e 1F93     		str	r3, [sp, #124]
 2768 1330 11E0     		b	.L217
 2769              	.L219:
 2770              		.loc 1 1515 0
 2771 1332 1E9B     		ldr	r3, [sp, #120]
 2772 1334 B3F5401F 		cmp	r3, #3145728
 2773 1338 0AD1     		bne	.L220
 2774              		.loc 1 1515 0 is_stmt 0 discriminator 1
 2775 133a 164B     		ldr	r3, .L232
 2776 133c D3F89030 		ldr	r3, [r3, #144]
 2777 1340 03F00203 		and	r3, r3, #2
 2778 1344 002B     		cmp	r3, #0
 2779 1346 03D0     		beq	.L220
 2780              		.loc 1 1517 0 is_stmt 1
 2781 1348 4FF40043 		mov	r3, #32768
 2782 134c 1F93     		str	r3, [sp, #124]
 2783 134e 02E0     		b	.L217
 2784              	.L220:
 2785              		.loc 1 1522 0
 2786 1350 0023     		movs	r3, #0
 2787 1352 1F93     		str	r3, [sp, #124]
 2788              		.loc 1 1524 0
 2789 1354 23E0     		b	.L82
ARM GAS  /tmp/ccJqmpZo.s 			page 50


 2790              	.L217:
 2791 1356 22E0     		b	.L82
 2792              	.L119:
 2793              		.loc 1 1530 0
 2794 1358 0E4B     		ldr	r3, .L232
 2795 135a D3F88830 		ldr	r3, [r3, #136]
 2796 135e 03F08043 		and	r3, r3, #1073741824
 2797 1362 1E93     		str	r3, [sp, #120]
 2798              		.loc 1 1532 0
 2799 1364 1E9B     		ldr	r3, [sp, #120]
 2800 1366 002B     		cmp	r3, #0
 2801 1368 03D1     		bne	.L221
 2802              		.loc 1 1534 0
 2803 136a FFF7FEFF 		bl	HAL_RCC_GetPCLK1Freq
 2804 136e 1F90     		str	r0, [sp, #124]
 2805 1370 14E0     		b	.L222
 2806              	.L221:
 2807              		.loc 1 1536 0
 2808 1372 1E9B     		ldr	r3, [sp, #120]
 2809 1374 B3F1804F 		cmp	r3, #1073741824
 2810 1378 08D1     		bne	.L223
 2811              		.loc 1 1536 0 is_stmt 0 discriminator 1
 2812 137a 064B     		ldr	r3, .L232
 2813 137c 1B68     		ldr	r3, [r3]
 2814 137e 03F48063 		and	r3, r3, #1024
 2815 1382 002B     		cmp	r3, #0
 2816 1384 02D0     		beq	.L223
 2817              		.loc 1 1538 0 is_stmt 1
 2818 1386 044B     		ldr	r3, .L232+4
 2819 1388 1F93     		str	r3, [sp, #124]
 2820 138a 07E0     		b	.L222
 2821              	.L223:
 2822              		.loc 1 1543 0
 2823 138c 0023     		movs	r3, #0
 2824 138e 1F93     		str	r3, [sp, #124]
 2825              		.loc 1 1545 0
 2826 1390 04E0     		b	.L225
 2827              	.L233:
 2828 1392 00BF     		.align	2
 2829              	.L232:
 2830 1394 00100240 		.word	1073876992
 2831 1398 0024F400 		.word	16000000
 2832              	.L222:
 2833              	.L225:
 2834 139c 00BF     		nop
 2835              	.L82:
 2836              		.loc 1 1554 0
 2837 139e 1F9B     		ldr	r3, [sp, #124]
 2838              		.loc 1 1555 0
 2839 13a0 1846     		mov	r0, r3
 2840 13a2 21B0     		add	sp, sp, #132
 2841              		@ sp needed
 2842 13a4 5DF804FB 		ldr	pc, [sp], #4
 2843              		.cfi_endproc
 2844              	.LFE127:
 2845              		.size	HAL_RCCEx_GetPeriphCLKFreq, .-HAL_RCCEx_GetPeriphCLKFreq
 2846              		.align	2
ARM GAS  /tmp/ccJqmpZo.s 			page 51


 2847 13a8 AFF30080 		.p2align 4,,15
 2847      AFF30080 
 2848              		.global	HAL_RCCEx_EnablePLLSAI1
 2849              		.thumb
 2850              		.thumb_func
 2851              		.type	HAL_RCCEx_EnablePLLSAI1, %function
 2852              	HAL_RCCEx_EnablePLLSAI1:
 2853              	.LFB128:
 2854              		.loc 1 1583 0
 2855              		.cfi_startproc
 2856              		@ args = 0, pretend = 0, frame = 48
 2857              		@ frame_needed = 0, uses_anonymous_args = 0
 2858 13b0 00B5     		push	{lr}
 2859              		.cfi_def_cfa_offset 4
 2860              		.cfi_offset 14, -4
 2861 13b2 8DB0     		sub	sp, sp, #52
 2862              		.cfi_def_cfa_offset 56
 2863 13b4 0190     		str	r0, [sp, #4]
 2864              		.loc 1 1584 0
 2865 13b6 0023     		movs	r3, #0
 2866 13b8 0A93     		str	r3, [sp, #40]
 2867              		.loc 1 1585 0
 2868 13ba 0023     		movs	r3, #0
 2869 13bc 8DF82F30 		strb	r3, [sp, #47]
 2870              		.loc 1 1597 0
 2871 13c0 434B     		ldr	r3, .L246
 2872 13c2 434A     		ldr	r2, .L246
 2873 13c4 1268     		ldr	r2, [r2]
 2874 13c6 22F08062 		bic	r2, r2, #67108864
 2875 13ca 1A60     		str	r2, [r3]
 2876              		.loc 1 1600 0
 2877 13cc FFF7FEFF 		bl	HAL_GetTick
 2878 13d0 0A90     		str	r0, [sp, #40]
 2879              		.loc 1 1603 0
 2880 13d2 0AE0     		b	.L235
 2881              	.L237:
 2882              		.loc 1 1605 0
 2883 13d4 FFF7FEFF 		bl	HAL_GetTick
 2884 13d8 0246     		mov	r2, r0
 2885 13da 0A9B     		ldr	r3, [sp, #40]
 2886 13dc D31A     		subs	r3, r2, r3
 2887 13de 022B     		cmp	r3, #2
 2888 13e0 03D9     		bls	.L235
 2889              		.loc 1 1607 0
 2890 13e2 0323     		movs	r3, #3
 2891 13e4 8DF82F30 		strb	r3, [sp, #47]
 2892              		.loc 1 1608 0
 2893 13e8 05E0     		b	.L236
 2894              	.L235:
 2895              		.loc 1 1603 0 discriminator 1
 2896 13ea 394B     		ldr	r3, .L246
 2897 13ec 1B68     		ldr	r3, [r3]
 2898 13ee 03F00063 		and	r3, r3, #134217728
 2899 13f2 002B     		cmp	r3, #0
 2900 13f4 EED1     		bne	.L237
 2901              	.L236:
 2902              		.loc 1 1612 0
ARM GAS  /tmp/ccJqmpZo.s 			page 52


 2903 13f6 9DF82F30 		ldrb	r3, [sp, #47]	@ zero_extendqisi2
 2904 13fa 002B     		cmp	r3, #0
 2905 13fc 62D1     		bne	.L238
 2906              		.loc 1 1616 0
 2907 13fe 344B     		ldr	r3, .L246
 2908 1400 019A     		ldr	r2, [sp, #4]
 2909 1402 9168     		ldr	r1, [r2, #8]
 2910 1404 4FF4FE42 		mov	r2, #32512
 2911 1408 0992     		str	r2, [sp, #36]
 2912              	.LBB130:
 2913              	.LBB131:
 2914              		.loc 2 586 0
 2915 140a 099A     		ldr	r2, [sp, #36]
 2916              	@ 586 "../../../../../../ChibiOS/os/ext/CMSIS/include/core_cmInstr.h" 1
 2917 140c 92FAA2F2 		rbit r2, r2
 2918              	@ 0 "" 2
 2919              		.thumb
 2920 1410 0892     		str	r2, [sp, #32]
 2921              		.loc 2 599 0
 2922 1412 089A     		ldr	r2, [sp, #32]
 2923              	.LBE131:
 2924              	.LBE130:
 2925              		.loc 1 1616 0
 2926 1414 B2FA82F2 		clz	r2, r2
 2927 1418 9140     		lsls	r1, r1, r2
 2928 141a 019A     		ldr	r2, [sp, #4]
 2929 141c D268     		ldr	r2, [r2, #12]
 2930 141e 1009     		lsrs	r0, r2, #4
 2931 1420 4FF40032 		mov	r2, #131072
 2932 1424 0792     		str	r2, [sp, #28]
 2933              	.LBB132:
 2934              	.LBB133:
 2935              		.loc 2 586 0
 2936 1426 079A     		ldr	r2, [sp, #28]
 2937              	@ 586 "../../../../../../ChibiOS/os/ext/CMSIS/include/core_cmInstr.h" 1
 2938 1428 92FAA2F2 		rbit r2, r2
 2939              	@ 0 "" 2
 2940              		.thumb
 2941 142c 0692     		str	r2, [sp, #24]
 2942              		.loc 2 599 0
 2943 142e 069A     		ldr	r2, [sp, #24]
 2944              	.LBE133:
 2945              	.LBE132:
 2946              		.loc 1 1616 0
 2947 1430 B2FA82F2 		clz	r2, r2
 2948 1434 00FA02F2 		lsl	r2, r0, r2
 2949 1438 1143     		orrs	r1, r1, r2
 2950 143a 019A     		ldr	r2, [sp, #4]
 2951 143c 1269     		ldr	r2, [r2, #16]
 2952 143e 5208     		lsrs	r2, r2, #1
 2953 1440 501E     		subs	r0, r2, #1
 2954 1442 4FF4C002 		mov	r2, #6291456
 2955 1446 0592     		str	r2, [sp, #20]
 2956              	.LBB134:
 2957              	.LBB135:
 2958              		.loc 2 586 0
 2959 1448 059A     		ldr	r2, [sp, #20]
ARM GAS  /tmp/ccJqmpZo.s 			page 53


 2960              	@ 586 "../../../../../../ChibiOS/os/ext/CMSIS/include/core_cmInstr.h" 1
 2961 144a 92FAA2F2 		rbit r2, r2
 2962              	@ 0 "" 2
 2963              		.thumb
 2964 144e 0492     		str	r2, [sp, #16]
 2965              		.loc 2 599 0
 2966 1450 049A     		ldr	r2, [sp, #16]
 2967              	.LBE135:
 2968              	.LBE134:
 2969              		.loc 1 1616 0
 2970 1452 B2FA82F2 		clz	r2, r2
 2971 1456 00FA02F2 		lsl	r2, r0, r2
 2972 145a 1143     		orrs	r1, r1, r2
 2973 145c 019A     		ldr	r2, [sp, #4]
 2974 145e 5269     		ldr	r2, [r2, #20]
 2975 1460 5208     		lsrs	r2, r2, #1
 2976 1462 501E     		subs	r0, r2, #1
 2977 1464 4FF0C062 		mov	r2, #100663296
 2978 1468 0392     		str	r2, [sp, #12]
 2979              	.LBB136:
 2980              	.LBB137:
 2981              		.loc 2 586 0
 2982 146a 039A     		ldr	r2, [sp, #12]
 2983              	@ 586 "../../../../../../ChibiOS/os/ext/CMSIS/include/core_cmInstr.h" 1
 2984 146c 92FAA2F2 		rbit r2, r2
 2985              	@ 0 "" 2
 2986              		.thumb
 2987 1470 0292     		str	r2, [sp, #8]
 2988              		.loc 2 599 0
 2989 1472 029A     		ldr	r2, [sp, #8]
 2990              	.LBE137:
 2991              	.LBE136:
 2992              		.loc 1 1616 0
 2993 1474 B2FA82F2 		clz	r2, r2
 2994 1478 00FA02F2 		lsl	r2, r0, r2
 2995 147c 0A43     		orrs	r2, r2, r1
 2996 147e 1A61     		str	r2, [r3, #16]
 2997              		.loc 1 1618 0
 2998 1480 134B     		ldr	r3, .L246
 2999 1482 134A     		ldr	r2, .L246
 3000 1484 1169     		ldr	r1, [r2, #16]
 3001 1486 019A     		ldr	r2, [sp, #4]
 3002 1488 9269     		ldr	r2, [r2, #24]
 3003 148a 0A43     		orrs	r2, r2, r1
 3004 148c 1A61     		str	r2, [r3, #16]
 3005              		.loc 1 1621 0
 3006 148e 104B     		ldr	r3, .L246
 3007 1490 0F4A     		ldr	r2, .L246
 3008 1492 1268     		ldr	r2, [r2]
 3009 1494 42F08062 		orr	r2, r2, #67108864
 3010 1498 1A60     		str	r2, [r3]
 3011              		.loc 1 1624 0
 3012 149a FFF7FEFF 		bl	HAL_GetTick
 3013 149e 0A90     		str	r0, [sp, #40]
 3014              		.loc 1 1627 0
 3015 14a0 0AE0     		b	.L243
 3016              	.L244:
ARM GAS  /tmp/ccJqmpZo.s 			page 54


 3017              		.loc 1 1629 0
 3018 14a2 FFF7FEFF 		bl	HAL_GetTick
 3019 14a6 0246     		mov	r2, r0
 3020 14a8 0A9B     		ldr	r3, [sp, #40]
 3021 14aa D31A     		subs	r3, r2, r3
 3022 14ac 022B     		cmp	r3, #2
 3023 14ae 03D9     		bls	.L243
 3024              		.loc 1 1631 0
 3025 14b0 0323     		movs	r3, #3
 3026 14b2 8DF82F30 		strb	r3, [sp, #47]
 3027              		.loc 1 1632 0
 3028 14b6 05E0     		b	.L238
 3029              	.L243:
 3030              		.loc 1 1627 0 discriminator 1
 3031 14b8 054B     		ldr	r3, .L246
 3032 14ba 1B68     		ldr	r3, [r3]
 3033 14bc 03F00063 		and	r3, r3, #134217728
 3034 14c0 002B     		cmp	r3, #0
 3035 14c2 EED0     		beq	.L244
 3036              	.L238:
 3037              		.loc 1 1637 0
 3038 14c4 9DF82F30 		ldrb	r3, [sp, #47]	@ zero_extendqisi2
 3039              		.loc 1 1638 0
 3040 14c8 1846     		mov	r0, r3
 3041 14ca 0DB0     		add	sp, sp, #52
 3042              		@ sp needed
 3043 14cc 5DF804FB 		ldr	pc, [sp], #4
 3044              	.L247:
 3045              		.align	2
 3046              	.L246:
 3047 14d0 00100240 		.word	1073876992
 3048              		.cfi_endproc
 3049              	.LFE128:
 3050              		.size	HAL_RCCEx_EnablePLLSAI1, .-HAL_RCCEx_EnablePLLSAI1
 3051              		.align	2
 3052 14d4 AFF30080 		.p2align 4,,15
 3052      AFF30080 
 3052      AFF30080 
 3053              		.global	HAL_RCCEx_DisablePLLSAI1
 3054              		.thumb
 3055              		.thumb_func
 3056              		.type	HAL_RCCEx_DisablePLLSAI1, %function
 3057              	HAL_RCCEx_DisablePLLSAI1:
 3058              	.LFB129:
 3059              		.loc 1 1645 0
 3060              		.cfi_startproc
 3061              		@ args = 0, pretend = 0, frame = 8
 3062              		@ frame_needed = 0, uses_anonymous_args = 0
 3063 14e0 00B5     		push	{lr}
 3064              		.cfi_def_cfa_offset 4
 3065              		.cfi_offset 14, -4
 3066 14e2 83B0     		sub	sp, sp, #12
 3067              		.cfi_def_cfa_offset 16
 3068              		.loc 1 1646 0
 3069 14e4 0023     		movs	r3, #0
 3070 14e6 0093     		str	r3, [sp]
 3071              		.loc 1 1647 0
ARM GAS  /tmp/ccJqmpZo.s 			page 55


 3072 14e8 0023     		movs	r3, #0
 3073 14ea 8DF80730 		strb	r3, [sp, #7]
 3074              		.loc 1 1650 0
 3075 14ee 1D4B     		ldr	r3, .L254
 3076 14f0 1C4A     		ldr	r2, .L254
 3077 14f2 1268     		ldr	r2, [r2]
 3078 14f4 22F08062 		bic	r2, r2, #67108864
 3079 14f8 1A60     		str	r2, [r3]
 3080              		.loc 1 1653 0
 3081 14fa FFF7FEFF 		bl	HAL_GetTick
 3082 14fe 0090     		str	r0, [sp]
 3083              		.loc 1 1656 0
 3084 1500 0AE0     		b	.L249
 3085              	.L251:
 3086              		.loc 1 1658 0
 3087 1502 FFF7FEFF 		bl	HAL_GetTick
 3088 1506 0246     		mov	r2, r0
 3089 1508 009B     		ldr	r3, [sp]
 3090 150a D31A     		subs	r3, r2, r3
 3091 150c 022B     		cmp	r3, #2
 3092 150e 03D9     		bls	.L249
 3093              		.loc 1 1660 0
 3094 1510 0323     		movs	r3, #3
 3095 1512 8DF80730 		strb	r3, [sp, #7]
 3096              		.loc 1 1661 0
 3097 1516 05E0     		b	.L250
 3098              	.L249:
 3099              		.loc 1 1656 0 discriminator 1
 3100 1518 124B     		ldr	r3, .L254
 3101 151a 1B68     		ldr	r3, [r3]
 3102 151c 03F00063 		and	r3, r3, #134217728
 3103 1520 002B     		cmp	r3, #0
 3104 1522 EED1     		bne	.L251
 3105              	.L250:
 3106              		.loc 1 1666 0
 3107 1524 0F4A     		ldr	r2, .L254
 3108 1526 0F4B     		ldr	r3, .L254
 3109 1528 1B69     		ldr	r3, [r3, #16]
 3110 152a 23F08873 		bic	r3, r3, #17825792
 3111 152e 23F48033 		bic	r3, r3, #65536
 3112 1532 1361     		str	r3, [r2, #16]
 3113              		.loc 1 1669 0
 3114 1534 0B4B     		ldr	r3, .L254
 3115 1536 1B68     		ldr	r3, [r3]
 3116 1538 03F00073 		and	r3, r3, #33554432
 3117 153c 002B     		cmp	r3, #0
 3118 153e 0BD1     		bne	.L252
 3119              		.loc 1 1672 0
 3120 1540 084B     		ldr	r3, .L254
 3121 1542 1B68     		ldr	r3, [r3]
 3122 1544 03F00053 		and	r3, r3, #536870912
 3123              		.loc 1 1671 0
 3124 1548 002B     		cmp	r3, #0
 3125 154a 05D1     		bne	.L252
 3126              		.loc 1 1676 0
 3127 154c 054B     		ldr	r3, .L254
 3128 154e 054A     		ldr	r2, .L254
ARM GAS  /tmp/ccJqmpZo.s 			page 56


 3129 1550 D268     		ldr	r2, [r2, #12]
 3130 1552 22F00302 		bic	r2, r2, #3
 3131 1556 DA60     		str	r2, [r3, #12]
 3132              	.L252:
 3133              		.loc 1 1679 0
 3134 1558 9DF80730 		ldrb	r3, [sp, #7]	@ zero_extendqisi2
 3135              		.loc 1 1680 0
 3136 155c 1846     		mov	r0, r3
 3137 155e 03B0     		add	sp, sp, #12
 3138              		@ sp needed
 3139 1560 5DF804FB 		ldr	pc, [sp], #4
 3140              	.L255:
 3141              		.align	2
 3142              	.L254:
 3143 1564 00100240 		.word	1073876992
 3144              		.cfi_endproc
 3145              	.LFE129:
 3146              		.size	HAL_RCCEx_DisablePLLSAI1, .-HAL_RCCEx_DisablePLLSAI1
 3147              		.align	2
 3148 1568 AFF30080 		.p2align 4,,15
 3148      AFF30080 
 3149              		.global	HAL_RCCEx_EnablePLLSAI2
 3150              		.thumb
 3151              		.thumb_func
 3152              		.type	HAL_RCCEx_EnablePLLSAI2, %function
 3153              	HAL_RCCEx_EnablePLLSAI2:
 3154              	.LFB130:
 3155              		.loc 1 1691 0
 3156              		.cfi_startproc
 3157              		@ args = 0, pretend = 0, frame = 40
 3158              		@ frame_needed = 0, uses_anonymous_args = 0
 3159 1570 00B5     		push	{lr}
 3160              		.cfi_def_cfa_offset 4
 3161              		.cfi_offset 14, -4
 3162 1572 8BB0     		sub	sp, sp, #44
 3163              		.cfi_def_cfa_offset 48
 3164 1574 0190     		str	r0, [sp, #4]
 3165              		.loc 1 1692 0
 3166 1576 0023     		movs	r3, #0
 3167 1578 0893     		str	r3, [sp, #32]
 3168              		.loc 1 1693 0
 3169 157a 0023     		movs	r3, #0
 3170 157c 8DF82730 		strb	r3, [sp, #39]
 3171              		.loc 1 1704 0
 3172 1580 3B4B     		ldr	r3, .L267
 3173 1582 3B4A     		ldr	r2, .L267
 3174 1584 1268     		ldr	r2, [r2]
 3175 1586 22F08052 		bic	r2, r2, #268435456
 3176 158a 1A60     		str	r2, [r3]
 3177              		.loc 1 1707 0
 3178 158c FFF7FEFF 		bl	HAL_GetTick
 3179 1590 0890     		str	r0, [sp, #32]
 3180              		.loc 1 1710 0
 3181 1592 0AE0     		b	.L257
 3182              	.L259:
 3183              		.loc 1 1712 0
 3184 1594 FFF7FEFF 		bl	HAL_GetTick
ARM GAS  /tmp/ccJqmpZo.s 			page 57


 3185 1598 0246     		mov	r2, r0
 3186 159a 089B     		ldr	r3, [sp, #32]
 3187 159c D31A     		subs	r3, r2, r3
 3188 159e 022B     		cmp	r3, #2
 3189 15a0 03D9     		bls	.L257
 3190              		.loc 1 1714 0
 3191 15a2 0323     		movs	r3, #3
 3192 15a4 8DF82730 		strb	r3, [sp, #39]
 3193              		.loc 1 1715 0
 3194 15a8 05E0     		b	.L258
 3195              	.L257:
 3196              		.loc 1 1710 0 discriminator 1
 3197 15aa 314B     		ldr	r3, .L267
 3198 15ac 1B68     		ldr	r3, [r3]
 3199 15ae 03F00053 		and	r3, r3, #536870912
 3200 15b2 002B     		cmp	r3, #0
 3201 15b4 EED1     		bne	.L259
 3202              	.L258:
 3203              		.loc 1 1719 0
 3204 15b6 9DF82730 		ldrb	r3, [sp, #39]	@ zero_extendqisi2
 3205 15ba 002B     		cmp	r3, #0
 3206 15bc 51D1     		bne	.L260
 3207              		.loc 1 1723 0
 3208 15be 2C4B     		ldr	r3, .L267
 3209 15c0 019A     		ldr	r2, [sp, #4]
 3210 15c2 9168     		ldr	r1, [r2, #8]
 3211 15c4 4FF4FE42 		mov	r2, #32512
 3212 15c8 0792     		str	r2, [sp, #28]
 3213              	.LBB138:
 3214              	.LBB139:
 3215              		.loc 2 586 0
 3216 15ca 079A     		ldr	r2, [sp, #28]
 3217              	@ 586 "../../../../../../ChibiOS/os/ext/CMSIS/include/core_cmInstr.h" 1
 3218 15cc 92FAA2F2 		rbit r2, r2
 3219              	@ 0 "" 2
 3220              		.thumb
 3221 15d0 0692     		str	r2, [sp, #24]
 3222              		.loc 2 599 0
 3223 15d2 069A     		ldr	r2, [sp, #24]
 3224              	.LBE139:
 3225              	.LBE138:
 3226              		.loc 1 1723 0
 3227 15d4 B2FA82F2 		clz	r2, r2
 3228 15d8 9140     		lsls	r1, r1, r2
 3229 15da 019A     		ldr	r2, [sp, #4]
 3230 15dc D268     		ldr	r2, [r2, #12]
 3231 15de 1009     		lsrs	r0, r2, #4
 3232 15e0 4FF40032 		mov	r2, #131072
 3233 15e4 0592     		str	r2, [sp, #20]
 3234              	.LBB140:
 3235              	.LBB141:
 3236              		.loc 2 586 0
 3237 15e6 059A     		ldr	r2, [sp, #20]
 3238              	@ 586 "../../../../../../ChibiOS/os/ext/CMSIS/include/core_cmInstr.h" 1
 3239 15e8 92FAA2F2 		rbit r2, r2
 3240              	@ 0 "" 2
 3241              		.thumb
ARM GAS  /tmp/ccJqmpZo.s 			page 58


 3242 15ec 0492     		str	r2, [sp, #16]
 3243              		.loc 2 599 0
 3244 15ee 049A     		ldr	r2, [sp, #16]
 3245              	.LBE141:
 3246              	.LBE140:
 3247              		.loc 1 1723 0
 3248 15f0 B2FA82F2 		clz	r2, r2
 3249 15f4 00FA02F2 		lsl	r2, r0, r2
 3250 15f8 1143     		orrs	r1, r1, r2
 3251 15fa 019A     		ldr	r2, [sp, #4]
 3252 15fc 1269     		ldr	r2, [r2, #16]
 3253 15fe 5208     		lsrs	r2, r2, #1
 3254 1600 501E     		subs	r0, r2, #1
 3255 1602 4FF0C062 		mov	r2, #100663296
 3256 1606 0392     		str	r2, [sp, #12]
 3257              	.LBB142:
 3258              	.LBB143:
 3259              		.loc 2 586 0
 3260 1608 039A     		ldr	r2, [sp, #12]
 3261              	@ 586 "../../../../../../ChibiOS/os/ext/CMSIS/include/core_cmInstr.h" 1
 3262 160a 92FAA2F2 		rbit r2, r2
 3263              	@ 0 "" 2
 3264              		.thumb
 3265 160e 0292     		str	r2, [sp, #8]
 3266              		.loc 2 599 0
 3267 1610 029A     		ldr	r2, [sp, #8]
 3268              	.LBE143:
 3269              	.LBE142:
 3270              		.loc 1 1723 0
 3271 1612 B2FA82F2 		clz	r2, r2
 3272 1616 00FA02F2 		lsl	r2, r0, r2
 3273 161a 0A43     		orrs	r2, r2, r1
 3274 161c 5A61     		str	r2, [r3, #20]
 3275              		.loc 1 1725 0
 3276 161e 144B     		ldr	r3, .L267
 3277 1620 134A     		ldr	r2, .L267
 3278 1622 5169     		ldr	r1, [r2, #20]
 3279 1624 019A     		ldr	r2, [sp, #4]
 3280 1626 5269     		ldr	r2, [r2, #20]
 3281 1628 0A43     		orrs	r2, r2, r1
 3282 162a 5A61     		str	r2, [r3, #20]
 3283              		.loc 1 1728 0
 3284 162c 104B     		ldr	r3, .L267
 3285 162e 104A     		ldr	r2, .L267
 3286 1630 1268     		ldr	r2, [r2]
 3287 1632 42F08052 		orr	r2, r2, #268435456
 3288 1636 1A60     		str	r2, [r3]
 3289              		.loc 1 1731 0
 3290 1638 FFF7FEFF 		bl	HAL_GetTick
 3291 163c 0890     		str	r0, [sp, #32]
 3292              		.loc 1 1734 0
 3293 163e 0AE0     		b	.L264
 3294              	.L265:
 3295              		.loc 1 1736 0
 3296 1640 FFF7FEFF 		bl	HAL_GetTick
 3297 1644 0246     		mov	r2, r0
 3298 1646 089B     		ldr	r3, [sp, #32]
ARM GAS  /tmp/ccJqmpZo.s 			page 59


 3299 1648 D31A     		subs	r3, r2, r3
 3300 164a 022B     		cmp	r3, #2
 3301 164c 03D9     		bls	.L264
 3302              		.loc 1 1738 0
 3303 164e 0323     		movs	r3, #3
 3304 1650 8DF82730 		strb	r3, [sp, #39]
 3305              		.loc 1 1739 0
 3306 1654 05E0     		b	.L260
 3307              	.L264:
 3308              		.loc 1 1734 0 discriminator 1
 3309 1656 064B     		ldr	r3, .L267
 3310 1658 1B68     		ldr	r3, [r3]
 3311 165a 03F00053 		and	r3, r3, #536870912
 3312 165e 002B     		cmp	r3, #0
 3313 1660 EED0     		beq	.L265
 3314              	.L260:
 3315              		.loc 1 1744 0
 3316 1662 9DF82730 		ldrb	r3, [sp, #39]	@ zero_extendqisi2
 3317              		.loc 1 1745 0
 3318 1666 1846     		mov	r0, r3
 3319 1668 0BB0     		add	sp, sp, #44
 3320              		@ sp needed
 3321 166a 5DF804FB 		ldr	pc, [sp], #4
 3322              	.L268:
 3323 166e 00BF     		.align	2
 3324              	.L267:
 3325 1670 00100240 		.word	1073876992
 3326              		.cfi_endproc
 3327              	.LFE130:
 3328              		.size	HAL_RCCEx_EnablePLLSAI2, .-HAL_RCCEx_EnablePLLSAI2
 3329              		.align	2
 3330 1674 AFF30080 		.p2align 4,,15
 3330      AFF30080 
 3330      AFF30080 
 3331              		.global	HAL_RCCEx_DisablePLLSAI2
 3332              		.thumb
 3333              		.thumb_func
 3334              		.type	HAL_RCCEx_DisablePLLSAI2, %function
 3335              	HAL_RCCEx_DisablePLLSAI2:
 3336              	.LFB131:
 3337              		.loc 1 1752 0
 3338              		.cfi_startproc
 3339              		@ args = 0, pretend = 0, frame = 8
 3340              		@ frame_needed = 0, uses_anonymous_args = 0
 3341 1680 00B5     		push	{lr}
 3342              		.cfi_def_cfa_offset 4
 3343              		.cfi_offset 14, -4
 3344 1682 83B0     		sub	sp, sp, #12
 3345              		.cfi_def_cfa_offset 16
 3346              		.loc 1 1753 0
 3347 1684 0023     		movs	r3, #0
 3348 1686 0093     		str	r3, [sp]
 3349              		.loc 1 1754 0
 3350 1688 0023     		movs	r3, #0
 3351 168a 8DF80730 		strb	r3, [sp, #7]
 3352              		.loc 1 1757 0
 3353 168e 1D4B     		ldr	r3, .L275
ARM GAS  /tmp/ccJqmpZo.s 			page 60


 3354 1690 1C4A     		ldr	r2, .L275
 3355 1692 1268     		ldr	r2, [r2]
 3356 1694 22F08052 		bic	r2, r2, #268435456
 3357 1698 1A60     		str	r2, [r3]
 3358              		.loc 1 1760 0
 3359 169a FFF7FEFF 		bl	HAL_GetTick
 3360 169e 0090     		str	r0, [sp]
 3361              		.loc 1 1763 0
 3362 16a0 0AE0     		b	.L270
 3363              	.L272:
 3364              		.loc 1 1765 0
 3365 16a2 FFF7FEFF 		bl	HAL_GetTick
 3366 16a6 0246     		mov	r2, r0
 3367 16a8 009B     		ldr	r3, [sp]
 3368 16aa D31A     		subs	r3, r2, r3
 3369 16ac 022B     		cmp	r3, #2
 3370 16ae 03D9     		bls	.L270
 3371              		.loc 1 1767 0
 3372 16b0 0323     		movs	r3, #3
 3373 16b2 8DF80730 		strb	r3, [sp, #7]
 3374              		.loc 1 1768 0
 3375 16b6 05E0     		b	.L271
 3376              	.L270:
 3377              		.loc 1 1763 0 discriminator 1
 3378 16b8 124B     		ldr	r3, .L275
 3379 16ba 1B68     		ldr	r3, [r3]
 3380 16bc 03F00053 		and	r3, r3, #536870912
 3381 16c0 002B     		cmp	r3, #0
 3382 16c2 EED1     		bne	.L272
 3383              	.L271:
 3384              		.loc 1 1773 0
 3385 16c4 0F4A     		ldr	r2, .L275
 3386 16c6 0F4B     		ldr	r3, .L275
 3387 16c8 5B69     		ldr	r3, [r3, #20]
 3388 16ca 23F08073 		bic	r3, r3, #16777216
 3389 16ce 23F48033 		bic	r3, r3, #65536
 3390 16d2 5361     		str	r3, [r2, #20]
 3391              		.loc 1 1776 0
 3392 16d4 0B4B     		ldr	r3, .L275
 3393 16d6 1B68     		ldr	r3, [r3]
 3394 16d8 03F00073 		and	r3, r3, #33554432
 3395 16dc 002B     		cmp	r3, #0
 3396 16de 0BD1     		bne	.L273
 3397              		.loc 1 1778 0
 3398 16e0 084B     		ldr	r3, .L275
 3399 16e2 1B68     		ldr	r3, [r3]
 3400 16e4 03F00063 		and	r3, r3, #134217728
 3401              		.loc 1 1777 0
 3402 16e8 002B     		cmp	r3, #0
 3403 16ea 05D1     		bne	.L273
 3404              		.loc 1 1781 0
 3405 16ec 054B     		ldr	r3, .L275
 3406 16ee 054A     		ldr	r2, .L275
 3407 16f0 D268     		ldr	r2, [r2, #12]
 3408 16f2 22F00302 		bic	r2, r2, #3
 3409 16f6 DA60     		str	r2, [r3, #12]
 3410              	.L273:
ARM GAS  /tmp/ccJqmpZo.s 			page 61


 3411              		.loc 1 1784 0
 3412 16f8 9DF80730 		ldrb	r3, [sp, #7]	@ zero_extendqisi2
 3413              		.loc 1 1785 0
 3414 16fc 1846     		mov	r0, r3
 3415 16fe 03B0     		add	sp, sp, #12
 3416              		@ sp needed
 3417 1700 5DF804FB 		ldr	pc, [sp], #4
 3418              	.L276:
 3419              		.align	2
 3420              	.L275:
 3421 1704 00100240 		.word	1073876992
 3422              		.cfi_endproc
 3423              	.LFE131:
 3424              		.size	HAL_RCCEx_DisablePLLSAI2, .-HAL_RCCEx_DisablePLLSAI2
 3425              		.align	2
 3426 1708 AFF30080 		.p2align 4,,15
 3426      AFF30080 
 3427              		.global	HAL_RCCEx_WakeUpStopCLKConfig
 3428              		.thumb
 3429              		.thumb_func
 3430              		.type	HAL_RCCEx_WakeUpStopCLKConfig, %function
 3431              	HAL_RCCEx_WakeUpStopCLKConfig:
 3432              	.LFB132:
 3433              		.loc 1 1800 0
 3434              		.cfi_startproc
 3435              		@ args = 0, pretend = 0, frame = 8
 3436              		@ frame_needed = 0, uses_anonymous_args = 0
 3437              		@ link register save eliminated.
 3438 1710 82B0     		sub	sp, sp, #8
 3439              		.cfi_def_cfa_offset 8
 3440 1712 0190     		str	r0, [sp, #4]
 3441              		.loc 1 1803 0
 3442 1714 044B     		ldr	r3, .L278
 3443 1716 044A     		ldr	r2, .L278
 3444 1718 9268     		ldr	r2, [r2, #8]
 3445 171a 22F40041 		bic	r1, r2, #32768
 3446 171e 019A     		ldr	r2, [sp, #4]
 3447 1720 0A43     		orrs	r2, r2, r1
 3448 1722 9A60     		str	r2, [r3, #8]
 3449              		.loc 1 1804 0
 3450 1724 02B0     		add	sp, sp, #8
 3451              		@ sp needed
 3452 1726 7047     		bx	lr
 3453              	.L279:
 3454              		.align	2
 3455              	.L278:
 3456 1728 00100240 		.word	1073876992
 3457              		.cfi_endproc
 3458              	.LFE132:
 3459              		.size	HAL_RCCEx_WakeUpStopCLKConfig, .-HAL_RCCEx_WakeUpStopCLKConfig
 3460              		.align	2
 3461 172c AFF30080 		.p2align 4,,15
 3462              		.global	HAL_RCCEx_StandbyMSIRangeConfig
 3463              		.thumb
 3464              		.thumb_func
 3465              		.type	HAL_RCCEx_StandbyMSIRangeConfig, %function
 3466              	HAL_RCCEx_StandbyMSIRangeConfig:
ARM GAS  /tmp/ccJqmpZo.s 			page 62


 3467              	.LFB133:
 3468              		.loc 1 1818 0
 3469              		.cfi_startproc
 3470              		@ args = 0, pretend = 0, frame = 8
 3471              		@ frame_needed = 0, uses_anonymous_args = 0
 3472              		@ link register save eliminated.
 3473 1730 82B0     		sub	sp, sp, #8
 3474              		.cfi_def_cfa_offset 8
 3475 1732 0190     		str	r0, [sp, #4]
 3476              		.loc 1 1821 0
 3477 1734 064B     		ldr	r3, .L281
 3478 1736 064A     		ldr	r2, .L281
 3479 1738 D2F89420 		ldr	r2, [r2, #148]
 3480 173c 22F47061 		bic	r1, r2, #3840
 3481 1740 019A     		ldr	r2, [sp, #4]
 3482 1742 1201     		lsls	r2, r2, #4
 3483 1744 0A43     		orrs	r2, r2, r1
 3484 1746 C3F89420 		str	r2, [r3, #148]
 3485              		.loc 1 1822 0
 3486 174a 02B0     		add	sp, sp, #8
 3487              		@ sp needed
 3488 174c 7047     		bx	lr
 3489              	.L282:
 3490 174e 00BF     		.align	2
 3491              	.L281:
 3492 1750 00100240 		.word	1073876992
 3493              		.cfi_endproc
 3494              	.LFE133:
 3495              		.size	HAL_RCCEx_StandbyMSIRangeConfig, .-HAL_RCCEx_StandbyMSIRangeConfig
 3496              		.align	2
 3497 1754 AFF30080 		.p2align 4,,15
 3497      AFF30080 
 3497      AFF30080 
 3498              		.global	HAL_RCCEx_EnableLSECSS
 3499              		.thumb
 3500              		.thumb_func
 3501              		.type	HAL_RCCEx_EnableLSECSS, %function
 3502              	HAL_RCCEx_EnableLSECSS:
 3503              	.LFB134:
 3504              		.loc 1 1832 0
 3505              		.cfi_startproc
 3506              		@ args = 0, pretend = 0, frame = 0
 3507              		@ frame_needed = 0, uses_anonymous_args = 0
 3508              		@ link register save eliminated.
 3509              		.loc 1 1833 0
 3510 1760 044B     		ldr	r3, .L284
 3511 1762 044A     		ldr	r2, .L284
 3512 1764 D2F89020 		ldr	r2, [r2, #144]
 3513 1768 42F02002 		orr	r2, r2, #32
 3514 176c C3F89020 		str	r2, [r3, #144]
 3515              		.loc 1 1834 0
 3516 1770 7047     		bx	lr
 3517              	.L285:
 3518 1772 00BF     		.align	2
 3519              	.L284:
 3520 1774 00100240 		.word	1073876992
 3521              		.cfi_endproc
ARM GAS  /tmp/ccJqmpZo.s 			page 63


 3522              	.LFE134:
 3523              		.size	HAL_RCCEx_EnableLSECSS, .-HAL_RCCEx_EnableLSECSS
 3524              		.align	2
 3525 1778 AFF30080 		.p2align 4,,15
 3525      AFF30080 
 3526              		.global	HAL_RCCEx_DisableLSECSS
 3527              		.thumb
 3528              		.thumb_func
 3529              		.type	HAL_RCCEx_DisableLSECSS, %function
 3530              	HAL_RCCEx_DisableLSECSS:
 3531              	.LFB135:
 3532              		.loc 1 1842 0
 3533              		.cfi_startproc
 3534              		@ args = 0, pretend = 0, frame = 0
 3535              		@ frame_needed = 0, uses_anonymous_args = 0
 3536              		@ link register save eliminated.
 3537              		.loc 1 1843 0
 3538 1780 074B     		ldr	r3, .L287
 3539 1782 074A     		ldr	r2, .L287
 3540 1784 D2F89020 		ldr	r2, [r2, #144]
 3541 1788 22F02002 		bic	r2, r2, #32
 3542 178c C3F89020 		str	r2, [r3, #144]
 3543              		.loc 1 1846 0
 3544 1790 034B     		ldr	r3, .L287
 3545 1792 034A     		ldr	r2, .L287
 3546 1794 9269     		ldr	r2, [r2, #24]
 3547 1796 22F40072 		bic	r2, r2, #512
 3548 179a 9A61     		str	r2, [r3, #24]
 3549              		.loc 1 1847 0
 3550 179c 7047     		bx	lr
 3551              	.L288:
 3552 179e 00BF     		.align	2
 3553              	.L287:
 3554 17a0 00100240 		.word	1073876992
 3555              		.cfi_endproc
 3556              	.LFE135:
 3557              		.size	HAL_RCCEx_DisableLSECSS, .-HAL_RCCEx_DisableLSECSS
 3558              		.align	2
 3559 17a4 AFF30080 		.p2align 4,,15
 3559      AFF30080 
 3559      AFF30080 
 3560              		.global	HAL_RCCEx_EnableLSECSS_IT
 3561              		.thumb
 3562              		.thumb_func
 3563              		.type	HAL_RCCEx_EnableLSECSS_IT, %function
 3564              	HAL_RCCEx_EnableLSECSS_IT:
 3565              	.LFB136:
 3566              		.loc 1 1855 0
 3567              		.cfi_startproc
 3568              		@ args = 0, pretend = 0, frame = 0
 3569              		@ frame_needed = 0, uses_anonymous_args = 0
 3570              		@ link register save eliminated.
 3571              		.loc 1 1857 0
 3572 17b0 0D4B     		ldr	r3, .L290
 3573 17b2 0D4A     		ldr	r2, .L290
 3574 17b4 D2F89020 		ldr	r2, [r2, #144]
 3575 17b8 42F02002 		orr	r2, r2, #32
ARM GAS  /tmp/ccJqmpZo.s 			page 64


 3576 17bc C3F89020 		str	r2, [r3, #144]
 3577              		.loc 1 1860 0
 3578 17c0 094B     		ldr	r3, .L290
 3579 17c2 094A     		ldr	r2, .L290
 3580 17c4 9269     		ldr	r2, [r2, #24]
 3581 17c6 42F40072 		orr	r2, r2, #512
 3582 17ca 9A61     		str	r2, [r3, #24]
 3583              		.loc 1 1863 0
 3584 17cc 074B     		ldr	r3, .L290+4
 3585 17ce 074A     		ldr	r2, .L290+4
 3586 17d0 1268     		ldr	r2, [r2]
 3587 17d2 42F40022 		orr	r2, r2, #524288
 3588 17d6 1A60     		str	r2, [r3]
 3589              		.loc 1 1864 0
 3590 17d8 044B     		ldr	r3, .L290+4
 3591 17da 044A     		ldr	r2, .L290+4
 3592 17dc 9268     		ldr	r2, [r2, #8]
 3593 17de 42F40022 		orr	r2, r2, #524288
 3594 17e2 9A60     		str	r2, [r3, #8]
 3595              		.loc 1 1865 0
 3596 17e4 7047     		bx	lr
 3597              	.L291:
 3598 17e6 00BF     		.align	2
 3599              	.L290:
 3600 17e8 00100240 		.word	1073876992
 3601 17ec 00040140 		.word	1073808384
 3602              		.cfi_endproc
 3603              	.LFE136:
 3604              		.size	HAL_RCCEx_EnableLSECSS_IT, .-HAL_RCCEx_EnableLSECSS_IT
 3605              		.align	2
 3606              		.p2align 4,,15
 3607              		.global	HAL_RCCEx_LSECSS_IRQHandler
 3608              		.thumb
 3609              		.thumb_func
 3610              		.type	HAL_RCCEx_LSECSS_IRQHandler, %function
 3611              	HAL_RCCEx_LSECSS_IRQHandler:
 3612              	.LFB137:
 3613              		.loc 1 1872 0
 3614              		.cfi_startproc
 3615              		@ args = 0, pretend = 0, frame = 0
 3616              		@ frame_needed = 0, uses_anonymous_args = 0
 3617 17f0 08B5     		push	{r3, lr}
 3618              		.cfi_def_cfa_offset 8
 3619              		.cfi_offset 3, -8
 3620              		.cfi_offset 14, -4
 3621              		.loc 1 1874 0
 3622 17f2 064B     		ldr	r3, .L294
 3623 17f4 DB69     		ldr	r3, [r3, #28]
 3624 17f6 03F40073 		and	r3, r3, #512
 3625 17fa 002B     		cmp	r3, #0
 3626 17fc 05D0     		beq	.L292
 3627              		.loc 1 1877 0
 3628 17fe FFF7FEFF 		bl	HAL_RCCEx_LSECSS_Callback
 3629              		.loc 1 1880 0
 3630 1802 024B     		ldr	r3, .L294
 3631 1804 4FF40072 		mov	r2, #512
 3632 1808 1A62     		str	r2, [r3, #32]
ARM GAS  /tmp/ccJqmpZo.s 			page 65


 3633              	.L292:
 3634              		.loc 1 1882 0
 3635 180a 08BD     		pop	{r3, pc}
 3636              	.L295:
 3637              		.align	2
 3638              	.L294:
 3639 180c 00100240 		.word	1073876992
 3640              		.cfi_endproc
 3641              	.LFE137:
 3642              		.size	HAL_RCCEx_LSECSS_IRQHandler, .-HAL_RCCEx_LSECSS_IRQHandler
 3643              		.align	2
 3644              		.p2align 4,,15
 3645              		.weak	HAL_RCCEx_LSECSS_Callback
 3646              		.thumb
 3647              		.thumb_func
 3648              		.type	HAL_RCCEx_LSECSS_Callback, %function
 3649              	HAL_RCCEx_LSECSS_Callback:
 3650              	.LFB138:
 3651              		.loc 1 1889 0
 3652              		.cfi_startproc
 3653              		@ args = 0, pretend = 0, frame = 0
 3654              		@ frame_needed = 0, uses_anonymous_args = 0
 3655              		@ link register save eliminated.
 3656              		.loc 1 1893 0
 3657 1810 7047     		bx	lr
 3658              		.cfi_endproc
 3659              	.LFE138:
 3660              		.size	HAL_RCCEx_LSECSS_Callback, .-HAL_RCCEx_LSECSS_Callback
 3661 1812 00BF     		.align	2
 3662 1814 AFF30080 		.p2align 4,,15
 3662      AFF30080 
 3662      AFF30080 
 3663              		.global	HAL_RCCEx_EnableLSCO
 3664              		.thumb
 3665              		.thumb_func
 3666              		.type	HAL_RCCEx_EnableLSCO, %function
 3667              	HAL_RCCEx_EnableLSCO:
 3668              	.LFB139:
 3669              		.loc 1 1904 0
 3670              		.cfi_startproc
 3671              		@ args = 0, pretend = 0, frame = 40
 3672              		@ frame_needed = 0, uses_anonymous_args = 0
 3673 1820 00B5     		push	{lr}
 3674              		.cfi_def_cfa_offset 4
 3675              		.cfi_offset 14, -4
 3676 1822 8BB0     		sub	sp, sp, #44
 3677              		.cfi_def_cfa_offset 48
 3678 1824 0190     		str	r0, [sp, #4]
 3679              		.loc 1 1906 0
 3680 1826 0023     		movs	r3, #0
 3681 1828 8DF82730 		strb	r3, [sp, #39]
 3682              		.loc 1 1907 0
 3683 182c 0023     		movs	r3, #0
 3684 182e 8DF82630 		strb	r3, [sp, #38]
 3685              	.LBB144:
 3686              		.loc 1 1913 0
 3687 1832 2C4B     		ldr	r3, .L302
ARM GAS  /tmp/ccJqmpZo.s 			page 66


 3688 1834 2B4A     		ldr	r2, .L302
 3689 1836 D26C     		ldr	r2, [r2, #76]
 3690 1838 42F00102 		orr	r2, r2, #1
 3691 183c DA64     		str	r2, [r3, #76]
 3692 183e 294B     		ldr	r3, .L302
 3693 1840 DB6C     		ldr	r3, [r3, #76]
 3694 1842 03F00103 		and	r3, r3, #1
 3695 1846 0393     		str	r3, [sp, #12]
 3696 1848 039B     		ldr	r3, [sp, #12]
 3697              	.LBE144:
 3698              		.loc 1 1916 0
 3699 184a 0423     		movs	r3, #4
 3700 184c 0493     		str	r3, [sp, #16]
 3701              		.loc 1 1917 0
 3702 184e 0323     		movs	r3, #3
 3703 1850 0593     		str	r3, [sp, #20]
 3704              		.loc 1 1918 0
 3705 1852 0223     		movs	r3, #2
 3706 1854 0793     		str	r3, [sp, #28]
 3707              		.loc 1 1919 0
 3708 1856 0023     		movs	r3, #0
 3709 1858 0693     		str	r3, [sp, #24]
 3710              		.loc 1 1920 0
 3711 185a 04AB     		add	r3, sp, #16
 3712 185c 4FF09040 		mov	r0, #1207959552
 3713 1860 1946     		mov	r1, r3
 3714 1862 FFF7FEFF 		bl	HAL_GPIO_Init
 3715              		.loc 1 1923 0
 3716 1866 1F4B     		ldr	r3, .L302
 3717 1868 9B6D     		ldr	r3, [r3, #88]
 3718 186a 03F08053 		and	r3, r3, #268435456
 3719 186e 002B     		cmp	r3, #0
 3720 1870 0ED1     		bne	.L298
 3721              	.LBB145:
 3722              		.loc 1 1925 0
 3723 1872 1C4B     		ldr	r3, .L302
 3724 1874 1B4A     		ldr	r2, .L302
 3725 1876 926D     		ldr	r2, [r2, #88]
 3726 1878 42F08052 		orr	r2, r2, #268435456
 3727 187c 9A65     		str	r2, [r3, #88]
 3728 187e 194B     		ldr	r3, .L302
 3729 1880 9B6D     		ldr	r3, [r3, #88]
 3730 1882 03F08053 		and	r3, r3, #268435456
 3731 1886 0293     		str	r3, [sp, #8]
 3732 1888 029B     		ldr	r3, [sp, #8]
 3733              	.LBE145:
 3734              		.loc 1 1926 0
 3735 188a 0123     		movs	r3, #1
 3736 188c 8DF82730 		strb	r3, [sp, #39]
 3737              	.L298:
 3738              		.loc 1 1928 0
 3739 1890 154B     		ldr	r3, .L302+4
 3740 1892 1B68     		ldr	r3, [r3]
 3741 1894 03F48073 		and	r3, r3, #256
 3742 1898 002B     		cmp	r3, #0
 3743 189a 04D1     		bne	.L299
 3744              		.loc 1 1930 0
ARM GAS  /tmp/ccJqmpZo.s 			page 67


 3745 189c FFF7FEFF 		bl	HAL_PWR_EnableBkUpAccess
 3746              		.loc 1 1931 0
 3747 18a0 0123     		movs	r3, #1
 3748 18a2 8DF82630 		strb	r3, [sp, #38]
 3749              	.L299:
 3750              		.loc 1 1934 0
 3751 18a6 0F4B     		ldr	r3, .L302
 3752 18a8 0E4A     		ldr	r2, .L302
 3753 18aa D2F89020 		ldr	r2, [r2, #144]
 3754 18ae 22F04071 		bic	r1, r2, #50331648
 3755 18b2 019A     		ldr	r2, [sp, #4]
 3756 18b4 0A43     		orrs	r2, r2, r1
 3757 18b6 42F08072 		orr	r2, r2, #16777216
 3758 18ba C3F89020 		str	r2, [r3, #144]
 3759              		.loc 1 1936 0
 3760 18be 9DF82630 		ldrb	r3, [sp, #38]	@ zero_extendqisi2
 3761 18c2 012B     		cmp	r3, #1
 3762 18c4 01D1     		bne	.L300
 3763              		.loc 1 1938 0
 3764 18c6 FFF7FEFF 		bl	HAL_PWR_DisableBkUpAccess
 3765              	.L300:
 3766              		.loc 1 1940 0
 3767 18ca 9DF82730 		ldrb	r3, [sp, #39]	@ zero_extendqisi2
 3768 18ce 012B     		cmp	r3, #1
 3769 18d0 05D1     		bne	.L297
 3770              		.loc 1 1942 0
 3771 18d2 044B     		ldr	r3, .L302
 3772 18d4 034A     		ldr	r2, .L302
 3773 18d6 926D     		ldr	r2, [r2, #88]
 3774 18d8 22F08052 		bic	r2, r2, #268435456
 3775 18dc 9A65     		str	r2, [r3, #88]
 3776              	.L297:
 3777              		.loc 1 1944 0
 3778 18de 0BB0     		add	sp, sp, #44
 3779              		@ sp needed
 3780 18e0 5DF804FB 		ldr	pc, [sp], #4
 3781              	.L303:
 3782              		.align	2
 3783              	.L302:
 3784 18e4 00100240 		.word	1073876992
 3785 18e8 00700040 		.word	1073770496
 3786              		.cfi_endproc
 3787              	.LFE139:
 3788              		.size	HAL_RCCEx_EnableLSCO, .-HAL_RCCEx_EnableLSCO
 3789              		.align	2
 3790 18ec AFF30080 		.p2align 4,,15
 3791              		.global	HAL_RCCEx_DisableLSCO
 3792              		.thumb
 3793              		.thumb_func
 3794              		.type	HAL_RCCEx_DisableLSCO, %function
 3795              	HAL_RCCEx_DisableLSCO:
 3796              	.LFB140:
 3797              		.loc 1 1951 0
 3798              		.cfi_startproc
 3799              		@ args = 0, pretend = 0, frame = 8
 3800              		@ frame_needed = 0, uses_anonymous_args = 0
 3801 18f0 00B5     		push	{lr}
ARM GAS  /tmp/ccJqmpZo.s 			page 68


 3802              		.cfi_def_cfa_offset 4
 3803              		.cfi_offset 14, -4
 3804 18f2 83B0     		sub	sp, sp, #12
 3805              		.cfi_def_cfa_offset 16
 3806              		.loc 1 1952 0
 3807 18f4 0023     		movs	r3, #0
 3808 18f6 8DF80730 		strb	r3, [sp, #7]
 3809              		.loc 1 1953 0
 3810 18fa 0023     		movs	r3, #0
 3811 18fc 8DF80630 		strb	r3, [sp, #6]
 3812              		.loc 1 1956 0
 3813 1900 1D4B     		ldr	r3, .L309
 3814 1902 9B6D     		ldr	r3, [r3, #88]
 3815 1904 03F08053 		and	r3, r3, #268435456
 3816 1908 002B     		cmp	r3, #0
 3817 190a 0ED1     		bne	.L305
 3818              	.LBB146:
 3819              		.loc 1 1958 0
 3820 190c 1A4B     		ldr	r3, .L309
 3821 190e 1A4A     		ldr	r2, .L309
 3822 1910 926D     		ldr	r2, [r2, #88]
 3823 1912 42F08052 		orr	r2, r2, #268435456
 3824 1916 9A65     		str	r2, [r3, #88]
 3825 1918 174B     		ldr	r3, .L309
 3826 191a 9B6D     		ldr	r3, [r3, #88]
 3827 191c 03F08053 		and	r3, r3, #268435456
 3828 1920 0093     		str	r3, [sp]
 3829 1922 009B     		ldr	r3, [sp]
 3830              	.LBE146:
 3831              		.loc 1 1959 0
 3832 1924 0123     		movs	r3, #1
 3833 1926 8DF80730 		strb	r3, [sp, #7]
 3834              	.L305:
 3835              		.loc 1 1961 0
 3836 192a 144B     		ldr	r3, .L309+4
 3837 192c 1B68     		ldr	r3, [r3]
 3838 192e 03F48073 		and	r3, r3, #256
 3839 1932 002B     		cmp	r3, #0
 3840 1934 04D1     		bne	.L306
 3841              		.loc 1 1964 0
 3842 1936 FFF7FEFF 		bl	HAL_PWR_EnableBkUpAccess
 3843              		.loc 1 1965 0
 3844 193a 0123     		movs	r3, #1
 3845 193c 8DF80630 		strb	r3, [sp, #6]
 3846              	.L306:
 3847              		.loc 1 1968 0
 3848 1940 0D4B     		ldr	r3, .L309
 3849 1942 0D4A     		ldr	r2, .L309
 3850 1944 D2F89020 		ldr	r2, [r2, #144]
 3851 1948 22F08072 		bic	r2, r2, #16777216
 3852 194c C3F89020 		str	r2, [r3, #144]
 3853              		.loc 1 1971 0
 3854 1950 9DF80630 		ldrb	r3, [sp, #6]	@ zero_extendqisi2
 3855 1954 012B     		cmp	r3, #1
 3856 1956 01D1     		bne	.L307
 3857              		.loc 1 1974 0
 3858 1958 FFF7FEFF 		bl	HAL_PWR_DisableBkUpAccess
ARM GAS  /tmp/ccJqmpZo.s 			page 69


 3859              	.L307:
 3860              		.loc 1 1976 0
 3861 195c 9DF80730 		ldrb	r3, [sp, #7]	@ zero_extendqisi2
 3862 1960 012B     		cmp	r3, #1
 3863 1962 05D1     		bne	.L304
 3864              		.loc 1 1978 0
 3865 1964 044B     		ldr	r3, .L309
 3866 1966 044A     		ldr	r2, .L309
 3867 1968 926D     		ldr	r2, [r2, #88]
 3868 196a 22F08052 		bic	r2, r2, #268435456
 3869 196e 9A65     		str	r2, [r3, #88]
 3870              	.L304:
 3871              		.loc 1 1980 0
 3872 1970 03B0     		add	sp, sp, #12
 3873              		@ sp needed
 3874 1972 5DF804FB 		ldr	pc, [sp], #4
 3875              	.L310:
 3876 1976 00BF     		.align	2
 3877              	.L309:
 3878 1978 00100240 		.word	1073876992
 3879 197c 00700040 		.word	1073770496
 3880              		.cfi_endproc
 3881              	.LFE140:
 3882              		.size	HAL_RCCEx_DisableLSCO, .-HAL_RCCEx_DisableLSCO
 3883              		.align	2
 3884              		.p2align 4,,15
 3885              		.global	HAL_RCCEx_EnableMSIPLLMode
 3886              		.thumb
 3887              		.thumb_func
 3888              		.type	HAL_RCCEx_EnableMSIPLLMode, %function
 3889              	HAL_RCCEx_EnableMSIPLLMode:
 3890              	.LFB141:
 3891              		.loc 1 1989 0
 3892              		.cfi_startproc
 3893              		@ args = 0, pretend = 0, frame = 0
 3894              		@ frame_needed = 0, uses_anonymous_args = 0
 3895              		@ link register save eliminated.
 3896              		.loc 1 1990 0
 3897 1980 034B     		ldr	r3, .L312
 3898 1982 034A     		ldr	r2, .L312
 3899 1984 1268     		ldr	r2, [r2]
 3900 1986 42F00402 		orr	r2, r2, #4
 3901 198a 1A60     		str	r2, [r3]
 3902              		.loc 1 1991 0
 3903 198c 7047     		bx	lr
 3904              	.L313:
 3905 198e 00BF     		.align	2
 3906              	.L312:
 3907 1990 00100240 		.word	1073876992
 3908              		.cfi_endproc
 3909              	.LFE141:
 3910              		.size	HAL_RCCEx_EnableMSIPLLMode, .-HAL_RCCEx_EnableMSIPLLMode
 3911              		.align	2
 3912 1994 AFF30080 		.p2align 4,,15
 3912      AFF30080 
 3912      AFF30080 
 3913              		.global	HAL_RCCEx_DisableMSIPLLMode
ARM GAS  /tmp/ccJqmpZo.s 			page 70


 3914              		.thumb
 3915              		.thumb_func
 3916              		.type	HAL_RCCEx_DisableMSIPLLMode, %function
 3917              	HAL_RCCEx_DisableMSIPLLMode:
 3918              	.LFB142:
 3919              		.loc 1 1999 0
 3920              		.cfi_startproc
 3921              		@ args = 0, pretend = 0, frame = 0
 3922              		@ frame_needed = 0, uses_anonymous_args = 0
 3923              		@ link register save eliminated.
 3924              		.loc 1 2000 0
 3925 19a0 034B     		ldr	r3, .L315
 3926 19a2 034A     		ldr	r2, .L315
 3927 19a4 1268     		ldr	r2, [r2]
 3928 19a6 22F00402 		bic	r2, r2, #4
 3929 19aa 1A60     		str	r2, [r3]
 3930              		.loc 1 2001 0
 3931 19ac 7047     		bx	lr
 3932              	.L316:
 3933 19ae 00BF     		.align	2
 3934              	.L315:
 3935 19b0 00100240 		.word	1073876992
 3936              		.cfi_endproc
 3937              	.LFE142:
 3938              		.size	HAL_RCCEx_DisableMSIPLLMode, .-HAL_RCCEx_DisableMSIPLLMode
 3939              		.align	2
 3940 19b4 AFF30080 		.p2align 4,,15
 3940      AFF30080 
 3940      AFF30080 
 3941              		.thumb
 3942              		.thumb_func
 3943              		.type	RCCEx_PLLSAI1_Config, %function
 3944              	RCCEx_PLLSAI1_Config:
 3945              	.LFB143:
 3946              		.loc 1 2384 0
 3947              		.cfi_startproc
 3948              		@ args = 0, pretend = 0, frame = 80
 3949              		@ frame_needed = 0, uses_anonymous_args = 0
 3950 19c0 10B5     		push	{r4, lr}
 3951              		.cfi_def_cfa_offset 8
 3952              		.cfi_offset 4, -8
 3953              		.cfi_offset 14, -4
 3954 19c2 94B0     		sub	sp, sp, #80
 3955              		.cfi_def_cfa_offset 88
 3956 19c4 0190     		str	r0, [sp, #4]
 3957 19c6 0091     		str	r1, [sp]
 3958              		.loc 1 2385 0
 3959 19c8 0023     		movs	r3, #0
 3960 19ca 1293     		str	r3, [sp, #72]
 3961              		.loc 1 2386 0
 3962 19cc 0023     		movs	r3, #0
 3963 19ce 8DF84F30 		strb	r3, [sp, #79]
 3964              		.loc 1 2396 0
 3965 19d2 A24B     		ldr	r3, .L350
 3966 19d4 DB68     		ldr	r3, [r3, #12]
 3967 19d6 03F00303 		and	r3, r3, #3
 3968 19da 002B     		cmp	r3, #0
ARM GAS  /tmp/ccJqmpZo.s 			page 71


 3969 19dc 23D0     		beq	.L318
 3970              		.loc 1 2399 0
 3971 19de 9F4B     		ldr	r3, .L350
 3972 19e0 DB68     		ldr	r3, [r3, #12]
 3973 19e2 03F00302 		and	r2, r3, #3
 3974 19e6 019B     		ldr	r3, [sp, #4]
 3975 19e8 1B68     		ldr	r3, [r3]
 3976 19ea 9A42     		cmp	r2, r3
 3977 19ec 17D1     		bne	.L319
 3978              		.loc 1 2401 0
 3979 19ee 019B     		ldr	r3, [sp, #4]
 3980 19f0 1B68     		ldr	r3, [r3]
 3981              		.loc 1 2400 0
 3982 19f2 002B     		cmp	r3, #0
 3983 19f4 13D0     		beq	.L319
 3984              		.loc 1 2403 0
 3985 19f6 994B     		ldr	r3, .L350
 3986 19f8 DB68     		ldr	r3, [r3, #12]
 3987 19fa 03F07002 		and	r2, r3, #112
 3988 19fe 7023     		movs	r3, #112
 3989 1a00 1193     		str	r3, [sp, #68]
 3990              	.LBB147:
 3991              	.LBB148:
 3992              		.loc 2 586 0
 3993 1a02 119B     		ldr	r3, [sp, #68]
 3994              	@ 586 "../../../../../../ChibiOS/os/ext/CMSIS/include/core_cmInstr.h" 1
 3995 1a04 93FAA3F3 		rbit r3, r3
 3996              	@ 0 "" 2
 3997              		.thumb
 3998 1a08 1093     		str	r3, [sp, #64]
 3999              		.loc 2 599 0
 4000 1a0a 109B     		ldr	r3, [sp, #64]
 4001              	.LBE148:
 4002              	.LBE147:
 4003              		.loc 1 2403 0
 4004 1a0c B3FA83F3 		clz	r3, r3
 4005 1a10 22FA03F3 		lsr	r3, r2, r3
 4006 1a14 5A1C     		adds	r2, r3, #1
 4007 1a16 019B     		ldr	r3, [sp, #4]
 4008 1a18 5B68     		ldr	r3, [r3, #4]
 4009              		.loc 1 2402 0
 4010 1a1a 9A42     		cmp	r2, r3
 4011 1a1c 52D0     		beq	.L322
 4012              	.L319:
 4013              		.loc 1 2406 0
 4014 1a1e 0123     		movs	r3, #1
 4015 1a20 8DF84F30 		strb	r3, [sp, #79]
 4016 1a24 4EE0     		b	.L322
 4017              	.L318:
 4018              		.loc 1 2412 0
 4019 1a26 019B     		ldr	r3, [sp, #4]
 4020 1a28 1B68     		ldr	r3, [r3]
 4021 1a2a 022B     		cmp	r3, #2
 4022 1a2c 0ED0     		beq	.L324
 4023 1a2e 032B     		cmp	r3, #3
 4024 1a30 17D0     		beq	.L325
 4025 1a32 012B     		cmp	r3, #1
ARM GAS  /tmp/ccJqmpZo.s 			page 72


 4026 1a34 26D1     		bne	.L349
 4027              		.loc 1 2415 0
 4028 1a36 894B     		ldr	r3, .L350
 4029 1a38 1B68     		ldr	r3, [r3]
 4030 1a3a 03F00203 		and	r3, r3, #2
 4031 1a3e 002B     		cmp	r3, #0
 4032 1a40 03D1     		bne	.L327
 4033              		.loc 1 2417 0
 4034 1a42 0123     		movs	r3, #1
 4035 1a44 8DF84F30 		strb	r3, [sp, #79]
 4036              		.loc 1 2419 0
 4037 1a48 20E0     		b	.L328
 4038              	.L327:
 4039 1a4a 1FE0     		b	.L328
 4040              	.L324:
 4041              		.loc 1 2421 0
 4042 1a4c 834B     		ldr	r3, .L350
 4043 1a4e 1B68     		ldr	r3, [r3]
 4044 1a50 03F48063 		and	r3, r3, #1024
 4045 1a54 002B     		cmp	r3, #0
 4046 1a56 03D1     		bne	.L329
 4047              		.loc 1 2423 0
 4048 1a58 0123     		movs	r3, #1
 4049 1a5a 8DF84F30 		strb	r3, [sp, #79]
 4050              		.loc 1 2425 0
 4051 1a5e 15E0     		b	.L328
 4052              	.L329:
 4053 1a60 14E0     		b	.L328
 4054              	.L325:
 4055              		.loc 1 2427 0
 4056 1a62 7E4B     		ldr	r3, .L350
 4057 1a64 1B68     		ldr	r3, [r3]
 4058 1a66 03F40033 		and	r3, r3, #131072
 4059 1a6a 002B     		cmp	r3, #0
 4060 1a6c 09D1     		bne	.L330
 4061              		.loc 1 2427 0 is_stmt 0 discriminator 1
 4062 1a6e 7B4B     		ldr	r3, .L350
 4063 1a70 1B68     		ldr	r3, [r3]
 4064 1a72 03F48023 		and	r3, r3, #262144
 4065 1a76 002B     		cmp	r3, #0
 4066 1a78 03D1     		bne	.L330
 4067              		.loc 1 2429 0 is_stmt 1
 4068 1a7a 0123     		movs	r3, #1
 4069 1a7c 8DF84F30 		strb	r3, [sp, #79]
 4070              		.loc 1 2431 0
 4071 1a80 04E0     		b	.L328
 4072              	.L330:
 4073 1a82 03E0     		b	.L328
 4074              	.L349:
 4075              		.loc 1 2433 0
 4076 1a84 0123     		movs	r3, #1
 4077 1a86 8DF84F30 		strb	r3, [sp, #79]
 4078              		.loc 1 2434 0
 4079 1a8a 00BF     		nop
 4080              	.L328:
 4081              		.loc 1 2437 0
 4082 1a8c 9DF84F30 		ldrb	r3, [sp, #79]	@ zero_extendqisi2
ARM GAS  /tmp/ccJqmpZo.s 			page 73


 4083 1a90 002B     		cmp	r3, #0
 4084 1a92 17D1     		bne	.L322
 4085              		.loc 1 2440 0
 4086 1a94 714B     		ldr	r3, .L350
 4087 1a96 714A     		ldr	r2, .L350
 4088 1a98 D268     		ldr	r2, [r2, #12]
 4089 1a9a 22F07301 		bic	r1, r2, #115
 4090 1a9e 019A     		ldr	r2, [sp, #4]
 4091 1aa0 1068     		ldr	r0, [r2]
 4092 1aa2 019A     		ldr	r2, [sp, #4]
 4093 1aa4 5268     		ldr	r2, [r2, #4]
 4094 1aa6 541E     		subs	r4, r2, #1
 4095 1aa8 7022     		movs	r2, #112
 4096 1aaa 0F92     		str	r2, [sp, #60]
 4097              	.LBB149:
 4098              	.LBB150:
 4099              		.loc 2 586 0
 4100 1aac 0F9A     		ldr	r2, [sp, #60]
 4101              	@ 586 "../../../../../../ChibiOS/os/ext/CMSIS/include/core_cmInstr.h" 1
 4102 1aae 92FAA2F2 		rbit r2, r2
 4103              	@ 0 "" 2
 4104              		.thumb
 4105 1ab2 0E92     		str	r2, [sp, #56]
 4106              		.loc 2 599 0
 4107 1ab4 0E9A     		ldr	r2, [sp, #56]
 4108              	.LBE150:
 4109              	.LBE149:
 4110              		.loc 1 2440 0
 4111 1ab6 B2FA82F2 		clz	r2, r2
 4112 1aba 04FA02F2 		lsl	r2, r4, r2
 4113 1abe 0243     		orrs	r2, r2, r0
 4114 1ac0 0A43     		orrs	r2, r2, r1
 4115 1ac2 DA60     		str	r2, [r3, #12]
 4116              	.L322:
 4117              		.loc 1 2444 0
 4118 1ac4 9DF84F30 		ldrb	r3, [sp, #79]	@ zero_extendqisi2
 4119 1ac8 002B     		cmp	r3, #0
 4120 1aca 40F0C280 		bne	.L332
 4121              		.loc 1 2447 0
 4122 1ace 634B     		ldr	r3, .L350
 4123 1ad0 624A     		ldr	r2, .L350
 4124 1ad2 1268     		ldr	r2, [r2]
 4125 1ad4 22F08062 		bic	r2, r2, #67108864
 4126 1ad8 1A60     		str	r2, [r3]
 4127              		.loc 1 2450 0
 4128 1ada FFF7FEFF 		bl	HAL_GetTick
 4129 1ade 1290     		str	r0, [sp, #72]
 4130              		.loc 1 2453 0
 4131 1ae0 0AE0     		b	.L333
 4132              	.L335:
 4133              		.loc 1 2455 0
 4134 1ae2 FFF7FEFF 		bl	HAL_GetTick
 4135 1ae6 0246     		mov	r2, r0
 4136 1ae8 129B     		ldr	r3, [sp, #72]
 4137 1aea D31A     		subs	r3, r2, r3
 4138 1aec 022B     		cmp	r3, #2
 4139 1aee 03D9     		bls	.L333
ARM GAS  /tmp/ccJqmpZo.s 			page 74


 4140              		.loc 1 2457 0
 4141 1af0 0323     		movs	r3, #3
 4142 1af2 8DF84F30 		strb	r3, [sp, #79]
 4143              		.loc 1 2458 0
 4144 1af6 05E0     		b	.L334
 4145              	.L333:
 4146              		.loc 1 2453 0 discriminator 1
 4147 1af8 584B     		ldr	r3, .L350
 4148 1afa 1B68     		ldr	r3, [r3]
 4149 1afc 03F00063 		and	r3, r3, #134217728
 4150 1b00 002B     		cmp	r3, #0
 4151 1b02 EED1     		bne	.L335
 4152              	.L334:
 4153              		.loc 1 2462 0
 4154 1b04 9DF84F30 		ldrb	r3, [sp, #79]	@ zero_extendqisi2
 4155 1b08 002B     		cmp	r3, #0
 4156 1b0a 40F0A280 		bne	.L332
 4157              		.loc 1 2464 0
 4158 1b0e 009B     		ldr	r3, [sp]
 4159 1b10 002B     		cmp	r3, #0
 4160 1b12 26D1     		bne	.L336
 4161              		.loc 1 2474 0
 4162 1b14 514A     		ldr	r2, .L350
 4163 1b16 514B     		ldr	r3, .L350
 4164 1b18 1B69     		ldr	r3, [r3, #16]
 4165 1b1a 23F41F33 		bic	r3, r3, #162816
 4166 1b1e 23F44073 		bic	r3, r3, #768
 4167 1b22 0199     		ldr	r1, [sp, #4]
 4168 1b24 8868     		ldr	r0, [r1, #8]
 4169 1b26 4FF4FE41 		mov	r1, #32512
 4170 1b2a 0D91     		str	r1, [sp, #52]
 4171              	.LBB151:
 4172              	.LBB152:
 4173              		.loc 2 586 0
 4174 1b2c 0D99     		ldr	r1, [sp, #52]
 4175              	@ 586 "../../../../../../ChibiOS/os/ext/CMSIS/include/core_cmInstr.h" 1
 4176 1b2e 91FAA1F1 		rbit r1, r1
 4177              	@ 0 "" 2
 4178              		.thumb
 4179 1b32 0C91     		str	r1, [sp, #48]
 4180              		.loc 2 599 0
 4181 1b34 0C99     		ldr	r1, [sp, #48]
 4182              	.LBE152:
 4183              	.LBE151:
 4184              		.loc 1 2474 0
 4185 1b36 B1FA81F1 		clz	r1, r1
 4186 1b3a 8840     		lsls	r0, r0, r1
 4187 1b3c 0199     		ldr	r1, [sp, #4]
 4188 1b3e C968     		ldr	r1, [r1, #12]
 4189 1b40 0C09     		lsrs	r4, r1, #4
 4190 1b42 4FF40031 		mov	r1, #131072
 4191 1b46 0B91     		str	r1, [sp, #44]
 4192              	.LBB153:
 4193              	.LBB154:
 4194              		.loc 2 586 0
 4195 1b48 0B99     		ldr	r1, [sp, #44]
 4196              	@ 586 "../../../../../../ChibiOS/os/ext/CMSIS/include/core_cmInstr.h" 1
ARM GAS  /tmp/ccJqmpZo.s 			page 75


 4197 1b4a 91FAA1F1 		rbit r1, r1
 4198              	@ 0 "" 2
 4199              		.thumb
 4200 1b4e 0A91     		str	r1, [sp, #40]
 4201              		.loc 2 599 0
 4202 1b50 0A99     		ldr	r1, [sp, #40]
 4203              	.LBE154:
 4204              	.LBE153:
 4205              		.loc 1 2474 0
 4206 1b52 B1FA81F1 		clz	r1, r1
 4207 1b56 04FA01F1 		lsl	r1, r4, r1
 4208 1b5a 0143     		orrs	r1, r1, r0
 4209 1b5c 0B43     		orrs	r3, r3, r1
 4210 1b5e 1361     		str	r3, [r2, #16]
 4211 1b60 51E0     		b	.L339
 4212              	.L336:
 4213              		.loc 1 2480 0
 4214 1b62 009B     		ldr	r3, [sp]
 4215 1b64 012B     		cmp	r3, #1
 4216 1b66 27D1     		bne	.L340
 4217              		.loc 1 2484 0
 4218 1b68 3C4A     		ldr	r2, .L350
 4219 1b6a 3C4B     		ldr	r3, .L350
 4220 1b6c 1B69     		ldr	r3, [r3, #16]
 4221 1b6e 23F4C003 		bic	r3, r3, #6291456
 4222 1b72 23F4FE43 		bic	r3, r3, #32512
 4223 1b76 0199     		ldr	r1, [sp, #4]
 4224 1b78 8868     		ldr	r0, [r1, #8]
 4225 1b7a 4FF4FE41 		mov	r1, #32512
 4226 1b7e 0991     		str	r1, [sp, #36]
 4227              	.LBB155:
 4228              	.LBB156:
 4229              		.loc 2 586 0
 4230 1b80 0999     		ldr	r1, [sp, #36]
 4231              	@ 586 "../../../../../../ChibiOS/os/ext/CMSIS/include/core_cmInstr.h" 1
 4232 1b82 91FAA1F1 		rbit r1, r1
 4233              	@ 0 "" 2
 4234              		.thumb
 4235 1b86 0891     		str	r1, [sp, #32]
 4236              		.loc 2 599 0
 4237 1b88 0899     		ldr	r1, [sp, #32]
 4238              	.LBE156:
 4239              	.LBE155:
 4240              		.loc 1 2484 0
 4241 1b8a B1FA81F1 		clz	r1, r1
 4242 1b8e 8840     		lsls	r0, r0, r1
 4243 1b90 0199     		ldr	r1, [sp, #4]
 4244 1b92 0969     		ldr	r1, [r1, #16]
 4245 1b94 4908     		lsrs	r1, r1, #1
 4246 1b96 4C1E     		subs	r4, r1, #1
 4247 1b98 4FF4C001 		mov	r1, #6291456
 4248 1b9c 0791     		str	r1, [sp, #28]
 4249              	.LBB157:
 4250              	.LBB158:
 4251              		.loc 2 586 0
 4252 1b9e 0799     		ldr	r1, [sp, #28]
 4253              	@ 586 "../../../../../../ChibiOS/os/ext/CMSIS/include/core_cmInstr.h" 1
ARM GAS  /tmp/ccJqmpZo.s 			page 76


 4254 1ba0 91FAA1F1 		rbit r1, r1
 4255              	@ 0 "" 2
 4256              		.thumb
 4257 1ba4 0691     		str	r1, [sp, #24]
 4258              		.loc 2 599 0
 4259 1ba6 0699     		ldr	r1, [sp, #24]
 4260              	.LBE158:
 4261              	.LBE157:
 4262              		.loc 1 2484 0
 4263 1ba8 B1FA81F1 		clz	r1, r1
 4264 1bac 04FA01F1 		lsl	r1, r4, r1
 4265 1bb0 0143     		orrs	r1, r1, r0
 4266 1bb2 0B43     		orrs	r3, r3, r1
 4267 1bb4 1361     		str	r3, [r2, #16]
 4268 1bb6 26E0     		b	.L339
 4269              	.L340:
 4270              		.loc 1 2493 0
 4271 1bb8 284A     		ldr	r2, .L350
 4272 1bba 284B     		ldr	r3, .L350
 4273 1bbc 1B69     		ldr	r3, [r3, #16]
 4274 1bbe 23F0C063 		bic	r3, r3, #100663296
 4275 1bc2 23F4FE43 		bic	r3, r3, #32512
 4276 1bc6 0199     		ldr	r1, [sp, #4]
 4277 1bc8 8868     		ldr	r0, [r1, #8]
 4278 1bca 4FF4FE41 		mov	r1, #32512
 4279 1bce 0591     		str	r1, [sp, #20]
 4280              	.LBB159:
 4281              	.LBB160:
 4282              		.loc 2 586 0
 4283 1bd0 0599     		ldr	r1, [sp, #20]
 4284              	@ 586 "../../../../../../ChibiOS/os/ext/CMSIS/include/core_cmInstr.h" 1
 4285 1bd2 91FAA1F1 		rbit r1, r1
 4286              	@ 0 "" 2
 4287              		.thumb
 4288 1bd6 0491     		str	r1, [sp, #16]
 4289              		.loc 2 599 0
 4290 1bd8 0499     		ldr	r1, [sp, #16]
 4291              	.LBE160:
 4292              	.LBE159:
 4293              		.loc 1 2493 0
 4294 1bda B1FA81F1 		clz	r1, r1
 4295 1bde 8840     		lsls	r0, r0, r1
 4296 1be0 0199     		ldr	r1, [sp, #4]
 4297 1be2 4969     		ldr	r1, [r1, #20]
 4298 1be4 4908     		lsrs	r1, r1, #1
 4299 1be6 4C1E     		subs	r4, r1, #1
 4300 1be8 4FF0C061 		mov	r1, #100663296
 4301 1bec 0391     		str	r1, [sp, #12]
 4302              	.LBB161:
 4303              	.LBB162:
 4304              		.loc 2 586 0
 4305 1bee 0399     		ldr	r1, [sp, #12]
 4306              	@ 586 "../../../../../../ChibiOS/os/ext/CMSIS/include/core_cmInstr.h" 1
 4307 1bf0 91FAA1F1 		rbit r1, r1
 4308              	@ 0 "" 2
 4309              		.thumb
 4310 1bf4 0291     		str	r1, [sp, #8]
ARM GAS  /tmp/ccJqmpZo.s 			page 77


 4311              		.loc 2 599 0
 4312 1bf6 0299     		ldr	r1, [sp, #8]
 4313              	.LBE162:
 4314              	.LBE161:
 4315              		.loc 1 2493 0
 4316 1bf8 B1FA81F1 		clz	r1, r1
 4317 1bfc 04FA01F1 		lsl	r1, r4, r1
 4318 1c00 0143     		orrs	r1, r1, r0
 4319 1c02 0B43     		orrs	r3, r3, r1
 4320 1c04 1361     		str	r3, [r2, #16]
 4321              	.L339:
 4322              		.loc 1 2500 0
 4323 1c06 154B     		ldr	r3, .L350
 4324 1c08 144A     		ldr	r2, .L350
 4325 1c0a 1268     		ldr	r2, [r2]
 4326 1c0c 42F08062 		orr	r2, r2, #67108864
 4327 1c10 1A60     		str	r2, [r3]
 4328              		.loc 1 2503 0
 4329 1c12 FFF7FEFF 		bl	HAL_GetTick
 4330 1c16 1290     		str	r0, [sp, #72]
 4331              		.loc 1 2506 0
 4332 1c18 0AE0     		b	.L345
 4333              	.L347:
 4334              		.loc 1 2508 0
 4335 1c1a FFF7FEFF 		bl	HAL_GetTick
 4336 1c1e 0246     		mov	r2, r0
 4337 1c20 129B     		ldr	r3, [sp, #72]
 4338 1c22 D31A     		subs	r3, r2, r3
 4339 1c24 022B     		cmp	r3, #2
 4340 1c26 03D9     		bls	.L345
 4341              		.loc 1 2510 0
 4342 1c28 0323     		movs	r3, #3
 4343 1c2a 8DF84F30 		strb	r3, [sp, #79]
 4344              		.loc 1 2511 0
 4345 1c2e 05E0     		b	.L346
 4346              	.L345:
 4347              		.loc 1 2506 0 discriminator 1
 4348 1c30 0A4B     		ldr	r3, .L350
 4349 1c32 1B68     		ldr	r3, [r3]
 4350 1c34 03F00063 		and	r3, r3, #134217728
 4351 1c38 002B     		cmp	r3, #0
 4352 1c3a EED0     		beq	.L347
 4353              	.L346:
 4354              		.loc 1 2515 0
 4355 1c3c 9DF84F30 		ldrb	r3, [sp, #79]	@ zero_extendqisi2
 4356 1c40 002B     		cmp	r3, #0
 4357 1c42 06D1     		bne	.L332
 4358              		.loc 1 2518 0
 4359 1c44 054B     		ldr	r3, .L350
 4360 1c46 054A     		ldr	r2, .L350
 4361 1c48 1169     		ldr	r1, [r2, #16]
 4362 1c4a 019A     		ldr	r2, [sp, #4]
 4363 1c4c 9269     		ldr	r2, [r2, #24]
 4364 1c4e 0A43     		orrs	r2, r2, r1
 4365 1c50 1A61     		str	r2, [r3, #16]
 4366              	.L332:
 4367              		.loc 1 2523 0
ARM GAS  /tmp/ccJqmpZo.s 			page 78


 4368 1c52 9DF84F30 		ldrb	r3, [sp, #79]	@ zero_extendqisi2
 4369              		.loc 1 2524 0
 4370 1c56 1846     		mov	r0, r3
 4371 1c58 14B0     		add	sp, sp, #80
 4372              		@ sp needed
 4373 1c5a 10BD     		pop	{r4, pc}
 4374              	.L351:
 4375              		.align	2
 4376              	.L350:
 4377 1c5c 00100240 		.word	1073876992
 4378              		.cfi_endproc
 4379              	.LFE143:
 4380              		.size	RCCEx_PLLSAI1_Config, .-RCCEx_PLLSAI1_Config
 4381              		.align	2
 4382              		.p2align 4,,15
 4383              		.thumb
 4384              		.thumb_func
 4385              		.type	RCCEx_PLLSAI2_Config, %function
 4386              	RCCEx_PLLSAI2_Config:
 4387              	.LFB144:
 4388              		.loc 1 2539 0
 4389              		.cfi_startproc
 4390              		@ args = 0, pretend = 0, frame = 64
 4391              		@ frame_needed = 0, uses_anonymous_args = 0
 4392 1c60 10B5     		push	{r4, lr}
 4393              		.cfi_def_cfa_offset 8
 4394              		.cfi_offset 4, -8
 4395              		.cfi_offset 14, -4
 4396 1c62 90B0     		sub	sp, sp, #64
 4397              		.cfi_def_cfa_offset 72
 4398 1c64 0190     		str	r0, [sp, #4]
 4399 1c66 0091     		str	r1, [sp]
 4400              		.loc 1 2540 0
 4401 1c68 0023     		movs	r3, #0
 4402 1c6a 0E93     		str	r3, [sp, #56]
 4403              		.loc 1 2541 0
 4404 1c6c 0023     		movs	r3, #0
 4405 1c6e 8DF83F30 		strb	r3, [sp, #63]
 4406              		.loc 1 2551 0
 4407 1c72 8C4B     		ldr	r3, .L382
 4408 1c74 DB68     		ldr	r3, [r3, #12]
 4409 1c76 03F00303 		and	r3, r3, #3
 4410 1c7a 002B     		cmp	r3, #0
 4411 1c7c 23D0     		beq	.L353
 4412              		.loc 1 2554 0
 4413 1c7e 894B     		ldr	r3, .L382
 4414 1c80 DB68     		ldr	r3, [r3, #12]
 4415 1c82 03F00302 		and	r2, r3, #3
 4416 1c86 019B     		ldr	r3, [sp, #4]
 4417 1c88 1B68     		ldr	r3, [r3]
 4418 1c8a 9A42     		cmp	r2, r3
 4419 1c8c 17D1     		bne	.L354
 4420              		.loc 1 2556 0
 4421 1c8e 019B     		ldr	r3, [sp, #4]
 4422 1c90 1B68     		ldr	r3, [r3]
 4423              		.loc 1 2555 0
 4424 1c92 002B     		cmp	r3, #0
ARM GAS  /tmp/ccJqmpZo.s 			page 79


 4425 1c94 13D0     		beq	.L354
 4426              		.loc 1 2558 0
 4427 1c96 834B     		ldr	r3, .L382
 4428 1c98 DB68     		ldr	r3, [r3, #12]
 4429 1c9a 03F07002 		and	r2, r3, #112
 4430 1c9e 7023     		movs	r3, #112
 4431 1ca0 0D93     		str	r3, [sp, #52]
 4432              	.LBB163:
 4433              	.LBB164:
 4434              		.loc 2 586 0
 4435 1ca2 0D9B     		ldr	r3, [sp, #52]
 4436              	@ 586 "../../../../../../ChibiOS/os/ext/CMSIS/include/core_cmInstr.h" 1
 4437 1ca4 93FAA3F3 		rbit r3, r3
 4438              	@ 0 "" 2
 4439              		.thumb
 4440 1ca8 0C93     		str	r3, [sp, #48]
 4441              		.loc 2 599 0
 4442 1caa 0C9B     		ldr	r3, [sp, #48]
 4443              	.LBE164:
 4444              	.LBE163:
 4445              		.loc 1 2558 0
 4446 1cac B3FA83F3 		clz	r3, r3
 4447 1cb0 22FA03F3 		lsr	r3, r2, r3
 4448 1cb4 5A1C     		adds	r2, r3, #1
 4449 1cb6 019B     		ldr	r3, [sp, #4]
 4450 1cb8 5B68     		ldr	r3, [r3, #4]
 4451              		.loc 1 2557 0
 4452 1cba 9A42     		cmp	r2, r3
 4453 1cbc 52D0     		beq	.L357
 4454              	.L354:
 4455              		.loc 1 2561 0
 4456 1cbe 0123     		movs	r3, #1
 4457 1cc0 8DF83F30 		strb	r3, [sp, #63]
 4458 1cc4 4EE0     		b	.L357
 4459              	.L353:
 4460              		.loc 1 2567 0
 4461 1cc6 019B     		ldr	r3, [sp, #4]
 4462 1cc8 1B68     		ldr	r3, [r3]
 4463 1cca 022B     		cmp	r3, #2
 4464 1ccc 0ED0     		beq	.L359
 4465 1cce 032B     		cmp	r3, #3
 4466 1cd0 17D0     		beq	.L360
 4467 1cd2 012B     		cmp	r3, #1
 4468 1cd4 26D1     		bne	.L381
 4469              		.loc 1 2570 0
 4470 1cd6 734B     		ldr	r3, .L382
 4471 1cd8 1B68     		ldr	r3, [r3]
 4472 1cda 03F00203 		and	r3, r3, #2
 4473 1cde 002B     		cmp	r3, #0
 4474 1ce0 03D1     		bne	.L362
 4475              		.loc 1 2572 0
 4476 1ce2 0123     		movs	r3, #1
 4477 1ce4 8DF83F30 		strb	r3, [sp, #63]
 4478              		.loc 1 2574 0
 4479 1ce8 20E0     		b	.L363
 4480              	.L362:
 4481 1cea 1FE0     		b	.L363
ARM GAS  /tmp/ccJqmpZo.s 			page 80


 4482              	.L359:
 4483              		.loc 1 2576 0
 4484 1cec 6D4B     		ldr	r3, .L382
 4485 1cee 1B68     		ldr	r3, [r3]
 4486 1cf0 03F48063 		and	r3, r3, #1024
 4487 1cf4 002B     		cmp	r3, #0
 4488 1cf6 03D1     		bne	.L364
 4489              		.loc 1 2578 0
 4490 1cf8 0123     		movs	r3, #1
 4491 1cfa 8DF83F30 		strb	r3, [sp, #63]
 4492              		.loc 1 2580 0
 4493 1cfe 15E0     		b	.L363
 4494              	.L364:
 4495 1d00 14E0     		b	.L363
 4496              	.L360:
 4497              		.loc 1 2582 0
 4498 1d02 684B     		ldr	r3, .L382
 4499 1d04 1B68     		ldr	r3, [r3]
 4500 1d06 03F40033 		and	r3, r3, #131072
 4501 1d0a 002B     		cmp	r3, #0
 4502 1d0c 09D1     		bne	.L365
 4503              		.loc 1 2582 0 is_stmt 0 discriminator 1
 4504 1d0e 654B     		ldr	r3, .L382
 4505 1d10 1B68     		ldr	r3, [r3]
 4506 1d12 03F48023 		and	r3, r3, #262144
 4507 1d16 002B     		cmp	r3, #0
 4508 1d18 03D1     		bne	.L365
 4509              		.loc 1 2584 0 is_stmt 1
 4510 1d1a 0123     		movs	r3, #1
 4511 1d1c 8DF83F30 		strb	r3, [sp, #63]
 4512              		.loc 1 2586 0
 4513 1d20 04E0     		b	.L363
 4514              	.L365:
 4515 1d22 03E0     		b	.L363
 4516              	.L381:
 4517              		.loc 1 2588 0
 4518 1d24 0123     		movs	r3, #1
 4519 1d26 8DF83F30 		strb	r3, [sp, #63]
 4520              		.loc 1 2589 0
 4521 1d2a 00BF     		nop
 4522              	.L363:
 4523              		.loc 1 2592 0
 4524 1d2c 9DF83F30 		ldrb	r3, [sp, #63]	@ zero_extendqisi2
 4525 1d30 002B     		cmp	r3, #0
 4526 1d32 17D1     		bne	.L357
 4527              		.loc 1 2595 0
 4528 1d34 5B4B     		ldr	r3, .L382
 4529 1d36 5B4A     		ldr	r2, .L382
 4530 1d38 D268     		ldr	r2, [r2, #12]
 4531 1d3a 22F07301 		bic	r1, r2, #115
 4532 1d3e 019A     		ldr	r2, [sp, #4]
 4533 1d40 1068     		ldr	r0, [r2]
 4534 1d42 019A     		ldr	r2, [sp, #4]
 4535 1d44 5268     		ldr	r2, [r2, #4]
 4536 1d46 541E     		subs	r4, r2, #1
 4537 1d48 7022     		movs	r2, #112
 4538 1d4a 0B92     		str	r2, [sp, #44]
ARM GAS  /tmp/ccJqmpZo.s 			page 81


 4539              	.LBB165:
 4540              	.LBB166:
 4541              		.loc 2 586 0
 4542 1d4c 0B9A     		ldr	r2, [sp, #44]
 4543              	@ 586 "../../../../../../ChibiOS/os/ext/CMSIS/include/core_cmInstr.h" 1
 4544 1d4e 92FAA2F2 		rbit r2, r2
 4545              	@ 0 "" 2
 4546              		.thumb
 4547 1d52 0A92     		str	r2, [sp, #40]
 4548              		.loc 2 599 0
 4549 1d54 0A9A     		ldr	r2, [sp, #40]
 4550              	.LBE166:
 4551              	.LBE165:
 4552              		.loc 1 2595 0
 4553 1d56 B2FA82F2 		clz	r2, r2
 4554 1d5a 04FA02F2 		lsl	r2, r4, r2
 4555 1d5e 0243     		orrs	r2, r2, r0
 4556 1d60 0A43     		orrs	r2, r2, r1
 4557 1d62 DA60     		str	r2, [r3, #12]
 4558              	.L357:
 4559              		.loc 1 2599 0
 4560 1d64 9DF83F30 		ldrb	r3, [sp, #63]	@ zero_extendqisi2
 4561 1d68 002B     		cmp	r3, #0
 4562 1d6a 40F09680 		bne	.L367
 4563              		.loc 1 2602 0
 4564 1d6e 4D4B     		ldr	r3, .L382
 4565 1d70 4C4A     		ldr	r2, .L382
 4566 1d72 1268     		ldr	r2, [r2]
 4567 1d74 22F08052 		bic	r2, r2, #268435456
 4568 1d78 1A60     		str	r2, [r3]
 4569              		.loc 1 2605 0
 4570 1d7a FFF7FEFF 		bl	HAL_GetTick
 4571 1d7e 0E90     		str	r0, [sp, #56]
 4572              		.loc 1 2608 0
 4573 1d80 0AE0     		b	.L368
 4574              	.L370:
 4575              		.loc 1 2610 0
 4576 1d82 FFF7FEFF 		bl	HAL_GetTick
 4577 1d86 0246     		mov	r2, r0
 4578 1d88 0E9B     		ldr	r3, [sp, #56]
 4579 1d8a D31A     		subs	r3, r2, r3
 4580 1d8c 022B     		cmp	r3, #2
 4581 1d8e 03D9     		bls	.L368
 4582              		.loc 1 2612 0
 4583 1d90 0323     		movs	r3, #3
 4584 1d92 8DF83F30 		strb	r3, [sp, #63]
 4585              		.loc 1 2613 0
 4586 1d96 05E0     		b	.L369
 4587              	.L368:
 4588              		.loc 1 2608 0 discriminator 1
 4589 1d98 424B     		ldr	r3, .L382
 4590 1d9a 1B68     		ldr	r3, [r3]
 4591 1d9c 03F00053 		and	r3, r3, #536870912
 4592 1da0 002B     		cmp	r3, #0
 4593 1da2 EED1     		bne	.L370
 4594              	.L369:
 4595              		.loc 1 2617 0
ARM GAS  /tmp/ccJqmpZo.s 			page 82


 4596 1da4 9DF83F30 		ldrb	r3, [sp, #63]	@ zero_extendqisi2
 4597 1da8 002B     		cmp	r3, #0
 4598 1daa 76D1     		bne	.L367
 4599              		.loc 1 2619 0
 4600 1dac 009B     		ldr	r3, [sp]
 4601 1dae 002B     		cmp	r3, #0
 4602 1db0 26D1     		bne	.L371
 4603              		.loc 1 2629 0
 4604 1db2 3C4A     		ldr	r2, .L382
 4605 1db4 3B4B     		ldr	r3, .L382
 4606 1db6 5B69     		ldr	r3, [r3, #20]
 4607 1db8 23F41F33 		bic	r3, r3, #162816
 4608 1dbc 23F44073 		bic	r3, r3, #768
 4609 1dc0 0199     		ldr	r1, [sp, #4]
 4610 1dc2 8868     		ldr	r0, [r1, #8]
 4611 1dc4 4FF4FE41 		mov	r1, #32512
 4612 1dc8 0991     		str	r1, [sp, #36]
 4613              	.LBB167:
 4614              	.LBB168:
 4615              		.loc 2 586 0
 4616 1dca 0999     		ldr	r1, [sp, #36]
 4617              	@ 586 "../../../../../../ChibiOS/os/ext/CMSIS/include/core_cmInstr.h" 1
 4618 1dcc 91FAA1F1 		rbit r1, r1
 4619              	@ 0 "" 2
 4620              		.thumb
 4621 1dd0 0891     		str	r1, [sp, #32]
 4622              		.loc 2 599 0
 4623 1dd2 0899     		ldr	r1, [sp, #32]
 4624              	.LBE168:
 4625              	.LBE167:
 4626              		.loc 1 2629 0
 4627 1dd4 B1FA81F1 		clz	r1, r1
 4628 1dd8 8840     		lsls	r0, r0, r1
 4629 1dda 0199     		ldr	r1, [sp, #4]
 4630 1ddc C968     		ldr	r1, [r1, #12]
 4631 1dde 0C09     		lsrs	r4, r1, #4
 4632 1de0 4FF40031 		mov	r1, #131072
 4633 1de4 0791     		str	r1, [sp, #28]
 4634              	.LBB169:
 4635              	.LBB170:
 4636              		.loc 2 586 0
 4637 1de6 0799     		ldr	r1, [sp, #28]
 4638              	@ 586 "../../../../../../ChibiOS/os/ext/CMSIS/include/core_cmInstr.h" 1
 4639 1de8 91FAA1F1 		rbit r1, r1
 4640              	@ 0 "" 2
 4641              		.thumb
 4642 1dec 0691     		str	r1, [sp, #24]
 4643              		.loc 2 599 0
 4644 1dee 0699     		ldr	r1, [sp, #24]
 4645              	.LBE170:
 4646              	.LBE169:
 4647              		.loc 1 2629 0
 4648 1df0 B1FA81F1 		clz	r1, r1
 4649 1df4 04FA01F1 		lsl	r1, r4, r1
 4650 1df8 0143     		orrs	r1, r1, r0
 4651 1dfa 0B43     		orrs	r3, r3, r1
 4652 1dfc 5361     		str	r3, [r2, #20]
ARM GAS  /tmp/ccJqmpZo.s 			page 83


 4653 1dfe 26E0     		b	.L374
 4654              	.L371:
 4655              		.loc 1 2639 0
 4656 1e00 284A     		ldr	r2, .L382
 4657 1e02 284B     		ldr	r3, .L382
 4658 1e04 5B69     		ldr	r3, [r3, #20]
 4659 1e06 23F0C063 		bic	r3, r3, #100663296
 4660 1e0a 23F4FE43 		bic	r3, r3, #32512
 4661 1e0e 0199     		ldr	r1, [sp, #4]
 4662 1e10 8868     		ldr	r0, [r1, #8]
 4663 1e12 4FF4FE41 		mov	r1, #32512
 4664 1e16 0591     		str	r1, [sp, #20]
 4665              	.LBB171:
 4666              	.LBB172:
 4667              		.loc 2 586 0
 4668 1e18 0599     		ldr	r1, [sp, #20]
 4669              	@ 586 "../../../../../../ChibiOS/os/ext/CMSIS/include/core_cmInstr.h" 1
 4670 1e1a 91FAA1F1 		rbit r1, r1
 4671              	@ 0 "" 2
 4672              		.thumb
 4673 1e1e 0491     		str	r1, [sp, #16]
 4674              		.loc 2 599 0
 4675 1e20 0499     		ldr	r1, [sp, #16]
 4676              	.LBE172:
 4677              	.LBE171:
 4678              		.loc 1 2639 0
 4679 1e22 B1FA81F1 		clz	r1, r1
 4680 1e26 8840     		lsls	r0, r0, r1
 4681 1e28 0199     		ldr	r1, [sp, #4]
 4682 1e2a 0969     		ldr	r1, [r1, #16]
 4683 1e2c 4908     		lsrs	r1, r1, #1
 4684 1e2e 4C1E     		subs	r4, r1, #1
 4685 1e30 4FF0C061 		mov	r1, #100663296
 4686 1e34 0391     		str	r1, [sp, #12]
 4687              	.LBB173:
 4688              	.LBB174:
 4689              		.loc 2 586 0
 4690 1e36 0399     		ldr	r1, [sp, #12]
 4691              	@ 586 "../../../../../../ChibiOS/os/ext/CMSIS/include/core_cmInstr.h" 1
 4692 1e38 91FAA1F1 		rbit r1, r1
 4693              	@ 0 "" 2
 4694              		.thumb
 4695 1e3c 0291     		str	r1, [sp, #8]
 4696              		.loc 2 599 0
 4697 1e3e 0299     		ldr	r1, [sp, #8]
 4698              	.LBE174:
 4699              	.LBE173:
 4700              		.loc 1 2639 0
 4701 1e40 B1FA81F1 		clz	r1, r1
 4702 1e44 04FA01F1 		lsl	r1, r4, r1
 4703 1e48 0143     		orrs	r1, r1, r0
 4704 1e4a 0B43     		orrs	r3, r3, r1
 4705 1e4c 5361     		str	r3, [r2, #20]
 4706              	.L374:
 4707              		.loc 1 2646 0
 4708 1e4e 154B     		ldr	r3, .L382
 4709 1e50 144A     		ldr	r2, .L382
ARM GAS  /tmp/ccJqmpZo.s 			page 84


 4710 1e52 1268     		ldr	r2, [r2]
 4711 1e54 42F08052 		orr	r2, r2, #268435456
 4712 1e58 1A60     		str	r2, [r3]
 4713              		.loc 1 2649 0
 4714 1e5a FFF7FEFF 		bl	HAL_GetTick
 4715 1e5e 0E90     		str	r0, [sp, #56]
 4716              		.loc 1 2652 0
 4717 1e60 0AE0     		b	.L377
 4718              	.L379:
 4719              		.loc 1 2654 0
 4720 1e62 FFF7FEFF 		bl	HAL_GetTick
 4721 1e66 0246     		mov	r2, r0
 4722 1e68 0E9B     		ldr	r3, [sp, #56]
 4723 1e6a D31A     		subs	r3, r2, r3
 4724 1e6c 022B     		cmp	r3, #2
 4725 1e6e 03D9     		bls	.L377
 4726              		.loc 1 2656 0
 4727 1e70 0323     		movs	r3, #3
 4728 1e72 8DF83F30 		strb	r3, [sp, #63]
 4729              		.loc 1 2657 0
 4730 1e76 05E0     		b	.L378
 4731              	.L377:
 4732              		.loc 1 2652 0 discriminator 1
 4733 1e78 0A4B     		ldr	r3, .L382
 4734 1e7a 1B68     		ldr	r3, [r3]
 4735 1e7c 03F00053 		and	r3, r3, #536870912
 4736 1e80 002B     		cmp	r3, #0
 4737 1e82 EED0     		beq	.L379
 4738              	.L378:
 4739              		.loc 1 2661 0
 4740 1e84 9DF83F30 		ldrb	r3, [sp, #63]	@ zero_extendqisi2
 4741 1e88 002B     		cmp	r3, #0
 4742 1e8a 06D1     		bne	.L367
 4743              		.loc 1 2664 0
 4744 1e8c 054B     		ldr	r3, .L382
 4745 1e8e 054A     		ldr	r2, .L382
 4746 1e90 5169     		ldr	r1, [r2, #20]
 4747 1e92 019A     		ldr	r2, [sp, #4]
 4748 1e94 5269     		ldr	r2, [r2, #20]
 4749 1e96 0A43     		orrs	r2, r2, r1
 4750 1e98 5A61     		str	r2, [r3, #20]
 4751              	.L367:
 4752              		.loc 1 2669 0
 4753 1e9a 9DF83F30 		ldrb	r3, [sp, #63]	@ zero_extendqisi2
 4754              		.loc 1 2670 0
 4755 1e9e 1846     		mov	r0, r3
 4756 1ea0 10B0     		add	sp, sp, #64
 4757              		@ sp needed
 4758 1ea2 10BD     		pop	{r4, pc}
 4759              	.L383:
 4760              		.align	2
 4761              	.L382:
 4762 1ea4 00100240 		.word	1073876992
 4763              		.cfi_endproc
 4764              	.LFE144:
 4765              		.size	RCCEx_PLLSAI2_Config, .-RCCEx_PLLSAI2_Config
 4766              	.Letext0:
ARM GAS  /tmp/ccJqmpZo.s 			page 85


 4767              		.file 3 "/nfs/nfs5/home/research/hardware/arm2/gcc-arm-embedded/gcc-arm-none-eabi-4_8-2014q2/arm-n
 4768              		.file 4 "/nfs/nfs5/home/research/hardware/arm2/gcc-arm-embedded/gcc-arm-none-eabi-4_8-2014q2/arm-n
 4769              		.file 5 "../../../../../../ChibiOS/os/ext/CMSIS/ST/STM32L4xx/stm32l476xx.h"
 4770              		.file 6 "../../../../../../ChibiOS/os/ext/CMSIS/ST/STM32L4xx/stm32l4xx.h"
 4771              		.file 7 "../../../../../Drivers/STM32L4xx_HAL_Driver/Inc/stm32l4xx_hal_def.h"
 4772              		.file 8 "../../../../../Drivers/STM32L4xx_HAL_Driver/Inc/stm32l4xx_hal_rcc_ex.h"
 4773              		.file 9 "../../../../../Drivers/STM32L4xx_HAL_Driver/Inc/stm32l4xx_hal_gpio.h"
 4774              		.file 10 "../../../../../../ChibiOS/os/ext/CMSIS/include/core_cm4.h"