ARM GAS  /tmp/ccTMyCpM.s 			page 1


   1              		.syntax unified
   2              		.cpu cortex-m4
   3              		.fpu softvfp
   4              		.eabi_attribute 20, 1
   5              		.eabi_attribute 21, 1
   6              		.eabi_attribute 23, 3
   7              		.eabi_attribute 24, 1
   8              		.eabi_attribute 25, 1
   9              		.eabi_attribute 26, 1
  10              		.eabi_attribute 30, 6
  11              		.eabi_attribute 34, 1
  12              		.eabi_attribute 18, 4
  13              		.thumb
  14              		.file	"testsem.c"
  15              		.text
  16              	.Ltext0:
  17              		.cfi_sections	.debug_frame
  18              		.align	2
  19              		.p2align 4,,15
  20              		.thumb
  21              		.thumb_func
  22              		.type	port_lock, %function
  23              	port_lock:
  24              	.LFB129:
  25              		.file 1 "../../../../../../ChibiOS/os/rt/ports/ARMCMx/chcore_v7m.h"
  26              		.loc 1 456 0
  27              		.cfi_startproc
  28              		@ args = 0, pretend = 0, frame = 8
  29              		@ frame_needed = 0, uses_anonymous_args = 0
  30              		@ link register save eliminated.
  31 0000 82B0     		sub	sp, sp, #8
  32              		.cfi_def_cfa_offset 8
  33 0002 2023     		movs	r3, #32
  34 0004 0193     		str	r3, [sp, #4]
  35              	.LBB6:
  36              	.LBB7:
  37              		.file 2 "../../../../../../ChibiOS/os/ext/CMSIS/include/core_cmFunc.h"
  38              		.loc 2 548 0
  39 0006 019B     		ldr	r3, [sp, #4]
  40              	@ 548 "../../../../../../ChibiOS/os/ext/CMSIS/include/core_cmFunc.h" 1
  41 0008 83F31188 		MSR basepri, r3
  42              	@ 0 "" 2
  43              		.thumb
  44              	.LBE7:
  45              	.LBE6:
  46              		.loc 1 473 0
  47 000c 02B0     		add	sp, sp, #8
  48              		@ sp needed
  49 000e 7047     		bx	lr
  50              		.cfi_endproc
  51              	.LFE129:
  52              		.size	port_lock, .-port_lock
  53              		.align	2
  54              		.p2align 4,,15
  55              		.thumb
  56              		.thumb_func
  57              		.type	port_unlock, %function
ARM GAS  /tmp/ccTMyCpM.s 			page 2


  58              	port_unlock:
  59              	.LFB130:
  60              		.loc 1 480 0
  61              		.cfi_startproc
  62              		@ args = 0, pretend = 0, frame = 8
  63              		@ frame_needed = 0, uses_anonymous_args = 0
  64              		@ link register save eliminated.
  65 0010 82B0     		sub	sp, sp, #8
  66              		.cfi_def_cfa_offset 8
  67 0012 0023     		movs	r3, #0
  68 0014 0193     		str	r3, [sp, #4]
  69              	.LBB8:
  70              	.LBB9:
  71              		.loc 2 548 0
  72 0016 019B     		ldr	r3, [sp, #4]
  73              	@ 548 "../../../../../../ChibiOS/os/ext/CMSIS/include/core_cmFunc.h" 1
  74 0018 83F31188 		MSR basepri, r3
  75              	@ 0 "" 2
  76              		.thumb
  77              	.LBE9:
  78              	.LBE8:
  79              		.loc 1 487 0
  80 001c 02B0     		add	sp, sp, #8
  81              		@ sp needed
  82 001e 7047     		bx	lr
  83              		.cfi_endproc
  84              	.LFE130:
  85              		.size	port_unlock, .-port_unlock
  86              		.align	2
  87              		.p2align 4,,15
  88              		.thumb
  89              		.thumb_func
  90              		.type	queue_isempty, %function
  91              	queue_isempty:
  92              	.LFB142:
  93              		.file 3 "../../../../../../ChibiOS/os/rt/include/chschd.h"
  94              		.loc 3 616 0
  95              		.cfi_startproc
  96              		@ args = 0, pretend = 0, frame = 8
  97              		@ frame_needed = 0, uses_anonymous_args = 0
  98              		@ link register save eliminated.
  99 0020 82B0     		sub	sp, sp, #8
 100              		.cfi_def_cfa_offset 8
 101 0022 0190     		str	r0, [sp, #4]
 102              		.loc 3 618 0
 103 0024 019B     		ldr	r3, [sp, #4]
 104 0026 1A68     		ldr	r2, [r3]
 105 0028 019B     		ldr	r3, [sp, #4]
 106 002a 9A42     		cmp	r2, r3
 107 002c 14BF     		ite	ne
 108 002e 0023     		movne	r3, #0
 109 0030 0123     		moveq	r3, #1
 110 0032 DBB2     		uxtb	r3, r3
 111              		.loc 3 619 0
 112 0034 1846     		mov	r0, r3
 113 0036 02B0     		add	sp, sp, #8
 114              		@ sp needed
ARM GAS  /tmp/ccTMyCpM.s 			page 3


 115 0038 7047     		bx	lr
 116              		.cfi_endproc
 117              	.LFE142:
 118              		.size	queue_isempty, .-queue_isempty
 119 003a 00BF     		.align	2
 120 003c AFF30080 		.p2align 4,,15
 121              		.thumb
 122              		.thumb_func
 123              		.type	chSysLock, %function
 124              	chSysLock:
 125              	.LFB158:
 126              		.file 4 "../../../../../../ChibiOS/os/rt/include/chsys.h"
 127              		.loc 4 346 0
 128              		.cfi_startproc
 129              		@ args = 0, pretend = 0, frame = 0
 130              		@ frame_needed = 0, uses_anonymous_args = 0
 131 0040 08B5     		push	{r3, lr}
 132              		.cfi_def_cfa_offset 8
 133              		.cfi_offset 3, -8
 134              		.cfi_offset 14, -4
 135              		.loc 4 348 0
 136 0042 FFF7DDFF 		bl	port_lock
 137              		.loc 4 351 0
 138 0046 08BD     		pop	{r3, pc}
 139              		.cfi_endproc
 140              	.LFE158:
 141              		.size	chSysLock, .-chSysLock
 142              		.align	2
 143 0048 AFF30080 		.p2align 4,,15
 143      AFF30080 
 144              		.thumb
 145              		.thumb_func
 146              		.type	chSysUnlock, %function
 147              	chSysUnlock:
 148              	.LFB159:
 149              		.loc 4 358 0
 150              		.cfi_startproc
 151              		@ args = 0, pretend = 0, frame = 0
 152              		@ frame_needed = 0, uses_anonymous_args = 0
 153 0050 08B5     		push	{r3, lr}
 154              		.cfi_def_cfa_offset 8
 155              		.cfi_offset 3, -8
 156              		.cfi_offset 14, -4
 157              		.loc 4 371 0
 158 0052 FFF7DDFF 		bl	port_unlock
 159              		.loc 4 372 0
 160 0056 08BD     		pop	{r3, pc}
 161              		.cfi_endproc
 162              	.LFE159:
 163              		.size	chSysUnlock, .-chSysUnlock
 164              		.align	2
 165 0058 AFF30080 		.p2align 4,,15
 165      AFF30080 
 166              		.thumb
 167              		.thumb_func
 168              		.type	chVTGetSystemTimeX, %function
 169              	chVTGetSystemTimeX:
ARM GAS  /tmp/ccTMyCpM.s 			page 4


 170              	.LFB166:
 171              		.file 5 "../../../../../../ChibiOS/os/rt/include/chvt.h"
 172              		.loc 5 228 0
 173              		.cfi_startproc
 174              		@ args = 0, pretend = 0, frame = 0
 175              		@ frame_needed = 0, uses_anonymous_args = 0
 176              		@ link register save eliminated.
 177              		.loc 5 231 0
 178 0060 014B     		ldr	r3, .L9
 179 0062 9B6A     		ldr	r3, [r3, #40]
 180              		.loc 5 235 0
 181 0064 1846     		mov	r0, r3
 182 0066 7047     		bx	lr
 183              	.L10:
 184              		.align	2
 185              	.L9:
 186 0068 00000000 		.word	ch
 187              		.cfi_endproc
 188              	.LFE166:
 189              		.size	chVTGetSystemTimeX, .-chVTGetSystemTimeX
 190              		.align	2
 191 006c AFF30080 		.p2align 4,,15
 192              		.thumb
 193              		.thumb_func
 194              		.type	chVTGetSystemTime, %function
 195              	chVTGetSystemTime:
 196              	.LFB167:
 197              		.loc 5 247 0
 198              		.cfi_startproc
 199              		@ args = 0, pretend = 0, frame = 8
 200              		@ frame_needed = 0, uses_anonymous_args = 0
 201 0070 00B5     		push	{lr}
 202              		.cfi_def_cfa_offset 4
 203              		.cfi_offset 14, -4
 204 0072 83B0     		sub	sp, sp, #12
 205              		.cfi_def_cfa_offset 16
 206              		.loc 5 250 0
 207 0074 FFF7E4FF 		bl	chSysLock
 208              		.loc 5 251 0
 209 0078 FFF7F2FF 		bl	chVTGetSystemTimeX
 210 007c 0190     		str	r0, [sp, #4]
 211              		.loc 5 252 0
 212 007e FFF7E7FF 		bl	chSysUnlock
 213              		.loc 5 254 0
 214 0082 019B     		ldr	r3, [sp, #4]
 215              		.loc 5 255 0
 216 0084 1846     		mov	r0, r3
 217 0086 03B0     		add	sp, sp, #12
 218              		@ sp needed
 219 0088 5DF804FB 		ldr	pc, [sp], #4
 220              		.cfi_endproc
 221              	.LFE167:
 222              		.size	chVTGetSystemTime, .-chVTGetSystemTime
 223              		.align	2
 224 008c AFF30080 		.p2align 4,,15
 225              		.thumb
 226              		.thumb_func
ARM GAS  /tmp/ccTMyCpM.s 			page 5


 227              		.type	chThdGetSelfX, %function
 228              	chThdGetSelfX:
 229              	.LFB180:
 230              		.file 6 "../../../../../../ChibiOS/os/rt/include/chthreads.h"
 231              		.loc 6 174 0
 232              		.cfi_startproc
 233              		@ args = 0, pretend = 0, frame = 0
 234              		@ frame_needed = 0, uses_anonymous_args = 0
 235              		@ link register save eliminated.
 236              		.loc 6 176 0
 237 0090 014B     		ldr	r3, .L15
 238 0092 9B69     		ldr	r3, [r3, #24]
 239              		.loc 6 177 0
 240 0094 1846     		mov	r0, r3
 241 0096 7047     		bx	lr
 242              	.L16:
 243              		.align	2
 244              	.L15:
 245 0098 00000000 		.word	ch
 246              		.cfi_endproc
 247              	.LFE180:
 248              		.size	chThdGetSelfX, .-chThdGetSelfX
 249              		.align	2
 250 009c AFF30080 		.p2align 4,,15
 251              		.thumb
 252              		.thumb_func
 253              		.type	chThdGetPriorityX, %function
 254              	chThdGetPriorityX:
 255              	.LFB181:
 256              		.loc 6 187 0
 257              		.cfi_startproc
 258              		@ args = 0, pretend = 0, frame = 0
 259              		@ frame_needed = 0, uses_anonymous_args = 0
 260 00a0 08B5     		push	{r3, lr}
 261              		.cfi_def_cfa_offset 8
 262              		.cfi_offset 3, -8
 263              		.cfi_offset 14, -4
 264              		.loc 6 189 0
 265 00a2 FFF7F5FF 		bl	chThdGetSelfX
 266 00a6 0346     		mov	r3, r0
 267 00a8 9B68     		ldr	r3, [r3, #8]
 268              		.loc 6 190 0
 269 00aa 1846     		mov	r0, r3
 270 00ac 08BD     		pop	{r3, pc}
 271              		.cfi_endproc
 272              	.LFE181:
 273              		.size	chThdGetPriorityX, .-chThdGetPriorityX
 274 00ae 00BF     		.align	2
 275              		.p2align 4,,15
 276              		.thumb
 277              		.thumb_func
 278              		.type	chSemGetCounterI, %function
 279              	chSemGetCounterI:
 280              	.LFB194:
 281              		.file 7 "../../../../../../ChibiOS/os/rt/include/chsem.h"
 282              		.loc 7 149 0
 283              		.cfi_startproc
ARM GAS  /tmp/ccTMyCpM.s 			page 6


 284              		@ args = 0, pretend = 0, frame = 8
 285              		@ frame_needed = 0, uses_anonymous_args = 0
 286              		@ link register save eliminated.
 287 00b0 82B0     		sub	sp, sp, #8
 288              		.cfi_def_cfa_offset 8
 289 00b2 0190     		str	r0, [sp, #4]
 290              		.loc 7 153 0
 291 00b4 019B     		ldr	r3, [sp, #4]
 292 00b6 9B68     		ldr	r3, [r3, #8]
 293              		.loc 7 154 0
 294 00b8 1846     		mov	r0, r3
 295 00ba 02B0     		add	sp, sp, #8
 296              		@ sp needed
 297 00bc 7047     		bx	lr
 298              		.cfi_endproc
 299              	.LFE194:
 300              		.size	chSemGetCounterI, .-chSemGetCounterI
 301 00be 00BF     		.align	2
 302              		.p2align 4,,15
 303              		.thumb
 304              		.thumb_func
 305              		.type	chBSemObjectInit, %function
 306              	chBSemObjectInit:
 307              	.LFB195:
 308              		.file 8 "../../../../../../ChibiOS/os/rt/include/chbsem.h"
 309              		.loc 8 124 0
 310              		.cfi_startproc
 311              		@ args = 0, pretend = 0, frame = 8
 312              		@ frame_needed = 0, uses_anonymous_args = 0
 313 00c0 00B5     		push	{lr}
 314              		.cfi_def_cfa_offset 4
 315              		.cfi_offset 14, -4
 316 00c2 83B0     		sub	sp, sp, #12
 317              		.cfi_def_cfa_offset 16
 318 00c4 0190     		str	r0, [sp, #4]
 319 00c6 0B46     		mov	r3, r1
 320 00c8 8DF80330 		strb	r3, [sp, #3]
 321              		.loc 8 126 0
 322 00cc 019A     		ldr	r2, [sp, #4]
 323 00ce 9DF80330 		ldrb	r3, [sp, #3]	@ zero_extendqisi2
 324 00d2 002B     		cmp	r3, #0
 325 00d4 01D0     		beq	.L22
 326              		.loc 8 126 0 is_stmt 0 discriminator 1
 327 00d6 0023     		movs	r3, #0
 328 00d8 00E0     		b	.L23
 329              	.L22:
 330              		.loc 8 126 0 discriminator 2
 331 00da 0123     		movs	r3, #1
 332              	.L23:
 333              		.loc 8 126 0 discriminator 3
 334 00dc 1046     		mov	r0, r2
 335 00de 1946     		mov	r1, r3
 336 00e0 FFF7FEFF 		bl	chSemObjectInit
 337              		.loc 8 127 0 is_stmt 1 discriminator 3
 338 00e4 03B0     		add	sp, sp, #12
 339              		@ sp needed
 340 00e6 5DF804FB 		ldr	pc, [sp], #4
ARM GAS  /tmp/ccTMyCpM.s 			page 7


 341              		.cfi_endproc
 342              	.LFE195:
 343              		.size	chBSemObjectInit, .-chBSemObjectInit
 344 00ea 00BF     		.align	2
 345 00ec AFF30080 		.p2align 4,,15
 346              		.thumb
 347              		.thumb_func
 348              		.type	chBSemWait, %function
 349              	chBSemWait:
 350              	.LFB196:
 351              		.loc 8 141 0
 352              		.cfi_startproc
 353              		@ args = 0, pretend = 0, frame = 8
 354              		@ frame_needed = 0, uses_anonymous_args = 0
 355 00f0 00B5     		push	{lr}
 356              		.cfi_def_cfa_offset 4
 357              		.cfi_offset 14, -4
 358 00f2 83B0     		sub	sp, sp, #12
 359              		.cfi_def_cfa_offset 16
 360 00f4 0190     		str	r0, [sp, #4]
 361              		.loc 8 143 0
 362 00f6 019B     		ldr	r3, [sp, #4]
 363 00f8 1846     		mov	r0, r3
 364 00fa FFF7FEFF 		bl	chSemWait
 365 00fe 0346     		mov	r3, r0
 366              		.loc 8 144 0
 367 0100 1846     		mov	r0, r3
 368 0102 03B0     		add	sp, sp, #12
 369              		@ sp needed
 370 0104 5DF804FB 		ldr	pc, [sp], #4
 371              		.cfi_endproc
 372              	.LFE196:
 373              		.size	chBSemWait, .-chBSemWait
 374              		.align	2
 375 0108 AFF30080 		.p2align 4,,15
 375      AFF30080 
 376              		.thumb
 377              		.thumb_func
 378              		.type	chBSemReset, %function
 379              	chBSemReset:
 380              	.LFB201:
 381              		.loc 8 253 0
 382              		.cfi_startproc
 383              		@ args = 0, pretend = 0, frame = 8
 384              		@ frame_needed = 0, uses_anonymous_args = 0
 385 0110 00B5     		push	{lr}
 386              		.cfi_def_cfa_offset 4
 387              		.cfi_offset 14, -4
 388 0112 83B0     		sub	sp, sp, #12
 389              		.cfi_def_cfa_offset 16
 390 0114 0190     		str	r0, [sp, #4]
 391 0116 0B46     		mov	r3, r1
 392 0118 8DF80330 		strb	r3, [sp, #3]
 393              		.loc 8 255 0
 394 011c 019A     		ldr	r2, [sp, #4]
 395 011e 9DF80330 		ldrb	r3, [sp, #3]	@ zero_extendqisi2
 396 0122 002B     		cmp	r3, #0
ARM GAS  /tmp/ccTMyCpM.s 			page 8


 397 0124 01D0     		beq	.L27
 398              		.loc 8 255 0 is_stmt 0 discriminator 1
 399 0126 0023     		movs	r3, #0
 400 0128 00E0     		b	.L28
 401              	.L27:
 402              		.loc 8 255 0 discriminator 2
 403 012a 0123     		movs	r3, #1
 404              	.L28:
 405              		.loc 8 255 0 discriminator 3
 406 012c 1046     		mov	r0, r2
 407 012e 1946     		mov	r1, r3
 408 0130 FFF7FEFF 		bl	chSemReset
 409              		.loc 8 256 0 is_stmt 1 discriminator 3
 410 0134 03B0     		add	sp, sp, #12
 411              		@ sp needed
 412 0136 5DF804FB 		ldr	pc, [sp], #4
 413              		.cfi_endproc
 414              	.LFE201:
 415              		.size	chBSemReset, .-chBSemReset
 416 013a 00BF     		.align	2
 417 013c AFF30080 		.p2align 4,,15
 418              		.thumb
 419              		.thumb_func
 420              		.type	chBSemSignalI, %function
 421              	chBSemSignalI:
 422              	.LFB202:
 423              		.loc 8 266 0
 424              		.cfi_startproc
 425              		@ args = 0, pretend = 0, frame = 8
 426              		@ frame_needed = 0, uses_anonymous_args = 0
 427 0140 00B5     		push	{lr}
 428              		.cfi_def_cfa_offset 4
 429              		.cfi_offset 14, -4
 430 0142 83B0     		sub	sp, sp, #12
 431              		.cfi_def_cfa_offset 16
 432 0144 0190     		str	r0, [sp, #4]
 433              		.loc 8 270 0
 434 0146 019B     		ldr	r3, [sp, #4]
 435 0148 9B68     		ldr	r3, [r3, #8]
 436 014a 002B     		cmp	r3, #0
 437 014c 03DC     		bgt	.L29
 438              		.loc 8 271 0
 439 014e 019B     		ldr	r3, [sp, #4]
 440 0150 1846     		mov	r0, r3
 441 0152 FFF7FEFF 		bl	chSemSignalI
 442              	.L29:
 443              		.loc 8 273 0
 444 0156 03B0     		add	sp, sp, #12
 445              		@ sp needed
 446 0158 5DF804FB 		ldr	pc, [sp], #4
 447              		.cfi_endproc
 448              	.LFE202:
 449              		.size	chBSemSignalI, .-chBSemSignalI
 450              		.align	2
 451 015c AFF30080 		.p2align 4,,15
 452              		.thumb
 453              		.thumb_func
ARM GAS  /tmp/ccTMyCpM.s 			page 9


 454              		.type	chBSemSignal, %function
 455              	chBSemSignal:
 456              	.LFB203:
 457              		.loc 8 282 0
 458              		.cfi_startproc
 459              		@ args = 0, pretend = 0, frame = 8
 460              		@ frame_needed = 0, uses_anonymous_args = 0
 461 0160 00B5     		push	{lr}
 462              		.cfi_def_cfa_offset 4
 463              		.cfi_offset 14, -4
 464 0162 83B0     		sub	sp, sp, #12
 465              		.cfi_def_cfa_offset 16
 466 0164 0190     		str	r0, [sp, #4]
 467              		.loc 8 284 0
 468 0166 FFF76BFF 		bl	chSysLock
 469              		.loc 8 285 0
 470 016a 0198     		ldr	r0, [sp, #4]
 471 016c FFF7E8FF 		bl	chBSemSignalI
 472              		.loc 8 286 0
 473 0170 FFF7FEFF 		bl	chSchRescheduleS
 474              		.loc 8 287 0
 475 0174 FFF76CFF 		bl	chSysUnlock
 476              		.loc 8 288 0
 477 0178 03B0     		add	sp, sp, #12
 478              		@ sp needed
 479 017a 5DF804FB 		ldr	pc, [sp], #4
 480              		.cfi_endproc
 481              	.LFE203:
 482              		.size	chBSemSignal, .-chBSemSignal
 483 017e 00BF     		.align	2
 484              		.p2align 4,,15
 485              		.thumb
 486              		.thumb_func
 487              		.type	chBSemGetStateI, %function
 488              	chBSemGetStateI:
 489              	.LFB204:
 490              		.loc 8 300 0
 491              		.cfi_startproc
 492              		@ args = 0, pretend = 0, frame = 8
 493              		@ frame_needed = 0, uses_anonymous_args = 0
 494              		@ link register save eliminated.
 495 0180 82B0     		sub	sp, sp, #8
 496              		.cfi_def_cfa_offset 8
 497 0182 0190     		str	r0, [sp, #4]
 498              		.loc 8 304 0
 499 0184 019B     		ldr	r3, [sp, #4]
 500 0186 9B68     		ldr	r3, [r3, #8]
 501 0188 002B     		cmp	r3, #0
 502 018a CCBF     		ite	gt
 503 018c 0023     		movgt	r3, #0
 504 018e 0123     		movle	r3, #1
 505 0190 DBB2     		uxtb	r3, r3
 506              		.loc 8 305 0
 507 0192 1846     		mov	r0, r3
 508 0194 02B0     		add	sp, sp, #8
 509              		@ sp needed
 510 0196 7047     		bx	lr
ARM GAS  /tmp/ccTMyCpM.s 			page 10


 511              		.cfi_endproc
 512              	.LFE204:
 513              		.size	chBSemGetStateI, .-chBSemGetStateI
 514              		.data
 515              		.align	2
 516              		.type	sem1, %object
 517              		.size	sem1, 12
 518              	sem1:
 519 0000 00000000 		.word	sem1
 520 0004 00000000 		.word	sem1
 521 0008 00000000 		.word	0
 522              		.text
 523              		.align	2
 524 0198 AFF30080 		.p2align 4,,15
 524      AFF30080 
 525              		.thumb
 526              		.thumb_func
 527              		.type	sem1_setup, %function
 528              	sem1_setup:
 529              	.LFB232:
 530              		.file 9 "../../../../../../ChibiOS/test/rt/testsem.c"
 531              		.loc 9 72 0
 532              		.cfi_startproc
 533              		@ args = 0, pretend = 0, frame = 0
 534              		@ frame_needed = 0, uses_anonymous_args = 0
 535 01a0 08B5     		push	{r3, lr}
 536              		.cfi_def_cfa_offset 8
 537              		.cfi_offset 3, -8
 538              		.cfi_offset 14, -4
 539              		.loc 9 74 0
 540 01a2 0248     		ldr	r0, .L35
 541 01a4 0021     		movs	r1, #0
 542 01a6 FFF7FEFF 		bl	chSemObjectInit
 543              		.loc 9 75 0
 544 01aa 08BD     		pop	{r3, pc}
 545              	.L36:
 546              		.align	2
 547              	.L35:
 548 01ac 00000000 		.word	sem1
 549              		.cfi_endproc
 550              	.LFE232:
 551              		.size	sem1_setup, .-sem1_setup
 552              		.align	2
 553              		.p2align 4,,15
 554              		.thumb
 555              		.thumb_func
 556              		.type	thread1, %function
 557              	thread1:
 558              	.LFB233:
 559              		.loc 9 77 0
 560              		.cfi_startproc
 561              		@ args = 0, pretend = 0, frame = 8
 562              		@ frame_needed = 0, uses_anonymous_args = 0
 563 01b0 00B5     		push	{lr}
 564              		.cfi_def_cfa_offset 4
 565              		.cfi_offset 14, -4
 566 01b2 83B0     		sub	sp, sp, #12
ARM GAS  /tmp/ccTMyCpM.s 			page 11


 567              		.cfi_def_cfa_offset 16
 568 01b4 0190     		str	r0, [sp, #4]
 569              		.loc 9 79 0
 570 01b6 0548     		ldr	r0, .L38
 571 01b8 FFF7FEFF 		bl	chSemWait
 572              		.loc 9 80 0
 573 01bc 019B     		ldr	r3, [sp, #4]
 574 01be 1B78     		ldrb	r3, [r3]	@ zero_extendqisi2
 575 01c0 1846     		mov	r0, r3
 576 01c2 FFF7FEFF 		bl	test_emit_token
 577              		.loc 9 81 0
 578 01c6 03B0     		add	sp, sp, #12
 579              		@ sp needed
 580 01c8 5DF804FB 		ldr	pc, [sp], #4
 581              	.L39:
 582              		.align	2
 583              	.L38:
 584 01cc 00000000 		.word	sem1
 585              		.cfi_endproc
 586              	.LFE233:
 587              		.size	thread1, .-thread1
 588              		.section	.rodata
 589              		.align	2
 590              	.LC0:
 591 0000 4100     		.ascii	"A\000"
 592 0002 0000     		.align	2
 593              	.LC1:
 594 0004 4200     		.ascii	"B\000"
 595 0006 0000     		.align	2
 596              	.LC2:
 597 0008 4300     		.ascii	"C\000"
 598 000a 0000     		.align	2
 599              	.LC3:
 600 000c 4400     		.ascii	"D\000"
 601 000e 0000     		.align	2
 602              	.LC4:
 603 0010 4500     		.ascii	"E\000"
 604 0012 0000     		.align	2
 605              	.LC5:
 606 0014 41424344 		.ascii	"ABCDE\000"
 606      4500
 607              		.text
 608              		.align	2
 609              		.p2align 4,,15
 610              		.thumb
 611              		.thumb_func
 612              		.type	sem1_execute, %function
 613              	sem1_execute:
 614              	.LFB234:
 615              		.loc 9 83 0
 616              		.cfi_startproc
 617              		@ args = 0, pretend = 0, frame = 0
 618              		@ frame_needed = 0, uses_anonymous_args = 0
 619 01d0 10B5     		push	{r4, lr}
 620              		.cfi_def_cfa_offset 8
 621              		.cfi_offset 4, -8
 622              		.cfi_offset 14, -4
ARM GAS  /tmp/ccTMyCpM.s 			page 12


 623 01d2 82B0     		sub	sp, sp, #8
 624              		.cfi_def_cfa_offset 16
 625              		.loc 9 85 0
 626 01d4 544B     		ldr	r3, .L44
 627 01d6 1C68     		ldr	r4, [r3]
 628 01d8 FFF762FF 		bl	chThdGetPriorityX
 629 01dc 0346     		mov	r3, r0
 630 01de 0533     		adds	r3, r3, #5
 631 01e0 524A     		ldr	r2, .L44+4
 632 01e2 0092     		str	r2, [sp]
 633 01e4 2046     		mov	r0, r4
 634 01e6 4FF4A471 		mov	r1, #328
 635 01ea 1A46     		mov	r2, r3
 636 01ec 504B     		ldr	r3, .L44+8
 637 01ee FFF7FEFF 		bl	chThdCreateStatic
 638 01f2 0246     		mov	r2, r0
 639 01f4 4F4B     		ldr	r3, .L44+12
 640 01f6 1A60     		str	r2, [r3]
 641              		.loc 9 86 0
 642 01f8 4B4B     		ldr	r3, .L44
 643 01fa 5C68     		ldr	r4, [r3, #4]
 644 01fc FFF750FF 		bl	chThdGetPriorityX
 645 0200 0346     		mov	r3, r0
 646 0202 0133     		adds	r3, r3, #1
 647 0204 4C4A     		ldr	r2, .L44+16
 648 0206 0092     		str	r2, [sp]
 649 0208 2046     		mov	r0, r4
 650 020a 4FF4A471 		mov	r1, #328
 651 020e 1A46     		mov	r2, r3
 652 0210 474B     		ldr	r3, .L44+8
 653 0212 FFF7FEFF 		bl	chThdCreateStatic
 654 0216 0246     		mov	r2, r0
 655 0218 464B     		ldr	r3, .L44+12
 656 021a 5A60     		str	r2, [r3, #4]
 657              		.loc 9 87 0
 658 021c 424B     		ldr	r3, .L44
 659 021e 9C68     		ldr	r4, [r3, #8]
 660 0220 FFF73EFF 		bl	chThdGetPriorityX
 661 0224 0346     		mov	r3, r0
 662 0226 0333     		adds	r3, r3, #3
 663 0228 444A     		ldr	r2, .L44+20
 664 022a 0092     		str	r2, [sp]
 665 022c 2046     		mov	r0, r4
 666 022e 4FF4A471 		mov	r1, #328
 667 0232 1A46     		mov	r2, r3
 668 0234 3E4B     		ldr	r3, .L44+8
 669 0236 FFF7FEFF 		bl	chThdCreateStatic
 670 023a 0246     		mov	r2, r0
 671 023c 3D4B     		ldr	r3, .L44+12
 672 023e 9A60     		str	r2, [r3, #8]
 673              		.loc 9 88 0
 674 0240 394B     		ldr	r3, .L44
 675 0242 DC68     		ldr	r4, [r3, #12]
 676 0244 FFF72CFF 		bl	chThdGetPriorityX
 677 0248 0346     		mov	r3, r0
 678 024a 0433     		adds	r3, r3, #4
 679 024c 3C4A     		ldr	r2, .L44+24
ARM GAS  /tmp/ccTMyCpM.s 			page 13


 680 024e 0092     		str	r2, [sp]
 681 0250 2046     		mov	r0, r4
 682 0252 4FF4A471 		mov	r1, #328
 683 0256 1A46     		mov	r2, r3
 684 0258 354B     		ldr	r3, .L44+8
 685 025a FFF7FEFF 		bl	chThdCreateStatic
 686 025e 0246     		mov	r2, r0
 687 0260 344B     		ldr	r3, .L44+12
 688 0262 DA60     		str	r2, [r3, #12]
 689              		.loc 9 89 0
 690 0264 304B     		ldr	r3, .L44
 691 0266 1C69     		ldr	r4, [r3, #16]
 692 0268 FFF71AFF 		bl	chThdGetPriorityX
 693 026c 0346     		mov	r3, r0
 694 026e 0233     		adds	r3, r3, #2
 695 0270 344A     		ldr	r2, .L44+28
 696 0272 0092     		str	r2, [sp]
 697 0274 2046     		mov	r0, r4
 698 0276 4FF4A471 		mov	r1, #328
 699 027a 1A46     		mov	r2, r3
 700 027c 2C4B     		ldr	r3, .L44+8
 701 027e FFF7FEFF 		bl	chThdCreateStatic
 702 0282 0246     		mov	r2, r0
 703 0284 2B4B     		ldr	r3, .L44+12
 704 0286 1A61     		str	r2, [r3, #16]
 705              		.loc 9 90 0
 706 0288 2F48     		ldr	r0, .L44+32
 707 028a FFF7FEFF 		bl	chSemSignal
 708              		.loc 9 91 0
 709 028e 2E48     		ldr	r0, .L44+32
 710 0290 FFF7FEFF 		bl	chSemSignal
 711              		.loc 9 92 0
 712 0294 2C48     		ldr	r0, .L44+32
 713 0296 FFF7FEFF 		bl	chSemSignal
 714              		.loc 9 93 0
 715 029a 2B48     		ldr	r0, .L44+32
 716 029c FFF7FEFF 		bl	chSemSignal
 717              		.loc 9 94 0
 718 02a0 2948     		ldr	r0, .L44+32
 719 02a2 FFF7FEFF 		bl	chSemSignal
 720              		.loc 9 95 0
 721 02a6 FFF7FEFF 		bl	test_wait_threads
 722              		.loc 9 99 0
 723 02aa 0120     		movs	r0, #1
 724 02ac 2749     		ldr	r1, .L44+36
 725 02ae FFF7FEFF 		bl	_test_assert_sequence
 726 02b2 0346     		mov	r3, r0
 727 02b4 002B     		cmp	r3, #0
 728 02b6 00D0     		beq	.L41
 729              		.loc 9 99 0 is_stmt 0 discriminator 1
 730 02b8 34E0     		b	.L40
 731              	.L41:
 732              		.loc 9 101 0 is_stmt 1
 733 02ba 1B4B     		ldr	r3, .L44
 734 02bc 1C68     		ldr	r4, [r3]
 735 02be FFF7EFFE 		bl	chThdGetPriorityX
 736 02c2 0346     		mov	r3, r0
ARM GAS  /tmp/ccTMyCpM.s 			page 14


 737 02c4 0533     		adds	r3, r3, #5
 738 02c6 194A     		ldr	r2, .L44+4
 739 02c8 0092     		str	r2, [sp]
 740 02ca 2046     		mov	r0, r4
 741 02cc 4FF4A471 		mov	r1, #328
 742 02d0 1A46     		mov	r2, r3
 743 02d2 174B     		ldr	r3, .L44+8
 744 02d4 FFF7FEFF 		bl	chThdCreateStatic
 745 02d8 0246     		mov	r2, r0
 746 02da 164B     		ldr	r3, .L44+12
 747 02dc 1A60     		str	r2, [r3]
 748              		.loc 9 102 0
 749 02de FFF7AFFE 		bl	chSysLock
 750              		.loc 9 103 0
 751 02e2 1948     		ldr	r0, .L44+32
 752 02e4 0221     		movs	r1, #2
 753 02e6 FFF7FEFF 		bl	chSemAddCounterI
 754              		.loc 9 104 0
 755 02ea FFF7FEFF 		bl	chSchRescheduleS
 756              		.loc 9 105 0
 757 02ee FFF7AFFE 		bl	chSysUnlock
 758              		.loc 9 106 0
 759 02f2 FFF7FEFF 		bl	test_wait_threads
 760              		.loc 9 107 0
 761 02f6 FFF7A3FE 		bl	chSysLock
 762 02fa 1348     		ldr	r0, .L44+32
 763 02fc FFF7D8FE 		bl	chSemGetCounterI
 764 0300 0346     		mov	r3, r0
 765 0302 012B     		cmp	r3, #1
 766 0304 14BF     		ite	ne
 767 0306 0023     		movne	r3, #0
 768 0308 0123     		moveq	r3, #1
 769 030a DBB2     		uxtb	r3, r3
 770 030c 0220     		movs	r0, #2
 771 030e 1946     		mov	r1, r3
 772 0310 FFF7FEFF 		bl	_test_assert
 773 0314 0346     		mov	r3, r0
 774 0316 002B     		cmp	r3, #0
 775 0318 02D0     		beq	.L43
 776              		.loc 9 107 0 is_stmt 0 discriminator 1
 777 031a FFF799FE 		bl	chSysUnlock
 778 031e 01E0     		b	.L40
 779              	.L43:
 780              		.loc 9 107 0 discriminator 2
 781 0320 FFF796FE 		bl	chSysUnlock
 782              	.L40:
 783              		.loc 9 108 0 is_stmt 1
 784 0324 02B0     		add	sp, sp, #8
 785              		@ sp needed
 786 0326 10BD     		pop	{r4, pc}
 787              	.L45:
 788              		.align	2
 789              	.L44:
 790 0328 00000000 		.word	wa
 791 032c 00000000 		.word	.LC0
 792 0330 00000000 		.word	thread1
 793 0334 00000000 		.word	threads
ARM GAS  /tmp/ccTMyCpM.s 			page 15


 794 0338 04000000 		.word	.LC1
 795 033c 08000000 		.word	.LC2
 796 0340 0C000000 		.word	.LC3
 797 0344 10000000 		.word	.LC4
 798 0348 00000000 		.word	sem1
 799 034c 14000000 		.word	.LC5
 800              		.cfi_endproc
 801              	.LFE234:
 802              		.size	sem1_execute, .-sem1_execute
 803              		.global	testsem1
 804              		.section	.rodata
 805 001a 0000     		.align	2
 806              	.LC6:
 807 001c 53656D61 		.ascii	"Semaphores, enqueuing\000"
 807      70686F72 
 807      65732C20 
 807      656E7175 
 807      6575696E 
 808 0032 0000     		.align	2
 809              		.type	testsem1, %object
 810              		.size	testsem1, 16
 811              	testsem1:
 812 0034 1C000000 		.word	.LC6
 813 0038 00000000 		.word	sem1_setup
 814 003c 00000000 		.word	0
 815 0040 00000000 		.word	sem1_execute
 816              		.text
 817              		.align	2
 818              		.p2align 4,,15
 819              		.thumb
 820              		.thumb_func
 821              		.type	sem2_setup, %function
 822              	sem2_setup:
 823              	.LFB235:
 824              		.loc 9 128 0
 825              		.cfi_startproc
 826              		@ args = 0, pretend = 0, frame = 0
 827              		@ frame_needed = 0, uses_anonymous_args = 0
 828 0350 08B5     		push	{r3, lr}
 829              		.cfi_def_cfa_offset 8
 830              		.cfi_offset 3, -8
 831              		.cfi_offset 14, -4
 832              		.loc 9 130 0
 833 0352 0248     		ldr	r0, .L47
 834 0354 0021     		movs	r1, #0
 835 0356 FFF7FEFF 		bl	chSemObjectInit
 836              		.loc 9 131 0
 837 035a 08BD     		pop	{r3, pc}
 838              	.L48:
 839              		.align	2
 840              	.L47:
 841 035c 00000000 		.word	sem1
 842              		.cfi_endproc
 843              	.LFE235:
 844              		.size	sem2_setup, .-sem2_setup
 845              		.align	2
 846              		.p2align 4,,15
ARM GAS  /tmp/ccTMyCpM.s 			page 16


 847              		.thumb
 848              		.thumb_func
 849              		.type	thread2, %function
 850              	thread2:
 851              	.LFB236:
 852              		.loc 9 133 0
 853              		.cfi_startproc
 854              		@ args = 0, pretend = 0, frame = 8
 855              		@ frame_needed = 0, uses_anonymous_args = 0
 856 0360 00B5     		push	{lr}
 857              		.cfi_def_cfa_offset 4
 858              		.cfi_offset 14, -4
 859 0362 83B0     		sub	sp, sp, #12
 860              		.cfi_def_cfa_offset 16
 861 0364 0190     		str	r0, [sp, #4]
 862              		.loc 9 136 0
 863 0366 3220     		movs	r0, #50
 864 0368 FFF7FEFF 		bl	chThdSleep
 865              		.loc 9 137 0
 866 036c FFF768FE 		bl	chSysLock
 867              		.loc 9 138 0
 868 0370 0448     		ldr	r0, .L50
 869 0372 FFF7FEFF 		bl	chSemSignalI
 870              		.loc 9 139 0
 871 0376 FFF7FEFF 		bl	chSchRescheduleS
 872              		.loc 9 140 0
 873 037a FFF769FE 		bl	chSysUnlock
 874              		.loc 9 141 0
 875 037e 03B0     		add	sp, sp, #12
 876              		@ sp needed
 877 0380 5DF804FB 		ldr	pc, [sp], #4
 878              	.L51:
 879              		.align	2
 880              	.L50:
 881 0384 00000000 		.word	sem1
 882              		.cfi_endproc
 883              	.LFE236:
 884              		.size	thread2, .-thread2
 885              		.align	2
 886 0388 AFF30080 		.p2align 4,,15
 886      AFF30080 
 887              		.thumb
 888              		.thumb_func
 889              		.type	sem2_execute, %function
 890              	sem2_execute:
 891              	.LFB237:
 892              		.loc 9 143 0
 893              		.cfi_startproc
 894              		@ args = 0, pretend = 0, frame = 16
 895              		@ frame_needed = 0, uses_anonymous_args = 0
 896 0390 10B5     		push	{r4, lr}
 897              		.cfi_def_cfa_offset 8
 898              		.cfi_offset 4, -8
 899              		.cfi_offset 14, -4
 900 0392 86B0     		sub	sp, sp, #24
 901              		.cfi_def_cfa_offset 32
 902              		.loc 9 151 0
ARM GAS  /tmp/ccTMyCpM.s 			page 17


 903 0394 6648     		ldr	r0, .L66
 904 0396 0021     		movs	r1, #0
 905 0398 FFF7FEFF 		bl	chSemWaitTimeout
 906 039c 0490     		str	r0, [sp, #16]
 907              		.loc 9 152 0
 908 039e 049B     		ldr	r3, [sp, #16]
 909 03a0 B3F1FF3F 		cmp	r3, #-1
 910 03a4 14BF     		ite	ne
 911 03a6 0023     		movne	r3, #0
 912 03a8 0123     		moveq	r3, #1
 913 03aa DBB2     		uxtb	r3, r3
 914 03ac 0120     		movs	r0, #1
 915 03ae 1946     		mov	r1, r3
 916 03b0 FFF7FEFF 		bl	_test_assert
 917 03b4 0346     		mov	r3, r0
 918 03b6 002B     		cmp	r3, #0
 919 03b8 00D0     		beq	.L53
 920              		.loc 9 152 0 is_stmt 0 discriminator 1
 921 03ba B6E0     		b	.L52
 922              	.L53:
 923              		.loc 9 153 0 is_stmt 1
 924 03bc 5C48     		ldr	r0, .L66
 925 03be FFF72FFE 		bl	queue_isempty
 926 03c2 0346     		mov	r3, r0
 927 03c4 0220     		movs	r0, #2
 928 03c6 1946     		mov	r1, r3
 929 03c8 FFF7FEFF 		bl	_test_assert
 930 03cc 0346     		mov	r3, r0
 931 03ce 002B     		cmp	r3, #0
 932 03d0 00D0     		beq	.L55
 933              		.loc 9 153 0 is_stmt 0 discriminator 1
 934 03d2 AAE0     		b	.L52
 935              	.L55:
 936              		.loc 9 154 0 is_stmt 1
 937 03d4 564B     		ldr	r3, .L66
 938 03d6 9B68     		ldr	r3, [r3, #8]
 939 03d8 002B     		cmp	r3, #0
 940 03da 14BF     		ite	ne
 941 03dc 0023     		movne	r3, #0
 942 03de 0123     		moveq	r3, #1
 943 03e0 DBB2     		uxtb	r3, r3
 944 03e2 0320     		movs	r0, #3
 945 03e4 1946     		mov	r1, r3
 946 03e6 FFF7FEFF 		bl	_test_assert
 947 03ea 0346     		mov	r3, r0
 948 03ec 002B     		cmp	r3, #0
 949 03ee 00D0     		beq	.L56
 950              		.loc 9 154 0 is_stmt 0 discriminator 1
 951 03f0 9BE0     		b	.L52
 952              	.L56:
 953              		.loc 9 159 0 is_stmt 1
 954 03f2 504B     		ldr	r3, .L66+4
 955 03f4 1C68     		ldr	r4, [r3]
 956 03f6 FFF753FE 		bl	chThdGetPriorityX
 957 03fa 0346     		mov	r3, r0
 958 03fc 013B     		subs	r3, r3, #1
 959 03fe 0022     		movs	r2, #0
ARM GAS  /tmp/ccTMyCpM.s 			page 18


 960 0400 0092     		str	r2, [sp]
 961 0402 2046     		mov	r0, r4
 962 0404 4FF4A471 		mov	r1, #328
 963 0408 1A46     		mov	r2, r3
 964 040a 4B4B     		ldr	r3, .L66+8
 965 040c FFF7FEFF 		bl	chThdCreateStatic
 966 0410 0246     		mov	r2, r0
 967 0412 4A4B     		ldr	r3, .L66+12
 968 0414 1A60     		str	r2, [r3]
 969              		.loc 9 161 0
 970 0416 4648     		ldr	r0, .L66
 971 0418 4FF4FA71 		mov	r1, #500
 972 041c FFF7FEFF 		bl	chSemWaitTimeout
 973 0420 0490     		str	r0, [sp, #16]
 974              		.loc 9 162 0
 975 0422 FFF7FEFF 		bl	test_wait_threads
 976              		.loc 9 163 0
 977 0426 049B     		ldr	r3, [sp, #16]
 978 0428 002B     		cmp	r3, #0
 979 042a 14BF     		ite	ne
 980 042c 0023     		movne	r3, #0
 981 042e 0123     		moveq	r3, #1
 982 0430 DBB2     		uxtb	r3, r3
 983 0432 0420     		movs	r0, #4
 984 0434 1946     		mov	r1, r3
 985 0436 FFF7FEFF 		bl	_test_assert
 986 043a 0346     		mov	r3, r0
 987 043c 002B     		cmp	r3, #0
 988 043e 00D0     		beq	.L57
 989              		.loc 9 163 0 is_stmt 0 discriminator 1
 990 0440 73E0     		b	.L52
 991              	.L57:
 992              		.loc 9 164 0 is_stmt 1
 993 0442 3B48     		ldr	r0, .L66
 994 0444 FFF7ECFD 		bl	queue_isempty
 995 0448 0346     		mov	r3, r0
 996 044a 0520     		movs	r0, #5
 997 044c 1946     		mov	r1, r3
 998 044e FFF7FEFF 		bl	_test_assert
 999 0452 0346     		mov	r3, r0
 1000 0454 002B     		cmp	r3, #0
 1001 0456 00D0     		beq	.L58
 1002              		.loc 9 164 0 is_stmt 0 discriminator 1
 1003 0458 67E0     		b	.L52
 1004              	.L58:
 1005              		.loc 9 165 0 is_stmt 1
 1006 045a 354B     		ldr	r3, .L66
 1007 045c 9B68     		ldr	r3, [r3, #8]
 1008 045e 002B     		cmp	r3, #0
 1009 0460 14BF     		ite	ne
 1010 0462 0023     		movne	r3, #0
 1011 0464 0123     		moveq	r3, #1
 1012 0466 DBB2     		uxtb	r3, r3
 1013 0468 0620     		movs	r0, #6
 1014 046a 1946     		mov	r1, r3
 1015 046c FFF7FEFF 		bl	_test_assert
 1016 0470 0346     		mov	r3, r0
ARM GAS  /tmp/ccTMyCpM.s 			page 19


 1017 0472 002B     		cmp	r3, #0
 1018 0474 00D0     		beq	.L59
 1019              		.loc 9 165 0 is_stmt 0 discriminator 1
 1020 0476 58E0     		b	.L52
 1021              	.L59:
 1022              		.loc 9 170 0 is_stmt 1
 1023 0478 FFF7FEFF 		bl	test_wait_tick
 1024              		.loc 9 171 0
 1025 047c FFF7F8FD 		bl	chVTGetSystemTime
 1026 0480 0346     		mov	r3, r0
 1027 0482 FA33     		adds	r3, r3, #250
 1028 0484 0393     		str	r3, [sp, #12]
 1029              		.loc 9 172 0
 1030 0486 0023     		movs	r3, #0
 1031 0488 0593     		str	r3, [sp, #20]
 1032 048a 38E0     		b	.L60
 1033              	.L64:
 1034              		.loc 9 173 0
 1035 048c 059B     		ldr	r3, [sp, #20]
 1036 048e DBB2     		uxtb	r3, r3
 1037 0490 4133     		adds	r3, r3, #65
 1038 0492 DBB2     		uxtb	r3, r3
 1039 0494 1846     		mov	r0, r3
 1040 0496 FFF7FEFF 		bl	test_emit_token
 1041              		.loc 9 174 0
 1042 049a 2548     		ldr	r0, .L66
 1043 049c 3221     		movs	r1, #50
 1044 049e FFF7FEFF 		bl	chSemWaitTimeout
 1045 04a2 0490     		str	r0, [sp, #16]
 1046              		.loc 9 175 0
 1047 04a4 049B     		ldr	r3, [sp, #16]
 1048 04a6 B3F1FF3F 		cmp	r3, #-1
 1049 04aa 14BF     		ite	ne
 1050 04ac 0023     		movne	r3, #0
 1051 04ae 0123     		moveq	r3, #1
 1052 04b0 DBB2     		uxtb	r3, r3
 1053 04b2 0720     		movs	r0, #7
 1054 04b4 1946     		mov	r1, r3
 1055 04b6 FFF7FEFF 		bl	_test_assert
 1056 04ba 0346     		mov	r3, r0
 1057 04bc 002B     		cmp	r3, #0
 1058 04be 00D0     		beq	.L61
 1059              		.loc 9 175 0 is_stmt 0 discriminator 1
 1060 04c0 33E0     		b	.L52
 1061              	.L61:
 1062              		.loc 9 176 0 is_stmt 1
 1063 04c2 1B48     		ldr	r0, .L66
 1064 04c4 FFF7ACFD 		bl	queue_isempty
 1065 04c8 0346     		mov	r3, r0
 1066 04ca 0820     		movs	r0, #8
 1067 04cc 1946     		mov	r1, r3
 1068 04ce FFF7FEFF 		bl	_test_assert
 1069 04d2 0346     		mov	r3, r0
 1070 04d4 002B     		cmp	r3, #0
 1071 04d6 00D0     		beq	.L62
 1072              		.loc 9 176 0 is_stmt 0 discriminator 1
 1073 04d8 27E0     		b	.L52
ARM GAS  /tmp/ccTMyCpM.s 			page 20


 1074              	.L62:
 1075              		.loc 9 177 0 is_stmt 1
 1076 04da 154B     		ldr	r3, .L66
 1077 04dc 9B68     		ldr	r3, [r3, #8]
 1078 04de 002B     		cmp	r3, #0
 1079 04e0 14BF     		ite	ne
 1080 04e2 0023     		movne	r3, #0
 1081 04e4 0123     		moveq	r3, #1
 1082 04e6 DBB2     		uxtb	r3, r3
 1083 04e8 0920     		movs	r0, #9
 1084 04ea 1946     		mov	r1, r3
 1085 04ec FFF7FEFF 		bl	_test_assert
 1086 04f0 0346     		mov	r3, r0
 1087 04f2 002B     		cmp	r3, #0
 1088 04f4 00D0     		beq	.L63
 1089              		.loc 9 177 0 is_stmt 0 discriminator 1
 1090 04f6 18E0     		b	.L52
 1091              	.L63:
 1092              		.loc 9 172 0 is_stmt 1
 1093 04f8 059B     		ldr	r3, [sp, #20]
 1094 04fa 0133     		adds	r3, r3, #1
 1095 04fc 0593     		str	r3, [sp, #20]
 1096              	.L60:
 1097              		.loc 9 172 0 is_stmt 0 discriminator 1
 1098 04fe 059B     		ldr	r3, [sp, #20]
 1099 0500 042B     		cmp	r3, #4
 1100 0502 C3DD     		ble	.L64
 1101              		.loc 9 179 0 is_stmt 1
 1102 0504 0A20     		movs	r0, #10
 1103 0506 0E49     		ldr	r1, .L66+16
 1104 0508 FFF7FEFF 		bl	_test_assert_sequence
 1105 050c 0346     		mov	r3, r0
 1106 050e 002B     		cmp	r3, #0
 1107 0510 00D0     		beq	.L65
 1108              		.loc 9 179 0 is_stmt 0 discriminator 1
 1109 0512 0AE0     		b	.L52
 1110              	.L65:
 1111              		.loc 9 180 0 is_stmt 1
 1112 0514 039B     		ldr	r3, [sp, #12]
 1113 0516 0233     		adds	r3, r3, #2
 1114 0518 0B20     		movs	r0, #11
 1115 051a 0399     		ldr	r1, [sp, #12]
 1116 051c 1A46     		mov	r2, r3
 1117 051e FFF7FEFF 		bl	_test_assert_time_window
 1118 0522 0346     		mov	r3, r0
 1119 0524 002B     		cmp	r3, #0
 1120 0526 00D0     		beq	.L52
 1121              		.loc 9 180 0 is_stmt 0 discriminator 1
 1122 0528 00BF     		nop
 1123              	.L52:
 1124              		.loc 9 181 0 is_stmt 1
 1125 052a 06B0     		add	sp, sp, #24
 1126              		@ sp needed
 1127 052c 10BD     		pop	{r4, pc}
 1128              	.L67:
 1129 052e 00BF     		.align	2
 1130              	.L66:
ARM GAS  /tmp/ccTMyCpM.s 			page 21


 1131 0530 00000000 		.word	sem1
 1132 0534 00000000 		.word	wa
 1133 0538 00000000 		.word	thread2
 1134 053c 00000000 		.word	threads
 1135 0540 14000000 		.word	.LC5
 1136              		.cfi_endproc
 1137              	.LFE237:
 1138              		.size	sem2_execute, .-sem2_execute
 1139              		.global	testsem2
 1140              		.section	.rodata
 1141              		.align	2
 1142              	.LC7:
 1143 0044 53656D61 		.ascii	"Semaphores, timeout\000"
 1143      70686F72 
 1143      65732C20 
 1143      74696D65 
 1143      6F757400 
 1144              		.align	2
 1145              		.type	testsem2, %object
 1146              		.size	testsem2, 16
 1147              	testsem2:
 1148 0058 44000000 		.word	.LC7
 1149 005c 00000000 		.word	sem2_setup
 1150 0060 00000000 		.word	0
 1151 0064 00000000 		.word	sem2_execute
 1152              		.text
 1153              		.align	2
 1154 0544 AFF30080 		.p2align 4,,15
 1154      AFF30080 
 1154      AFF30080 
 1155              		.thumb
 1156              		.thumb_func
 1157              		.type	sem3_setup, %function
 1158              	sem3_setup:
 1159              	.LFB238:
 1160              		.loc 9 202 0
 1161              		.cfi_startproc
 1162              		@ args = 0, pretend = 0, frame = 0
 1163              		@ frame_needed = 0, uses_anonymous_args = 0
 1164 0550 08B5     		push	{r3, lr}
 1165              		.cfi_def_cfa_offset 8
 1166              		.cfi_offset 3, -8
 1167              		.cfi_offset 14, -4
 1168              		.loc 9 204 0
 1169 0552 0248     		ldr	r0, .L69
 1170 0554 0021     		movs	r1, #0
 1171 0556 FFF7FEFF 		bl	chSemObjectInit
 1172              		.loc 9 205 0
 1173 055a 08BD     		pop	{r3, pc}
 1174              	.L70:
 1175              		.align	2
 1176              	.L69:
 1177 055c 00000000 		.word	sem1
 1178              		.cfi_endproc
 1179              	.LFE238:
 1180              		.size	sem3_setup, .-sem3_setup
 1181              		.align	2
ARM GAS  /tmp/ccTMyCpM.s 			page 22


 1182              		.p2align 4,,15
 1183              		.thumb
 1184              		.thumb_func
 1185              		.type	thread3, %function
 1186              	thread3:
 1187              	.LFB239:
 1188              		.loc 9 207 0
 1189              		.cfi_startproc
 1190              		@ args = 0, pretend = 0, frame = 8
 1191              		@ frame_needed = 0, uses_anonymous_args = 0
 1192 0560 00B5     		push	{lr}
 1193              		.cfi_def_cfa_offset 4
 1194              		.cfi_offset 14, -4
 1195 0562 83B0     		sub	sp, sp, #12
 1196              		.cfi_def_cfa_offset 16
 1197 0564 0190     		str	r0, [sp, #4]
 1198              		.loc 9 210 0
 1199 0566 0448     		ldr	r0, .L72
 1200 0568 FFF7FEFF 		bl	chSemWait
 1201              		.loc 9 211 0
 1202 056c 0248     		ldr	r0, .L72
 1203 056e FFF7FEFF 		bl	chSemSignal
 1204              		.loc 9 212 0
 1205 0572 03B0     		add	sp, sp, #12
 1206              		@ sp needed
 1207 0574 5DF804FB 		ldr	pc, [sp], #4
 1208              	.L73:
 1209              		.align	2
 1210              	.L72:
 1211 0578 00000000 		.word	sem1
 1212              		.cfi_endproc
 1213              	.LFE239:
 1214              		.size	thread3, .-thread3
 1215              		.align	2
 1216 057c AFF30080 		.p2align 4,,15
 1217              		.thumb
 1218              		.thumb_func
 1219              		.type	sem3_execute, %function
 1220              	sem3_execute:
 1221              	.LFB240:
 1222              		.loc 9 214 0
 1223              		.cfi_startproc
 1224              		@ args = 0, pretend = 0, frame = 0
 1225              		@ frame_needed = 0, uses_anonymous_args = 0
 1226 0580 10B5     		push	{r4, lr}
 1227              		.cfi_def_cfa_offset 8
 1228              		.cfi_offset 4, -8
 1229              		.cfi_offset 14, -4
 1230 0582 82B0     		sub	sp, sp, #8
 1231              		.cfi_def_cfa_offset 16
 1232              		.loc 9 216 0
 1233 0584 284B     		ldr	r3, .L79
 1234 0586 1C68     		ldr	r4, [r3]
 1235 0588 FFF78AFD 		bl	chThdGetPriorityX
 1236 058c 0346     		mov	r3, r0
 1237 058e 0133     		adds	r3, r3, #1
 1238 0590 0022     		movs	r2, #0
ARM GAS  /tmp/ccTMyCpM.s 			page 23


 1239 0592 0092     		str	r2, [sp]
 1240 0594 2046     		mov	r0, r4
 1241 0596 4FF4A471 		mov	r1, #328
 1242 059a 1A46     		mov	r2, r3
 1243 059c 234B     		ldr	r3, .L79+4
 1244 059e FFF7FEFF 		bl	chThdCreateStatic
 1245 05a2 0246     		mov	r2, r0
 1246 05a4 224B     		ldr	r3, .L79+8
 1247 05a6 1A60     		str	r2, [r3]
 1248              		.loc 9 217 0
 1249 05a8 2248     		ldr	r0, .L79+12
 1250 05aa 2249     		ldr	r1, .L79+12
 1251 05ac FFF7FEFF 		bl	chSemSignalWait
 1252              		.loc 9 218 0
 1253 05b0 2048     		ldr	r0, .L79+12
 1254 05b2 FFF735FD 		bl	queue_isempty
 1255 05b6 0346     		mov	r3, r0
 1256 05b8 0120     		movs	r0, #1
 1257 05ba 1946     		mov	r1, r3
 1258 05bc FFF7FEFF 		bl	_test_assert
 1259 05c0 0346     		mov	r3, r0
 1260 05c2 002B     		cmp	r3, #0
 1261 05c4 00D0     		beq	.L75
 1262              		.loc 9 218 0 is_stmt 0 discriminator 1
 1263 05c6 2DE0     		b	.L74
 1264              	.L75:
 1265              		.loc 9 219 0 is_stmt 1
 1266 05c8 1A4B     		ldr	r3, .L79+12
 1267 05ca 9B68     		ldr	r3, [r3, #8]
 1268 05cc 002B     		cmp	r3, #0
 1269 05ce 14BF     		ite	ne
 1270 05d0 0023     		movne	r3, #0
 1271 05d2 0123     		moveq	r3, #1
 1272 05d4 DBB2     		uxtb	r3, r3
 1273 05d6 0220     		movs	r0, #2
 1274 05d8 1946     		mov	r1, r3
 1275 05da FFF7FEFF 		bl	_test_assert
 1276 05de 0346     		mov	r3, r0
 1277 05e0 002B     		cmp	r3, #0
 1278 05e2 00D0     		beq	.L77
 1279              		.loc 9 219 0 is_stmt 0 discriminator 1
 1280 05e4 1EE0     		b	.L74
 1281              	.L77:
 1282              		.loc 9 221 0 is_stmt 1
 1283 05e6 1348     		ldr	r0, .L79+12
 1284 05e8 1249     		ldr	r1, .L79+12
 1285 05ea FFF7FEFF 		bl	chSemSignalWait
 1286              		.loc 9 222 0
 1287 05ee 1148     		ldr	r0, .L79+12
 1288 05f0 FFF716FD 		bl	queue_isempty
 1289 05f4 0346     		mov	r3, r0
 1290 05f6 0320     		movs	r0, #3
 1291 05f8 1946     		mov	r1, r3
 1292 05fa FFF7FEFF 		bl	_test_assert
 1293 05fe 0346     		mov	r3, r0
 1294 0600 002B     		cmp	r3, #0
 1295 0602 00D0     		beq	.L78
ARM GAS  /tmp/ccTMyCpM.s 			page 24


 1296              		.loc 9 222 0 is_stmt 0 discriminator 1
 1297 0604 0EE0     		b	.L74
 1298              	.L78:
 1299              		.loc 9 223 0 is_stmt 1
 1300 0606 0B4B     		ldr	r3, .L79+12
 1301 0608 9B68     		ldr	r3, [r3, #8]
 1302 060a 002B     		cmp	r3, #0
 1303 060c 14BF     		ite	ne
 1304 060e 0023     		movne	r3, #0
 1305 0610 0123     		moveq	r3, #1
 1306 0612 DBB2     		uxtb	r3, r3
 1307 0614 0420     		movs	r0, #4
 1308 0616 1946     		mov	r1, r3
 1309 0618 FFF7FEFF 		bl	_test_assert
 1310 061c 0346     		mov	r3, r0
 1311 061e 002B     		cmp	r3, #0
 1312 0620 00D0     		beq	.L74
 1313              		.loc 9 223 0 is_stmt 0 discriminator 1
 1314 0622 00BF     		nop
 1315              	.L74:
 1316              		.loc 9 224 0 is_stmt 1
 1317 0624 02B0     		add	sp, sp, #8
 1318              		@ sp needed
 1319 0626 10BD     		pop	{r4, pc}
 1320              	.L80:
 1321              		.align	2
 1322              	.L79:
 1323 0628 00000000 		.word	wa
 1324 062c 00000000 		.word	thread3
 1325 0630 00000000 		.word	threads
 1326 0634 00000000 		.word	sem1
 1327              		.cfi_endproc
 1328              	.LFE240:
 1329              		.size	sem3_execute, .-sem3_execute
 1330              		.global	testsem3
 1331              		.section	.rodata
 1332              		.align	2
 1333              	.LC8:
 1334 0068 53656D61 		.ascii	"Semaphores, atomic signal-wait\000"
 1334      70686F72 
 1334      65732C20 
 1334      61746F6D 
 1334      69632073 
 1335 0087 00       		.align	2
 1336              		.type	testsem3, %object
 1337              		.size	testsem3, 16
 1338              	testsem3:
 1339 0088 68000000 		.word	.LC8
 1340 008c 00000000 		.word	sem3_setup
 1341 0090 00000000 		.word	0
 1342 0094 00000000 		.word	sem3_execute
 1343              		.text
 1344              		.align	2
 1345 0638 AFF30080 		.p2align 4,,15
 1345      AFF30080 
 1346              		.thumb
 1347              		.thumb_func
ARM GAS  /tmp/ccTMyCpM.s 			page 25


 1348              		.type	thread4, %function
 1349              	thread4:
 1350              	.LFB241:
 1351              		.loc 9 241 0
 1352              		.cfi_startproc
 1353              		@ args = 0, pretend = 0, frame = 8
 1354              		@ frame_needed = 0, uses_anonymous_args = 0
 1355 0640 00B5     		push	{lr}
 1356              		.cfi_def_cfa_offset 4
 1357              		.cfi_offset 14, -4
 1358 0642 83B0     		sub	sp, sp, #12
 1359              		.cfi_def_cfa_offset 16
 1360 0644 0190     		str	r0, [sp, #4]
 1361              		.loc 9 243 0
 1362 0646 0198     		ldr	r0, [sp, #4]
 1363 0648 FFF78AFD 		bl	chBSemSignal
 1364              		.loc 9 244 0
 1365 064c 03B0     		add	sp, sp, #12
 1366              		@ sp needed
 1367 064e 5DF804FB 		ldr	pc, [sp], #4
 1368              		.cfi_endproc
 1369              	.LFE241:
 1370              		.size	thread4, .-thread4
 1371 0652 00BF     		.align	2
 1372 0654 AFF30080 		.p2align 4,,15
 1372      AFF30080 
 1372      AFF30080 
 1373              		.thumb
 1374              		.thumb_func
 1375              		.type	sem4_execute, %function
 1376              	sem4_execute:
 1377              	.LFB242:
 1378              		.loc 9 246 0
 1379              		.cfi_startproc
 1380              		@ args = 0, pretend = 0, frame = 16
 1381              		@ frame_needed = 0, uses_anonymous_args = 0
 1382 0660 10B5     		push	{r4, lr}
 1383              		.cfi_def_cfa_offset 8
 1384              		.cfi_offset 4, -8
 1385              		.cfi_offset 14, -4
 1386 0662 86B0     		sub	sp, sp, #24
 1387              		.cfi_def_cfa_offset 32
 1388              		.loc 9 250 0
 1389 0664 03AB     		add	r3, sp, #12
 1390 0666 1846     		mov	r0, r3
 1391 0668 0121     		movs	r1, #1
 1392 066a FFF729FD 		bl	chBSemObjectInit
 1393              		.loc 9 251 0
 1394 066e 03AB     		add	r3, sp, #12
 1395 0670 1846     		mov	r0, r3
 1396 0672 0121     		movs	r1, #1
 1397 0674 FFF74CFD 		bl	chBSemReset
 1398              		.loc 9 252 0
 1399 0678 FFF7E2FC 		bl	chSysLock
 1400 067c 03AB     		add	r3, sp, #12
 1401 067e 1846     		mov	r0, r3
 1402 0680 FFF77EFD 		bl	chBSemGetStateI
ARM GAS  /tmp/ccTMyCpM.s 			page 26


 1403 0684 0346     		mov	r3, r0
 1404 0686 002B     		cmp	r3, #0
 1405 0688 0CBF     		ite	eq
 1406 068a 0023     		moveq	r3, #0
 1407 068c 0123     		movne	r3, #1
 1408 068e DBB2     		uxtb	r3, r3
 1409 0690 0120     		movs	r0, #1
 1410 0692 1946     		mov	r1, r3
 1411 0694 FFF7FEFF 		bl	_test_assert
 1412 0698 0346     		mov	r3, r0
 1413 069a 002B     		cmp	r3, #0
 1414 069c 02D0     		beq	.L83
 1415              		.loc 9 252 0 is_stmt 0 discriminator 1
 1416 069e FFF7D7FC 		bl	chSysUnlock
 1417 06a2 A3E0     		b	.L82
 1418              	.L83:
 1419              		.loc 9 252 0 discriminator 2
 1420 06a4 FFF7D4FC 		bl	chSysUnlock
 1421              		.loc 9 255 0 is_stmt 1 discriminator 2
 1422 06a8 514B     		ldr	r3, .L91
 1423 06aa 1C68     		ldr	r4, [r3]
 1424              		.loc 9 256 0 discriminator 2
 1425 06ac FFF7F8FC 		bl	chThdGetPriorityX
 1426 06b0 0346     		mov	r3, r0
 1427              		.loc 9 255 0 discriminator 2
 1428 06b2 013B     		subs	r3, r3, #1
 1429 06b4 03AA     		add	r2, sp, #12
 1430 06b6 0092     		str	r2, [sp]
 1431 06b8 2046     		mov	r0, r4
 1432 06ba 4FF4A471 		mov	r1, #328
 1433 06be 1A46     		mov	r2, r3
 1434 06c0 4C4B     		ldr	r3, .L91+4
 1435 06c2 FFF7FEFF 		bl	chThdCreateStatic
 1436 06c6 0246     		mov	r2, r0
 1437 06c8 4B4B     		ldr	r3, .L91+8
 1438 06ca 1A60     		str	r2, [r3]
 1439              		.loc 9 259 0 discriminator 2
 1440 06cc 03AB     		add	r3, sp, #12
 1441 06ce 1846     		mov	r0, r3
 1442 06d0 FFF70EFD 		bl	chBSemWait
 1443              		.loc 9 262 0 discriminator 2
 1444 06d4 FFF7B4FC 		bl	chSysLock
 1445 06d8 03AB     		add	r3, sp, #12
 1446 06da 1846     		mov	r0, r3
 1447 06dc FFF750FD 		bl	chBSemGetStateI
 1448 06e0 0346     		mov	r3, r0
 1449 06e2 002B     		cmp	r3, #0
 1450 06e4 0CBF     		ite	eq
 1451 06e6 0023     		moveq	r3, #0
 1452 06e8 0123     		movne	r3, #1
 1453 06ea DBB2     		uxtb	r3, r3
 1454 06ec 0220     		movs	r0, #2
 1455 06ee 1946     		mov	r1, r3
 1456 06f0 FFF7FEFF 		bl	_test_assert
 1457 06f4 0346     		mov	r3, r0
 1458 06f6 002B     		cmp	r3, #0
 1459 06f8 02D0     		beq	.L85
ARM GAS  /tmp/ccTMyCpM.s 			page 27


 1460              		.loc 9 262 0 is_stmt 0 discriminator 1
 1461 06fa FFF7A9FC 		bl	chSysUnlock
 1462 06fe 75E0     		b	.L82
 1463              	.L85:
 1464              		.loc 9 262 0 discriminator 2
 1465 0700 FFF7A6FC 		bl	chSysUnlock
 1466              		.loc 9 266 0 is_stmt 1 discriminator 2
 1467 0704 03AB     		add	r3, sp, #12
 1468 0706 1846     		mov	r0, r3
 1469 0708 FFF72AFD 		bl	chBSemSignal
 1470              		.loc 9 267 0 discriminator 2
 1471 070c FFF798FC 		bl	chSysLock
 1472 0710 03AB     		add	r3, sp, #12
 1473 0712 1846     		mov	r0, r3
 1474 0714 FFF734FD 		bl	chBSemGetStateI
 1475 0718 0346     		mov	r3, r0
 1476 071a 002B     		cmp	r3, #0
 1477 071c 0CBF     		ite	eq
 1478 071e 0023     		moveq	r3, #0
 1479 0720 0123     		movne	r3, #1
 1480 0722 DBB2     		uxtb	r3, r3
 1481 0724 83F00103 		eor	r3, r3, #1
 1482 0728 DBB2     		uxtb	r3, r3
 1483 072a 03F00103 		and	r3, r3, #1
 1484 072e DBB2     		uxtb	r3, r3
 1485 0730 0320     		movs	r0, #3
 1486 0732 1946     		mov	r1, r3
 1487 0734 FFF7FEFF 		bl	_test_assert
 1488 0738 0346     		mov	r3, r0
 1489 073a 002B     		cmp	r3, #0
 1490 073c 02D0     		beq	.L86
 1491              		.loc 9 267 0 is_stmt 0 discriminator 1
 1492 073e FFF787FC 		bl	chSysUnlock
 1493 0742 53E0     		b	.L82
 1494              	.L86:
 1495              		.loc 9 267 0 discriminator 2
 1496 0744 FFF784FC 		bl	chSysUnlock
 1497              		.loc 9 268 0 is_stmt 1 discriminator 2
 1498 0748 FFF77AFC 		bl	chSysLock
 1499 074c 03AB     		add	r3, sp, #12
 1500 074e 1846     		mov	r0, r3
 1501 0750 FFF7AEFC 		bl	chSemGetCounterI
 1502 0754 0346     		mov	r3, r0
 1503 0756 012B     		cmp	r3, #1
 1504 0758 14BF     		ite	ne
 1505 075a 0023     		movne	r3, #0
 1506 075c 0123     		moveq	r3, #1
 1507 075e DBB2     		uxtb	r3, r3
 1508 0760 0420     		movs	r0, #4
 1509 0762 1946     		mov	r1, r3
 1510 0764 FFF7FEFF 		bl	_test_assert
 1511 0768 0346     		mov	r3, r0
 1512 076a 002B     		cmp	r3, #0
 1513 076c 02D0     		beq	.L87
 1514              		.loc 9 268 0 is_stmt 0 discriminator 1
 1515 076e FFF76FFC 		bl	chSysUnlock
 1516 0772 3BE0     		b	.L82
ARM GAS  /tmp/ccTMyCpM.s 			page 28


 1517              	.L87:
 1518              		.loc 9 268 0 discriminator 2
 1519 0774 FFF76CFC 		bl	chSysUnlock
 1520              		.loc 9 271 0 is_stmt 1 discriminator 2
 1521 0778 03AB     		add	r3, sp, #12
 1522 077a 1846     		mov	r0, r3
 1523 077c FFF7F0FC 		bl	chBSemSignal
 1524              		.loc 9 272 0 discriminator 2
 1525 0780 FFF75EFC 		bl	chSysLock
 1526 0784 03AB     		add	r3, sp, #12
 1527 0786 1846     		mov	r0, r3
 1528 0788 FFF7FAFC 		bl	chBSemGetStateI
 1529 078c 0346     		mov	r3, r0
 1530 078e 002B     		cmp	r3, #0
 1531 0790 0CBF     		ite	eq
 1532 0792 0023     		moveq	r3, #0
 1533 0794 0123     		movne	r3, #1
 1534 0796 DBB2     		uxtb	r3, r3
 1535 0798 83F00103 		eor	r3, r3, #1
 1536 079c DBB2     		uxtb	r3, r3
 1537 079e 03F00103 		and	r3, r3, #1
 1538 07a2 DBB2     		uxtb	r3, r3
 1539 07a4 0320     		movs	r0, #3
 1540 07a6 1946     		mov	r1, r3
 1541 07a8 FFF7FEFF 		bl	_test_assert
 1542 07ac 0346     		mov	r3, r0
 1543 07ae 002B     		cmp	r3, #0
 1544 07b0 02D0     		beq	.L88
 1545              		.loc 9 272 0 is_stmt 0 discriminator 1
 1546 07b2 FFF74DFC 		bl	chSysUnlock
 1547 07b6 19E0     		b	.L82
 1548              	.L88:
 1549              		.loc 9 272 0 discriminator 2
 1550 07b8 FFF74AFC 		bl	chSysUnlock
 1551              		.loc 9 273 0 is_stmt 1 discriminator 2
 1552 07bc FFF740FC 		bl	chSysLock
 1553 07c0 03AB     		add	r3, sp, #12
 1554 07c2 1846     		mov	r0, r3
 1555 07c4 FFF774FC 		bl	chSemGetCounterI
 1556 07c8 0346     		mov	r3, r0
 1557 07ca 012B     		cmp	r3, #1
 1558 07cc 14BF     		ite	ne
 1559 07ce 0023     		movne	r3, #0
 1560 07d0 0123     		moveq	r3, #1
 1561 07d2 DBB2     		uxtb	r3, r3
 1562 07d4 0520     		movs	r0, #5
 1563 07d6 1946     		mov	r1, r3
 1564 07d8 FFF7FEFF 		bl	_test_assert
 1565 07dc 0346     		mov	r3, r0
 1566 07de 002B     		cmp	r3, #0
 1567 07e0 02D0     		beq	.L89
 1568              		.loc 9 273 0 is_stmt 0 discriminator 1
 1569 07e2 FFF735FC 		bl	chSysUnlock
 1570 07e6 01E0     		b	.L82
 1571              	.L89:
 1572              		.loc 9 273 0 discriminator 2
 1573 07e8 FFF732FC 		bl	chSysUnlock
ARM GAS  /tmp/ccTMyCpM.s 			page 29


 1574              	.L82:
 1575              		.loc 9 274 0 is_stmt 1
 1576 07ec 06B0     		add	sp, sp, #24
 1577              		@ sp needed
 1578 07ee 10BD     		pop	{r4, pc}
 1579              	.L92:
 1580              		.align	2
 1581              	.L91:
 1582 07f0 00000000 		.word	wa
 1583 07f4 00000000 		.word	thread4
 1584 07f8 00000000 		.word	threads
 1585              		.cfi_endproc
 1586              	.LFE242:
 1587              		.size	sem4_execute, .-sem4_execute
 1588              		.global	testsem4
 1589              		.section	.rodata
 1590              		.align	2
 1591              	.LC9:
 1592 0098 42696E61 		.ascii	"Binary Semaphores, functionality\000"
 1592      72792053 
 1592      656D6170 
 1592      686F7265 
 1592      732C2066 
 1593 00b9 000000   		.align	2
 1594              		.type	testsem4, %object
 1595              		.size	testsem4, 16
 1596              	testsem4:
 1597 00bc 98000000 		.word	.LC9
 1598 00c0 00000000 		.word	0
 1599 00c4 00000000 		.word	0
 1600 00c8 00000000 		.word	sem4_execute
 1601              		.global	patternsem
 1602              		.align	2
 1603              		.type	patternsem, %object
 1604              		.size	patternsem, 20
 1605              	patternsem:
 1606 00cc 00000000 		.word	testsem1
 1607 00d0 00000000 		.word	testsem2
 1608 00d4 00000000 		.word	testsem3
 1609 00d8 00000000 		.word	testsem4
 1610 00dc 00000000 		.word	0
 1611              		.text
 1612              	.Letext0:
 1613              		.file 10 "/nfs/nfs5/home/research/hardware/arm2/gcc-arm-embedded/gcc-arm-none-eabi-4_8-2014q2/lib/
 1614              		.file 11 "/nfs/nfs5/home/research/hardware/arm2/gcc-arm-embedded/gcc-arm-none-eabi-4_8-2014q2/arm-
 1615              		.file 12 "/nfs/nfs5/home/research/hardware/arm2/gcc-arm-embedded/gcc-arm-none-eabi-4_8-2014q2/arm-
 1616              		.file 13 "../../../../../../ChibiOS/os/rt/ports/ARMCMx/compilers/GCC/chtypes.h"
 1617              		.file 14 "../../../../../../ChibiOS/os/rt/include/chsystypes.h"
 1618              		.file 15 "../../../../../../ChibiOS/os/rt/ports/ARMCMx/chcore.h"
 1619              		.file 16 "../../../../../../ChibiOS/os/rt/include/chtm.h"
 1620              		.file 17 "../../../../../../ChibiOS/os/rt/include/chmtx.h"
 1621              		.file 18 "../../../../../../ChibiOS/test/rt/test.h"
 1622              		.file 19 "../../../../../../ChibiOS/os/ext/CMSIS/include/core_cm4.h"