ARM GAS  /tmp/cccqnObh.s 			page 1


   1              		.syntax unified
   2              		.cpu cortex-m4
   3              		.fpu softvfp
   4              		.eabi_attribute 20, 1
   5              		.eabi_attribute 21, 1
   6              		.eabi_attribute 23, 3
   7              		.eabi_attribute 24, 1
   8              		.eabi_attribute 25, 1
   9              		.eabi_attribute 26, 1
  10              		.eabi_attribute 30, 6
  11              		.eabi_attribute 34, 1
  12              		.eabi_attribute 18, 4
  13              		.thumb
  14              		.file	"testheap.c"
  15              		.text
  16              	.Ltext0:
  17              		.cfi_sections	.debug_frame
  18              		.bss
  19              		.align	3
  20              	test_heap:
  21 0000 00000000 		.space	32
  21      00000000 
  21      00000000 
  21      00000000 
  21      00000000 
  22              		.text
  23              		.align	2
  24              		.p2align 4,,15
  25              		.thumb
  26              		.thumb_func
  27              		.type	heap1_setup, %function
  28              	heap1_setup:
  29              	.LFB232:
  30              		.file 1 "../../../../../../ChibiOS/test/rt/testheap.c"
  31              		.loc 1 64 0
  32              		.cfi_startproc
  33              		@ args = 0, pretend = 0, frame = 0
  34              		@ frame_needed = 0, uses_anonymous_args = 0
  35 0000 08B5     		push	{r3, lr}
  36              		.cfi_def_cfa_offset 8
  37              		.cfi_offset 3, -8
  38              		.cfi_offset 14, -4
  39              		.loc 1 66 0
  40 0002 0348     		ldr	r0, .L2
  41 0004 0349     		ldr	r1, .L2+4
  42 0006 4FF4CD62 		mov	r2, #1640
  43 000a FFF7FEFF 		bl	chHeapObjectInit
  44              		.loc 1 67 0
  45 000e 08BD     		pop	{r3, pc}
  46              	.L3:
  47              		.align	2
  48              	.L2:
  49 0010 00000000 		.word	test_heap
  50 0014 00000000 		.word	test
  51              		.cfi_endproc
  52              	.LFE232:
  53              		.size	heap1_setup, .-heap1_setup
ARM GAS  /tmp/cccqnObh.s 			page 2


  54              		.align	2
  55 0018 AFF30080 		.p2align 4,,15
  55      AFF30080 
  56              		.thumb
  57              		.thumb_func
  58              		.type	heap1_execute, %function
  59              	heap1_execute:
  60              	.LFB233:
  61              		.loc 1 69 0
  62              		.cfi_startproc
  63              		@ args = 0, pretend = 0, frame = 24
  64              		@ frame_needed = 0, uses_anonymous_args = 0
  65 0020 00B5     		push	{lr}
  66              		.cfi_def_cfa_offset 4
  67              		.cfi_offset 14, -4
  68 0022 87B0     		sub	sp, sp, #28
  69              		.cfi_def_cfa_offset 32
  70              		.loc 1 74 0
  71 0024 FFF7FEFF 		bl	chCoreGetStatusX
  72              		.loc 1 80 0
  73 0028 01AB     		add	r3, sp, #4
  74 002a 0020     		movs	r0, #0
  75 002c 1946     		mov	r1, r3
  76 002e FFF7FEFF 		bl	chHeapStatus
  77              		.loc 1 81 0
  78 0032 0020     		movs	r0, #0
  79 0034 1021     		movs	r1, #16
  80 0036 FFF7FEFF 		bl	chHeapAlloc
  81 003a 0590     		str	r0, [sp, #20]
  82              		.loc 1 82 0
  83 003c 059B     		ldr	r3, [sp, #20]
  84 003e 002B     		cmp	r3, #0
  85 0040 0CBF     		ite	eq
  86 0042 0023     		moveq	r3, #0
  87 0044 0123     		movne	r3, #1
  88 0046 DBB2     		uxtb	r3, r3
  89 0048 0120     		movs	r0, #1
  90 004a 1946     		mov	r1, r3
  91 004c FFF7FEFF 		bl	_test_assert
  92 0050 0346     		mov	r3, r0
  93 0052 002B     		cmp	r3, #0
  94 0054 00D0     		beq	.L5
  95              		.loc 1 82 0 is_stmt 0 discriminator 1
  96 0056 4EE1     		b	.L4
  97              	.L5:
  98              		.loc 1 83 0 is_stmt 1
  99 0058 0598     		ldr	r0, [sp, #20]
 100 005a FFF7FEFF 		bl	chHeapFree
 101              		.loc 1 84 0
 102 005e 0020     		movs	r0, #0
 103 0060 6FF0FF01 		mvn	r1, #255
 104 0064 FFF7FEFF 		bl	chHeapAlloc
 105 0068 0590     		str	r0, [sp, #20]
 106              		.loc 1 85 0
 107 006a 059B     		ldr	r3, [sp, #20]
 108 006c 002B     		cmp	r3, #0
 109 006e 14BF     		ite	ne
ARM GAS  /tmp/cccqnObh.s 			page 3


 110 0070 0023     		movne	r3, #0
 111 0072 0123     		moveq	r3, #1
 112 0074 DBB2     		uxtb	r3, r3
 113 0076 0220     		movs	r0, #2
 114 0078 1946     		mov	r1, r3
 115 007a FFF7FEFF 		bl	_test_assert
 116 007e 0346     		mov	r3, r0
 117 0080 002B     		cmp	r3, #0
 118 0082 00D0     		beq	.L7
 119              		.loc 1 85 0 is_stmt 0 discriminator 1
 120 0084 37E1     		b	.L4
 121              	.L7:
 122              		.loc 1 88 0 is_stmt 1
 123 0086 01AB     		add	r3, sp, #4
 124 0088 9C48     		ldr	r0, .L22
 125 008a 1946     		mov	r1, r3
 126 008c FFF7FEFF 		bl	chHeapStatus
 127              		.loc 1 91 0
 128 0090 9A48     		ldr	r0, .L22
 129 0092 1021     		movs	r1, #16
 130 0094 FFF7FEFF 		bl	chHeapAlloc
 131 0098 0590     		str	r0, [sp, #20]
 132              		.loc 1 92 0
 133 009a 9848     		ldr	r0, .L22
 134 009c 1021     		movs	r1, #16
 135 009e FFF7FEFF 		bl	chHeapAlloc
 136 00a2 0490     		str	r0, [sp, #16]
 137              		.loc 1 93 0
 138 00a4 9548     		ldr	r0, .L22
 139 00a6 1021     		movs	r1, #16
 140 00a8 FFF7FEFF 		bl	chHeapAlloc
 141 00ac 0390     		str	r0, [sp, #12]
 142              		.loc 1 94 0
 143 00ae 0598     		ldr	r0, [sp, #20]
 144 00b0 FFF7FEFF 		bl	chHeapFree
 145              		.loc 1 95 0
 146 00b4 0498     		ldr	r0, [sp, #16]
 147 00b6 FFF7FEFF 		bl	chHeapFree
 148              		.loc 1 96 0
 149 00ba 0398     		ldr	r0, [sp, #12]
 150 00bc FFF7FEFF 		bl	chHeapFree
 151              		.loc 1 97 0
 152 00c0 02AB     		add	r3, sp, #8
 153 00c2 8E48     		ldr	r0, .L22
 154 00c4 1946     		mov	r1, r3
 155 00c6 FFF7FEFF 		bl	chHeapStatus
 156 00ca 0346     		mov	r3, r0
 157 00cc 012B     		cmp	r3, #1
 158 00ce 14BF     		ite	ne
 159 00d0 0023     		movne	r3, #0
 160 00d2 0123     		moveq	r3, #1
 161 00d4 DBB2     		uxtb	r3, r3
 162 00d6 0320     		movs	r0, #3
 163 00d8 1946     		mov	r1, r3
 164 00da FFF7FEFF 		bl	_test_assert
 165 00de 0346     		mov	r3, r0
 166 00e0 002B     		cmp	r3, #0
ARM GAS  /tmp/cccqnObh.s 			page 4


 167 00e2 00D0     		beq	.L8
 168              		.loc 1 97 0 is_stmt 0 discriminator 1
 169 00e4 07E1     		b	.L4
 170              	.L8:
 171              		.loc 1 100 0 is_stmt 1
 172 00e6 8548     		ldr	r0, .L22
 173 00e8 1021     		movs	r1, #16
 174 00ea FFF7FEFF 		bl	chHeapAlloc
 175 00ee 0590     		str	r0, [sp, #20]
 176              		.loc 1 101 0
 177 00f0 8248     		ldr	r0, .L22
 178 00f2 1021     		movs	r1, #16
 179 00f4 FFF7FEFF 		bl	chHeapAlloc
 180 00f8 0490     		str	r0, [sp, #16]
 181              		.loc 1 102 0
 182 00fa 8048     		ldr	r0, .L22
 183 00fc 1021     		movs	r1, #16
 184 00fe FFF7FEFF 		bl	chHeapAlloc
 185 0102 0390     		str	r0, [sp, #12]
 186              		.loc 1 103 0
 187 0104 0398     		ldr	r0, [sp, #12]
 188 0106 FFF7FEFF 		bl	chHeapFree
 189              		.loc 1 104 0
 190 010a 0498     		ldr	r0, [sp, #16]
 191 010c FFF7FEFF 		bl	chHeapFree
 192              		.loc 1 105 0
 193 0110 0598     		ldr	r0, [sp, #20]
 194 0112 FFF7FEFF 		bl	chHeapFree
 195              		.loc 1 106 0
 196 0116 02AB     		add	r3, sp, #8
 197 0118 7848     		ldr	r0, .L22
 198 011a 1946     		mov	r1, r3
 199 011c FFF7FEFF 		bl	chHeapStatus
 200 0120 0346     		mov	r3, r0
 201 0122 012B     		cmp	r3, #1
 202 0124 14BF     		ite	ne
 203 0126 0023     		movne	r3, #0
 204 0128 0123     		moveq	r3, #1
 205 012a DBB2     		uxtb	r3, r3
 206 012c 0420     		movs	r0, #4
 207 012e 1946     		mov	r1, r3
 208 0130 FFF7FEFF 		bl	_test_assert
 209 0134 0346     		mov	r3, r0
 210 0136 002B     		cmp	r3, #0
 211 0138 00D0     		beq	.L9
 212              		.loc 1 106 0 is_stmt 0 discriminator 1
 213 013a DCE0     		b	.L4
 214              	.L9:
 215              		.loc 1 109 0 is_stmt 1
 216 013c 6F48     		ldr	r0, .L22
 217 013e 1121     		movs	r1, #17
 218 0140 FFF7FEFF 		bl	chHeapAlloc
 219 0144 0590     		str	r0, [sp, #20]
 220              		.loc 1 110 0
 221 0146 6D48     		ldr	r0, .L22
 222 0148 1021     		movs	r1, #16
 223 014a FFF7FEFF 		bl	chHeapAlloc
ARM GAS  /tmp/cccqnObh.s 			page 5


 224 014e 0490     		str	r0, [sp, #16]
 225              		.loc 1 111 0
 226 0150 0598     		ldr	r0, [sp, #20]
 227 0152 FFF7FEFF 		bl	chHeapFree
 228              		.loc 1 112 0
 229 0156 02AB     		add	r3, sp, #8
 230 0158 6848     		ldr	r0, .L22
 231 015a 1946     		mov	r1, r3
 232 015c FFF7FEFF 		bl	chHeapStatus
 233 0160 0346     		mov	r3, r0
 234 0162 022B     		cmp	r3, #2
 235 0164 14BF     		ite	ne
 236 0166 0023     		movne	r3, #0
 237 0168 0123     		moveq	r3, #1
 238 016a DBB2     		uxtb	r3, r3
 239 016c 0520     		movs	r0, #5
 240 016e 1946     		mov	r1, r3
 241 0170 FFF7FEFF 		bl	_test_assert
 242 0174 0346     		mov	r3, r0
 243 0176 002B     		cmp	r3, #0
 244 0178 00D0     		beq	.L10
 245              		.loc 1 112 0 is_stmt 0 discriminator 1
 246 017a BCE0     		b	.L4
 247              	.L10:
 248              		.loc 1 113 0 is_stmt 1
 249 017c 5F48     		ldr	r0, .L22
 250 017e 1021     		movs	r1, #16
 251 0180 FFF7FEFF 		bl	chHeapAlloc
 252 0184 0590     		str	r0, [sp, #20]
 253              		.loc 1 116 0
 254 0186 02AB     		add	r3, sp, #8
 255 0188 5C48     		ldr	r0, .L22
 256 018a 1946     		mov	r1, r3
 257 018c FFF7FEFF 		bl	chHeapStatus
 258 0190 0346     		mov	r3, r0
 259 0192 012B     		cmp	r3, #1
 260 0194 07D0     		beq	.L11
 261              		.loc 1 116 0 is_stmt 0 discriminator 2
 262 0196 02AB     		add	r3, sp, #8
 263 0198 5848     		ldr	r0, .L22
 264 019a 1946     		mov	r1, r3
 265 019c FFF7FEFF 		bl	chHeapStatus
 266 01a0 0346     		mov	r3, r0
 267 01a2 022B     		cmp	r3, #2
 268 01a4 01D1     		bne	.L12
 269              	.L11:
 270              		.loc 1 116 0 discriminator 1
 271 01a6 0123     		movs	r3, #1
 272 01a8 00E0     		b	.L13
 273              	.L12:
 274              		.loc 1 116 0 discriminator 3
 275 01aa 0023     		movs	r3, #0
 276              	.L13:
 277              		.loc 1 116 0 discriminator 4
 278 01ac 03F00103 		and	r3, r3, #1
 279 01b0 DBB2     		uxtb	r3, r3
 280 01b2 0620     		movs	r0, #6
ARM GAS  /tmp/cccqnObh.s 			page 6


 281 01b4 1946     		mov	r1, r3
 282 01b6 FFF7FEFF 		bl	_test_assert
 283 01ba 0346     		mov	r3, r0
 284 01bc 002B     		cmp	r3, #0
 285 01be 00D0     		beq	.L14
 286              		.loc 1 116 0 discriminator 1
 287 01c0 99E0     		b	.L4
 288              	.L14:
 289              		.loc 1 118 0 is_stmt 1
 290 01c2 0498     		ldr	r0, [sp, #16]
 291 01c4 FFF7FEFF 		bl	chHeapFree
 292              		.loc 1 119 0
 293 01c8 0598     		ldr	r0, [sp, #20]
 294 01ca FFF7FEFF 		bl	chHeapFree
 295              		.loc 1 120 0
 296 01ce 02AB     		add	r3, sp, #8
 297 01d0 4A48     		ldr	r0, .L22
 298 01d2 1946     		mov	r1, r3
 299 01d4 FFF7FEFF 		bl	chHeapStatus
 300 01d8 0346     		mov	r3, r0
 301 01da 012B     		cmp	r3, #1
 302 01dc 14BF     		ite	ne
 303 01de 0023     		movne	r3, #0
 304 01e0 0123     		moveq	r3, #1
 305 01e2 DBB2     		uxtb	r3, r3
 306 01e4 0720     		movs	r0, #7
 307 01e6 1946     		mov	r1, r3
 308 01e8 FFF7FEFF 		bl	_test_assert
 309 01ec 0346     		mov	r3, r0
 310 01ee 002B     		cmp	r3, #0
 311 01f0 00D0     		beq	.L15
 312              		.loc 1 120 0 is_stmt 0 discriminator 1
 313 01f2 80E0     		b	.L4
 314              	.L15:
 315              		.loc 1 123 0 is_stmt 1
 316 01f4 4148     		ldr	r0, .L22
 317 01f6 1021     		movs	r1, #16
 318 01f8 FFF7FEFF 		bl	chHeapAlloc
 319 01fc 0590     		str	r0, [sp, #20]
 320              		.loc 1 124 0
 321 01fe 3F48     		ldr	r0, .L22
 322 0200 1021     		movs	r1, #16
 323 0202 FFF7FEFF 		bl	chHeapAlloc
 324 0206 0490     		str	r0, [sp, #16]
 325              		.loc 1 125 0
 326 0208 0598     		ldr	r0, [sp, #20]
 327 020a FFF7FEFF 		bl	chHeapFree
 328              		.loc 1 126 0
 329 020e 02AB     		add	r3, sp, #8
 330 0210 3A48     		ldr	r0, .L22
 331 0212 1946     		mov	r1, r3
 332 0214 FFF7FEFF 		bl	chHeapStatus
 333 0218 0346     		mov	r3, r0
 334 021a 022B     		cmp	r3, #2
 335 021c 14BF     		ite	ne
 336 021e 0023     		movne	r3, #0
 337 0220 0123     		moveq	r3, #1
ARM GAS  /tmp/cccqnObh.s 			page 7


 338 0222 DBB2     		uxtb	r3, r3
 339 0224 0820     		movs	r0, #8
 340 0226 1946     		mov	r1, r3
 341 0228 FFF7FEFF 		bl	_test_assert
 342 022c 0346     		mov	r3, r0
 343 022e 002B     		cmp	r3, #0
 344 0230 00D0     		beq	.L16
 345              		.loc 1 126 0 is_stmt 0 discriminator 1
 346 0232 60E0     		b	.L4
 347              	.L16:
 348              		.loc 1 127 0 is_stmt 1
 349 0234 3148     		ldr	r0, .L22
 350 0236 2021     		movs	r1, #32
 351 0238 FFF7FEFF 		bl	chHeapAlloc
 352 023c 0590     		str	r0, [sp, #20]
 353              		.loc 1 128 0
 354 023e 0598     		ldr	r0, [sp, #20]
 355 0240 FFF7FEFF 		bl	chHeapFree
 356              		.loc 1 129 0
 357 0244 0498     		ldr	r0, [sp, #16]
 358 0246 FFF7FEFF 		bl	chHeapFree
 359              		.loc 1 130 0
 360 024a 02AB     		add	r3, sp, #8
 361 024c 2B48     		ldr	r0, .L22
 362 024e 1946     		mov	r1, r3
 363 0250 FFF7FEFF 		bl	chHeapStatus
 364 0254 0346     		mov	r3, r0
 365 0256 012B     		cmp	r3, #1
 366 0258 14BF     		ite	ne
 367 025a 0023     		movne	r3, #0
 368 025c 0123     		moveq	r3, #1
 369 025e DBB2     		uxtb	r3, r3
 370 0260 0920     		movs	r0, #9
 371 0262 1946     		mov	r1, r3
 372 0264 FFF7FEFF 		bl	_test_assert
 373 0268 0346     		mov	r3, r0
 374 026a 002B     		cmp	r3, #0
 375 026c 00D0     		beq	.L17
 376              		.loc 1 130 0 is_stmt 0 discriminator 1
 377 026e 42E0     		b	.L4
 378              	.L17:
 379              		.loc 1 133 0 is_stmt 1
 380 0270 02AB     		add	r3, sp, #8
 381 0272 2248     		ldr	r0, .L22
 382 0274 1946     		mov	r1, r3
 383 0276 FFF7FEFF 		bl	chHeapStatus
 384              		.loc 1 134 0
 385 027a 029B     		ldr	r3, [sp, #8]
 386 027c 1F48     		ldr	r0, .L22
 387 027e 1946     		mov	r1, r3
 388 0280 FFF7FEFF 		bl	chHeapAlloc
 389 0284 0590     		str	r0, [sp, #20]
 390              		.loc 1 135 0
 391 0286 02AB     		add	r3, sp, #8
 392 0288 1C48     		ldr	r0, .L22
 393 028a 1946     		mov	r1, r3
 394 028c FFF7FEFF 		bl	chHeapStatus
ARM GAS  /tmp/cccqnObh.s 			page 8


 395 0290 0346     		mov	r3, r0
 396 0292 002B     		cmp	r3, #0
 397 0294 14BF     		ite	ne
 398 0296 0023     		movne	r3, #0
 399 0298 0123     		moveq	r3, #1
 400 029a DBB2     		uxtb	r3, r3
 401 029c 0A20     		movs	r0, #10
 402 029e 1946     		mov	r1, r3
 403 02a0 FFF7FEFF 		bl	_test_assert
 404 02a4 0346     		mov	r3, r0
 405 02a6 002B     		cmp	r3, #0
 406 02a8 00D0     		beq	.L18
 407              		.loc 1 135 0 is_stmt 0 discriminator 1
 408 02aa 24E0     		b	.L4
 409              	.L18:
 410              		.loc 1 136 0 is_stmt 1
 411 02ac 0598     		ldr	r0, [sp, #20]
 412 02ae FFF7FEFF 		bl	chHeapFree
 413              		.loc 1 138 0
 414 02b2 02AB     		add	r3, sp, #8
 415 02b4 1148     		ldr	r0, .L22
 416 02b6 1946     		mov	r1, r3
 417 02b8 FFF7FEFF 		bl	chHeapStatus
 418 02bc 0346     		mov	r3, r0
 419 02be 012B     		cmp	r3, #1
 420 02c0 14BF     		ite	ne
 421 02c2 0023     		movne	r3, #0
 422 02c4 0123     		moveq	r3, #1
 423 02c6 DBB2     		uxtb	r3, r3
 424 02c8 0B20     		movs	r0, #11
 425 02ca 1946     		mov	r1, r3
 426 02cc FFF7FEFF 		bl	_test_assert
 427 02d0 0346     		mov	r3, r0
 428 02d2 002B     		cmp	r3, #0
 429 02d4 00D0     		beq	.L19
 430              		.loc 1 138 0 is_stmt 0 discriminator 1
 431 02d6 0EE0     		b	.L4
 432              	.L19:
 433              		.loc 1 139 0 is_stmt 1
 434 02d8 029A     		ldr	r2, [sp, #8]
 435 02da 019B     		ldr	r3, [sp, #4]
 436 02dc 9A42     		cmp	r2, r3
 437 02de 14BF     		ite	ne
 438 02e0 0023     		movne	r3, #0
 439 02e2 0123     		moveq	r3, #1
 440 02e4 DBB2     		uxtb	r3, r3
 441 02e6 0C20     		movs	r0, #12
 442 02e8 1946     		mov	r1, r3
 443 02ea FFF7FEFF 		bl	_test_assert
 444 02ee 0346     		mov	r3, r0
 445 02f0 002B     		cmp	r3, #0
 446 02f2 00D0     		beq	.L4
 447 02f4 00BF     		nop
 448              	.L4:
 449              		.loc 1 140 0
 450 02f6 07B0     		add	sp, sp, #28
 451              		@ sp needed
ARM GAS  /tmp/cccqnObh.s 			page 9


 452 02f8 5DF804FB 		ldr	pc, [sp], #4
 453              	.L23:
 454              		.align	2
 455              	.L22:
 456 02fc 00000000 		.word	test_heap
 457              		.cfi_endproc
 458              	.LFE233:
 459              		.size	heap1_execute, .-heap1_execute
 460              		.global	testheap1
 461              		.section	.rodata
 462              		.align	2
 463              	.LC0:
 464 0000 48656170 		.ascii	"Heap, allocation and fragmentation test\000"
 464      2C20616C 
 464      6C6F6361 
 464      74696F6E 
 464      20616E64 
 465              		.align	2
 466              		.type	testheap1, %object
 467              		.size	testheap1, 16
 468              	testheap1:
 469 0028 00000000 		.word	.LC0
 470 002c 00000000 		.word	heap1_setup
 471 0030 00000000 		.word	0
 472 0034 00000000 		.word	heap1_execute
 473              		.global	patternheap
 474              		.align	2
 475              		.type	patternheap, %object
 476              		.size	patternheap, 8
 477              	patternheap:
 478 0038 00000000 		.word	testheap1
 479 003c 00000000 		.word	0
 480              		.text
 481              	.Letext0:
 482              		.file 2 "/nfs/nfs5/home/research/hardware/arm2/gcc-arm-embedded/gcc-arm-none-eabi-4_8-2014q2/lib/g
 483              		.file 3 "/nfs/nfs5/home/research/hardware/arm2/gcc-arm-embedded/gcc-arm-none-eabi-4_8-2014q2/arm-n
 484              		.file 4 "/nfs/nfs5/home/research/hardware/arm2/gcc-arm-embedded/gcc-arm-none-eabi-4_8-2014q2/arm-n
 485              		.file 5 "../../../../../../ChibiOS/os/rt/ports/ARMCMx/compilers/GCC/chtypes.h"
 486              		.file 6 "../../../../../../ChibiOS/os/rt/include/chsystypes.h"
 487              		.file 7 "../../../../../../ChibiOS/os/rt/include/chschd.h"
 488              		.file 8 "../../../../../../ChibiOS/os/rt/ports/ARMCMx/chcore.h"
 489              		.file 9 "../../../../../../ChibiOS/os/rt/ports/ARMCMx/chcore_v7m.h"
 490              		.file 10 "../../../../../../ChibiOS/os/rt/include/chtm.h"
 491              		.file 11 "../../../../../../ChibiOS/os/rt/include/chsem.h"
 492              		.file 12 "../../../../../../ChibiOS/os/rt/include/chmtx.h"
 493              		.file 13 "../../../../../../ChibiOS/os/rt/include/chmemcore.h"
 494              		.file 14 "../../../../../../ChibiOS/os/rt/include/chheap.h"
 495              		.file 15 "../../../../../../ChibiOS/test/rt/test.h"
 496              		.file 16 "../../../../../../ChibiOS/os/ext/CMSIS/include/core_cm4.h"