ARM GAS  /tmp/ccTMyCpM.s 			page 1


   1              		.syntax unified
   2              		.cpu cortex-m4
   3              		.fpu softvfp
   4              		.eabi_attribute 20, 1
   5              		.eabi_attribute 21, 1
   6              		.eabi_attribute 23, 3
   7              		.eabi_attribute 24, 1
   8              		.eabi_attribute 25, 1
   9              		.eabi_attribute 26, 1
  10              		.eabi_attribute 30, 6
  11              		.eabi_attribute 34, 1
  12              		.eabi_attribute 18, 4
  13              		.thumb
  14              		.file	"testsem.c"
  15              		.text
  16              	.Ltext0:
  17              		.cfi_sections	.debug_frame
  18              		.align	2
  19              		.p2align 4,,15
  20              		.thumb
  21              		.thumb_func
  22              		.type	port_lock, %function
  23              	port_lock:
  24              	.LFB129:
  25              		.file 1 "../../../../../../ChibiOS/os/rt/ports/ARMCMx/chcore_v7m.h"
  26              		.loc 1 456 0
  27              		.cfi_startproc
  28              		@ args = 0, pretend = 0, frame = 8
  29              		@ frame_needed = 0, uses_anonymous_args = 0
  30              		@ link register save eliminated.
  31 0000 82B0     		sub	sp, sp, #8
  32              		.cfi_def_cfa_offset 8
  33 0002 2023     		movs	r3, #32
  34 0004 0193     		str	r3, [sp, #4]
  35              	.LBB6:
  36              	.LBB7:
  37              		.file 2 "../../../../../../ChibiOS/os/ext/CMSIS/include/core_cmFunc.h"
  38              		.loc 2 548 0
  39 0006 019B     		ldr	r3, [sp, #4]
  40              	@ 548 "../../../../../../ChibiOS/os/ext/CMSIS/include/core_cmFunc.h" 1
  41 0008 83F31188 		MSR basepri, r3
  42              	@ 0 "" 2
  43              		.thumb
  44              	.LBE7:
  45              	.LBE6:
  46              		.loc 1 473 0
  47 000c 02B0     		add	sp, sp, #8
  48              		@ sp needed
  49 000e 7047     		bx	lr
  50              		.cfi_endproc
  51              	.LFE129:
  52              		.size	port_lock, .-port_lock
  53              		.align	2
  54              		.p2align 4,,15
  55              		.thumb
  56              		.thumb_func
  57              		.type	port_unlock, %function
ARM GAS  /tmp/ccTMyCpM.s 			page 2


  58              	port_unlock:
  59              	.LFB130:
  60              		.loc 1 480 0
  61              		.cfi_startproc
  62              		@ args = 0, pretend = 0, frame = 8
  63              		@ frame_needed = 0, uses_anonymous_args = 0
  64              		@ link register save eliminated.
  65 0010 82B0     		sub	sp, sp, #8
  66              		.cfi_def_cfa_offset 8
  67 0012 0023     		movs	r3, #0
  68 0014 0193     		str	r3, [sp, #4]
  69              	.LBB8:
  70              	.LBB9:
  71              		.loc 2 548 0
  72 0016 019B     		ldr	r3, [sp, #4]
  73              	@ 548 "../../../../../../ChibiOS/os/ext/CMSIS/include/core_cmFunc.h" 1
  74 0018 83F31188 		MSR basepri, r3
  75              	@ 0 "" 2
  76              		.thumb
  77              	.LBE9:
  78              	.LBE8:
  79              		.loc 1 487 0
  80 001c 02B0     		add	sp, sp, #8
  81              		@ sp needed
  82 001e 7047     		bx	lr
  83              		.cfi_endproc
  84              	.LFE130:
  85              		.size	port_unlock, .-port_unlock
  86              		.align	2
  87              		.p2align 4,,15
  88              		.thumb
  89              		.thumb_func
  90              		.type	queue_isempty, %function
  91              	queue_isempty:
  92              	.LFB142:
  93              		.file 3 "../../../../../../ChibiOS/os/rt/include/chschd.h"
  94              		.loc 3 616 0
  95              		.cfi_startproc
  96              		@ args = 0, pretend = 0, frame = 8
  97              		@ frame_needed = 0, uses_anonymous_args = 0
  98              		@ link register save eliminated.
  99 0020 82B0     		sub	sp, sp, #8
 100              		.cfi_def_cfa_offset 8
 101 0022 0190     		str	r0, [sp, #4]
 102              		.loc 3 618 0
 103 0024 019B     		ldr	r3, [sp, #4]
 104 0026 1A68     		ldr	r2, [r3]
 105 0028 019B     		ldr	r3, [sp, #4]
 106 002a 9A42     		cmp	r2, r3
 107 002c 14BF     		ite	ne
 108 002e 0023     		movne	r3, #0
 109 0030 0123     		moveq	r3, #1
 110 0032 DBB2     		uxtb	r3, r3
 111              		.loc 3 619 0
 112 0034 1846     		mov	r0, r3
 113 0036 02B0     		add	sp, sp, #8
 114              		@ sp needed
ARM GAS  /tmp/ccTMyCpM.s 			page 3


 115 0038 7047     		bx	lr
 116              		.cfi_endproc
 117              	.LFE142:
 118              		.size	queue_isempty, .-queue_isempty
 119 003a 00BF     		.align	2
 120 003c AFF30080 		.p2align 4,,15
 121              		.thumb
 122              		.thumb_func
 123              		.type	chSysLock, %function
 124              	chSysLock:
 125              	.LFB158:
 126              		.file 4 "../../../../../../ChibiOS/os/rt/include/chsys.h"
 127              		.loc 4 346 0
 128              		.cfi_startproc
 129              		@ args = 0, pretend = 0, frame = 0
 130              		@ frame_needed = 0, uses_anonymous_args = 0
 131 0040 08B5     		push	{r3, lr}
 132              		.cfi_def_cfa_offset 8
 133              		.cfi_offset 3, -8
 134              		.cfi_offset 14, -4
 135              		.loc 4 348 0
 136 0042 FFF7DDFF 		bl	port_lock
 137              		.loc 4 351 0
 138 0046 08BD     		pop	{r3, pc}
 139              		.cfi_endproc
 140              	.LFE158:
 141              		.size	chSysLock, .-chSysLock
 142              		.align	2
 143 0048 AFF30080 		.p2align 4,,15
 143      AFF30080 
 144              		.thumb
 145              		.thumb_func
 146              		.type	chSysUnlock, %function
 147              	chSysUnlock:
 148              	.LFB159:
 149              		.loc 4 358 0
 150              		.cfi_startproc
 151              		@ args = 0, pretend = 0, frame = 0
 152              		@ frame_needed = 0, uses_anonymous_args = 0
 153 0050 08B5     		push	{r3, lr}
 154              		.cfi_def_cfa_offset 8
 155              		.cfi_offset 3, -8
 156              		.cfi_offset 14, -4
 157              		.loc 4 371 0
 158 0052 FFF7DDFF 		bl	port_unlock
 159              		.loc 4 372 0
 160 0056 08BD     		pop	{r3, pc}
 161              		.cfi_endproc
 162              	.LFE159:
 163              		.size	chSysUnlock, .-chSysUnlock
 164              		.align	2
 165 0058 AFF30080 		.p2align 4,,15
 165      AFF30080 
 166              		.thumb
 167              		.thumb_func
 168              		.type	chVTGetSystemTimeX, %function
 169              	chVTGetSystemTimeX:
ARM GAS  /tmp/ccTMyCpM.s 			page 4


 170              	.LFB166:
 171              		.file 5 "../../../../../../ChibiOS/os/rt/include/chvt.h"
 172              		.loc 5 228 0
 173              		.cfi_startproc
 174              		@ args = 0, pretend = 0, frame = 0
 175              		@ frame_needed = 0, uses_anonymous_args = 0
 176              		@ link register save eliminated.
 177              		.loc 5 231 0
 178 0060 014B     		ldr	r3, .L9
 179 0062 9B6A     		ldr	r3, [r3, #40]
 180              		.loc 5 235 0
 181 0064 1846     		mov	r0, r3
 182 0066 7047     		bx	lr
 183              	.L10:
 184              		.align	2
 185              	.L9:
 186 0068 00000000 		.word	ch
 187              		.cfi_endproc
 188              	.LFE166:
 189              		.size	chVTGetSystemTimeX, .-chVTGetSystemTimeX
 190              		.align	2
 191 006c AFF30080 		.p2align 4,,15
 192              		.thumb
 193              		.thumb_func
 194              		.type	chVTGetSystemTime, %function
 195              	chVTGetSystemTime:
 196              	.LFB167:
 197              		.loc 5 247 0
 198              		.cfi_startproc
 199              		@ args = 0, pretend = 0, frame = 8
 200              		@ frame_needed = 0, uses_anonymous_args = 0
 201 0070 00B5     		push	{lr}
 202              		.cfi_def_cfa_offset 4
 203              		.cfi_offset 14, -4
 204 0072 83B0     		sub	sp, sp, #12
 205              		.cfi_def_cfa_offset 16
 206              		.loc 5 250 0
 207 0074 FFF7E4FF 		bl	chSysLock
 208              		.loc 5 251 0
 209 0078 FFF7F2FF 		bl	chVTGetSystemTimeX
 210 007c 0190     		str	r0, [sp, #4]
 211              		.loc 5 252 0
 212 007e FFF7E7FF 		bl	chSysUnlock
 213              		.loc 5 254 0
 214 0082 019B     		ldr	r3, [sp, #4]
 215              		.loc 5 255 0
 216 0084 1846     		mov	r0, r3
 217 0086 03B0     		add	sp, sp, #12
 218              		@ sp needed
 219 0088 5DF804FB 		ldr	pc, [sp], #4
 220              		.cfi_endproc
 221              	.LFE167:
 222              		.size	chVTGetSystemTime, .-chVTGetSystemTime
 223              		.align	2
 224 008c AFF30080 		.p2align 4,,15
 225              		.thumb
 226              		.thumb_func
ARM GAS  /tmp/ccTMyCpM.s 			page 5


 227              		.type	chThdGetSelfX, %function
 228              	chThdGetSelfX:
 229              	.LFB180:
 230              		.file 6 "../../../../../../ChibiOS/os/rt/include/chthreads.h"
 231              		.loc 6 174 0
 232              		.cfi_startproc
 233              		@ args = 0, pretend = 0, frame = 0
 234              		@ frame_needed = 0, uses_anonymous_args = 0
 235              		@ link register save eliminated.
 236              		.loc 6 176 0
 237 0090 014B     		ldr	r3, .L15
 238 0092 9B69     		ldr	r3, [r3, #24]
 239              		.loc 6 177 0
 240 0094 1846     		mov	r0, r3
 241 0096 7047     		bx	lr
 242              	.L16:
 243              		.align	2
 244              	.L15:
 245 0098 00000000 		.word	ch
 246              		.cfi_endproc
 247              	.LFE180:
 248              		.size	chThdGetSelfX, .-chThdGetSelfX
 249              		.align	2
 250 009c AFF30080 		.p2align 4,,15
 251              		.thumb
 252              		.thumb_func
 253              		.type	chThdGetPriorityX, %function
 254              	chThdGetPriorityX:
 255              	.LFB181:
 256              		.loc 6 187 0
 257              		.cfi_startproc
 258              		@ args = 0, pretend = 0, frame = 0
 259              		@ frame_needed = 0, uses_anonymous_args = 0
 260 00a0 08B5     		push	{r3, lr}
 261              		.cfi_def_cfa_offset 8
 262              		.cfi_offset 3, -8
 263              		.cfi_offset 14, -4
 264              		.loc 6 189 0
 265 00a2 FFF7F5FF 		bl	chThdGetSelfX
 266 00a6 0346     		mov	r3, r0
 267 00a8 9B68     		ldr	r3, [r3, #8]
 268              		.loc 6 190 0
 269 00aa 1846     		mov	r0, r3
 270 00ac 08BD     		pop	{r3, pc}
 271              		.cfi_endproc
 272              	.LFE181:
 273              		.size	chThdGetPriorityX, .-chThdGetPriorityX
 274 00ae 00BF     		.align	2
 275              		.p2align 4,,15
 276              		.thumb
 277              		.thumb_func
 278              		.type	chSemGetCounterI, %function
 279              	chSemGetCounterI:
 280              	.LFB194:
 281              		.file 7 "../../../../../../ChibiOS/os/rt/include/chsem.h"
 282              		.loc 7 149 0
 283              		.cfi_startproc
ARM GAS  /tmp/ccTMyCpM.s 			page 6


 284              		@ args = 0, pretend = 0, frame = 8
 285              		@ frame_needed = 0, uses_anonymous_args = 0
 286              		@ link register save eliminated.
 287 00b0 82B0     		sub	sp, sp, #8
 288              		.cfi_def_cfa_offset 8
 289 00b2 0190     		str	r0, [sp, #4]
 290              		.loc 7 153 0
 291 00b4 019B     		ldr	r3, [sp, #4]
 292 00b6 9B68     		ldr	r3, [r3, #8]
 293              		.loc 7 154 0
 294 00b8 1846     		mov	r0, r3
 295 00ba 02B0     		add	sp, sp, #8
 296              		@ sp needed
 297 00bc 7047     		bx	lr
 298              		.cfi_endproc
 299              	.LFE194:
 300              		.size	chSemGetCounterI, .-chSemGetCounterI
 301 00be 00BF     		.align	2
 302              		.p2align 4,,15
 303              		.thumb
 304              		.thumb_func
 305              		.type	chBSemObjectInit, %function
 306              	chBSemObjectInit:
 307              	.LFB195:
 308              		.file 8 "../../../../../../ChibiOS/os/rt/include/chbsem.h"
 309              		.loc 8 124 0
 310              		.cfi_startproc
 311              		@ args = 0, pretend = 0, frame = 8
 312              		@ frame_needed = 0, uses_anonymous_args = 0
 313 00c0 00B5     		push	{lr}
 314              		.cfi_def_cfa_offset 4
 315              		.cfi_offset 14, -4
 316 00c2 83B0     		sub	sp, sp, #12
 317              		.cfi_def_cfa_offset 16
 318 00c4 0190     		str	r0, [sp, #4]
 319 00c6 0B46     		mov	r3, r1
 320 00c8 8DF80330 		strb	r3, [sp, #3]
 321              		.loc 8 126 0
 322 00cc 019A     		ldr	r2, [sp, #4]
 323 00ce 9DF80330 		ldrb	r3, [sp, #3]	@ zero_extendqisi2
 324 00d2 002B     		cmp	r3, #0
 325 00d4 01D0     		beq	.L22
 326              		.loc 8 126 0 is_stmt 0 discriminator 1
 327 00d6 0023     		movs	r3, #0
 328 00d8 00E0     		b	.L23
 329              	.L22:
 330              		.loc 8 126 0 discriminator 2
 331 00da 0123     		movs	r3, #1
 332              	.L23:
 333              		.loc 8 126 0 discriminator 3
 334 00dc 1046     		mov	r0, r2
 335 00de 1946     		mov	r1, r3
 336 00e0 FFF7FEFF 		bl	chSemObjectInit
 337              		.loc 8 127 0 is_stmt 1 discriminator 3
 338 00e4 03B0     		add	sp, sp, #12
 339              		@ sp needed
 340 00e6 5DF804FB 		ldr	pc, [sp], #4
ARM GAS  /tmp/ccTMyCpM.s 			page 7


 341              		.cfi_endproc
 342              	.LFE195:
 343              		.size	chBSemObjectInit, .-chBSemObjectInit
 344 00ea 00BF     		.align	2
 345 00ec AFF30080 		.p2align 4,,15
 346              		.thumb
 347              		.thumb_func
 348              		.type	chBSemWait, %function
 349              	chBSemWait:
 350              	.LFB196:
 351              		.loc 8 141 0
 352              		.cfi_startproc
 353              		@ args = 0, pretend = 0, frame = 8
 354              		@ frame_needed = 0, uses_anonymous_args = 0
 355 00f0 00B5     		push	{lr}
 356              		.cfi_def_cfa_offset 4
 357              		.cfi_offset 14, -4
 358 00f2 83B0     		sub	sp, sp, #12
 359              		.cfi_def_cfa_offset 16
 360 00f4 0190     		str	r0, [sp, #4]
 361              		.loc 8 143 0
 362 00f6 019B     		ldr	r3, [sp, #4]
 363 00f8 1846     		mov	r0, r3
 364 00fa FFF7FEFF 		bl	chSemWait
 365 00fe 0346     		mov	r3, r0
 366              		.loc 8 144 0
 367 0100 1846     		mov	r0, r3
 368 0102 03B0     		add	sp, sp, #12
 369              		@ sp needed
 370 0104 5DF804FB 		ldr	pc, [sp], #4
 371              		.cfi_endproc
 372              	.LFE196:
 373              		.size	chBSemWait, .-chBSemWait
 374              		.align	2
 375 0108 AFF30080 		.p2align 4,,15
 375      AFF30080 
 376              		.thumb
 377              		.thumb_func
 378              		.type	chBSemReset, %function
 379              	chBSemReset:
 380              	.LFB201:
 381              		.loc 8 253 0
 382              		.cfi_startproc
 383              		@ args = 0, pretend = 0, frame = 8
 384              		@ frame_needed = 0, uses_anonymous_args = 0
 385 0110 00B5     		push	{lr}
 386              		.cfi_def_cfa_offset 4
 387              		.cfi_offset 14, -4
 388 0112 83B0     		sub	sp, sp, #12
 389              		.cfi_def_cfa_offset 16
 390 0114 0190     		str	r0, [sp, #4]
 391 0116 0B46     		mov	r3, r1
 392 0118 8DF80330 		strb	r3, [sp, #3]
 393              		.loc 8 255 0
 394 011c 019A     		ldr	r2, [sp, #4]
 395 011e 9DF80330 		ldrb	r3, [sp, #3]	@ zero_extendqisi2
 396 0122 002B     		cmp	r3, #0
ARM GAS  /tmp/ccTMyCpM.s 			page 8


 397 0124 01D0     		beq	.L27
 398              		.loc 8 255 0 is_stmt 0 discriminator 1
 399 0126 0023     		movs	r3, #0
 400 0128 00E0     		b	.L28
 401              	.L27:
 402              		.loc 8 255 0 discriminator 2
 403 012a 0123     		movs	r3, #1
 404              	.L28:
 405              		.loc 8 255 0 discriminator 3
 406 012c 1046     		mov	r0, r2
 407 012e 1946     		mov	r1, r3
 408 0130 FFF7FEFF 		bl	chSemReset
 409              		.loc 8 256 0 is_stmt 1 discriminator 3
 410 0134 03B0     		add	sp, sp, #12
 411              		@ sp needed
 412 0136 5DF804FB 		ldr	pc, [sp], #4
 413              		.cfi_endproc
 414              	.LFE201:
 415              		.size	chBSemReset, .-chBSemReset
 416 013a 00BF     		.align	2
 417 013c AFF30080 		.p2align 4,,15
 418              		.thumb
 419              		.thumb_func
 420              		.type	chBSemSignalI, %function
 421              	chBSemSignalI:
 422              	.LFB202:
 423              		.loc 8 266 0
 424              		.cfi_startproc
 425              		@ args = 0, pretend = 0, frame = 8
 426              		@ frame_needed = 0, uses_anonymous_args = 0
 427 0140 00B5     		push	{lr}
 428              		.cfi_def_cfa_offset 4
 429              		.cfi_offset 14, -4
 430 0142 83B0     		sub	sp, sp, #12
 431              		.cfi_def_cfa_offset 16
 432 0144 0190     		str	r0, [sp, #4]
 433              		.loc 8 270 0
 434 0146 019B     		ldr	r3, [sp, #4]
 435 0148 9B68     		ldr	r3, [r3, #8]
 436 014a 002B     		cmp	r3, #0
 437 014c 03DC     		bgt	.L29
 438              		.loc 8 271 0
 439 014e 019B     		ldr	r3, [sp, #4]
 440 0150 1846     		mov	r0, r3
 441 0152 FFF7FEFF 		bl	chSemSignalI
 442              	.L29:
 443              		.loc 8 273 0
 444 0156 03B0     		add	sp, sp, #12
 445              		@ sp needed
 446 0158 5DF804FB 		ldr	pc, [sp], #4
 447              		.cfi_endproc
 448              	.LFE202:
 449              		.size	chBSemSignalI, .-chBSemSignalI
 450              		.align	2
 451 015c AFF30080 		.p2align 4,,15
 452              		.thumb
 453              		.thumb_func
ARM GAS  /tmp/ccTMyCpM.s 			page 9


 454              		.type	chBSemSignal, %function
 455              	chBSemSignal:
 456              	.LFB203:
 457              		.loc 8 282 0
 458              		.cfi_startproc
 459              		@ args = 0, pretend = 0, frame = 8
 460              		@ frame_needed = 0, uses_anonymous_args = 0
 461 0160 00B5     		push	{lr}
 462              		.cfi_def_cfa_offset 4
 463              		.cfi_offset 14, -4
 464 0162 83B0     		sub	sp, sp, #12
 465              		.cfi_def_cfa_offset 16
 466 0164 0190     		str	r0, [sp, #4]
 467              		.loc 8 284 0
 468 0166 FFF76BFF 		bl	chSysLock
 469              		.loc 8 285 0
 470 016a 0198     		ldr	r0, [sp, #4]
 471 016c FFF7E8FF 		bl	chBSemSignalI
 472              		.loc 8 286 0
 473 0170 FFF7FEFF 		bl	chSchRescheduleS
 474              		.loc 8 287 0
 475 0174 FFF76CFF 		bl	chSysUnlock
 476              		.loc 8 288 0
 477 0178 03B0     		add	sp, sp, #12
 478              		@ sp needed
 479 017a 5DF804FB 		ldr	pc, [sp], #4
 480              		.cfi_endproc
 481              	.LFE203:
 482              		.size	chBSemSignal, .-chBSemSignal
 483 017e 00BF     		.align	2
 484              		.p2align 4,,15
 485              		.thumb
 486              		.thumb_func
 487              		.type	chBSemGetStateI, %function
 488              	chBSemGetStateI:
 489              	.LFB204:
 490              		.loc 8 300 0
 491              		.cfi_startproc
 492              		@ args = 0, pretend = 0, frame = 8
 493              		@ frame_needed = 0, uses_anonymous_args = 0
 494              		@ link register save eliminated.
 495 0180 82B0     		sub	sp, sp, #8
 496              		.cfi_def_cfa_offset 8
 497 0182 0190     		str	r0, [sp, #4]
 498              		.loc 8 304 0
 499 0184 019B     		ldr	r3, [sp, #4]
 500 0186 9B68     		ldr	r3, [r3, #8]
 501 0188 002B     		cmp	r3, #0
 502 018a CCBF     		ite	gt
 503 018c 0023     		movgt	r3, #0
 504 018e 0123     		movle	r3, #1
 505 0190 DBB2     		uxtb	r3, r3
 506              		.loc 8 305 0
 507 0192 1846     		mov	r0, r3
 508 0194 02B0     		add	sp, sp, #8
 509              		@ sp needed
 510 0196 7047     		bx	lr
ARM GAS  /tmp/ccTMyCpM.s 			page 10


 511              		.cfi_endproc
 512              	.LFE204:
 513              		.size	chBSemGetStateI, .-chBSemGetStateI
 514              		.data
 515              		.align	2
 516              		.type	sem1, %object
 517              		.size	sem1, 12
 518              	sem1:
 519 0000 00000000 		.word	sem1
 520 0004 00000000 		.word	sem1
 521 0008 00000000 		.word	0
 522              		.text
 523              		.align	2
 524 0198 AFF30080 		.p2align 4,,15
 524      AFF30080 
 525              		.thumb
 526              		.thumb_func
 527              		.type	sem1_setup, %function
 528              	sem1_setup:
 529              	.LFB232:
 530              		.file 9 "../../../../../../ChibiOS/test/rt/testsem.c"
 531              		.loc 9 72 0
 532              		.cfi_startproc
 533              		@ args = 0, pretend = 0, frame = 0
 534              		@ frame_needed = 0, uses_anonymous_args = 0
 535 01a0 08B5     		push	{r3, lr}
 536              		.cfi_def_cfa_offset 8
 537              		.cfi_offset 3, -8
 538              		.cfi_offset 14, -4
 539              		.loc 9 74 0
 540 01a2 0248     		ldr	r0, .L35
 541 01a4 0021     		movs	r1, #0
 542 01a6 FFF7FEFF 		bl	chSemObjectInit
 543              		.loc 9 75 0
 544 01aa 08BD     		pop	{r3, pc}
 545              	.L36:
 546              		.align	2
 547              	.L35:
 548 01ac 00000000 		.word	sem1
 549              		.cfi_endproc
 550              	.LFE232:
 551              		.size	sem1_setup, .-sem1_setup
 552              		.align	2
 553              		.p2align 4,,15
 554              		.thumb
 555              		.thumb_func
 556              		.type	thread1, %function
 557              	thread1:
 558              	.LFB233:
 559              		.loc 9 77 0
 560              		.cfi_startproc
 561              		@ args = 0, pretend = 0, frame = 8
 562              		@ frame_needed = 0, uses_anonymous_args = 0
 563 01b0 00B5     		push	{lr}
 564              		.cfi_def_cfa_offset 4
 565              		.cfi_offset 14, -4
 566 01b2 83B0     		sub	sp, sp, #12
ARM GAS  /tmp/ccTMyCpM.s 			page 11


 567              		.cfi_def_cfa_offset 16
 568 01b4 0190     		str	r0, [sp, #4]
 569              		.loc 9 79 0
 570 01b6 0548     		ldr	r0, .L38
 571 01b8 FFF7FEFF 		bl	chSemWait
 572              		.loc 9 80 0
 573 01bc 019B     		ldr	r3, [sp, #4]
 574 01be 1B78     		ldrb	r3, [r3]	@ zero_extendqisi2
 575 01c0 1846     		mov	r0, r3
 576 01c2 FFF7FEFF 		bl	test_emit_token
 577              		.loc 9 81 0
 578 01c6 03B0     		add	sp, sp, #12
 579              		@ sp needed
 580 01c8 5DF804FB 		ldr	pc, [sp], #4
 581              	.L39:
 582              		.align	2
 583              	.L38:
 584 01cc 00000000 		.word	sem1
 585              		.cfi_endproc
 586              	.LFE233:
 587              		.size	thread1, .-thread1
 588              		.section	.rodata
 589              		.align	2
 590              	.LC0:
 591 0000 4100     		.ascii	"A\000"
 592 0002 0000     		.align	2
 593              	.LC1:
 594 0004 4200     		.ascii	"B\000"
 595 0006 0000     		.align	2
 596              	.LC2:
 597 0008 4300     		.ascii	"C\000"
 598 000a 0000     		.align	2
 599              	.LC3:
 600 000c 4400     		.ascii	"D\000"
 601 000e 0000     		.align	2
 602              	.LC4:
 603 0010 4500     		.ascii	"E\000"
 604 0012 0000     		.align	2
 605              	.LC5:
 606 0014 41424344 		.ascii	"ABCDE\000"
 606      4500
 607              		.text
 608              		.align	2
 609              		.p2align 4,,15
 610              		.thumb
 611              		.thumb_func
 612              		.type	sem1_execute, %function
 613              	sem1_execute:
 614              	.LFB234:
 615              		.loc 9 83 0
 616              		.cfi_startproc
 617              		@ args = 0, pretend = 0, frame = 0
 618              		@ frame_needed = 0, uses_anonymous_args = 0
 619 01d0 10B5     		push	{r4, lr}
 620              		.cfi_def_cfa_offset 8
 621              		.cfi_offset 4, -8
 622              		.cfi_offset 14, -4
ARM GAS  /tmp/ccTMyCpM.s 			page 12


 623 01d2 82B0     		sub	sp, sp, #8
 624              		.cfi_def_cfa_offset 16
 625              		.loc 9 85 0
 626 01d4 544B     		ldr	r3, .L44
 627 01d6 1C68     		ldr	r4, [r3]
 628 01d8 FFF762FF 		bl	chThdGetPriorityX
 629 01dc 0346     		mov	r3, r0
 630 01de 0533     		adds	r3, r3, #5
 631 01e0 524A     		ldr	r2, .L44+4
 632 01e2 0092     		str	r2, [sp]
 633 01e4 2046     		mov	r0, r4
 634 01e6 4FF4A471 		mov	r1, #328
 635 01ea 1A46     		mov	r2, r3
 636 01ec 504B     		ldr	r3, .L44+8
 637 01ee FFF7FEFF 		bl	chThdCreateStatic
 638 01f2 0246     		mov	r2, r0
 639 01f4 4F4B     		ldr	r3, .L44+12
 640 01f6 1A60     		str	r2, [r3]
 641              		.loc 9 86 0
 642 01f8 4B4B     		ldr	r3, .L44
 643 01fa 5C68     		ldr	r4, [r3, #4]
 644 01fc FFF750FF 		bl	chThdGetPriorityX
 645 0200 0346     		mov	r3, r0
 646 0202 0133     		adds	r3, r3, #1
 647 0204 4C4A     		ldr	r2, .L44+16
 648 0206 0092     		str	r2, [sp]
 649 0208 2046     		mov	r0, r4
 650 020a 4FF4A471 		mov	r1, #328
 651 020e 1A46     		mov	r2, r3
 652 0210 474B     		ldr	r3, .L44+8
 653 0212 FFF7FEFF 		bl	chThdCreateStatic
 654 0216 0246     		mov	r2, r0
 655 0218 464B     		ldr	r3, .L44+12
 656 021a 5A60     		str	r2, [r3, #4]
 657              		.loc 9 87 0
 658 021c 424B     		ldr	r3, .L44
 659 021e 9C68     		ldr	r4, [r3, #8]
 660 0220 FFF73EFF 		bl	chThdGetPriorityX
 661 0224 0346     		mov	r3, r0
 662 0226 0333     		adds	r3, r3, #3
 663 0228 444A     		ldr	r2, .L44+20
 664 022a 0092     		str	r2, [sp]
 665 022c 2046     		mov	r0, r4
 666 022e 4FF4A471 		mov	r1, #328
 667 0232 1A46     		mov	r2, r3
 668 0234 3E4B     		ldr	r3, .L44+8
 669 0236 FFF7FEFF 		bl	chThdCreateStatic
 670 023a 0246     		mov	r2, r0
 671 023c 3D4B     		ldr	r3, .L44+12
 672 023e 9A60     		str	r2, [r3, #8]
 673              		.loc 9 88 0
 674 0240 394B     		ldr	r3, .L44
 675 0242 DC68     		ldr	r4, [r3, #12]
 676 0244 FFF72CFF 		bl	chThdGetPriorityX
 677 0248 0346     		mov	r3, r0
 678 024a 0433     		adds	r3, r3, #4
 679 024c 3C4A     		ldr	r2, .L44+24
ARM GAS  /tmp/ccTMyCpM.s 			page 13


 680 024e 0092     		str	r2, [sp]
 681 0250 2046     		mov	r0, r4
 682 0252 4FF4A471 		mov	r1, #328
 683 0256 1A46     		mov	r2, r3
 684 0258 354B     		ldr	r3, .L44+8
 685 025a FFF7FEFF 		bl	chThdCreateStatic
 686 025e 0246     		mov	r2, r0
 687 0260 344B     		ldr	r3, .L44+12
 688 0262 DA60     		str	r2, [r3, #12]
 689              		.loc 9 89 0
 690 0264 304B     		ldr	r3, .L44
 691 0266 1C69     		ldr	r4, [r3, #16]
 692 0268 FFF71AFF 		bl	chThdGetPriorityX
 693 026c 0346     		mov	r3, r0
 694 026e 0233     		adds	r3, r3, #2
 695 0270 344A     		ldr	r2, .L44+28
 696 0272 0092     		str	r2, [sp]
 697 0274 2046     		mov	r0, r4
 698 0276 4FF4A471 		mov	r1, #328
 699 027a 1A46     		mov	r2, r3
 700 027c 2C4B     		ldr	r3, .L44+8
 701 027e FFF7FEFF 		bl	chThdCreateStatic
 702 0282 0246     		mov	r2, r0
 703 0284 2B4B     		ldr	r3, .L44+12
 704 0286 1A61     		str	r2, [r3, #16]
 705              		.loc 9 90 0
 706 0288 2F48     		ldr	r0, .L44+32
 707 028a FFF7FEFF 		bl	chSemSignal
 708              		.loc 9 91 0
 709 028e 2E48     		ldr	r0, .L44+32
 710 0290 FFF7FEFF 		bl	chSemSignal
 711              		.loc 9 92 0
 712 0294 2C48     		ldr	r0, .L44+32
 713 0296 FFF7FEFF 		bl	chSemSignal
 714              		.loc 9 93 0
 715 029a 2B48     		ldr	r0, .L44+32
 716 029c FFF7FEFF 		bl	chSemSignal
 717              		.loc 9 94 0
 718 02a0 2948     		ldr	r0, .L44+32
 719 02a2 FFF7FEFF 		bl	chSemSignal
 720              		.loc 9 95 0
 721 02a6 FFF7FEFF 		bl	test_wait_threads
 722              		.loc 9 99 0
 723 02aa 0120     		movs	r0, #1
 724 02ac 2749     		ldr	r1, .L44+36
 725 02ae FFF7FEFF 		bl	_test_assert_sequence
 726 02b2 0346     		mov	r3, r0
 727 02b4 002B     		cmp	r3, #0
 728 02b6 00D0     		beq	.L41
 729              		.loc 9 99 0 is_stmt 0 discriminator 1
 730 02b8 34E0     		b	.L40
 731              	.L41:
 732              		.loc 9 101 0 is_stmt 1
 733 02ba 1B4B     		ldr	r3, .L44
 734 02bc 1C68     		ldr	r4, [r3]
 735 02be FFF7EFFE 		bl	chThdGetPriorityX
 736 02c2 0346     		mov	r3, r0
ARM GAS  /tmp/ccTMyCpM.s 			page 14


 737 02c4 0533     		adds	r3, r3, #5
 738 02c6 194A     		ldr	r2, .L44+4
 739 02c8 0092     		str	r2, [sp]
 740 02ca 2046     		mov	r0, r4
 741 02cc 4FF4A471 		mov	r1, #328
 742 02d0 1A46     		mov	r2, r3
 743 02d2 174B     		ldr	r3, .L44+8
 744 02d4 FFF7FEFF 		bl	chThdCreateStatic
 745 02d8 0246     		mov	r2, r0
 746 02da 164B     		ldr	r3, .L44+12
 747 02dc 1A60     		str	r2, [r3]
 748              		.loc 9 102 0
 749 02de FFF7AFFE 		bl	chSysLock
 750              		.loc 9 103 0
 751 02e2 1948     		ldr	r0, .L44+32
 752 02e4 0221     		movs	r1, #2
 753 02e6 FFF7FEFF 		bl	chSemAddCounterI
 754              		.loc 9 104 0
 755 02ea FFF7FEFF 		bl	chSchRescheduleS
 756              		.loc 9 105 0
 757 02ee FFF7AFFE 		bl	chSysUnlock
 758              		.loc 9 106 0
 759 02f2 FFF7FEFF 		bl	test_wait_threads
 760              		.loc 9 107 0
 761 02f6 FFF7A3FE 		bl	chSysLock
 762 02fa 1348     		ldr	r0, .L44+32
 763 02fc FFF7D8FE 		bl	chSemGetCounterI
 764 0300 0346     		mov	r3, r0
 765 0302 012B     		cmp	r3, #1
 766 0304 14BF     		ite	ne
 767 0306 0023     		movne	r3, #0
 768 0308 0123     		moveq	r3, #1
 769 030a DBB2     		uxtb	r3, r3
 770 030c 0220     		movs	r0, #2
 771 030e 1946     		mov	r1, r3
 772 0310 FFF7FEFF 		bl	_test_assert
 773 0314 0346     		mov	r3, r0
 774 0316 002B     		cmp	r3, #0
 775 0318 02D0     		beq	.L43
 776              		.loc 9 107 0 is_stmt 0 discriminator 1
 777 031a FFF799FE 		bl	chSysUnlock
 778 031e 01E0     		b	.L40
 779              	.L43:
 780              		.loc 9 107 0 discriminator 2
 781 0320 FFF796FE 		bl	chSysUnlock
 782              	.L40:
 783              		.loc 9 108 0 is_stmt 1
 784 0324 02B0     		add	sp, sp, #8
 785              		@ sp needed
 786 0326 10BD     		pop	{r4, pc}
 787              	.L45:
 788              		.align	2
 789              	.L44:
 790 0328 00000000 		.word	wa
 791 032c 00000000 		.word	.LC0
 792 0330 00000000 		.word	thread1
 793 0334 00000000 		.word	threads
ARM GAS  /tmp/ccTMyCpM.s 			page 15


 794 0338 04000000 		.word	.LC1
 795 033c 08000000 		.word	.LC2
 796 0340 0C000000 		.word	.LC3
 797 0344 10000000 		.word	.LC4
 798 0348 00000000 		.word	sem1
 799 034c 14000000 		.word	.LC5
 800              		.cfi_endproc
 801              	.LFE234:
 802              		.size	sem1_execute, .-sem1_execute
 803              		.global	testsem1
 804              		.section	.rodata
 805 001a 0000     		.align	2
 806              	.LC6:
 807 001c 53656D61 		.ascii	"Semaphores, enqueuing\000"
 807      70686F72 
 807      65732C20 
 807      656E7175 
 807      6575696E 
 808 0032 0000     		.align	2
 809              		.type	testsem1, %object
 810              		.size	testsem1, 16
 811              	testsem1:
 812 0034 1C000000 		.word	.LC6
 813 0038 00000000 		.word	sem1_setup
 814 003c 00000000 		.word	0
 815 0040 00000000 		.word	sem1_execute
 816              		.text
 817              		.align	2
 818              		.p2align 4,,15
 819              		.thumb
 820              		.thumb_func
 821              		.type	sem2_setup, %function
 822              	sem2_setup:
 823              	.LFB235:
 824              		.loc 9 128 0
 825              		.cfi_startproc
 826              		@ args = 0, pretend = 0, frame = 0
 827              		@ frame_needed = 0, uses_anonymous_args = 0
 828 0350 08B5     		push	{r3, lr}
 829              		.cfi_def_cfa_offset 8
 830              		.cfi_offset 3, -8
 831              		.cfi_offset 14, -4
 832              		.loc 9 130 0
 833 0352 0248     		ldr	r0, .L47
 834 0354 0021     		movs	r1, #0
 835 0356 FFF7FEFF 		bl	chSemObjectInit
 836              		.loc 9 131 0
 837 035a 08BD     		pop	{r3, pc}
 838              	.L48:
 839              		.align	2
 840              	.L47:
 841 035c 00000000 		.word	sem1
 842              		.cfi_endproc
 843              	.LFE235:
 844              		.size	sem2_setup, .-sem2_setup
 845              		.align	2
 846              		.p2align 4,,15
ARM GAS  /tmp/ccTMyCpM.s 			page 16


 847              		.thumb
 848              		.thumb_func
 849              		.type	thread2, %function
 850              	thread2:
 851              	.LFB236:
 852              		.loc 9 133 0
 853              		.cfi_startproc
 854              		@ args = 0, pretend = 0, frame = 8
 855              		@ frame_needed = 0, uses_anonymous_args = 0
 856 0360 00B5     		push	{lr}
 857              		.cfi_def_cfa_offset 4
 858              		.cfi_offset 14, -4
 859 0362 83B0     		sub	sp, sp, #12
 860              		.cfi_def_cfa_offset 16
 861 0364 0190     		str	r0, [sp, #4]
 862              		.loc 9 136 0
 863 0366 3220     		movs	r0, #50
 864 0368 FFF7FEFF 		bl	chThdSleep
 865              		.loc 9 137 0
 866 036c FFF768FE 		bl	chSysLock
 867              		.loc 9 138 0
 868 0370 0448     		ldr	r0, .L50
 869 0372 FFF7FEFF 		bl	chSemSignalI
 870              		.loc 9 139 0
 871 0376 FFF7FEFF 		bl	chSchRescheduleS
 872              		.loc 9 140 0
 873 037a FFF769FE 		bl	chSysUnlock
 874              		.loc 9 141 0
 875 037e 03B0     		add	sp, sp, #12
 876              		@ sp needed
 877 0380 5DF804FB 		ldr	pc, [sp], #4
 878              	.L51:
 879              		.align	2
 880              	.L50:
 881 0384 00000000 		.word	sem1
 882              		.cfi_endproc
 883              	.LFE236:
 884              		.size	thread2, .-thread2
 885              		.align	2
 886 0388 AFF30080 		.p2align 4,,15
 886      AFF30080 
 887              		.thumb
 888              		.thumb_func
 889              		.type	sem2_execute, %function
 890              	sem2_execute:
 891              	.LFB237:
 892              		.loc 9 143 0
 893              		.cfi_startproc
 894              		@ args = 0, pretend = 0, frame = 16
 895              		@ frame_needed = 0, uses_anonymous_args = 0
 896 0390 10B5     		push	{r4, lr}
 897              		.cfi_def_cfa_offset 8
 898              		.cfi_offset 4, -8
 899              		.cfi_offset 14, -4
 900 0392 86B0     		sub	sp, sp, #24
 901              		.cfi_def_cfa_offset 32
 902              		.loc 9 151 0
ARM GAS  /tmp/ccTMyCpM.s 			page 17


 903 0394 6648     		ldr	r0, .L66
 904 0396 0021     		movs	r1, #0
 905 0398 FFF7FEFF 		bl	chSemWaitTimeout
 906 039c 0490     		str	r0, [sp, #16]
 907              		.loc 9 152 0
 908 039e 049B     		ldr	r3, [sp, #16]
 909 03a0 B3F1FF3F 		cmp	r3, #-1
 910 03a4 14BF     		ite	ne
 911 03a6 0023     		movne	r3, #0
 912 03a8 0123     		moveq	r3, #1
 913 03aa DBB2     		uxtb	r3, r3
 914 03ac 0120     		movs	r0, #1
 915 03ae 1946     		mov	r1, r3
 916 03b0 FFF7FEFF 		bl	_test_assert
 917 03b4 0346     		mov	r3, r0
 918 03b6 002B     		cmp	r3, #0
 919 03b8 00D0     		beq	.L53
 920              		.loc 9 152 0 is_stmt 0 discriminator 1
 921 03ba B6E0     		b	.L52
 922              	.L53:
 923              		.loc 9 153 0 is_stmt 1
 924 03bc 5C48     		ldr	r0, .L66
 925 03be FFF72FFE 		bl	queue_isempty
 926 03c2 0346     		mov	r3, r0
 927 03c4 0220     		movs	r0, #2
 928 03c6 1946     		mov	r1, r3
 929 03c8 FFF7FEFF 		bl	_test_assert
 930 03cc 0346     		mov	r3, r0
 931 03ce 002B     		cmp	r3, #0
 932 03d0 00D0     		beq	.L55
 933              		.loc 9 153 0 is_stmt 0 discriminator 1
 934 03d2 AAE0     		b	.L52
 935              	.L55:
 936              		.loc 9 154 0 is_stmt 1
 937 03d4 564B     		ldr	r3, .L66
 938 03d6 9B68     		ldr	r3, [r3, #8]
 939 03d8 002B     		cmp	r3, #0
 940 03da 14BF     		ite	ne
 941 03dc 0023     		movne	r3, #0
 942 03de 0123     		moveq	r3, #1
 943 03e0 DBB2     		uxtb	r3, r3
 944 03e2 0320     		movs	r0, #3
 945 03e4 1946     		mov	r1, r3
 946 03e6 FFF7FEFF 		bl	_test_assert
 947 03ea 0346     		mov	r3, r0
 948 03ec 002B     		cmp	r3, #0
 949 03ee 00D0     		beq	.L56
 950              		.loc 9 154 0 is_stmt 0 discriminator 1
 951 03f0 9BE0     		b	.L52
 952              	.L56:
 953              		.loc 9 159 0 is_stmt 1
 954 03f2 504B     		ldr	r3, .L66+4
 955 03f4 1C68     		ldr	r4, [r3]
 956 03f6 FFF753FE 		bl	chThdGetPriorityX
 957 03fa 0346     		mov	r3, r0
 958 03fc 013B     		subs	r3, r3, #1
 959 03fe 0022     		movs	r2, #0
ARM GAS  /tmp/ccTMyCpM.s 			page 18


 960 0400 0092     		str	r2, [sp]
 961 0402 2046     		mov	r0, r4
 962 0404 4FF4A471 		mov	r1, #328
 963 0408 1A46     		mov	r2, r3
 964 040a 4B4B     		ldr	r3, .L66+8
 965 040c FFF7FEFF 		bl	chThdCreateStatic
 966 0410 0246     		mov	r2, r0
 967 0412 4A4B     		ldr	r3, .L66+12
 968 0414 1A60     		str	r2, [r3]
 969              		.loc 9 161 0
 970 0416 4648     		ldr	r0, .L66
 971 0418 4FF4FA71 		mov	r1, #500
 972 041c FFF7FEFF 		bl	chSemWaitTimeout
 973 0420 0490     		str	r0, [sp, #16]
 974              		.loc 9 162 0
 975 0422 FFF7FEFF 		bl	test_wait_threads
 976              		.loc 9 163 0
 977 0426 049B     		ldr	r3, [sp, #16]
 978 0428 002B     		cmp	r3, #0
 979 042a 14BF     		ite	ne
 980 042c 0023     		movne	r3, #0
 981 042e 0123     		moveq	r3, #1
 982 0430 DBB2     		uxtb	r3, r3
 983 0432 0420     		movs	r0, #4
 984 0434 1946     		mov	r1, r3
 985 0436 FFF7FEFF 		bl	_test_assert
 986 043a 0346     		mov	r3, r0
 987 043c 002B     		cmp	r3, #0
 988 043e 00D0     		beq	.L57
 989              		.loc 9 163 0 is_stmt 0 discriminator 1
 990 0440 73E0     		b	.L52
 991              	.L57:
 992              		.loc 9 164 0 is_stmt 1
 993 0442 3B48     		ldr	r0, .L66
 994 0444 FFF7ECFD 		bl	queue_isempty
 995 0448 0346     		mov	r3, r0
 996 044a 0520     		movs	r0, #5
 997 044c 1946     		mov	r1, r3
 998 044e FFF7FEFF 		bl	_test_assert
 999 0452 0346     		mov	r3, r0
 1000 0454 002B     		cmp	r3, #0
 1001 0456 00D0     		beq	.L58
 1002              		.loc 9 164 0 is_stmt 0 discriminator 1
 1003 0458 67E0     		b	.L52
 1004              	.L58:
 1005              		.loc 9 165 0 is_stmt 1
 1006 045a 354B     		ldr	r3, .L66
 1007 045c 9B68     		ldr	r3, [r3, #8]
 1008 045e 002B     		cmp	r3, #0
 1009 0460 14BF     		ite	ne
 1010 0462 0023     		movne	r3, #0
 1011 0464 0123     		moveq	r3, #1
 1012 0466 DBB2     		uxtb	r3, r3
 1013 0468 0620     		movs	r0, #6
 1014 046a 1946     		mov	r1, r3
 1015 046c FFF7FEFF 		bl	_test_assert
 1016 0470 0346     		mov	r3, r0
ARM GAS  /tmp/ccTMyCpM.s 			page 19


 1017 0472 002B     		cmp	r3, #0
 1018 0474 00D0     		beq	.L59
 1019              		.loc 9 165 0 is_stmt 0 discriminator 1
 1020 0476 58E0     		b	.L52
 1021              	.L59:
 1022              		.loc 9 170 0 is_stmt 1
 1023 0478 FFF7FEFF 		bl	test_wait_tick
 1024              		.loc 9 171 0
 1025 047c FFF7F8FD 		bl	chVTGetSystemTime
 1026 0480 0346     		mov	r3, r0
 1027 0482 FA33     		adds	r3, r3, #250
 1028 0484 0393     		str	r3, [sp, #12]
 1029              		.loc 9 172 0
 1030 0486 0023     		movs	r3, #0
 1031 0488 0593     		str	r3, [sp, #20]
 1032 048a 38E0     		b	.L60
 1033              	.L64:
 1034              		.loc 9 173 0
 1035 048c 059B     		ldr	r3, [sp, #20]
 1036 048e DBB2     		uxtb	r3, r3
 1037 0490 4133     		adds	r3, r3, #65
 1038 0492 DBB2     		uxtb	r3, r3
 1039 0494 1846     		mov	r0, r3
 1040 0496 FFF7FEFF 		bl	test_emit_token
 1041              		.loc 9 174 0
 1042 049a 2548     		ldr	r0, .L66
 1043 049c 3221     		movs	r1, #50
 1044 049e FFF7FEFF 		bl	chSemWaitTimeout
 1045 04a2 0490     		str	r0, [sp, #16]
 1046              		.loc 9 175 0
 1047 04a4 049B     		ldr	r3, [sp, #16]
 1048 04a6 B3F1FF3F 		cmp	r3, #-1
 1049 04aa 14BF     		ite	ne
 1050 04ac 0023     		movne	r3, #0
 1051 04ae 0123     		moveq	r3, #1
 1052 04b0 DBB2     		uxtb	r3, r3
 1053 04b2 0720     		movs	r0, #7
 1054 04b4 1946     		mov	r1, r3
 1055 04b6 FFF7FEFF 		bl	_test_assert
 1056 04ba 0346     		mov	r3, r0
 1057 04bc 002B     		cmp	r3, #0
 1058 04be 00D0     		beq	.L61
 1059              		.loc 9 175 0 is_stmt 0 discriminator 1
 1060 04c0 33E0     		b	.L52
 1061              	.L61:
 1062              		.loc 9 176 0 is_stmt 1
 1063 04c2 1B48     		ldr	r0, .L66
 1064 04c4 FFF7ACFD 		bl	queue_isempty
 1065 04c8 0346     		mov	r3, r0
 1066 04ca 0820     		movs	r0, #8
 1067 04cc 1946     		mov	r1, r3
 1068 04ce FFF7FEFF 		bl	_test_assert
 1069 04d2 0346     		mov	r3, r0
 1070 04d4 002B     		cmp	r3, #0
 1071 04d6 00D0     		beq	.L62
 1072              		.loc 9 176 0 is_stmt 0 discriminator 1
 1073 04d8 27E0     		b	.L52
ARM GAS  /tmp/ccTMyCpM.s 			page 20


 1074              	.L62:
 1075              		.loc 9 177 0 is_stmt 1
 1076 04da 154B     		ldr	r3, .L66
 1077 04dc 9B68     		ldr	r3, [r3, #8]
 1078 04de 002B     		cmp	r3, #0
 1079 04e0 14BF     		ite	ne
 1080 04e2 0023     		movne	r3, #0
 1081 04e4 0123     		moveq	r3, #1
 1082 04e6 DBB2     		uxtb	r3, r3
 1083 04e8 0920     		movs	r0, #9
 1084 04ea 1946     		mov	r1, r3
 1085 04ec FFF7FEFF 		bl	_test_assert
 1086 04f0 0346     		mov	r3, r0
 1087 04f2 002B     		cmp	r3, #0
 1088 04f4 00D0     		beq	.L63
 1089              		.loc 9 177 0 is_stmt 0 discriminator 1
 1090 04f6 18E0     		b	.L52
 1091              	.L63:
 1092              		.loc 9 172 0 is_stmt 1
 1093 04f8 059B     		ldr	r3, [sp, #20]
 1094 04fa 0133     		adds	r3, r3, #1
 1095 04fc 0593     		str	r3, [sp, #20]
 1096              	.L60:
 1097              		.loc 9 172 0 is_stmt 0 discriminator 1
 1098 04fe 059B     		ldr	r3, [sp, #20]
 1099 0500 042B     		cmp	r3, #4
 1100 0502 C3DD     		ble	.L64
 1101              		.loc 9 179 0 is_stmt 1
 1102 0504 0A20     		movs	r0, #10
 1103 0506 0E49     		ldr	r1, .L66+16
 1104 0508 FFF7FEFF 		bl	_test_assert_sequence
 1105 050c 0346     		mov	r3, r0
 1106 050e 002B     		cmp	r3, #0
 1107 0510 00D0     		beq	.L65
 1108              		.loc 9 179 0 is_stmt 0 discriminator 1
 1109 0512 0AE0     		b	.L52
 1110              	.L65:
 1111              		.loc 9 180 0 is_stmt 1
 1112 0514 039B     		ldr	r3, [sp, #12]
 1113 0516 0233     		adds	r3, r3, #2
 1114 0518 0B20     		movs	r0, #11
 1115 051a 0399     		ldr	r1, [sp, #12]
 1116 051c 1A46     		mov	r2, r3
 1117 051e FFF7FEFF 		bl	_test_assert_time_window
 1118 0522 0346     		mov	r3, r0
 1119 0524 002B     		cmp	r3, #0
 1120 0526 00D0     		beq	.L52
 1121              		.loc 9 180 0 is_stmt 0 discriminator 1
 1122 0528 00BF     		nop
 1123              	.L52:
 1124              		.loc 9 181 0 is_stmt 1
 1125 052a 06B0     		add	sp, sp, #24
 1126              		@ sp needed
 1127 052c 10BD     		pop	{r4, pc}
 1128              	.L67:
 1129 052e 00BF     		.align	2
 1130              	.L66:
ARM GAS  /tmp/ccTMyCpM.s 			page 21


 1131 0530 00000000 		.word	sem1
 1132 0534 00000000 		.word	wa
 1133 0538 00000000 		.word	thread2
 1134 053c 00000000 		.word	threads
 1135 0540 14000000 		.word	.LC5
 1136              		.cfi_endproc
 1137              	.LFE237:
 1138              		.size	sem2_execute, .-sem2_execute
 1139              		.global	testsem2
 1140              		.section	.rodata
 1141              		.align	2
 1142              	.LC7:
 1143 0044 53656D61 		.ascii	"Semaphores, timeout\000"
 1143      70686F72 
 1143      65732C20 
 1143      74696D65 
 1143      6F757400 
 1144              		.align	2
 1145              		.type	testsem2, %object
 1146              		.size	testsem2, 16
 1147              	testsem2:
 1148 0058 44000000 		.word	.LC7
 1149 005c 00000000 		.word	sem2_setup
 1150 0060 00000000 		.word	0
 1151 0064 00000000 		.word	sem2_execute
 1152              		.text
 1153              		.align	2
 1154 0544 AFF30080 		.p2align 4,,15
 1154      AFF30080 
 1154      AFF30080 
 1155              		.thumb
 1156              		.thumb_func
 1157              		.type	sem3_setup, %function
 1158              	sem3_setup:
 1159              	.LFB238:
 1160              		.loc 9 202 0
 1161              		.cfi_startproc
 1162              		@ args = 0, pretend = 0, frame = 0
 1163              		@ frame_needed = 0, uses_anonymous_args = 0
 1164 0550 08B5     		push	{r3, lr}
 1165              		.cfi_def_cfa_offset 8
 1166              		.cfi_offset 3, -8
 1167              		.cfi_offset 14, -4
 1168              		.loc 9 204 0
 1169 0552 0248     		ldr	r0, .L69
 1170 0554 0021     		movs	r1, #0
 1171 0556 FFF7FEFF 		bl	chSemObjectInit
 1172              		.loc 9 205 0
 1173 055a 08BD     		pop	{r3, pc}
 1174              	.L70:
 1175              		.align	2
 1176              	.L69:
 1177 055c 00000000 		.word	sem1
 1178              		.cfi_endproc
 1179              	.LFE238:
 1180              		.size	sem3_setup, .-sem3_setup
 1181              		.align	2
ARM GAS  /tmp/ccTMyCpM.s 			page 22


 1182              		.p2align 4,,15
 1183              		.thumb
 1184              		.thumb_func
 1185              		.type	thread3, %function
 1186              	thread3:
 1187              	.LFB239:
 1188              		.loc 9 207 0
 1189              		.cfi_startproc
 1190              		@ args = 0, pretend = 0, frame = 8
 1191              		@ frame_needed = 0, uses_anonymous_args = 0
 1192 0560 00B5     		push	{lr}
 1193              		.cfi_def_cfa_offset 4
 1194              		.cfi_offset 14, -4
 1195 0562 83B0     		sub	sp, sp, #12
 1196              		.cfi_def_cfa_offset 16
 1197 0564 0190     		str	r0, [sp, #4]
 1198              		.loc 9 210 0
 1199 0566 0448     		ldr	r0, .L72
 1200 0568 FFF7FEFF 		bl	chSemWait
 1201              		.loc 9 211 0
 1202 056c 0248     		ldr	r0, .L72
 1203 056e FFF7FEFF 		bl	chSemSignal
 1204              		.loc 9 212 0
 1205 0572 03B0     		add	sp, sp, #12
 1206              		@ sp needed
 1207 0574 5DF804FB 		ldr	pc, [sp], #4
 1208              	.L73:
 1209              		.align	2
 1210              	.L72:
 1211 0578 00000000 		.word	sem1
 1212              		.cfi_endproc
 1213              	.LFE239:
 1214              		.size	thread3, .-thread3
 1215              		.align	2
 1216 057c AFF30080 		.p2align 4,,15
 1217              		.thumb
 1218              		.thumb_func
 1219              		.type	sem3_execute, %function
 1220              	sem3_execute:
 1221              	.LFB240:
 1222              		.loc 9 214 0
 1223              		.cfi_startproc
 1224              		@ args = 0, pretend = 0, frame = 0
 1225              		@ frame_needed = 0, uses_anonymous_args = 0
 1226 0580 10B5     		push	{r4, lr}
 1227              		.cfi_def_cfa_offset 8
 1228              		.cfi_offset 4, -8
 1229              		.cfi_offset 14, -4
 1230 0582 82B0     		sub	sp, sp, #8
 1231              		.cfi_def_cfa_offset 16
 1232              		.loc 9 216 0
 1233 0584 284B     		ldr	r3, .L79
 1234 0586 1C68     		ldr	r4, [r3]
 1235 0588 FFF78AFD 		bl	chThdGetPriorityX
 1236 058c 0346     		mov	r3, r0
 1237 058e 0133     		adds	r3, r3, #1
 1238 0590 0022     		movs	r2, #0
ARM GAS  /tmp/ccTMyCpM.s 			page 23


 1239 0592 0092     		str	r2, [sp]
 1240 0594 2046     		mov	r0, r4
 1241 0596 4FF4A471 		mov	r1, #328
 1242 059a 1A46     		mov	r2, r3
 1243 059c 234B     		ldr	r3, .L79+4
 1244 059e FFF7FEFF 		bl	chThdCreateStatic
 1245 05a2 0246     		mov	r2, r0
 1246 05a4 224B     		ldr	r3, .L79+8
 1247 05a6 1A60     		str	r2, [r3]
 1248              		.loc 9 217 0
 1249 05a8 2248     		ldr	r0, .L79+12
 1250 05aa 2249     		ldr	r1, .L79+12
 1251 05ac FFF7FEFF 		bl	chSemSignalWait
 1252              		.loc 9 218 0
 1253 05b0 2048     		ldr	r0, .L79+12
 1254 05b2 FFF735FD 		bl	queue_isempty
 1255 05b6 0346     		mov	r3, r0
 1256 05b8 0120     		movs	r0, #1
 1257 05ba 1946     		mov	r1, r3
 1258 05bc FFF7FEFF 		bl	_test_assert
 1259 05c0 0346     		mov	r3, r0
 1260 05c2 002B     		cmp	r3, #0
 1261 05c4 00D0     		beq	.L75
 1262              		.loc 9 218 0 is_stmt 0 discriminator 1
 1263 05c6 2DE0     		b	.L74
 1264              	.L75:
 1265              		.loc 9 219 0 is_stmt 1
 1266 05c8 1A4B     		ldr	r3, .L79+12
 1267 05ca 9B68     		ldr	r3, [r3, #8]
 1268 05cc 002B     		cmp	r3, #0
 1269 05ce 14BF     		ite	ne
 1270 05d0 0023     		movne	r3, #0
 1271 05d2 0123     		moveq	r3, #1
 1272 05d4 DBB2     		uxtb	r3, r3
 1273 05d6 0220     		movs	r0, #2
 1274 05d8 1946     		mov	r1, r3
 1275 05da FFF7FEFF 		bl	_test_assert
 1276 05de 0346     		mov	r3, r0
 1277 05e0 002B     		cmp	r3, #0
 1278 05e2 00D0     		beq	.L77
 1279              		.loc 9 219 0 is_stmt 0 discriminator 1
 1280 05e4 1EE0     		b	.L74
 1281              	.L77:
 1282              		.loc 9 221 0 is_stmt 1
 1283 05e6 1348     		ldr	r0, .L79+12
 1284 05e8 1249     		ldr	r1, .L79+12
 1285 05ea FFF7FEFF 		bl	chSemSignalWait
 1286              		.loc 9 222 0
 1287 05ee 1148     		ldr	r0, .L79+12
 1288 05f0 FFF716FD 		bl	queue_isempty
 1289 05f4 0346     		mov	r3, r0
 1290 05f6 0320     		movs	r0, #3
 1291 05f8 1946     		mov	r1, r3
 1292 05fa FFF7FEFF 		bl	_test_assert
 1293 05fe 0346     		mov	r3, r0
 1294 0600 002B     		cmp	r3, #0
 1295 0602 00D0     		beq	.L78
ARM GAS  /tmp/ccTMyCpM.s 			page 24


 1296              		.loc 9 222 0 is_stmt 0 discriminator 1
 1297 0604 0EE0     		b	.L74
 1298              	.L78:
 1299              		.loc 9 223 0 is_stmt 1
 1300 0606 0B4B     		ldr	r3, .L79+12
 1301 0608 9B68     		ldr	r3, [r3, #8]
 1302 060a 002B     		cmp	r3, #0
 1303 060c 14BF     		ite	ne
 1304 060e 0023     		movne	r3, #0
 1305 0610 0123     		moveq	r3, #1
 1306 0612 DBB2     		uxtb	r3, r3
 1307 0614 0420     		movs	r0, #4
 1308 0616 1946     		mov	r1, r3
 1309 0618 FFF7FEFF 		bl	_test_assert
 1310 061c 0346     		mov	r3, r0
 1311 061e 002B     		cmp	r3, #0
 1312 0620 00D0     		beq	.L74
 1313              		.loc 9 223 0 is_stmt 0 discriminator 1
 1314 0622 00BF     		nop
 1315              	.L74:
 1316              		.loc 9 224 0 is_stmt 1
 1317 0624 02B0     		add	sp, sp, #8
 1318              		@ sp needed
 1319 0626 10BD     		pop	{r4, pc}
 1320              	.L80:
 1321              		.align	2
 1322              	.L79:
 1323 0628 00000000 		.word	wa
 1324 062c 00000000 		.word	thread3
 1325 0630 00000000 		.word	threads
 1326 0634 00000000 		.word	sem1
 1327              		.cfi_endproc
 1328              	.LFE240:
 1329              		.size	sem3_execute, .-sem3_execute
 1330              		.global	testsem3
 1331              		.section	.rodata
 1332              		.align	2
 1333              	.LC8:
 1334 0068 53656D61 		.ascii	"Semaphores, atomic signal-wait\000"
 1334      70686F72 
 1334      65732C20 
 1334      61746F6D 
 1334      69632073 
 1335 0087 00       		.align	2
 1336              		.type	testsem3, %object
 1337              		.size	testsem3, 16
 1338              	testsem3:
 1339 0088 68000000 		.word	.LC8
 1340 008c 00000000 		.word	sem3_setup
 1341 0090 00000000 		.word	0
 1342 0094 00000000 		.word	sem3_execute
 1343              		.text
 1344              		.align	2
 1345 0638 AFF30080 		.p2align 4,,15
 1345      AFF30080 
 1346              		.thumb
 1347              		.thumb_func
ARM GAS  /tmp/ccTMyCpM.s 			page 25


 1348              		.type	thread4, %function
 1349              	thread4:
 1350              	.LFB241:
 1351              		.loc 9 241 0
 1352              		.cfi_startproc
 1353              		@ args = 0, pretend = 0, frame = 8
 1354              		@ frame_needed = 0, uses_anonymous_args = 0
 1355 0640 00B5     		push	{lr}
 1356              		.cfi_def_cfa_offset 4
 1357              		.cfi_offset 14, -4
 1358 0642 83B0     		sub	sp, sp, #12
 1359              		.cfi_def_cfa_offset 16
 1360 0644 0190     		str	r0, [sp, #4]
 1361              		.loc 9 243 0
 1362 0646 0198     		ldr	r0, [sp, #4]
 1363 0648 FFF78AFD 		bl	chBSemSignal
 1364              		.loc 9 244 0
 1365 064c 03B0     		add	sp, sp, #12
 1366              		@ sp needed
 1367 064e 5DF804FB 		ldr	pc, [sp], #4
 1368              		.cfi_endproc
 1369              	.LFE241:
 1370              		.size	thread4, .-thread4
 1371 0652 00BF     		.align	2
 1372 0654 AFF30080 		.p2align 4,,15
 1372      AFF30080 
 1372      AFF30080 
 1373              		.thumb
 1374              		.thumb_func
 1375              		.type	sem4_execute, %function
 1376              	sem4_execute:
 1377              	.LFB242:
 1378              		.loc 9 246 0
 1379              		.cfi_startproc
 1380              		@ args = 0, pretend = 0, frame = 16
 1381              		@ frame_needed = 0, uses_anonymous_args = 0
 1382 0660 10B5     		push	{r4, lr}
 1383              		.cfi_def_cfa_offset 8
 1384              		.cfi_offset 4, -8
 1385              		.cfi_offset 14, -4
 1386 0662 86B0     		sub	sp, sp, #24
 1387              		.cfi_def_cfa_offset 32
 1388              		.loc 9 250 0
 1389 0664 03AB     		add	r3, sp, #12
 1390 0666 1846     		mov	r0, r3
 1391 0668 0121     		movs	r1, #1
 1392 066a FFF729FD 		bl	chBSemObjectInit
 1393              		.loc 9 251 0
 1394 066e 03AB     		add	r3, sp, #12
 1395 0670 1846     		mov	r0, r3
 1396 0672 0121     		movs	r1, #1
 1397 0674 FFF74CFD 		bl	chBSemReset
 1398              		.loc 9 252 0
 1399 0678 FFF7E2FC 		bl	chSysLock
 1400 067c 03AB     		add	r3, sp, #12
 1401 067e 1846     		mov	r0, r3
 1402 0680 FFF77EFD 		bl	chBSemGetStateI
ARM GAS  /tmp/ccTMyCpM.s 			page 26


 1403 0684 0346     		mov	r3, r0
 1404 0686 002B     		cmp	r3, #0
 1405 0688 0CBF     		ite	eq
 1406 068a 0023     		moveq	r3, #0
 1407 068c 0123     		movne	r3, #1
 1408 068e DBB2     		uxtb	r3, r3
 1409 0690 0120     		movs	r0, #1
 1410 0692 1946     		mov	r1, r3
 1411 0694 FFF7FEFF 		bl	_test_assert
 1412 0698 0346     		mov	r3, r0
 1413 069a 002B     		cmp	r3, #0
 1414 069c 02D0     		beq	.L83
 1415              		.loc 9 252 0 is_stmt 0 discriminator 1
 1416 069e FFF7D7FC 		bl	chSysUnlock
 1417 06a2 A3E0     		b	.L82
 1418              	.L83:
 1419              		.loc 9 252 0 discriminator 2
 1420 06a4 FFF7D4FC 		bl	chSysUnlock
 1421              		.loc 9 255 0 is_stmt 1 discriminator 2
 1422 06a8 514B     		ldr	r3, .L91
 1423 06aa 1C68     		ldr	r4, [r3]
 1424              		.loc 9 256 0 discriminator 2
 1425 06ac FFF7F8FC 		bl	chThdGetPriorityX
 1426 06b0 0346     		mov	r3, r0
 1427              		.loc 9 255 0 discriminator 2
 1428 06b2 013B     		subs	r3, r3, #1
 1429 06b4 03AA     		add	r2, sp, #12
 1430 06b6 0092     		str	r2, [sp]
 1431 06b8 2046     		mov	r0, r4
 1432 06ba 4FF4A471 		mov	r1, #328
 1433 06be 1A46     		mov	r2, r3
 1434 06c0 4C4B     		ldr	r3, .L91+4
 1435 06c2 FFF7FEFF 		bl	chThdCreateStatic
 1436 06c6 0246     		mov	r2, r0
 1437 06c8 4B4B     		ldr	r3, .L91+8
 1438 06ca 1A60     		str	r2, [r3]
 1439              		.loc 9 259 0 discriminator 2
 1440 06cc 03AB     		add	r3, sp, #12
 1441 06ce 1846     		mov	r0, r3
 1442 06d0 FFF70EFD 		bl	chBSemWait
 1443              		.loc 9 262 0 discriminator 2
 1444 06d4 FFF7B4FC 		bl	chSysLock
 1445 06d8 03AB     		add	r3, sp, #12
 1446 06da 1846     		mov	r0, r3
 1447 06dc FFF750FD 		bl	chBSemGetStateI
 1448 06e0 0346     		mov	r3, r0
 1449 06e2 002B     		cmp	r3, #0
 1450 06e4 0CBF     		ite	eq
 1451 06e6 0023     		moveq	r3, #0
 1452 06e8 0123     		movne	r3, #1
 1453 06ea DBB2     		uxtb	r3, r3
 1454 06ec 0220     		movs	r0, #2
 1455 06ee 1946     		mov	r1, r3
 1456 06f0 FFF7FEFF 		bl	_test_assert
 1457 06f4 0346     		mov	r3, r0
 1458 06f6 002B     		cmp	r3, #0
 1459 06f8 02D0     		beq	.L85
ARM GAS  /tmp/ccTMyCpM.s 			page 27


 1460              		.loc 9 262 0 is_stmt 0 discriminator 1
 1461 06fa FFF7A9FC 		bl	chSysUnlock
 1462 06fe 75E0     		b	.L82
 1463              	.L85:
 1464              		.loc 9 262 0 discriminator 2
 1465 0700 FFF7A6FC 		bl	chSysUnlock
 1466              		.loc 9 266 0 is_stmt 1 discriminator 2
 1467 0704 03AB     		add	r3, sp, #12
 1468 0706 1846     		mov	r0, r3
 1469 0708 FFF72AFD 		bl	chBSemSignal
 1470              		.loc 9 267 0 discriminator 2
 1471 070c FFF798FC 		bl	chSysLock
 1472 0710 03AB     		add	r3, sp, #12
 1473 0712 1846     		mov	r0, r3
 1474 0714 FFF734FD 		bl	chBSemGetStateI
 1475 0718 0346     		mov	r3, r0
 1476 071a 002B     		cmp	r3, #0
 1477 071c 0CBF     		ite	eq
 1478 071e 0023     		moveq	r3, #0
 1479 0720 0123     		movne	r3, #1
 1480 0722 DBB2     		uxtb	r3, r3
 1481 0724 83F00103 		eor	r3, r3, #1
 1482 0728 DBB2     		uxtb	r3, r3
 1483 072a 03F00103 		and	r3, r3, #1
 1484 072e DBB2     		uxtb	r3, r3
 1485 0730 0320     		movs	r0, #3
 1486 0732 1946     		mov	r1, r3
 1487 0734 FFF7FEFF 		bl	_test_assert
 1488 0738 0346     		mov	r3, r0
 1489 073a 002B     		cmp	r3, #0
 1490 073c 02D0     		beq	.L86
 1491              		.loc 9 267 0 is_stmt 0 discriminator 1
 1492 073e FFF787FC 		bl	chSysUnlock
 1493 0742 53E0     		b	.L82
 1494              	.L86:
 1495              		.loc 9 267 0 discriminator 2
 1496 0744 FFF784FC 		bl	chSysUnlock
 1497              		.loc 9 268 0 is_stmt 1 discriminator 2
 1498 0748 FFF77AFC 		bl	chSysLock
 1499 074c 03AB     		add	r3, sp, #12
 1500 074e 1846     		mov	r0, r3
 1501 0750 FFF7AEFC 		bl	chSemGetCounterI
 1502 0754 0346     		mov	r3, r0
 1503 0756 012B     		cmp	r3, #1
 1504 0758 14BF     		ite	ne
 1505 075a 0023     		movne	r3, #0
 1506 075c 0123     		moveq	r3, #1
 1507 075e DBB2     		uxtb	r3, r3
 1508 0760 0420     		movs	r0, #4
 1509 0762 1946     		mov	r1, r3
 1510 0764 FFF7FEFF 		bl	_test_assert
 1511 0768 0346     		mov	r3, r0
 1512 076a 002B     		cmp	r3, #0
 1513 076c 02D0     		beq	.L87
 1514              		.loc 9 268 0 is_stmt 0 discriminator 1
 1515 076e FFF76FFC 		bl	chSysUnlock
 1516 0772 3BE0     		b	.L82
ARM GAS  /tmp/ccTMyCpM.s 			page 28


 1517              	.L87:
 1518              		.loc 9 268 0 discriminator 2
 1519 0774 FFF76CFC 		bl	chSysUnlock
 1520              		.loc 9 271 0 is_stmt 1 discriminator 2
 1521 0778 03AB     		add	r3, sp, #12
 1522 077a 1846     		mov	r0, r3
 1523 077c FFF7F0FC 		bl	chBSemSignal
 1524              		.loc 9 272 0 discriminator 2
 1525 0780 FFF75EFC 		bl	chSysLock
 1526 0784 03AB     		add	r3, sp, #12
 1527 0786 1846     		mov	r0, r3
 1528 0788 FFF7FAFC 		bl	chBSemGetStateI
 1529 078c 0346     		mov	r3, r0
 1530 078e 002B     		cmp	r3, #0
 1531 0790 0CBF     		ite	eq
 1532 0792 0023     		moveq	r3, #0
 1533 0794 0123     		movne	r3, #1
 1534 0796 DBB2     		uxtb	r3, r3
 1535 0798 83F00103 		eor	r3, r3, #1
 1536 079c DBB2     		uxtb	r3, r3
 1537 079e 03F00103 		and	r3, r3, #1
 1538 07a2 DBB2     		uxtb	r3, r3
 1539 07a4 0320     		movs	r0, #3
 1540 07a6 1946     		mov	r1, r3
 1541 07a8 FFF7FEFF 		bl	_test_assert
 1542 07ac 0346     		mov	r3, r0
 1543 07ae 002B     		cmp	r3, #0
 1544 07b0 02D0     		beq	.L88
 1545              		.loc 9 272 0 is_stmt 0 discriminator 1
 1546 07b2 FFF74DFC 		bl	chSysUnlock
 1547 07b6 19E0     		b	.L82
 1548              	.L88:
 1549              		.loc 9 272 0 discriminator 2
 1550 07b8 FFF74AFC 		bl	chSysUnlock
 1551              		.loc 9 273 0 is_stmt 1 discriminator 2
 1552 07bc FFF740FC 		bl	chSysLock
 1553 07c0 03AB     		add	r3, sp, #12
 1554 07c2 1846     		mov	r0, r3
 1555 07c4 FFF774FC 		bl	chSemGetCounterI
 1556 07c8 0346     		mov	r3, r0
 1557 07ca 012B     		cmp	r3, #1
 1558 07cc 14BF     		ite	ne
 1559 07ce 0023     		movne	r3, #0
 1560 07d0 0123     		moveq	r3, #1
 1561 07d2 DBB2     		uxtb	r3, r3
 1562 07d4 0520     		movs	r0, #5
 1563 07d6 1946     		mov	r1, r3
 1564 07d8 FFF7FEFF 		bl	_test_assert
 1565 07dc 0346     		mov	r3, r0
 1566 07de 002B     		cmp	r3, #0
 1567 07e0 02D0     		beq	.L89
 1568              		.loc 9 273 0 is_stmt 0 discriminator 1
 1569 07e2 FFF735FC 		bl	chSysUnlock
 1570 07e6 01E0     		b	.L82
 1571              	.L89:
 1572              		.loc 9 273 0 discriminator 2
 1573 07e8 FFF732FC 		bl	chSysUnlock
ARM GAS  /tmp/ccTMyCpM.s 			page 29


 1574              	.L82:
 1575              		.loc 9 274 0 is_stmt 1
 1576 07ec 06B0     		add	sp, sp, #24
 1577              		@ sp needed
 1578 07ee 10BD     		pop	{r4, pc}
 1579              	.L92:
 1580              		.align	2
 1581              	.L91:
 1582 07f0 00000000 		.word	wa
 1583 07f4 00000000 		.word	thread4
 1584 07f8 00000000 		.word	threads
 1585              		.cfi_endproc
 1586              	.LFE242:
 1587              		.size	sem4_execute, .-sem4_execute
 1588              		.global	testsem4
 1589              		.section	.rodata
 1590              		.align	2
 1591              	.LC9:
 1592 0098 42696E61 		.ascii	"Binary Semaphores, functionality\000"
 1592      72792053 
 1592      656D6170 
 1592      686F7265 
 1592      732C2066 
 1593 00b9 000000   		.align	2
 1594              		.type	testsem4, %object
 1595              		.size	testsem4, 16
 1596              	testsem4:
 1597 00bc 98000000 		.word	.LC9
 1598 00c0 00000000 		.word	0
 1599 00c4 00000000 		.word	0
 1600 00c8 00000000 		.word	sem4_execute
 1601              		.global	patternsem
 1602              		.align	2
 1603              		.type	patternsem, %object
 1604              		.size	patternsem, 20
 1605              	patternsem:
 1606 00cc 00000000 		.word	testsem1
 1607 00d0 00000000 		.word	testsem2
 1608 00d4 00000000 		.word	testsem3
 1609 00d8 00000000 		.word	testsem4
 1610 00dc 00000000 		.word	0
 1611              		.text
 1612              	.Letext0:
 1613              		.file 10 "/nfs/nfs5/home/research/hardware/arm2/gcc-arm-embedded/gcc-arm-none-eabi-4_8-2014q2/lib/
 1614              		.file 11 "/nfs/nfs5/home/research/hardware/arm2/gcc-arm-embedded/gcc-arm-none-eabi-4_8-2014q2/arm-
 1615              		.file 12 "/nfs/nfs5/home/research/hardware/arm2/gcc-arm-embedded/gcc-arm-none-eabi-4_8-2014q2/arm-
 1616              		.file 13 "../../../../../../ChibiOS/os/rt/ports/ARMCMx/compilers/GCC/chtypes.h"
 1617              		.file 14 "../../../../../../ChibiOS/os/rt/include/chsystypes.h"
 1618              		.file 15 "../../../../../../ChibiOS/os/rt/ports/ARMCMx/chcore.h"
 1619              		.file 16 "../../../../../../ChibiOS/os/rt/include/chtm.h"
 1620              		.file 17 "../../../../../../ChibiOS/os/rt/include/chmtx.h"
 1621              		.file 18 "../../../../../../ChibiOS/test/rt/test.h"
 1622              		.file 19 "../../../../../../ChibiOS/os/ext/CMSIS/include/core_cm4.h"
 1623 07fc AFF30080 		.section	.debug_info,"",%progbits
 1624              	.Ldebug_info0:
 1625 0000 5A0B0000 		.4byte	0xb5a
 1626 0004 0400     		.2byte	0x4
ARM GAS  /tmp/ccTMyCpM.s 			page 30


 1627 0006 00000000 		.4byte	.Ldebug_abbrev0
 1628 000a 04       		.byte	0x4
 1629 000b 01       		.uleb128 0x1
 1630 000c EC040000 		.4byte	.LASF152
 1631 0010 01       		.byte	0x1
 1632 0011 62010000 		.4byte	.LASF153
 1633 0015 CF010000 		.4byte	.LASF154
 1634 0019 00000000 		.4byte	.Ltext0
 1635 001d FC070000 		.4byte	.Letext0-.Ltext0
 1636 0021 00000000 		.4byte	.Ldebug_line0
 1637 0025 02       		.uleb128 0x2
 1638 0026 04       		.byte	0x4
 1639 0027 05       		.byte	0x5
 1640 0028 696E7400 		.ascii	"int\000"
 1641 002c 03       		.uleb128 0x3
 1642 002d 0D000000 		.4byte	.LASF2
 1643 0031 0A       		.byte	0xa
 1644 0032 D4       		.byte	0xd4
 1645 0033 37000000 		.4byte	0x37
 1646 0037 04       		.uleb128 0x4
 1647 0038 04       		.byte	0x4
 1648 0039 07       		.byte	0x7
 1649 003a A3020000 		.4byte	.LASF0
 1650 003e 04       		.uleb128 0x4
 1651 003f 01       		.byte	0x1
 1652 0040 06       		.byte	0x6
 1653 0041 31000000 		.4byte	.LASF1
 1654 0045 03       		.uleb128 0x3
 1655 0046 3D000000 		.4byte	.LASF3
 1656 004a 0B       		.byte	0xb
 1657 004b 1C       		.byte	0x1c
 1658 004c 50000000 		.4byte	0x50
 1659 0050 04       		.uleb128 0x4
 1660 0051 01       		.byte	0x1
 1661 0052 08       		.byte	0x8
 1662 0053 DE040000 		.4byte	.LASF4
 1663 0057 04       		.uleb128 0x4
 1664 0058 02       		.byte	0x2
 1665 0059 05       		.byte	0x5
 1666 005a 9F050000 		.4byte	.LASF5
 1667 005e 04       		.uleb128 0x4
 1668 005f 02       		.byte	0x2
 1669 0060 07       		.byte	0x7
 1670 0061 14030000 		.4byte	.LASF6
 1671 0065 03       		.uleb128 0x3
 1672 0066 72030000 		.4byte	.LASF7
 1673 006a 0B       		.byte	0xb
 1674 006b 37       		.byte	0x37
 1675 006c 70000000 		.4byte	0x70
 1676 0070 04       		.uleb128 0x4
 1677 0071 04       		.byte	0x4
 1678 0072 05       		.byte	0x5
 1679 0073 44010000 		.4byte	.LASF8
 1680 0077 03       		.uleb128 0x3
 1681 0078 7F020000 		.4byte	.LASF9
 1682 007c 0B       		.byte	0xb
 1683 007d 38       		.byte	0x38
ARM GAS  /tmp/ccTMyCpM.s 			page 31


 1684 007e 82000000 		.4byte	0x82
 1685 0082 04       		.uleb128 0x4
 1686 0083 04       		.byte	0x4
 1687 0084 07       		.byte	0x7
 1688 0085 64060000 		.4byte	.LASF10
 1689 0089 04       		.uleb128 0x4
 1690 008a 08       		.byte	0x8
 1691 008b 05       		.byte	0x5
 1692 008c D9000000 		.4byte	.LASF11
 1693 0090 03       		.uleb128 0x3
 1694 0091 64040000 		.4byte	.LASF12
 1695 0095 0B       		.byte	0xb
 1696 0096 4E       		.byte	0x4e
 1697 0097 9B000000 		.4byte	0x9b
 1698 009b 04       		.uleb128 0x4
 1699 009c 08       		.byte	0x8
 1700 009d 07       		.byte	0x7
 1701 009e 73000000 		.4byte	.LASF13
 1702 00a2 03       		.uleb128 0x3
 1703 00a3 2F070000 		.4byte	.LASF14
 1704 00a7 0C       		.byte	0xc
 1705 00a8 2A       		.byte	0x2a
 1706 00a9 45000000 		.4byte	0x45
 1707 00ad 03       		.uleb128 0x3
 1708 00ae D6040000 		.4byte	.LASF15
 1709 00b2 0C       		.byte	0xc
 1710 00b3 41       		.byte	0x41
 1711 00b4 65000000 		.4byte	0x65
 1712 00b8 03       		.uleb128 0x3
 1713 00b9 31060000 		.4byte	.LASF16
 1714 00bd 0C       		.byte	0xc
 1715 00be 42       		.byte	0x42
 1716 00bf 77000000 		.4byte	0x77
 1717 00c3 03       		.uleb128 0x3
 1718 00c4 28000000 		.4byte	.LASF17
 1719 00c8 0C       		.byte	0xc
 1720 00c9 4E       		.byte	0x4e
 1721 00ca 90000000 		.4byte	0x90
 1722 00ce 03       		.uleb128 0x3
 1723 00cf 94030000 		.4byte	.LASF18
 1724 00d3 0D       		.byte	0xd
 1725 00d4 39       		.byte	0x39
 1726 00d5 B8000000 		.4byte	0xb8
 1727 00d9 03       		.uleb128 0x3
 1728 00da 48030000 		.4byte	.LASF19
 1729 00de 0D       		.byte	0xd
 1730 00df 3C       		.byte	0x3c
 1731 00e0 A2000000 		.4byte	0xa2
 1732 00e4 03       		.uleb128 0x3
 1733 00e5 59010000 		.4byte	.LASF20
 1734 00e9 0D       		.byte	0xd
 1735 00ea 3D       		.byte	0x3d
 1736 00eb A2000000 		.4byte	0xa2
 1737 00ef 03       		.uleb128 0x3
 1738 00f0 6F040000 		.4byte	.LASF21
 1739 00f4 0D       		.byte	0xd
 1740 00f5 3E       		.byte	0x3e
ARM GAS  /tmp/ccTMyCpM.s 			page 32


 1741 00f6 A2000000 		.4byte	0xa2
 1742 00fa 03       		.uleb128 0x3
 1743 00fb 09010000 		.4byte	.LASF22
 1744 00ff 0D       		.byte	0xd
 1745 0100 3F       		.byte	0x3f
 1746 0101 A2000000 		.4byte	0xa2
 1747 0105 03       		.uleb128 0x3
 1748 0106 A9040000 		.4byte	.LASF23
 1749 010a 0D       		.byte	0xd
 1750 010b 40       		.byte	0x40
 1751 010c B8000000 		.4byte	0xb8
 1752 0110 03       		.uleb128 0x3
 1753 0111 36030000 		.4byte	.LASF24
 1754 0115 0D       		.byte	0xd
 1755 0116 41       		.byte	0x41
 1756 0117 AD000000 		.4byte	0xad
 1757 011b 03       		.uleb128 0x3
 1758 011c 66030000 		.4byte	.LASF25
 1759 0120 0D       		.byte	0xd
 1760 0121 43       		.byte	0x43
 1761 0122 B8000000 		.4byte	0xb8
 1762 0126 03       		.uleb128 0x3
 1763 0127 8A020000 		.4byte	.LASF26
 1764 012b 0D       		.byte	0xd
 1765 012c 45       		.byte	0x45
 1766 012d AD000000 		.4byte	0xad
 1767 0131 03       		.uleb128 0x3
 1768 0132 96060000 		.4byte	.LASF27
 1769 0136 0E       		.byte	0xe
 1770 0137 33       		.byte	0x33
 1771 0138 B8000000 		.4byte	0xb8
 1772 013c 03       		.uleb128 0x3
 1773 013d 86060000 		.4byte	.LASF28
 1774 0141 0E       		.byte	0xe
 1775 0142 3F       		.byte	0x3f
 1776 0143 47010000 		.4byte	0x147
 1777 0147 05       		.uleb128 0x5
 1778 0148 27030000 		.4byte	.LASF49
 1779 014c 44       		.byte	0x44
 1780 014d 03       		.byte	0x3
 1781 014e C2       		.byte	0xc2
 1782 014f 40020000 		.4byte	0x240
 1783 0153 06       		.uleb128 0x6
 1784 0154 D1050000 		.4byte	.LASF29
 1785 0158 03       		.byte	0x3
 1786 0159 C3       		.byte	0xc3
 1787 015a 4B020000 		.4byte	0x24b
 1788 015e 00       		.byte	0
 1789 015f 06       		.uleb128 0x6
 1790 0160 87040000 		.4byte	.LASF30
 1791 0164 03       		.byte	0x3
 1792 0165 C5       		.byte	0xc5
 1793 0166 4B020000 		.4byte	0x24b
 1794 016a 04       		.byte	0x4
 1795 016b 06       		.uleb128 0x6
 1796 016c D2000000 		.4byte	.LASF31
 1797 0170 03       		.byte	0x3
ARM GAS  /tmp/ccTMyCpM.s 			page 33


 1798 0171 C7       		.byte	0xc7
 1799 0172 05010000 		.4byte	0x105
 1800 0176 08       		.byte	0x8
 1801 0177 06       		.uleb128 0x6
 1802 0178 B4070000 		.4byte	.LASF32
 1803 017c 03       		.byte	0x3
 1804 017d C8       		.byte	0xc8
 1805 017e 94040000 		.4byte	0x494
 1806 0182 0C       		.byte	0xc
 1807 0183 06       		.uleb128 0x6
 1808 0184 98010000 		.4byte	.LASF33
 1809 0188 03       		.byte	0x3
 1810 0189 CA       		.byte	0xca
 1811 018a 4B020000 		.4byte	0x24b
 1812 018e 10       		.byte	0x10
 1813 018f 06       		.uleb128 0x6
 1814 0190 EA030000 		.4byte	.LASF34
 1815 0194 03       		.byte	0x3
 1816 0195 CB       		.byte	0xcb
 1817 0196 4B020000 		.4byte	0x24b
 1818 019a 14       		.byte	0x14
 1819 019b 06       		.uleb128 0x6
 1820 019c 57070000 		.4byte	.LASF35
 1821 01a0 03       		.byte	0x3
 1822 01a1 D2       		.byte	0xd2
 1823 01a2 73040000 		.4byte	0x473
 1824 01a6 18       		.byte	0x18
 1825 01a7 06       		.uleb128 0x6
 1826 01a8 A9050000 		.4byte	.LASF36
 1827 01ac 03       		.byte	0x3
 1828 01ad DD       		.byte	0xdd
 1829 01ae E4000000 		.4byte	0xe4
 1830 01b2 1C       		.byte	0x1c
 1831 01b3 06       		.uleb128 0x6
 1832 01b4 D8050000 		.4byte	.LASF37
 1833 01b8 03       		.byte	0x3
 1834 01b9 E1       		.byte	0xe1
 1835 01ba D9000000 		.4byte	0xd9
 1836 01be 1D       		.byte	0x1d
 1837 01bf 06       		.uleb128 0x6
 1838 01c0 14070000 		.4byte	.LASF38
 1839 01c4 03       		.byte	0x3
 1840 01c5 E6       		.byte	0xe6
 1841 01c6 EF000000 		.4byte	0xef
 1842 01ca 1E       		.byte	0x1e
 1843 01cb 06       		.uleb128 0x6
 1844 01cc B1050000 		.4byte	.LASF39
 1845 01d0 03       		.byte	0x3
 1846 01d1 EC       		.byte	0xec
 1847 01d2 FA000000 		.4byte	0xfa
 1848 01d6 1F       		.byte	0x1f
 1849 01d7 07       		.uleb128 0x7
 1850 01d8 705F7500 		.ascii	"p_u\000"
 1851 01dc 03       		.byte	0x3
 1852 01dd 3101     		.2byte	0x131
 1853 01df 4E050000 		.4byte	0x54e
 1854 01e3 20       		.byte	0x20
ARM GAS  /tmp/ccTMyCpM.s 			page 34


 1855 01e4 08       		.uleb128 0x8
 1856 01e5 BA070000 		.4byte	.LASF40
 1857 01e9 03       		.byte	0x3
 1858 01ea 3601     		.2byte	0x136
 1859 01ec 51020000 		.4byte	0x251
 1860 01f0 24       		.byte	0x24
 1861 01f1 08       		.uleb128 0x8
 1862 01f2 F2060000 		.4byte	.LASF41
 1863 01f6 03       		.byte	0x3
 1864 01f7 3C01     		.2byte	0x13c
 1865 01f9 75020000 		.4byte	0x275
 1866 01fd 28       		.byte	0x28
 1867 01fe 08       		.uleb128 0x8
 1868 01ff 9A070000 		.4byte	.LASF42
 1869 0203 03       		.byte	0x3
 1870 0204 4001     		.2byte	0x140
 1871 0206 10010000 		.4byte	0x110
 1872 020a 30       		.byte	0x30
 1873 020b 08       		.uleb128 0x8
 1874 020c 26060000 		.4byte	.LASF43
 1875 0210 03       		.byte	0x3
 1876 0211 4601     		.2byte	0x146
 1877 0213 1B010000 		.4byte	0x11b
 1878 0217 34       		.byte	0x34
 1879 0218 08       		.uleb128 0x8
 1880 0219 8E010000 		.4byte	.LASF44
 1881 021d 03       		.byte	0x3
 1882 021e 4D01     		.2byte	0x14d
 1883 0220 0D060000 		.4byte	0x60d
 1884 0224 38       		.byte	0x38
 1885 0225 08       		.uleb128 0x8
 1886 0226 A0060000 		.4byte	.LASF45
 1887 022a 03       		.byte	0x3
 1888 022b 5101     		.2byte	0x151
 1889 022d 05010000 		.4byte	0x105
 1890 0231 3C       		.byte	0x3c
 1891 0232 08       		.uleb128 0x8
 1892 0233 ED000000 		.4byte	.LASF46
 1893 0237 03       		.byte	0x3
 1894 0238 5801     		.2byte	0x158
 1895 023a 28030000 		.4byte	0x328
 1896 023e 40       		.byte	0x40
 1897 023f 00       		.byte	0
 1898 0240 03       		.uleb128 0x3
 1899 0241 9C030000 		.4byte	.LASF47
 1900 0245 0E       		.byte	0xe
 1901 0246 44       		.byte	0x44
 1902 0247 4B020000 		.4byte	0x24b
 1903 024b 09       		.uleb128 0x9
 1904 024c 04       		.byte	0x4
 1905 024d 3C010000 		.4byte	0x13c
 1906 0251 03       		.uleb128 0x3
 1907 0252 6F070000 		.4byte	.LASF48
 1908 0256 0E       		.byte	0xe
 1909 0257 49       		.byte	0x49
 1910 0258 5C020000 		.4byte	0x25c
 1911 025c 05       		.uleb128 0x5
ARM GAS  /tmp/ccTMyCpM.s 			page 35


 1912 025d 54060000 		.4byte	.LASF50
 1913 0261 04       		.byte	0x4
 1914 0262 03       		.byte	0x3
 1915 0263 B0       		.byte	0xb0
 1916 0264 75020000 		.4byte	0x275
 1917 0268 06       		.uleb128 0x6
 1918 0269 D1050000 		.4byte	.LASF29
 1919 026d 03       		.byte	0x3
 1920 026e B1       		.byte	0xb1
 1921 026f 4B020000 		.4byte	0x24b
 1922 0273 00       		.byte	0
 1923 0274 00       		.byte	0
 1924 0275 03       		.uleb128 0x3
 1925 0276 04070000 		.4byte	.LASF51
 1926 027a 0E       		.byte	0xe
 1927 027b 50       		.byte	0x50
 1928 027c 80020000 		.4byte	0x280
 1929 0280 05       		.uleb128 0x5
 1930 0281 C1000000 		.4byte	.LASF52
 1931 0285 08       		.byte	0x8
 1932 0286 03       		.byte	0x3
 1933 0287 B7       		.byte	0xb7
 1934 0288 A5020000 		.4byte	0x2a5
 1935 028c 06       		.uleb128 0x6
 1936 028d D1050000 		.4byte	.LASF29
 1937 0291 03       		.byte	0x3
 1938 0292 B8       		.byte	0xb8
 1939 0293 4B020000 		.4byte	0x24b
 1940 0297 00       		.byte	0
 1941 0298 06       		.uleb128 0x6
 1942 0299 87040000 		.4byte	.LASF30
 1943 029d 03       		.byte	0x3
 1944 029e B9       		.byte	0xb9
 1945 029f 4B020000 		.4byte	0x24b
 1946 02a3 04       		.byte	0x4
 1947 02a4 00       		.byte	0
 1948 02a5 03       		.uleb128 0x3
 1949 02a6 00000000 		.4byte	.LASF53
 1950 02aa 0E       		.byte	0xe
 1951 02ab 57       		.byte	0x57
 1952 02ac B0020000 		.4byte	0x2b0
 1953 02b0 0A       		.uleb128 0xa
 1954 02b1 58030000 		.4byte	.LASF54
 1955 02b5 1C       		.byte	0x1c
 1956 02b6 03       		.byte	0x3
 1957 02b7 9001     		.2byte	0x190
 1958 02b9 0C030000 		.4byte	0x30c
 1959 02bd 08       		.uleb128 0x8
 1960 02be 41060000 		.4byte	.LASF55
 1961 02c2 03       		.byte	0x3
 1962 02c3 9101     		.2byte	0x191
 1963 02c5 75020000 		.4byte	0x275
 1964 02c9 00       		.byte	0
 1965 02ca 08       		.uleb128 0x8
 1966 02cb C3050000 		.4byte	.LASF56
 1967 02cf 03       		.byte	0x3
 1968 02d0 9201     		.2byte	0x192
ARM GAS  /tmp/ccTMyCpM.s 			page 36


 1969 02d2 05010000 		.4byte	0x105
 1970 02d6 08       		.byte	0x8
 1971 02d7 08       		.uleb128 0x8
 1972 02d8 EC060000 		.4byte	.LASF57
 1973 02dc 03       		.byte	0x3
 1974 02dd 9401     		.2byte	0x194
 1975 02df 94040000 		.4byte	0x494
 1976 02e3 0C       		.byte	0xc
 1977 02e4 08       		.uleb128 0x8
 1978 02e5 B6010000 		.4byte	.LASF58
 1979 02e9 03       		.byte	0x3
 1980 02ea 9701     		.2byte	0x197
 1981 02ec 4B020000 		.4byte	0x24b
 1982 02f0 10       		.byte	0x10
 1983 02f1 08       		.uleb128 0x8
 1984 02f2 51040000 		.4byte	.LASF59
 1985 02f6 03       		.byte	0x3
 1986 02f7 9801     		.2byte	0x198
 1987 02f9 4B020000 		.4byte	0x24b
 1988 02fd 14       		.byte	0x14
 1989 02fe 08       		.uleb128 0x8
 1990 02ff 47040000 		.4byte	.LASF60
 1991 0303 03       		.byte	0x3
 1992 0304 9B01     		.2byte	0x19b
 1993 0306 4B020000 		.4byte	0x24b
 1994 030a 18       		.byte	0x18
 1995 030b 00       		.byte	0
 1996 030c 03       		.uleb128 0x3
 1997 030d AB060000 		.4byte	.LASF61
 1998 0311 0E       		.byte	0xe
 1999 0312 5C       		.byte	0x5c
 2000 0313 17030000 		.4byte	0x317
 2001 0317 09       		.uleb128 0x9
 2002 0318 04       		.byte	0x4
 2003 0319 1D030000 		.4byte	0x31d
 2004 031d 0B       		.uleb128 0xb
 2005 031e 28030000 		.4byte	0x328
 2006 0322 0C       		.uleb128 0xc
 2007 0323 28030000 		.4byte	0x328
 2008 0327 00       		.byte	0
 2009 0328 0D       		.uleb128 0xd
 2010 0329 04       		.byte	0x4
 2011 032a 03       		.uleb128 0x3
 2012 032b 77040000 		.4byte	.LASF62
 2013 032f 0E       		.byte	0xe
 2014 0330 61       		.byte	0x61
 2015 0331 35030000 		.4byte	0x335
 2016 0335 0A       		.uleb128 0xa
 2017 0336 FF050000 		.4byte	.LASF63
 2018 033a 14       		.byte	0x14
 2019 033b 03       		.byte	0x3
 2020 033c 6B01     		.2byte	0x16b
 2021 033e 84030000 		.4byte	0x384
 2022 0342 08       		.uleb128 0x8
 2023 0343 E8020000 		.4byte	.LASF64
 2024 0347 03       		.byte	0x3
 2025 0348 6C01     		.2byte	0x16c
ARM GAS  /tmp/ccTMyCpM.s 			page 37


 2026 034a 13060000 		.4byte	0x613
 2027 034e 00       		.byte	0
 2028 034f 08       		.uleb128 0x8
 2029 0350 C7010000 		.4byte	.LASF65
 2030 0354 03       		.byte	0x3
 2031 0355 6D01     		.2byte	0x16d
 2032 0357 13060000 		.4byte	0x613
 2033 035b 04       		.byte	0x4
 2034 035c 08       		.uleb128 0x8
 2035 035d 85070000 		.4byte	.LASF66
 2036 0361 03       		.byte	0x3
 2037 0362 6E01     		.2byte	0x16e
 2038 0364 31010000 		.4byte	0x131
 2039 0368 08       		.byte	0x8
 2040 0369 08       		.uleb128 0x8
 2041 036a C6030000 		.4byte	.LASF67
 2042 036e 03       		.byte	0x3
 2043 036f 6F01     		.2byte	0x16f
 2044 0371 0C030000 		.4byte	0x30c
 2045 0375 0C       		.byte	0xc
 2046 0376 08       		.uleb128 0x8
 2047 0377 FD060000 		.4byte	.LASF68
 2048 037b 03       		.byte	0x3
 2049 037c 7101     		.2byte	0x171
 2050 037e 28030000 		.4byte	0x328
 2051 0382 10       		.byte	0x10
 2052 0383 00       		.byte	0
 2053 0384 03       		.uleb128 0x3
 2054 0385 9E000000 		.4byte	.LASF69
 2055 0389 0E       		.byte	0xe
 2056 038a 66       		.byte	0x66
 2057 038b 8F030000 		.4byte	0x38f
 2058 038f 0A       		.uleb128 0xa
 2059 0390 AF030000 		.4byte	.LASF70
 2060 0394 10       		.byte	0x10
 2061 0395 03       		.byte	0x3
 2062 0396 7B01     		.2byte	0x17b
 2063 0398 D1030000 		.4byte	0x3d1
 2064 039c 08       		.uleb128 0x8
 2065 039d E8020000 		.4byte	.LASF64
 2066 03a1 03       		.byte	0x3
 2067 03a2 7C01     		.2byte	0x17c
 2068 03a4 13060000 		.4byte	0x613
 2069 03a8 00       		.byte	0
 2070 03a9 08       		.uleb128 0x8
 2071 03aa C7010000 		.4byte	.LASF65
 2072 03ae 03       		.byte	0x3
 2073 03af 7E01     		.2byte	0x17e
 2074 03b1 13060000 		.4byte	0x613
 2075 03b5 04       		.byte	0x4
 2076 03b6 08       		.uleb128 0x8
 2077 03b7 85070000 		.4byte	.LASF66
 2078 03bb 03       		.byte	0x3
 2079 03bc 8001     		.2byte	0x180
 2080 03be 31010000 		.4byte	0x131
 2081 03c2 08       		.byte	0x8
 2082 03c3 08       		.uleb128 0x8
ARM GAS  /tmp/ccTMyCpM.s 			page 38


 2083 03c4 49060000 		.4byte	.LASF71
 2084 03c8 03       		.byte	0x3
 2085 03c9 8201     		.2byte	0x182
 2086 03cb 19060000 		.4byte	0x619
 2087 03cf 0C       		.byte	0xc
 2088 03d0 00       		.byte	0
 2089 03d1 03       		.uleb128 0x3
 2090 03d2 B1040000 		.4byte	.LASF72
 2091 03d6 0E       		.byte	0xe
 2092 03d7 6B       		.byte	0x6b
 2093 03d8 DC030000 		.4byte	0x3dc
 2094 03dc 0A       		.uleb128 0xa
 2095 03dd C0040000 		.4byte	.LASF73
 2096 03e1 04       		.byte	0x4
 2097 03e2 03       		.byte	0x3
 2098 03e3 A201     		.2byte	0x1a2
 2099 03e5 F7030000 		.4byte	0x3f7
 2100 03e9 08       		.uleb128 0x8
 2101 03ea D3060000 		.4byte	.LASF74
 2102 03ee 03       		.byte	0x3
 2103 03ef AA01     		.2byte	0x1aa
 2104 03f1 1E060000 		.4byte	0x61e
 2105 03f5 00       		.byte	0
 2106 03f6 00       		.byte	0
 2107 03f7 03       		.uleb128 0x3
 2108 03f8 3C030000 		.4byte	.LASF75
 2109 03fc 0E       		.byte	0xe
 2110 03fd 70       		.byte	0x70
 2111 03fe 02040000 		.4byte	0x402
 2112 0402 0E       		.uleb128 0xe
 2113 0403 3A010000 		.4byte	.LASF76
 2114 0407 5001     		.2byte	0x150
 2115 0409 03       		.byte	0x3
 2116 040a C201     		.2byte	0x1c2
 2117 040c 5E040000 		.4byte	0x45e
 2118 0410 08       		.uleb128 0x8
 2119 0411 1B070000 		.4byte	.LASF77
 2120 0415 03       		.byte	0x3
 2121 0416 C601     		.2byte	0x1c6
 2122 0418 A5020000 		.4byte	0x2a5
 2123 041c 00       		.byte	0
 2124 041d 08       		.uleb128 0x8
 2125 041e 53000000 		.4byte	.LASF78
 2126 0422 03       		.byte	0x3
 2127 0423 CA01     		.2byte	0x1ca
 2128 0425 84030000 		.4byte	0x384
 2129 0429 1C       		.byte	0x1c
 2130 042a 07       		.uleb128 0x7
 2131 042b 64626700 		.ascii	"dbg\000"
 2132 042f 03       		.byte	0x3
 2133 0430 CE01     		.2byte	0x1ce
 2134 0432 D1030000 		.4byte	0x3d1
 2135 0436 2C       		.byte	0x2c
 2136 0437 08       		.uleb128 0x8
 2137 0438 93000000 		.4byte	.LASF79
 2138 043c 03       		.byte	0x3
 2139 043d D201     		.2byte	0x1d2
ARM GAS  /tmp/ccTMyCpM.s 			page 39


 2140 043f 3C010000 		.4byte	0x13c
 2141 0443 30       		.byte	0x30
 2142 0444 07       		.uleb128 0x7
 2143 0445 746D00   		.ascii	"tm\000"
 2144 0448 03       		.byte	0x3
 2145 0449 D701     		.2byte	0x1d7
 2146 044b 43050000 		.4byte	0x543
 2147 044f 74       		.byte	0x74
 2148 0450 08       		.uleb128 0x8
 2149 0451 5A000000 		.4byte	.LASF80
 2150 0455 03       		.byte	0x3
 2151 0456 E301     		.2byte	0x1e3
 2152 0458 23060000 		.4byte	0x623
 2153 045c 78       		.byte	0x78
 2154 045d 00       		.byte	0
 2155 045e 04       		.uleb128 0x4
 2156 045f 04       		.byte	0x4
 2157 0460 07       		.byte	0x7
 2158 0461 37070000 		.4byte	.LASF81
 2159 0465 09       		.uleb128 0x9
 2160 0466 04       		.byte	0x4
 2161 0467 6B040000 		.4byte	0x46b
 2162 046b 0F       		.uleb128 0xf
 2163 046c 04       		.uleb128 0x4
 2164 046d 01       		.byte	0x1
 2165 046e 08       		.byte	0x8
 2166 046f 76060000 		.4byte	.LASF82
 2167 0473 09       		.uleb128 0x9
 2168 0474 04       		.byte	0x4
 2169 0475 79040000 		.4byte	0x479
 2170 0479 10       		.uleb128 0x10
 2171 047a 6C040000 		.4byte	0x46c
 2172 047e 03       		.uleb128 0x3
 2173 047f BE010000 		.4byte	.LASF83
 2174 0483 0F       		.byte	0xf
 2175 0484 65       		.byte	0x65
 2176 0485 28030000 		.4byte	0x328
 2177 0489 03       		.uleb128 0x3
 2178 048a 7C030000 		.4byte	.LASF84
 2179 048e 0F       		.byte	0xf
 2180 048f 6D       		.byte	0x6d
 2181 0490 C3000000 		.4byte	0xc3
 2182 0494 05       		.uleb128 0x5
 2183 0495 E4060000 		.4byte	.LASF85
 2184 0499 04       		.byte	0x4
 2185 049a 0F       		.byte	0xf
 2186 049b 89       		.byte	0x89
 2187 049c AD040000 		.4byte	0x4ad
 2188 04a0 11       		.uleb128 0x11
 2189 04a1 72313300 		.ascii	"r13\000"
 2190 04a5 0F       		.byte	0xf
 2191 04a6 8A       		.byte	0x8a
 2192 04a7 28050000 		.4byte	0x528
 2193 04ab 00       		.byte	0
 2194 04ac 00       		.byte	0
 2195 04ad 05       		.uleb128 0x5
 2196 04ae 47000000 		.4byte	.LASF86
ARM GAS  /tmp/ccTMyCpM.s 			page 40


 2197 04b2 24       		.byte	0x24
 2198 04b3 01       		.byte	0x1
 2199 04b4 FD       		.byte	0xfd
 2200 04b5 28050000 		.4byte	0x528
 2201 04b9 07       		.uleb128 0x7
 2202 04ba 723400   		.ascii	"r4\000"
 2203 04bd 01       		.byte	0x1
 2204 04be 1001     		.2byte	0x110
 2205 04c0 7E040000 		.4byte	0x47e
 2206 04c4 00       		.byte	0
 2207 04c5 07       		.uleb128 0x7
 2208 04c6 723500   		.ascii	"r5\000"
 2209 04c9 01       		.byte	0x1
 2210 04ca 1101     		.2byte	0x111
 2211 04cc 7E040000 		.4byte	0x47e
 2212 04d0 04       		.byte	0x4
 2213 04d1 07       		.uleb128 0x7
 2214 04d2 723600   		.ascii	"r6\000"
 2215 04d5 01       		.byte	0x1
 2216 04d6 1201     		.2byte	0x112
 2217 04d8 7E040000 		.4byte	0x47e
 2218 04dc 08       		.byte	0x8
 2219 04dd 07       		.uleb128 0x7
 2220 04de 723700   		.ascii	"r7\000"
 2221 04e1 01       		.byte	0x1
 2222 04e2 1301     		.2byte	0x113
 2223 04e4 7E040000 		.4byte	0x47e
 2224 04e8 0C       		.byte	0xc
 2225 04e9 07       		.uleb128 0x7
 2226 04ea 723800   		.ascii	"r8\000"
 2227 04ed 01       		.byte	0x1
 2228 04ee 1401     		.2byte	0x114
 2229 04f0 7E040000 		.4byte	0x47e
 2230 04f4 10       		.byte	0x10
 2231 04f5 07       		.uleb128 0x7
 2232 04f6 723900   		.ascii	"r9\000"
 2233 04f9 01       		.byte	0x1
 2234 04fa 1501     		.2byte	0x115
 2235 04fc 7E040000 		.4byte	0x47e
 2236 0500 14       		.byte	0x14
 2237 0501 07       		.uleb128 0x7
 2238 0502 72313000 		.ascii	"r10\000"
 2239 0506 01       		.byte	0x1
 2240 0507 1601     		.2byte	0x116
 2241 0509 7E040000 		.4byte	0x47e
 2242 050d 18       		.byte	0x18
 2243 050e 07       		.uleb128 0x7
 2244 050f 72313100 		.ascii	"r11\000"
 2245 0513 01       		.byte	0x1
 2246 0514 1701     		.2byte	0x117
 2247 0516 7E040000 		.4byte	0x47e
 2248 051a 1C       		.byte	0x1c
 2249 051b 07       		.uleb128 0x7
 2250 051c 6C7200   		.ascii	"lr\000"
 2251 051f 01       		.byte	0x1
 2252 0520 1801     		.2byte	0x118
 2253 0522 7E040000 		.4byte	0x47e
ARM GAS  /tmp/ccTMyCpM.s 			page 41


 2254 0526 20       		.byte	0x20
 2255 0527 00       		.byte	0
 2256 0528 09       		.uleb128 0x9
 2257 0529 04       		.byte	0x4
 2258 052a AD040000 		.4byte	0x4ad
 2259 052e 12       		.uleb128 0x12
 2260 052f 04       		.byte	0x4
 2261 0530 10       		.byte	0x10
 2262 0531 38       		.byte	0x38
 2263 0532 43050000 		.4byte	0x543
 2264 0536 06       		.uleb128 0x6
 2265 0537 DD060000 		.4byte	.LASF87
 2266 053b 10       		.byte	0x10
 2267 053c 3C       		.byte	0x3c
 2268 053d CE000000 		.4byte	0xce
 2269 0541 00       		.byte	0
 2270 0542 00       		.byte	0
 2271 0543 03       		.uleb128 0x3
 2272 0544 D9030000 		.4byte	.LASF88
 2273 0548 10       		.byte	0x10
 2274 0549 3D       		.byte	0x3d
 2275 054a 2E050000 		.4byte	0x52e
 2276 054e 13       		.uleb128 0x13
 2277 054f 04       		.byte	0x4
 2278 0550 03       		.byte	0x3
 2279 0551 FA       		.byte	0xfa
 2280 0552 AB050000 		.4byte	0x5ab
 2281 0556 14       		.uleb128 0x14
 2282 0557 14000000 		.4byte	.LASF89
 2283 055b 03       		.byte	0x3
 2284 055c 0101     		.2byte	0x101
 2285 055e 10010000 		.4byte	0x110
 2286 0562 14       		.uleb128 0x14
 2287 0563 8A000000 		.4byte	.LASF90
 2288 0567 03       		.byte	0x3
 2289 0568 0801     		.2byte	0x108
 2290 056a 10010000 		.4byte	0x110
 2291 056e 14       		.uleb128 0x14
 2292 056f 20010000 		.4byte	.LASF91
 2293 0573 03       		.byte	0x3
 2294 0574 0F01     		.2byte	0x10f
 2295 0576 28030000 		.4byte	0x328
 2296 057a 14       		.uleb128 0x14
 2297 057b 34010000 		.4byte	.LASF92
 2298 057f 03       		.byte	0x3
 2299 0580 1601     		.2byte	0x116
 2300 0582 AB050000 		.4byte	0x5ab
 2301 0586 14       		.uleb128 0x14
 2302 0587 BD020000 		.4byte	.LASF93
 2303 058b 03       		.byte	0x3
 2304 058c 1E01     		.2byte	0x11e
 2305 058e D6050000 		.4byte	0x5d6
 2306 0592 14       		.uleb128 0x14
 2307 0593 3A060000 		.4byte	.LASF94
 2308 0597 03       		.byte	0x3
 2309 0598 2701     		.2byte	0x127
 2310 059a 0D060000 		.4byte	0x60d
ARM GAS  /tmp/ccTMyCpM.s 			page 42


 2311 059e 14       		.uleb128 0x14
 2312 059f CA050000 		.4byte	.LASF95
 2313 05a3 03       		.byte	0x3
 2314 05a4 2F01     		.2byte	0x12f
 2315 05a6 1B010000 		.4byte	0x11b
 2316 05aa 00       		.byte	0
 2317 05ab 09       		.uleb128 0x9
 2318 05ac 04       		.byte	0x4
 2319 05ad 40020000 		.4byte	0x240
 2320 05b1 05       		.uleb128 0x5
 2321 05b2 19060000 		.4byte	.LASF96
 2322 05b6 0C       		.byte	0xc
 2323 05b7 07       		.byte	0x7
 2324 05b8 34       		.byte	0x34
 2325 05b9 D6050000 		.4byte	0x5d6
 2326 05bd 06       		.uleb128 0x6
 2327 05be AE010000 		.4byte	.LASF97
 2328 05c2 07       		.byte	0x7
 2329 05c3 35       		.byte	0x35
 2330 05c4 75020000 		.4byte	0x275
 2331 05c8 00       		.byte	0
 2332 05c9 06       		.uleb128 0x6
 2333 05ca 0E030000 		.4byte	.LASF98
 2334 05ce 07       		.byte	0x7
 2335 05cf 37       		.byte	0x37
 2336 05d0 26010000 		.4byte	0x126
 2337 05d4 08       		.byte	0x8
 2338 05d5 00       		.byte	0
 2339 05d6 09       		.uleb128 0x9
 2340 05d7 04       		.byte	0x4
 2341 05d8 B1050000 		.4byte	0x5b1
 2342 05dc 05       		.uleb128 0x5
 2343 05dd 4E070000 		.4byte	.LASF99
 2344 05e1 10       		.byte	0x10
 2345 05e2 11       		.byte	0x11
 2346 05e3 39       		.byte	0x39
 2347 05e4 0D060000 		.4byte	0x60d
 2348 05e8 06       		.uleb128 0x6
 2349 05e9 F5000000 		.4byte	.LASF100
 2350 05ed 11       		.byte	0x11
 2351 05ee 3A       		.byte	0x3a
 2352 05ef 75020000 		.4byte	0x275
 2353 05f3 00       		.byte	0
 2354 05f4 06       		.uleb128 0x6
 2355 05f5 AC070000 		.4byte	.LASF101
 2356 05f9 11       		.byte	0x11
 2357 05fa 3C       		.byte	0x3c
 2358 05fb 4B020000 		.4byte	0x24b
 2359 05ff 08       		.byte	0x8
 2360 0600 06       		.uleb128 0x6
 2361 0601 8F060000 		.4byte	.LASF102
 2362 0605 11       		.byte	0x11
 2363 0606 3E       		.byte	0x3e
 2364 0607 69060000 		.4byte	0x669
 2365 060b 0C       		.byte	0xc
 2366 060c 00       		.byte	0
 2367 060d 09       		.uleb128 0x9
ARM GAS  /tmp/ccTMyCpM.s 			page 43


 2368 060e 04       		.byte	0x4
 2369 060f DC050000 		.4byte	0x5dc
 2370 0613 09       		.uleb128 0x9
 2371 0614 04       		.byte	0x4
 2372 0615 2A030000 		.4byte	0x32a
 2373 0619 15       		.uleb128 0x15
 2374 061a 31010000 		.4byte	0x131
 2375 061e 15       		.uleb128 0x15
 2376 061f 73040000 		.4byte	0x473
 2377 0623 16       		.uleb128 0x16
 2378 0624 89040000 		.4byte	0x489
 2379 0628 33060000 		.4byte	0x633
 2380 062c 17       		.uleb128 0x17
 2381 062d 5E040000 		.4byte	0x45e
 2382 0631 1A       		.byte	0x1a
 2383 0632 00       		.byte	0
 2384 0633 03       		.uleb128 0x3
 2385 0634 F3050000 		.4byte	.LASF103
 2386 0638 07       		.byte	0x7
 2387 0639 38       		.byte	0x38
 2388 063a B1050000 		.4byte	0x5b1
 2389 063e 12       		.uleb128 0x12
 2390 063f 0C       		.byte	0xc
 2391 0640 08       		.byte	0x8
 2392 0641 4B       		.byte	0x4b
 2393 0642 53060000 		.4byte	0x653
 2394 0646 06       		.uleb128 0x6
 2395 0647 7E070000 		.4byte	.LASF104
 2396 064b 08       		.byte	0x8
 2397 064c 4C       		.byte	0x4c
 2398 064d 33060000 		.4byte	0x633
 2399 0651 00       		.byte	0
 2400 0652 00       		.byte	0
 2401 0653 03       		.uleb128 0x3
 2402 0654 96040000 		.4byte	.LASF105
 2403 0658 08       		.byte	0x8
 2404 0659 4D       		.byte	0x4d
 2405 065a 3E060000 		.4byte	0x63e
 2406 065e 03       		.uleb128 0x3
 2407 065f 71020000 		.4byte	.LASF106
 2408 0663 11       		.byte	0x11
 2409 0664 34       		.byte	0x34
 2410 0665 DC050000 		.4byte	0x5dc
 2411 0669 09       		.uleb128 0x9
 2412 066a 04       		.byte	0x4
 2413 066b 5E060000 		.4byte	0x65e
 2414 066f 05       		.uleb128 0x5
 2415 0670 10060000 		.4byte	.LASF107
 2416 0674 10       		.byte	0x10
 2417 0675 12       		.byte	0x12
 2418 0676 3B       		.byte	0x3b
 2419 0677 AC060000 		.4byte	0x6ac
 2420 067b 06       		.uleb128 0x6
 2421 067c 09030000 		.4byte	.LASF108
 2422 0680 12       		.byte	0x12
 2423 0681 3C       		.byte	0x3c
 2424 0682 73040000 		.4byte	0x473
ARM GAS  /tmp/ccTMyCpM.s 			page 44


 2425 0686 00       		.byte	0
 2426 0687 06       		.uleb128 0x6
 2427 0688 2F040000 		.4byte	.LASF109
 2428 068c 12       		.byte	0x12
 2429 068d 3D       		.byte	0x3d
 2430 068e 65040000 		.4byte	0x465
 2431 0692 04       		.byte	0x4
 2432 0693 06       		.uleb128 0x6
 2433 0694 00030000 		.4byte	.LASF110
 2434 0698 12       		.byte	0x12
 2435 0699 3E       		.byte	0x3e
 2436 069a 65040000 		.4byte	0x465
 2437 069e 08       		.byte	0x8
 2438 069f 06       		.uleb128 0x6
 2439 06a0 8E040000 		.4byte	.LASF111
 2440 06a4 12       		.byte	0x12
 2441 06a5 3F       		.byte	0x3f
 2442 06a6 65040000 		.4byte	0x465
 2443 06aa 0C       		.byte	0xc
 2444 06ab 00       		.byte	0
 2445 06ac 18       		.uleb128 0x18
 2446 06ad C5060000 		.4byte	.LASF155
 2447 06b1 02       		.byte	0x2
 2448 06b2 2202     		.2byte	0x222
 2449 06b4 03       		.byte	0x3
 2450 06b5 C6060000 		.4byte	0x6c6
 2451 06b9 19       		.uleb128 0x19
 2452 06ba 79020000 		.4byte	.LASF156
 2453 06be 02       		.byte	0x2
 2454 06bf 2202     		.2byte	0x222
 2455 06c1 B8000000 		.4byte	0xb8
 2456 06c5 00       		.byte	0
 2457 06c6 1A       		.uleb128 0x1a
 2458 06c7 69000000 		.4byte	.LASF112
 2459 06cb 01       		.byte	0x1
 2460 06cc C801     		.2byte	0x1c8
 2461 06ce 00000000 		.4byte	.LFB129
 2462 06d2 10000000 		.4byte	.LFE129-.LFB129
 2463 06d6 01       		.uleb128 0x1
 2464 06d7 9C       		.byte	0x9c
 2465 06d8 F6060000 		.4byte	0x6f6
 2466 06dc 1B       		.uleb128 0x1b
 2467 06dd AC060000 		.4byte	0x6ac
 2468 06e1 06000000 		.4byte	.LBB6
 2469 06e5 06000000 		.4byte	.LBE6-.LBB6
 2470 06e9 01       		.byte	0x1
 2471 06ea D001     		.2byte	0x1d0
 2472 06ec 1C       		.uleb128 0x1c
 2473 06ed B9060000 		.4byte	0x6b9
 2474 06f1 02       		.uleb128 0x2
 2475 06f2 91       		.byte	0x91
 2476 06f3 7C       		.sleb128 -4
 2477 06f4 00       		.byte	0
 2478 06f5 00       		.byte	0
 2479 06f6 1A       		.uleb128 0x1a
 2480 06f7 FD000000 		.4byte	.LASF113
 2481 06fb 01       		.byte	0x1
ARM GAS  /tmp/ccTMyCpM.s 			page 45


 2482 06fc E001     		.2byte	0x1e0
 2483 06fe 10000000 		.4byte	.LFB130
 2484 0702 10000000 		.4byte	.LFE130-.LFB130
 2485 0706 01       		.uleb128 0x1
 2486 0707 9C       		.byte	0x9c
 2487 0708 26070000 		.4byte	0x726
 2488 070c 1B       		.uleb128 0x1b
 2489 070d AC060000 		.4byte	0x6ac
 2490 0711 16000000 		.4byte	.LBB8
 2491 0715 06000000 		.4byte	.LBE8-.LBB8
 2492 0719 01       		.byte	0x1
 2493 071a E301     		.2byte	0x1e3
 2494 071c 1C       		.uleb128 0x1c
 2495 071d B9060000 		.4byte	0x6b9
 2496 0721 02       		.uleb128 0x2
 2497 0722 91       		.byte	0x91
 2498 0723 7C       		.sleb128 -4
 2499 0724 00       		.byte	0
 2500 0725 00       		.byte	0
 2501 0726 1D       		.uleb128 0x1d
 2502 0727 A0010000 		.4byte	.LASF116
 2503 072b 03       		.byte	0x3
 2504 072c 6802     		.2byte	0x268
 2505 072e 50070000 		.4byte	0x750
 2506 0732 20000000 		.4byte	.LFB142
 2507 0736 1A000000 		.4byte	.LFE142-.LFB142
 2508 073a 01       		.uleb128 0x1
 2509 073b 9C       		.byte	0x9c
 2510 073c 50070000 		.4byte	0x750
 2511 0740 1E       		.uleb128 0x1e
 2512 0741 74717000 		.ascii	"tqp\000"
 2513 0745 03       		.byte	0x3
 2514 0746 6802     		.2byte	0x268
 2515 0748 57070000 		.4byte	0x757
 2516 074c 02       		.uleb128 0x2
 2517 074d 91       		.byte	0x91
 2518 074e 7C       		.sleb128 -4
 2519 074f 00       		.byte	0
 2520 0750 04       		.uleb128 0x4
 2521 0751 01       		.byte	0x1
 2522 0752 02       		.byte	0x2
 2523 0753 D0040000 		.4byte	.LASF114
 2524 0757 09       		.uleb128 0x9
 2525 0758 04       		.byte	0x4
 2526 0759 5D070000 		.4byte	0x75d
 2527 075d 10       		.uleb128 0x10
 2528 075e 75020000 		.4byte	0x275
 2529 0762 1F       		.uleb128 0x1f
 2530 0763 E9050000 		.4byte	.LASF129
 2531 0767 04       		.byte	0x4
 2532 0768 5A01     		.2byte	0x15a
 2533 076a 40000000 		.4byte	.LFB158
 2534 076e 08000000 		.4byte	.LFE158-.LFB158
 2535 0772 01       		.uleb128 0x1
 2536 0773 9C       		.byte	0x9c
 2537 0774 20       		.uleb128 0x20
 2538 0775 8E070000 		.4byte	.LASF115
ARM GAS  /tmp/ccTMyCpM.s 			page 46


 2539 0779 04       		.byte	0x4
 2540 077a 6601     		.2byte	0x166
 2541 077c 50000000 		.4byte	.LFB159
 2542 0780 08000000 		.4byte	.LFE159-.LFB159
 2543 0784 01       		.uleb128 0x1
 2544 0785 9C       		.byte	0x9c
 2545 0786 94070000 		.4byte	0x794
 2546 078a 21       		.uleb128 0x21
 2547 078b E0050000 		.4byte	.LASF157
 2548 078f A4070000 		.4byte	0x7a4
 2549 0793 00       		.byte	0
 2550 0794 16       		.uleb128 0x16
 2551 0795 6C040000 		.4byte	0x46c
 2552 0799 A4070000 		.4byte	0x7a4
 2553 079d 17       		.uleb128 0x17
 2554 079e 5E040000 		.4byte	0x45e
 2555 07a2 0B       		.byte	0xb
 2556 07a3 00       		.byte	0
 2557 07a4 10       		.uleb128 0x10
 2558 07a5 94070000 		.4byte	0x794
 2559 07a9 22       		.uleb128 0x22
 2560 07aa 90020000 		.4byte	.LASF118
 2561 07ae 05       		.byte	0x5
 2562 07af E4       		.byte	0xe4
 2563 07b0 31010000 		.4byte	0x131
 2564 07b4 60000000 		.4byte	.LFB166
 2565 07b8 0C000000 		.4byte	.LFE166-.LFB166
 2566 07bc 01       		.uleb128 0x1
 2567 07bd 9C       		.byte	0x9c
 2568 07be 23       		.uleb128 0x23
 2569 07bf 35040000 		.4byte	.LASF117
 2570 07c3 05       		.byte	0x5
 2571 07c4 F7       		.byte	0xf7
 2572 07c5 31010000 		.4byte	0x131
 2573 07c9 70000000 		.4byte	.LFB167
 2574 07cd 1C000000 		.4byte	.LFE167-.LFB167
 2575 07d1 01       		.uleb128 0x1
 2576 07d2 9C       		.byte	0x9c
 2577 07d3 E6070000 		.4byte	0x7e6
 2578 07d7 24       		.uleb128 0x24
 2579 07d8 50030000 		.4byte	.LASF136
 2580 07dc 05       		.byte	0x5
 2581 07dd F8       		.byte	0xf8
 2582 07de 31010000 		.4byte	0x131
 2583 07e2 02       		.uleb128 0x2
 2584 07e3 91       		.byte	0x91
 2585 07e4 74       		.sleb128 -12
 2586 07e5 00       		.byte	0
 2587 07e6 22       		.uleb128 0x22
 2588 07e7 21070000 		.4byte	.LASF119
 2589 07eb 06       		.byte	0x6
 2590 07ec AE       		.byte	0xae
 2591 07ed 4B020000 		.4byte	0x24b
 2592 07f1 90000000 		.4byte	.LFB180
 2593 07f5 0C000000 		.4byte	.LFE180-.LFB180
 2594 07f9 01       		.uleb128 0x1
 2595 07fa 9C       		.byte	0x9c
ARM GAS  /tmp/ccTMyCpM.s 			page 47


 2596 07fb 25       		.uleb128 0x25
 2597 07fc 1D040000 		.4byte	.LASF120
 2598 0800 06       		.byte	0x6
 2599 0801 BB       		.byte	0xbb
 2600 0802 05010000 		.4byte	0x105
 2601 0806 A0000000 		.4byte	.LFB181
 2602 080a 0E000000 		.4byte	.LFE181-.LFB181
 2603 080e 01       		.uleb128 0x1
 2604 080f 9C       		.byte	0x9c
 2605 0810 26       		.uleb128 0x26
 2606 0811 B4060000 		.4byte	.LASF121
 2607 0815 07       		.byte	0x7
 2608 0816 95       		.byte	0x95
 2609 0817 26010000 		.4byte	0x126
 2610 081b B0000000 		.4byte	.LFB194
 2611 081f 0E000000 		.4byte	.LFE194-.LFB194
 2612 0823 01       		.uleb128 0x1
 2613 0824 9C       		.byte	0x9c
 2614 0825 37080000 		.4byte	0x837
 2615 0829 27       		.uleb128 0x27
 2616 082a 737000   		.ascii	"sp\000"
 2617 082d 07       		.byte	0x7
 2618 082e 95       		.byte	0x95
 2619 082f 37080000 		.4byte	0x837
 2620 0833 02       		.uleb128 0x2
 2621 0834 91       		.byte	0x91
 2622 0835 7C       		.sleb128 -4
 2623 0836 00       		.byte	0
 2624 0837 09       		.uleb128 0x9
 2625 0838 04       		.byte	0x4
 2626 0839 33060000 		.4byte	0x633
 2627 083d 28       		.uleb128 0x28
 2628 083e 5E070000 		.4byte	.LASF122
 2629 0842 08       		.byte	0x8
 2630 0843 7C       		.byte	0x7c
 2631 0844 C0000000 		.4byte	.LFB195
 2632 0848 2A000000 		.4byte	.LFE195-.LFB195
 2633 084c 01       		.uleb128 0x1
 2634 084d 9C       		.byte	0x9c
 2635 084e 6F080000 		.4byte	0x86f
 2636 0852 27       		.uleb128 0x27
 2637 0853 62737000 		.ascii	"bsp\000"
 2638 0857 08       		.byte	0x8
 2639 0858 7C       		.byte	0x7c
 2640 0859 6F080000 		.4byte	0x86f
 2641 085d 02       		.uleb128 0x2
 2642 085e 91       		.byte	0x91
 2643 085f 74       		.sleb128 -12
 2644 0860 29       		.uleb128 0x29
 2645 0861 E7000000 		.4byte	.LASF123
 2646 0865 08       		.byte	0x8
 2647 0866 7C       		.byte	0x7c
 2648 0867 50070000 		.4byte	0x750
 2649 086b 02       		.uleb128 0x2
 2650 086c 91       		.byte	0x91
 2651 086d 73       		.sleb128 -13
 2652 086e 00       		.byte	0
ARM GAS  /tmp/ccTMyCpM.s 			page 48


 2653 086f 09       		.uleb128 0x9
 2654 0870 04       		.byte	0x4
 2655 0871 53060000 		.4byte	0x653
 2656 0875 23       		.uleb128 0x23
 2657 0876 7B060000 		.4byte	.LASF124
 2658 087a 08       		.byte	0x8
 2659 087b 8D       		.byte	0x8d
 2660 087c 10010000 		.4byte	0x110
 2661 0880 F0000000 		.4byte	.LFB196
 2662 0884 18000000 		.4byte	.LFE196-.LFB196
 2663 0888 01       		.uleb128 0x1
 2664 0889 9C       		.byte	0x9c
 2665 088a 9D080000 		.4byte	0x89d
 2666 088e 27       		.uleb128 0x27
 2667 088f 62737000 		.ascii	"bsp\000"
 2668 0893 08       		.byte	0x8
 2669 0894 8D       		.byte	0x8d
 2670 0895 6F080000 		.4byte	0x86f
 2671 0899 02       		.uleb128 0x2
 2672 089a 91       		.byte	0x91
 2673 089b 74       		.sleb128 -12
 2674 089c 00       		.byte	0
 2675 089d 28       		.uleb128 0x28
 2676 089e A0070000 		.4byte	.LASF125
 2677 08a2 08       		.byte	0x8
 2678 08a3 FD       		.byte	0xfd
 2679 08a4 10010000 		.4byte	.LFB201
 2680 08a8 2A000000 		.4byte	.LFE201-.LFB201
 2681 08ac 01       		.uleb128 0x1
 2682 08ad 9C       		.byte	0x9c
 2683 08ae CF080000 		.4byte	0x8cf
 2684 08b2 27       		.uleb128 0x27
 2685 08b3 62737000 		.ascii	"bsp\000"
 2686 08b7 08       		.byte	0x8
 2687 08b8 FD       		.byte	0xfd
 2688 08b9 6F080000 		.4byte	0x86f
 2689 08bd 02       		.uleb128 0x2
 2690 08be 91       		.byte	0x91
 2691 08bf 74       		.sleb128 -12
 2692 08c0 29       		.uleb128 0x29
 2693 08c1 E7000000 		.4byte	.LASF123
 2694 08c5 08       		.byte	0x8
 2695 08c6 FD       		.byte	0xfd
 2696 08c7 50070000 		.4byte	0x750
 2697 08cb 02       		.uleb128 0x2
 2698 08cc 91       		.byte	0x91
 2699 08cd 73       		.sleb128 -13
 2700 08ce 00       		.byte	0
 2701 08cf 20       		.uleb128 0x20
 2702 08d0 40070000 		.4byte	.LASF126
 2703 08d4 08       		.byte	0x8
 2704 08d5 0A01     		.2byte	0x10a
 2705 08d7 40010000 		.4byte	.LFB202
 2706 08db 1C000000 		.4byte	.LFE202-.LFB202
 2707 08df 01       		.uleb128 0x1
 2708 08e0 9C       		.byte	0x9c
 2709 08e1 F5080000 		.4byte	0x8f5
ARM GAS  /tmp/ccTMyCpM.s 			page 49


 2710 08e5 1E       		.uleb128 0x1e
 2711 08e6 62737000 		.ascii	"bsp\000"
 2712 08ea 08       		.byte	0x8
 2713 08eb 0A01     		.2byte	0x10a
 2714 08ed 6F080000 		.4byte	0x86f
 2715 08f1 02       		.uleb128 0x2
 2716 08f2 91       		.byte	0x91
 2717 08f3 74       		.sleb128 -12
 2718 08f4 00       		.byte	0
 2719 08f5 20       		.uleb128 0x20
 2720 08f6 13010000 		.4byte	.LASF127
 2721 08fa 08       		.byte	0x8
 2722 08fb 1A01     		.2byte	0x11a
 2723 08fd 60010000 		.4byte	.LFB203
 2724 0901 1E000000 		.4byte	.LFE203-.LFB203
 2725 0905 01       		.uleb128 0x1
 2726 0906 9C       		.byte	0x9c
 2727 0907 1B090000 		.4byte	0x91b
 2728 090b 1E       		.uleb128 0x1e
 2729 090c 62737000 		.ascii	"bsp\000"
 2730 0910 08       		.byte	0x8
 2731 0911 1A01     		.2byte	0x11a
 2732 0913 6F080000 		.4byte	0x86f
 2733 0917 02       		.uleb128 0x2
 2734 0918 91       		.byte	0x91
 2735 0919 74       		.sleb128 -12
 2736 091a 00       		.byte	0
 2737 091b 1D       		.uleb128 0x1d
 2738 091c F0020000 		.4byte	.LASF128
 2739 0920 08       		.byte	0x8
 2740 0921 2C01     		.2byte	0x12c
 2741 0923 50070000 		.4byte	0x750
 2742 0927 80010000 		.4byte	.LFB204
 2743 092b 18000000 		.4byte	.LFE204-.LFB204
 2744 092f 01       		.uleb128 0x1
 2745 0930 9C       		.byte	0x9c
 2746 0931 45090000 		.4byte	0x945
 2747 0935 1E       		.uleb128 0x1e
 2748 0936 62737000 		.ascii	"bsp\000"
 2749 093a 08       		.byte	0x8
 2750 093b 2C01     		.2byte	0x12c
 2751 093d 6F080000 		.4byte	0x86f
 2752 0941 02       		.uleb128 0x2
 2753 0942 91       		.byte	0x91
 2754 0943 7C       		.sleb128 -4
 2755 0944 00       		.byte	0
 2756 0945 2A       		.uleb128 0x2a
 2757 0946 CE030000 		.4byte	.LASF130
 2758 094a 09       		.byte	0x9
 2759 094b 48       		.byte	0x48
 2760 094c A0010000 		.4byte	.LFB232
 2761 0950 10000000 		.4byte	.LFE232-.LFB232
 2762 0954 01       		.uleb128 0x1
 2763 0955 9C       		.byte	0x9c
 2764 0956 28       		.uleb128 0x28
 2765 0957 F2030000 		.4byte	.LASF131
 2766 095b 09       		.byte	0x9
ARM GAS  /tmp/ccTMyCpM.s 			page 50


 2767 095c 4D       		.byte	0x4d
 2768 095d B0010000 		.4byte	.LFB233
 2769 0961 20000000 		.4byte	.LFE233-.LFB233
 2770 0965 01       		.uleb128 0x1
 2771 0966 9C       		.byte	0x9c
 2772 0967 78090000 		.4byte	0x978
 2773 096b 27       		.uleb128 0x27
 2774 096c 7000     		.ascii	"p\000"
 2775 096e 09       		.byte	0x9
 2776 096f 4D       		.byte	0x4d
 2777 0970 28030000 		.4byte	0x328
 2778 0974 02       		.uleb128 0x2
 2779 0975 91       		.byte	0x91
 2780 0976 74       		.sleb128 -12
 2781 0977 00       		.byte	0
 2782 0978 2A       		.uleb128 0x2a
 2783 0979 1B000000 		.4byte	.LASF132
 2784 097d 09       		.byte	0x9
 2785 097e 53       		.byte	0x53
 2786 097f D0010000 		.4byte	.LFB234
 2787 0983 80010000 		.4byte	.LFE234-.LFB234
 2788 0987 01       		.uleb128 0x1
 2789 0988 9C       		.byte	0x9c
 2790 0989 2A       		.uleb128 0x2a
 2791 098a 61020000 		.4byte	.LASF133
 2792 098e 09       		.byte	0x9
 2793 098f 80       		.byte	0x80
 2794 0990 50030000 		.4byte	.LFB235
 2795 0994 10000000 		.4byte	.LFE235-.LFB235
 2796 0998 01       		.uleb128 0x1
 2797 0999 9C       		.byte	0x9c
 2798 099a 28       		.uleb128 0x28
 2799 099b FA030000 		.4byte	.LASF134
 2800 099f 09       		.byte	0x9
 2801 09a0 85       		.byte	0x85
 2802 09a1 60030000 		.4byte	.LFB236
 2803 09a5 28000000 		.4byte	.LFE236-.LFB236
 2804 09a9 01       		.uleb128 0x1
 2805 09aa 9C       		.byte	0x9c
 2806 09ab BC090000 		.4byte	0x9bc
 2807 09af 27       		.uleb128 0x27
 2808 09b0 7000     		.ascii	"p\000"
 2809 09b2 09       		.byte	0x9
 2810 09b3 85       		.byte	0x85
 2811 09b4 28030000 		.4byte	0x328
 2812 09b8 02       		.uleb128 0x2
 2813 09b9 91       		.byte	0x91
 2814 09ba 74       		.sleb128 -12
 2815 09bb 00       		.byte	0
 2816 09bc 28       		.uleb128 0x28
 2817 09bd 27010000 		.4byte	.LASF135
 2818 09c1 09       		.byte	0x9
 2819 09c2 8F       		.byte	0x8f
 2820 09c3 90030000 		.4byte	.LFB237
 2821 09c7 B4010000 		.4byte	.LFE237-.LFB237
 2822 09cb 01       		.uleb128 0x1
 2823 09cc 9C       		.byte	0x9c
ARM GAS  /tmp/ccTMyCpM.s 			page 51


 2824 09cd FA090000 		.4byte	0x9fa
 2825 09d1 2B       		.uleb128 0x2b
 2826 09d2 6900     		.ascii	"i\000"
 2827 09d4 09       		.byte	0x9
 2828 09d5 90       		.byte	0x90
 2829 09d6 25000000 		.4byte	0x25
 2830 09da 02       		.uleb128 0x2
 2831 09db 91       		.byte	0x91
 2832 09dc 74       		.sleb128 -12
 2833 09dd 24       		.uleb128 0x24
 2834 09de 4D010000 		.4byte	.LASF137
 2835 09e2 09       		.byte	0x9
 2836 09e3 91       		.byte	0x91
 2837 09e4 31010000 		.4byte	0x131
 2838 09e8 02       		.uleb128 0x2
 2839 09e9 91       		.byte	0x91
 2840 09ea 6C       		.sleb128 -20
 2841 09eb 2B       		.uleb128 0x2b
 2842 09ec 6D736700 		.ascii	"msg\000"
 2843 09f0 09       		.byte	0x9
 2844 09f1 92       		.byte	0x92
 2845 09f2 10010000 		.4byte	0x110
 2846 09f6 02       		.uleb128 0x2
 2847 09f7 91       		.byte	0x91
 2848 09f8 70       		.sleb128 -16
 2849 09f9 00       		.byte	0
 2850 09fa 2A       		.uleb128 0x2a
 2851 09fb 12040000 		.4byte	.LASF138
 2852 09ff 09       		.byte	0x9
 2853 0a00 CA       		.byte	0xca
 2854 0a01 50050000 		.4byte	.LFB238
 2855 0a05 10000000 		.4byte	.LFE238-.LFB238
 2856 0a09 01       		.uleb128 0x1
 2857 0a0a 9C       		.byte	0x9c
 2858 0a0b 28       		.uleb128 0x28
 2859 0a0c 02040000 		.4byte	.LASF139
 2860 0a10 09       		.byte	0x9
 2861 0a11 CF       		.byte	0xcf
 2862 0a12 60050000 		.4byte	.LFB239
 2863 0a16 1C000000 		.4byte	.LFE239-.LFB239
 2864 0a1a 01       		.uleb128 0x1
 2865 0a1b 9C       		.byte	0x9c
 2866 0a1c 2D0A0000 		.4byte	0xa2d
 2867 0a20 27       		.uleb128 0x27
 2868 0a21 7000     		.ascii	"p\000"
 2869 0a23 09       		.byte	0x9
 2870 0a24 CF       		.byte	0xcf
 2871 0a25 28030000 		.4byte	0x328
 2872 0a29 02       		.uleb128 0x2
 2873 0a2a 91       		.byte	0x91
 2874 0a2b 74       		.sleb128 -12
 2875 0a2c 00       		.byte	0
 2876 0a2d 2A       		.uleb128 0x2a
 2877 0a2e B0020000 		.4byte	.LASF140
 2878 0a32 09       		.byte	0x9
 2879 0a33 D6       		.byte	0xd6
 2880 0a34 80050000 		.4byte	.LFB240
ARM GAS  /tmp/ccTMyCpM.s 			page 52


 2881 0a38 B8000000 		.4byte	.LFE240-.LFB240
 2882 0a3c 01       		.uleb128 0x1
 2883 0a3d 9C       		.byte	0x9c
 2884 0a3e 28       		.uleb128 0x28
 2885 0a3f 0A040000 		.4byte	.LASF141
 2886 0a43 09       		.byte	0x9
 2887 0a44 F1       		.byte	0xf1
 2888 0a45 40060000 		.4byte	.LFB241
 2889 0a49 12000000 		.4byte	.LFE241-.LFB241
 2890 0a4d 01       		.uleb128 0x1
 2891 0a4e 9C       		.byte	0x9c
 2892 0a4f 600A0000 		.4byte	0xa60
 2893 0a53 27       		.uleb128 0x27
 2894 0a54 7000     		.ascii	"p\000"
 2895 0a56 09       		.byte	0x9
 2896 0a57 F1       		.byte	0xf1
 2897 0a58 28030000 		.4byte	0x328
 2898 0a5c 02       		.uleb128 0x2
 2899 0a5d 91       		.byte	0x91
 2900 0a5e 74       		.sleb128 -12
 2901 0a5f 00       		.byte	0
 2902 0a60 28       		.uleb128 0x28
 2903 0a61 87030000 		.4byte	.LASF142
 2904 0a65 09       		.byte	0x9
 2905 0a66 F6       		.byte	0xf6
 2906 0a67 60060000 		.4byte	.LFB242
 2907 0a6b 9C010000 		.4byte	.LFE242-.LFB242
 2908 0a6f 01       		.uleb128 0x1
 2909 0a70 9C       		.byte	0x9c
 2910 0a71 840A0000 		.4byte	0xa84
 2911 0a75 24       		.uleb128 0x24
 2912 0a76 31030000 		.4byte	.LASF143
 2913 0a7a 09       		.byte	0x9
 2914 0a7b F7       		.byte	0xf7
 2915 0a7c 53060000 		.4byte	0x653
 2916 0a80 02       		.uleb128 0x2
 2917 0a81 91       		.byte	0x91
 2918 0a82 6C       		.sleb128 -20
 2919 0a83 00       		.byte	0
 2920 0a84 24       		.uleb128 0x24
 2921 0a85 6C020000 		.4byte	.LASF144
 2922 0a89 09       		.byte	0x9
 2923 0a8a 3B       		.byte	0x3b
 2924 0a8b 33060000 		.4byte	0x633
 2925 0a8f 05       		.uleb128 0x5
 2926 0a90 03       		.byte	0x3
 2927 0a91 00000000 		.4byte	sem1
 2928 0a95 2C       		.uleb128 0x2c
 2929 0a96 B4000000 		.4byte	.LASF145
 2930 0a9a 13       		.byte	0x13
 2931 0a9b FA06     		.2byte	0x6fa
 2932 0a9d A10A0000 		.4byte	0xaa1
 2933 0aa1 15       		.uleb128 0x15
 2934 0aa2 AD000000 		.4byte	0xad
 2935 0aa6 2D       		.uleb128 0x2d
 2936 0aa7 636800   		.ascii	"ch\000"
 2937 0aaa 03       		.byte	0x3
ARM GAS  /tmp/ccTMyCpM.s 			page 53


 2938 0aab 0902     		.2byte	0x209
 2939 0aad F7030000 		.4byte	0x3f7
 2940 0ab1 16       		.uleb128 0x16
 2941 0ab2 4B020000 		.4byte	0x24b
 2942 0ab6 C10A0000 		.4byte	0xac1
 2943 0aba 17       		.uleb128 0x17
 2944 0abb 5E040000 		.4byte	0x45e
 2945 0abf 04       		.byte	0x4
 2946 0ac0 00       		.byte	0
 2947 0ac1 2E       		.uleb128 0x2e
 2948 0ac2 BB050000 		.4byte	.LASF146
 2949 0ac6 12       		.byte	0x12
 2950 0ac7 A7       		.byte	0xa7
 2951 0ac8 B10A0000 		.4byte	0xab1
 2952 0acc 16       		.uleb128 0x16
 2953 0acd 28030000 		.4byte	0x328
 2954 0ad1 D70A0000 		.4byte	0xad7
 2955 0ad5 2F       		.uleb128 0x2f
 2956 0ad6 00       		.byte	0
 2957 0ad7 30       		.uleb128 0x30
 2958 0ad8 776100   		.ascii	"wa\000"
 2959 0adb 12       		.byte	0x12
 2960 0adc A9       		.byte	0xa9
 2961 0add E10A0000 		.4byte	0xae1
 2962 0ae1 10       		.uleb128 0x10
 2963 0ae2 CC0A0000 		.4byte	0xacc
 2964 0ae6 31       		.uleb128 0x31
 2965 0ae7 C4020000 		.4byte	.LASF147
 2966 0aeb 09       		.byte	0x9
 2967 0aec 6E       		.byte	0x6e
 2968 0aed F70A0000 		.4byte	0xaf7
 2969 0af1 05       		.uleb128 0x5
 2970 0af2 03       		.byte	0x3
 2971 0af3 00000000 		.4byte	testsem1
 2972 0af7 10       		.uleb128 0x10
 2973 0af8 6F060000 		.4byte	0x66f
 2974 0afc 31       		.uleb128 0x31
 2975 0afd CD020000 		.4byte	.LASF148
 2976 0b01 09       		.byte	0x9
 2977 0b02 B7       		.byte	0xb7
 2978 0b03 F70A0000 		.4byte	0xaf7
 2979 0b07 05       		.uleb128 0x5
 2980 0b08 03       		.byte	0x3
 2981 0b09 00000000 		.4byte	testsem2
 2982 0b0d 31       		.uleb128 0x31
 2983 0b0e D6020000 		.4byte	.LASF149
 2984 0b12 09       		.byte	0x9
 2985 0b13 E2       		.byte	0xe2
 2986 0b14 F70A0000 		.4byte	0xaf7
 2987 0b18 05       		.uleb128 0x5
 2988 0b19 03       		.byte	0x3
 2989 0b1a 00000000 		.4byte	testsem3
 2990 0b1e 32       		.uleb128 0x32
 2991 0b1f DF020000 		.4byte	.LASF150
 2992 0b23 09       		.byte	0x9
 2993 0b24 1401     		.2byte	0x114
 2994 0b26 F70A0000 		.4byte	0xaf7
ARM GAS  /tmp/ccTMyCpM.s 			page 54


 2995 0b2a 05       		.uleb128 0x5
 2996 0b2b 03       		.byte	0x3
 2997 0b2c 00000000 		.4byte	testsem4
 2998 0b30 16       		.uleb128 0x16
 2999 0b31 400B0000 		.4byte	0xb40
 3000 0b35 400B0000 		.4byte	0xb40
 3001 0b39 17       		.uleb128 0x17
 3002 0b3a 5E040000 		.4byte	0x45e
 3003 0b3e 04       		.byte	0x4
 3004 0b3f 00       		.byte	0
 3005 0b40 09       		.uleb128 0x9
 3006 0b41 04       		.byte	0x4
 3007 0b42 F70A0000 		.4byte	0xaf7
 3008 0b46 32       		.uleb128 0x32
 3009 0b47 59040000 		.4byte	.LASF151
 3010 0b4b 09       		.byte	0x9
 3011 0b4c 1F01     		.2byte	0x11f
 3012 0b4e 580B0000 		.4byte	0xb58
 3013 0b52 05       		.uleb128 0x5
 3014 0b53 03       		.byte	0x3
 3015 0b54 00000000 		.4byte	patternsem
 3016 0b58 10       		.uleb128 0x10
 3017 0b59 300B0000 		.4byte	0xb30
 3018 0b5d 00       		.byte	0
 3019              		.section	.debug_abbrev,"",%progbits
 3020              	.Ldebug_abbrev0:
 3021 0000 01       		.uleb128 0x1
 3022 0001 11       		.uleb128 0x11
 3023 0002 01       		.byte	0x1
 3024 0003 25       		.uleb128 0x25
 3025 0004 0E       		.uleb128 0xe
 3026 0005 13       		.uleb128 0x13
 3027 0006 0B       		.uleb128 0xb
 3028 0007 03       		.uleb128 0x3
 3029 0008 0E       		.uleb128 0xe
 3030 0009 1B       		.uleb128 0x1b
 3031 000a 0E       		.uleb128 0xe
 3032 000b 11       		.uleb128 0x11
 3033 000c 01       		.uleb128 0x1
 3034 000d 12       		.uleb128 0x12
 3035 000e 06       		.uleb128 0x6
 3036 000f 10       		.uleb128 0x10
 3037 0010 17       		.uleb128 0x17
 3038 0011 00       		.byte	0
 3039 0012 00       		.byte	0
 3040 0013 02       		.uleb128 0x2
 3041 0014 24       		.uleb128 0x24
 3042 0015 00       		.byte	0
 3043 0016 0B       		.uleb128 0xb
 3044 0017 0B       		.uleb128 0xb
 3045 0018 3E       		.uleb128 0x3e
 3046 0019 0B       		.uleb128 0xb
 3047 001a 03       		.uleb128 0x3
 3048 001b 08       		.uleb128 0x8
 3049 001c 00       		.byte	0
 3050 001d 00       		.byte	0
 3051 001e 03       		.uleb128 0x3
ARM GAS  /tmp/ccTMyCpM.s 			page 55


 3052 001f 16       		.uleb128 0x16
 3053 0020 00       		.byte	0
 3054 0021 03       		.uleb128 0x3
 3055 0022 0E       		.uleb128 0xe
 3056 0023 3A       		.uleb128 0x3a
 3057 0024 0B       		.uleb128 0xb
 3058 0025 3B       		.uleb128 0x3b
 3059 0026 0B       		.uleb128 0xb
 3060 0027 49       		.uleb128 0x49
 3061 0028 13       		.uleb128 0x13
 3062 0029 00       		.byte	0
 3063 002a 00       		.byte	0
 3064 002b 04       		.uleb128 0x4
 3065 002c 24       		.uleb128 0x24
 3066 002d 00       		.byte	0
 3067 002e 0B       		.uleb128 0xb
 3068 002f 0B       		.uleb128 0xb
 3069 0030 3E       		.uleb128 0x3e
 3070 0031 0B       		.uleb128 0xb
 3071 0032 03       		.uleb128 0x3
 3072 0033 0E       		.uleb128 0xe
 3073 0034 00       		.byte	0
 3074 0035 00       		.byte	0
 3075 0036 05       		.uleb128 0x5
 3076 0037 13       		.uleb128 0x13
 3077 0038 01       		.byte	0x1
 3078 0039 03       		.uleb128 0x3
 3079 003a 0E       		.uleb128 0xe
 3080 003b 0B       		.uleb128 0xb
 3081 003c 0B       		.uleb128 0xb
 3082 003d 3A       		.uleb128 0x3a
 3083 003e 0B       		.uleb128 0xb
 3084 003f 3B       		.uleb128 0x3b
 3085 0040 0B       		.uleb128 0xb
 3086 0041 01       		.uleb128 0x1
 3087 0042 13       		.uleb128 0x13
 3088 0043 00       		.byte	0
 3089 0044 00       		.byte	0
 3090 0045 06       		.uleb128 0x6
 3091 0046 0D       		.uleb128 0xd
 3092 0047 00       		.byte	0
 3093 0048 03       		.uleb128 0x3
 3094 0049 0E       		.uleb128 0xe
 3095 004a 3A       		.uleb128 0x3a
 3096 004b 0B       		.uleb128 0xb
 3097 004c 3B       		.uleb128 0x3b
 3098 004d 0B       		.uleb128 0xb
 3099 004e 49       		.uleb128 0x49
 3100 004f 13       		.uleb128 0x13
 3101 0050 38       		.uleb128 0x38
 3102 0051 0B       		.uleb128 0xb
 3103 0052 00       		.byte	0
 3104 0053 00       		.byte	0
 3105 0054 07       		.uleb128 0x7
 3106 0055 0D       		.uleb128 0xd
 3107 0056 00       		.byte	0
 3108 0057 03       		.uleb128 0x3
ARM GAS  /tmp/ccTMyCpM.s 			page 56


 3109 0058 08       		.uleb128 0x8
 3110 0059 3A       		.uleb128 0x3a
 3111 005a 0B       		.uleb128 0xb
 3112 005b 3B       		.uleb128 0x3b
 3113 005c 05       		.uleb128 0x5
 3114 005d 49       		.uleb128 0x49
 3115 005e 13       		.uleb128 0x13
 3116 005f 38       		.uleb128 0x38
 3117 0060 0B       		.uleb128 0xb
 3118 0061 00       		.byte	0
 3119 0062 00       		.byte	0
 3120 0063 08       		.uleb128 0x8
 3121 0064 0D       		.uleb128 0xd
 3122 0065 00       		.byte	0
 3123 0066 03       		.uleb128 0x3
 3124 0067 0E       		.uleb128 0xe
 3125 0068 3A       		.uleb128 0x3a
 3126 0069 0B       		.uleb128 0xb
 3127 006a 3B       		.uleb128 0x3b
 3128 006b 05       		.uleb128 0x5
 3129 006c 49       		.uleb128 0x49
 3130 006d 13       		.uleb128 0x13
 3131 006e 38       		.uleb128 0x38
 3132 006f 0B       		.uleb128 0xb
 3133 0070 00       		.byte	0
 3134 0071 00       		.byte	0
 3135 0072 09       		.uleb128 0x9
 3136 0073 0F       		.uleb128 0xf
 3137 0074 00       		.byte	0
 3138 0075 0B       		.uleb128 0xb
 3139 0076 0B       		.uleb128 0xb
 3140 0077 49       		.uleb128 0x49
 3141 0078 13       		.uleb128 0x13
 3142 0079 00       		.byte	0
 3143 007a 00       		.byte	0
 3144 007b 0A       		.uleb128 0xa
 3145 007c 13       		.uleb128 0x13
 3146 007d 01       		.byte	0x1
 3147 007e 03       		.uleb128 0x3
 3148 007f 0E       		.uleb128 0xe
 3149 0080 0B       		.uleb128 0xb
 3150 0081 0B       		.uleb128 0xb
 3151 0082 3A       		.uleb128 0x3a
 3152 0083 0B       		.uleb128 0xb
 3153 0084 3B       		.uleb128 0x3b
 3154 0085 05       		.uleb128 0x5
 3155 0086 01       		.uleb128 0x1
 3156 0087 13       		.uleb128 0x13
 3157 0088 00       		.byte	0
 3158 0089 00       		.byte	0
 3159 008a 0B       		.uleb128 0xb
 3160 008b 15       		.uleb128 0x15
 3161 008c 01       		.byte	0x1
 3162 008d 27       		.uleb128 0x27
 3163 008e 19       		.uleb128 0x19
 3164 008f 01       		.uleb128 0x1
 3165 0090 13       		.uleb128 0x13
ARM GAS  /tmp/ccTMyCpM.s 			page 57


 3166 0091 00       		.byte	0
 3167 0092 00       		.byte	0
 3168 0093 0C       		.uleb128 0xc
 3169 0094 05       		.uleb128 0x5
 3170 0095 00       		.byte	0
 3171 0096 49       		.uleb128 0x49
 3172 0097 13       		.uleb128 0x13
 3173 0098 00       		.byte	0
 3174 0099 00       		.byte	0
 3175 009a 0D       		.uleb128 0xd
 3176 009b 0F       		.uleb128 0xf
 3177 009c 00       		.byte	0
 3178 009d 0B       		.uleb128 0xb
 3179 009e 0B       		.uleb128 0xb
 3180 009f 00       		.byte	0
 3181 00a0 00       		.byte	0
 3182 00a1 0E       		.uleb128 0xe
 3183 00a2 13       		.uleb128 0x13
 3184 00a3 01       		.byte	0x1
 3185 00a4 03       		.uleb128 0x3
 3186 00a5 0E       		.uleb128 0xe
 3187 00a6 0B       		.uleb128 0xb
 3188 00a7 05       		.uleb128 0x5
 3189 00a8 3A       		.uleb128 0x3a
 3190 00a9 0B       		.uleb128 0xb
 3191 00aa 3B       		.uleb128 0x3b
 3192 00ab 05       		.uleb128 0x5
 3193 00ac 01       		.uleb128 0x1
 3194 00ad 13       		.uleb128 0x13
 3195 00ae 00       		.byte	0
 3196 00af 00       		.byte	0
 3197 00b0 0F       		.uleb128 0xf
 3198 00b1 15       		.uleb128 0x15
 3199 00b2 00       		.byte	0
 3200 00b3 27       		.uleb128 0x27
 3201 00b4 19       		.uleb128 0x19
 3202 00b5 00       		.byte	0
 3203 00b6 00       		.byte	0
 3204 00b7 10       		.uleb128 0x10
 3205 00b8 26       		.uleb128 0x26
 3206 00b9 00       		.byte	0
 3207 00ba 49       		.uleb128 0x49
 3208 00bb 13       		.uleb128 0x13
 3209 00bc 00       		.byte	0
 3210 00bd 00       		.byte	0
 3211 00be 11       		.uleb128 0x11
 3212 00bf 0D       		.uleb128 0xd
 3213 00c0 00       		.byte	0
 3214 00c1 03       		.uleb128 0x3
 3215 00c2 08       		.uleb128 0x8
 3216 00c3 3A       		.uleb128 0x3a
 3217 00c4 0B       		.uleb128 0xb
 3218 00c5 3B       		.uleb128 0x3b
 3219 00c6 0B       		.uleb128 0xb
 3220 00c7 49       		.uleb128 0x49
 3221 00c8 13       		.uleb128 0x13
 3222 00c9 38       		.uleb128 0x38
ARM GAS  /tmp/ccTMyCpM.s 			page 58


 3223 00ca 0B       		.uleb128 0xb
 3224 00cb 00       		.byte	0
 3225 00cc 00       		.byte	0
 3226 00cd 12       		.uleb128 0x12
 3227 00ce 13       		.uleb128 0x13
 3228 00cf 01       		.byte	0x1
 3229 00d0 0B       		.uleb128 0xb
 3230 00d1 0B       		.uleb128 0xb
 3231 00d2 3A       		.uleb128 0x3a
 3232 00d3 0B       		.uleb128 0xb
 3233 00d4 3B       		.uleb128 0x3b
 3234 00d5 0B       		.uleb128 0xb
 3235 00d6 01       		.uleb128 0x1
 3236 00d7 13       		.uleb128 0x13
 3237 00d8 00       		.byte	0
 3238 00d9 00       		.byte	0
 3239 00da 13       		.uleb128 0x13
 3240 00db 17       		.uleb128 0x17
 3241 00dc 01       		.byte	0x1
 3242 00dd 0B       		.uleb128 0xb
 3243 00de 0B       		.uleb128 0xb
 3244 00df 3A       		.uleb128 0x3a
 3245 00e0 0B       		.uleb128 0xb
 3246 00e1 3B       		.uleb128 0x3b
 3247 00e2 0B       		.uleb128 0xb
 3248 00e3 01       		.uleb128 0x1
 3249 00e4 13       		.uleb128 0x13
 3250 00e5 00       		.byte	0
 3251 00e6 00       		.byte	0
 3252 00e7 14       		.uleb128 0x14
 3253 00e8 0D       		.uleb128 0xd
 3254 00e9 00       		.byte	0
 3255 00ea 03       		.uleb128 0x3
 3256 00eb 0E       		.uleb128 0xe
 3257 00ec 3A       		.uleb128 0x3a
 3258 00ed 0B       		.uleb128 0xb
 3259 00ee 3B       		.uleb128 0x3b
 3260 00ef 05       		.uleb128 0x5
 3261 00f0 49       		.uleb128 0x49
 3262 00f1 13       		.uleb128 0x13
 3263 00f2 00       		.byte	0
 3264 00f3 00       		.byte	0
 3265 00f4 15       		.uleb128 0x15
 3266 00f5 35       		.uleb128 0x35
 3267 00f6 00       		.byte	0
 3268 00f7 49       		.uleb128 0x49
 3269 00f8 13       		.uleb128 0x13
 3270 00f9 00       		.byte	0
 3271 00fa 00       		.byte	0
 3272 00fb 16       		.uleb128 0x16
 3273 00fc 01       		.uleb128 0x1
 3274 00fd 01       		.byte	0x1
 3275 00fe 49       		.uleb128 0x49
 3276 00ff 13       		.uleb128 0x13
 3277 0100 01       		.uleb128 0x1
 3278 0101 13       		.uleb128 0x13
 3279 0102 00       		.byte	0
ARM GAS  /tmp/ccTMyCpM.s 			page 59


 3280 0103 00       		.byte	0
 3281 0104 17       		.uleb128 0x17
 3282 0105 21       		.uleb128 0x21
 3283 0106 00       		.byte	0
 3284 0107 49       		.uleb128 0x49
 3285 0108 13       		.uleb128 0x13
 3286 0109 2F       		.uleb128 0x2f
 3287 010a 0B       		.uleb128 0xb
 3288 010b 00       		.byte	0
 3289 010c 00       		.byte	0
 3290 010d 18       		.uleb128 0x18
 3291 010e 2E       		.uleb128 0x2e
 3292 010f 01       		.byte	0x1
 3293 0110 03       		.uleb128 0x3
 3294 0111 0E       		.uleb128 0xe
 3295 0112 3A       		.uleb128 0x3a
 3296 0113 0B       		.uleb128 0xb
 3297 0114 3B       		.uleb128 0x3b
 3298 0115 05       		.uleb128 0x5
 3299 0116 27       		.uleb128 0x27
 3300 0117 19       		.uleb128 0x19
 3301 0118 20       		.uleb128 0x20
 3302 0119 0B       		.uleb128 0xb
 3303 011a 01       		.uleb128 0x1
 3304 011b 13       		.uleb128 0x13
 3305 011c 00       		.byte	0
 3306 011d 00       		.byte	0
 3307 011e 19       		.uleb128 0x19
 3308 011f 05       		.uleb128 0x5
 3309 0120 00       		.byte	0
 3310 0121 03       		.uleb128 0x3
 3311 0122 0E       		.uleb128 0xe
 3312 0123 3A       		.uleb128 0x3a
 3313 0124 0B       		.uleb128 0xb
 3314 0125 3B       		.uleb128 0x3b
 3315 0126 05       		.uleb128 0x5
 3316 0127 49       		.uleb128 0x49
 3317 0128 13       		.uleb128 0x13
 3318 0129 00       		.byte	0
 3319 012a 00       		.byte	0
 3320 012b 1A       		.uleb128 0x1a
 3321 012c 2E       		.uleb128 0x2e
 3322 012d 01       		.byte	0x1
 3323 012e 03       		.uleb128 0x3
 3324 012f 0E       		.uleb128 0xe
 3325 0130 3A       		.uleb128 0x3a
 3326 0131 0B       		.uleb128 0xb
 3327 0132 3B       		.uleb128 0x3b
 3328 0133 05       		.uleb128 0x5
 3329 0134 27       		.uleb128 0x27
 3330 0135 19       		.uleb128 0x19
 3331 0136 11       		.uleb128 0x11
 3332 0137 01       		.uleb128 0x1
 3333 0138 12       		.uleb128 0x12
 3334 0139 06       		.uleb128 0x6
 3335 013a 40       		.uleb128 0x40
 3336 013b 18       		.uleb128 0x18
ARM GAS  /tmp/ccTMyCpM.s 			page 60


 3337 013c 9742     		.uleb128 0x2117
 3338 013e 19       		.uleb128 0x19
 3339 013f 01       		.uleb128 0x1
 3340 0140 13       		.uleb128 0x13
 3341 0141 00       		.byte	0
 3342 0142 00       		.byte	0
 3343 0143 1B       		.uleb128 0x1b
 3344 0144 1D       		.uleb128 0x1d
 3345 0145 01       		.byte	0x1
 3346 0146 31       		.uleb128 0x31
 3347 0147 13       		.uleb128 0x13
 3348 0148 11       		.uleb128 0x11
 3349 0149 01       		.uleb128 0x1
 3350 014a 12       		.uleb128 0x12
 3351 014b 06       		.uleb128 0x6
 3352 014c 58       		.uleb128 0x58
 3353 014d 0B       		.uleb128 0xb
 3354 014e 59       		.uleb128 0x59
 3355 014f 05       		.uleb128 0x5
 3356 0150 00       		.byte	0
 3357 0151 00       		.byte	0
 3358 0152 1C       		.uleb128 0x1c
 3359 0153 05       		.uleb128 0x5
 3360 0154 00       		.byte	0
 3361 0155 31       		.uleb128 0x31
 3362 0156 13       		.uleb128 0x13
 3363 0157 02       		.uleb128 0x2
 3364 0158 18       		.uleb128 0x18
 3365 0159 00       		.byte	0
 3366 015a 00       		.byte	0
 3367 015b 1D       		.uleb128 0x1d
 3368 015c 2E       		.uleb128 0x2e
 3369 015d 01       		.byte	0x1
 3370 015e 03       		.uleb128 0x3
 3371 015f 0E       		.uleb128 0xe
 3372 0160 3A       		.uleb128 0x3a
 3373 0161 0B       		.uleb128 0xb
 3374 0162 3B       		.uleb128 0x3b
 3375 0163 05       		.uleb128 0x5
 3376 0164 27       		.uleb128 0x27
 3377 0165 19       		.uleb128 0x19
 3378 0166 49       		.uleb128 0x49
 3379 0167 13       		.uleb128 0x13
 3380 0168 11       		.uleb128 0x11
 3381 0169 01       		.uleb128 0x1
 3382 016a 12       		.uleb128 0x12
 3383 016b 06       		.uleb128 0x6
 3384 016c 40       		.uleb128 0x40
 3385 016d 18       		.uleb128 0x18
 3386 016e 9742     		.uleb128 0x2117
 3387 0170 19       		.uleb128 0x19
 3388 0171 01       		.uleb128 0x1
 3389 0172 13       		.uleb128 0x13
 3390 0173 00       		.byte	0
 3391 0174 00       		.byte	0
 3392 0175 1E       		.uleb128 0x1e
 3393 0176 05       		.uleb128 0x5
ARM GAS  /tmp/ccTMyCpM.s 			page 61


 3394 0177 00       		.byte	0
 3395 0178 03       		.uleb128 0x3
 3396 0179 08       		.uleb128 0x8
 3397 017a 3A       		.uleb128 0x3a
 3398 017b 0B       		.uleb128 0xb
 3399 017c 3B       		.uleb128 0x3b
 3400 017d 05       		.uleb128 0x5
 3401 017e 49       		.uleb128 0x49
 3402 017f 13       		.uleb128 0x13
 3403 0180 02       		.uleb128 0x2
 3404 0181 18       		.uleb128 0x18
 3405 0182 00       		.byte	0
 3406 0183 00       		.byte	0
 3407 0184 1F       		.uleb128 0x1f
 3408 0185 2E       		.uleb128 0x2e
 3409 0186 00       		.byte	0
 3410 0187 03       		.uleb128 0x3
 3411 0188 0E       		.uleb128 0xe
 3412 0189 3A       		.uleb128 0x3a
 3413 018a 0B       		.uleb128 0xb
 3414 018b 3B       		.uleb128 0x3b
 3415 018c 05       		.uleb128 0x5
 3416 018d 27       		.uleb128 0x27
 3417 018e 19       		.uleb128 0x19
 3418 018f 11       		.uleb128 0x11
 3419 0190 01       		.uleb128 0x1
 3420 0191 12       		.uleb128 0x12
 3421 0192 06       		.uleb128 0x6
 3422 0193 40       		.uleb128 0x40
 3423 0194 18       		.uleb128 0x18
 3424 0195 9642     		.uleb128 0x2116
 3425 0197 19       		.uleb128 0x19
 3426 0198 00       		.byte	0
 3427 0199 00       		.byte	0
 3428 019a 20       		.uleb128 0x20
 3429 019b 2E       		.uleb128 0x2e
 3430 019c 01       		.byte	0x1
 3431 019d 03       		.uleb128 0x3
 3432 019e 0E       		.uleb128 0xe
 3433 019f 3A       		.uleb128 0x3a
 3434 01a0 0B       		.uleb128 0xb
 3435 01a1 3B       		.uleb128 0x3b
 3436 01a2 05       		.uleb128 0x5
 3437 01a3 27       		.uleb128 0x27
 3438 01a4 19       		.uleb128 0x19
 3439 01a5 11       		.uleb128 0x11
 3440 01a6 01       		.uleb128 0x1
 3441 01a7 12       		.uleb128 0x12
 3442 01a8 06       		.uleb128 0x6
 3443 01a9 40       		.uleb128 0x40
 3444 01aa 18       		.uleb128 0x18
 3445 01ab 9642     		.uleb128 0x2116
 3446 01ad 19       		.uleb128 0x19
 3447 01ae 01       		.uleb128 0x1
 3448 01af 13       		.uleb128 0x13
 3449 01b0 00       		.byte	0
 3450 01b1 00       		.byte	0
ARM GAS  /tmp/ccTMyCpM.s 			page 62


 3451 01b2 21       		.uleb128 0x21
 3452 01b3 34       		.uleb128 0x34
 3453 01b4 00       		.byte	0
 3454 01b5 03       		.uleb128 0x3
 3455 01b6 0E       		.uleb128 0xe
 3456 01b7 49       		.uleb128 0x49
 3457 01b8 13       		.uleb128 0x13
 3458 01b9 34       		.uleb128 0x34
 3459 01ba 19       		.uleb128 0x19
 3460 01bb 00       		.byte	0
 3461 01bc 00       		.byte	0
 3462 01bd 22       		.uleb128 0x22
 3463 01be 2E       		.uleb128 0x2e
 3464 01bf 00       		.byte	0
 3465 01c0 03       		.uleb128 0x3
 3466 01c1 0E       		.uleb128 0xe
 3467 01c2 3A       		.uleb128 0x3a
 3468 01c3 0B       		.uleb128 0xb
 3469 01c4 3B       		.uleb128 0x3b
 3470 01c5 0B       		.uleb128 0xb
 3471 01c6 27       		.uleb128 0x27
 3472 01c7 19       		.uleb128 0x19
 3473 01c8 49       		.uleb128 0x49
 3474 01c9 13       		.uleb128 0x13
 3475 01ca 11       		.uleb128 0x11
 3476 01cb 01       		.uleb128 0x1
 3477 01cc 12       		.uleb128 0x12
 3478 01cd 06       		.uleb128 0x6
 3479 01ce 40       		.uleb128 0x40
 3480 01cf 18       		.uleb128 0x18
 3481 01d0 9742     		.uleb128 0x2117
 3482 01d2 19       		.uleb128 0x19
 3483 01d3 00       		.byte	0
 3484 01d4 00       		.byte	0
 3485 01d5 23       		.uleb128 0x23
 3486 01d6 2E       		.uleb128 0x2e
 3487 01d7 01       		.byte	0x1
 3488 01d8 03       		.uleb128 0x3
 3489 01d9 0E       		.uleb128 0xe
 3490 01da 3A       		.uleb128 0x3a
 3491 01db 0B       		.uleb128 0xb
 3492 01dc 3B       		.uleb128 0x3b
 3493 01dd 0B       		.uleb128 0xb
 3494 01de 27       		.uleb128 0x27
 3495 01df 19       		.uleb128 0x19
 3496 01e0 49       		.uleb128 0x49
 3497 01e1 13       		.uleb128 0x13
 3498 01e2 11       		.uleb128 0x11
 3499 01e3 01       		.uleb128 0x1
 3500 01e4 12       		.uleb128 0x12
 3501 01e5 06       		.uleb128 0x6
 3502 01e6 40       		.uleb128 0x40
 3503 01e7 18       		.uleb128 0x18
 3504 01e8 9642     		.uleb128 0x2116
 3505 01ea 19       		.uleb128 0x19
 3506 01eb 01       		.uleb128 0x1
 3507 01ec 13       		.uleb128 0x13
ARM GAS  /tmp/ccTMyCpM.s 			page 63


 3508 01ed 00       		.byte	0
 3509 01ee 00       		.byte	0
 3510 01ef 24       		.uleb128 0x24
 3511 01f0 34       		.uleb128 0x34
 3512 01f1 00       		.byte	0
 3513 01f2 03       		.uleb128 0x3
 3514 01f3 0E       		.uleb128 0xe
 3515 01f4 3A       		.uleb128 0x3a
 3516 01f5 0B       		.uleb128 0xb
 3517 01f6 3B       		.uleb128 0x3b
 3518 01f7 0B       		.uleb128 0xb
 3519 01f8 49       		.uleb128 0x49
 3520 01f9 13       		.uleb128 0x13
 3521 01fa 02       		.uleb128 0x2
 3522 01fb 18       		.uleb128 0x18
 3523 01fc 00       		.byte	0
 3524 01fd 00       		.byte	0
 3525 01fe 25       		.uleb128 0x25
 3526 01ff 2E       		.uleb128 0x2e
 3527 0200 00       		.byte	0
 3528 0201 03       		.uleb128 0x3
 3529 0202 0E       		.uleb128 0xe
 3530 0203 3A       		.uleb128 0x3a
 3531 0204 0B       		.uleb128 0xb
 3532 0205 3B       		.uleb128 0x3b
 3533 0206 0B       		.uleb128 0xb
 3534 0207 27       		.uleb128 0x27
 3535 0208 19       		.uleb128 0x19
 3536 0209 49       		.uleb128 0x49
 3537 020a 13       		.uleb128 0x13
 3538 020b 11       		.uleb128 0x11
 3539 020c 01       		.uleb128 0x1
 3540 020d 12       		.uleb128 0x12
 3541 020e 06       		.uleb128 0x6
 3542 020f 40       		.uleb128 0x40
 3543 0210 18       		.uleb128 0x18
 3544 0211 9642     		.uleb128 0x2116
 3545 0213 19       		.uleb128 0x19
 3546 0214 00       		.byte	0
 3547 0215 00       		.byte	0
 3548 0216 26       		.uleb128 0x26
 3549 0217 2E       		.uleb128 0x2e
 3550 0218 01       		.byte	0x1
 3551 0219 03       		.uleb128 0x3
 3552 021a 0E       		.uleb128 0xe
 3553 021b 3A       		.uleb128 0x3a
 3554 021c 0B       		.uleb128 0xb
 3555 021d 3B       		.uleb128 0x3b
 3556 021e 0B       		.uleb128 0xb
 3557 021f 27       		.uleb128 0x27
 3558 0220 19       		.uleb128 0x19
 3559 0221 49       		.uleb128 0x49
 3560 0222 13       		.uleb128 0x13
 3561 0223 11       		.uleb128 0x11
 3562 0224 01       		.uleb128 0x1
 3563 0225 12       		.uleb128 0x12
 3564 0226 06       		.uleb128 0x6
ARM GAS  /tmp/ccTMyCpM.s 			page 64


 3565 0227 40       		.uleb128 0x40
 3566 0228 18       		.uleb128 0x18
 3567 0229 9742     		.uleb128 0x2117
 3568 022b 19       		.uleb128 0x19
 3569 022c 01       		.uleb128 0x1
 3570 022d 13       		.uleb128 0x13
 3571 022e 00       		.byte	0
 3572 022f 00       		.byte	0
 3573 0230 27       		.uleb128 0x27
 3574 0231 05       		.uleb128 0x5
 3575 0232 00       		.byte	0
 3576 0233 03       		.uleb128 0x3
 3577 0234 08       		.uleb128 0x8
 3578 0235 3A       		.uleb128 0x3a
 3579 0236 0B       		.uleb128 0xb
 3580 0237 3B       		.uleb128 0x3b
 3581 0238 0B       		.uleb128 0xb
 3582 0239 49       		.uleb128 0x49
 3583 023a 13       		.uleb128 0x13
 3584 023b 02       		.uleb128 0x2
 3585 023c 18       		.uleb128 0x18
 3586 023d 00       		.byte	0
 3587 023e 00       		.byte	0
 3588 023f 28       		.uleb128 0x28
 3589 0240 2E       		.uleb128 0x2e
 3590 0241 01       		.byte	0x1
 3591 0242 03       		.uleb128 0x3
 3592 0243 0E       		.uleb128 0xe
 3593 0244 3A       		.uleb128 0x3a
 3594 0245 0B       		.uleb128 0xb
 3595 0246 3B       		.uleb128 0x3b
 3596 0247 0B       		.uleb128 0xb
 3597 0248 27       		.uleb128 0x27
 3598 0249 19       		.uleb128 0x19
 3599 024a 11       		.uleb128 0x11
 3600 024b 01       		.uleb128 0x1
 3601 024c 12       		.uleb128 0x12
 3602 024d 06       		.uleb128 0x6
 3603 024e 40       		.uleb128 0x40
 3604 024f 18       		.uleb128 0x18
 3605 0250 9642     		.uleb128 0x2116
 3606 0252 19       		.uleb128 0x19
 3607 0253 01       		.uleb128 0x1
 3608 0254 13       		.uleb128 0x13
 3609 0255 00       		.byte	0
 3610 0256 00       		.byte	0
 3611 0257 29       		.uleb128 0x29
 3612 0258 05       		.uleb128 0x5
 3613 0259 00       		.byte	0
 3614 025a 03       		.uleb128 0x3
 3615 025b 0E       		.uleb128 0xe
 3616 025c 3A       		.uleb128 0x3a
 3617 025d 0B       		.uleb128 0xb
 3618 025e 3B       		.uleb128 0x3b
 3619 025f 0B       		.uleb128 0xb
 3620 0260 49       		.uleb128 0x49
 3621 0261 13       		.uleb128 0x13
ARM GAS  /tmp/ccTMyCpM.s 			page 65


 3622 0262 02       		.uleb128 0x2
 3623 0263 18       		.uleb128 0x18
 3624 0264 00       		.byte	0
 3625 0265 00       		.byte	0
 3626 0266 2A       		.uleb128 0x2a
 3627 0267 2E       		.uleb128 0x2e
 3628 0268 00       		.byte	0
 3629 0269 03       		.uleb128 0x3
 3630 026a 0E       		.uleb128 0xe
 3631 026b 3A       		.uleb128 0x3a
 3632 026c 0B       		.uleb128 0xb
 3633 026d 3B       		.uleb128 0x3b
 3634 026e 0B       		.uleb128 0xb
 3635 026f 27       		.uleb128 0x27
 3636 0270 19       		.uleb128 0x19
 3637 0271 11       		.uleb128 0x11
 3638 0272 01       		.uleb128 0x1
 3639 0273 12       		.uleb128 0x12
 3640 0274 06       		.uleb128 0x6
 3641 0275 40       		.uleb128 0x40
 3642 0276 18       		.uleb128 0x18
 3643 0277 9642     		.uleb128 0x2116
 3644 0279 19       		.uleb128 0x19
 3645 027a 00       		.byte	0
 3646 027b 00       		.byte	0
 3647 027c 2B       		.uleb128 0x2b
 3648 027d 34       		.uleb128 0x34
 3649 027e 00       		.byte	0
 3650 027f 03       		.uleb128 0x3
 3651 0280 08       		.uleb128 0x8
 3652 0281 3A       		.uleb128 0x3a
 3653 0282 0B       		.uleb128 0xb
 3654 0283 3B       		.uleb128 0x3b
 3655 0284 0B       		.uleb128 0xb
 3656 0285 49       		.uleb128 0x49
 3657 0286 13       		.uleb128 0x13
 3658 0287 02       		.uleb128 0x2
 3659 0288 18       		.uleb128 0x18
 3660 0289 00       		.byte	0
 3661 028a 00       		.byte	0
 3662 028b 2C       		.uleb128 0x2c
 3663 028c 34       		.uleb128 0x34
 3664 028d 00       		.byte	0
 3665 028e 03       		.uleb128 0x3
 3666 028f 0E       		.uleb128 0xe
 3667 0290 3A       		.uleb128 0x3a
 3668 0291 0B       		.uleb128 0xb
 3669 0292 3B       		.uleb128 0x3b
 3670 0293 05       		.uleb128 0x5
 3671 0294 49       		.uleb128 0x49
 3672 0295 13       		.uleb128 0x13
 3673 0296 3F       		.uleb128 0x3f
 3674 0297 19       		.uleb128 0x19
 3675 0298 3C       		.uleb128 0x3c
 3676 0299 19       		.uleb128 0x19
 3677 029a 00       		.byte	0
 3678 029b 00       		.byte	0
ARM GAS  /tmp/ccTMyCpM.s 			page 66


 3679 029c 2D       		.uleb128 0x2d
 3680 029d 34       		.uleb128 0x34
 3681 029e 00       		.byte	0
 3682 029f 03       		.uleb128 0x3
 3683 02a0 08       		.uleb128 0x8
 3684 02a1 3A       		.uleb128 0x3a
 3685 02a2 0B       		.uleb128 0xb
 3686 02a3 3B       		.uleb128 0x3b
 3687 02a4 05       		.uleb128 0x5
 3688 02a5 49       		.uleb128 0x49
 3689 02a6 13       		.uleb128 0x13
 3690 02a7 3F       		.uleb128 0x3f
 3691 02a8 19       		.uleb128 0x19
 3692 02a9 3C       		.uleb128 0x3c
 3693 02aa 19       		.uleb128 0x19
 3694 02ab 00       		.byte	0
 3695 02ac 00       		.byte	0
 3696 02ad 2E       		.uleb128 0x2e
 3697 02ae 34       		.uleb128 0x34
 3698 02af 00       		.byte	0
 3699 02b0 03       		.uleb128 0x3
 3700 02b1 0E       		.uleb128 0xe
 3701 02b2 3A       		.uleb128 0x3a
 3702 02b3 0B       		.uleb128 0xb
 3703 02b4 3B       		.uleb128 0x3b
 3704 02b5 0B       		.uleb128 0xb
 3705 02b6 49       		.uleb128 0x49
 3706 02b7 13       		.uleb128 0x13
 3707 02b8 3F       		.uleb128 0x3f
 3708 02b9 19       		.uleb128 0x19
 3709 02ba 3C       		.uleb128 0x3c
 3710 02bb 19       		.uleb128 0x19
 3711 02bc 00       		.byte	0
 3712 02bd 00       		.byte	0
 3713 02be 2F       		.uleb128 0x2f
 3714 02bf 21       		.uleb128 0x21
 3715 02c0 00       		.byte	0
 3716 02c1 00       		.byte	0
 3717 02c2 00       		.byte	0
 3718 02c3 30       		.uleb128 0x30
 3719 02c4 34       		.uleb128 0x34
 3720 02c5 00       		.byte	0
 3721 02c6 03       		.uleb128 0x3
 3722 02c7 08       		.uleb128 0x8
 3723 02c8 3A       		.uleb128 0x3a
 3724 02c9 0B       		.uleb128 0xb
 3725 02ca 3B       		.uleb128 0x3b
 3726 02cb 0B       		.uleb128 0xb
 3727 02cc 49       		.uleb128 0x49
 3728 02cd 13       		.uleb128 0x13
 3729 02ce 3F       		.uleb128 0x3f
 3730 02cf 19       		.uleb128 0x19
 3731 02d0 3C       		.uleb128 0x3c
 3732 02d1 19       		.uleb128 0x19
 3733 02d2 00       		.byte	0
 3734 02d3 00       		.byte	0
 3735 02d4 31       		.uleb128 0x31
ARM GAS  /tmp/ccTMyCpM.s 			page 67


 3736 02d5 34       		.uleb128 0x34
 3737 02d6 00       		.byte	0
 3738 02d7 03       		.uleb128 0x3
 3739 02d8 0E       		.uleb128 0xe
 3740 02d9 3A       		.uleb128 0x3a
 3741 02da 0B       		.uleb128 0xb
 3742 02db 3B       		.uleb128 0x3b
 3743 02dc 0B       		.uleb128 0xb
 3744 02dd 49       		.uleb128 0x49
 3745 02de 13       		.uleb128 0x13
 3746 02df 3F       		.uleb128 0x3f
 3747 02e0 19       		.uleb128 0x19
 3748 02e1 02       		.uleb128 0x2
 3749 02e2 18       		.uleb128 0x18
 3750 02e3 00       		.byte	0
 3751 02e4 00       		.byte	0
 3752 02e5 32       		.uleb128 0x32
 3753 02e6 34       		.uleb128 0x34
 3754 02e7 00       		.byte	0
 3755 02e8 03       		.uleb128 0x3
 3756 02e9 0E       		.uleb128 0xe
 3757 02ea 3A       		.uleb128 0x3a
 3758 02eb 0B       		.uleb128 0xb
 3759 02ec 3B       		.uleb128 0x3b
 3760 02ed 05       		.uleb128 0x5
 3761 02ee 49       		.uleb128 0x49
 3762 02ef 13       		.uleb128 0x13
 3763 02f0 3F       		.uleb128 0x3f
 3764 02f1 19       		.uleb128 0x19
 3765 02f2 02       		.uleb128 0x2
 3766 02f3 18       		.uleb128 0x18
 3767 02f4 00       		.byte	0
 3768 02f5 00       		.byte	0
 3769 02f6 00       		.byte	0
 3770              		.section	.debug_aranges,"",%progbits
 3771 0000 1C000000 		.4byte	0x1c
 3772 0004 0200     		.2byte	0x2
 3773 0006 00000000 		.4byte	.Ldebug_info0
 3774 000a 04       		.byte	0x4
 3775 000b 00       		.byte	0
 3776 000c 0000     		.2byte	0
 3777 000e 0000     		.2byte	0
 3778 0010 00000000 		.4byte	.Ltext0
 3779 0014 FC070000 		.4byte	.Letext0-.Ltext0
 3780 0018 00000000 		.4byte	0
 3781 001c 00000000 		.4byte	0
 3782              		.section	.debug_line,"",%progbits
 3783              	.Ldebug_line0:
 3784 0000 68050000 		.section	.debug_str,"MS",%progbits,1
 3784      02003F03 
 3784      00000201 
 3784      FB0E0D00 
 3784      01010101 
 3785              	.LASF53:
 3786 0000 72656164 		.ascii	"ready_list_t\000"
 3786      795F6C69 
 3786      73745F74 
ARM GAS  /tmp/ccTMyCpM.s 			page 68


 3786      00
 3787              	.LASF2:
 3788 000d 73697A65 		.ascii	"size_t\000"
 3788      5F7400
 3789              	.LASF89:
 3790 0014 7264796D 		.ascii	"rdymsg\000"
 3790      736700
 3791              	.LASF132:
 3792 001b 73656D31 		.ascii	"sem1_execute\000"
 3792      5F657865 
 3792      63757465 
 3792      00
 3793              	.LASF17:
 3794 0028 75696E74 		.ascii	"uint64_t\000"
 3794      36345F74 
 3794      00
 3795              	.LASF1:
 3796 0031 7369676E 		.ascii	"signed char\000"
 3796      65642063 
 3796      68617200 
 3797              	.LASF3:
 3798 003d 5F5F7569 		.ascii	"__uint8_t\000"
 3798      6E74385F 
 3798      7400
 3799              	.LASF86:
 3800 0047 706F7274 		.ascii	"port_intctx\000"
 3800      5F696E74 
 3800      63747800 
 3801              	.LASF78:
 3802 0053 76746C69 		.ascii	"vtlist\000"
 3802      737400
 3803              	.LASF80:
 3804 005a 69646C65 		.ascii	"idle_thread_wa\000"
 3804      5F746872 
 3804      6561645F 
 3804      776100
 3805              	.LASF112:
 3806 0069 706F7274 		.ascii	"port_lock\000"
 3806      5F6C6F63 
 3806      6B00
 3807              	.LASF13:
 3808 0073 6C6F6E67 		.ascii	"long long unsigned int\000"
 3808      206C6F6E 
 3808      6720756E 
 3808      7369676E 
 3808      65642069 
 3809              	.LASF90:
 3810 008a 65786974 		.ascii	"exitcode\000"
 3810      636F6465 
 3810      00
 3811              	.LASF79:
 3812 0093 6D61696E 		.ascii	"mainthread\000"
 3812      74687265 
 3812      616400
 3813              	.LASF69:
 3814 009e 76697274 		.ascii	"virtual_timers_list_t\000"
 3814      75616C5F 
ARM GAS  /tmp/ccTMyCpM.s 			page 69


 3814      74696D65 
 3814      72735F6C 
 3814      6973745F 
 3815              	.LASF145:
 3816 00b4 49544D5F 		.ascii	"ITM_RxBuffer\000"
 3816      52784275 
 3816      66666572 
 3816      00
 3817              	.LASF52:
 3818 00c1 63685F74 		.ascii	"ch_threads_queue\000"
 3818      68726561 
 3818      64735F71 
 3818      75657565 
 3818      00
 3819              	.LASF31:
 3820 00d2 705F7072 		.ascii	"p_prio\000"
 3820      696F00
 3821              	.LASF11:
 3822 00d9 6C6F6E67 		.ascii	"long long int\000"
 3822      206C6F6E 
 3822      6720696E 
 3822      7400
 3823              	.LASF123:
 3824 00e7 74616B65 		.ascii	"taken\000"
 3824      6E00
 3825              	.LASF46:
 3826 00ed 705F6D70 		.ascii	"p_mpool\000"
 3826      6F6F6C00 
 3827              	.LASF100:
 3828 00f5 6D5F7175 		.ascii	"m_queue\000"
 3828      65756500 
 3829              	.LASF113:
 3830 00fd 706F7274 		.ascii	"port_unlock\000"
 3830      5F756E6C 
 3830      6F636B00 
 3831              	.LASF22:
 3832 0109 74736C69 		.ascii	"tslices_t\000"
 3832      6365735F 
 3832      7400
 3833              	.LASF127:
 3834 0113 63684253 		.ascii	"chBSemSignal\000"
 3834      656D5369 
 3834      676E616C 
 3834      00
 3835              	.LASF91:
 3836 0120 77746F62 		.ascii	"wtobjp\000"
 3836      6A7000
 3837              	.LASF135:
 3838 0127 73656D32 		.ascii	"sem2_execute\000"
 3838      5F657865 
 3838      63757465 
 3838      00
 3839              	.LASF92:
 3840 0134 77747472 		.ascii	"wttrp\000"
 3840      7000
 3841              	.LASF76:
 3842 013a 63685F73 		.ascii	"ch_system\000"
ARM GAS  /tmp/ccTMyCpM.s 			page 70


 3842      79737465 
 3842      6D00
 3843              	.LASF8:
 3844 0144 6C6F6E67 		.ascii	"long int\000"
 3844      20696E74 
 3844      00
 3845              	.LASF137:
 3846 014d 74617267 		.ascii	"target_time\000"
 3846      65745F74 
 3846      696D6500 
 3847              	.LASF20:
 3848 0159 74737461 		.ascii	"tstate_t\000"
 3848      74655F74 
 3848      00
 3849              	.LASF153:
 3850 0162 2E2E2F2E 		.ascii	"../../../../../../ChibiOS/test/rt/testsem.c\000"
 3850      2E2F2E2E 
 3850      2F2E2E2F 
 3850      2E2E2F2E 
 3850      2E2F4368 
 3851              	.LASF44:
 3852 018e 705F6D74 		.ascii	"p_mtxlist\000"
 3852      786C6973 
 3852      7400
 3853              	.LASF33:
 3854 0198 705F6E65 		.ascii	"p_newer\000"
 3854      77657200 
 3855              	.LASF116:
 3856 01a0 71756575 		.ascii	"queue_isempty\000"
 3856      655F6973 
 3856      656D7074 
 3856      7900
 3857              	.LASF97:
 3858 01ae 735F7175 		.ascii	"s_queue\000"
 3858      65756500 
 3859              	.LASF58:
 3860 01b6 725F6E65 		.ascii	"r_newer\000"
 3860      77657200 
 3861              	.LASF83:
 3862 01be 72656761 		.ascii	"regarm_t\000"
 3862      726D5F74 
 3862      00
 3863              	.LASF65:
 3864 01c7 76745F70 		.ascii	"vt_prev\000"
 3864      72657600 
 3865              	.LASF154:
 3866 01cf 2F752F65 		.ascii	"/u/elawton2/p442-submissions/sensortile/reference/b"
 3866      6C617774 
 3866      6F6E322F 
 3866      70343432 
 3866      2D737562 
 3867 0202 6C75656D 		.ascii	"luemicrosystem2/BlueMicrosystem2_V2.2.0/Projects/Mu"
 3867      6963726F 
 3867      73797374 
 3867      656D322F 
 3867      426C7565 
 3868 0235 6C74692F 		.ascii	"lti/Applications/BlueMicrosystem2/bluechibi\000"
ARM GAS  /tmp/ccTMyCpM.s 			page 71


 3868      4170706C 
 3868      69636174 
 3868      696F6E73 
 3868      2F426C75 
 3869              	.LASF133:
 3870 0261 73656D32 		.ascii	"sem2_setup\000"
 3870      5F736574 
 3870      757000
 3871              	.LASF144:
 3872 026c 73656D31 		.ascii	"sem1\000"
 3872      00
 3873              	.LASF106:
 3874 0271 6D757465 		.ascii	"mutex_t\000"
 3874      785F7400 
 3875              	.LASF156:
 3876 0279 76616C75 		.ascii	"value\000"
 3876      6500
 3877              	.LASF9:
 3878 027f 5F5F7569 		.ascii	"__uint32_t\000"
 3878      6E743332 
 3878      5F7400
 3879              	.LASF26:
 3880 028a 636E745F 		.ascii	"cnt_t\000"
 3880      7400
 3881              	.LASF118:
 3882 0290 63685654 		.ascii	"chVTGetSystemTimeX\000"
 3882      47657453 
 3882      79737465 
 3882      6D54696D 
 3882      655800
 3883              	.LASF0:
 3884 02a3 756E7369 		.ascii	"unsigned int\000"
 3884      676E6564 
 3884      20696E74 
 3884      00
 3885              	.LASF140:
 3886 02b0 73656D33 		.ascii	"sem3_execute\000"
 3886      5F657865 
 3886      63757465 
 3886      00
 3887              	.LASF93:
 3888 02bd 77747365 		.ascii	"wtsemp\000"
 3888      6D7000
 3889              	.LASF147:
 3890 02c4 74657374 		.ascii	"testsem1\000"
 3890      73656D31 
 3890      00
 3891              	.LASF148:
 3892 02cd 74657374 		.ascii	"testsem2\000"
 3892      73656D32 
 3892      00
 3893              	.LASF149:
 3894 02d6 74657374 		.ascii	"testsem3\000"
 3894      73656D33 
 3894      00
 3895              	.LASF150:
 3896 02df 74657374 		.ascii	"testsem4\000"
ARM GAS  /tmp/ccTMyCpM.s 			page 72


 3896      73656D34 
 3896      00
 3897              	.LASF64:
 3898 02e8 76745F6E 		.ascii	"vt_next\000"
 3898      65787400 
 3899              	.LASF128:
 3900 02f0 63684253 		.ascii	"chBSemGetStateI\000"
 3900      656D4765 
 3900      74537461 
 3900      74654900 
 3901              	.LASF110:
 3902 0300 74656172 		.ascii	"teardown\000"
 3902      646F776E 
 3902      00
 3903              	.LASF108:
 3904 0309 6E616D65 		.ascii	"name\000"
 3904      00
 3905              	.LASF98:
 3906 030e 735F636E 		.ascii	"s_cnt\000"
 3906      7400
 3907              	.LASF6:
 3908 0314 73686F72 		.ascii	"short unsigned int\000"
 3908      7420756E 
 3908      7369676E 
 3908      65642069 
 3908      6E7400
 3909              	.LASF49:
 3910 0327 63685F74 		.ascii	"ch_thread\000"
 3910      68726561 
 3910      6400
 3911              	.LASF143:
 3912 0331 6273656D 		.ascii	"bsem\000"
 3912      00
 3913              	.LASF24:
 3914 0336 6D73675F 		.ascii	"msg_t\000"
 3914      7400
 3915              	.LASF75:
 3916 033c 63685F73 		.ascii	"ch_system_t\000"
 3916      79737465 
 3916      6D5F7400 
 3917              	.LASF19:
 3918 0348 746D6F64 		.ascii	"tmode_t\000"
 3918      655F7400 
 3919              	.LASF136:
 3920 0350 73797374 		.ascii	"systime\000"
 3920      696D6500 
 3921              	.LASF54:
 3922 0358 63685F72 		.ascii	"ch_ready_list\000"
 3922      65616479 
 3922      5F6C6973 
 3922      7400
 3923              	.LASF25:
 3924 0366 6576656E 		.ascii	"eventmask_t\000"
 3924      746D6173 
 3924      6B5F7400 
 3925              	.LASF7:
 3926 0372 5F5F696E 		.ascii	"__int32_t\000"
ARM GAS  /tmp/ccTMyCpM.s 			page 73


 3926      7433325F 
 3926      7400
 3927              	.LASF84:
 3928 037c 73746B61 		.ascii	"stkalign_t\000"
 3928      6C69676E 
 3928      5F7400
 3929              	.LASF142:
 3930 0387 73656D34 		.ascii	"sem4_execute\000"
 3930      5F657865 
 3930      63757465 
 3930      00
 3931              	.LASF18:
 3932 0394 7274636E 		.ascii	"rtcnt_t\000"
 3932      745F7400 
 3933              	.LASF47:
 3934 039c 74687265 		.ascii	"thread_reference_t\000"
 3934      61645F72 
 3934      65666572 
 3934      656E6365 
 3934      5F7400
 3935              	.LASF70:
 3936 03af 63685F76 		.ascii	"ch_virtual_timers_list\000"
 3936      69727475 
 3936      616C5F74 
 3936      696D6572 
 3936      735F6C69 
 3937              	.LASF67:
 3938 03c6 76745F66 		.ascii	"vt_func\000"
 3938      756E6300 
 3939              	.LASF130:
 3940 03ce 73656D31 		.ascii	"sem1_setup\000"
 3940      5F736574 
 3940      757000
 3941              	.LASF88:
 3942 03d9 746D5F63 		.ascii	"tm_calibration_t\000"
 3942      616C6962 
 3942      72617469 
 3942      6F6E5F74 
 3942      00
 3943              	.LASF34:
 3944 03ea 705F6F6C 		.ascii	"p_older\000"
 3944      64657200 
 3945              	.LASF131:
 3946 03f2 74687265 		.ascii	"thread1\000"
 3946      61643100 
 3947              	.LASF134:
 3948 03fa 74687265 		.ascii	"thread2\000"
 3948      61643200 
 3949              	.LASF139:
 3950 0402 74687265 		.ascii	"thread3\000"
 3950      61643300 
 3951              	.LASF141:
 3952 040a 74687265 		.ascii	"thread4\000"
 3952      61643400 
 3953              	.LASF138:
 3954 0412 73656D33 		.ascii	"sem3_setup\000"
 3954      5F736574 
ARM GAS  /tmp/ccTMyCpM.s 			page 74


 3954      757000
 3955              	.LASF120:
 3956 041d 63685468 		.ascii	"chThdGetPriorityX\000"
 3956      64476574 
 3956      5072696F 
 3956      72697479 
 3956      5800
 3957              	.LASF109:
 3958 042f 73657475 		.ascii	"setup\000"
 3958      7000
 3959              	.LASF117:
 3960 0435 63685654 		.ascii	"chVTGetSystemTime\000"
 3960      47657453 
 3960      79737465 
 3960      6D54696D 
 3960      6500
 3961              	.LASF60:
 3962 0447 725F6375 		.ascii	"r_current\000"
 3962      7272656E 
 3962      7400
 3963              	.LASF59:
 3964 0451 725F6F6C 		.ascii	"r_older\000"
 3964      64657200 
 3965              	.LASF151:
 3966 0459 70617474 		.ascii	"patternsem\000"
 3966      65726E73 
 3966      656D00
 3967              	.LASF12:
 3968 0464 5F5F7569 		.ascii	"__uint64_t\000"
 3968      6E743634 
 3968      5F7400
 3969              	.LASF21:
 3970 046f 74726566 		.ascii	"trefs_t\000"
 3970      735F7400 
 3971              	.LASF62:
 3972 0477 76697274 		.ascii	"virtual_timer_t\000"
 3972      75616C5F 
 3972      74696D65 
 3972      725F7400 
 3973              	.LASF30:
 3974 0487 705F7072 		.ascii	"p_prev\000"
 3974      657600
 3975              	.LASF111:
 3976 048e 65786563 		.ascii	"execute\000"
 3976      75746500 
 3977              	.LASF105:
 3978 0496 62696E61 		.ascii	"binary_semaphore_t\000"
 3978      72795F73 
 3978      656D6170 
 3978      686F7265 
 3978      5F7400
 3979              	.LASF23:
 3980 04a9 74707269 		.ascii	"tprio_t\000"
 3980      6F5F7400 
 3981              	.LASF72:
 3982 04b1 73797374 		.ascii	"system_debug_t\000"
 3982      656D5F64 
ARM GAS  /tmp/ccTMyCpM.s 			page 75


 3982      65627567 
 3982      5F7400
 3983              	.LASF73:
 3984 04c0 63685F73 		.ascii	"ch_system_debug\000"
 3984      79737465 
 3984      6D5F6465 
 3984      62756700 
 3985              	.LASF114:
 3986 04d0 5F426F6F 		.ascii	"_Bool\000"
 3986      6C00
 3987              	.LASF15:
 3988 04d6 696E7433 		.ascii	"int32_t\000"
 3988      325F7400 
 3989              	.LASF4:
 3990 04de 756E7369 		.ascii	"unsigned char\000"
 3990      676E6564 
 3990      20636861 
 3990      7200
 3991              	.LASF152:
 3992 04ec 474E5520 		.ascii	"GNU C 4.8.4 20140526 (release) [ARM/embedded-4_8-br"
 3992      4320342E 
 3992      382E3420 
 3992      32303134 
 3992      30353236 
 3993 051f 616E6368 		.ascii	"anch revision 211358] -mcpu=cortex-m4 -mno-thumb-in"
 3993      20726576 
 3993      6973696F 
 3993      6E203231 
 3993      31333538 
 3994 0552 74657277 		.ascii	"terwork -mthumb -ggdb -O0 -std=c99 -fomit-frame-poi"
 3994      6F726B20 
 3994      2D6D7468 
 3994      756D6220 
 3994      2D676764 
 3995 0585 6E746572 		.ascii	"nter -falign-functions=16\000"
 3995      202D6661 
 3995      6C69676E 
 3995      2D66756E 
 3995      6374696F 
 3996              	.LASF5:
 3997 059f 73686F72 		.ascii	"short int\000"
 3997      7420696E 
 3997      7400
 3998              	.LASF36:
 3999 05a9 705F7374 		.ascii	"p_state\000"
 3999      61746500 
 4000              	.LASF39:
 4001 05b1 705F7072 		.ascii	"p_preempt\000"
 4001      65656D70 
 4001      7400
 4002              	.LASF146:
 4003 05bb 74687265 		.ascii	"threads\000"
 4003      61647300 
 4004              	.LASF56:
 4005 05c3 725F7072 		.ascii	"r_prio\000"
 4005      696F00
 4006              	.LASF95:
ARM GAS  /tmp/ccTMyCpM.s 			page 76


 4007 05ca 65776D61 		.ascii	"ewmask\000"
 4007      736B00
 4008              	.LASF29:
 4009 05d1 705F6E65 		.ascii	"p_next\000"
 4009      787400
 4010              	.LASF37:
 4011 05d8 705F666C 		.ascii	"p_flags\000"
 4011      61677300 
 4012              	.LASF157:
 4013 05e0 5F5F6675 		.ascii	"__func__\000"
 4013      6E635F5F 
 4013      00
 4014              	.LASF129:
 4015 05e9 63685379 		.ascii	"chSysLock\000"
 4015      734C6F63 
 4015      6B00
 4016              	.LASF103:
 4017 05f3 73656D61 		.ascii	"semaphore_t\000"
 4017      70686F72 
 4017      655F7400 
 4018              	.LASF63:
 4019 05ff 63685F76 		.ascii	"ch_virtual_timer\000"
 4019      69727475 
 4019      616C5F74 
 4019      696D6572 
 4019      00
 4020              	.LASF107:
 4021 0610 74657374 		.ascii	"testcase\000"
 4021      63617365 
 4021      00
 4022              	.LASF96:
 4023 0619 63685F73 		.ascii	"ch_semaphore\000"
 4023      656D6170 
 4023      686F7265 
 4023      00
 4024              	.LASF43:
 4025 0626 705F6570 		.ascii	"p_epending\000"
 4025      656E6469 
 4025      6E6700
 4026              	.LASF16:
 4027 0631 75696E74 		.ascii	"uint32_t\000"
 4027      33325F74 
 4027      00
 4028              	.LASF94:
 4029 063a 77746D74 		.ascii	"wtmtxp\000"
 4029      787000
 4030              	.LASF55:
 4031 0641 725F7175 		.ascii	"r_queue\000"
 4031      65756500 
 4032              	.LASF71:
 4033 0649 76745F73 		.ascii	"vt_systime\000"
 4033      79737469 
 4033      6D6500
 4034              	.LASF50:
 4035 0654 63685F74 		.ascii	"ch_threads_list\000"
 4035      68726561 
 4035      64735F6C 
ARM GAS  /tmp/ccTMyCpM.s 			page 77


 4035      69737400 
 4036              	.LASF10:
 4037 0664 6C6F6E67 		.ascii	"long unsigned int\000"
 4037      20756E73 
 4037      69676E65 
 4037      6420696E 
 4037      7400
 4038              	.LASF82:
 4039 0676 63686172 		.ascii	"char\000"
 4039      00
 4040              	.LASF124:
 4041 067b 63684253 		.ascii	"chBSemWait\000"
 4041      656D5761 
 4041      697400
 4042              	.LASF28:
 4043 0686 74687265 		.ascii	"thread_t\000"
 4043      61645F74 
 4043      00
 4044              	.LASF102:
 4045 068f 6D5F6E65 		.ascii	"m_next\000"
 4045      787400
 4046              	.LASF27:
 4047 0696 73797374 		.ascii	"systime_t\000"
 4047      696D655F 
 4047      7400
 4048              	.LASF45:
 4049 06a0 705F7265 		.ascii	"p_realprio\000"
 4049      616C7072 
 4049      696F00
 4050              	.LASF61:
 4051 06ab 76746675 		.ascii	"vtfunc_t\000"
 4051      6E635F74 
 4051      00
 4052              	.LASF121:
 4053 06b4 63685365 		.ascii	"chSemGetCounterI\000"
 4053      6D476574 
 4053      436F756E 
 4053      74657249 
 4053      00
 4054              	.LASF155:
 4055 06c5 5F5F7365 		.ascii	"__set_BASEPRI\000"
 4055      745F4241 
 4055      53455052 
 4055      4900
 4056              	.LASF74:
 4057 06d3 70616E69 		.ascii	"panic_msg\000"
 4057      635F6D73 
 4057      6700
 4058              	.LASF87:
 4059 06dd 6F666673 		.ascii	"offset\000"
 4059      657400
 4060              	.LASF85:
 4061 06e4 636F6E74 		.ascii	"context\000"
 4061      65787400 
 4062              	.LASF57:
 4063 06ec 725F6374 		.ascii	"r_ctx\000"
 4063      7800
ARM GAS  /tmp/ccTMyCpM.s 			page 78


 4064              	.LASF41:
 4065 06f2 705F6D73 		.ascii	"p_msgqueue\000"
 4065      67717565 
 4065      756500
 4066              	.LASF68:
 4067 06fd 76745F70 		.ascii	"vt_par\000"
 4067      617200
 4068              	.LASF51:
 4069 0704 74687265 		.ascii	"threads_queue_t\000"
 4069      6164735F 
 4069      71756575 
 4069      655F7400 
 4070              	.LASF38:
 4071 0714 705F7265 		.ascii	"p_refs\000"
 4071      667300
 4072              	.LASF77:
 4073 071b 726C6973 		.ascii	"rlist\000"
 4073      7400
 4074              	.LASF119:
 4075 0721 63685468 		.ascii	"chThdGetSelfX\000"
 4075      64476574 
 4075      53656C66 
 4075      5800
 4076              	.LASF14:
 4077 072f 75696E74 		.ascii	"uint8_t\000"
 4077      385F7400 
 4078              	.LASF81:
 4079 0737 73697A65 		.ascii	"sizetype\000"
 4079      74797065 
 4079      00
 4080              	.LASF126:
 4081 0740 63684253 		.ascii	"chBSemSignalI\000"
 4081      656D5369 
 4081      676E616C 
 4081      4900
 4082              	.LASF99:
 4083 074e 63685F6D 		.ascii	"ch_mutex\000"
 4083      75746578 
 4083      00
 4084              	.LASF35:
 4085 0757 705F6E61 		.ascii	"p_name\000"
 4085      6D6500
 4086              	.LASF122:
 4087 075e 63684253 		.ascii	"chBSemObjectInit\000"
 4087      656D4F62 
 4087      6A656374 
 4087      496E6974 
 4087      00
 4088              	.LASF48:
 4089 076f 74687265 		.ascii	"threads_list_t\000"
 4089      6164735F 
 4089      6C697374 
 4089      5F7400
 4090              	.LASF104:
 4091 077e 62735F73 		.ascii	"bs_sem\000"
 4091      656D00
 4092              	.LASF66:
ARM GAS  /tmp/ccTMyCpM.s 			page 79


 4093 0785 76745F64 		.ascii	"vt_delta\000"
 4093      656C7461 
 4093      00
 4094              	.LASF115:
 4095 078e 63685379 		.ascii	"chSysUnlock\000"
 4095      73556E6C 
 4095      6F636B00 
 4096              	.LASF42:
 4097 079a 705F6D73 		.ascii	"p_msg\000"
 4097      6700
 4098              	.LASF125:
 4099 07a0 63684253 		.ascii	"chBSemReset\000"
 4099      656D5265 
 4099      73657400 
 4100              	.LASF101:
 4101 07ac 6D5F6F77 		.ascii	"m_owner\000"
 4101      6E657200 
 4102              	.LASF32:
 4103 07b4 705F6374 		.ascii	"p_ctx\000"
 4103      7800
 4104              	.LASF40:
 4105 07ba 705F7761 		.ascii	"p_waiting\000"
 4105      6974696E 
 4105      6700
 4106              		.ident	"GCC: (GNU Tools for ARM Embedded Processors) 4.8.4 20140526 (release) [ARM/embedded-4_8-br
ARM GAS  /tmp/ccTMyCpM.s 			page 80


DEFINED SYMBOLS
                            *ABS*:00000000 testsem.c
     /tmp/ccTMyCpM.s:18     .text:00000000 $t
     /tmp/ccTMyCpM.s:23     .text:00000000 port_lock
     /tmp/ccTMyCpM.s:58     .text:00000010 port_unlock
     /tmp/ccTMyCpM.s:91     .text:00000020 queue_isempty
     /tmp/ccTMyCpM.s:124    .text:00000040 chSysLock
     /tmp/ccTMyCpM.s:147    .text:00000050 chSysUnlock
     /tmp/ccTMyCpM.s:169    .text:00000060 chVTGetSystemTimeX
     /tmp/ccTMyCpM.s:186    .text:00000068 $d
     /tmp/ccTMyCpM.s:190    .text:0000006c $t
     /tmp/ccTMyCpM.s:195    .text:00000070 chVTGetSystemTime
     /tmp/ccTMyCpM.s:228    .text:00000090 chThdGetSelfX
     /tmp/ccTMyCpM.s:245    .text:00000098 $d
     /tmp/ccTMyCpM.s:249    .text:0000009c $t
     /tmp/ccTMyCpM.s:254    .text:000000a0 chThdGetPriorityX
     /tmp/ccTMyCpM.s:279    .text:000000b0 chSemGetCounterI
     /tmp/ccTMyCpM.s:306    .text:000000c0 chBSemObjectInit
     /tmp/ccTMyCpM.s:349    .text:000000f0 chBSemWait
     /tmp/ccTMyCpM.s:379    .text:00000110 chBSemReset
     /tmp/ccTMyCpM.s:421    .text:00000140 chBSemSignalI
     /tmp/ccTMyCpM.s:455    .text:00000160 chBSemSignal
     /tmp/ccTMyCpM.s:488    .text:00000180 chBSemGetStateI
     /tmp/ccTMyCpM.s:515    .data:00000000 $d
     /tmp/ccTMyCpM.s:518    .data:00000000 sem1
     /tmp/ccTMyCpM.s:528    .text:000001a0 sem1_setup
     /tmp/ccTMyCpM.s:548    .text:000001ac $d
     /tmp/ccTMyCpM.s:552    .text:000001b0 $t
     /tmp/ccTMyCpM.s:557    .text:000001b0 thread1
     /tmp/ccTMyCpM.s:584    .text:000001cc $d
     /tmp/ccTMyCpM.s:589    .rodata:00000000 $d
     /tmp/ccTMyCpM.s:608    .text:000001d0 $t
     /tmp/ccTMyCpM.s:613    .text:000001d0 sem1_execute
     /tmp/ccTMyCpM.s:790    .text:00000328 $d
     /tmp/ccTMyCpM.s:811    .rodata:00000034 testsem1
     /tmp/ccTMyCpM.s:817    .text:00000350 $t
     /tmp/ccTMyCpM.s:822    .text:00000350 sem2_setup
     /tmp/ccTMyCpM.s:841    .text:0000035c $d
     /tmp/ccTMyCpM.s:845    .text:00000360 $t
     /tmp/ccTMyCpM.s:850    .text:00000360 thread2
     /tmp/ccTMyCpM.s:881    .text:00000384 $d
     /tmp/ccTMyCpM.s:885    .text:00000388 $t
     /tmp/ccTMyCpM.s:890    .text:00000390 sem2_execute
     /tmp/ccTMyCpM.s:1131   .text:00000530 $d
     /tmp/ccTMyCpM.s:1147   .rodata:00000058 testsem2
     /tmp/ccTMyCpM.s:1153   .text:00000544 $t
     /tmp/ccTMyCpM.s:1158   .text:00000550 sem3_setup
     /tmp/ccTMyCpM.s:1177   .text:0000055c $d
     /tmp/ccTMyCpM.s:1181   .text:00000560 $t
     /tmp/ccTMyCpM.s:1186   .text:00000560 thread3
     /tmp/ccTMyCpM.s:1211   .text:00000578 $d
     /tmp/ccTMyCpM.s:1215   .text:0000057c $t
     /tmp/ccTMyCpM.s:1220   .text:00000580 sem3_execute
     /tmp/ccTMyCpM.s:1323   .text:00000628 $d
     /tmp/ccTMyCpM.s:1338   .rodata:00000088 testsem3
     /tmp/ccTMyCpM.s:1344   .text:00000638 $t
     /tmp/ccTMyCpM.s:1349   .text:00000640 thread4
ARM GAS  /tmp/ccTMyCpM.s 			page 81


     /tmp/ccTMyCpM.s:1376   .text:00000660 sem4_execute
     /tmp/ccTMyCpM.s:1582   .text:000007f0 $d
     /tmp/ccTMyCpM.s:1596   .rodata:000000bc testsem4
     /tmp/ccTMyCpM.s:1605   .rodata:000000cc patternsem
                     .debug_frame:00000010 $d
     /tmp/ccTMyCpM.s:1623   .text:000007fc $t

UNDEFINED SYMBOLS
ch
chSemObjectInit
chSemWait
chSemReset
chSemSignalI
chSchRescheduleS
test_emit_token
chThdCreateStatic
chSemSignal
test_wait_threads
_test_assert_sequence
chSemAddCounterI
_test_assert
wa
threads
chThdSleep
chSemWaitTimeout
test_wait_tick
_test_assert_time_window
chSemSignalWait
