ARM GAS  /tmp/ccbYiKJF.s 			page 1


   1              		.syntax unified
   2              		.cpu cortex-m4
   3              		.fpu softvfp
   4              		.eabi_attribute 20, 1
   5              		.eabi_attribute 21, 1
   6              		.eabi_attribute 23, 3
   7              		.eabi_attribute 24, 1
   8              		.eabi_attribute 25, 1
   9              		.eabi_attribute 26, 1
  10              		.eabi_attribute 30, 6
  11              		.eabi_attribute 34, 1
  12              		.eabi_attribute 18, 4
  13              		.thumb
  14              		.file	"testthd.c"
  15              		.text
  16              	.Ltext0:
  17              		.cfi_sections	.debug_frame
  18              		.align	2
  19              		.p2align 4,,15
  20              		.thumb
  21              		.thumb_func
  22              		.type	port_lock, %function
  23              	port_lock:
  24              	.LFB129:
  25              		.file 1 "../../../../../../ChibiOS/os/rt/ports/ARMCMx/chcore_v7m.h"
  26              		.loc 1 456 0
  27              		.cfi_startproc
  28              		@ args = 0, pretend = 0, frame = 8
  29              		@ frame_needed = 0, uses_anonymous_args = 0
  30              		@ link register save eliminated.
  31 0000 82B0     		sub	sp, sp, #8
  32              		.cfi_def_cfa_offset 8
  33 0002 2023     		movs	r3, #32
  34 0004 0193     		str	r3, [sp, #4]
  35              	.LBB6:
  36              	.LBB7:
  37              		.file 2 "../../../../../../ChibiOS/os/ext/CMSIS/include/core_cmFunc.h"
  38              		.loc 2 548 0
  39 0006 019B     		ldr	r3, [sp, #4]
  40              	@ 548 "../../../../../../ChibiOS/os/ext/CMSIS/include/core_cmFunc.h" 1
  41 0008 83F31188 		MSR basepri, r3
  42              	@ 0 "" 2
  43              		.thumb
  44              	.LBE7:
  45              	.LBE6:
  46              		.loc 1 473 0
  47 000c 02B0     		add	sp, sp, #8
  48              		@ sp needed
  49 000e 7047     		bx	lr
  50              		.cfi_endproc
  51              	.LFE129:
  52              		.size	port_lock, .-port_lock
  53              		.align	2
  54              		.p2align 4,,15
  55              		.thumb
  56              		.thumb_func
  57              		.type	port_unlock, %function
ARM GAS  /tmp/ccbYiKJF.s 			page 2


  58              	port_unlock:
  59              	.LFB130:
  60              		.loc 1 480 0
  61              		.cfi_startproc
  62              		@ args = 0, pretend = 0, frame = 8
  63              		@ frame_needed = 0, uses_anonymous_args = 0
  64              		@ link register save eliminated.
  65 0010 82B0     		sub	sp, sp, #8
  66              		.cfi_def_cfa_offset 8
  67 0012 0023     		movs	r3, #0
  68 0014 0193     		str	r3, [sp, #4]
  69              	.LBB8:
  70              	.LBB9:
  71              		.loc 2 548 0
  72 0016 019B     		ldr	r3, [sp, #4]
  73              	@ 548 "../../../../../../ChibiOS/os/ext/CMSIS/include/core_cmFunc.h" 1
  74 0018 83F31188 		MSR basepri, r3
  75              	@ 0 "" 2
  76              		.thumb
  77              	.LBE9:
  78              	.LBE8:
  79              		.loc 1 487 0
  80 001c 02B0     		add	sp, sp, #8
  81              		@ sp needed
  82 001e 7047     		bx	lr
  83              		.cfi_endproc
  84              	.LFE130:
  85              		.size	port_unlock, .-port_unlock
  86              		.align	2
  87              		.p2align 4,,15
  88              		.thumb
  89              		.thumb_func
  90              		.type	chSysLock, %function
  91              	chSysLock:
  92              	.LFB158:
  93              		.file 3 "../../../../../../ChibiOS/os/rt/include/chsys.h"
  94              		.loc 3 346 0
  95              		.cfi_startproc
  96              		@ args = 0, pretend = 0, frame = 0
  97              		@ frame_needed = 0, uses_anonymous_args = 0
  98 0020 08B5     		push	{r3, lr}
  99              		.cfi_def_cfa_offset 8
 100              		.cfi_offset 3, -8
 101              		.cfi_offset 14, -4
 102              		.loc 3 348 0
 103 0022 FFF7EDFF 		bl	port_lock
 104              		.loc 3 351 0
 105 0026 08BD     		pop	{r3, pc}
 106              		.cfi_endproc
 107              	.LFE158:
 108              		.size	chSysLock, .-chSysLock
 109              		.align	2
 110 0028 AFF30080 		.p2align 4,,15
 110      AFF30080 
 111              		.thumb
 112              		.thumb_func
 113              		.type	chSysUnlock, %function
ARM GAS  /tmp/ccbYiKJF.s 			page 3


 114              	chSysUnlock:
 115              	.LFB159:
 116              		.loc 3 358 0
 117              		.cfi_startproc
 118              		@ args = 0, pretend = 0, frame = 0
 119              		@ frame_needed = 0, uses_anonymous_args = 0
 120 0030 08B5     		push	{r3, lr}
 121              		.cfi_def_cfa_offset 8
 122              		.cfi_offset 3, -8
 123              		.cfi_offset 14, -4
 124              		.loc 3 371 0
 125 0032 FFF7EDFF 		bl	port_unlock
 126              		.loc 3 372 0
 127 0036 08BD     		pop	{r3, pc}
 128              		.cfi_endproc
 129              	.LFE159:
 130              		.size	chSysUnlock, .-chSysUnlock
 131              		.align	2
 132 0038 AFF30080 		.p2align 4,,15
 132      AFF30080 
 133              		.thumb
 134              		.thumb_func
 135              		.type	chVTGetSystemTimeX, %function
 136              	chVTGetSystemTimeX:
 137              	.LFB166:
 138              		.file 4 "../../../../../../ChibiOS/os/rt/include/chvt.h"
 139              		.loc 4 228 0
 140              		.cfi_startproc
 141              		@ args = 0, pretend = 0, frame = 0
 142              		@ frame_needed = 0, uses_anonymous_args = 0
 143              		@ link register save eliminated.
 144              		.loc 4 231 0
 145 0040 014B     		ldr	r3, .L7
 146 0042 9B6A     		ldr	r3, [r3, #40]
 147              		.loc 4 235 0
 148 0044 1846     		mov	r0, r3
 149 0046 7047     		bx	lr
 150              	.L8:
 151              		.align	2
 152              	.L7:
 153 0048 00000000 		.word	ch
 154              		.cfi_endproc
 155              	.LFE166:
 156              		.size	chVTGetSystemTimeX, .-chVTGetSystemTimeX
 157              		.align	2
 158 004c AFF30080 		.p2align 4,,15
 159              		.thumb
 160              		.thumb_func
 161              		.type	chVTGetSystemTime, %function
 162              	chVTGetSystemTime:
 163              	.LFB167:
 164              		.loc 4 247 0
 165              		.cfi_startproc
 166              		@ args = 0, pretend = 0, frame = 8
 167              		@ frame_needed = 0, uses_anonymous_args = 0
 168 0050 00B5     		push	{lr}
 169              		.cfi_def_cfa_offset 4
ARM GAS  /tmp/ccbYiKJF.s 			page 4


 170              		.cfi_offset 14, -4
 171 0052 83B0     		sub	sp, sp, #12
 172              		.cfi_def_cfa_offset 16
 173              		.loc 4 250 0
 174 0054 FFF7E4FF 		bl	chSysLock
 175              		.loc 4 251 0
 176 0058 FFF7F2FF 		bl	chVTGetSystemTimeX
 177 005c 0190     		str	r0, [sp, #4]
 178              		.loc 4 252 0
 179 005e FFF7E7FF 		bl	chSysUnlock
 180              		.loc 4 254 0
 181 0062 019B     		ldr	r3, [sp, #4]
 182              		.loc 4 255 0
 183 0064 1846     		mov	r0, r3
 184 0066 03B0     		add	sp, sp, #12
 185              		@ sp needed
 186 0068 5DF804FB 		ldr	pc, [sp], #4
 187              		.cfi_endproc
 188              	.LFE167:
 189              		.size	chVTGetSystemTime, .-chVTGetSystemTime
 190              		.align	2
 191 006c AFF30080 		.p2align 4,,15
 192              		.thumb
 193              		.thumb_func
 194              		.type	chThdGetSelfX, %function
 195              	chThdGetSelfX:
 196              	.LFB180:
 197              		.file 5 "../../../../../../ChibiOS/os/rt/include/chthreads.h"
 198              		.loc 5 174 0
 199              		.cfi_startproc
 200              		@ args = 0, pretend = 0, frame = 0
 201              		@ frame_needed = 0, uses_anonymous_args = 0
 202              		@ link register save eliminated.
 203              		.loc 5 176 0
 204 0070 014B     		ldr	r3, .L13
 205 0072 9B69     		ldr	r3, [r3, #24]
 206              		.loc 5 177 0
 207 0074 1846     		mov	r0, r3
 208 0076 7047     		bx	lr
 209              	.L14:
 210              		.align	2
 211              	.L13:
 212 0078 00000000 		.word	ch
 213              		.cfi_endproc
 214              	.LFE180:
 215              		.size	chThdGetSelfX, .-chThdGetSelfX
 216              		.align	2
 217 007c AFF30080 		.p2align 4,,15
 218              		.thumb
 219              		.thumb_func
 220              		.type	chThdGetPriorityX, %function
 221              	chThdGetPriorityX:
 222              	.LFB181:
 223              		.loc 5 187 0
 224              		.cfi_startproc
 225              		@ args = 0, pretend = 0, frame = 0
 226              		@ frame_needed = 0, uses_anonymous_args = 0
ARM GAS  /tmp/ccbYiKJF.s 			page 5


 227 0080 08B5     		push	{r3, lr}
 228              		.cfi_def_cfa_offset 8
 229              		.cfi_offset 3, -8
 230              		.cfi_offset 14, -4
 231              		.loc 5 189 0
 232 0082 FFF7F5FF 		bl	chThdGetSelfX
 233 0086 0346     		mov	r3, r0
 234 0088 9B68     		ldr	r3, [r3, #8]
 235              		.loc 5 190 0
 236 008a 1846     		mov	r0, r3
 237 008c 08BD     		pop	{r3, pc}
 238              		.cfi_endproc
 239              	.LFE181:
 240              		.size	chThdGetPriorityX, .-chThdGetPriorityX
 241 008e 00BF     		.align	2
 242              		.p2align 4,,15
 243              		.thumb
 244              		.thumb_func
 245              		.type	thread, %function
 246              	thread:
 247              	.LFB232:
 248              		.file 6 "../../../../../../ChibiOS/test/rt/testthd.c"
 249              		.loc 6 60 0
 250              		.cfi_startproc
 251              		@ args = 0, pretend = 0, frame = 8
 252              		@ frame_needed = 0, uses_anonymous_args = 0
 253 0090 00B5     		push	{lr}
 254              		.cfi_def_cfa_offset 4
 255              		.cfi_offset 14, -4
 256 0092 83B0     		sub	sp, sp, #12
 257              		.cfi_def_cfa_offset 16
 258 0094 0190     		str	r0, [sp, #4]
 259              		.loc 6 62 0
 260 0096 019B     		ldr	r3, [sp, #4]
 261 0098 1B78     		ldrb	r3, [r3]	@ zero_extendqisi2
 262 009a 1846     		mov	r0, r3
 263 009c FFF7FEFF 		bl	test_emit_token
 264              		.loc 6 63 0
 265 00a0 03B0     		add	sp, sp, #12
 266              		@ sp needed
 267 00a2 5DF804FB 		ldr	pc, [sp], #4
 268              		.cfi_endproc
 269              	.LFE232:
 270              		.size	thread, .-thread
 271              		.section	.rodata
 272              		.align	2
 273              	.LC0:
 274 0000 4500     		.ascii	"E\000"
 275 0002 0000     		.align	2
 276              	.LC1:
 277 0004 4400     		.ascii	"D\000"
 278 0006 0000     		.align	2
 279              	.LC2:
 280 0008 4300     		.ascii	"C\000"
 281 000a 0000     		.align	2
 282              	.LC3:
 283 000c 4200     		.ascii	"B\000"
ARM GAS  /tmp/ccbYiKJF.s 			page 6


 284 000e 0000     		.align	2
 285              	.LC4:
 286 0010 4100     		.ascii	"A\000"
 287 0012 0000     		.align	2
 288              	.LC5:
 289 0014 41424344 		.ascii	"ABCDE\000"
 289      4500
 290              		.text
 291 00a6 00BF     		.align	2
 292 00a8 AFF30080 		.p2align 4,,15
 292      AFF30080 
 293              		.thumb
 294              		.thumb_func
 295              		.type	thd1_execute, %function
 296              	thd1_execute:
 297              	.LFB233:
 298              		.loc 6 65 0
 299              		.cfi_startproc
 300              		@ args = 0, pretend = 0, frame = 0
 301              		@ frame_needed = 0, uses_anonymous_args = 0
 302 00b0 10B5     		push	{r4, lr}
 303              		.cfi_def_cfa_offset 8
 304              		.cfi_offset 4, -8
 305              		.cfi_offset 14, -4
 306 00b2 82B0     		sub	sp, sp, #8
 307              		.cfi_def_cfa_offset 16
 308              		.loc 6 67 0
 309 00b4 324B     		ldr	r3, .L20
 310 00b6 1C68     		ldr	r4, [r3]
 311 00b8 FFF7E2FF 		bl	chThdGetPriorityX
 312 00bc 0346     		mov	r3, r0
 313 00be 053B     		subs	r3, r3, #5
 314 00c0 304A     		ldr	r2, .L20+4
 315 00c2 0092     		str	r2, [sp]
 316 00c4 2046     		mov	r0, r4
 317 00c6 4FF4A471 		mov	r1, #328
 318 00ca 1A46     		mov	r2, r3
 319 00cc 2E4B     		ldr	r3, .L20+8
 320 00ce FFF7FEFF 		bl	chThdCreateStatic
 321 00d2 0246     		mov	r2, r0
 322 00d4 2D4B     		ldr	r3, .L20+12
 323 00d6 1A60     		str	r2, [r3]
 324              		.loc 6 68 0
 325 00d8 294B     		ldr	r3, .L20
 326 00da 5C68     		ldr	r4, [r3, #4]
 327 00dc FFF7D0FF 		bl	chThdGetPriorityX
 328 00e0 0346     		mov	r3, r0
 329 00e2 043B     		subs	r3, r3, #4
 330 00e4 2A4A     		ldr	r2, .L20+16
 331 00e6 0092     		str	r2, [sp]
 332 00e8 2046     		mov	r0, r4
 333 00ea 4FF4A471 		mov	r1, #328
 334 00ee 1A46     		mov	r2, r3
 335 00f0 254B     		ldr	r3, .L20+8
 336 00f2 FFF7FEFF 		bl	chThdCreateStatic
 337 00f6 0246     		mov	r2, r0
 338 00f8 244B     		ldr	r3, .L20+12
ARM GAS  /tmp/ccbYiKJF.s 			page 7


 339 00fa 5A60     		str	r2, [r3, #4]
 340              		.loc 6 69 0
 341 00fc 204B     		ldr	r3, .L20
 342 00fe 9C68     		ldr	r4, [r3, #8]
 343 0100 FFF7BEFF 		bl	chThdGetPriorityX
 344 0104 0346     		mov	r3, r0
 345 0106 033B     		subs	r3, r3, #3
 346 0108 224A     		ldr	r2, .L20+20
 347 010a 0092     		str	r2, [sp]
 348 010c 2046     		mov	r0, r4
 349 010e 4FF4A471 		mov	r1, #328
 350 0112 1A46     		mov	r2, r3
 351 0114 1C4B     		ldr	r3, .L20+8
 352 0116 FFF7FEFF 		bl	chThdCreateStatic
 353 011a 0246     		mov	r2, r0
 354 011c 1B4B     		ldr	r3, .L20+12
 355 011e 9A60     		str	r2, [r3, #8]
 356              		.loc 6 70 0
 357 0120 174B     		ldr	r3, .L20
 358 0122 DC68     		ldr	r4, [r3, #12]
 359 0124 FFF7ACFF 		bl	chThdGetPriorityX
 360 0128 0346     		mov	r3, r0
 361 012a 023B     		subs	r3, r3, #2
 362 012c 1A4A     		ldr	r2, .L20+24
 363 012e 0092     		str	r2, [sp]
 364 0130 2046     		mov	r0, r4
 365 0132 4FF4A471 		mov	r1, #328
 366 0136 1A46     		mov	r2, r3
 367 0138 134B     		ldr	r3, .L20+8
 368 013a FFF7FEFF 		bl	chThdCreateStatic
 369 013e 0246     		mov	r2, r0
 370 0140 124B     		ldr	r3, .L20+12
 371 0142 DA60     		str	r2, [r3, #12]
 372              		.loc 6 71 0
 373 0144 0E4B     		ldr	r3, .L20
 374 0146 1C69     		ldr	r4, [r3, #16]
 375 0148 FFF79AFF 		bl	chThdGetPriorityX
 376 014c 0346     		mov	r3, r0
 377 014e 013B     		subs	r3, r3, #1
 378 0150 124A     		ldr	r2, .L20+28
 379 0152 0092     		str	r2, [sp]
 380 0154 2046     		mov	r0, r4
 381 0156 4FF4A471 		mov	r1, #328
 382 015a 1A46     		mov	r2, r3
 383 015c 0A4B     		ldr	r3, .L20+8
 384 015e FFF7FEFF 		bl	chThdCreateStatic
 385 0162 0246     		mov	r2, r0
 386 0164 094B     		ldr	r3, .L20+12
 387 0166 1A61     		str	r2, [r3, #16]
 388              		.loc 6 72 0
 389 0168 FFF7FEFF 		bl	test_wait_threads
 390              		.loc 6 73 0
 391 016c 0120     		movs	r0, #1
 392 016e 0C49     		ldr	r1, .L20+32
 393 0170 FFF7FEFF 		bl	_test_assert_sequence
 394 0174 0346     		mov	r3, r0
 395 0176 002B     		cmp	r3, #0
ARM GAS  /tmp/ccbYiKJF.s 			page 8


 396 0178 00D0     		beq	.L18
 397              		.loc 6 73 0 is_stmt 0 discriminator 1
 398 017a 00BF     		nop
 399              	.L18:
 400              		.loc 6 74 0 is_stmt 1
 401 017c 02B0     		add	sp, sp, #8
 402              		@ sp needed
 403 017e 10BD     		pop	{r4, pc}
 404              	.L21:
 405              		.align	2
 406              	.L20:
 407 0180 00000000 		.word	wa
 408 0184 00000000 		.word	.LC0
 409 0188 00000000 		.word	thread
 410 018c 00000000 		.word	threads
 411 0190 04000000 		.word	.LC1
 412 0194 08000000 		.word	.LC2
 413 0198 0C000000 		.word	.LC3
 414 019c 10000000 		.word	.LC4
 415 01a0 14000000 		.word	.LC5
 416              		.cfi_endproc
 417              	.LFE233:
 418              		.size	thd1_execute, .-thd1_execute
 419              		.global	testthd1
 420              		.section	.rodata
 421 001a 0000     		.align	2
 422              	.LC6:
 423 001c 54687265 		.ascii	"Threads, enqueuing test #1\000"
 423      6164732C 
 423      20656E71 
 423      75657569 
 423      6E672074 
 424 0037 00       		.align	2
 425              		.type	testthd1, %object
 426              		.size	testthd1, 16
 427              	testthd1:
 428 0038 1C000000 		.word	.LC6
 429 003c 00000000 		.word	0
 430 0040 00000000 		.word	0
 431 0044 00000000 		.word	thd1_execute
 432              		.text
 433              		.align	2
 434 01a4 AFF30080 		.p2align 4,,15
 434      AFF30080 
 434      AFF30080 
 435              		.thumb
 436              		.thumb_func
 437              		.type	thd2_execute, %function
 438              	thd2_execute:
 439              	.LFB234:
 440              		.loc 6 93 0
 441              		.cfi_startproc
 442              		@ args = 0, pretend = 0, frame = 0
 443              		@ frame_needed = 0, uses_anonymous_args = 0
 444 01b0 10B5     		push	{r4, lr}
 445              		.cfi_def_cfa_offset 8
 446              		.cfi_offset 4, -8
ARM GAS  /tmp/ccbYiKJF.s 			page 9


 447              		.cfi_offset 14, -4
 448 01b2 82B0     		sub	sp, sp, #8
 449              		.cfi_def_cfa_offset 16
 450              		.loc 6 95 0
 451 01b4 374B     		ldr	r3, .L24
 452 01b6 5C68     		ldr	r4, [r3, #4]
 453 01b8 FFF762FF 		bl	chThdGetPriorityX
 454 01bc 0346     		mov	r3, r0
 455 01be 043B     		subs	r3, r3, #4
 456 01c0 354A     		ldr	r2, .L24+4
 457 01c2 0092     		str	r2, [sp]
 458 01c4 2046     		mov	r0, r4
 459 01c6 4FF4A471 		mov	r1, #328
 460 01ca 1A46     		mov	r2, r3
 461 01cc 334B     		ldr	r3, .L24+8
 462 01ce FFF7FEFF 		bl	chThdCreateStatic
 463 01d2 0246     		mov	r2, r0
 464 01d4 324B     		ldr	r3, .L24+12
 465 01d6 5A60     		str	r2, [r3, #4]
 466              		.loc 6 96 0
 467 01d8 2E4B     		ldr	r3, .L24
 468 01da 1C68     		ldr	r4, [r3]
 469 01dc FFF750FF 		bl	chThdGetPriorityX
 470 01e0 0346     		mov	r3, r0
 471 01e2 053B     		subs	r3, r3, #5
 472 01e4 2F4A     		ldr	r2, .L24+16
 473 01e6 0092     		str	r2, [sp]
 474 01e8 2046     		mov	r0, r4
 475 01ea 4FF4A471 		mov	r1, #328
 476 01ee 1A46     		mov	r2, r3
 477 01f0 2A4B     		ldr	r3, .L24+8
 478 01f2 FFF7FEFF 		bl	chThdCreateStatic
 479 01f6 0246     		mov	r2, r0
 480 01f8 294B     		ldr	r3, .L24+12
 481 01fa 1A60     		str	r2, [r3]
 482              		.loc 6 97 0
 483 01fc 254B     		ldr	r3, .L24
 484 01fe 1C69     		ldr	r4, [r3, #16]
 485 0200 FFF73EFF 		bl	chThdGetPriorityX
 486 0204 0346     		mov	r3, r0
 487 0206 013B     		subs	r3, r3, #1
 488 0208 274A     		ldr	r2, .L24+20
 489 020a 0092     		str	r2, [sp]
 490 020c 2046     		mov	r0, r4
 491 020e 4FF4A471 		mov	r1, #328
 492 0212 1A46     		mov	r2, r3
 493 0214 214B     		ldr	r3, .L24+8
 494 0216 FFF7FEFF 		bl	chThdCreateStatic
 495 021a 0246     		mov	r2, r0
 496 021c 204B     		ldr	r3, .L24+12
 497 021e 1A61     		str	r2, [r3, #16]
 498              		.loc 6 98 0
 499 0220 1C4B     		ldr	r3, .L24
 500 0222 DC68     		ldr	r4, [r3, #12]
 501 0224 FFF72CFF 		bl	chThdGetPriorityX
 502 0228 0346     		mov	r3, r0
 503 022a 023B     		subs	r3, r3, #2
ARM GAS  /tmp/ccbYiKJF.s 			page 10


 504 022c 1F4A     		ldr	r2, .L24+24
 505 022e 0092     		str	r2, [sp]
 506 0230 2046     		mov	r0, r4
 507 0232 4FF4A471 		mov	r1, #328
 508 0236 1A46     		mov	r2, r3
 509 0238 184B     		ldr	r3, .L24+8
 510 023a FFF7FEFF 		bl	chThdCreateStatic
 511 023e 0246     		mov	r2, r0
 512 0240 174B     		ldr	r3, .L24+12
 513 0242 DA60     		str	r2, [r3, #12]
 514              		.loc 6 100 0
 515 0244 FFF7ECFE 		bl	chSysLock
 516              		.loc 6 101 0
 517 0248 124B     		ldr	r3, .L24
 518 024a 9C68     		ldr	r4, [r3, #8]
 519 024c FFF718FF 		bl	chThdGetPriorityX
 520 0250 0346     		mov	r3, r0
 521 0252 033B     		subs	r3, r3, #3
 522 0254 164A     		ldr	r2, .L24+28
 523 0256 0092     		str	r2, [sp]
 524 0258 2046     		mov	r0, r4
 525 025a 4FF4A471 		mov	r1, #328
 526 025e 1A46     		mov	r2, r3
 527 0260 0E4B     		ldr	r3, .L24+8
 528 0262 FFF7FEFF 		bl	chThdCreateI
 529 0266 0246     		mov	r2, r0
 530 0268 0D4B     		ldr	r3, .L24+12
 531 026a 9A60     		str	r2, [r3, #8]
 532              		.loc 6 102 0
 533 026c FFF7E0FE 		bl	chSysUnlock
 534              		.loc 6 103 0
 535 0270 0B4B     		ldr	r3, .L24+12
 536 0272 9B68     		ldr	r3, [r3, #8]
 537 0274 1846     		mov	r0, r3
 538 0276 FFF7FEFF 		bl	chThdStart
 539              		.loc 6 104 0
 540 027a FFF7FEFF 		bl	test_wait_threads
 541              		.loc 6 105 0
 542 027e 0120     		movs	r0, #1
 543 0280 0C49     		ldr	r1, .L24+32
 544 0282 FFF7FEFF 		bl	_test_assert_sequence
 545 0286 0346     		mov	r3, r0
 546 0288 002B     		cmp	r3, #0
 547 028a 00D0     		beq	.L22
 548              		.loc 6 105 0 is_stmt 0 discriminator 1
 549 028c 00BF     		nop
 550              	.L22:
 551              		.loc 6 106 0 is_stmt 1
 552 028e 02B0     		add	sp, sp, #8
 553              		@ sp needed
 554 0290 10BD     		pop	{r4, pc}
 555              	.L25:
 556 0292 00BF     		.align	2
 557              	.L24:
 558 0294 00000000 		.word	wa
 559 0298 04000000 		.word	.LC1
 560 029c 00000000 		.word	thread
ARM GAS  /tmp/ccbYiKJF.s 			page 11


 561 02a0 00000000 		.word	threads
 562 02a4 00000000 		.word	.LC0
 563 02a8 10000000 		.word	.LC4
 564 02ac 0C000000 		.word	.LC3
 565 02b0 08000000 		.word	.LC2
 566 02b4 14000000 		.word	.LC5
 567              		.cfi_endproc
 568              	.LFE234:
 569              		.size	thd2_execute, .-thd2_execute
 570              		.global	testthd2
 571              		.section	.rodata
 572              		.align	2
 573              	.LC7:
 574 0048 54687265 		.ascii	"Threads, enqueuing test #2\000"
 574      6164732C 
 574      20656E71 
 574      75657569 
 574      6E672074 
 575 0063 00       		.align	2
 576              		.type	testthd2, %object
 577              		.size	testthd2, 16
 578              	testthd2:
 579 0064 48000000 		.word	.LC7
 580 0068 00000000 		.word	0
 581 006c 00000000 		.word	0
 582 0070 00000000 		.word	thd2_execute
 583              		.text
 584              		.align	2
 585 02b8 AFF30080 		.p2align 4,,15
 585      AFF30080 
 586              		.thumb
 587              		.thumb_func
 588              		.type	thd3_execute, %function
 589              	thd3_execute:
 590              	.LFB235:
 591              		.loc 6 125 0
 592              		.cfi_startproc
 593              		@ args = 0, pretend = 0, frame = 8
 594              		@ frame_needed = 0, uses_anonymous_args = 0
 595 02c0 00B5     		push	{lr}
 596              		.cfi_def_cfa_offset 4
 597              		.cfi_offset 14, -4
 598 02c2 83B0     		sub	sp, sp, #12
 599              		.cfi_def_cfa_offset 16
 600              		.loc 6 128 0
 601 02c4 FFF7DCFE 		bl	chThdGetPriorityX
 602 02c8 0190     		str	r0, [sp, #4]
 603              		.loc 6 129 0
 604 02ca 019B     		ldr	r3, [sp, #4]
 605 02cc 0133     		adds	r3, r3, #1
 606 02ce 1846     		mov	r0, r3
 607 02d0 FFF7FEFF 		bl	chThdSetPriority
 608 02d4 0090     		str	r0, [sp]
 609              		.loc 6 130 0
 610 02d6 009A     		ldr	r2, [sp]
 611 02d8 019B     		ldr	r3, [sp, #4]
 612 02da 9A42     		cmp	r2, r3
ARM GAS  /tmp/ccbYiKJF.s 			page 12


 613 02dc 14BF     		ite	ne
 614 02de 0023     		movne	r3, #0
 615 02e0 0123     		moveq	r3, #1
 616 02e2 DBB2     		uxtb	r3, r3
 617 02e4 0120     		movs	r0, #1
 618 02e6 1946     		mov	r1, r3
 619 02e8 FFF7FEFF 		bl	_test_assert
 620 02ec 0346     		mov	r3, r0
 621 02ee 002B     		cmp	r3, #0
 622 02f0 00D0     		beq	.L27
 623              		.loc 6 130 0 is_stmt 0 discriminator 1
 624 02f2 D7E0     		b	.L26
 625              	.L27:
 626              		.loc 6 132 0 is_stmt 1
 627 02f4 FFF7C4FE 		bl	chThdGetPriorityX
 628 02f8 0246     		mov	r2, r0
 629 02fa 019B     		ldr	r3, [sp, #4]
 630 02fc 0133     		adds	r3, r3, #1
 631 02fe 9A42     		cmp	r2, r3
 632 0300 14BF     		ite	ne
 633 0302 0023     		movne	r3, #0
 634 0304 0123     		moveq	r3, #1
 635 0306 DBB2     		uxtb	r3, r3
 636 0308 0220     		movs	r0, #2
 637 030a 1946     		mov	r1, r3
 638 030c FFF7FEFF 		bl	_test_assert
 639 0310 0346     		mov	r3, r0
 640 0312 002B     		cmp	r3, #0
 641 0314 00D0     		beq	.L29
 642              		.loc 6 132 0 is_stmt 0 discriminator 1
 643 0316 C5E0     		b	.L26
 644              	.L29:
 645              		.loc 6 134 0 is_stmt 1
 646 0318 0098     		ldr	r0, [sp]
 647 031a FFF7FEFF 		bl	chThdSetPriority
 648 031e 0090     		str	r0, [sp]
 649              		.loc 6 135 0
 650 0320 019B     		ldr	r3, [sp, #4]
 651 0322 5A1C     		adds	r2, r3, #1
 652 0324 009B     		ldr	r3, [sp]
 653 0326 9A42     		cmp	r2, r3
 654 0328 14BF     		ite	ne
 655 032a 0023     		movne	r3, #0
 656 032c 0123     		moveq	r3, #1
 657 032e DBB2     		uxtb	r3, r3
 658 0330 0320     		movs	r0, #3
 659 0332 1946     		mov	r1, r3
 660 0334 FFF7FEFF 		bl	_test_assert
 661 0338 0346     		mov	r3, r0
 662 033a 002B     		cmp	r3, #0
 663 033c 00D0     		beq	.L30
 664              		.loc 6 135 0 is_stmt 0 discriminator 1
 665 033e B1E0     		b	.L26
 666              	.L30:
 667              		.loc 6 137 0 is_stmt 1
 668 0340 FFF79EFE 		bl	chThdGetPriorityX
 669 0344 0246     		mov	r2, r0
ARM GAS  /tmp/ccbYiKJF.s 			page 13


 670 0346 019B     		ldr	r3, [sp, #4]
 671 0348 9A42     		cmp	r2, r3
 672 034a 14BF     		ite	ne
 673 034c 0023     		movne	r3, #0
 674 034e 0123     		moveq	r3, #1
 675 0350 DBB2     		uxtb	r3, r3
 676 0352 0420     		movs	r0, #4
 677 0354 1946     		mov	r1, r3
 678 0356 FFF7FEFF 		bl	_test_assert
 679 035a 0346     		mov	r3, r0
 680 035c 002B     		cmp	r3, #0
 681 035e 00D0     		beq	.L31
 682              		.loc 6 137 0 is_stmt 0 discriminator 1
 683 0360 A0E0     		b	.L26
 684              	.L31:
 685              		.loc 6 142 0 is_stmt 1
 686 0362 FFF75DFE 		bl	chSysLock
 687              		.loc 6 143 0
 688 0366 FFF783FE 		bl	chThdGetSelfX
 689 036a 0346     		mov	r3, r0
 690 036c 9A68     		ldr	r2, [r3, #8]
 691 036e 0232     		adds	r2, r2, #2
 692 0370 9A60     		str	r2, [r3, #8]
 693              		.loc 6 144 0
 694 0372 FFF75DFE 		bl	chSysUnlock
 695              		.loc 6 145 0
 696 0376 FFF783FE 		bl	chThdGetPriorityX
 697 037a 0246     		mov	r2, r0
 698 037c 019B     		ldr	r3, [sp, #4]
 699 037e 0233     		adds	r3, r3, #2
 700 0380 9A42     		cmp	r2, r3
 701 0382 14BF     		ite	ne
 702 0384 0023     		movne	r3, #0
 703 0386 0123     		moveq	r3, #1
 704 0388 DBB2     		uxtb	r3, r3
 705 038a 0520     		movs	r0, #5
 706 038c 1946     		mov	r1, r3
 707 038e FFF7FEFF 		bl	_test_assert
 708 0392 0346     		mov	r3, r0
 709 0394 002B     		cmp	r3, #0
 710 0396 00D0     		beq	.L32
 711              		.loc 6 145 0 is_stmt 0 discriminator 1
 712 0398 84E0     		b	.L26
 713              	.L32:
 714              		.loc 6 149 0 is_stmt 1
 715 039a 019B     		ldr	r3, [sp, #4]
 716 039c 0133     		adds	r3, r3, #1
 717 039e 1846     		mov	r0, r3
 718 03a0 FFF7FEFF 		bl	chThdSetPriority
 719 03a4 0090     		str	r0, [sp]
 720              		.loc 6 150 0
 721 03a6 009A     		ldr	r2, [sp]
 722 03a8 019B     		ldr	r3, [sp, #4]
 723 03aa 9A42     		cmp	r2, r3
 724 03ac 14BF     		ite	ne
 725 03ae 0023     		movne	r3, #0
 726 03b0 0123     		moveq	r3, #1
ARM GAS  /tmp/ccbYiKJF.s 			page 14


 727 03b2 DBB2     		uxtb	r3, r3
 728 03b4 0620     		movs	r0, #6
 729 03b6 1946     		mov	r1, r3
 730 03b8 FFF7FEFF 		bl	_test_assert
 731 03bc 0346     		mov	r3, r0
 732 03be 002B     		cmp	r3, #0
 733 03c0 00D0     		beq	.L33
 734              		.loc 6 150 0 is_stmt 0 discriminator 1
 735 03c2 6FE0     		b	.L26
 736              	.L33:
 737              		.loc 6 152 0 is_stmt 1
 738 03c4 FFF754FE 		bl	chThdGetSelfX
 739 03c8 0346     		mov	r3, r0
 740 03ca 9A68     		ldr	r2, [r3, #8]
 741 03cc 019B     		ldr	r3, [sp, #4]
 742 03ce 0233     		adds	r3, r3, #2
 743 03d0 9A42     		cmp	r2, r3
 744 03d2 14BF     		ite	ne
 745 03d4 0023     		movne	r3, #0
 746 03d6 0123     		moveq	r3, #1
 747 03d8 DBB2     		uxtb	r3, r3
 748 03da 0720     		movs	r0, #7
 749 03dc 1946     		mov	r1, r3
 750 03de FFF7FEFF 		bl	_test_assert
 751 03e2 0346     		mov	r3, r0
 752 03e4 002B     		cmp	r3, #0
 753 03e6 00D0     		beq	.L34
 754              		.loc 6 152 0 is_stmt 0 discriminator 1
 755 03e8 5CE0     		b	.L26
 756              	.L34:
 757              		.loc 6 154 0 is_stmt 1
 758 03ea FFF741FE 		bl	chThdGetSelfX
 759 03ee 0346     		mov	r3, r0
 760 03f0 DA6B     		ldr	r2, [r3, #60]
 761 03f2 019B     		ldr	r3, [sp, #4]
 762 03f4 0133     		adds	r3, r3, #1
 763 03f6 9A42     		cmp	r2, r3
 764 03f8 14BF     		ite	ne
 765 03fa 0023     		movne	r3, #0
 766 03fc 0123     		moveq	r3, #1
 767 03fe DBB2     		uxtb	r3, r3
 768 0400 0820     		movs	r0, #8
 769 0402 1946     		mov	r1, r3
 770 0404 FFF7FEFF 		bl	_test_assert
 771 0408 0346     		mov	r3, r0
 772 040a 002B     		cmp	r3, #0
 773 040c 00D0     		beq	.L35
 774              		.loc 6 154 0 is_stmt 0 discriminator 1
 775 040e 49E0     		b	.L26
 776              	.L35:
 777              		.loc 6 158 0 is_stmt 1
 778 0410 019B     		ldr	r3, [sp, #4]
 779 0412 0333     		adds	r3, r3, #3
 780 0414 1846     		mov	r0, r3
 781 0416 FFF7FEFF 		bl	chThdSetPriority
 782 041a 0090     		str	r0, [sp]
 783              		.loc 6 159 0
ARM GAS  /tmp/ccbYiKJF.s 			page 15


 784 041c 019B     		ldr	r3, [sp, #4]
 785 041e 5A1C     		adds	r2, r3, #1
 786 0420 009B     		ldr	r3, [sp]
 787 0422 9A42     		cmp	r2, r3
 788 0424 14BF     		ite	ne
 789 0426 0023     		movne	r3, #0
 790 0428 0123     		moveq	r3, #1
 791 042a DBB2     		uxtb	r3, r3
 792 042c 0920     		movs	r0, #9
 793 042e 1946     		mov	r1, r3
 794 0430 FFF7FEFF 		bl	_test_assert
 795 0434 0346     		mov	r3, r0
 796 0436 002B     		cmp	r3, #0
 797 0438 00D0     		beq	.L36
 798              		.loc 6 159 0 is_stmt 0 discriminator 1
 799 043a 33E0     		b	.L26
 800              	.L36:
 801              		.loc 6 161 0 is_stmt 1
 802 043c FFF718FE 		bl	chThdGetSelfX
 803 0440 0346     		mov	r3, r0
 804 0442 9A68     		ldr	r2, [r3, #8]
 805 0444 019B     		ldr	r3, [sp, #4]
 806 0446 0333     		adds	r3, r3, #3
 807 0448 9A42     		cmp	r2, r3
 808 044a 14BF     		ite	ne
 809 044c 0023     		movne	r3, #0
 810 044e 0123     		moveq	r3, #1
 811 0450 DBB2     		uxtb	r3, r3
 812 0452 0A20     		movs	r0, #10
 813 0454 1946     		mov	r1, r3
 814 0456 FFF7FEFF 		bl	_test_assert
 815 045a 0346     		mov	r3, r0
 816 045c 002B     		cmp	r3, #0
 817 045e 00D0     		beq	.L37
 818              		.loc 6 161 0 is_stmt 0 discriminator 1
 819 0460 20E0     		b	.L26
 820              	.L37:
 821              		.loc 6 163 0 is_stmt 1
 822 0462 FFF705FE 		bl	chThdGetSelfX
 823 0466 0346     		mov	r3, r0
 824 0468 DA6B     		ldr	r2, [r3, #60]
 825 046a 019B     		ldr	r3, [sp, #4]
 826 046c 0333     		adds	r3, r3, #3
 827 046e 9A42     		cmp	r2, r3
 828 0470 14BF     		ite	ne
 829 0472 0023     		movne	r3, #0
 830 0474 0123     		moveq	r3, #1
 831 0476 DBB2     		uxtb	r3, r3
 832 0478 0B20     		movs	r0, #11
 833 047a 1946     		mov	r1, r3
 834 047c FFF7FEFF 		bl	_test_assert
 835 0480 0346     		mov	r3, r0
 836 0482 002B     		cmp	r3, #0
 837 0484 00D0     		beq	.L38
 838              		.loc 6 163 0 is_stmt 0 discriminator 1
 839 0486 0DE0     		b	.L26
 840              	.L38:
ARM GAS  /tmp/ccbYiKJF.s 			page 16


 841              		.loc 6 166 0 is_stmt 1
 842 0488 FFF7CAFD 		bl	chSysLock
 843              		.loc 6 167 0
 844 048c FFF7F0FD 		bl	chThdGetSelfX
 845 0490 0346     		mov	r3, r0
 846 0492 019A     		ldr	r2, [sp, #4]
 847 0494 9A60     		str	r2, [r3, #8]
 848              		.loc 6 168 0
 849 0496 FFF7EBFD 		bl	chThdGetSelfX
 850 049a 0346     		mov	r3, r0
 851 049c 019A     		ldr	r2, [sp, #4]
 852 049e DA63     		str	r2, [r3, #60]
 853              		.loc 6 169 0
 854 04a0 FFF7C6FD 		bl	chSysUnlock
 855              	.L26:
 856              		.loc 6 171 0
 857 04a4 03B0     		add	sp, sp, #12
 858              		@ sp needed
 859 04a6 5DF804FB 		ldr	pc, [sp], #4
 860              		.cfi_endproc
 861              	.LFE235:
 862              		.size	thd3_execute, .-thd3_execute
 863              		.global	testthd3
 864              		.section	.rodata
 865              		.align	2
 866              	.LC8:
 867 0074 54687265 		.ascii	"Threads, priority change\000"
 867      6164732C 
 867      20707269 
 867      6F726974 
 867      79206368 
 868 008d 000000   		.align	2
 869              		.type	testthd3, %object
 870              		.size	testthd3, 16
 871              	testthd3:
 872 0090 74000000 		.word	.LC8
 873 0094 00000000 		.word	0
 874 0098 00000000 		.word	0
 875 009c 00000000 		.word	thd3_execute
 876              		.text
 877 04aa 00BF     		.align	2
 878 04ac AFF30080 		.p2align 4,,15
 879              		.thumb
 880              		.thumb_func
 881              		.type	thd4_execute, %function
 882              	thd4_execute:
 883              	.LFB236:
 884              		.loc 6 188 0
 885              		.cfi_startproc
 886              		@ args = 0, pretend = 0, frame = 8
 887              		@ frame_needed = 0, uses_anonymous_args = 0
 888 04b0 00B5     		push	{lr}
 889              		.cfi_def_cfa_offset 4
 890              		.cfi_offset 14, -4
 891 04b2 83B0     		sub	sp, sp, #12
 892              		.cfi_def_cfa_offset 16
 893              		.loc 6 191 0
ARM GAS  /tmp/ccbYiKJF.s 			page 17


 894 04b4 FFF7FEFF 		bl	test_wait_tick
 895              		.loc 6 194 0
 896 04b8 FFF7CAFD 		bl	chVTGetSystemTime
 897 04bc 0190     		str	r0, [sp, #4]
 898              		.loc 6 195 0
 899 04be 6420     		movs	r0, #100
 900 04c0 FFF7FEFF 		bl	chThdSleep
 901              		.loc 6 196 0
 902 04c4 019B     		ldr	r3, [sp, #4]
 903 04c6 03F16402 		add	r2, r3, #100
 904 04ca 019B     		ldr	r3, [sp, #4]
 905 04cc 6533     		adds	r3, r3, #101
 906 04ce 0120     		movs	r0, #1
 907 04d0 1146     		mov	r1, r2
 908 04d2 1A46     		mov	r2, r3
 909 04d4 FFF7FEFF 		bl	_test_assert_time_window
 910 04d8 0346     		mov	r3, r0
 911 04da 002B     		cmp	r3, #0
 912 04dc 00D0     		beq	.L40
 913              		.loc 6 196 0 is_stmt 0 discriminator 1
 914 04de 3CE0     		b	.L39
 915              	.L40:
 916              		.loc 6 201 0 is_stmt 1
 917 04e0 FFF7B6FD 		bl	chVTGetSystemTime
 918 04e4 0190     		str	r0, [sp, #4]
 919              		.loc 6 202 0
 920 04e6 6420     		movs	r0, #100
 921 04e8 FFF7FEFF 		bl	chThdSleep
 922              		.loc 6 203 0
 923 04ec 019B     		ldr	r3, [sp, #4]
 924 04ee 03F16402 		add	r2, r3, #100
 925 04f2 019B     		ldr	r3, [sp, #4]
 926 04f4 6533     		adds	r3, r3, #101
 927 04f6 0220     		movs	r0, #2
 928 04f8 1146     		mov	r1, r2
 929 04fa 1A46     		mov	r2, r3
 930 04fc FFF7FEFF 		bl	_test_assert_time_window
 931 0500 0346     		mov	r3, r0
 932 0502 002B     		cmp	r3, #0
 933 0504 00D0     		beq	.L42
 934              		.loc 6 203 0 is_stmt 0 discriminator 1
 935 0506 28E0     		b	.L39
 936              	.L42:
 937              		.loc 6 208 0 is_stmt 1
 938 0508 FFF7A2FD 		bl	chVTGetSystemTime
 939 050c 0190     		str	r0, [sp, #4]
 940              		.loc 6 209 0
 941 050e 4FF47A70 		mov	r0, #1000
 942 0512 FFF7FEFF 		bl	chThdSleep
 943              		.loc 6 210 0
 944 0516 019B     		ldr	r3, [sp, #4]
 945 0518 03F57A72 		add	r2, r3, #1000
 946 051c 019B     		ldr	r3, [sp, #4]
 947 051e 03F2E933 		addw	r3, r3, #1001
 948 0522 0320     		movs	r0, #3
 949 0524 1146     		mov	r1, r2
 950 0526 1A46     		mov	r2, r3
ARM GAS  /tmp/ccbYiKJF.s 			page 18


 951 0528 FFF7FEFF 		bl	_test_assert_time_window
 952 052c 0346     		mov	r3, r0
 953 052e 002B     		cmp	r3, #0
 954 0530 00D0     		beq	.L43
 955              		.loc 6 210 0 is_stmt 0 discriminator 1
 956 0532 12E0     		b	.L39
 957              	.L43:
 958              		.loc 6 215 0 is_stmt 1
 959 0534 FFF78CFD 		bl	chVTGetSystemTime
 960 0538 0346     		mov	r3, r0
 961 053a 6433     		adds	r3, r3, #100
 962 053c 0193     		str	r3, [sp, #4]
 963              		.loc 6 216 0
 964 053e 0198     		ldr	r0, [sp, #4]
 965 0540 FFF7FEFF 		bl	chThdSleepUntil
 966              		.loc 6 217 0
 967 0544 019B     		ldr	r3, [sp, #4]
 968 0546 0133     		adds	r3, r3, #1
 969 0548 0420     		movs	r0, #4
 970 054a 0199     		ldr	r1, [sp, #4]
 971 054c 1A46     		mov	r2, r3
 972 054e FFF7FEFF 		bl	_test_assert_time_window
 973 0552 0346     		mov	r3, r0
 974 0554 002B     		cmp	r3, #0
 975 0556 00D0     		beq	.L39
 976              		.loc 6 217 0 is_stmt 0 discriminator 1
 977 0558 00BF     		nop
 978              	.L39:
 979              		.loc 6 220 0 is_stmt 1
 980 055a 03B0     		add	sp, sp, #12
 981              		@ sp needed
 982 055c 5DF804FB 		ldr	pc, [sp], #4
 983              		.cfi_endproc
 984              	.LFE236:
 985              		.size	thd4_execute, .-thd4_execute
 986              		.global	testthd4
 987              		.section	.rodata
 988              		.align	2
 989              	.LC9:
 990 00a0 54687265 		.ascii	"Threads, delays\000"
 990      6164732C 
 990      2064656C 
 990      61797300 
 991              		.align	2
 992              		.type	testthd4, %object
 993              		.size	testthd4, 16
 994              	testthd4:
 995 00b0 A0000000 		.word	.LC9
 996 00b4 00000000 		.word	0
 997 00b8 00000000 		.word	0
 998 00bc 00000000 		.word	thd4_execute
 999              		.global	patternthd
 1000              		.align	2
 1001              		.type	patternthd, %object
 1002              		.size	patternthd, 20
 1003              	patternthd:
 1004 00c0 00000000 		.word	testthd1
ARM GAS  /tmp/ccbYiKJF.s 			page 19


 1005 00c4 00000000 		.word	testthd2
 1006 00c8 00000000 		.word	testthd3
 1007 00cc 00000000 		.word	testthd4
 1008 00d0 00000000 		.word	0
 1009              		.text
 1010              	.Letext0:
 1011              		.file 7 "/nfs/nfs5/home/research/hardware/arm2/gcc-arm-embedded/gcc-arm-none-eabi-4_8-2014q2/lib/g
 1012              		.file 8 "/nfs/nfs5/home/research/hardware/arm2/gcc-arm-embedded/gcc-arm-none-eabi-4_8-2014q2/arm-n
 1013              		.file 9 "/nfs/nfs5/home/research/hardware/arm2/gcc-arm-embedded/gcc-arm-none-eabi-4_8-2014q2/arm-n
 1014              		.file 10 "../../../../../../ChibiOS/os/rt/ports/ARMCMx/compilers/GCC/chtypes.h"
 1015              		.file 11 "../../../../../../ChibiOS/os/rt/include/chsystypes.h"
 1016              		.file 12 "../../../../../../ChibiOS/os/rt/include/chschd.h"
 1017              		.file 13 "../../../../../../ChibiOS/os/rt/ports/ARMCMx/chcore.h"
 1018              		.file 14 "../../../../../../ChibiOS/os/rt/include/chtm.h"
 1019              		.file 15 "../../../../../../ChibiOS/os/rt/include/chsem.h"
 1020              		.file 16 "../../../../../../ChibiOS/os/rt/include/chmtx.h"
 1021              		.file 17 "../../../../../../ChibiOS/test/rt/test.h"
 1022              		.file 18 "../../../../../../ChibiOS/os/ext/CMSIS/include/core_cm4.h"