ARM GAS  /tmp/ccXGemEg.s 			page 1


   1              		.syntax unified
   2              		.cpu cortex-m4
   3              		.fpu softvfp
   4              		.eabi_attribute 20, 1
   5              		.eabi_attribute 21, 1
   6              		.eabi_attribute 23, 3
   7              		.eabi_attribute 24, 1
   8              		.eabi_attribute 25, 1
   9              		.eabi_attribute 26, 1
  10              		.eabi_attribute 30, 6
  11              		.eabi_attribute 34, 1
  12              		.eabi_attribute 18, 4
  13              		.thumb
  14              		.file	"testevt.c"
  15              		.text
  16              	.Ltext0:
  17              		.cfi_sections	.debug_frame
  18              		.align	2
  19              		.p2align 4,,15
  20              		.thumb
  21              		.thumb_func
  22              		.type	port_lock, %function
  23              	port_lock:
  24              	.LFB129:
  25              		.file 1 "../../../../../../ChibiOS/os/rt/ports/ARMCMx/chcore_v7m.h"
  26              		.loc 1 456 0
  27              		.cfi_startproc
  28              		@ args = 0, pretend = 0, frame = 8
  29              		@ frame_needed = 0, uses_anonymous_args = 0
  30              		@ link register save eliminated.
  31 0000 82B0     		sub	sp, sp, #8
  32              		.cfi_def_cfa_offset 8
  33 0002 2023     		movs	r3, #32
  34 0004 0193     		str	r3, [sp, #4]
  35              	.LBB6:
  36              	.LBB7:
  37              		.file 2 "../../../../../../ChibiOS/os/ext/CMSIS/include/core_cmFunc.h"
  38              		.loc 2 548 0
  39 0006 019B     		ldr	r3, [sp, #4]
  40              	@ 548 "../../../../../../ChibiOS/os/ext/CMSIS/include/core_cmFunc.h" 1
  41 0008 83F31188 		MSR basepri, r3
  42              	@ 0 "" 2
  43              		.thumb
  44              	.LBE7:
  45              	.LBE6:
  46              		.loc 1 473 0
  47 000c 02B0     		add	sp, sp, #8
  48              		@ sp needed
  49 000e 7047     		bx	lr
  50              		.cfi_endproc
  51              	.LFE129:
  52              		.size	port_lock, .-port_lock
  53              		.align	2
  54              		.p2align 4,,15
  55              		.thumb
  56              		.thumb_func
  57              		.type	port_unlock, %function
ARM GAS  /tmp/ccXGemEg.s 			page 2


  58              	port_unlock:
  59              	.LFB130:
  60              		.loc 1 480 0
  61              		.cfi_startproc
  62              		@ args = 0, pretend = 0, frame = 8
  63              		@ frame_needed = 0, uses_anonymous_args = 0
  64              		@ link register save eliminated.
  65 0010 82B0     		sub	sp, sp, #8
  66              		.cfi_def_cfa_offset 8
  67 0012 0023     		movs	r3, #0
  68 0014 0193     		str	r3, [sp, #4]
  69              	.LBB8:
  70              	.LBB9:
  71              		.loc 2 548 0
  72 0016 019B     		ldr	r3, [sp, #4]
  73              	@ 548 "../../../../../../ChibiOS/os/ext/CMSIS/include/core_cmFunc.h" 1
  74 0018 83F31188 		MSR basepri, r3
  75              	@ 0 "" 2
  76              		.thumb
  77              	.LBE9:
  78              	.LBE8:
  79              		.loc 1 487 0
  80 001c 02B0     		add	sp, sp, #8
  81              		@ sp needed
  82 001e 7047     		bx	lr
  83              		.cfi_endproc
  84              	.LFE130:
  85              		.size	port_unlock, .-port_unlock
  86              		.align	2
  87              		.p2align 4,,15
  88              		.thumb
  89              		.thumb_func
  90              		.type	chSysLock, %function
  91              	chSysLock:
  92              	.LFB158:
  93              		.file 3 "../../../../../../ChibiOS/os/rt/include/chsys.h"
  94              		.loc 3 346 0
  95              		.cfi_startproc
  96              		@ args = 0, pretend = 0, frame = 0
  97              		@ frame_needed = 0, uses_anonymous_args = 0
  98 0020 08B5     		push	{r3, lr}
  99              		.cfi_def_cfa_offset 8
 100              		.cfi_offset 3, -8
 101              		.cfi_offset 14, -4
 102              		.loc 3 348 0
 103 0022 FFF7EDFF 		bl	port_lock
 104              		.loc 3 351 0
 105 0026 08BD     		pop	{r3, pc}
 106              		.cfi_endproc
 107              	.LFE158:
 108              		.size	chSysLock, .-chSysLock
 109              		.align	2
 110 0028 AFF30080 		.p2align 4,,15
 110      AFF30080 
 111              		.thumb
 112              		.thumb_func
 113              		.type	chSysUnlock, %function
ARM GAS  /tmp/ccXGemEg.s 			page 3


 114              	chSysUnlock:
 115              	.LFB159:
 116              		.loc 3 358 0
 117              		.cfi_startproc
 118              		@ args = 0, pretend = 0, frame = 0
 119              		@ frame_needed = 0, uses_anonymous_args = 0
 120 0030 08B5     		push	{r3, lr}
 121              		.cfi_def_cfa_offset 8
 122              		.cfi_offset 3, -8
 123              		.cfi_offset 14, -4
 124              		.loc 3 371 0
 125 0032 FFF7EDFF 		bl	port_unlock
 126              		.loc 3 372 0
 127 0036 08BD     		pop	{r3, pc}
 128              		.cfi_endproc
 129              	.LFE159:
 130              		.size	chSysUnlock, .-chSysUnlock
 131              		.align	2
 132 0038 AFF30080 		.p2align 4,,15
 132      AFF30080 
 133              		.thumb
 134              		.thumb_func
 135              		.type	chVTGetSystemTimeX, %function
 136              	chVTGetSystemTimeX:
 137              	.LFB166:
 138              		.file 4 "../../../../../../ChibiOS/os/rt/include/chvt.h"
 139              		.loc 4 228 0
 140              		.cfi_startproc
 141              		@ args = 0, pretend = 0, frame = 0
 142              		@ frame_needed = 0, uses_anonymous_args = 0
 143              		@ link register save eliminated.
 144              		.loc 4 231 0
 145 0040 014B     		ldr	r3, .L7
 146 0042 9B6A     		ldr	r3, [r3, #40]
 147              		.loc 4 235 0
 148 0044 1846     		mov	r0, r3
 149 0046 7047     		bx	lr
 150              	.L8:
 151              		.align	2
 152              	.L7:
 153 0048 00000000 		.word	ch
 154              		.cfi_endproc
 155              	.LFE166:
 156              		.size	chVTGetSystemTimeX, .-chVTGetSystemTimeX
 157              		.align	2
 158 004c AFF30080 		.p2align 4,,15
 159              		.thumb
 160              		.thumb_func
 161              		.type	chVTGetSystemTime, %function
 162              	chVTGetSystemTime:
 163              	.LFB167:
 164              		.loc 4 247 0
 165              		.cfi_startproc
 166              		@ args = 0, pretend = 0, frame = 8
 167              		@ frame_needed = 0, uses_anonymous_args = 0
 168 0050 00B5     		push	{lr}
 169              		.cfi_def_cfa_offset 4
ARM GAS  /tmp/ccXGemEg.s 			page 4


 170              		.cfi_offset 14, -4
 171 0052 83B0     		sub	sp, sp, #12
 172              		.cfi_def_cfa_offset 16
 173              		.loc 4 250 0
 174 0054 FFF7E4FF 		bl	chSysLock
 175              		.loc 4 251 0
 176 0058 FFF7F2FF 		bl	chVTGetSystemTimeX
 177 005c 0190     		str	r0, [sp, #4]
 178              		.loc 4 252 0
 179 005e FFF7E7FF 		bl	chSysUnlock
 180              		.loc 4 254 0
 181 0062 019B     		ldr	r3, [sp, #4]
 182              		.loc 4 255 0
 183 0064 1846     		mov	r0, r3
 184 0066 03B0     		add	sp, sp, #12
 185              		@ sp needed
 186 0068 5DF804FB 		ldr	pc, [sp], #4
 187              		.cfi_endproc
 188              	.LFE167:
 189              		.size	chVTGetSystemTime, .-chVTGetSystemTime
 190              		.align	2
 191 006c AFF30080 		.p2align 4,,15
 192              		.thumb
 193              		.thumb_func
 194              		.type	chThdGetSelfX, %function
 195              	chThdGetSelfX:
 196              	.LFB180:
 197              		.file 5 "../../../../../../ChibiOS/os/rt/include/chthreads.h"
 198              		.loc 5 174 0
 199              		.cfi_startproc
 200              		@ args = 0, pretend = 0, frame = 0
 201              		@ frame_needed = 0, uses_anonymous_args = 0
 202              		@ link register save eliminated.
 203              		.loc 5 176 0
 204 0070 014B     		ldr	r3, .L13
 205 0072 9B69     		ldr	r3, [r3, #24]
 206              		.loc 5 177 0
 207 0074 1846     		mov	r0, r3
 208 0076 7047     		bx	lr
 209              	.L14:
 210              		.align	2
 211              	.L13:
 212 0078 00000000 		.word	ch
 213              		.cfi_endproc
 214              	.LFE180:
 215              		.size	chThdGetSelfX, .-chThdGetSelfX
 216              		.align	2
 217 007c AFF30080 		.p2align 4,,15
 218              		.thumb
 219              		.thumb_func
 220              		.type	chThdGetPriorityX, %function
 221              	chThdGetPriorityX:
 222              	.LFB181:
 223              		.loc 5 187 0
 224              		.cfi_startproc
 225              		@ args = 0, pretend = 0, frame = 0
 226              		@ frame_needed = 0, uses_anonymous_args = 0
ARM GAS  /tmp/ccXGemEg.s 			page 5


 227 0080 08B5     		push	{r3, lr}
 228              		.cfi_def_cfa_offset 8
 229              		.cfi_offset 3, -8
 230              		.cfi_offset 14, -4
 231              		.loc 5 189 0
 232 0082 FFF7F5FF 		bl	chThdGetSelfX
 233 0086 0346     		mov	r3, r0
 234 0088 9B68     		ldr	r3, [r3, #8]
 235              		.loc 5 190 0
 236 008a 1846     		mov	r0, r3
 237 008c 08BD     		pop	{r3, pc}
 238              		.cfi_endproc
 239              	.LFE181:
 240              		.size	chThdGetPriorityX, .-chThdGetPriorityX
 241 008e 00BF     		.align	2
 242              		.p2align 4,,15
 243              		.thumb
 244              		.thumb_func
 245              		.type	chEvtObjectInit, %function
 246              	chEvtObjectInit:
 247              	.LFB207:
 248              		.file 6 "../../../../../../ChibiOS/os/rt/include/chevents.h"
 249              		.loc 6 170 0
 250              		.cfi_startproc
 251              		@ args = 0, pretend = 0, frame = 8
 252              		@ frame_needed = 0, uses_anonymous_args = 0
 253              		@ link register save eliminated.
 254 0090 82B0     		sub	sp, sp, #8
 255              		.cfi_def_cfa_offset 8
 256 0092 0190     		str	r0, [sp, #4]
 257              		.loc 6 172 0
 258 0094 019B     		ldr	r3, [sp, #4]
 259 0096 019A     		ldr	r2, [sp, #4]
 260 0098 1A60     		str	r2, [r3]
 261              		.loc 6 173 0
 262 009a 02B0     		add	sp, sp, #8
 263              		@ sp needed
 264 009c 7047     		bx	lr
 265              		.cfi_endproc
 266              	.LFE207:
 267              		.size	chEvtObjectInit, .-chEvtObjectInit
 268 009e 00BF     		.align	2
 269              		.p2align 4,,15
 270              		.thumb
 271              		.thumb_func
 272              		.type	chEvtRegisterMask, %function
 273              	chEvtRegisterMask:
 274              	.LFB208:
 275              		.loc 6 191 0
 276              		.cfi_startproc
 277              		@ args = 0, pretend = 0, frame = 16
 278              		@ frame_needed = 0, uses_anonymous_args = 0
 279 00a0 00B5     		push	{lr}
 280              		.cfi_def_cfa_offset 4
 281              		.cfi_offset 14, -4
 282 00a2 85B0     		sub	sp, sp, #20
 283              		.cfi_def_cfa_offset 24
ARM GAS  /tmp/ccXGemEg.s 			page 6


 284 00a4 0390     		str	r0, [sp, #12]
 285 00a6 0291     		str	r1, [sp, #8]
 286 00a8 0192     		str	r2, [sp, #4]
 287              		.loc 6 193 0
 288 00aa 0398     		ldr	r0, [sp, #12]
 289 00ac 0299     		ldr	r1, [sp, #8]
 290 00ae 019A     		ldr	r2, [sp, #4]
 291 00b0 4FF0FF33 		mov	r3, #-1
 292 00b4 FFF7FEFF 		bl	chEvtRegisterMaskWithFlags
 293              		.loc 6 194 0
 294 00b8 05B0     		add	sp, sp, #20
 295              		@ sp needed
 296 00ba 5DF804FB 		ldr	pc, [sp], #4
 297              		.cfi_endproc
 298              	.LFE208:
 299              		.size	chEvtRegisterMask, .-chEvtRegisterMask
 300 00be 00BF     		.align	2
 301              		.p2align 4,,15
 302              		.thumb
 303              		.thumb_func
 304              		.type	chEvtIsListeningI, %function
 305              	chEvtIsListeningI:
 306              	.LFB210:
 307              		.loc 6 224 0
 308              		.cfi_startproc
 309              		@ args = 0, pretend = 0, frame = 8
 310              		@ frame_needed = 0, uses_anonymous_args = 0
 311              		@ link register save eliminated.
 312 00c0 82B0     		sub	sp, sp, #8
 313              		.cfi_def_cfa_offset 8
 314 00c2 0190     		str	r0, [sp, #4]
 315              		.loc 6 226 0
 316 00c4 019B     		ldr	r3, [sp, #4]
 317 00c6 1A68     		ldr	r2, [r3]
 318 00c8 019B     		ldr	r3, [sp, #4]
 319 00ca 9A42     		cmp	r2, r3
 320 00cc 0CBF     		ite	eq
 321 00ce 0023     		moveq	r3, #0
 322 00d0 0123     		movne	r3, #1
 323 00d2 DBB2     		uxtb	r3, r3
 324              		.loc 6 227 0
 325 00d4 1846     		mov	r0, r3
 326 00d6 02B0     		add	sp, sp, #8
 327              		@ sp needed
 328 00d8 7047     		bx	lr
 329              		.cfi_endproc
 330              	.LFE210:
 331              		.size	chEvtIsListeningI, .-chEvtIsListeningI
 332 00da 00BF     		.align	2
 333 00dc AFF30080 		.p2align 4,,15
 334              		.thumb
 335              		.thumb_func
 336              		.type	chEvtBroadcast, %function
 337              	chEvtBroadcast:
 338              	.LFB211:
 339              		.loc 6 237 0
 340              		.cfi_startproc
ARM GAS  /tmp/ccXGemEg.s 			page 7


 341              		@ args = 0, pretend = 0, frame = 8
 342              		@ frame_needed = 0, uses_anonymous_args = 0
 343 00e0 00B5     		push	{lr}
 344              		.cfi_def_cfa_offset 4
 345              		.cfi_offset 14, -4
 346 00e2 83B0     		sub	sp, sp, #12
 347              		.cfi_def_cfa_offset 16
 348 00e4 0190     		str	r0, [sp, #4]
 349              		.loc 6 239 0
 350 00e6 0198     		ldr	r0, [sp, #4]
 351 00e8 0021     		movs	r1, #0
 352 00ea FFF7FEFF 		bl	chEvtBroadcastFlags
 353              		.loc 6 240 0
 354 00ee 03B0     		add	sp, sp, #12
 355              		@ sp needed
 356 00f0 5DF804FB 		ldr	pc, [sp], #4
 357              		.cfi_endproc
 358              	.LFE211:
 359              		.size	chEvtBroadcast, .-chEvtBroadcast
 360              		.data
 361              		.align	2
 362              		.type	es1, %object
 363              		.size	es1, 4
 364              	es1:
 365 0000 00000000 		.word	es1
 366              		.align	2
 367              		.type	es2, %object
 368              		.size	es2, 4
 369              	es2:
 370 0004 04000000 		.word	es2
 371              		.text
 372              		.align	2
 373 00f4 AFF30080 		.p2align 4,,15
 373      AFF30080 
 373      AFF30080 
 374              		.thumb
 375              		.thumb_func
 376              		.type	evt1_setup, %function
 377              	evt1_setup:
 378              	.LFB232:
 379              		.file 7 "../../../../../../ChibiOS/test/rt/testevt.c"
 380              		.loc 7 75 0
 381              		.cfi_startproc
 382              		@ args = 0, pretend = 0, frame = 0
 383              		@ frame_needed = 0, uses_anonymous_args = 0
 384 0100 08B5     		push	{r3, lr}
 385              		.cfi_def_cfa_offset 8
 386              		.cfi_offset 3, -8
 387              		.cfi_offset 14, -4
 388              		.loc 7 77 0
 389 0102 4FF0FF30 		mov	r0, #-1
 390 0106 FFF7FEFF 		bl	chEvtGetAndClearEvents
 391              		.loc 7 78 0
 392 010a 08BD     		pop	{r3, pc}
 393              		.cfi_endproc
 394              	.LFE232:
 395              		.size	evt1_setup, .-evt1_setup
ARM GAS  /tmp/ccXGemEg.s 			page 8


 396              		.align	2
 397 010c AFF30080 		.p2align 4,,15
 398              		.thumb
 399              		.thumb_func
 400              		.type	h1, %function
 401              	h1:
 402              	.LFB233:
 403              		.loc 7 80 0
 404              		.cfi_startproc
 405              		@ args = 0, pretend = 0, frame = 8
 406              		@ frame_needed = 0, uses_anonymous_args = 0
 407 0110 00B5     		push	{lr}
 408              		.cfi_def_cfa_offset 4
 409              		.cfi_offset 14, -4
 410 0112 83B0     		sub	sp, sp, #12
 411              		.cfi_def_cfa_offset 16
 412 0114 0190     		str	r0, [sp, #4]
 413              		.loc 7 80 0
 414 0116 4120     		movs	r0, #65
 415 0118 FFF7FEFF 		bl	test_emit_token
 416 011c 03B0     		add	sp, sp, #12
 417              		@ sp needed
 418 011e 5DF804FB 		ldr	pc, [sp], #4
 419              		.cfi_endproc
 420              	.LFE233:
 421              		.size	h1, .-h1
 422 0122 00BF     		.align	2
 423 0124 AFF30080 		.p2align 4,,15
 423      AFF30080 
 423      AFF30080 
 424              		.thumb
 425              		.thumb_func
 426              		.type	h2, %function
 427              	h2:
 428              	.LFB234:
 429              		.loc 7 81 0
 430              		.cfi_startproc
 431              		@ args = 0, pretend = 0, frame = 8
 432              		@ frame_needed = 0, uses_anonymous_args = 0
 433 0130 00B5     		push	{lr}
 434              		.cfi_def_cfa_offset 4
 435              		.cfi_offset 14, -4
 436 0132 83B0     		sub	sp, sp, #12
 437              		.cfi_def_cfa_offset 16
 438 0134 0190     		str	r0, [sp, #4]
 439              		.loc 7 81 0
 440 0136 4220     		movs	r0, #66
 441 0138 FFF7FEFF 		bl	test_emit_token
 442 013c 03B0     		add	sp, sp, #12
 443              		@ sp needed
 444 013e 5DF804FB 		ldr	pc, [sp], #4
 445              		.cfi_endproc
 446              	.LFE234:
 447              		.size	h2, .-h2
 448 0142 00BF     		.align	2
 449 0144 AFF30080 		.p2align 4,,15
 449      AFF30080 
ARM GAS  /tmp/ccXGemEg.s 			page 9


 449      AFF30080 
 450              		.thumb
 451              		.thumb_func
 452              		.type	h3, %function
 453              	h3:
 454              	.LFB235:
 455              		.loc 7 82 0
 456              		.cfi_startproc
 457              		@ args = 0, pretend = 0, frame = 8
 458              		@ frame_needed = 0, uses_anonymous_args = 0
 459 0150 00B5     		push	{lr}
 460              		.cfi_def_cfa_offset 4
 461              		.cfi_offset 14, -4
 462 0152 83B0     		sub	sp, sp, #12
 463              		.cfi_def_cfa_offset 16
 464 0154 0190     		str	r0, [sp, #4]
 465              		.loc 7 82 0
 466 0156 4320     		movs	r0, #67
 467 0158 FFF7FEFF 		bl	test_emit_token
 468 015c 03B0     		add	sp, sp, #12
 469              		@ sp needed
 470 015e 5DF804FB 		ldr	pc, [sp], #4
 471              		.cfi_endproc
 472              	.LFE235:
 473              		.size	h3, .-h3
 474              		.section	.rodata
 475              		.align	2
 476              		.type	evhndl, %object
 477              		.size	evhndl, 12
 478              	evhndl:
 479 0000 00000000 		.word	h1
 480 0004 00000000 		.word	h2
 481 0008 00000000 		.word	h3
 482              		.align	2
 483              	.LC0:
 484 000c 41424300 		.ascii	"ABC\000"
 485              		.text
 486 0162 00BF     		.align	2
 487 0164 AFF30080 		.p2align 4,,15
 487      AFF30080 
 487      AFF30080 
 488              		.thumb
 489              		.thumb_func
 490              		.type	evt1_execute, %function
 491              	evt1_execute:
 492              	.LFB236:
 493              		.loc 7 85 0
 494              		.cfi_startproc
 495              		@ args = 0, pretend = 0, frame = 40
 496              		@ frame_needed = 0, uses_anonymous_args = 0
 497 0170 00B5     		push	{lr}
 498              		.cfi_def_cfa_offset 4
 499              		.cfi_offset 14, -4
 500 0172 8BB0     		sub	sp, sp, #44
 501              		.cfi_def_cfa_offset 48
 502              		.loc 7 91 0
 503 0174 2B48     		ldr	r0, .L33
ARM GAS  /tmp/ccXGemEg.s 			page 10


 504 0176 FFF78BFF 		bl	chEvtObjectInit
 505              		.loc 7 92 0
 506 017a 05AB     		add	r3, sp, #20
 507 017c 2948     		ldr	r0, .L33
 508 017e 1946     		mov	r1, r3
 509 0180 0122     		movs	r2, #1
 510 0182 FFF78DFF 		bl	chEvtRegisterMask
 511              		.loc 7 93 0
 512 0186 6B46     		mov	r3, sp
 513 0188 2648     		ldr	r0, .L33
 514 018a 1946     		mov	r1, r3
 515 018c 0222     		movs	r2, #2
 516 018e FFF787FF 		bl	chEvtRegisterMask
 517              		.loc 7 94 0
 518 0192 2448     		ldr	r0, .L33
 519 0194 FFF794FF 		bl	chEvtIsListeningI
 520 0198 0346     		mov	r3, r0
 521 019a 0120     		movs	r0, #1
 522 019c 1946     		mov	r1, r3
 523 019e FFF7FEFF 		bl	_test_assert
 524 01a2 0346     		mov	r3, r0
 525 01a4 002B     		cmp	r3, #0
 526 01a6 00D0     		beq	.L27
 527              		.loc 7 94 0 is_stmt 0 discriminator 1
 528 01a8 38E0     		b	.L26
 529              	.L27:
 530              		.loc 7 95 0 is_stmt 1
 531 01aa 05AB     		add	r3, sp, #20
 532 01ac 1D48     		ldr	r0, .L33
 533 01ae 1946     		mov	r1, r3
 534 01b0 FFF7FEFF 		bl	chEvtUnregister
 535              		.loc 7 96 0
 536 01b4 1B48     		ldr	r0, .L33
 537 01b6 FFF783FF 		bl	chEvtIsListeningI
 538 01ba 0346     		mov	r3, r0
 539 01bc 0220     		movs	r0, #2
 540 01be 1946     		mov	r1, r3
 541 01c0 FFF7FEFF 		bl	_test_assert
 542 01c4 0346     		mov	r3, r0
 543 01c6 002B     		cmp	r3, #0
 544 01c8 00D0     		beq	.L29
 545              		.loc 7 96 0 is_stmt 0 discriminator 1
 546 01ca 27E0     		b	.L26
 547              	.L29:
 548              		.loc 7 97 0 is_stmt 1
 549 01cc 6B46     		mov	r3, sp
 550 01ce 1548     		ldr	r0, .L33
 551 01d0 1946     		mov	r1, r3
 552 01d2 FFF7FEFF 		bl	chEvtUnregister
 553              		.loc 7 98 0
 554 01d6 1348     		ldr	r0, .L33
 555 01d8 FFF772FF 		bl	chEvtIsListeningI
 556 01dc 0346     		mov	r3, r0
 557 01de 002B     		cmp	r3, #0
 558 01e0 0CBF     		ite	eq
 559 01e2 0023     		moveq	r3, #0
 560 01e4 0123     		movne	r3, #1
ARM GAS  /tmp/ccXGemEg.s 			page 11


 561 01e6 DBB2     		uxtb	r3, r3
 562 01e8 83F00103 		eor	r3, r3, #1
 563 01ec DBB2     		uxtb	r3, r3
 564 01ee 03F00103 		and	r3, r3, #1
 565 01f2 DBB2     		uxtb	r3, r3
 566 01f4 0320     		movs	r0, #3
 567 01f6 1946     		mov	r1, r3
 568 01f8 FFF7FEFF 		bl	_test_assert
 569 01fc 0346     		mov	r3, r0
 570 01fe 002B     		cmp	r3, #0
 571 0200 00D0     		beq	.L30
 572              		.loc 7 98 0 is_stmt 0 discriminator 1
 573 0202 0BE0     		b	.L26
 574              	.L30:
 575              		.loc 7 103 0 is_stmt 1
 576 0204 0848     		ldr	r0, .L33+4
 577 0206 0721     		movs	r1, #7
 578 0208 FFF7FEFF 		bl	chEvtDispatch
 579              		.loc 7 104 0
 580 020c 0420     		movs	r0, #4
 581 020e 0749     		ldr	r1, .L33+8
 582 0210 FFF7FEFF 		bl	_test_assert_sequence
 583 0214 0346     		mov	r3, r0
 584 0216 002B     		cmp	r3, #0
 585 0218 00D0     		beq	.L26
 586 021a 00BF     		nop
 587              	.L26:
 588              		.loc 7 105 0
 589 021c 0BB0     		add	sp, sp, #44
 590              		@ sp needed
 591 021e 5DF804FB 		ldr	pc, [sp], #4
 592              	.L34:
 593 0222 00BF     		.align	2
 594              	.L33:
 595 0224 00000000 		.word	es1
 596 0228 00000000 		.word	evhndl
 597 022c 0C000000 		.word	.LC0
 598              		.cfi_endproc
 599              	.LFE236:
 600              		.size	evt1_execute, .-evt1_execute
 601              		.global	testevt1
 602              		.section	.rodata
 603              		.align	2
 604              	.LC1:
 605 0010 4576656E 		.ascii	"Events, registration and dispatch\000"
 605      74732C20 
 605      72656769 
 605      73747261 
 605      74696F6E 
 606 0032 0000     		.align	2
 607              		.type	testevt1, %object
 608              		.size	testevt1, 16
 609              	testevt1:
 610 0034 10000000 		.word	.LC1
 611 0038 00000000 		.word	evt1_setup
 612 003c 00000000 		.word	0
 613 0040 00000000 		.word	evt1_execute
ARM GAS  /tmp/ccXGemEg.s 			page 12


 614              		.text
 615              		.align	2
 616              		.p2align 4,,15
 617              		.thumb
 618              		.thumb_func
 619              		.type	evt2_setup, %function
 620              	evt2_setup:
 621              	.LFB237:
 622              		.loc 7 128 0
 623              		.cfi_startproc
 624              		@ args = 0, pretend = 0, frame = 0
 625              		@ frame_needed = 0, uses_anonymous_args = 0
 626 0230 08B5     		push	{r3, lr}
 627              		.cfi_def_cfa_offset 8
 628              		.cfi_offset 3, -8
 629              		.cfi_offset 14, -4
 630              		.loc 7 130 0
 631 0232 4FF0FF30 		mov	r0, #-1
 632 0236 FFF7FEFF 		bl	chEvtGetAndClearEvents
 633              		.loc 7 131 0
 634 023a 08BD     		pop	{r3, pc}
 635              		.cfi_endproc
 636              	.LFE237:
 637              		.size	evt2_setup, .-evt2_setup
 638              		.align	2
 639 023c AFF30080 		.p2align 4,,15
 640              		.thumb
 641              		.thumb_func
 642              		.type	thread1, %function
 643              	thread1:
 644              	.LFB238:
 645              		.loc 7 133 0
 646              		.cfi_startproc
 647              		@ args = 0, pretend = 0, frame = 8
 648              		@ frame_needed = 0, uses_anonymous_args = 0
 649 0240 00B5     		push	{lr}
 650              		.cfi_def_cfa_offset 4
 651              		.cfi_offset 14, -4
 652 0242 83B0     		sub	sp, sp, #12
 653              		.cfi_def_cfa_offset 16
 654 0244 0190     		str	r0, [sp, #4]
 655              		.loc 7 135 0
 656 0246 3220     		movs	r0, #50
 657 0248 FFF7FEFF 		bl	chThdSleep
 658              		.loc 7 136 0
 659 024c 0198     		ldr	r0, [sp, #4]
 660 024e 0121     		movs	r1, #1
 661 0250 FFF7FEFF 		bl	chEvtSignal
 662              		.loc 7 137 0
 663 0254 03B0     		add	sp, sp, #12
 664              		@ sp needed
 665 0256 5DF804FB 		ldr	pc, [sp], #4
 666              		.cfi_endproc
 667              	.LFE238:
 668              		.size	thread1, .-thread1
 669 025a 00BF     		.align	2
 670 025c AFF30080 		.p2align 4,,15
ARM GAS  /tmp/ccXGemEg.s 			page 13


 671              		.thumb
 672              		.thumb_func
 673              		.type	thread2, %function
 674              	thread2:
 675              	.LFB239:
 676              		.loc 7 139 0
 677              		.cfi_startproc
 678              		@ args = 0, pretend = 0, frame = 8
 679              		@ frame_needed = 0, uses_anonymous_args = 0
 680 0260 00B5     		push	{lr}
 681              		.cfi_def_cfa_offset 4
 682              		.cfi_offset 14, -4
 683 0262 83B0     		sub	sp, sp, #12
 684              		.cfi_def_cfa_offset 16
 685 0264 0190     		str	r0, [sp, #4]
 686              		.loc 7 142 0
 687 0266 0648     		ldr	r0, .L38
 688 0268 FFF73AFF 		bl	chEvtBroadcast
 689              		.loc 7 143 0
 690 026c 3220     		movs	r0, #50
 691 026e FFF7FEFF 		bl	chThdSleep
 692              		.loc 7 144 0
 693 0272 0448     		ldr	r0, .L38+4
 694 0274 FFF734FF 		bl	chEvtBroadcast
 695              		.loc 7 145 0
 696 0278 03B0     		add	sp, sp, #12
 697              		@ sp needed
 698 027a 5DF804FB 		ldr	pc, [sp], #4
 699              	.L39:
 700 027e 00BF     		.align	2
 701              	.L38:
 702 0280 00000000 		.word	es1
 703 0284 04000000 		.word	es2
 704              		.cfi_endproc
 705              	.LFE239:
 706              		.size	thread2, .-thread2
 707              		.section	.rodata
 708              		.align	2
 709              	.LC2:
 710 0044 4100     		.ascii	"A\000"
 711              		.text
 712              		.align	2
 713 0288 AFF30080 		.p2align 4,,15
 713      AFF30080 
 714              		.thumb
 715              		.thumb_func
 716              		.type	evt2_execute, %function
 717              	evt2_execute:
 718              	.LFB240:
 719              		.loc 7 147 0
 720              		.cfi_startproc
 721              		@ args = 0, pretend = 0, frame = 48
 722              		@ frame_needed = 0, uses_anonymous_args = 0
 723 0290 30B5     		push	{r4, r5, lr}
 724              		.cfi_def_cfa_offset 12
 725              		.cfi_offset 4, -12
 726              		.cfi_offset 5, -8
ARM GAS  /tmp/ccXGemEg.s 			page 14


 727              		.cfi_offset 14, -4
 728 0292 8FB0     		sub	sp, sp, #60
 729              		.cfi_def_cfa_offset 72
 730              		.loc 7 155 0
 731 0294 0720     		movs	r0, #7
 732 0296 FFF7FEFF 		bl	chEvtAddEvents
 733              		.loc 7 156 0
 734 029a 4FF0FF30 		mov	r0, #-1
 735 029e FFF7FEFF 		bl	chEvtWaitOne
 736 02a2 0D90     		str	r0, [sp, #52]
 737              		.loc 7 157 0
 738 02a4 0D9B     		ldr	r3, [sp, #52]
 739 02a6 012B     		cmp	r3, #1
 740 02a8 14BF     		ite	ne
 741 02aa 0023     		movne	r3, #0
 742 02ac 0123     		moveq	r3, #1
 743 02ae DBB2     		uxtb	r3, r3
 744 02b0 0120     		movs	r0, #1
 745 02b2 1946     		mov	r1, r3
 746 02b4 FFF7FEFF 		bl	_test_assert
 747 02b8 0346     		mov	r3, r0
 748 02ba 002B     		cmp	r3, #0
 749 02bc 00D0     		beq	.L41
 750              		.loc 7 157 0 is_stmt 0 discriminator 1
 751 02be 84E1     		b	.L40
 752              	.L41:
 753              		.loc 7 158 0 is_stmt 1
 754 02c0 4FF0FF30 		mov	r0, #-1
 755 02c4 FFF7FEFF 		bl	chEvtWaitOne
 756 02c8 0D90     		str	r0, [sp, #52]
 757              		.loc 7 159 0
 758 02ca 0D9B     		ldr	r3, [sp, #52]
 759 02cc 022B     		cmp	r3, #2
 760 02ce 14BF     		ite	ne
 761 02d0 0023     		movne	r3, #0
 762 02d2 0123     		moveq	r3, #1
 763 02d4 DBB2     		uxtb	r3, r3
 764 02d6 0220     		movs	r0, #2
 765 02d8 1946     		mov	r1, r3
 766 02da FFF7FEFF 		bl	_test_assert
 767 02de 0346     		mov	r3, r0
 768 02e0 002B     		cmp	r3, #0
 769 02e2 00D0     		beq	.L43
 770              		.loc 7 159 0 is_stmt 0 discriminator 1
 771 02e4 71E1     		b	.L40
 772              	.L43:
 773              		.loc 7 160 0 is_stmt 1
 774 02e6 4FF0FF30 		mov	r0, #-1
 775 02ea FFF7FEFF 		bl	chEvtWaitOne
 776 02ee 0D90     		str	r0, [sp, #52]
 777              		.loc 7 161 0
 778 02f0 0D9B     		ldr	r3, [sp, #52]
 779 02f2 042B     		cmp	r3, #4
 780 02f4 14BF     		ite	ne
 781 02f6 0023     		movne	r3, #0
 782 02f8 0123     		moveq	r3, #1
 783 02fa DBB2     		uxtb	r3, r3
ARM GAS  /tmp/ccXGemEg.s 			page 15


 784 02fc 0320     		movs	r0, #3
 785 02fe 1946     		mov	r1, r3
 786 0300 FFF7FEFF 		bl	_test_assert
 787 0304 0346     		mov	r3, r0
 788 0306 002B     		cmp	r3, #0
 789 0308 00D0     		beq	.L44
 790              		.loc 7 161 0 is_stmt 0 discriminator 1
 791 030a 5EE1     		b	.L40
 792              	.L44:
 793              		.loc 7 162 0 is_stmt 1
 794 030c 4FF0FF30 		mov	r0, #-1
 795 0310 FFF7FEFF 		bl	chEvtGetAndClearEvents
 796 0314 0D90     		str	r0, [sp, #52]
 797              		.loc 7 163 0
 798 0316 0D9B     		ldr	r3, [sp, #52]
 799 0318 002B     		cmp	r3, #0
 800 031a 14BF     		ite	ne
 801 031c 0023     		movne	r3, #0
 802 031e 0123     		moveq	r3, #1
 803 0320 DBB2     		uxtb	r3, r3
 804 0322 0420     		movs	r0, #4
 805 0324 1946     		mov	r1, r3
 806 0326 FFF7FEFF 		bl	_test_assert
 807 032a 0346     		mov	r3, r0
 808 032c 002B     		cmp	r3, #0
 809 032e 00D0     		beq	.L45
 810              		.loc 7 163 0 is_stmt 0 discriminator 1
 811 0330 4BE1     		b	.L40
 812              	.L45:
 813              		.loc 7 168 0 is_stmt 1
 814 0332 FFF7FEFF 		bl	test_wait_tick
 815              		.loc 7 169 0
 816 0336 FFF78BFE 		bl	chVTGetSystemTime
 817 033a 0346     		mov	r3, r0
 818 033c 3233     		adds	r3, r3, #50
 819 033e 0C93     		str	r3, [sp, #48]
 820              		.loc 7 170 0
 821 0340 A34B     		ldr	r3, .L59
 822 0342 1D68     		ldr	r5, [r3]
 823 0344 FFF79CFE 		bl	chThdGetPriorityX
 824 0348 0346     		mov	r3, r0
 825 034a 5C1E     		subs	r4, r3, #1
 826              		.loc 7 171 0
 827 034c FFF790FE 		bl	chThdGetSelfX
 828 0350 0346     		mov	r3, r0
 829              		.loc 7 170 0
 830 0352 0093     		str	r3, [sp]
 831 0354 2846     		mov	r0, r5
 832 0356 4FF4A471 		mov	r1, #328
 833 035a 2246     		mov	r2, r4
 834 035c 9D4B     		ldr	r3, .L59+4
 835 035e FFF7FEFF 		bl	chThdCreateStatic
 836 0362 0246     		mov	r2, r0
 837 0364 9C4B     		ldr	r3, .L59+8
 838 0366 1A60     		str	r2, [r3]
 839              		.loc 7 172 0
 840 0368 4FF0FF30 		mov	r0, #-1
ARM GAS  /tmp/ccXGemEg.s 			page 16


 841 036c FFF7FEFF 		bl	chEvtWaitOne
 842 0370 0D90     		str	r0, [sp, #52]
 843              		.loc 7 173 0
 844 0372 0C9B     		ldr	r3, [sp, #48]
 845 0374 0533     		adds	r3, r3, #5
 846 0376 0520     		movs	r0, #5
 847 0378 0C99     		ldr	r1, [sp, #48]
 848 037a 1A46     		mov	r2, r3
 849 037c FFF7FEFF 		bl	_test_assert_time_window
 850 0380 0346     		mov	r3, r0
 851 0382 002B     		cmp	r3, #0
 852 0384 00D0     		beq	.L46
 853              		.loc 7 173 0 is_stmt 0 discriminator 1
 854 0386 20E1     		b	.L40
 855              	.L46:
 856              		.loc 7 174 0 is_stmt 1
 857 0388 0D9B     		ldr	r3, [sp, #52]
 858 038a 012B     		cmp	r3, #1
 859 038c 14BF     		ite	ne
 860 038e 0023     		movne	r3, #0
 861 0390 0123     		moveq	r3, #1
 862 0392 DBB2     		uxtb	r3, r3
 863 0394 0620     		movs	r0, #6
 864 0396 1946     		mov	r1, r3
 865 0398 FFF7FEFF 		bl	_test_assert
 866 039c 0346     		mov	r3, r0
 867 039e 002B     		cmp	r3, #0
 868 03a0 00D0     		beq	.L47
 869              		.loc 7 174 0 is_stmt 0 discriminator 1
 870 03a2 12E1     		b	.L40
 871              	.L47:
 872              		.loc 7 175 0 is_stmt 1
 873 03a4 4FF0FF30 		mov	r0, #-1
 874 03a8 FFF7FEFF 		bl	chEvtGetAndClearEvents
 875 03ac 0D90     		str	r0, [sp, #52]
 876              		.loc 7 176 0
 877 03ae 0D9B     		ldr	r3, [sp, #52]
 878 03b0 002B     		cmp	r3, #0
 879 03b2 14BF     		ite	ne
 880 03b4 0023     		movne	r3, #0
 881 03b6 0123     		moveq	r3, #1
 882 03b8 DBB2     		uxtb	r3, r3
 883 03ba 0720     		movs	r0, #7
 884 03bc 1946     		mov	r1, r3
 885 03be FFF7FEFF 		bl	_test_assert
 886 03c2 0346     		mov	r3, r0
 887 03c4 002B     		cmp	r3, #0
 888 03c6 00D0     		beq	.L48
 889              		.loc 7 176 0 is_stmt 0 discriminator 1
 890 03c8 FFE0     		b	.L40
 891              	.L48:
 892              		.loc 7 177 0 is_stmt 1
 893 03ca FFF7FEFF 		bl	test_wait_threads
 894              		.loc 7 182 0
 895 03ce 0520     		movs	r0, #5
 896 03d0 FFF7FEFF 		bl	chEvtAddEvents
 897              		.loc 7 183 0
ARM GAS  /tmp/ccXGemEg.s 			page 17


 898 03d4 4FF0FF30 		mov	r0, #-1
 899 03d8 FFF7FEFF 		bl	chEvtWaitAny
 900 03dc 0D90     		str	r0, [sp, #52]
 901              		.loc 7 184 0
 902 03de 0D9B     		ldr	r3, [sp, #52]
 903 03e0 052B     		cmp	r3, #5
 904 03e2 14BF     		ite	ne
 905 03e4 0023     		movne	r3, #0
 906 03e6 0123     		moveq	r3, #1
 907 03e8 DBB2     		uxtb	r3, r3
 908 03ea 0820     		movs	r0, #8
 909 03ec 1946     		mov	r1, r3
 910 03ee FFF7FEFF 		bl	_test_assert
 911 03f2 0346     		mov	r3, r0
 912 03f4 002B     		cmp	r3, #0
 913 03f6 00D0     		beq	.L49
 914              		.loc 7 184 0 is_stmt 0 discriminator 1
 915 03f8 E7E0     		b	.L40
 916              	.L49:
 917              		.loc 7 185 0 is_stmt 1
 918 03fa 4FF0FF30 		mov	r0, #-1
 919 03fe FFF7FEFF 		bl	chEvtGetAndClearEvents
 920 0402 0D90     		str	r0, [sp, #52]
 921              		.loc 7 186 0
 922 0404 0D9B     		ldr	r3, [sp, #52]
 923 0406 002B     		cmp	r3, #0
 924 0408 14BF     		ite	ne
 925 040a 0023     		movne	r3, #0
 926 040c 0123     		moveq	r3, #1
 927 040e DBB2     		uxtb	r3, r3
 928 0410 0920     		movs	r0, #9
 929 0412 1946     		mov	r1, r3
 930 0414 FFF7FEFF 		bl	_test_assert
 931 0418 0346     		mov	r3, r0
 932 041a 002B     		cmp	r3, #0
 933 041c 00D0     		beq	.L50
 934              		.loc 7 186 0 is_stmt 0 discriminator 1
 935 041e D4E0     		b	.L40
 936              	.L50:
 937              		.loc 7 191 0 is_stmt 1
 938 0420 FFF7FEFF 		bl	test_wait_tick
 939              		.loc 7 192 0
 940 0424 FFF714FE 		bl	chVTGetSystemTime
 941 0428 0346     		mov	r3, r0
 942 042a 3233     		adds	r3, r3, #50
 943 042c 0C93     		str	r3, [sp, #48]
 944              		.loc 7 193 0
 945 042e 684B     		ldr	r3, .L59
 946 0430 1D68     		ldr	r5, [r3]
 947 0432 FFF725FE 		bl	chThdGetPriorityX
 948 0436 0346     		mov	r3, r0
 949 0438 5C1E     		subs	r4, r3, #1
 950              		.loc 7 194 0
 951 043a FFF719FE 		bl	chThdGetSelfX
 952 043e 0346     		mov	r3, r0
 953              		.loc 7 193 0
 954 0440 0093     		str	r3, [sp]
ARM GAS  /tmp/ccXGemEg.s 			page 18


 955 0442 2846     		mov	r0, r5
 956 0444 4FF4A471 		mov	r1, #328
 957 0448 2246     		mov	r2, r4
 958 044a 624B     		ldr	r3, .L59+4
 959 044c FFF7FEFF 		bl	chThdCreateStatic
 960 0450 0246     		mov	r2, r0
 961 0452 614B     		ldr	r3, .L59+8
 962 0454 1A60     		str	r2, [r3]
 963              		.loc 7 195 0
 964 0456 4FF0FF30 		mov	r0, #-1
 965 045a FFF7FEFF 		bl	chEvtWaitAny
 966 045e 0D90     		str	r0, [sp, #52]
 967              		.loc 7 196 0
 968 0460 0C9B     		ldr	r3, [sp, #48]
 969 0462 0533     		adds	r3, r3, #5
 970 0464 0A20     		movs	r0, #10
 971 0466 0C99     		ldr	r1, [sp, #48]
 972 0468 1A46     		mov	r2, r3
 973 046a FFF7FEFF 		bl	_test_assert_time_window
 974 046e 0346     		mov	r3, r0
 975 0470 002B     		cmp	r3, #0
 976 0472 00D0     		beq	.L51
 977              		.loc 7 196 0 is_stmt 0 discriminator 1
 978 0474 A9E0     		b	.L40
 979              	.L51:
 980              		.loc 7 197 0 is_stmt 1
 981 0476 0D9B     		ldr	r3, [sp, #52]
 982 0478 012B     		cmp	r3, #1
 983 047a 14BF     		ite	ne
 984 047c 0023     		movne	r3, #0
 985 047e 0123     		moveq	r3, #1
 986 0480 DBB2     		uxtb	r3, r3
 987 0482 0B20     		movs	r0, #11
 988 0484 1946     		mov	r1, r3
 989 0486 FFF7FEFF 		bl	_test_assert
 990 048a 0346     		mov	r3, r0
 991 048c 002B     		cmp	r3, #0
 992 048e 00D0     		beq	.L52
 993              		.loc 7 197 0 is_stmt 0 discriminator 1
 994 0490 9BE0     		b	.L40
 995              	.L52:
 996              		.loc 7 198 0 is_stmt 1
 997 0492 4FF0FF30 		mov	r0, #-1
 998 0496 FFF7FEFF 		bl	chEvtGetAndClearEvents
 999 049a 0D90     		str	r0, [sp, #52]
 1000              		.loc 7 199 0
 1001 049c 0D9B     		ldr	r3, [sp, #52]
 1002 049e 002B     		cmp	r3, #0
 1003 04a0 14BF     		ite	ne
 1004 04a2 0023     		movne	r3, #0
 1005 04a4 0123     		moveq	r3, #1
 1006 04a6 DBB2     		uxtb	r3, r3
 1007 04a8 0C20     		movs	r0, #12
 1008 04aa 1946     		mov	r1, r3
 1009 04ac FFF7FEFF 		bl	_test_assert
 1010 04b0 0346     		mov	r3, r0
 1011 04b2 002B     		cmp	r3, #0
ARM GAS  /tmp/ccXGemEg.s 			page 19


 1012 04b4 00D0     		beq	.L53
 1013              		.loc 7 199 0 is_stmt 0 discriminator 1
 1014 04b6 88E0     		b	.L40
 1015              	.L53:
 1016              		.loc 7 200 0 is_stmt 1
 1017 04b8 FFF7FEFF 		bl	test_wait_threads
 1018              		.loc 7 205 0
 1019 04bc 4748     		ldr	r0, .L59+12
 1020 04be FFF7E7FD 		bl	chEvtObjectInit
 1021              		.loc 7 206 0
 1022 04c2 4748     		ldr	r0, .L59+16
 1023 04c4 FFF7E4FD 		bl	chEvtObjectInit
 1024              		.loc 7 207 0
 1025 04c8 07AB     		add	r3, sp, #28
 1026 04ca 4448     		ldr	r0, .L59+12
 1027 04cc 1946     		mov	r1, r3
 1028 04ce 0122     		movs	r2, #1
 1029 04d0 FFF7E6FD 		bl	chEvtRegisterMask
 1030              		.loc 7 208 0
 1031 04d4 02AB     		add	r3, sp, #8
 1032 04d6 4248     		ldr	r0, .L59+16
 1033 04d8 1946     		mov	r1, r3
 1034 04da 0422     		movs	r2, #4
 1035 04dc FFF7E0FD 		bl	chEvtRegisterMask
 1036              		.loc 7 209 0
 1037 04e0 FFF7FEFF 		bl	test_wait_tick
 1038              		.loc 7 210 0
 1039 04e4 FFF7B4FD 		bl	chVTGetSystemTime
 1040 04e8 0346     		mov	r3, r0
 1041 04ea 3233     		adds	r3, r3, #50
 1042 04ec 0C93     		str	r3, [sp, #48]
 1043              		.loc 7 211 0
 1044 04ee 384B     		ldr	r3, .L59
 1045 04f0 1C68     		ldr	r4, [r3]
 1046 04f2 FFF7C5FD 		bl	chThdGetPriorityX
 1047 04f6 0346     		mov	r3, r0
 1048 04f8 013B     		subs	r3, r3, #1
 1049 04fa 3A4A     		ldr	r2, .L59+20
 1050 04fc 0092     		str	r2, [sp]
 1051 04fe 2046     		mov	r0, r4
 1052 0500 4FF4A471 		mov	r1, #328
 1053 0504 1A46     		mov	r2, r3
 1054 0506 384B     		ldr	r3, .L59+24
 1055 0508 FFF7FEFF 		bl	chThdCreateStatic
 1056 050c 0246     		mov	r2, r0
 1057 050e 324B     		ldr	r3, .L59+8
 1058 0510 1A60     		str	r2, [r3]
 1059              		.loc 7 213 0
 1060 0512 0520     		movs	r0, #5
 1061 0514 FFF7FEFF 		bl	chEvtWaitAll
 1062 0518 0D90     		str	r0, [sp, #52]
 1063              		.loc 7 214 0
 1064 051a 0C9B     		ldr	r3, [sp, #48]
 1065 051c 0533     		adds	r3, r3, #5
 1066 051e 0D20     		movs	r0, #13
 1067 0520 0C99     		ldr	r1, [sp, #48]
 1068 0522 1A46     		mov	r2, r3
ARM GAS  /tmp/ccXGemEg.s 			page 20


 1069 0524 FFF7FEFF 		bl	_test_assert_time_window
 1070 0528 0346     		mov	r3, r0
 1071 052a 002B     		cmp	r3, #0
 1072 052c 00D0     		beq	.L54
 1073              		.loc 7 214 0 is_stmt 0 discriminator 1
 1074 052e 4CE0     		b	.L40
 1075              	.L54:
 1076              		.loc 7 215 0 is_stmt 1
 1077 0530 4FF0FF30 		mov	r0, #-1
 1078 0534 FFF7FEFF 		bl	chEvtGetAndClearEvents
 1079 0538 0D90     		str	r0, [sp, #52]
 1080              		.loc 7 216 0
 1081 053a 0D9B     		ldr	r3, [sp, #52]
 1082 053c 002B     		cmp	r3, #0
 1083 053e 14BF     		ite	ne
 1084 0540 0023     		movne	r3, #0
 1085 0542 0123     		moveq	r3, #1
 1086 0544 DBB2     		uxtb	r3, r3
 1087 0546 0E20     		movs	r0, #14
 1088 0548 1946     		mov	r1, r3
 1089 054a FFF7FEFF 		bl	_test_assert
 1090 054e 0346     		mov	r3, r0
 1091 0550 002B     		cmp	r3, #0
 1092 0552 00D0     		beq	.L55
 1093              		.loc 7 216 0 is_stmt 0 discriminator 1
 1094 0554 39E0     		b	.L40
 1095              	.L55:
 1096              		.loc 7 217 0 is_stmt 1
 1097 0556 FFF7FEFF 		bl	test_wait_threads
 1098              		.loc 7 218 0
 1099 055a 07AB     		add	r3, sp, #28
 1100 055c 1F48     		ldr	r0, .L59+12
 1101 055e 1946     		mov	r1, r3
 1102 0560 FFF7FEFF 		bl	chEvtUnregister
 1103              		.loc 7 219 0
 1104 0564 02AB     		add	r3, sp, #8
 1105 0566 1E48     		ldr	r0, .L59+16
 1106 0568 1946     		mov	r1, r3
 1107 056a FFF7FEFF 		bl	chEvtUnregister
 1108              		.loc 7 220 0
 1109 056e 1B48     		ldr	r0, .L59+12
 1110 0570 FFF7A6FD 		bl	chEvtIsListeningI
 1111 0574 0346     		mov	r3, r0
 1112 0576 002B     		cmp	r3, #0
 1113 0578 0CBF     		ite	eq
 1114 057a 0023     		moveq	r3, #0
 1115 057c 0123     		movne	r3, #1
 1116 057e DBB2     		uxtb	r3, r3
 1117 0580 83F00103 		eor	r3, r3, #1
 1118 0584 DBB2     		uxtb	r3, r3
 1119 0586 03F00103 		and	r3, r3, #1
 1120 058a DBB2     		uxtb	r3, r3
 1121 058c 0F20     		movs	r0, #15
 1122 058e 1946     		mov	r1, r3
 1123 0590 FFF7FEFF 		bl	_test_assert
 1124 0594 0346     		mov	r3, r0
 1125 0596 002B     		cmp	r3, #0
ARM GAS  /tmp/ccXGemEg.s 			page 21


 1126 0598 00D0     		beq	.L56
 1127              		.loc 7 220 0 is_stmt 0 discriminator 1
 1128 059a 16E0     		b	.L40
 1129              	.L56:
 1130              		.loc 7 221 0 is_stmt 1
 1131 059c 1048     		ldr	r0, .L59+16
 1132 059e FFF78FFD 		bl	chEvtIsListeningI
 1133 05a2 0346     		mov	r3, r0
 1134 05a4 002B     		cmp	r3, #0
 1135 05a6 0CBF     		ite	eq
 1136 05a8 0023     		moveq	r3, #0
 1137 05aa 0123     		movne	r3, #1
 1138 05ac DBB2     		uxtb	r3, r3
 1139 05ae 83F00103 		eor	r3, r3, #1
 1140 05b2 DBB2     		uxtb	r3, r3
 1141 05b4 03F00103 		and	r3, r3, #1
 1142 05b8 DBB2     		uxtb	r3, r3
 1143 05ba 1020     		movs	r0, #16
 1144 05bc 1946     		mov	r1, r3
 1145 05be FFF7FEFF 		bl	_test_assert
 1146 05c2 0346     		mov	r3, r0
 1147 05c4 002B     		cmp	r3, #0
 1148 05c6 00D0     		beq	.L40
 1149 05c8 00BF     		nop
 1150              	.L40:
 1151              		.loc 7 222 0
 1152 05ca 0FB0     		add	sp, sp, #60
 1153              		@ sp needed
 1154 05cc 30BD     		pop	{r4, r5, pc}
 1155              	.L60:
 1156 05ce 00BF     		.align	2
 1157              	.L59:
 1158 05d0 00000000 		.word	wa
 1159 05d4 00000000 		.word	thread1
 1160 05d8 00000000 		.word	threads
 1161 05dc 00000000 		.word	es1
 1162 05e0 04000000 		.word	es2
 1163 05e4 44000000 		.word	.LC2
 1164 05e8 00000000 		.word	thread2
 1165              		.cfi_endproc
 1166              	.LFE240:
 1167              		.size	evt2_execute, .-evt2_execute
 1168              		.global	testevt2
 1169              		.section	.rodata
 1170 0046 0000     		.align	2
 1171              	.LC3:
 1172 0048 4576656E 		.ascii	"Events, wait and broadcast\000"
 1172      74732C20 
 1172      77616974 
 1172      20616E64 
 1172      2062726F 
 1173 0063 00       		.align	2
 1174              		.type	testevt2, %object
 1175              		.size	testevt2, 16
 1176              	testevt2:
 1177 0064 48000000 		.word	.LC3
 1178 0068 00000000 		.word	evt2_setup
ARM GAS  /tmp/ccXGemEg.s 			page 22


 1179 006c 00000000 		.word	0
 1180 0070 00000000 		.word	evt2_execute
 1181              		.text
 1182              		.align	2
 1183 05ec AFF30080 		.p2align 4,,15
 1184              		.thumb
 1185              		.thumb_func
 1186              		.type	evt3_setup, %function
 1187              	evt3_setup:
 1188              	.LFB241:
 1189              		.loc 7 247 0
 1190              		.cfi_startproc
 1191              		@ args = 0, pretend = 0, frame = 0
 1192              		@ frame_needed = 0, uses_anonymous_args = 0
 1193 05f0 08B5     		push	{r3, lr}
 1194              		.cfi_def_cfa_offset 8
 1195              		.cfi_offset 3, -8
 1196              		.cfi_offset 14, -4
 1197              		.loc 7 249 0
 1198 05f2 4FF0FF30 		mov	r0, #-1
 1199 05f6 FFF7FEFF 		bl	chEvtGetAndClearEvents
 1200              		.loc 7 250 0
 1201 05fa 08BD     		pop	{r3, pc}
 1202              		.cfi_endproc
 1203              	.LFE241:
 1204              		.size	evt3_setup, .-evt3_setup
 1205              		.align	2
 1206 05fc AFF30080 		.p2align 4,,15
 1207              		.thumb
 1208              		.thumb_func
 1209              		.type	evt3_execute, %function
 1210              	evt3_execute:
 1211              	.LFB242:
 1212              		.loc 7 252 0
 1213              		.cfi_startproc
 1214              		@ args = 0, pretend = 0, frame = 8
 1215              		@ frame_needed = 0, uses_anonymous_args = 0
 1216 0600 00B5     		push	{lr}
 1217              		.cfi_def_cfa_offset 4
 1218              		.cfi_offset 14, -4
 1219 0602 83B0     		sub	sp, sp, #12
 1220              		.cfi_def_cfa_offset 16
 1221              		.loc 7 258 0
 1222 0604 4FF0FF30 		mov	r0, #-1
 1223 0608 0021     		movs	r1, #0
 1224 060a FFF7FEFF 		bl	chEvtWaitOneTimeout
 1225 060e 0190     		str	r0, [sp, #4]
 1226              		.loc 7 259 0
 1227 0610 019B     		ldr	r3, [sp, #4]
 1228 0612 002B     		cmp	r3, #0
 1229 0614 14BF     		ite	ne
 1230 0616 0023     		movne	r3, #0
 1231 0618 0123     		moveq	r3, #1
 1232 061a DBB2     		uxtb	r3, r3
 1233 061c 0120     		movs	r0, #1
 1234 061e 1946     		mov	r1, r3
 1235 0620 FFF7FEFF 		bl	_test_assert
ARM GAS  /tmp/ccXGemEg.s 			page 23


 1236 0624 0346     		mov	r3, r0
 1237 0626 002B     		cmp	r3, #0
 1238 0628 00D0     		beq	.L63
 1239              		.loc 7 259 0 is_stmt 0 discriminator 1
 1240 062a 63E0     		b	.L62
 1241              	.L63:
 1242              		.loc 7 260 0 is_stmt 1
 1243 062c 4FF0FF30 		mov	r0, #-1
 1244 0630 0021     		movs	r1, #0
 1245 0632 FFF7FEFF 		bl	chEvtWaitAnyTimeout
 1246 0636 0190     		str	r0, [sp, #4]
 1247              		.loc 7 261 0
 1248 0638 019B     		ldr	r3, [sp, #4]
 1249 063a 002B     		cmp	r3, #0
 1250 063c 14BF     		ite	ne
 1251 063e 0023     		movne	r3, #0
 1252 0640 0123     		moveq	r3, #1
 1253 0642 DBB2     		uxtb	r3, r3
 1254 0644 0220     		movs	r0, #2
 1255 0646 1946     		mov	r1, r3
 1256 0648 FFF7FEFF 		bl	_test_assert
 1257 064c 0346     		mov	r3, r0
 1258 064e 002B     		cmp	r3, #0
 1259 0650 00D0     		beq	.L65
 1260              		.loc 7 261 0 is_stmt 0 discriminator 1
 1261 0652 4FE0     		b	.L62
 1262              	.L65:
 1263              		.loc 7 262 0 is_stmt 1
 1264 0654 4FF0FF30 		mov	r0, #-1
 1265 0658 0021     		movs	r1, #0
 1266 065a FFF7FEFF 		bl	chEvtWaitAllTimeout
 1267 065e 0190     		str	r0, [sp, #4]
 1268              		.loc 7 263 0
 1269 0660 019B     		ldr	r3, [sp, #4]
 1270 0662 002B     		cmp	r3, #0
 1271 0664 14BF     		ite	ne
 1272 0666 0023     		movne	r3, #0
 1273 0668 0123     		moveq	r3, #1
 1274 066a DBB2     		uxtb	r3, r3
 1275 066c 0320     		movs	r0, #3
 1276 066e 1946     		mov	r1, r3
 1277 0670 FFF7FEFF 		bl	_test_assert
 1278 0674 0346     		mov	r3, r0
 1279 0676 002B     		cmp	r3, #0
 1280 0678 00D0     		beq	.L66
 1281              		.loc 7 263 0 is_stmt 0 discriminator 1
 1282 067a 3BE0     		b	.L62
 1283              	.L66:
 1284              		.loc 7 264 0 is_stmt 1
 1285 067c 4FF0FF30 		mov	r0, #-1
 1286 0680 0A21     		movs	r1, #10
 1287 0682 FFF7FEFF 		bl	chEvtWaitOneTimeout
 1288 0686 0190     		str	r0, [sp, #4]
 1289              		.loc 7 265 0
 1290 0688 019B     		ldr	r3, [sp, #4]
 1291 068a 002B     		cmp	r3, #0
 1292 068c 14BF     		ite	ne
ARM GAS  /tmp/ccXGemEg.s 			page 24


 1293 068e 0023     		movne	r3, #0
 1294 0690 0123     		moveq	r3, #1
 1295 0692 DBB2     		uxtb	r3, r3
 1296 0694 0420     		movs	r0, #4
 1297 0696 1946     		mov	r1, r3
 1298 0698 FFF7FEFF 		bl	_test_assert
 1299 069c 0346     		mov	r3, r0
 1300 069e 002B     		cmp	r3, #0
 1301 06a0 00D0     		beq	.L67
 1302              		.loc 7 265 0 is_stmt 0 discriminator 1
 1303 06a2 27E0     		b	.L62
 1304              	.L67:
 1305              		.loc 7 266 0 is_stmt 1
 1306 06a4 4FF0FF30 		mov	r0, #-1
 1307 06a8 0A21     		movs	r1, #10
 1308 06aa FFF7FEFF 		bl	chEvtWaitAnyTimeout
 1309 06ae 0190     		str	r0, [sp, #4]
 1310              		.loc 7 267 0
 1311 06b0 019B     		ldr	r3, [sp, #4]
 1312 06b2 002B     		cmp	r3, #0
 1313 06b4 14BF     		ite	ne
 1314 06b6 0023     		movne	r3, #0
 1315 06b8 0123     		moveq	r3, #1
 1316 06ba DBB2     		uxtb	r3, r3
 1317 06bc 0520     		movs	r0, #5
 1318 06be 1946     		mov	r1, r3
 1319 06c0 FFF7FEFF 		bl	_test_assert
 1320 06c4 0346     		mov	r3, r0
 1321 06c6 002B     		cmp	r3, #0
 1322 06c8 00D0     		beq	.L68
 1323              		.loc 7 267 0 is_stmt 0 discriminator 1
 1324 06ca 13E0     		b	.L62
 1325              	.L68:
 1326              		.loc 7 268 0 is_stmt 1
 1327 06cc 4FF0FF30 		mov	r0, #-1
 1328 06d0 0A21     		movs	r1, #10
 1329 06d2 FFF7FEFF 		bl	chEvtWaitAllTimeout
 1330 06d6 0190     		str	r0, [sp, #4]
 1331              		.loc 7 269 0
 1332 06d8 019B     		ldr	r3, [sp, #4]
 1333 06da 002B     		cmp	r3, #0
 1334 06dc 14BF     		ite	ne
 1335 06de 0023     		movne	r3, #0
 1336 06e0 0123     		moveq	r3, #1
 1337 06e2 DBB2     		uxtb	r3, r3
 1338 06e4 0620     		movs	r0, #6
 1339 06e6 1946     		mov	r1, r3
 1340 06e8 FFF7FEFF 		bl	_test_assert
 1341 06ec 0346     		mov	r3, r0
 1342 06ee 002B     		cmp	r3, #0
 1343 06f0 00D0     		beq	.L62
 1344              		.loc 7 269 0 is_stmt 0 discriminator 1
 1345 06f2 00BF     		nop
 1346              	.L62:
 1347              		.loc 7 270 0 is_stmt 1
 1348 06f4 03B0     		add	sp, sp, #12
 1349              		@ sp needed
ARM GAS  /tmp/ccXGemEg.s 			page 25


 1350 06f6 5DF804FB 		ldr	pc, [sp], #4
 1351              		.cfi_endproc
 1352              	.LFE242:
 1353              		.size	evt3_execute, .-evt3_execute
 1354              		.global	testevt3
 1355              		.section	.rodata
 1356              		.align	2
 1357              	.LC4:
 1358 0074 4576656E 		.ascii	"Events, timeouts\000"
 1358      74732C20 
 1358      74696D65 
 1358      6F757473 
 1358      00
 1359 0085 000000   		.align	2
 1360              		.type	testevt3, %object
 1361              		.size	testevt3, 16
 1362              	testevt3:
 1363 0088 74000000 		.word	.LC4
 1364 008c 00000000 		.word	evt3_setup
 1365 0090 00000000 		.word	0
 1366 0094 00000000 		.word	evt3_execute
 1367              		.global	patternevt
 1368              		.align	2
 1369              		.type	patternevt, %object
 1370              		.size	patternevt, 16
 1371              	patternevt:
 1372 0098 00000000 		.word	testevt1
 1373 009c 00000000 		.word	testevt2
 1374 00a0 00000000 		.word	testevt3
 1375 00a4 00000000 		.word	0
 1376              		.text
 1377              	.Letext0:
 1378              		.file 8 "/nfs/nfs5/home/research/hardware/arm2/gcc-arm-embedded/gcc-arm-none-eabi-4_8-2014q2/lib/g
 1379              		.file 9 "/nfs/nfs5/home/research/hardware/arm2/gcc-arm-embedded/gcc-arm-none-eabi-4_8-2014q2/arm-n
 1380              		.file 10 "/nfs/nfs5/home/research/hardware/arm2/gcc-arm-embedded/gcc-arm-none-eabi-4_8-2014q2/arm-
 1381              		.file 11 "../../../../../../ChibiOS/os/rt/ports/ARMCMx/compilers/GCC/chtypes.h"
 1382              		.file 12 "../../../../../../ChibiOS/os/rt/include/chsystypes.h"
 1383              		.file 13 "../../../../../../ChibiOS/os/rt/include/chschd.h"
 1384              		.file 14 "../../../../../../ChibiOS/os/rt/ports/ARMCMx/chcore.h"
 1385              		.file 15 "../../../../../../ChibiOS/os/rt/include/chtm.h"
 1386              		.file 16 "../../../../../../ChibiOS/os/rt/include/chsem.h"
 1387              		.file 17 "../../../../../../ChibiOS/os/rt/include/chmtx.h"
 1388              		.file 18 "../../../../../../ChibiOS/test/rt/test.h"
 1389              		.file 19 "../../../../../../ChibiOS/os/ext/CMSIS/include/core_cm4.h"