ARM GAS  /tmp/ccPQ1Gqd.s 			page 1


   1              		.syntax unified
   2              		.cpu cortex-m4
   3              		.fpu softvfp
   4              		.eabi_attribute 20, 1
   5              		.eabi_attribute 21, 1
   6              		.eabi_attribute 23, 3
   7              		.eabi_attribute 24, 1
   8              		.eabi_attribute 25, 1
   9              		.eabi_attribute 26, 1
  10              		.eabi_attribute 30, 6
  11              		.eabi_attribute 34, 1
  12              		.eabi_attribute 18, 4
  13              		.thumb
  14              		.file	"usbd_conf.c"
  15              		.text
  16              	.Ltext0:
  17              		.cfi_sections	.debug_frame
  18              		.comm	hpcd,972,4
  19              		.align	2
  20              		.p2align 4,,15
  21              		.global	HAL_PCD_SetupStageCallback
  22              		.thumb
  23              		.thumb_func
  24              		.type	HAL_PCD_SetupStageCallback, %function
  25              	HAL_PCD_SetupStageCallback:
  26              	.LFB263:
  27              		.file 1 "../../../../../Projects/Multi/Applications/BlueMicrosystem2/Src/usbd_conf.c"
  28              		.loc 1 72 0
  29              		.cfi_startproc
  30              		@ args = 0, pretend = 0, frame = 8
  31              		@ frame_needed = 0, uses_anonymous_args = 0
  32 0000 00B5     		push	{lr}
  33              		.cfi_def_cfa_offset 4
  34              		.cfi_offset 14, -4
  35 0002 83B0     		sub	sp, sp, #12
  36              		.cfi_def_cfa_offset 16
  37 0004 0190     		str	r0, [sp, #4]
  38              		.loc 1 73 0
  39 0006 019B     		ldr	r3, [sp, #4]
  40 0008 D3F8C823 		ldr	r2, [r3, #968]
  41 000c 019B     		ldr	r3, [sp, #4]
  42 000e 03F56273 		add	r3, r3, #904
  43 0012 1046     		mov	r0, r2
  44 0014 1946     		mov	r1, r3
  45 0016 FFF7FEFF 		bl	USBD_LL_SetupStage
  46              		.loc 1 74 0
  47 001a 03B0     		add	sp, sp, #12
  48              		@ sp needed
  49 001c 5DF804FB 		ldr	pc, [sp], #4
  50              		.cfi_endproc
  51              	.LFE263:
  52              		.size	HAL_PCD_SetupStageCallback, .-HAL_PCD_SetupStageCallback
  53              		.align	2
  54              		.p2align 4,,15
  55              		.global	HAL_PCD_DataOutStageCallback
  56              		.thumb
  57              		.thumb_func
ARM GAS  /tmp/ccPQ1Gqd.s 			page 2


  58              		.type	HAL_PCD_DataOutStageCallback, %function
  59              	HAL_PCD_DataOutStageCallback:
  60              	.LFB264:
  61              		.loc 1 83 0
  62              		.cfi_startproc
  63              		@ args = 0, pretend = 0, frame = 8
  64              		@ frame_needed = 0, uses_anonymous_args = 0
  65 0020 00B5     		push	{lr}
  66              		.cfi_def_cfa_offset 4
  67              		.cfi_offset 14, -4
  68 0022 83B0     		sub	sp, sp, #12
  69              		.cfi_def_cfa_offset 16
  70 0024 0190     		str	r0, [sp, #4]
  71 0026 0B46     		mov	r3, r1
  72 0028 8DF80330 		strb	r3, [sp, #3]
  73              		.loc 1 84 0
  74 002c 019B     		ldr	r3, [sp, #4]
  75 002e D3F8C813 		ldr	r1, [r3, #968]
  76 0032 9DF80320 		ldrb	r2, [sp, #3]	@ zero_extendqisi2
  77 0036 0198     		ldr	r0, [sp, #4]
  78 0038 1346     		mov	r3, r2
  79 003a DB00     		lsls	r3, r3, #3
  80 003c 9B1A     		subs	r3, r3, r2
  81 003e 9B00     		lsls	r3, r3, #2
  82 0040 0344     		add	r3, r3, r0
  83 0042 03F5F473 		add	r3, r3, #488
  84 0046 5B68     		ldr	r3, [r3, #4]
  85 0048 9DF80320 		ldrb	r2, [sp, #3]	@ zero_extendqisi2
  86 004c 0846     		mov	r0, r1
  87 004e 1146     		mov	r1, r2
  88 0050 1A46     		mov	r2, r3
  89 0052 FFF7FEFF 		bl	USBD_LL_DataOutStage
  90              		.loc 1 85 0
  91 0056 03B0     		add	sp, sp, #12
  92              		@ sp needed
  93 0058 5DF804FB 		ldr	pc, [sp], #4
  94              		.cfi_endproc
  95              	.LFE264:
  96              		.size	HAL_PCD_DataOutStageCallback, .-HAL_PCD_DataOutStageCallback
  97              		.align	2
  98 005c AFF30080 		.p2align 4,,15
  99              		.global	HAL_PCD_DataInStageCallback
 100              		.thumb
 101              		.thumb_func
 102              		.type	HAL_PCD_DataInStageCallback, %function
 103              	HAL_PCD_DataInStageCallback:
 104              	.LFB265:
 105              		.loc 1 94 0
 106              		.cfi_startproc
 107              		@ args = 0, pretend = 0, frame = 8
 108              		@ frame_needed = 0, uses_anonymous_args = 0
 109 0060 00B5     		push	{lr}
 110              		.cfi_def_cfa_offset 4
 111              		.cfi_offset 14, -4
 112 0062 83B0     		sub	sp, sp, #12
 113              		.cfi_def_cfa_offset 16
 114 0064 0190     		str	r0, [sp, #4]
ARM GAS  /tmp/ccPQ1Gqd.s 			page 3


 115 0066 0B46     		mov	r3, r1
 116 0068 8DF80330 		strb	r3, [sp, #3]
 117              		.loc 1 95 0
 118 006c 019B     		ldr	r3, [sp, #4]
 119 006e D3F8C813 		ldr	r1, [r3, #968]
 120 0072 9DF80320 		ldrb	r2, [sp, #3]	@ zero_extendqisi2
 121 0076 0198     		ldr	r0, [sp, #4]
 122 0078 1346     		mov	r3, r2
 123 007a DB00     		lsls	r3, r3, #3
 124 007c 9B1A     		subs	r3, r3, r2
 125 007e 9B00     		lsls	r3, r3, #2
 126 0080 0344     		add	r3, r3, r0
 127 0082 4033     		adds	r3, r3, #64
 128 0084 9B68     		ldr	r3, [r3, #8]
 129 0086 9DF80320 		ldrb	r2, [sp, #3]	@ zero_extendqisi2
 130 008a 0846     		mov	r0, r1
 131 008c 1146     		mov	r1, r2
 132 008e 1A46     		mov	r2, r3
 133 0090 FFF7FEFF 		bl	USBD_LL_DataInStage
 134              		.loc 1 96 0
 135 0094 03B0     		add	sp, sp, #12
 136              		@ sp needed
 137 0096 5DF804FB 		ldr	pc, [sp], #4
 138              		.cfi_endproc
 139              	.LFE265:
 140              		.size	HAL_PCD_DataInStageCallback, .-HAL_PCD_DataInStageCallback
 141 009a 00BF     		.align	2
 142 009c AFF30080 		.p2align 4,,15
 143              		.global	HAL_PCD_SOFCallback
 144              		.thumb
 145              		.thumb_func
 146              		.type	HAL_PCD_SOFCallback, %function
 147              	HAL_PCD_SOFCallback:
 148              	.LFB266:
 149              		.loc 1 104 0
 150              		.cfi_startproc
 151              		@ args = 0, pretend = 0, frame = 8
 152              		@ frame_needed = 0, uses_anonymous_args = 0
 153 00a0 00B5     		push	{lr}
 154              		.cfi_def_cfa_offset 4
 155              		.cfi_offset 14, -4
 156 00a2 83B0     		sub	sp, sp, #12
 157              		.cfi_def_cfa_offset 16
 158 00a4 0190     		str	r0, [sp, #4]
 159              		.loc 1 105 0
 160 00a6 019B     		ldr	r3, [sp, #4]
 161 00a8 D3F8C833 		ldr	r3, [r3, #968]
 162 00ac 1846     		mov	r0, r3
 163 00ae FFF7FEFF 		bl	USBD_LL_SOF
 164              		.loc 1 106 0
 165 00b2 03B0     		add	sp, sp, #12
 166              		@ sp needed
 167 00b4 5DF804FB 		ldr	pc, [sp], #4
 168              		.cfi_endproc
 169              	.LFE266:
 170              		.size	HAL_PCD_SOFCallback, .-HAL_PCD_SOFCallback
 171              		.align	2
ARM GAS  /tmp/ccPQ1Gqd.s 			page 4


 172 00b8 AFF30080 		.p2align 4,,15
 172      AFF30080 
 173              		.global	HAL_PCD_ResetCallback
 174              		.thumb
 175              		.thumb_func
 176              		.type	HAL_PCD_ResetCallback, %function
 177              	HAL_PCD_ResetCallback:
 178              	.LFB267:
 179              		.loc 1 114 0
 180              		.cfi_startproc
 181              		@ args = 0, pretend = 0, frame = 8
 182              		@ frame_needed = 0, uses_anonymous_args = 0
 183 00c0 00B5     		push	{lr}
 184              		.cfi_def_cfa_offset 4
 185              		.cfi_offset 14, -4
 186 00c2 83B0     		sub	sp, sp, #12
 187              		.cfi_def_cfa_offset 16
 188 00c4 0190     		str	r0, [sp, #4]
 189              		.loc 1 116 0
 190 00c6 019B     		ldr	r3, [sp, #4]
 191 00c8 D3F8C833 		ldr	r3, [r3, #968]
 192 00cc 1846     		mov	r0, r3
 193 00ce FFF7FEFF 		bl	USBD_LL_Reset
 194              		.loc 1 119 0
 195 00d2 019B     		ldr	r3, [sp, #4]
 196 00d4 D3F8C833 		ldr	r3, [r3, #968]
 197 00d8 1846     		mov	r0, r3
 198 00da 0121     		movs	r1, #1
 199 00dc FFF7FEFF 		bl	USBD_LL_SetSpeed
 200              		.loc 1 120 0
 201 00e0 03B0     		add	sp, sp, #12
 202              		@ sp needed
 203 00e2 5DF804FB 		ldr	pc, [sp], #4
 204              		.cfi_endproc
 205              	.LFE267:
 206              		.size	HAL_PCD_ResetCallback, .-HAL_PCD_ResetCallback
 207 00e6 00BF     		.align	2
 208 00e8 AFF30080 		.p2align 4,,15
 208      AFF30080 
 209              		.global	HAL_PCD_SuspendCallback
 210              		.thumb
 211              		.thumb_func
 212              		.type	HAL_PCD_SuspendCallback, %function
 213              	HAL_PCD_SuspendCallback:
 214              	.LFB268:
 215              		.loc 1 128 0
 216              		.cfi_startproc
 217              		@ args = 0, pretend = 0, frame = 8
 218              		@ frame_needed = 0, uses_anonymous_args = 0
 219 00f0 00B5     		push	{lr}
 220              		.cfi_def_cfa_offset 4
 221              		.cfi_offset 14, -4
 222 00f2 83B0     		sub	sp, sp, #12
 223              		.cfi_def_cfa_offset 16
 224 00f4 0190     		str	r0, [sp, #4]
 225              		.loc 1 129 0
 226 00f6 019B     		ldr	r3, [sp, #4]
ARM GAS  /tmp/ccPQ1Gqd.s 			page 5


 227 00f8 D3F8C833 		ldr	r3, [r3, #968]
 228 00fc 1846     		mov	r0, r3
 229 00fe FFF7FEFF 		bl	USBD_LL_Suspend
 230              		.loc 1 130 0
 231 0102 03B0     		add	sp, sp, #12
 232              		@ sp needed
 233 0104 5DF804FB 		ldr	pc, [sp], #4
 234              		.cfi_endproc
 235              	.LFE268:
 236              		.size	HAL_PCD_SuspendCallback, .-HAL_PCD_SuspendCallback
 237              		.align	2
 238 0108 AFF30080 		.p2align 4,,15
 238      AFF30080 
 239              		.global	HAL_PCD_ResumeCallback
 240              		.thumb
 241              		.thumb_func
 242              		.type	HAL_PCD_ResumeCallback, %function
 243              	HAL_PCD_ResumeCallback:
 244              	.LFB269:
 245              		.loc 1 138 0
 246              		.cfi_startproc
 247              		@ args = 0, pretend = 0, frame = 8
 248              		@ frame_needed = 0, uses_anonymous_args = 0
 249 0110 00B5     		push	{lr}
 250              		.cfi_def_cfa_offset 4
 251              		.cfi_offset 14, -4
 252 0112 83B0     		sub	sp, sp, #12
 253              		.cfi_def_cfa_offset 16
 254 0114 0190     		str	r0, [sp, #4]
 255              		.loc 1 139 0
 256 0116 019B     		ldr	r3, [sp, #4]
 257 0118 D3F8C833 		ldr	r3, [r3, #968]
 258 011c 1846     		mov	r0, r3
 259 011e FFF7FEFF 		bl	USBD_LL_Resume
 260              		.loc 1 140 0
 261 0122 03B0     		add	sp, sp, #12
 262              		@ sp needed
 263 0124 5DF804FB 		ldr	pc, [sp], #4
 264              		.cfi_endproc
 265              	.LFE269:
 266              		.size	HAL_PCD_ResumeCallback, .-HAL_PCD_ResumeCallback
 267              		.align	2
 268 0128 AFF30080 		.p2align 4,,15
 268      AFF30080 
 269              		.global	HAL_PCD_ISOOUTIncompleteCallback
 270              		.thumb
 271              		.thumb_func
 272              		.type	HAL_PCD_ISOOUTIncompleteCallback, %function
 273              	HAL_PCD_ISOOUTIncompleteCallback:
 274              	.LFB270:
 275              		.loc 1 149 0
 276              		.cfi_startproc
 277              		@ args = 0, pretend = 0, frame = 8
 278              		@ frame_needed = 0, uses_anonymous_args = 0
 279 0130 00B5     		push	{lr}
 280              		.cfi_def_cfa_offset 4
 281              		.cfi_offset 14, -4
ARM GAS  /tmp/ccPQ1Gqd.s 			page 6


 282 0132 83B0     		sub	sp, sp, #12
 283              		.cfi_def_cfa_offset 16
 284 0134 0190     		str	r0, [sp, #4]
 285 0136 0B46     		mov	r3, r1
 286 0138 8DF80330 		strb	r3, [sp, #3]
 287              		.loc 1 150 0
 288 013c 019B     		ldr	r3, [sp, #4]
 289 013e D3F8C823 		ldr	r2, [r3, #968]
 290 0142 9DF80330 		ldrb	r3, [sp, #3]	@ zero_extendqisi2
 291 0146 1046     		mov	r0, r2
 292 0148 1946     		mov	r1, r3
 293 014a FFF7FEFF 		bl	USBD_LL_IsoOUTIncomplete
 294              		.loc 1 151 0
 295 014e 03B0     		add	sp, sp, #12
 296              		@ sp needed
 297 0150 5DF804FB 		ldr	pc, [sp], #4
 298              		.cfi_endproc
 299              	.LFE270:
 300              		.size	HAL_PCD_ISOOUTIncompleteCallback, .-HAL_PCD_ISOOUTIncompleteCallback
 301              		.align	2
 302 0154 AFF30080 		.p2align 4,,15
 302      AFF30080 
 302      AFF30080 
 303              		.global	HAL_PCD_ISOINIncompleteCallback
 304              		.thumb
 305              		.thumb_func
 306              		.type	HAL_PCD_ISOINIncompleteCallback, %function
 307              	HAL_PCD_ISOINIncompleteCallback:
 308              	.LFB271:
 309              		.loc 1 160 0
 310              		.cfi_startproc
 311              		@ args = 0, pretend = 0, frame = 8
 312              		@ frame_needed = 0, uses_anonymous_args = 0
 313 0160 00B5     		push	{lr}
 314              		.cfi_def_cfa_offset 4
 315              		.cfi_offset 14, -4
 316 0162 83B0     		sub	sp, sp, #12
 317              		.cfi_def_cfa_offset 16
 318 0164 0190     		str	r0, [sp, #4]
 319 0166 0B46     		mov	r3, r1
 320 0168 8DF80330 		strb	r3, [sp, #3]
 321              		.loc 1 161 0
 322 016c 019B     		ldr	r3, [sp, #4]
 323 016e D3F8C823 		ldr	r2, [r3, #968]
 324 0172 9DF80330 		ldrb	r3, [sp, #3]	@ zero_extendqisi2
 325 0176 1046     		mov	r0, r2
 326 0178 1946     		mov	r1, r3
 327 017a FFF7FEFF 		bl	USBD_LL_IsoINIncomplete
 328              		.loc 1 162 0
 329 017e 03B0     		add	sp, sp, #12
 330              		@ sp needed
 331 0180 5DF804FB 		ldr	pc, [sp], #4
 332              		.cfi_endproc
 333              	.LFE271:
 334              		.size	HAL_PCD_ISOINIncompleteCallback, .-HAL_PCD_ISOINIncompleteCallback
 335              		.align	2
 336 0184 AFF30080 		.p2align 4,,15
ARM GAS  /tmp/ccPQ1Gqd.s 			page 7


 336      AFF30080 
 336      AFF30080 
 337              		.global	HAL_PCD_ConnectCallback
 338              		.thumb
 339              		.thumb_func
 340              		.type	HAL_PCD_ConnectCallback, %function
 341              	HAL_PCD_ConnectCallback:
 342              	.LFB272:
 343              		.loc 1 170 0
 344              		.cfi_startproc
 345              		@ args = 0, pretend = 0, frame = 8
 346              		@ frame_needed = 0, uses_anonymous_args = 0
 347 0190 00B5     		push	{lr}
 348              		.cfi_def_cfa_offset 4
 349              		.cfi_offset 14, -4
 350 0192 83B0     		sub	sp, sp, #12
 351              		.cfi_def_cfa_offset 16
 352 0194 0190     		str	r0, [sp, #4]
 353              		.loc 1 171 0
 354 0196 019B     		ldr	r3, [sp, #4]
 355 0198 D3F8C833 		ldr	r3, [r3, #968]
 356 019c 1846     		mov	r0, r3
 357 019e FFF7FEFF 		bl	USBD_LL_DevConnected
 358              		.loc 1 172 0
 359 01a2 03B0     		add	sp, sp, #12
 360              		@ sp needed
 361 01a4 5DF804FB 		ldr	pc, [sp], #4
 362              		.cfi_endproc
 363              	.LFE272:
 364              		.size	HAL_PCD_ConnectCallback, .-HAL_PCD_ConnectCallback
 365              		.align	2
 366 01a8 AFF30080 		.p2align 4,,15
 366      AFF30080 
 367              		.global	HAL_PCD_DisconnectCallback
 368              		.thumb
 369              		.thumb_func
 370              		.type	HAL_PCD_DisconnectCallback, %function
 371              	HAL_PCD_DisconnectCallback:
 372              	.LFB273:
 373              		.loc 1 180 0
 374              		.cfi_startproc
 375              		@ args = 0, pretend = 0, frame = 8
 376              		@ frame_needed = 0, uses_anonymous_args = 0
 377 01b0 00B5     		push	{lr}
 378              		.cfi_def_cfa_offset 4
 379              		.cfi_offset 14, -4
 380 01b2 83B0     		sub	sp, sp, #12
 381              		.cfi_def_cfa_offset 16
 382 01b4 0190     		str	r0, [sp, #4]
 383              		.loc 1 181 0
 384 01b6 019B     		ldr	r3, [sp, #4]
 385 01b8 D3F8C833 		ldr	r3, [r3, #968]
 386 01bc 1846     		mov	r0, r3
 387 01be FFF7FEFF 		bl	USBD_LL_DevDisconnected
 388              		.loc 1 182 0
 389 01c2 03B0     		add	sp, sp, #12
 390              		@ sp needed
ARM GAS  /tmp/ccPQ1Gqd.s 			page 8


 391 01c4 5DF804FB 		ldr	pc, [sp], #4
 392              		.cfi_endproc
 393              	.LFE273:
 394              		.size	HAL_PCD_DisconnectCallback, .-HAL_PCD_DisconnectCallback
 395              		.align	2
 396 01c8 AFF30080 		.p2align 4,,15
 396      AFF30080 
 397              		.global	USBD_LL_Init
 398              		.thumb
 399              		.thumb_func
 400              		.type	USBD_LL_Init, %function
 401              	USBD_LL_Init:
 402              	.LFB274:
 403              		.loc 1 195 0
 404              		.cfi_startproc
 405              		@ args = 0, pretend = 0, frame = 8
 406              		@ frame_needed = 0, uses_anonymous_args = 0
 407 01d0 00B5     		push	{lr}
 408              		.cfi_def_cfa_offset 4
 409              		.cfi_offset 14, -4
 410 01d2 83B0     		sub	sp, sp, #12
 411              		.cfi_def_cfa_offset 16
 412 01d4 0190     		str	r0, [sp, #4]
 413              		.loc 1 197 0
 414 01d6 214B     		ldr	r3, .L14
 415 01d8 4FF0A042 		mov	r2, #1342177280
 416 01dc 1A60     		str	r2, [r3]
 417              		.loc 1 198 0
 418 01de 1F4B     		ldr	r3, .L14
 419 01e0 0522     		movs	r2, #5
 420 01e2 5A60     		str	r2, [r3, #4]
 421              		.loc 1 199 0
 422 01e4 1D4B     		ldr	r3, .L14
 423 01e6 0022     		movs	r2, #0
 424 01e8 1A63     		str	r2, [r3, #48]
 425              		.loc 1 200 0
 426 01ea 1C4B     		ldr	r3, .L14
 427 01ec 4022     		movs	r2, #64
 428 01ee 5A61     		str	r2, [r3, #20]
 429              		.loc 1 201 0
 430 01f0 1A4B     		ldr	r3, .L14
 431 01f2 0022     		movs	r2, #0
 432 01f4 1A61     		str	r2, [r3, #16]
 433              		.loc 1 202 0
 434 01f6 194B     		ldr	r3, .L14
 435 01f8 0022     		movs	r2, #0
 436 01fa 1A62     		str	r2, [r3, #32]
 437              		.loc 1 203 0
 438 01fc 174B     		ldr	r3, .L14
 439 01fe 0022     		movs	r2, #0
 440 0200 5A62     		str	r2, [r3, #36]
 441              		.loc 1 204 0
 442 0202 164B     		ldr	r3, .L14
 443 0204 0022     		movs	r2, #0
 444 0206 9A62     		str	r2, [r3, #40]
 445              		.loc 1 205 0
 446 0208 144B     		ldr	r3, .L14
ARM GAS  /tmp/ccPQ1Gqd.s 			page 9


 447 020a 0122     		movs	r2, #1
 448 020c 9A61     		str	r2, [r3, #24]
 449              		.loc 1 206 0
 450 020e 134B     		ldr	r3, .L14
 451 0210 0022     		movs	r2, #0
 452 0212 DA61     		str	r2, [r3, #28]
 453              		.loc 1 207 0
 454 0214 114B     		ldr	r3, .L14
 455 0216 0122     		movs	r2, #1
 456 0218 DA60     		str	r2, [r3, #12]
 457              		.loc 1 208 0
 458 021a 104B     		ldr	r3, .L14
 459 021c 0022     		movs	r2, #0
 460 021e DA62     		str	r2, [r3, #44]
 461              		.loc 1 210 0
 462 0220 0E4B     		ldr	r3, .L14
 463 0222 019A     		ldr	r2, [sp, #4]
 464 0224 C3F8C823 		str	r2, [r3, #968]
 465              		.loc 1 211 0
 466 0228 019B     		ldr	r3, [sp, #4]
 467 022a 0C4A     		ldr	r2, .L14
 468 022c C3F82022 		str	r2, [r3, #544]
 469              		.loc 1 213 0
 470 0230 0A48     		ldr	r0, .L14
 471 0232 FFF7FEFF 		bl	HAL_PCD_Init
 472              		.loc 1 215 0
 473 0236 0948     		ldr	r0, .L14
 474 0238 8021     		movs	r1, #128
 475 023a FFF7FEFF 		bl	HAL_PCDEx_SetRxFiFo
 476              		.loc 1 216 0
 477 023e 0748     		ldr	r0, .L14
 478 0240 0021     		movs	r1, #0
 479 0242 4022     		movs	r2, #64
 480 0244 FFF7FEFF 		bl	HAL_PCDEx_SetTxFiFo
 481              		.loc 1 217 0
 482 0248 0448     		ldr	r0, .L14
 483 024a 0121     		movs	r1, #1
 484 024c 8022     		movs	r2, #128
 485 024e FFF7FEFF 		bl	HAL_PCDEx_SetTxFiFo
 486              		.loc 1 219 0
 487 0252 0023     		movs	r3, #0
 488              		.loc 1 220 0
 489 0254 1846     		mov	r0, r3
 490 0256 03B0     		add	sp, sp, #12
 491              		@ sp needed
 492 0258 5DF804FB 		ldr	pc, [sp], #4
 493              	.L15:
 494              		.align	2
 495              	.L14:
 496 025c 00000000 		.word	hpcd
 497              		.cfi_endproc
 498              	.LFE274:
 499              		.size	USBD_LL_Init, .-USBD_LL_Init
 500              		.align	2
 501              		.p2align 4,,15
 502              		.global	USBD_LL_DeInit
 503              		.thumb
ARM GAS  /tmp/ccPQ1Gqd.s 			page 10


 504              		.thumb_func
 505              		.type	USBD_LL_DeInit, %function
 506              	USBD_LL_DeInit:
 507              	.LFB275:
 508              		.loc 1 228 0
 509              		.cfi_startproc
 510              		@ args = 0, pretend = 0, frame = 8
 511              		@ frame_needed = 0, uses_anonymous_args = 0
 512 0260 00B5     		push	{lr}
 513              		.cfi_def_cfa_offset 4
 514              		.cfi_offset 14, -4
 515 0262 83B0     		sub	sp, sp, #12
 516              		.cfi_def_cfa_offset 16
 517 0264 0190     		str	r0, [sp, #4]
 518              		.loc 1 229 0
 519 0266 019B     		ldr	r3, [sp, #4]
 520 0268 D3F82032 		ldr	r3, [r3, #544]
 521 026c 1846     		mov	r0, r3
 522 026e FFF7FEFF 		bl	HAL_PCD_DeInit
 523              		.loc 1 230 0
 524 0272 0023     		movs	r3, #0
 525              		.loc 1 231 0
 526 0274 1846     		mov	r0, r3
 527 0276 03B0     		add	sp, sp, #12
 528              		@ sp needed
 529 0278 5DF804FB 		ldr	pc, [sp], #4
 530              		.cfi_endproc
 531              	.LFE275:
 532              		.size	USBD_LL_DeInit, .-USBD_LL_DeInit
 533              		.align	2
 534 027c AFF30080 		.p2align 4,,15
 535              		.global	USBD_LL_Start
 536              		.thumb
 537              		.thumb_func
 538              		.type	USBD_LL_Start, %function
 539              	USBD_LL_Start:
 540              	.LFB276:
 541              		.loc 1 239 0
 542              		.cfi_startproc
 543              		@ args = 0, pretend = 0, frame = 8
 544              		@ frame_needed = 0, uses_anonymous_args = 0
 545 0280 00B5     		push	{lr}
 546              		.cfi_def_cfa_offset 4
 547              		.cfi_offset 14, -4
 548 0282 83B0     		sub	sp, sp, #12
 549              		.cfi_def_cfa_offset 16
 550 0284 0190     		str	r0, [sp, #4]
 551              		.loc 1 240 0
 552 0286 019B     		ldr	r3, [sp, #4]
 553 0288 D3F82032 		ldr	r3, [r3, #544]
 554 028c 1846     		mov	r0, r3
 555 028e FFF7FEFF 		bl	HAL_PCD_Start
 556              		.loc 1 241 0
 557 0292 0023     		movs	r3, #0
 558              		.loc 1 242 0
 559 0294 1846     		mov	r0, r3
 560 0296 03B0     		add	sp, sp, #12
ARM GAS  /tmp/ccPQ1Gqd.s 			page 11


 561              		@ sp needed
 562 0298 5DF804FB 		ldr	pc, [sp], #4
 563              		.cfi_endproc
 564              	.LFE276:
 565              		.size	USBD_LL_Start, .-USBD_LL_Start
 566              		.align	2
 567 029c AFF30080 		.p2align 4,,15
 568              		.global	USBD_LL_Stop
 569              		.thumb
 570              		.thumb_func
 571              		.type	USBD_LL_Stop, %function
 572              	USBD_LL_Stop:
 573              	.LFB277:
 574              		.loc 1 250 0
 575              		.cfi_startproc
 576              		@ args = 0, pretend = 0, frame = 8
 577              		@ frame_needed = 0, uses_anonymous_args = 0
 578 02a0 00B5     		push	{lr}
 579              		.cfi_def_cfa_offset 4
 580              		.cfi_offset 14, -4
 581 02a2 83B0     		sub	sp, sp, #12
 582              		.cfi_def_cfa_offset 16
 583 02a4 0190     		str	r0, [sp, #4]
 584              		.loc 1 251 0
 585 02a6 019B     		ldr	r3, [sp, #4]
 586 02a8 D3F82032 		ldr	r3, [r3, #544]
 587 02ac 1846     		mov	r0, r3
 588 02ae FFF7FEFF 		bl	HAL_PCD_Stop
 589              		.loc 1 252 0
 590 02b2 0023     		movs	r3, #0
 591              		.loc 1 253 0
 592 02b4 1846     		mov	r0, r3
 593 02b6 03B0     		add	sp, sp, #12
 594              		@ sp needed
 595 02b8 5DF804FB 		ldr	pc, [sp], #4
 596              		.cfi_endproc
 597              	.LFE277:
 598              		.size	USBD_LL_Stop, .-USBD_LL_Stop
 599              		.align	2
 600 02bc AFF30080 		.p2align 4,,15
 601              		.global	USBD_LL_OpenEP
 602              		.thumb
 603              		.thumb_func
 604              		.type	USBD_LL_OpenEP, %function
 605              	USBD_LL_OpenEP:
 606              	.LFB278:
 607              		.loc 1 267 0
 608              		.cfi_startproc
 609              		@ args = 0, pretend = 0, frame = 8
 610              		@ frame_needed = 0, uses_anonymous_args = 0
 611 02c0 00B5     		push	{lr}
 612              		.cfi_def_cfa_offset 4
 613              		.cfi_offset 14, -4
 614 02c2 83B0     		sub	sp, sp, #12
 615              		.cfi_def_cfa_offset 16
 616 02c4 0190     		str	r0, [sp, #4]
 617 02c6 8DF80310 		strb	r1, [sp, #3]
ARM GAS  /tmp/ccPQ1Gqd.s 			page 12


 618 02ca 8DF80220 		strb	r2, [sp, #2]
 619 02ce ADF80030 		strh	r3, [sp]	@ movhi
 620              		.loc 1 268 0
 621 02d2 019B     		ldr	r3, [sp, #4]
 622 02d4 D3F82002 		ldr	r0, [r3, #544]
 623 02d8 9DF80310 		ldrb	r1, [sp, #3]	@ zero_extendqisi2
 624 02dc BDF80020 		ldrh	r2, [sp]
 625 02e0 9DF80230 		ldrb	r3, [sp, #2]	@ zero_extendqisi2
 626 02e4 FFF7FEFF 		bl	HAL_PCD_EP_Open
 627              		.loc 1 273 0
 628 02e8 0023     		movs	r3, #0
 629              		.loc 1 274 0
 630 02ea 1846     		mov	r0, r3
 631 02ec 03B0     		add	sp, sp, #12
 632              		@ sp needed
 633 02ee 5DF804FB 		ldr	pc, [sp], #4
 634              		.cfi_endproc
 635              	.LFE278:
 636              		.size	USBD_LL_OpenEP, .-USBD_LL_OpenEP
 637 02f2 00BF     		.align	2
 638 02f4 AFF30080 		.p2align 4,,15
 638      AFF30080 
 638      AFF30080 
 639              		.global	USBD_LL_CloseEP
 640              		.thumb
 641              		.thumb_func
 642              		.type	USBD_LL_CloseEP, %function
 643              	USBD_LL_CloseEP:
 644              	.LFB279:
 645              		.loc 1 283 0
 646              		.cfi_startproc
 647              		@ args = 0, pretend = 0, frame = 8
 648              		@ frame_needed = 0, uses_anonymous_args = 0
 649 0300 00B5     		push	{lr}
 650              		.cfi_def_cfa_offset 4
 651              		.cfi_offset 14, -4
 652 0302 83B0     		sub	sp, sp, #12
 653              		.cfi_def_cfa_offset 16
 654 0304 0190     		str	r0, [sp, #4]
 655 0306 0B46     		mov	r3, r1
 656 0308 8DF80330 		strb	r3, [sp, #3]
 657              		.loc 1 284 0
 658 030c 019B     		ldr	r3, [sp, #4]
 659 030e D3F82022 		ldr	r2, [r3, #544]
 660 0312 9DF80330 		ldrb	r3, [sp, #3]	@ zero_extendqisi2
 661 0316 1046     		mov	r0, r2
 662 0318 1946     		mov	r1, r3
 663 031a FFF7FEFF 		bl	HAL_PCD_EP_Close
 664              		.loc 1 285 0
 665 031e 0023     		movs	r3, #0
 666              		.loc 1 286 0
 667 0320 1846     		mov	r0, r3
 668 0322 03B0     		add	sp, sp, #12
 669              		@ sp needed
 670 0324 5DF804FB 		ldr	pc, [sp], #4
 671              		.cfi_endproc
 672              	.LFE279:
ARM GAS  /tmp/ccPQ1Gqd.s 			page 13


 673              		.size	USBD_LL_CloseEP, .-USBD_LL_CloseEP
 674              		.align	2
 675 0328 AFF30080 		.p2align 4,,15
 675      AFF30080 
 676              		.global	USBD_LL_FlushEP
 677              		.thumb
 678              		.thumb_func
 679              		.type	USBD_LL_FlushEP, %function
 680              	USBD_LL_FlushEP:
 681              	.LFB280:
 682              		.loc 1 295 0
 683              		.cfi_startproc
 684              		@ args = 0, pretend = 0, frame = 8
 685              		@ frame_needed = 0, uses_anonymous_args = 0
 686 0330 00B5     		push	{lr}
 687              		.cfi_def_cfa_offset 4
 688              		.cfi_offset 14, -4
 689 0332 83B0     		sub	sp, sp, #12
 690              		.cfi_def_cfa_offset 16
 691 0334 0190     		str	r0, [sp, #4]
 692 0336 0B46     		mov	r3, r1
 693 0338 8DF80330 		strb	r3, [sp, #3]
 694              		.loc 1 296 0
 695 033c 019B     		ldr	r3, [sp, #4]
 696 033e D3F82022 		ldr	r2, [r3, #544]
 697 0342 9DF80330 		ldrb	r3, [sp, #3]	@ zero_extendqisi2
 698 0346 1046     		mov	r0, r2
 699 0348 1946     		mov	r1, r3
 700 034a FFF7FEFF 		bl	HAL_PCD_EP_Flush
 701              		.loc 1 297 0
 702 034e 0023     		movs	r3, #0
 703              		.loc 1 298 0
 704 0350 1846     		mov	r0, r3
 705 0352 03B0     		add	sp, sp, #12
 706              		@ sp needed
 707 0354 5DF804FB 		ldr	pc, [sp], #4
 708              		.cfi_endproc
 709              	.LFE280:
 710              		.size	USBD_LL_FlushEP, .-USBD_LL_FlushEP
 711              		.align	2
 712 0358 AFF30080 		.p2align 4,,15
 712      AFF30080 
 713              		.global	USBD_LL_StallEP
 714              		.thumb
 715              		.thumb_func
 716              		.type	USBD_LL_StallEP, %function
 717              	USBD_LL_StallEP:
 718              	.LFB281:
 719              		.loc 1 307 0
 720              		.cfi_startproc
 721              		@ args = 0, pretend = 0, frame = 8
 722              		@ frame_needed = 0, uses_anonymous_args = 0
 723 0360 00B5     		push	{lr}
 724              		.cfi_def_cfa_offset 4
 725              		.cfi_offset 14, -4
 726 0362 83B0     		sub	sp, sp, #12
 727              		.cfi_def_cfa_offset 16
ARM GAS  /tmp/ccPQ1Gqd.s 			page 14


 728 0364 0190     		str	r0, [sp, #4]
 729 0366 0B46     		mov	r3, r1
 730 0368 8DF80330 		strb	r3, [sp, #3]
 731              		.loc 1 308 0
 732 036c 019B     		ldr	r3, [sp, #4]
 733 036e D3F82022 		ldr	r2, [r3, #544]
 734 0372 9DF80330 		ldrb	r3, [sp, #3]	@ zero_extendqisi2
 735 0376 1046     		mov	r0, r2
 736 0378 1946     		mov	r1, r3
 737 037a FFF7FEFF 		bl	HAL_PCD_EP_SetStall
 738              		.loc 1 309 0
 739 037e 0023     		movs	r3, #0
 740              		.loc 1 310 0
 741 0380 1846     		mov	r0, r3
 742 0382 03B0     		add	sp, sp, #12
 743              		@ sp needed
 744 0384 5DF804FB 		ldr	pc, [sp], #4
 745              		.cfi_endproc
 746              	.LFE281:
 747              		.size	USBD_LL_StallEP, .-USBD_LL_StallEP
 748              		.align	2
 749 0388 AFF30080 		.p2align 4,,15
 749      AFF30080 
 750              		.global	USBD_LL_ClearStallEP
 751              		.thumb
 752              		.thumb_func
 753              		.type	USBD_LL_ClearStallEP, %function
 754              	USBD_LL_ClearStallEP:
 755              	.LFB282:
 756              		.loc 1 319 0
 757              		.cfi_startproc
 758              		@ args = 0, pretend = 0, frame = 8
 759              		@ frame_needed = 0, uses_anonymous_args = 0
 760 0390 00B5     		push	{lr}
 761              		.cfi_def_cfa_offset 4
 762              		.cfi_offset 14, -4
 763 0392 83B0     		sub	sp, sp, #12
 764              		.cfi_def_cfa_offset 16
 765 0394 0190     		str	r0, [sp, #4]
 766 0396 0B46     		mov	r3, r1
 767 0398 8DF80330 		strb	r3, [sp, #3]
 768              		.loc 1 320 0
 769 039c 019B     		ldr	r3, [sp, #4]
 770 039e D3F82022 		ldr	r2, [r3, #544]
 771 03a2 9DF80330 		ldrb	r3, [sp, #3]	@ zero_extendqisi2
 772 03a6 1046     		mov	r0, r2
 773 03a8 1946     		mov	r1, r3
 774 03aa FFF7FEFF 		bl	HAL_PCD_EP_ClrStall
 775              		.loc 1 321 0
 776 03ae 0023     		movs	r3, #0
 777              		.loc 1 322 0
 778 03b0 1846     		mov	r0, r3
 779 03b2 03B0     		add	sp, sp, #12
 780              		@ sp needed
 781 03b4 5DF804FB 		ldr	pc, [sp], #4
 782              		.cfi_endproc
 783              	.LFE282:
ARM GAS  /tmp/ccPQ1Gqd.s 			page 15


 784              		.size	USBD_LL_ClearStallEP, .-USBD_LL_ClearStallEP
 785              		.align	2
 786 03b8 AFF30080 		.p2align 4,,15
 786      AFF30080 
 787              		.global	USBD_LL_IsStallEP
 788              		.thumb
 789              		.thumb_func
 790              		.type	USBD_LL_IsStallEP, %function
 791              	USBD_LL_IsStallEP:
 792              	.LFB283:
 793              		.loc 1 331 0
 794              		.cfi_startproc
 795              		@ args = 0, pretend = 0, frame = 16
 796              		@ frame_needed = 0, uses_anonymous_args = 0
 797              		@ link register save eliminated.
 798 03c0 84B0     		sub	sp, sp, #16
 799              		.cfi_def_cfa_offset 16
 800 03c2 0190     		str	r0, [sp, #4]
 801 03c4 0B46     		mov	r3, r1
 802 03c6 8DF80330 		strb	r3, [sp, #3]
 803              		.loc 1 332 0
 804 03ca 019B     		ldr	r3, [sp, #4]
 805 03cc D3F82032 		ldr	r3, [r3, #544]
 806 03d0 0393     		str	r3, [sp, #12]
 807              		.loc 1 334 0
 808 03d2 9DF80330 		ldrb	r3, [sp, #3]	@ zero_extendqisi2
 809 03d6 5BB2     		sxtb	r3, r3
 810 03d8 002B     		cmp	r3, #0
 811 03da 0CDA     		bge	.L33
 812              		.loc 1 336 0
 813 03dc 9DF80330 		ldrb	r3, [sp, #3]	@ zero_extendqisi2
 814 03e0 03F07F02 		and	r2, r3, #127
 815 03e4 0399     		ldr	r1, [sp, #12]
 816 03e6 1346     		mov	r3, r2
 817 03e8 DB00     		lsls	r3, r3, #3
 818 03ea 9B1A     		subs	r3, r3, r2
 819 03ec 9B00     		lsls	r3, r3, #2
 820 03ee 0B44     		add	r3, r3, r1
 821 03f0 3833     		adds	r3, r3, #56
 822 03f2 9B79     		ldrb	r3, [r3, #6]	@ zero_extendqisi2
 823 03f4 0CE0     		b	.L34
 824              	.L33:
 825              		.loc 1 340 0
 826 03f6 9DF80330 		ldrb	r3, [sp, #3]	@ zero_extendqisi2
 827 03fa 03F07F02 		and	r2, r3, #127
 828 03fe 0399     		ldr	r1, [sp, #12]
 829 0400 1346     		mov	r3, r2
 830 0402 DB00     		lsls	r3, r3, #3
 831 0404 9B1A     		subs	r3, r3, r2
 832 0406 9B00     		lsls	r3, r3, #2
 833 0408 0B44     		add	r3, r3, r1
 834 040a 03F5F073 		add	r3, r3, #480
 835 040e 9B78     		ldrb	r3, [r3, #2]	@ zero_extendqisi2
 836              	.L34:
 837              		.loc 1 342 0
 838 0410 1846     		mov	r0, r3
 839 0412 04B0     		add	sp, sp, #16
ARM GAS  /tmp/ccPQ1Gqd.s 			page 16


 840              		@ sp needed
 841 0414 7047     		bx	lr
 842              		.cfi_endproc
 843              	.LFE283:
 844              		.size	USBD_LL_IsStallEP, .-USBD_LL_IsStallEP
 845 0416 00BF     		.align	2
 846 0418 AFF30080 		.p2align 4,,15
 846      AFF30080 
 847              		.global	USBD_LL_SetUSBAddress
 848              		.thumb
 849              		.thumb_func
 850              		.type	USBD_LL_SetUSBAddress, %function
 851              	USBD_LL_SetUSBAddress:
 852              	.LFB284:
 853              		.loc 1 351 0
 854              		.cfi_startproc
 855              		@ args = 0, pretend = 0, frame = 8
 856              		@ frame_needed = 0, uses_anonymous_args = 0
 857 0420 00B5     		push	{lr}
 858              		.cfi_def_cfa_offset 4
 859              		.cfi_offset 14, -4
 860 0422 83B0     		sub	sp, sp, #12
 861              		.cfi_def_cfa_offset 16
 862 0424 0190     		str	r0, [sp, #4]
 863 0426 0B46     		mov	r3, r1
 864 0428 8DF80330 		strb	r3, [sp, #3]
 865              		.loc 1 352 0
 866 042c 019B     		ldr	r3, [sp, #4]
 867 042e D3F82022 		ldr	r2, [r3, #544]
 868 0432 9DF80330 		ldrb	r3, [sp, #3]	@ zero_extendqisi2
 869 0436 1046     		mov	r0, r2
 870 0438 1946     		mov	r1, r3
 871 043a FFF7FEFF 		bl	HAL_PCD_SetAddress
 872              		.loc 1 353 0
 873 043e 0023     		movs	r3, #0
 874              		.loc 1 354 0
 875 0440 1846     		mov	r0, r3
 876 0442 03B0     		add	sp, sp, #12
 877              		@ sp needed
 878 0444 5DF804FB 		ldr	pc, [sp], #4
 879              		.cfi_endproc
 880              	.LFE284:
 881              		.size	USBD_LL_SetUSBAddress, .-USBD_LL_SetUSBAddress
 882              		.align	2
 883 0448 AFF30080 		.p2align 4,,15
 883      AFF30080 
 884              		.global	USBD_LL_Transmit
 885              		.thumb
 886              		.thumb_func
 887              		.type	USBD_LL_Transmit, %function
 888              	USBD_LL_Transmit:
 889              	.LFB285:
 890              		.loc 1 368 0
 891              		.cfi_startproc
 892              		@ args = 0, pretend = 0, frame = 16
 893              		@ frame_needed = 0, uses_anonymous_args = 0
 894 0450 00B5     		push	{lr}
ARM GAS  /tmp/ccPQ1Gqd.s 			page 17


 895              		.cfi_def_cfa_offset 4
 896              		.cfi_offset 14, -4
 897 0452 85B0     		sub	sp, sp, #20
 898              		.cfi_def_cfa_offset 24
 899 0454 0390     		str	r0, [sp, #12]
 900 0456 0192     		str	r2, [sp, #4]
 901 0458 0A46     		mov	r2, r1
 902 045a 8DF80B20 		strb	r2, [sp, #11]
 903 045e ADF80830 		strh	r3, [sp, #8]	@ movhi
 904              		.loc 1 369 0
 905 0462 039B     		ldr	r3, [sp, #12]
 906 0464 D3F82012 		ldr	r1, [r3, #544]
 907 0468 BDF80830 		ldrh	r3, [sp, #8]
 908 046c 9DF80B20 		ldrb	r2, [sp, #11]	@ zero_extendqisi2
 909 0470 0846     		mov	r0, r1
 910 0472 1146     		mov	r1, r2
 911 0474 019A     		ldr	r2, [sp, #4]
 912 0476 FFF7FEFF 		bl	HAL_PCD_EP_Transmit
 913              		.loc 1 370 0
 914 047a 0023     		movs	r3, #0
 915              		.loc 1 371 0
 916 047c 1846     		mov	r0, r3
 917 047e 05B0     		add	sp, sp, #20
 918              		@ sp needed
 919 0480 5DF804FB 		ldr	pc, [sp], #4
 920              		.cfi_endproc
 921              	.LFE285:
 922              		.size	USBD_LL_Transmit, .-USBD_LL_Transmit
 923              		.align	2
 924 0484 AFF30080 		.p2align 4,,15
 924      AFF30080 
 924      AFF30080 
 925              		.global	USBD_LL_PrepareReceive
 926              		.thumb
 927              		.thumb_func
 928              		.type	USBD_LL_PrepareReceive, %function
 929              	USBD_LL_PrepareReceive:
 930              	.LFB286:
 931              		.loc 1 385 0
 932              		.cfi_startproc
 933              		@ args = 0, pretend = 0, frame = 16
 934              		@ frame_needed = 0, uses_anonymous_args = 0
 935 0490 00B5     		push	{lr}
 936              		.cfi_def_cfa_offset 4
 937              		.cfi_offset 14, -4
 938 0492 85B0     		sub	sp, sp, #20
 939              		.cfi_def_cfa_offset 24
 940 0494 0390     		str	r0, [sp, #12]
 941 0496 0192     		str	r2, [sp, #4]
 942 0498 0A46     		mov	r2, r1
 943 049a 8DF80B20 		strb	r2, [sp, #11]
 944 049e ADF80830 		strh	r3, [sp, #8]	@ movhi
 945              		.loc 1 386 0
 946 04a2 039B     		ldr	r3, [sp, #12]
 947 04a4 D3F82012 		ldr	r1, [r3, #544]
 948 04a8 BDF80830 		ldrh	r3, [sp, #8]
 949 04ac 9DF80B20 		ldrb	r2, [sp, #11]	@ zero_extendqisi2
ARM GAS  /tmp/ccPQ1Gqd.s 			page 18


 950 04b0 0846     		mov	r0, r1
 951 04b2 1146     		mov	r1, r2
 952 04b4 019A     		ldr	r2, [sp, #4]
 953 04b6 FFF7FEFF 		bl	HAL_PCD_EP_Receive
 954              		.loc 1 387 0
 955 04ba 0023     		movs	r3, #0
 956              		.loc 1 388 0
 957 04bc 1846     		mov	r0, r3
 958 04be 05B0     		add	sp, sp, #20
 959              		@ sp needed
 960 04c0 5DF804FB 		ldr	pc, [sp], #4
 961              		.cfi_endproc
 962              	.LFE286:
 963              		.size	USBD_LL_PrepareReceive, .-USBD_LL_PrepareReceive
 964              		.align	2
 965 04c4 AFF30080 		.p2align 4,,15
 965      AFF30080 
 965      AFF30080 
 966              		.global	USBD_LL_GetRxDataSize
 967              		.thumb
 968              		.thumb_func
 969              		.type	USBD_LL_GetRxDataSize, %function
 970              	USBD_LL_GetRxDataSize:
 971              	.LFB287:
 972              		.loc 1 397 0
 973              		.cfi_startproc
 974              		@ args = 0, pretend = 0, frame = 8
 975              		@ frame_needed = 0, uses_anonymous_args = 0
 976 04d0 00B5     		push	{lr}
 977              		.cfi_def_cfa_offset 4
 978              		.cfi_offset 14, -4
 979 04d2 83B0     		sub	sp, sp, #12
 980              		.cfi_def_cfa_offset 16
 981 04d4 0190     		str	r0, [sp, #4]
 982 04d6 0B46     		mov	r3, r1
 983 04d8 8DF80330 		strb	r3, [sp, #3]
 984              		.loc 1 398 0
 985 04dc 019B     		ldr	r3, [sp, #4]
 986 04de D3F82022 		ldr	r2, [r3, #544]
 987 04e2 9DF80330 		ldrb	r3, [sp, #3]	@ zero_extendqisi2
 988 04e6 1046     		mov	r0, r2
 989 04e8 1946     		mov	r1, r3
 990 04ea FFF7FEFF 		bl	HAL_PCD_EP_GetRxCount
 991 04ee 0346     		mov	r3, r0
 992              		.loc 1 399 0
 993 04f0 1846     		mov	r0, r3
 994 04f2 03B0     		add	sp, sp, #12
 995              		@ sp needed
 996 04f4 5DF804FB 		ldr	pc, [sp], #4
 997              		.cfi_endproc
 998              	.LFE287:
 999              		.size	USBD_LL_GetRxDataSize, .-USBD_LL_GetRxDataSize
 1000              		.align	2
 1001 04f8 AFF30080 		.p2align 4,,15
 1001      AFF30080 
 1002              		.global	USBD_LL_Delay
 1003              		.thumb
ARM GAS  /tmp/ccPQ1Gqd.s 			page 19


 1004              		.thumb_func
 1005              		.type	USBD_LL_Delay, %function
 1006              	USBD_LL_Delay:
 1007              	.LFB288:
 1008              		.loc 1 407 0
 1009              		.cfi_startproc
 1010              		@ args = 0, pretend = 0, frame = 8
 1011              		@ frame_needed = 0, uses_anonymous_args = 0
 1012 0500 00B5     		push	{lr}
 1013              		.cfi_def_cfa_offset 4
 1014              		.cfi_offset 14, -4
 1015 0502 83B0     		sub	sp, sp, #12
 1016              		.cfi_def_cfa_offset 16
 1017 0504 0190     		str	r0, [sp, #4]
 1018              		.loc 1 408 0
 1019 0506 0198     		ldr	r0, [sp, #4]
 1020 0508 FFF7FEFF 		bl	HAL_Delay
 1021              		.loc 1 409 0
 1022 050c 03B0     		add	sp, sp, #12
 1023              		@ sp needed
 1024 050e 5DF804FB 		ldr	pc, [sp], #4
 1025              		.cfi_endproc
 1026              	.LFE288:
 1027              		.size	USBD_LL_Delay, .-USBD_LL_Delay
 1028              	.Letext0:
 1029              		.file 2 "/nfs/nfs5/home/research/hardware/arm2/gcc-arm-embedded/gcc-arm-none-eabi-4_8-2014q2/lib/g
 1030              		.file 3 "/nfs/nfs5/home/research/hardware/arm2/gcc-arm-embedded/gcc-arm-none-eabi-4_8-2014q2/arm-n
 1031              		.file 4 "/nfs/nfs5/home/research/hardware/arm2/gcc-arm-embedded/gcc-arm-none-eabi-4_8-2014q2/arm-n
 1032              		.file 5 "../../../../../../ChibiOS/os/ext/CMSIS/ST/STM32L4xx/stm32l476xx.h"
 1033              		.file 6 "../../../../../Drivers/STM32L4xx_HAL_Driver/Inc/stm32l4xx_hal_def.h"
 1034              		.file 7 "../../../../../Drivers/STM32L4xx_HAL_Driver/Inc/stm32l4xx_ll_usb.h"
 1035              		.file 8 "../../../../../Drivers/STM32L4xx_HAL_Driver/Inc/stm32l4xx_hal_pcd.h"
 1036              		.file 9 "../../../../../../ChibiOS/os/rt/ports/ARMCMx/compilers/GCC/chtypes.h"
 1037              		.file 10 "../../../../../../ChibiOS/os/rt/include/chsystypes.h"
 1038              		.file 11 "../../../../../../ChibiOS/os/rt/include/chschd.h"
 1039              		.file 12 "../../../../../../ChibiOS/os/rt/ports/ARMCMx/chcore.h"
 1040              		.file 13 "../../../../../../ChibiOS/os/rt/ports/ARMCMx/chcore_v7m.h"
 1041              		.file 14 "../../../../../../ChibiOS/os/rt/include/chtm.h"
 1042              		.file 15 "../../../../../../ChibiOS/os/rt/include/chsem.h"
 1043              		.file 16 "../../../../../../ChibiOS/os/rt/include/chmtx.h"
 1044              		.file 17 "../../../../../Middlewares/ST/STM32_USB_Device_Library/Core/Inc/usbd_def.h"
 1045              		.file 18 "../../../../../../ChibiOS/os/ext/CMSIS/include/core_cm4.h"
 1046 0512 00BFAFF3 		.section	.debug_info,"",%progbits
 1046      0080AFF3 
 1046      0080AFF3 
 1046      0080
 1047              	.Ldebug_info0:
 1048 0000 1D140000 		.4byte	0x141d
 1049 0004 0400     		.2byte	0x4
 1050 0006 00000000 		.4byte	.Ldebug_abbrev0
 1051 000a 04       		.byte	0x4
 1052 000b 01       		.uleb128 0x1
 1053 000c 410B0000 		.4byte	.LASF287
 1054 0010 01       		.byte	0x1
 1055 0011 BB010000 		.4byte	.LASF288
 1056 0015 48060000 		.4byte	.LASF289
 1057 0019 00000000 		.4byte	.Ltext0
ARM GAS  /tmp/ccPQ1Gqd.s 			page 20


 1058 001d 12050000 		.4byte	.Letext0-.Ltext0
 1059 0021 00000000 		.4byte	.Ldebug_line0
 1060 0025 02       		.uleb128 0x2
 1061 0026 20050000 		.4byte	.LASF2
 1062 002a 02       		.byte	0x2
 1063 002b D4       		.byte	0xd4
 1064 002c 30000000 		.4byte	0x30
 1065 0030 03       		.uleb128 0x3
 1066 0031 04       		.byte	0x4
 1067 0032 07       		.byte	0x7
 1068 0033 51010000 		.4byte	.LASF0
 1069 0037 04       		.uleb128 0x4
 1070 0038 04       		.byte	0x4
 1071 0039 05       		.byte	0x5
 1072 003a 696E7400 		.ascii	"int\000"
 1073 003e 03       		.uleb128 0x3
 1074 003f 01       		.byte	0x1
 1075 0040 06       		.byte	0x6
 1076 0041 4C0E0000 		.4byte	.LASF1
 1077 0045 02       		.uleb128 0x2
 1078 0046 0F0B0000 		.4byte	.LASF3
 1079 004a 03       		.byte	0x3
 1080 004b 1C       		.byte	0x1c
 1081 004c 50000000 		.4byte	0x50
 1082 0050 03       		.uleb128 0x3
 1083 0051 01       		.byte	0x1
 1084 0052 08       		.byte	0x8
 1085 0053 C9090000 		.4byte	.LASF4
 1086 0057 03       		.uleb128 0x3
 1087 0058 02       		.byte	0x2
 1088 0059 05       		.byte	0x5
 1089 005a 040A0000 		.4byte	.LASF5
 1090 005e 02       		.uleb128 0x2
 1091 005f 96040000 		.4byte	.LASF6
 1092 0063 03       		.byte	0x3
 1093 0064 26       		.byte	0x26
 1094 0065 69000000 		.4byte	0x69
 1095 0069 03       		.uleb128 0x3
 1096 006a 02       		.byte	0x2
 1097 006b 07       		.byte	0x7
 1098 006c 6C0E0000 		.4byte	.LASF7
 1099 0070 02       		.uleb128 0x2
 1100 0071 5B070000 		.4byte	.LASF8
 1101 0075 03       		.byte	0x3
 1102 0076 37       		.byte	0x37
 1103 0077 7B000000 		.4byte	0x7b
 1104 007b 03       		.uleb128 0x3
 1105 007c 04       		.byte	0x4
 1106 007d 05       		.byte	0x5
 1107 007e 340A0000 		.4byte	.LASF9
 1108 0082 02       		.uleb128 0x2
 1109 0083 C2070000 		.4byte	.LASF10
 1110 0087 03       		.byte	0x3
 1111 0088 38       		.byte	0x38
 1112 0089 8D000000 		.4byte	0x8d
 1113 008d 03       		.uleb128 0x3
 1114 008e 04       		.byte	0x4
ARM GAS  /tmp/ccPQ1Gqd.s 			page 21


 1115 008f 07       		.byte	0x7
 1116 0090 900C0000 		.4byte	.LASF11
 1117 0094 03       		.uleb128 0x3
 1118 0095 08       		.byte	0x8
 1119 0096 05       		.byte	0x5
 1120 0097 2A080000 		.4byte	.LASF12
 1121 009b 02       		.uleb128 0x2
 1122 009c B0050000 		.4byte	.LASF13
 1123 00a0 03       		.byte	0x3
 1124 00a1 4E       		.byte	0x4e
 1125 00a2 A6000000 		.4byte	0xa6
 1126 00a6 03       		.uleb128 0x3
 1127 00a7 08       		.byte	0x8
 1128 00a8 07       		.byte	0x7
 1129 00a9 52040000 		.4byte	.LASF14
 1130 00ad 03       		.uleb128 0x3
 1131 00ae 04       		.byte	0x4
 1132 00af 07       		.byte	0x7
 1133 00b0 7F0C0000 		.4byte	.LASF15
 1134 00b4 05       		.uleb128 0x5
 1135 00b5 04       		.byte	0x4
 1136 00b6 03       		.uleb128 0x3
 1137 00b7 01       		.byte	0x1
 1138 00b8 08       		.byte	0x8
 1139 00b9 71000000 		.4byte	.LASF16
 1140 00bd 06       		.uleb128 0x6
 1141 00be 04       		.byte	0x4
 1142 00bf C3000000 		.4byte	0xc3
 1143 00c3 07       		.uleb128 0x7
 1144 00c4 B6000000 		.4byte	0xb6
 1145 00c8 02       		.uleb128 0x2
 1146 00c9 CD070000 		.4byte	.LASF17
 1147 00cd 04       		.byte	0x4
 1148 00ce 2A       		.byte	0x2a
 1149 00cf 45000000 		.4byte	0x45
 1150 00d3 02       		.uleb128 0x2
 1151 00d4 97090000 		.4byte	.LASF18
 1152 00d8 04       		.byte	0x4
 1153 00d9 36       		.byte	0x36
 1154 00da 5E000000 		.4byte	0x5e
 1155 00de 02       		.uleb128 0x2
 1156 00df D70C0000 		.4byte	.LASF19
 1157 00e3 04       		.byte	0x4
 1158 00e4 41       		.byte	0x41
 1159 00e5 70000000 		.4byte	0x70
 1160 00e9 02       		.uleb128 0x2
 1161 00ea AE030000 		.4byte	.LASF20
 1162 00ee 04       		.byte	0x4
 1163 00ef 42       		.byte	0x42
 1164 00f0 82000000 		.4byte	0x82
 1165 00f4 02       		.uleb128 0x2
 1166 00f5 CB0A0000 		.4byte	.LASF21
 1167 00f9 04       		.byte	0x4
 1168 00fa 4E       		.byte	0x4e
 1169 00fb 9B000000 		.4byte	0x9b
 1170 00ff 08       		.uleb128 0x8
 1171 0100 E9000000 		.4byte	0xe9
ARM GAS  /tmp/ccPQ1Gqd.s 			page 22


 1172 0104 09       		.uleb128 0x9
 1173 0105 E9000000 		.4byte	0xe9
 1174 0109 14010000 		.4byte	0x114
 1175 010d 0A       		.uleb128 0xa
 1176 010e AD000000 		.4byte	0xad
 1177 0112 01       		.byte	0x1
 1178 0113 00       		.byte	0
 1179 0114 08       		.uleb128 0x8
 1180 0115 C8000000 		.4byte	0xc8
 1181 0119 09       		.uleb128 0x9
 1182 011a E9000000 		.4byte	0xe9
 1183 011e 29010000 		.4byte	0x129
 1184 0122 0A       		.uleb128 0xa
 1185 0123 AD000000 		.4byte	0xad
 1186 0127 0E       		.byte	0xe
 1187 0128 00       		.byte	0
 1188 0129 09       		.uleb128 0x9
 1189 012a E9000000 		.4byte	0xe9
 1190 012e 39010000 		.4byte	0x139
 1191 0132 0A       		.uleb128 0xa
 1192 0133 AD000000 		.4byte	0xad
 1193 0137 26       		.byte	0x26
 1194 0138 00       		.byte	0
 1195 0139 09       		.uleb128 0x9
 1196 013a E9000000 		.4byte	0xe9
 1197 013e 49010000 		.4byte	0x149
 1198 0142 0A       		.uleb128 0xa
 1199 0143 AD000000 		.4byte	0xad
 1200 0147 0B       		.byte	0xb
 1201 0148 00       		.byte	0
 1202 0149 0B       		.uleb128 0xb
 1203 014a 4001     		.2byte	0x140
 1204 014c 05       		.byte	0x5
 1205 014d 0204     		.2byte	0x402
 1206 014f 9B020000 		.4byte	0x29b
 1207 0153 0C       		.uleb128 0xc
 1208 0154 1D0C0000 		.4byte	.LASF22
 1209 0158 05       		.byte	0x5
 1210 0159 0404     		.2byte	0x404
 1211 015b FF000000 		.4byte	0xff
 1212 015f 00       		.byte	0
 1213 0160 0C       		.uleb128 0xc
 1214 0161 040C0000 		.4byte	.LASF23
 1215 0165 05       		.byte	0x5
 1216 0166 0504     		.2byte	0x405
 1217 0168 FF000000 		.4byte	0xff
 1218 016c 04       		.byte	0x4
 1219 016d 0C       		.uleb128 0xc
 1220 016e A0090000 		.4byte	.LASF24
 1221 0172 05       		.byte	0x5
 1222 0173 0604     		.2byte	0x406
 1223 0175 FF000000 		.4byte	0xff
 1224 0179 08       		.byte	0x8
 1225 017a 0C       		.uleb128 0xc
 1226 017b 1D030000 		.4byte	.LASF25
 1227 017f 05       		.byte	0x5
 1228 0180 0704     		.2byte	0x407
ARM GAS  /tmp/ccPQ1Gqd.s 			page 23


 1229 0182 FF000000 		.4byte	0xff
 1230 0186 0C       		.byte	0xc
 1231 0187 0C       		.uleb128 0xc
 1232 0188 76070000 		.4byte	.LASF26
 1233 018c 05       		.byte	0x5
 1234 018d 0804     		.2byte	0x408
 1235 018f FF000000 		.4byte	0xff
 1236 0193 10       		.byte	0x10
 1237 0194 0C       		.uleb128 0xc
 1238 0195 2C020000 		.4byte	.LASF27
 1239 0199 05       		.byte	0x5
 1240 019a 0904     		.2byte	0x409
 1241 019c FF000000 		.4byte	0xff
 1242 01a0 14       		.byte	0x14
 1243 01a1 0C       		.uleb128 0xc
 1244 01a2 92020000 		.4byte	.LASF28
 1245 01a6 05       		.byte	0x5
 1246 01a7 0A04     		.2byte	0x40a
 1247 01a9 FF000000 		.4byte	0xff
 1248 01ad 18       		.byte	0x18
 1249 01ae 0C       		.uleb128 0xc
 1250 01af CF0C0000 		.4byte	.LASF29
 1251 01b3 05       		.byte	0x5
 1252 01b4 0B04     		.2byte	0x40b
 1253 01b6 FF000000 		.4byte	0xff
 1254 01ba 1C       		.byte	0x1c
 1255 01bb 0C       		.uleb128 0xc
 1256 01bc B40C0000 		.4byte	.LASF30
 1257 01c0 05       		.byte	0x5
 1258 01c1 0C04     		.2byte	0x40c
 1259 01c3 FF000000 		.4byte	0xff
 1260 01c7 20       		.byte	0x20
 1261 01c8 0C       		.uleb128 0xc
 1262 01c9 82040000 		.4byte	.LASF31
 1263 01cd 05       		.byte	0x5
 1264 01ce 0D04     		.2byte	0x40d
 1265 01d0 FF000000 		.4byte	0xff
 1266 01d4 24       		.byte	0x24
 1267 01d5 0C       		.uleb128 0xc
 1268 01d6 B5020000 		.4byte	.LASF32
 1269 01da 05       		.byte	0x5
 1270 01db 0E04     		.2byte	0x40e
 1271 01dd FF000000 		.4byte	0xff
 1272 01e1 28       		.byte	0x28
 1273 01e2 0C       		.uleb128 0xc
 1274 01e3 E9080000 		.4byte	.LASF33
 1275 01e7 05       		.byte	0x5
 1276 01e8 0F04     		.2byte	0x40f
 1277 01ea FF000000 		.4byte	0xff
 1278 01ee 2C       		.byte	0x2c
 1279 01ef 0C       		.uleb128 0xc
 1280 01f0 200F0000 		.4byte	.LASF34
 1281 01f4 05       		.byte	0x5
 1282 01f5 1004     		.2byte	0x410
 1283 01f7 04010000 		.4byte	0x104
 1284 01fb 30       		.byte	0x30
 1285 01fc 0C       		.uleb128 0xc
ARM GAS  /tmp/ccPQ1Gqd.s 			page 24


 1286 01fd 34020000 		.4byte	.LASF35
 1287 0201 05       		.byte	0x5
 1288 0202 1104     		.2byte	0x411
 1289 0204 FF000000 		.4byte	0xff
 1290 0208 38       		.byte	0x38
 1291 0209 0D       		.uleb128 0xd
 1292 020a 43494400 		.ascii	"CID\000"
 1293 020e 05       		.byte	0x5
 1294 020f 1204     		.2byte	0x412
 1295 0211 FF000000 		.4byte	0xff
 1296 0215 3C       		.byte	0x3c
 1297 0216 0C       		.uleb128 0xc
 1298 0217 03090000 		.4byte	.LASF36
 1299 021b 05       		.byte	0x5
 1300 021c 1304     		.2byte	0x413
 1301 021e 9B020000 		.4byte	0x29b
 1302 0222 40       		.byte	0x40
 1303 0223 0C       		.uleb128 0xc
 1304 0224 AD020000 		.4byte	.LASF37
 1305 0228 05       		.byte	0x5
 1306 0229 1404     		.2byte	0x414
 1307 022b FF000000 		.4byte	0xff
 1308 022f 4C       		.byte	0x4c
 1309 0230 0C       		.uleb128 0xc
 1310 0231 0D090000 		.4byte	.LASF38
 1311 0235 05       		.byte	0x5
 1312 0236 1504     		.2byte	0x415
 1313 0238 E9000000 		.4byte	0xe9
 1314 023c 50       		.byte	0x50
 1315 023d 0C       		.uleb128 0xc
 1316 023e FE0D0000 		.4byte	.LASF39
 1317 0242 05       		.byte	0x5
 1318 0243 1604     		.2byte	0x416
 1319 0245 FF000000 		.4byte	0xff
 1320 0249 54       		.byte	0x54
 1321 024a 0C       		.uleb128 0xc
 1322 024b E40D0000 		.4byte	.LASF40
 1323 024f 05       		.byte	0x5
 1324 0250 1704     		.2byte	0x417
 1325 0252 FF000000 		.4byte	0xff
 1326 0256 58       		.byte	0x58
 1327 0257 0C       		.uleb128 0xc
 1328 0258 370B0000 		.4byte	.LASF41
 1329 025c 05       		.byte	0x5
 1330 025d 1804     		.2byte	0x418
 1331 025f FF000000 		.4byte	0xff
 1332 0263 5C       		.byte	0x5c
 1333 0264 0C       		.uleb128 0xc
 1334 0265 BC0A0000 		.4byte	.LASF42
 1335 0269 05       		.byte	0x5
 1336 026a 1904     		.2byte	0x419
 1337 026c FF000000 		.4byte	0xff
 1338 0270 60       		.byte	0x60
 1339 0271 0C       		.uleb128 0xc
 1340 0272 E7090000 		.4byte	.LASF43
 1341 0276 05       		.byte	0x5
 1342 0277 1A04     		.2byte	0x41a
ARM GAS  /tmp/ccPQ1Gqd.s 			page 25


 1343 0279 29010000 		.4byte	0x129
 1344 027d 64       		.byte	0x64
 1345 027e 0E       		.uleb128 0xe
 1346 027f C0090000 		.4byte	.LASF44
 1347 0283 05       		.byte	0x5
 1348 0284 1B04     		.2byte	0x41b
 1349 0286 FF000000 		.4byte	0xff
 1350 028a 0001     		.2byte	0x100
 1351 028c 0E       		.uleb128 0xe
 1352 028d DC0D0000 		.4byte	.LASF45
 1353 0291 05       		.byte	0x5
 1354 0292 1C04     		.2byte	0x41c
 1355 0294 AB020000 		.4byte	0x2ab
 1356 0298 0401     		.2byte	0x104
 1357 029a 00       		.byte	0
 1358 029b 09       		.uleb128 0x9
 1359 029c E9000000 		.4byte	0xe9
 1360 02a0 AB020000 		.4byte	0x2ab
 1361 02a4 0A       		.uleb128 0xa
 1362 02a5 AD000000 		.4byte	0xad
 1363 02a9 02       		.byte	0x2
 1364 02aa 00       		.byte	0
 1365 02ab 08       		.uleb128 0x8
 1366 02ac 19010000 		.4byte	0x119
 1367 02b0 0F       		.uleb128 0xf
 1368 02b1 16020000 		.4byte	.LASF46
 1369 02b5 05       		.byte	0x5
 1370 02b6 1D04     		.2byte	0x41d
 1371 02b8 49010000 		.4byte	0x149
 1372 02bc 10       		.uleb128 0x10
 1373 02bd 01       		.byte	0x1
 1374 02be 06       		.byte	0x6
 1375 02bf 45       		.byte	0x45
 1376 02c0 D1020000 		.4byte	0x2d1
 1377 02c4 11       		.uleb128 0x11
 1378 02c5 C6050000 		.4byte	.LASF47
 1379 02c9 00       		.sleb128 0
 1380 02ca 11       		.uleb128 0x11
 1381 02cb 96000000 		.4byte	.LASF48
 1382 02cf 01       		.sleb128 1
 1383 02d0 00       		.byte	0
 1384 02d1 02       		.uleb128 0x2
 1385 02d2 F40B0000 		.4byte	.LASF49
 1386 02d6 06       		.byte	0x6
 1387 02d7 48       		.byte	0x48
 1388 02d8 BC020000 		.4byte	0x2bc
 1389 02dc 06       		.uleb128 0x6
 1390 02dd 04       		.byte	0x4
 1391 02de C8000000 		.4byte	0xc8
 1392 02e2 12       		.uleb128 0x12
 1393 02e3 34       		.byte	0x34
 1394 02e4 07       		.byte	0x7
 1395 02e5 6C       		.byte	0x6c
 1396 02e6 87030000 		.4byte	0x387
 1397 02ea 13       		.uleb128 0x13
 1398 02eb 3F000000 		.4byte	.LASF50
 1399 02ef 07       		.byte	0x7
ARM GAS  /tmp/ccPQ1Gqd.s 			page 26


 1400 02f0 6E       		.byte	0x6e
 1401 02f1 E9000000 		.4byte	0xe9
 1402 02f5 00       		.byte	0
 1403 02f6 13       		.uleb128 0x13
 1404 02f7 750D0000 		.4byte	.LASF51
 1405 02fb 07       		.byte	0x7
 1406 02fc 72       		.byte	0x72
 1407 02fd E9000000 		.4byte	0xe9
 1408 0301 04       		.byte	0x4
 1409 0302 13       		.uleb128 0x13
 1410 0303 5D030000 		.4byte	.LASF52
 1411 0307 07       		.byte	0x7
 1412 0308 76       		.byte	0x76
 1413 0309 E9000000 		.4byte	0xe9
 1414 030d 08       		.byte	0x8
 1415 030e 13       		.uleb128 0x13
 1416 030f 47040000 		.4byte	.LASF53
 1417 0313 07       		.byte	0x7
 1418 0314 79       		.byte	0x79
 1419 0315 E9000000 		.4byte	0xe9
 1420 0319 0C       		.byte	0xc
 1421 031a 13       		.uleb128 0x13
 1422 031b 7E070000 		.4byte	.LASF54
 1423 031f 07       		.byte	0x7
 1424 0320 7B       		.byte	0x7b
 1425 0321 E9000000 		.4byte	0xe9
 1426 0325 10       		.byte	0x10
 1427 0326 13       		.uleb128 0x13
 1428 0327 29090000 		.4byte	.LASF55
 1429 032b 07       		.byte	0x7
 1430 032c 7E       		.byte	0x7e
 1431 032d E9000000 		.4byte	0xe9
 1432 0331 14       		.byte	0x14
 1433 0332 13       		.uleb128 0x13
 1434 0333 7B090000 		.4byte	.LASF56
 1435 0337 07       		.byte	0x7
 1436 0338 81       		.byte	0x81
 1437 0339 E9000000 		.4byte	0xe9
 1438 033d 18       		.byte	0x18
 1439 033e 13       		.uleb128 0x13
 1440 033f F2080000 		.4byte	.LASF57
 1441 0343 07       		.byte	0x7
 1442 0344 83       		.byte	0x83
 1443 0345 E9000000 		.4byte	0xe9
 1444 0349 1C       		.byte	0x1c
 1445 034a 13       		.uleb128 0x13
 1446 034b E3030000 		.4byte	.LASF58
 1447 034f 07       		.byte	0x7
 1448 0350 85       		.byte	0x85
 1449 0351 E9000000 		.4byte	0xe9
 1450 0355 20       		.byte	0x20
 1451 0356 13       		.uleb128 0x13
 1452 0357 A1000000 		.4byte	.LASF59
 1453 035b 07       		.byte	0x7
 1454 035c 87       		.byte	0x87
 1455 035d E9000000 		.4byte	0xe9
 1456 0361 24       		.byte	0x24
ARM GAS  /tmp/ccPQ1Gqd.s 			page 27


 1457 0362 13       		.uleb128 0x13
 1458 0363 4E050000 		.4byte	.LASF60
 1459 0367 07       		.byte	0x7
 1460 0368 89       		.byte	0x89
 1461 0369 E9000000 		.4byte	0xe9
 1462 036d 28       		.byte	0x28
 1463 036e 13       		.uleb128 0x13
 1464 036f 69040000 		.4byte	.LASF61
 1465 0373 07       		.byte	0x7
 1466 0374 8B       		.byte	0x8b
 1467 0375 E9000000 		.4byte	0xe9
 1468 0379 2C       		.byte	0x2c
 1469 037a 13       		.uleb128 0x13
 1470 037b 49070000 		.4byte	.LASF62
 1471 037f 07       		.byte	0x7
 1472 0380 8D       		.byte	0x8d
 1473 0381 E9000000 		.4byte	0xe9
 1474 0385 30       		.byte	0x30
 1475 0386 00       		.byte	0
 1476 0387 02       		.uleb128 0x2
 1477 0388 9A020000 		.4byte	.LASF63
 1478 038c 07       		.byte	0x7
 1479 038d 8F       		.byte	0x8f
 1480 038e E2020000 		.4byte	0x2e2
 1481 0392 12       		.uleb128 0x12
 1482 0393 1C       		.byte	0x1c
 1483 0394 07       		.byte	0x7
 1484 0395 91       		.byte	0x91
 1485 0396 2B040000 		.4byte	0x42b
 1486 039a 14       		.uleb128 0x14
 1487 039b 6E756D00 		.ascii	"num\000"
 1488 039f 07       		.byte	0x7
 1489 03a0 93       		.byte	0x93
 1490 03a1 C8000000 		.4byte	0xc8
 1491 03a5 00       		.byte	0
 1492 03a6 13       		.uleb128 0x13
 1493 03a7 1A060000 		.4byte	.LASF64
 1494 03ab 07       		.byte	0x7
 1495 03ac 96       		.byte	0x96
 1496 03ad C8000000 		.4byte	0xc8
 1497 03b1 01       		.byte	0x1
 1498 03b2 13       		.uleb128 0x13
 1499 03b3 F60A0000 		.4byte	.LASF65
 1500 03b7 07       		.byte	0x7
 1501 03b8 99       		.byte	0x99
 1502 03b9 C8000000 		.4byte	0xc8
 1503 03bd 02       		.byte	0x2
 1504 03be 13       		.uleb128 0x13
 1505 03bf 060D0000 		.4byte	.LASF66
 1506 03c3 07       		.byte	0x7
 1507 03c4 9C       		.byte	0x9c
 1508 03c5 C8000000 		.4byte	0xc8
 1509 03c9 03       		.byte	0x3
 1510 03ca 13       		.uleb128 0x13
 1511 03cb 28060000 		.4byte	.LASF67
 1512 03cf 07       		.byte	0x7
 1513 03d0 9F       		.byte	0x9f
ARM GAS  /tmp/ccPQ1Gqd.s 			page 28


 1514 03d1 C8000000 		.4byte	0xc8
 1515 03d5 04       		.byte	0x4
 1516 03d6 13       		.uleb128 0x13
 1517 03d7 07020000 		.4byte	.LASF68
 1518 03db 07       		.byte	0x7
 1519 03dc A2       		.byte	0xa2
 1520 03dd C8000000 		.4byte	0xc8
 1521 03e1 05       		.byte	0x5
 1522 03e2 13       		.uleb128 0x13
 1523 03e3 8A040000 		.4byte	.LASF69
 1524 03e7 07       		.byte	0x7
 1525 03e8 A5       		.byte	0xa5
 1526 03e9 D3000000 		.4byte	0xd3
 1527 03ed 06       		.byte	0x6
 1528 03ee 13       		.uleb128 0x13
 1529 03ef A90A0000 		.4byte	.LASF70
 1530 03f3 07       		.byte	0x7
 1531 03f4 A8       		.byte	0xa8
 1532 03f5 E9000000 		.4byte	0xe9
 1533 03f9 08       		.byte	0x8
 1534 03fa 13       		.uleb128 0x13
 1535 03fb 8F070000 		.4byte	.LASF71
 1536 03ff 07       		.byte	0x7
 1537 0400 AB       		.byte	0xab
 1538 0401 DC020000 		.4byte	0x2dc
 1539 0405 0C       		.byte	0xc
 1540 0406 13       		.uleb128 0x13
 1541 0407 6D070000 		.4byte	.LASF72
 1542 040b 07       		.byte	0x7
 1543 040c AD       		.byte	0xad
 1544 040d E9000000 		.4byte	0xe9
 1545 0411 10       		.byte	0x10
 1546 0412 13       		.uleb128 0x13
 1547 0413 0E0A0000 		.4byte	.LASF73
 1548 0417 07       		.byte	0x7
 1549 0418 AF       		.byte	0xaf
 1550 0419 E9000000 		.4byte	0xe9
 1551 041d 14       		.byte	0x14
 1552 041e 13       		.uleb128 0x13
 1553 041f 2B0F0000 		.4byte	.LASF74
 1554 0423 07       		.byte	0x7
 1555 0424 B1       		.byte	0xb1
 1556 0425 E9000000 		.4byte	0xe9
 1557 0429 18       		.byte	0x18
 1558 042a 00       		.byte	0
 1559 042b 02       		.uleb128 0x2
 1560 042c F2090000 		.4byte	.LASF75
 1561 0430 07       		.byte	0x7
 1562 0431 B3       		.byte	0xb3
 1563 0432 92030000 		.4byte	0x392
 1564 0436 10       		.uleb128 0x10
 1565 0437 01       		.byte	0x1
 1566 0438 08       		.byte	0x8
 1567 0439 47       		.byte	0x47
 1568 043a 5D040000 		.4byte	0x45d
 1569 043e 11       		.uleb128 0x11
 1570 043f 46020000 		.4byte	.LASF76
ARM GAS  /tmp/ccPQ1Gqd.s 			page 29


 1571 0443 00       		.sleb128 0
 1572 0444 11       		.uleb128 0x11
 1573 0445 580E0000 		.4byte	.LASF77
 1574 0449 01       		.sleb128 1
 1575 044a 11       		.uleb128 0x11
 1576 044b 1A070000 		.4byte	.LASF78
 1577 044f 02       		.sleb128 2
 1578 0450 11       		.uleb128 0x11
 1579 0451 BC0C0000 		.4byte	.LASF79
 1580 0455 03       		.sleb128 3
 1581 0456 11       		.uleb128 0x11
 1582 0457 04060000 		.4byte	.LASF80
 1583 045b 04       		.sleb128 4
 1584 045c 00       		.byte	0
 1585 045d 02       		.uleb128 0x2
 1586 045e 86090000 		.4byte	.LASF81
 1587 0462 08       		.byte	0x8
 1588 0463 4D       		.byte	0x4d
 1589 0464 36040000 		.4byte	0x436
 1590 0468 10       		.uleb128 0x10
 1591 0469 01       		.byte	0x1
 1592 046a 08       		.byte	0x8
 1593 046b 51       		.byte	0x51
 1594 046c 89040000 		.4byte	0x489
 1595 0470 11       		.uleb128 0x11
 1596 0471 190B0000 		.4byte	.LASF82
 1597 0475 00       		.sleb128 0
 1598 0476 11       		.uleb128 0x11
 1599 0477 EB000000 		.4byte	.LASF83
 1600 047b 01       		.sleb128 1
 1601 047c 11       		.uleb128 0x11
 1602 047d 290B0000 		.4byte	.LASF84
 1603 0481 02       		.sleb128 2
 1604 0482 11       		.uleb128 0x11
 1605 0483 300B0000 		.4byte	.LASF85
 1606 0487 03       		.sleb128 3
 1607 0488 00       		.byte	0
 1608 0489 02       		.uleb128 0x2
 1609 048a 2A010000 		.4byte	.LASF86
 1610 048e 08       		.byte	0x8
 1611 048f 56       		.byte	0x56
 1612 0490 68040000 		.4byte	0x468
 1613 0494 02       		.uleb128 0x2
 1614 0495 400E0000 		.4byte	.LASF87
 1615 0499 08       		.byte	0x8
 1616 049a 6F       		.byte	0x6f
 1617 049b B0020000 		.4byte	0x2b0
 1618 049f 02       		.uleb128 0x2
 1619 04a0 A8090000 		.4byte	.LASF88
 1620 04a4 08       		.byte	0x8
 1621 04a5 70       		.byte	0x70
 1622 04a6 87030000 		.4byte	0x387
 1623 04aa 02       		.uleb128 0x2
 1624 04ab DD000000 		.4byte	.LASF89
 1625 04af 08       		.byte	0x8
 1626 04b0 71       		.byte	0x71
 1627 04b1 2B040000 		.4byte	0x42b
ARM GAS  /tmp/ccPQ1Gqd.s 			page 30


 1628 04b5 15       		.uleb128 0x15
 1629 04b6 CC03     		.2byte	0x3cc
 1630 04b8 08       		.byte	0x8
 1631 04b9 7D       		.byte	0x7d
 1632 04ba 64050000 		.4byte	0x564
 1633 04be 13       		.uleb128 0x13
 1634 04bf B30A0000 		.4byte	.LASF90
 1635 04c3 08       		.byte	0x8
 1636 04c4 7F       		.byte	0x7f
 1637 04c5 64050000 		.4byte	0x564
 1638 04c9 00       		.byte	0
 1639 04ca 13       		.uleb128 0x13
 1640 04cb 1B050000 		.4byte	.LASF91
 1641 04cf 08       		.byte	0x8
 1642 04d0 80       		.byte	0x80
 1643 04d1 9F040000 		.4byte	0x49f
 1644 04d5 04       		.byte	0x4
 1645 04d6 13       		.uleb128 0x13
 1646 04d7 490A0000 		.4byte	.LASF92
 1647 04db 08       		.byte	0x8
 1648 04dc 81       		.byte	0x81
 1649 04dd 14010000 		.4byte	0x114
 1650 04e1 38       		.byte	0x38
 1651 04e2 13       		.uleb128 0x13
 1652 04e3 CC0E0000 		.4byte	.LASF93
 1653 04e7 08       		.byte	0x8
 1654 04e8 82       		.byte	0x82
 1655 04e9 6A050000 		.4byte	0x56a
 1656 04ed 3C       		.byte	0x3c
 1657 04ee 16       		.uleb128 0x16
 1658 04ef DD080000 		.4byte	.LASF94
 1659 04f3 08       		.byte	0x8
 1660 04f4 83       		.byte	0x83
 1661 04f5 6A050000 		.4byte	0x56a
 1662 04f9 E001     		.2byte	0x1e0
 1663 04fb 16       		.uleb128 0x16
 1664 04fc B9000000 		.4byte	.LASF95
 1665 0500 08       		.byte	0x8
 1666 0501 84       		.byte	0x84
 1667 0502 D1020000 		.4byte	0x2d1
 1668 0506 8403     		.2byte	0x384
 1669 0508 16       		.uleb128 0x16
 1670 0509 85020000 		.4byte	.LASF96
 1671 050d 08       		.byte	0x8
 1672 050e 85       		.byte	0x85
 1673 050f 7A050000 		.4byte	0x57a
 1674 0513 8503     		.2byte	0x385
 1675 0515 16       		.uleb128 0x16
 1676 0516 B5010000 		.4byte	.LASF97
 1677 051a 08       		.byte	0x8
 1678 051b 86       		.byte	0x86
 1679 051c 39010000 		.4byte	0x139
 1680 0520 8803     		.2byte	0x388
 1681 0522 16       		.uleb128 0x16
 1682 0523 38080000 		.4byte	.LASF98
 1683 0527 08       		.byte	0x8
 1684 0528 87       		.byte	0x87
ARM GAS  /tmp/ccPQ1Gqd.s 			page 31


 1685 0529 89040000 		.4byte	0x489
 1686 052d B803     		.2byte	0x3b8
 1687 052f 16       		.uleb128 0x16
 1688 0530 82080000 		.4byte	.LASF99
 1689 0534 08       		.byte	0x8
 1690 0535 88       		.byte	0x88
 1691 0536 E9000000 		.4byte	0xe9
 1692 053a BC03     		.2byte	0x3bc
 1693 053c 16       		.uleb128 0x16
 1694 053d BE030000 		.4byte	.LASF100
 1695 0541 08       		.byte	0x8
 1696 0542 8B       		.byte	0x8b
 1697 0543 E9000000 		.4byte	0xe9
 1698 0547 C003     		.2byte	0x3c0
 1699 0549 16       		.uleb128 0x16
 1700 054a EE0C0000 		.4byte	.LASF101
 1701 054e 08       		.byte	0x8
 1702 054f 8E       		.byte	0x8e
 1703 0550 E9000000 		.4byte	0xe9
 1704 0554 C403     		.2byte	0x3c4
 1705 0556 16       		.uleb128 0x16
 1706 0557 40050000 		.4byte	.LASF102
 1707 055b 08       		.byte	0x8
 1708 055c 90       		.byte	0x90
 1709 055d B4000000 		.4byte	0xb4
 1710 0561 C803     		.2byte	0x3c8
 1711 0563 00       		.byte	0
 1712 0564 06       		.uleb128 0x6
 1713 0565 04       		.byte	0x4
 1714 0566 94040000 		.4byte	0x494
 1715 056a 09       		.uleb128 0x9
 1716 056b AA040000 		.4byte	0x4aa
 1717 056f 7A050000 		.4byte	0x57a
 1718 0573 0A       		.uleb128 0xa
 1719 0574 AD000000 		.4byte	0xad
 1720 0578 0E       		.byte	0xe
 1721 0579 00       		.byte	0
 1722 057a 08       		.uleb128 0x8
 1723 057b 5D040000 		.4byte	0x45d
 1724 057f 02       		.uleb128 0x2
 1725 0580 A20C0000 		.4byte	.LASF103
 1726 0584 08       		.byte	0x8
 1727 0585 92       		.byte	0x92
 1728 0586 B5040000 		.4byte	0x4b5
 1729 058a 03       		.uleb128 0x3
 1730 058b 04       		.byte	0x4
 1731 058c 04       		.byte	0x4
 1732 058d EE030000 		.4byte	.LASF104
 1733 0591 06       		.uleb128 0x6
 1734 0592 04       		.byte	0x4
 1735 0593 D3000000 		.4byte	0xd3
 1736 0597 02       		.uleb128 0x2
 1737 0598 B8090000 		.4byte	.LASF105
 1738 059c 09       		.byte	0x9
 1739 059d 39       		.byte	0x39
 1740 059e E9000000 		.4byte	0xe9
 1741 05a2 02       		.uleb128 0x2
ARM GAS  /tmp/ccPQ1Gqd.s 			page 32


 1742 05a3 73090000 		.4byte	.LASF106
 1743 05a7 09       		.byte	0x9
 1744 05a8 3C       		.byte	0x3c
 1745 05a9 C8000000 		.4byte	0xc8
 1746 05ad 02       		.uleb128 0x2
 1747 05ae 86070000 		.4byte	.LASF107
 1748 05b2 09       		.byte	0x9
 1749 05b3 3D       		.byte	0x3d
 1750 05b4 C8000000 		.4byte	0xc8
 1751 05b8 02       		.uleb128 0x2
 1752 05b9 880C0000 		.4byte	.LASF108
 1753 05bd 09       		.byte	0x9
 1754 05be 3E       		.byte	0x3e
 1755 05bf C8000000 		.4byte	0xc8
 1756 05c3 02       		.uleb128 0x2
 1757 05c4 17090000 		.4byte	.LASF109
 1758 05c8 09       		.byte	0x9
 1759 05c9 3F       		.byte	0x3f
 1760 05ca C8000000 		.4byte	0xc8
 1761 05ce 02       		.uleb128 0x2
 1762 05cf 23040000 		.4byte	.LASF110
 1763 05d3 09       		.byte	0x9
 1764 05d4 40       		.byte	0x40
 1765 05d5 E9000000 		.4byte	0xe9
 1766 05d9 02       		.uleb128 0x2
 1767 05da 52080000 		.4byte	.LASF111
 1768 05de 09       		.byte	0x9
 1769 05df 41       		.byte	0x41
 1770 05e0 DE000000 		.4byte	0xde
 1771 05e4 02       		.uleb128 0x2
 1772 05e5 C9030000 		.4byte	.LASF112
 1773 05e9 09       		.byte	0x9
 1774 05ea 43       		.byte	0x43
 1775 05eb E9000000 		.4byte	0xe9
 1776 05ef 02       		.uleb128 0x2
 1777 05f0 EB0D0000 		.4byte	.LASF113
 1778 05f4 09       		.byte	0x9
 1779 05f5 45       		.byte	0x45
 1780 05f6 DE000000 		.4byte	0xde
 1781 05fa 02       		.uleb128 0x2
 1782 05fb 37060000 		.4byte	.LASF114
 1783 05ff 0A       		.byte	0xa
 1784 0600 33       		.byte	0x33
 1785 0601 E9000000 		.4byte	0xe9
 1786 0605 02       		.uleb128 0x2
 1787 0606 EC040000 		.4byte	.LASF115
 1788 060a 0A       		.byte	0xa
 1789 060b 3F       		.byte	0x3f
 1790 060c 10060000 		.4byte	0x610
 1791 0610 17       		.uleb128 0x17
 1792 0611 680C0000 		.4byte	.LASF136
 1793 0615 44       		.byte	0x44
 1794 0616 0B       		.byte	0xb
 1795 0617 C2       		.byte	0xc2
 1796 0618 09070000 		.4byte	0x709
 1797 061c 13       		.uleb128 0x13
 1798 061d C40A0000 		.4byte	.LASF116
ARM GAS  /tmp/ccPQ1Gqd.s 			page 33


 1799 0621 0B       		.byte	0xb
 1800 0622 C3       		.byte	0xc3
 1801 0623 14070000 		.4byte	0x714
 1802 0627 00       		.byte	0
 1803 0628 13       		.uleb128 0x13
 1804 0629 720C0000 		.4byte	.LASF117
 1805 062d 0B       		.byte	0xb
 1806 062e C5       		.byte	0xc5
 1807 062f 14070000 		.4byte	0x714
 1808 0633 04       		.byte	0x4
 1809 0634 13       		.uleb128 0x13
 1810 0635 7F000000 		.4byte	.LASF118
 1811 0639 0B       		.byte	0xb
 1812 063a C7       		.byte	0xc7
 1813 063b CE050000 		.4byte	0x5ce
 1814 063f 08       		.byte	0x8
 1815 0640 13       		.uleb128 0x13
 1816 0641 D40A0000 		.4byte	.LASF119
 1817 0645 0B       		.byte	0xb
 1818 0646 C8       		.byte	0xc8
 1819 0647 3B090000 		.4byte	0x93b
 1820 064b 0C       		.byte	0xc
 1821 064c 13       		.uleb128 0x13
 1822 064d 720F0000 		.4byte	.LASF120
 1823 0651 0B       		.byte	0xb
 1824 0652 CA       		.byte	0xca
 1825 0653 14070000 		.4byte	0x714
 1826 0657 10       		.byte	0x10
 1827 0658 13       		.uleb128 0x13
 1828 0659 A8070000 		.4byte	.LASF121
 1829 065d 0B       		.byte	0xb
 1830 065e CB       		.byte	0xcb
 1831 065f 14070000 		.4byte	0x714
 1832 0663 14       		.byte	0x14
 1833 0664 13       		.uleb128 0x13
 1834 0665 41060000 		.4byte	.LASF122
 1835 0669 0B       		.byte	0xb
 1836 066a D2       		.byte	0xd2
 1837 066b BD000000 		.4byte	0xbd
 1838 066f 18       		.byte	0x18
 1839 0670 13       		.uleb128 0x13
 1840 0671 B0070000 		.4byte	.LASF123
 1841 0675 0B       		.byte	0xb
 1842 0676 DD       		.byte	0xdd
 1843 0677 AD050000 		.4byte	0x5ad
 1844 067b 1C       		.byte	0x1c
 1845 067c 13       		.uleb128 0x13
 1846 067d 6B080000 		.4byte	.LASF124
 1847 0681 0B       		.byte	0xb
 1848 0682 E1       		.byte	0xe1
 1849 0683 A2050000 		.4byte	0x5a2
 1850 0687 1D       		.byte	0x1d
 1851 0688 13       		.uleb128 0x13
 1852 0689 830D0000 		.4byte	.LASF125
 1853 068d 0B       		.byte	0xb
 1854 068e E6       		.byte	0xe6
 1855 068f B8050000 		.4byte	0x5b8
ARM GAS  /tmp/ccPQ1Gqd.s 			page 34


 1856 0693 1E       		.byte	0x1e
 1857 0694 13       		.uleb128 0x13
 1858 0695 6B0D0000 		.4byte	.LASF126
 1859 0699 0B       		.byte	0xb
 1860 069a EC       		.byte	0xec
 1861 069b C3050000 		.4byte	0x5c3
 1862 069f 1F       		.byte	0x1f
 1863 06a0 0D       		.uleb128 0xd
 1864 06a1 705F7500 		.ascii	"p_u\000"
 1865 06a5 0B       		.byte	0xb
 1866 06a6 3101     		.2byte	0x131
 1867 06a8 F5090000 		.4byte	0x9f5
 1868 06ac 20       		.byte	0x20
 1869 06ad 0C       		.uleb128 0xc
 1870 06ae AB010000 		.4byte	.LASF127
 1871 06b2 0B       		.byte	0xb
 1872 06b3 3601     		.2byte	0x136
 1873 06b5 1A070000 		.4byte	0x71a
 1874 06b9 24       		.byte	0x24
 1875 06ba 0C       		.uleb128 0xc
 1876 06bb 3F010000 		.4byte	.LASF128
 1877 06bf 0B       		.byte	0xb
 1878 06c0 3C01     		.2byte	0x13c
 1879 06c2 3E070000 		.4byte	0x73e
 1880 06c6 28       		.byte	0x28
 1881 06c7 0C       		.uleb128 0xc
 1882 06c8 48090000 		.4byte	.LASF129
 1883 06cc 0B       		.byte	0xb
 1884 06cd 4001     		.2byte	0x140
 1885 06cf D9050000 		.4byte	0x5d9
 1886 06d3 30       		.byte	0x30
 1887 06d4 0C       		.uleb128 0xc
 1888 06d5 210A0000 		.4byte	.LASF130
 1889 06d9 0B       		.byte	0xb
 1890 06da 4601     		.2byte	0x146
 1891 06dc E4050000 		.4byte	0x5e4
 1892 06e0 34       		.byte	0x34
 1893 06e1 0C       		.uleb128 0xc
 1894 06e2 EE070000 		.4byte	.LASF131
 1895 06e6 0B       		.byte	0xb
 1896 06e7 4D01     		.2byte	0x14d
 1897 06e9 B40A0000 		.4byte	0xab4
 1898 06ed 38       		.byte	0x38
 1899 06ee 0C       		.uleb128 0xc
 1900 06ef 58080000 		.4byte	.LASF132
 1901 06f3 0B       		.byte	0xb
 1902 06f4 5101     		.2byte	0x151
 1903 06f6 CE050000 		.4byte	0x5ce
 1904 06fa 3C       		.byte	0x3c
 1905 06fb 0C       		.uleb128 0xc
 1906 06fc DC070000 		.4byte	.LASF133
 1907 0700 0B       		.byte	0xb
 1908 0701 5801     		.2byte	0x158
 1909 0703 B4000000 		.4byte	0xb4
 1910 0707 40       		.byte	0x40
 1911 0708 00       		.byte	0
 1912 0709 02       		.uleb128 0x2
ARM GAS  /tmp/ccPQ1Gqd.s 			page 35


 1913 070a 5E000000 		.4byte	.LASF134
 1914 070e 0A       		.byte	0xa
 1915 070f 44       		.byte	0x44
 1916 0710 14070000 		.4byte	0x714
 1917 0714 06       		.uleb128 0x6
 1918 0715 04       		.byte	0x4
 1919 0716 05060000 		.4byte	0x605
 1920 071a 02       		.uleb128 0x2
 1921 071b 8A010000 		.4byte	.LASF135
 1922 071f 0A       		.byte	0xa
 1923 0720 49       		.byte	0x49
 1924 0721 25070000 		.4byte	0x725
 1925 0725 17       		.uleb128 0x17
 1926 0726 0A000000 		.4byte	.LASF137
 1927 072a 04       		.byte	0x4
 1928 072b 0B       		.byte	0xb
 1929 072c B0       		.byte	0xb0
 1930 072d 3E070000 		.4byte	0x73e
 1931 0731 13       		.uleb128 0x13
 1932 0732 C40A0000 		.4byte	.LASF116
 1933 0736 0B       		.byte	0xb
 1934 0737 B1       		.byte	0xb1
 1935 0738 14070000 		.4byte	0x714
 1936 073c 00       		.byte	0
 1937 073d 00       		.byte	0
 1938 073e 02       		.uleb128 0x2
 1939 073f B1040000 		.4byte	.LASF138
 1940 0743 0A       		.byte	0xa
 1941 0744 50       		.byte	0x50
 1942 0745 49070000 		.4byte	0x749
 1943 0749 17       		.uleb128 0x17
 1944 074a C8020000 		.4byte	.LASF139
 1945 074e 08       		.byte	0x8
 1946 074f 0B       		.byte	0xb
 1947 0750 B7       		.byte	0xb7
 1948 0751 6E070000 		.4byte	0x76e
 1949 0755 13       		.uleb128 0x13
 1950 0756 C40A0000 		.4byte	.LASF116
 1951 075a 0B       		.byte	0xb
 1952 075b B8       		.byte	0xb8
 1953 075c 14070000 		.4byte	0x714
 1954 0760 00       		.byte	0
 1955 0761 13       		.uleb128 0x13
 1956 0762 720C0000 		.4byte	.LASF117
 1957 0766 0B       		.byte	0xb
 1958 0767 B9       		.byte	0xb9
 1959 0768 14070000 		.4byte	0x714
 1960 076c 04       		.byte	0x4
 1961 076d 00       		.byte	0
 1962 076e 02       		.uleb128 0x2
 1963 076f B00D0000 		.4byte	.LASF140
 1964 0773 0A       		.byte	0xa
 1965 0774 57       		.byte	0x57
 1966 0775 79070000 		.4byte	0x779
 1967 0779 18       		.uleb128 0x18
 1968 077a 68020000 		.4byte	.LASF141
 1969 077e 1C       		.byte	0x1c
ARM GAS  /tmp/ccPQ1Gqd.s 			page 36


 1970 077f 0B       		.byte	0xb
 1971 0780 9001     		.2byte	0x190
 1972 0782 D5070000 		.4byte	0x7d5
 1973 0786 0C       		.uleb128 0xc
 1974 0787 4A080000 		.4byte	.LASF142
 1975 078b 0B       		.byte	0xb
 1976 078c 9101     		.2byte	0x191
 1977 078e 3E070000 		.4byte	0x73e
 1978 0792 00       		.byte	0
 1979 0793 0C       		.uleb128 0xc
 1980 0794 D5030000 		.4byte	.LASF143
 1981 0798 0B       		.byte	0xb
 1982 0799 9201     		.2byte	0x192
 1983 079b CE050000 		.4byte	0x5ce
 1984 079f 08       		.byte	0x8
 1985 07a0 0C       		.uleb128 0xc
 1986 07a1 C4000000 		.4byte	.LASF144
 1987 07a5 0B       		.byte	0xb
 1988 07a6 9401     		.2byte	0x194
 1989 07a8 3B090000 		.4byte	0x93b
 1990 07ac 0C       		.byte	0xc
 1991 07ad 0C       		.uleb128 0xc
 1992 07ae 65070000 		.4byte	.LASF145
 1993 07b2 0B       		.byte	0xb
 1994 07b3 9701     		.2byte	0x197
 1995 07b5 14070000 		.4byte	0x714
 1996 07b9 10       		.byte	0x10
 1997 07ba 0C       		.uleb128 0xc
 1998 07bb 21090000 		.4byte	.LASF146
 1999 07bf 0B       		.byte	0xb
 2000 07c0 9801     		.2byte	0x198
 2001 07c2 14070000 		.4byte	0x714
 2002 07c6 14       		.byte	0x14
 2003 07c7 0C       		.uleb128 0xc
 2004 07c8 170A0000 		.4byte	.LASF147
 2005 07cc 0B       		.byte	0xb
 2006 07cd 9B01     		.2byte	0x19b
 2007 07cf 14070000 		.4byte	0x714
 2008 07d3 18       		.byte	0x18
 2009 07d4 00       		.byte	0
 2010 07d5 02       		.uleb128 0x2
 2011 07d6 1A000000 		.4byte	.LASF148
 2012 07da 0A       		.byte	0xa
 2013 07db 5C       		.byte	0x5c
 2014 07dc E0070000 		.4byte	0x7e0
 2015 07e0 06       		.uleb128 0x6
 2016 07e1 04       		.byte	0x4
 2017 07e2 E6070000 		.4byte	0x7e6
 2018 07e6 19       		.uleb128 0x19
 2019 07e7 F1070000 		.4byte	0x7f1
 2020 07eb 1A       		.uleb128 0x1a
 2021 07ec B4000000 		.4byte	0xb4
 2022 07f0 00       		.byte	0
 2023 07f1 02       		.uleb128 0x2
 2024 07f2 F8070000 		.4byte	.LASF149
 2025 07f6 0A       		.byte	0xa
 2026 07f7 61       		.byte	0x61
ARM GAS  /tmp/ccPQ1Gqd.s 			page 37


 2027 07f8 FC070000 		.4byte	0x7fc
 2028 07fc 18       		.uleb128 0x18
 2029 07fd 2B040000 		.4byte	.LASF150
 2030 0801 14       		.byte	0x14
 2031 0802 0B       		.byte	0xb
 2032 0803 6B01     		.2byte	0x16b
 2033 0805 4B080000 		.4byte	0x84b
 2034 0809 0C       		.uleb128 0xc
 2035 080a BD0D0000 		.4byte	.LASF151
 2036 080e 0B       		.byte	0xb
 2037 080f 6C01     		.2byte	0x16c
 2038 0811 BA0A0000 		.4byte	0xaba
 2039 0815 00       		.byte	0
 2040 0816 0C       		.uleb128 0xc
 2041 0817 FC0E0000 		.4byte	.LASF152
 2042 081b 0B       		.byte	0xb
 2043 081c 6D01     		.2byte	0x16d
 2044 081e BA0A0000 		.4byte	0xaba
 2045 0822 04       		.byte	0x4
 2046 0823 0C       		.uleb128 0xc
 2047 0824 40070000 		.4byte	.LASF153
 2048 0828 0B       		.byte	0xb
 2049 0829 6E01     		.2byte	0x16e
 2050 082b FA050000 		.4byte	0x5fa
 2051 082f 08       		.byte	0x8
 2052 0830 0C       		.uleb128 0xc
 2053 0831 D20E0000 		.4byte	.LASF154
 2054 0835 0B       		.byte	0xb
 2055 0836 6F01     		.2byte	0x16f
 2056 0838 D5070000 		.4byte	0x7d5
 2057 083c 0C       		.byte	0xc
 2058 083d 0C       		.uleb128 0xc
 2059 083e DC030000 		.4byte	.LASF155
 2060 0842 0B       		.byte	0xb
 2061 0843 7101     		.2byte	0x171
 2062 0845 B4000000 		.4byte	0xb4
 2063 0849 10       		.byte	0x10
 2064 084a 00       		.byte	0
 2065 084b 02       		.uleb128 0x2
 2066 084c 260D0000 		.4byte	.LASF156
 2067 0850 0A       		.byte	0xa
 2068 0851 66       		.byte	0x66
 2069 0852 56080000 		.4byte	0x856
 2070 0856 18       		.uleb128 0x18
 2071 0857 D5040000 		.4byte	.LASF157
 2072 085b 10       		.byte	0x10
 2073 085c 0B       		.byte	0xb
 2074 085d 7B01     		.2byte	0x17b
 2075 085f 98080000 		.4byte	0x898
 2076 0863 0C       		.uleb128 0xc
 2077 0864 BD0D0000 		.4byte	.LASF151
 2078 0868 0B       		.byte	0xb
 2079 0869 7C01     		.2byte	0x17c
 2080 086b BA0A0000 		.4byte	0xaba
 2081 086f 00       		.byte	0
 2082 0870 0C       		.uleb128 0xc
 2083 0871 FC0E0000 		.4byte	.LASF152
ARM GAS  /tmp/ccPQ1Gqd.s 			page 38


 2084 0875 0B       		.byte	0xb
 2085 0876 7E01     		.2byte	0x17e
 2086 0878 BA0A0000 		.4byte	0xaba
 2087 087c 04       		.byte	0x4
 2088 087d 0C       		.uleb128 0xc
 2089 087e 40070000 		.4byte	.LASF153
 2090 0882 0B       		.byte	0xb
 2091 0883 8001     		.2byte	0x180
 2092 0885 FA050000 		.4byte	0x5fa
 2093 0889 08       		.byte	0x8
 2094 088a 0C       		.uleb128 0xc
 2095 088b 02010000 		.4byte	.LASF158
 2096 088f 0B       		.byte	0xb
 2097 0890 8201     		.2byte	0x182
 2098 0892 C00A0000 		.4byte	0xac0
 2099 0896 0C       		.byte	0xc
 2100 0897 00       		.byte	0
 2101 0898 02       		.uleb128 0x2
 2102 0899 1B080000 		.4byte	.LASF159
 2103 089d 0A       		.byte	0xa
 2104 089e 6B       		.byte	0x6b
 2105 089f A3080000 		.4byte	0x8a3
 2106 08a3 18       		.uleb128 0x18
 2107 08a4 69030000 		.4byte	.LASF160
 2108 08a8 04       		.byte	0x4
 2109 08a9 0B       		.byte	0xb
 2110 08aa A201     		.2byte	0x1a2
 2111 08ac BE080000 		.4byte	0x8be
 2112 08b0 0C       		.uleb128 0xc
 2113 08b1 3E090000 		.4byte	.LASF161
 2114 08b5 0B       		.byte	0xb
 2115 08b6 AA01     		.2byte	0x1aa
 2116 08b8 C50A0000 		.4byte	0xac5
 2117 08bc 00       		.byte	0
 2118 08bd 00       		.byte	0
 2119 08be 02       		.uleb128 0x2
 2120 08bf D1080000 		.4byte	.LASF162
 2121 08c3 0A       		.byte	0xa
 2122 08c4 70       		.byte	0x70
 2123 08c5 C9080000 		.4byte	0x8c9
 2124 08c9 1B       		.uleb128 0x1b
 2125 08ca 950A0000 		.4byte	.LASF163
 2126 08ce 5001     		.2byte	0x150
 2127 08d0 0B       		.byte	0xb
 2128 08d1 C201     		.2byte	0x1c2
 2129 08d3 25090000 		.4byte	0x925
 2130 08d7 0C       		.uleb128 0xc
 2131 08d8 FF0A0000 		.4byte	.LASF164
 2132 08dc 0B       		.byte	0xb
 2133 08dd C601     		.2byte	0x1c6
 2134 08df 6E070000 		.4byte	0x76e
 2135 08e3 00       		.byte	0
 2136 08e4 0C       		.uleb128 0xc
 2137 08e5 61020000 		.4byte	.LASF165
 2138 08e9 0B       		.byte	0xb
 2139 08ea CA01     		.2byte	0x1ca
 2140 08ec 4B080000 		.4byte	0x84b
ARM GAS  /tmp/ccPQ1Gqd.s 			page 39


 2141 08f0 1C       		.byte	0x1c
 2142 08f1 0D       		.uleb128 0xd
 2143 08f2 64626700 		.ascii	"dbg\000"
 2144 08f6 0B       		.byte	0xb
 2145 08f7 CE01     		.2byte	0x1ce
 2146 08f9 98080000 		.4byte	0x898
 2147 08fd 2C       		.byte	0x2c
 2148 08fe 0C       		.uleb128 0xc
 2149 08ff 8A0D0000 		.4byte	.LASF166
 2150 0903 0B       		.byte	0xb
 2151 0904 D201     		.2byte	0x1d2
 2152 0906 05060000 		.4byte	0x605
 2153 090a 30       		.byte	0x30
 2154 090b 0D       		.uleb128 0xd
 2155 090c 746D00   		.ascii	"tm\000"
 2156 090f 0B       		.byte	0xb
 2157 0910 D701     		.2byte	0x1d7
 2158 0912 EA090000 		.4byte	0x9ea
 2159 0916 74       		.byte	0x74
 2160 0917 0C       		.uleb128 0xc
 2161 0918 76020000 		.4byte	.LASF167
 2162 091c 0B       		.byte	0xb
 2163 091d E301     		.2byte	0x1e3
 2164 091f CA0A0000 		.4byte	0xaca
 2165 0923 78       		.byte	0x78
 2166 0924 00       		.byte	0
 2167 0925 02       		.uleb128 0x2
 2168 0926 76000000 		.4byte	.LASF168
 2169 092a 0C       		.byte	0xc
 2170 092b 65       		.byte	0x65
 2171 092c B4000000 		.4byte	0xb4
 2172 0930 02       		.uleb128 0x2
 2173 0931 930E0000 		.4byte	.LASF169
 2174 0935 0C       		.byte	0xc
 2175 0936 6D       		.byte	0x6d
 2176 0937 F4000000 		.4byte	0xf4
 2177 093b 17       		.uleb128 0x17
 2178 093c 63080000 		.4byte	.LASF170
 2179 0940 04       		.byte	0x4
 2180 0941 0C       		.byte	0xc
 2181 0942 89       		.byte	0x89
 2182 0943 54090000 		.4byte	0x954
 2183 0947 14       		.uleb128 0x14
 2184 0948 72313300 		.ascii	"r13\000"
 2185 094c 0C       		.byte	0xc
 2186 094d 8A       		.byte	0x8a
 2187 094e CF090000 		.4byte	0x9cf
 2188 0952 00       		.byte	0
 2189 0953 00       		.byte	0
 2190 0954 17       		.uleb128 0x17
 2191 0955 3D0A0000 		.4byte	.LASF171
 2192 0959 24       		.byte	0x24
 2193 095a 0D       		.byte	0xd
 2194 095b FD       		.byte	0xfd
 2195 095c CF090000 		.4byte	0x9cf
 2196 0960 0D       		.uleb128 0xd
 2197 0961 723400   		.ascii	"r4\000"
ARM GAS  /tmp/ccPQ1Gqd.s 			page 40


 2198 0964 0D       		.byte	0xd
 2199 0965 1001     		.2byte	0x110
 2200 0967 25090000 		.4byte	0x925
 2201 096b 00       		.byte	0
 2202 096c 0D       		.uleb128 0xd
 2203 096d 723500   		.ascii	"r5\000"
 2204 0970 0D       		.byte	0xd
 2205 0971 1101     		.2byte	0x111
 2206 0973 25090000 		.4byte	0x925
 2207 0977 04       		.byte	0x4
 2208 0978 0D       		.uleb128 0xd
 2209 0979 723600   		.ascii	"r6\000"
 2210 097c 0D       		.byte	0xd
 2211 097d 1201     		.2byte	0x112
 2212 097f 25090000 		.4byte	0x925
 2213 0983 08       		.byte	0x8
 2214 0984 0D       		.uleb128 0xd
 2215 0985 723700   		.ascii	"r7\000"
 2216 0988 0D       		.byte	0xd
 2217 0989 1301     		.2byte	0x113
 2218 098b 25090000 		.4byte	0x925
 2219 098f 0C       		.byte	0xc
 2220 0990 0D       		.uleb128 0xd
 2221 0991 723800   		.ascii	"r8\000"
 2222 0994 0D       		.byte	0xd
 2223 0995 1401     		.2byte	0x114
 2224 0997 25090000 		.4byte	0x925
 2225 099b 10       		.byte	0x10
 2226 099c 0D       		.uleb128 0xd
 2227 099d 723900   		.ascii	"r9\000"
 2228 09a0 0D       		.byte	0xd
 2229 09a1 1501     		.2byte	0x115
 2230 09a3 25090000 		.4byte	0x925
 2231 09a7 14       		.byte	0x14
 2232 09a8 0D       		.uleb128 0xd
 2233 09a9 72313000 		.ascii	"r10\000"
 2234 09ad 0D       		.byte	0xd
 2235 09ae 1601     		.2byte	0x116
 2236 09b0 25090000 		.4byte	0x925
 2237 09b4 18       		.byte	0x18
 2238 09b5 0D       		.uleb128 0xd
 2239 09b6 72313100 		.ascii	"r11\000"
 2240 09ba 0D       		.byte	0xd
 2241 09bb 1701     		.2byte	0x117
 2242 09bd 25090000 		.4byte	0x925
 2243 09c1 1C       		.byte	0x1c
 2244 09c2 0D       		.uleb128 0xd
 2245 09c3 6C7200   		.ascii	"lr\000"
 2246 09c6 0D       		.byte	0xd
 2247 09c7 1801     		.2byte	0x118
 2248 09c9 25090000 		.4byte	0x925
 2249 09cd 20       		.byte	0x20
 2250 09ce 00       		.byte	0
 2251 09cf 06       		.uleb128 0x6
 2252 09d0 04       		.byte	0x4
 2253 09d1 54090000 		.4byte	0x954
 2254 09d5 12       		.uleb128 0x12
ARM GAS  /tmp/ccPQ1Gqd.s 			page 41


 2255 09d6 04       		.byte	0x4
 2256 09d7 0E       		.byte	0xe
 2257 09d8 38       		.byte	0x38
 2258 09d9 EA090000 		.4byte	0x9ea
 2259 09dd 13       		.uleb128 0x13
 2260 09de 39050000 		.4byte	.LASF172
 2261 09e2 0E       		.byte	0xe
 2262 09e3 3C       		.byte	0x3c
 2263 09e4 97050000 		.4byte	0x597
 2264 09e8 00       		.byte	0
 2265 09e9 00       		.byte	0
 2266 09ea 02       		.uleb128 0x2
 2267 09eb 4D000000 		.4byte	.LASF173
 2268 09ef 0E       		.byte	0xe
 2269 09f0 3D       		.byte	0x3d
 2270 09f1 D5090000 		.4byte	0x9d5
 2271 09f5 1C       		.uleb128 0x1c
 2272 09f6 04       		.byte	0x4
 2273 09f7 0B       		.byte	0xb
 2274 09f8 FA       		.byte	0xfa
 2275 09f9 520A0000 		.4byte	0xa52
 2276 09fd 1D       		.uleb128 0x1d
 2277 09fe 27050000 		.4byte	.LASF174
 2278 0a02 0B       		.byte	0xb
 2279 0a03 0101     		.2byte	0x101
 2280 0a05 D9050000 		.4byte	0x5d9
 2281 0a09 1D       		.uleb128 0x1d
 2282 0a0a 5B0F0000 		.4byte	.LASF175
 2283 0a0e 0B       		.byte	0xb
 2284 0a0f 0801     		.2byte	0x108
 2285 0a11 D9050000 		.4byte	0x5d9
 2286 0a15 1D       		.uleb128 0x1d
 2287 0a16 5A020000 		.4byte	.LASF176
 2288 0a1a 0B       		.byte	0xb
 2289 0a1b 0F01     		.2byte	0x10f
 2290 0a1d B4000000 		.4byte	0xb4
 2291 0a21 1D       		.uleb128 0x1d
 2292 0a22 CA000000 		.4byte	.LASF177
 2293 0a26 0B       		.byte	0xb
 2294 0a27 1601     		.2byte	0x116
 2295 0a29 520A0000 		.4byte	0xa52
 2296 0a2d 1D       		.uleb128 0x1d
 2297 0a2e DF0C0000 		.4byte	.LASF178
 2298 0a32 0B       		.byte	0xb
 2299 0a33 1E01     		.2byte	0x11e
 2300 0a35 7D0A0000 		.4byte	0xa7d
 2301 0a39 1D       		.uleb128 0x1d
 2302 0a3a 38000000 		.4byte	.LASF179
 2303 0a3e 0B       		.byte	0xb
 2304 0a3f 2701     		.2byte	0x127
 2305 0a41 B40A0000 		.4byte	0xab4
 2306 0a45 1D       		.uleb128 0x1d
 2307 0a46 8B020000 		.4byte	.LASF180
 2308 0a4a 0B       		.byte	0xb
 2309 0a4b 2F01     		.2byte	0x12f
 2310 0a4d E4050000 		.4byte	0x5e4
 2311 0a51 00       		.byte	0
ARM GAS  /tmp/ccPQ1Gqd.s 			page 42


 2312 0a52 06       		.uleb128 0x6
 2313 0a53 04       		.byte	0x4
 2314 0a54 09070000 		.4byte	0x709
 2315 0a58 17       		.uleb128 0x17
 2316 0a59 07040000 		.4byte	.LASF181
 2317 0a5d 0C       		.byte	0xc
 2318 0a5e 0F       		.byte	0xf
 2319 0a5f 34       		.byte	0x34
 2320 0a60 7D0A0000 		.4byte	0xa7d
 2321 0a64 13       		.uleb128 0x13
 2322 0a65 FA000000 		.4byte	.LASF182
 2323 0a69 0F       		.byte	0xf
 2324 0a6a 35       		.byte	0x35
 2325 0a6b 3E070000 		.4byte	0x73e
 2326 0a6f 00       		.byte	0
 2327 0a70 13       		.uleb128 0x13
 2328 0a71 63030000 		.4byte	.LASF183
 2329 0a75 0F       		.byte	0xf
 2330 0a76 37       		.byte	0x37
 2331 0a77 EF050000 		.4byte	0x5ef
 2332 0a7b 08       		.byte	0x8
 2333 0a7c 00       		.byte	0
 2334 0a7d 06       		.uleb128 0x6
 2335 0a7e 04       		.byte	0x4
 2336 0a7f 580A0000 		.4byte	0xa58
 2337 0a83 17       		.uleb128 0x17
 2338 0a84 A7050000 		.4byte	.LASF184
 2339 0a88 10       		.byte	0x10
 2340 0a89 10       		.byte	0x10
 2341 0a8a 39       		.byte	0x39
 2342 0a8b B40A0000 		.4byte	0xab4
 2343 0a8f 13       		.uleb128 0x13
 2344 0a90 2C0A0000 		.4byte	.LASF185
 2345 0a94 10       		.byte	0x10
 2346 0a95 3A       		.byte	0x3a
 2347 0a96 3E070000 		.4byte	0x73e
 2348 0a9a 00       		.byte	0
 2349 0a9b 13       		.uleb128 0x13
 2350 0a9c F2000000 		.4byte	.LASF186
 2351 0aa0 10       		.byte	0x10
 2352 0aa1 3C       		.byte	0x3c
 2353 0aa2 14070000 		.4byte	0x714
 2354 0aa6 08       		.byte	0x8
 2355 0aa7 13       		.uleb128 0x13
 2356 0aa8 310E0000 		.4byte	.LASF187
 2357 0aac 10       		.byte	0x10
 2358 0aad 3E       		.byte	0x3e
 2359 0aae E50A0000 		.4byte	0xae5
 2360 0ab2 0C       		.byte	0xc
 2361 0ab3 00       		.byte	0
 2362 0ab4 06       		.uleb128 0x6
 2363 0ab5 04       		.byte	0x4
 2364 0ab6 830A0000 		.4byte	0xa83
 2365 0aba 06       		.uleb128 0x6
 2366 0abb 04       		.byte	0x4
 2367 0abc F1070000 		.4byte	0x7f1
 2368 0ac0 08       		.uleb128 0x8
ARM GAS  /tmp/ccPQ1Gqd.s 			page 43


 2369 0ac1 FA050000 		.4byte	0x5fa
 2370 0ac5 08       		.uleb128 0x8
 2371 0ac6 BD000000 		.4byte	0xbd
 2372 0aca 09       		.uleb128 0x9
 2373 0acb 30090000 		.4byte	0x930
 2374 0acf DA0A0000 		.4byte	0xada
 2375 0ad3 0A       		.uleb128 0xa
 2376 0ad4 AD000000 		.4byte	0xad
 2377 0ad8 1A       		.byte	0x1a
 2378 0ad9 00       		.byte	0
 2379 0ada 02       		.uleb128 0x2
 2380 0adb E60C0000 		.4byte	.LASF188
 2381 0adf 10       		.byte	0x10
 2382 0ae0 34       		.byte	0x34
 2383 0ae1 830A0000 		.4byte	0xa83
 2384 0ae5 06       		.uleb128 0x6
 2385 0ae6 04       		.byte	0x4
 2386 0ae7 DA0A0000 		.4byte	0xada
 2387 0aeb 17       		.uleb128 0x17
 2388 0aec 2A000000 		.4byte	.LASF189
 2389 0af0 08       		.byte	0x8
 2390 0af1 11       		.byte	0x11
 2391 0af2 94       		.byte	0x94
 2392 0af3 340B0000 		.4byte	0xb34
 2393 0af7 13       		.uleb128 0x13
 2394 0af8 E4070000 		.4byte	.LASF190
 2395 0afc 11       		.byte	0x11
 2396 0afd 97       		.byte	0x97
 2397 0afe C8000000 		.4byte	0xc8
 2398 0b02 00       		.byte	0
 2399 0b03 13       		.uleb128 0x13
 2400 0b04 200B0000 		.4byte	.LASF191
 2401 0b08 11       		.byte	0x11
 2402 0b09 98       		.byte	0x98
 2403 0b0a C8000000 		.4byte	0xc8
 2404 0b0e 01       		.byte	0x1
 2405 0b0f 13       		.uleb128 0x13
 2406 0b10 79030000 		.4byte	.LASF192
 2407 0b14 11       		.byte	0x11
 2408 0b15 99       		.byte	0x99
 2409 0b16 D3000000 		.4byte	0xd3
 2410 0b1a 02       		.byte	0x2
 2411 0b1b 13       		.uleb128 0x13
 2412 0b1c 23000000 		.4byte	.LASF193
 2413 0b20 11       		.byte	0x11
 2414 0b21 9A       		.byte	0x9a
 2415 0b22 D3000000 		.4byte	0xd3
 2416 0b26 04       		.byte	0x4
 2417 0b27 13       		.uleb128 0x13
 2418 0b28 20060000 		.4byte	.LASF194
 2419 0b2c 11       		.byte	0x11
 2420 0b2d 9B       		.byte	0x9b
 2421 0b2e D3000000 		.4byte	0xd3
 2422 0b32 06       		.byte	0x6
 2423 0b33 00       		.byte	0
 2424 0b34 02       		.uleb128 0x2
 2425 0b35 F0060000 		.4byte	.LASF195
ARM GAS  /tmp/ccPQ1Gqd.s 			page 44


 2426 0b39 11       		.byte	0x11
 2427 0b3a 9C       		.byte	0x9c
 2428 0b3b EB0A0000 		.4byte	0xaeb
 2429 0b3f 17       		.uleb128 0x17
 2430 0b40 35070000 		.4byte	.LASF196
 2431 0b44 38       		.byte	0x38
 2432 0b45 11       		.byte	0x11
 2433 0b46 A0       		.byte	0xa0
 2434 0b47 F40B0000 		.4byte	0xbf4
 2435 0b4b 13       		.uleb128 0x13
 2436 0b4c 1B050000 		.4byte	.LASF91
 2437 0b50 11       		.byte	0x11
 2438 0b51 A2       		.byte	0xa2
 2439 0b52 260D0000 		.4byte	0xd26
 2440 0b56 00       		.byte	0
 2441 0b57 13       		.uleb128 0x13
 2442 0b58 7B040000 		.4byte	.LASF197
 2443 0b5c 11       		.byte	0x11
 2444 0b5d A3       		.byte	0xa3
 2445 0b5e 260D0000 		.4byte	0xd26
 2446 0b62 04       		.byte	0x4
 2447 0b63 13       		.uleb128 0x13
 2448 0b64 B5010000 		.4byte	.LASF97
 2449 0b68 11       		.byte	0x11
 2450 0b69 A5       		.byte	0xa5
 2451 0b6a 460D0000 		.4byte	0xd46
 2452 0b6e 08       		.byte	0x8
 2453 0b6f 13       		.uleb128 0x13
 2454 0b70 BB050000 		.4byte	.LASF198
 2455 0b74 11       		.byte	0x11
 2456 0b75 A6       		.byte	0xa6
 2457 0b76 5B0D0000 		.4byte	0xd5b
 2458 0b7a 0C       		.byte	0xc
 2459 0b7b 13       		.uleb128 0x13
 2460 0b7c 8E050000 		.4byte	.LASF199
 2461 0b80 11       		.byte	0x11
 2462 0b81 A7       		.byte	0xa7
 2463 0b82 5B0D0000 		.4byte	0xd5b
 2464 0b86 10       		.byte	0x10
 2465 0b87 13       		.uleb128 0x13
 2466 0b88 7A0F0000 		.4byte	.LASF200
 2467 0b8c 11       		.byte	0x11
 2468 0b8d A9       		.byte	0xa9
 2469 0b8e 260D0000 		.4byte	0xd26
 2470 0b92 14       		.byte	0x14
 2471 0b93 13       		.uleb128 0x13
 2472 0b94 42080000 		.4byte	.LASF201
 2473 0b98 11       		.byte	0x11
 2474 0b99 AA       		.byte	0xaa
 2475 0b9a 260D0000 		.4byte	0xd26
 2476 0b9e 18       		.byte	0x18
 2477 0b9f 14       		.uleb128 0x14
 2478 0ba0 534F4600 		.ascii	"SOF\000"
 2479 0ba4 11       		.byte	0x11
 2480 0ba5 AB       		.byte	0xab
 2481 0ba6 5B0D0000 		.4byte	0xd5b
 2482 0baa 1C       		.byte	0x1c
ARM GAS  /tmp/ccPQ1Gqd.s 			page 45


 2483 0bab 13       		.uleb128 0x13
 2484 0bac A1040000 		.4byte	.LASF202
 2485 0bb0 11       		.byte	0x11
 2486 0bb1 AC       		.byte	0xac
 2487 0bb2 260D0000 		.4byte	0xd26
 2488 0bb6 20       		.byte	0x20
 2489 0bb7 13       		.uleb128 0x13
 2490 0bb8 0C0C0000 		.4byte	.LASF203
 2491 0bbc 11       		.byte	0x11
 2492 0bbd AD       		.byte	0xad
 2493 0bbe 260D0000 		.4byte	0xd26
 2494 0bc2 24       		.byte	0x24
 2495 0bc3 13       		.uleb128 0x13
 2496 0bc4 9E0E0000 		.4byte	.LASF204
 2497 0bc8 11       		.byte	0x11
 2498 0bc9 AF       		.byte	0xaf
 2499 0bca 700D0000 		.4byte	0xd70
 2500 0bce 28       		.byte	0x28
 2501 0bcf 13       		.uleb128 0x13
 2502 0bd0 DA060000 		.4byte	.LASF205
 2503 0bd4 11       		.byte	0x11
 2504 0bd5 B0       		.byte	0xb0
 2505 0bd6 700D0000 		.4byte	0xd70
 2506 0bda 2C       		.byte	0x2c
 2507 0bdb 13       		.uleb128 0x13
 2508 0bdc 3F030000 		.4byte	.LASF206
 2509 0be0 11       		.byte	0x11
 2510 0be1 B1       		.byte	0xb1
 2511 0be2 700D0000 		.4byte	0xd70
 2512 0be6 30       		.byte	0x30
 2513 0be7 13       		.uleb128 0x13
 2514 0be8 0D010000 		.4byte	.LASF207
 2515 0bec 11       		.byte	0x11
 2516 0bed B2       		.byte	0xb2
 2517 0bee 700D0000 		.4byte	0xd70
 2518 0bf2 34       		.byte	0x34
 2519 0bf3 00       		.byte	0
 2520 0bf4 1E       		.uleb128 0x1e
 2521 0bf5 C8000000 		.4byte	0xc8
 2522 0bf9 080C0000 		.4byte	0xc08
 2523 0bfd 1A       		.uleb128 0x1a
 2524 0bfe 080C0000 		.4byte	0xc08
 2525 0c02 1A       		.uleb128 0x1a
 2526 0c03 C8000000 		.4byte	0xc8
 2527 0c07 00       		.byte	0
 2528 0c08 06       		.uleb128 0x6
 2529 0c09 04       		.byte	0x4
 2530 0c0a 0E0C0000 		.4byte	0xc0e
 2531 0c0e 1F       		.uleb128 0x1f
 2532 0c0f C1040000 		.4byte	.LASF208
 2533 0c13 2402     		.2byte	0x224
 2534 0c15 11       		.byte	0x11
 2535 0c16 E1       		.byte	0xe1
 2536 0c17 260D0000 		.4byte	0xd26
 2537 0c1b 14       		.uleb128 0x14
 2538 0c1c 696400   		.ascii	"id\000"
 2539 0c1f 11       		.byte	0x11
ARM GAS  /tmp/ccPQ1Gqd.s 			page 46


 2540 0c20 E3       		.byte	0xe3
 2541 0c21 C8000000 		.4byte	0xc8
 2542 0c25 00       		.byte	0
 2543 0c26 13       		.uleb128 0x13
 2544 0c27 950D0000 		.4byte	.LASF209
 2545 0c2b 11       		.byte	0x11
 2546 0c2c E4       		.byte	0xe4
 2547 0c2d E9000000 		.4byte	0xe9
 2548 0c31 04       		.byte	0x4
 2549 0c32 13       		.uleb128 0x13
 2550 0c33 F4030000 		.4byte	.LASF210
 2551 0c37 11       		.byte	0x11
 2552 0c38 E5       		.byte	0xe5
 2553 0c39 E9000000 		.4byte	0xe9
 2554 0c3d 08       		.byte	0x8
 2555 0c3e 13       		.uleb128 0x13
 2556 0c3f 5E0A0000 		.4byte	.LASF211
 2557 0c43 11       		.byte	0x11
 2558 0c44 E6       		.byte	0xe6
 2559 0c45 E9000000 		.4byte	0xe9
 2560 0c49 0C       		.byte	0xc
 2561 0c4a 13       		.uleb128 0x13
 2562 0c4b 00000000 		.4byte	.LASF212
 2563 0c4f 11       		.byte	0x11
 2564 0c50 E7       		.byte	0xe7
 2565 0c51 9C0D0000 		.4byte	0xd9c
 2566 0c55 10       		.byte	0x10
 2567 0c56 13       		.uleb128 0x13
 2568 0c57 BE000000 		.4byte	.LASF213
 2569 0c5b 11       		.byte	0x11
 2570 0c5c E8       		.byte	0xe8
 2571 0c5d 930E0000 		.4byte	0xe93
 2572 0c61 14       		.byte	0x14
 2573 0c62 16       		.uleb128 0x16
 2574 0c63 B7030000 		.4byte	.LASF214
 2575 0c67 11       		.byte	0x11
 2576 0c68 E9       		.byte	0xe9
 2577 0c69 930E0000 		.4byte	0xe93
 2578 0c6d 0401     		.2byte	0x104
 2579 0c6f 16       		.uleb128 0x16
 2580 0c70 040F0000 		.4byte	.LASF215
 2581 0c74 11       		.byte	0x11
 2582 0c75 EA       		.byte	0xea
 2583 0c76 E9000000 		.4byte	0xe9
 2584 0c7a F401     		.2byte	0x1f4
 2585 0c7c 16       		.uleb128 0x16
 2586 0c7d D0000000 		.4byte	.LASF216
 2587 0c81 11       		.byte	0x11
 2588 0c82 EB       		.byte	0xeb
 2589 0c83 E9000000 		.4byte	0xe9
 2590 0c87 F801     		.2byte	0x1f8
 2591 0c89 16       		.uleb128 0x16
 2592 0c8a 9F0A0000 		.4byte	.LASF217
 2593 0c8e 11       		.byte	0x11
 2594 0c8f EC       		.byte	0xec
 2595 0c90 C8000000 		.4byte	0xc8
 2596 0c94 FC01     		.2byte	0x1fc
ARM GAS  /tmp/ccPQ1Gqd.s 			page 47


 2597 0c96 16       		.uleb128 0x16
 2598 0c97 870A0000 		.4byte	.LASF218
 2599 0c9b 11       		.byte	0x11
 2600 0c9c ED       		.byte	0xed
 2601 0c9d C8000000 		.4byte	0xc8
 2602 0ca1 FD01     		.2byte	0x1fd
 2603 0ca3 16       		.uleb128 0x16
 2604 0ca4 3A020000 		.4byte	.LASF219
 2605 0ca8 11       		.byte	0x11
 2606 0ca9 EE       		.byte	0xee
 2607 0caa C8000000 		.4byte	0xc8
 2608 0cae FE01     		.2byte	0x1fe
 2609 0cb0 16       		.uleb128 0x16
 2610 0cb1 D3050000 		.4byte	.LASF220
 2611 0cb5 11       		.byte	0x11
 2612 0cb6 EF       		.byte	0xef
 2613 0cb7 C8000000 		.4byte	0xc8
 2614 0cbb FF01     		.2byte	0x1ff
 2615 0cbd 16       		.uleb128 0x16
 2616 0cbe 7C010000 		.4byte	.LASF221
 2617 0cc2 11       		.byte	0x11
 2618 0cc3 F0       		.byte	0xf0
 2619 0cc4 C8000000 		.4byte	0xc8
 2620 0cc8 0002     		.2byte	0x200
 2621 0cca 16       		.uleb128 0x16
 2622 0ccb 99010000 		.4byte	.LASF222
 2623 0ccf 11       		.byte	0x11
 2624 0cd0 F1       		.byte	0xf1
 2625 0cd1 E9000000 		.4byte	0xe9
 2626 0cd5 0402     		.2byte	0x204
 2627 0cd7 16       		.uleb128 0x16
 2628 0cd8 4E090000 		.4byte	.LASF223
 2629 0cdc 11       		.byte	0x11
 2630 0cdd F3       		.byte	0xf3
 2631 0cde 340B0000 		.4byte	0xb34
 2632 0ce2 0802     		.2byte	0x208
 2633 0ce4 16       		.uleb128 0x16
 2634 0ce5 4A0D0000 		.4byte	.LASF224
 2635 0ce9 11       		.byte	0x11
 2636 0cea F4       		.byte	0xf4
 2637 0ceb A30E0000 		.4byte	0xea3
 2638 0cef 1002     		.2byte	0x210
 2639 0cf1 16       		.uleb128 0x16
 2640 0cf2 2E070000 		.4byte	.LASF225
 2641 0cf6 11       		.byte	0x11
 2642 0cf7 F5       		.byte	0xf5
 2643 0cf8 A90E0000 		.4byte	0xea9
 2644 0cfc 1402     		.2byte	0x214
 2645 0cfe 16       		.uleb128 0x16
 2646 0cff 3C040000 		.4byte	.LASF226
 2647 0d03 11       		.byte	0x11
 2648 0d04 F6       		.byte	0xf6
 2649 0d05 B4000000 		.4byte	0xb4
 2650 0d09 1802     		.2byte	0x218
 2651 0d0b 16       		.uleb128 0x16
 2652 0d0c DA0E0000 		.4byte	.LASF227
 2653 0d10 11       		.byte	0x11
ARM GAS  /tmp/ccPQ1Gqd.s 			page 48


 2654 0d11 F7       		.byte	0xf7
 2655 0d12 B4000000 		.4byte	0xb4
 2656 0d16 1C02     		.2byte	0x21c
 2657 0d18 16       		.uleb128 0x16
 2658 0d19 40050000 		.4byte	.LASF102
 2659 0d1d 11       		.byte	0x11
 2660 0d1e F8       		.byte	0xf8
 2661 0d1f B4000000 		.4byte	0xb4
 2662 0d23 2002     		.2byte	0x220
 2663 0d25 00       		.byte	0
 2664 0d26 06       		.uleb128 0x6
 2665 0d27 04       		.byte	0x4
 2666 0d28 F40B0000 		.4byte	0xbf4
 2667 0d2c 1E       		.uleb128 0x1e
 2668 0d2d C8000000 		.4byte	0xc8
 2669 0d31 400D0000 		.4byte	0xd40
 2670 0d35 1A       		.uleb128 0x1a
 2671 0d36 080C0000 		.4byte	0xc08
 2672 0d3a 1A       		.uleb128 0x1a
 2673 0d3b 400D0000 		.4byte	0xd40
 2674 0d3f 00       		.byte	0
 2675 0d40 06       		.uleb128 0x6
 2676 0d41 04       		.byte	0x4
 2677 0d42 340B0000 		.4byte	0xb34
 2678 0d46 06       		.uleb128 0x6
 2679 0d47 04       		.byte	0x4
 2680 0d48 2C0D0000 		.4byte	0xd2c
 2681 0d4c 1E       		.uleb128 0x1e
 2682 0d4d C8000000 		.4byte	0xc8
 2683 0d51 5B0D0000 		.4byte	0xd5b
 2684 0d55 1A       		.uleb128 0x1a
 2685 0d56 080C0000 		.4byte	0xc08
 2686 0d5a 00       		.byte	0
 2687 0d5b 06       		.uleb128 0x6
 2688 0d5c 04       		.byte	0x4
 2689 0d5d 4C0D0000 		.4byte	0xd4c
 2690 0d61 1E       		.uleb128 0x1e
 2691 0d62 DC020000 		.4byte	0x2dc
 2692 0d66 700D0000 		.4byte	0xd70
 2693 0d6a 1A       		.uleb128 0x1a
 2694 0d6b 91050000 		.4byte	0x591
 2695 0d6f 00       		.byte	0
 2696 0d70 06       		.uleb128 0x6
 2697 0d71 04       		.byte	0x4
 2698 0d72 610D0000 		.4byte	0xd61
 2699 0d76 02       		.uleb128 0x2
 2700 0d77 0E0F0000 		.4byte	.LASF228
 2701 0d7b 11       		.byte	0x11
 2702 0d7c B7       		.byte	0xb7
 2703 0d7d 3F0B0000 		.4byte	0xb3f
 2704 0d81 10       		.uleb128 0x10
 2705 0d82 01       		.byte	0x1
 2706 0d83 11       		.byte	0x11
 2707 0d84 BB       		.byte	0xbb
 2708 0d85 9C0D0000 		.4byte	0xd9c
 2709 0d89 11       		.uleb128 0x11
 2710 0d8a 86000000 		.4byte	.LASF229
ARM GAS  /tmp/ccPQ1Gqd.s 			page 49


 2711 0d8e 00       		.sleb128 0
 2712 0d8f 11       		.uleb128 0x11
 2713 0d90 360F0000 		.4byte	.LASF230
 2714 0d94 01       		.sleb128 1
 2715 0d95 11       		.uleb128 0x11
 2716 0d96 73080000 		.4byte	.LASF231
 2717 0d9a 02       		.sleb128 2
 2718 0d9b 00       		.byte	0
 2719 0d9c 02       		.uleb128 0x2
 2720 0d9d 6F050000 		.4byte	.LASF232
 2721 0da1 11       		.byte	0x11
 2722 0da2 BF       		.byte	0xbf
 2723 0da3 810D0000 		.4byte	0xd81
 2724 0da7 10       		.uleb128 0x10
 2725 0da8 01       		.byte	0x1
 2726 0da9 11       		.byte	0x11
 2727 0daa C2       		.byte	0xc2
 2728 0dab C20D0000 		.4byte	0xdc2
 2729 0daf 11       		.uleb128 0x11
 2730 0db0 46050000 		.4byte	.LASF233
 2731 0db4 00       		.sleb128 0
 2732 0db5 11       		.uleb128 0x11
 2733 0db6 050B0000 		.4byte	.LASF234
 2734 0dba 01       		.sleb128 1
 2735 0dbb 11       		.uleb128 0x11
 2736 0dbc B8070000 		.4byte	.LASF235
 2737 0dc0 02       		.sleb128 2
 2738 0dc1 00       		.byte	0
 2739 0dc2 02       		.uleb128 0x2
 2740 0dc3 08080000 		.4byte	.LASF236
 2741 0dc7 11       		.byte	0x11
 2742 0dc8 C6       		.byte	0xc6
 2743 0dc9 A70D0000 		.4byte	0xda7
 2744 0dcd 12       		.uleb128 0x12
 2745 0dce 1C       		.byte	0x1c
 2746 0dcf 11       		.byte	0x11
 2747 0dd0 C9       		.byte	0xc9
 2748 0dd1 2A0E0000 		.4byte	0xe2a
 2749 0dd5 13       		.uleb128 0x13
 2750 0dd6 060E0000 		.4byte	.LASF237
 2751 0dda 11       		.byte	0x11
 2752 0ddb CB       		.byte	0xcb
 2753 0ddc 3E0E0000 		.4byte	0xe3e
 2754 0de0 00       		.byte	0
 2755 0de1 13       		.uleb128 0x13
 2756 0de2 1A0E0000 		.4byte	.LASF238
 2757 0de6 11       		.byte	0x11
 2758 0de7 CC       		.byte	0xcc
 2759 0de8 3E0E0000 		.4byte	0xe3e
 2760 0dec 04       		.byte	0x4
 2761 0ded 13       		.uleb128 0x13
 2762 0dee 91030000 		.4byte	.LASF239
 2763 0df2 11       		.byte	0x11
 2764 0df3 CD       		.byte	0xcd
 2765 0df4 3E0E0000 		.4byte	0xe3e
 2766 0df8 08       		.byte	0x8
 2767 0df9 13       		.uleb128 0x13
ARM GAS  /tmp/ccPQ1Gqd.s 			page 50


 2768 0dfa 380C0000 		.4byte	.LASF240
 2769 0dfe 11       		.byte	0x11
 2770 0dff CE       		.byte	0xce
 2771 0e00 3E0E0000 		.4byte	0xe3e
 2772 0e04 0C       		.byte	0xc
 2773 0e05 13       		.uleb128 0x13
 2774 0e06 A8080000 		.4byte	.LASF241
 2775 0e0a 11       		.byte	0x11
 2776 0e0b CF       		.byte	0xcf
 2777 0e0c 3E0E0000 		.4byte	0xe3e
 2778 0e10 10       		.byte	0x10
 2779 0e11 13       		.uleb128 0x13
 2780 0e12 5E010000 		.4byte	.LASF242
 2781 0e16 11       		.byte	0x11
 2782 0e17 D0       		.byte	0xd0
 2783 0e18 3E0E0000 		.4byte	0xe3e
 2784 0e1c 14       		.byte	0x14
 2785 0e1d 13       		.uleb128 0x13
 2786 0e1e 25030000 		.4byte	.LASF243
 2787 0e22 11       		.byte	0x11
 2788 0e23 D1       		.byte	0xd1
 2789 0e24 3E0E0000 		.4byte	0xe3e
 2790 0e28 18       		.byte	0x18
 2791 0e29 00       		.byte	0
 2792 0e2a 1E       		.uleb128 0x1e
 2793 0e2b DC020000 		.4byte	0x2dc
 2794 0e2f 3E0E0000 		.4byte	0xe3e
 2795 0e33 1A       		.uleb128 0x1a
 2796 0e34 9C0D0000 		.4byte	0xd9c
 2797 0e38 1A       		.uleb128 0x1a
 2798 0e39 91050000 		.4byte	0x591
 2799 0e3d 00       		.byte	0
 2800 0e3e 06       		.uleb128 0x6
 2801 0e3f 04       		.byte	0x4
 2802 0e40 2A0E0000 		.4byte	0xe2a
 2803 0e44 02       		.uleb128 0x2
 2804 0e45 E40E0000 		.4byte	.LASF244
 2805 0e49 11       		.byte	0x11
 2806 0e4a D5       		.byte	0xd5
 2807 0e4b CD0D0000 		.4byte	0xdcd
 2808 0e4f 12       		.uleb128 0x12
 2809 0e50 10       		.byte	0x10
 2810 0e51 11       		.byte	0x11
 2811 0e52 D8       		.byte	0xd8
 2812 0e53 880E0000 		.4byte	0xe88
 2813 0e57 13       		.uleb128 0x13
 2814 0e58 D5070000 		.4byte	.LASF245
 2815 0e5c 11       		.byte	0x11
 2816 0e5d DA       		.byte	0xda
 2817 0e5e E9000000 		.4byte	0xe9
 2818 0e62 00       		.byte	0
 2819 0e63 13       		.uleb128 0x13
 2820 0e64 62050000 		.4byte	.LASF246
 2821 0e68 11       		.byte	0x11
 2822 0e69 DB       		.byte	0xdb
 2823 0e6a E9000000 		.4byte	0xe9
 2824 0e6e 04       		.byte	0x4
ARM GAS  /tmp/ccPQ1Gqd.s 			page 51


 2825 0e6f 13       		.uleb128 0x13
 2826 0e70 2E050000 		.4byte	.LASF247
 2827 0e74 11       		.byte	0x11
 2828 0e75 DC       		.byte	0xdc
 2829 0e76 E9000000 		.4byte	0xe9
 2830 0e7a 08       		.byte	0x8
 2831 0e7b 13       		.uleb128 0x13
 2832 0e7c A90A0000 		.4byte	.LASF70
 2833 0e80 11       		.byte	0x11
 2834 0e81 DD       		.byte	0xdd
 2835 0e82 E9000000 		.4byte	0xe9
 2836 0e86 0C       		.byte	0xc
 2837 0e87 00       		.byte	0
 2838 0e88 02       		.uleb128 0x2
 2839 0e89 460F0000 		.4byte	.LASF248
 2840 0e8d 11       		.byte	0x11
 2841 0e8e DE       		.byte	0xde
 2842 0e8f 4F0E0000 		.4byte	0xe4f
 2843 0e93 09       		.uleb128 0x9
 2844 0e94 880E0000 		.4byte	0xe88
 2845 0e98 A30E0000 		.4byte	0xea3
 2846 0e9c 0A       		.uleb128 0xa
 2847 0e9d AD000000 		.4byte	0xad
 2848 0ea1 0E       		.byte	0xe
 2849 0ea2 00       		.byte	0
 2850 0ea3 06       		.uleb128 0x6
 2851 0ea4 04       		.byte	0x4
 2852 0ea5 440E0000 		.4byte	0xe44
 2853 0ea9 06       		.uleb128 0x6
 2854 0eaa 04       		.byte	0x4
 2855 0eab 760D0000 		.4byte	0xd76
 2856 0eaf 02       		.uleb128 0x2
 2857 0eb0 250C0000 		.4byte	.LASF249
 2858 0eb4 11       		.byte	0x11
 2859 0eb5 F9       		.byte	0xf9
 2860 0eb6 0E0C0000 		.4byte	0xc0e
 2861 0eba 20       		.uleb128 0x20
 2862 0ebb 500D0000 		.4byte	.LASF250
 2863 0ebf 01       		.byte	0x1
 2864 0ec0 47       		.byte	0x47
 2865 0ec1 00000000 		.4byte	.LFB263
 2866 0ec5 20000000 		.4byte	.LFE263-.LFB263
 2867 0ec9 01       		.uleb128 0x1
 2868 0eca 9C       		.byte	0x9c
 2869 0ecb DE0E0000 		.4byte	0xede
 2870 0ecf 21       		.uleb128 0x21
 2871 0ed0 34090000 		.4byte	.LASF252
 2872 0ed4 01       		.byte	0x1
 2873 0ed5 47       		.byte	0x47
 2874 0ed6 DE0E0000 		.4byte	0xede
 2875 0eda 02       		.uleb128 0x2
 2876 0edb 91       		.byte	0x91
 2877 0edc 74       		.sleb128 -12
 2878 0edd 00       		.byte	0
 2879 0ede 06       		.uleb128 0x6
 2880 0edf 04       		.byte	0x4
 2881 0ee0 7F050000 		.4byte	0x57f
ARM GAS  /tmp/ccPQ1Gqd.s 			page 52


 2882 0ee4 20       		.uleb128 0x20
 2883 0ee5 56090000 		.4byte	.LASF251
 2884 0ee9 01       		.byte	0x1
 2885 0eea 52       		.byte	0x52
 2886 0eeb 20000000 		.4byte	.LFB264
 2887 0eef 3C000000 		.4byte	.LFE264-.LFB264
 2888 0ef3 01       		.uleb128 0x1
 2889 0ef4 9C       		.byte	0x9c
 2890 0ef5 160F0000 		.4byte	0xf16
 2891 0ef9 21       		.uleb128 0x21
 2892 0efa 34090000 		.4byte	.LASF252
 2893 0efe 01       		.byte	0x1
 2894 0eff 52       		.byte	0x52
 2895 0f00 DE0E0000 		.4byte	0xede
 2896 0f04 02       		.uleb128 0x2
 2897 0f05 91       		.byte	0x91
 2898 0f06 74       		.sleb128 -12
 2899 0f07 21       		.uleb128 0x21
 2900 0f08 790C0000 		.4byte	.LASF253
 2901 0f0c 01       		.byte	0x1
 2902 0f0d 52       		.byte	0x52
 2903 0f0e C8000000 		.4byte	0xc8
 2904 0f12 02       		.uleb128 0x2
 2905 0f13 91       		.byte	0x91
 2906 0f14 73       		.sleb128 -13
 2907 0f15 00       		.byte	0
 2908 0f16 20       		.uleb128 0x20
 2909 0f17 DA0A0000 		.4byte	.LASF254
 2910 0f1b 01       		.byte	0x1
 2911 0f1c 5D       		.byte	0x5d
 2912 0f1d 60000000 		.4byte	.LFB265
 2913 0f21 3A000000 		.4byte	.LFE265-.LFB265
 2914 0f25 01       		.uleb128 0x1
 2915 0f26 9C       		.byte	0x9c
 2916 0f27 480F0000 		.4byte	0xf48
 2917 0f2b 21       		.uleb128 0x21
 2918 0f2c 34090000 		.4byte	.LASF252
 2919 0f30 01       		.byte	0x1
 2920 0f31 5D       		.byte	0x5d
 2921 0f32 DE0E0000 		.4byte	0xede
 2922 0f36 02       		.uleb128 0x2
 2923 0f37 91       		.byte	0x91
 2924 0f38 74       		.sleb128 -12
 2925 0f39 21       		.uleb128 0x21
 2926 0f3a 790C0000 		.4byte	.LASF253
 2927 0f3e 01       		.byte	0x1
 2928 0f3f 5D       		.byte	0x5d
 2929 0f40 C8000000 		.4byte	0xc8
 2930 0f44 02       		.uleb128 0x2
 2931 0f45 91       		.byte	0x91
 2932 0f46 73       		.sleb128 -13
 2933 0f47 00       		.byte	0
 2934 0f48 20       		.uleb128 0x20
 2935 0f49 7F0E0000 		.4byte	.LASF255
 2936 0f4d 01       		.byte	0x1
 2937 0f4e 67       		.byte	0x67
 2938 0f4f A0000000 		.4byte	.LFB266
ARM GAS  /tmp/ccPQ1Gqd.s 			page 53


 2939 0f53 18000000 		.4byte	.LFE266-.LFB266
 2940 0f57 01       		.uleb128 0x1
 2941 0f58 9C       		.byte	0x9c
 2942 0f59 6C0F0000 		.4byte	0xf6c
 2943 0f5d 21       		.uleb128 0x21
 2944 0f5e 34090000 		.4byte	.LASF252
 2945 0f62 01       		.byte	0x1
 2946 0f63 67       		.byte	0x67
 2947 0f64 DE0E0000 		.4byte	0xede
 2948 0f68 02       		.uleb128 0x2
 2949 0f69 91       		.byte	0x91
 2950 0f6a 74       		.sleb128 -12
 2951 0f6b 00       		.byte	0
 2952 0f6c 20       		.uleb128 0x20
 2953 0f6d D9020000 		.4byte	.LASF256
 2954 0f71 01       		.byte	0x1
 2955 0f72 71       		.byte	0x71
 2956 0f73 C0000000 		.4byte	.LFB267
 2957 0f77 26000000 		.4byte	.LFE267-.LFB267
 2958 0f7b 01       		.uleb128 0x1
 2959 0f7c 9C       		.byte	0x9c
 2960 0f7d 900F0000 		.4byte	0xf90
 2961 0f81 21       		.uleb128 0x21
 2962 0f82 34090000 		.4byte	.LASF252
 2963 0f86 01       		.byte	0x1
 2964 0f87 71       		.byte	0x71
 2965 0f88 DE0E0000 		.4byte	0xede
 2966 0f8c 02       		.uleb128 0x2
 2967 0f8d 91       		.byte	0x91
 2968 0f8e 74       		.sleb128 -12
 2969 0f8f 00       		.byte	0
 2970 0f90 20       		.uleb128 0x20
 2971 0f91 B40E0000 		.4byte	.LASF257
 2972 0f95 01       		.byte	0x1
 2973 0f96 7F       		.byte	0x7f
 2974 0f97 F0000000 		.4byte	.LFB268
 2975 0f9b 18000000 		.4byte	.LFE268-.LFB268
 2976 0f9f 01       		.uleb128 0x1
 2977 0fa0 9C       		.byte	0x9c
 2978 0fa1 B40F0000 		.4byte	0xfb4
 2979 0fa5 21       		.uleb128 0x21
 2980 0fa6 34090000 		.4byte	.LASF252
 2981 0faa 01       		.byte	0x1
 2982 0fab 7F       		.byte	0x7f
 2983 0fac DE0E0000 		.4byte	0xede
 2984 0fb0 02       		.uleb128 0x2
 2985 0fb1 91       		.byte	0x91
 2986 0fb2 74       		.sleb128 -12
 2987 0fb3 00       		.byte	0
 2988 0fb4 20       		.uleb128 0x20
 2989 0fb5 C50D0000 		.4byte	.LASF258
 2990 0fb9 01       		.byte	0x1
 2991 0fba 89       		.byte	0x89
 2992 0fbb 10010000 		.4byte	.LFB269
 2993 0fbf 18000000 		.4byte	.LFE269-.LFB269
 2994 0fc3 01       		.uleb128 0x1
 2995 0fc4 9C       		.byte	0x9c
ARM GAS  /tmp/ccPQ1Gqd.s 			page 54


 2996 0fc5 D80F0000 		.4byte	0xfd8
 2997 0fc9 21       		.uleb128 0x21
 2998 0fca 34090000 		.4byte	.LASF252
 2999 0fce 01       		.byte	0x1
 3000 0fcf 89       		.byte	0x89
 3001 0fd0 DE0E0000 		.4byte	0xede
 3002 0fd4 02       		.uleb128 0x2
 3003 0fd5 91       		.byte	0x91
 3004 0fd6 74       		.sleb128 -12
 3005 0fd7 00       		.byte	0
 3006 0fd8 20       		.uleb128 0x20
 3007 0fd9 87080000 		.4byte	.LASF259
 3008 0fdd 01       		.byte	0x1
 3009 0fde 94       		.byte	0x94
 3010 0fdf 30010000 		.4byte	.LFB270
 3011 0fe3 24000000 		.4byte	.LFE270-.LFB270
 3012 0fe7 01       		.uleb128 0x1
 3013 0fe8 9C       		.byte	0x9c
 3014 0fe9 0A100000 		.4byte	0x100a
 3015 0fed 21       		.uleb128 0x21
 3016 0fee 34090000 		.4byte	.LASF252
 3017 0ff2 01       		.byte	0x1
 3018 0ff3 94       		.byte	0x94
 3019 0ff4 DE0E0000 		.4byte	0xede
 3020 0ff8 02       		.uleb128 0x2
 3021 0ff9 91       		.byte	0x91
 3022 0ffa 74       		.sleb128 -12
 3023 0ffb 21       		.uleb128 0x21
 3024 0ffc 790C0000 		.4byte	.LASF253
 3025 1000 01       		.byte	0x1
 3026 1001 94       		.byte	0x94
 3027 1002 C8000000 		.4byte	0xc8
 3028 1006 02       		.uleb128 0x2
 3029 1007 91       		.byte	0x91
 3030 1008 73       		.sleb128 -13
 3031 1009 00       		.byte	0
 3032 100a 20       		.uleb128 0x20
 3033 100b EF020000 		.4byte	.LASF260
 3034 100f 01       		.byte	0x1
 3035 1010 9F       		.byte	0x9f
 3036 1011 60010000 		.4byte	.LFB271
 3037 1015 24000000 		.4byte	.LFE271-.LFB271
 3038 1019 01       		.uleb128 0x1
 3039 101a 9C       		.byte	0x9c
 3040 101b 3C100000 		.4byte	0x103c
 3041 101f 21       		.uleb128 0x21
 3042 1020 34090000 		.4byte	.LASF252
 3043 1024 01       		.byte	0x1
 3044 1025 9F       		.byte	0x9f
 3045 1026 DE0E0000 		.4byte	0xede
 3046 102a 02       		.uleb128 0x2
 3047 102b 91       		.byte	0x91
 3048 102c 74       		.sleb128 -12
 3049 102d 21       		.uleb128 0x21
 3050 102e 790C0000 		.4byte	.LASF253
 3051 1032 01       		.byte	0x1
 3052 1033 9F       		.byte	0x9f
ARM GAS  /tmp/ccPQ1Gqd.s 			page 55


 3053 1034 C8000000 		.4byte	0xc8
 3054 1038 02       		.uleb128 0x2
 3055 1039 91       		.byte	0x91
 3056 103a 73       		.sleb128 -13
 3057 103b 00       		.byte	0
 3058 103c 20       		.uleb128 0x20
 3059 103d 500C0000 		.4byte	.LASF261
 3060 1041 01       		.byte	0x1
 3061 1042 A9       		.byte	0xa9
 3062 1043 90010000 		.4byte	.LFB272
 3063 1047 18000000 		.4byte	.LFE272-.LFB272
 3064 104b 01       		.uleb128 0x1
 3065 104c 9C       		.byte	0x9c
 3066 104d 60100000 		.4byte	0x1060
 3067 1051 21       		.uleb128 0x21
 3068 1052 34090000 		.4byte	.LASF252
 3069 1056 01       		.byte	0x1
 3070 1057 A9       		.byte	0xa9
 3071 1058 DE0E0000 		.4byte	0xede
 3072 105c 02       		.uleb128 0x2
 3073 105d 91       		.byte	0x91
 3074 105e 74       		.sleb128 -12
 3075 105f 00       		.byte	0
 3076 1060 20       		.uleb128 0x20
 3077 1061 E9050000 		.4byte	.LASF262
 3078 1065 01       		.byte	0x1
 3079 1066 B3       		.byte	0xb3
 3080 1067 B0010000 		.4byte	.LFB273
 3081 106b 18000000 		.4byte	.LFE273-.LFB273
 3082 106f 01       		.uleb128 0x1
 3083 1070 9C       		.byte	0x9c
 3084 1071 84100000 		.4byte	0x1084
 3085 1075 21       		.uleb128 0x21
 3086 1076 34090000 		.4byte	.LASF252
 3087 107a 01       		.byte	0x1
 3088 107b B3       		.byte	0xb3
 3089 107c DE0E0000 		.4byte	0xede
 3090 1080 02       		.uleb128 0x2
 3091 1081 91       		.byte	0x91
 3092 1082 74       		.sleb128 -12
 3093 1083 00       		.byte	0
 3094 1084 22       		.uleb128 0x22
 3095 1085 81050000 		.4byte	.LASF264
 3096 1089 01       		.byte	0x1
 3097 108a C2       		.byte	0xc2
 3098 108b C20D0000 		.4byte	0xdc2
 3099 108f D0010000 		.4byte	.LFB274
 3100 1093 90000000 		.4byte	.LFE274-.LFB274
 3101 1097 01       		.uleb128 0x1
 3102 1098 9C       		.byte	0x9c
 3103 1099 AC100000 		.4byte	0x10ac
 3104 109d 21       		.uleb128 0x21
 3105 109e 39090000 		.4byte	.LASF263
 3106 10a2 01       		.byte	0x1
 3107 10a3 C2       		.byte	0xc2
 3108 10a4 AC100000 		.4byte	0x10ac
 3109 10a8 02       		.uleb128 0x2
ARM GAS  /tmp/ccPQ1Gqd.s 			page 56


 3110 10a9 91       		.byte	0x91
 3111 10aa 74       		.sleb128 -12
 3112 10ab 00       		.byte	0
 3113 10ac 06       		.uleb128 0x6
 3114 10ad 04       		.byte	0x4
 3115 10ae AF0E0000 		.4byte	0xeaf
 3116 10b2 22       		.uleb128 0x22
 3117 10b3 99070000 		.4byte	.LASF265
 3118 10b7 01       		.byte	0x1
 3119 10b8 E3       		.byte	0xe3
 3120 10b9 C20D0000 		.4byte	0xdc2
 3121 10bd 60020000 		.4byte	.LFB275
 3122 10c1 1C000000 		.4byte	.LFE275-.LFB275
 3123 10c5 01       		.uleb128 0x1
 3124 10c6 9C       		.byte	0x9c
 3125 10c7 DA100000 		.4byte	0x10da
 3126 10cb 21       		.uleb128 0x21
 3127 10cc 39090000 		.4byte	.LASF263
 3128 10d0 01       		.byte	0x1
 3129 10d1 E3       		.byte	0xe3
 3130 10d2 AC100000 		.4byte	0x10ac
 3131 10d6 02       		.uleb128 0x2
 3132 10d7 91       		.byte	0x91
 3133 10d8 74       		.sleb128 -12
 3134 10d9 00       		.byte	0
 3135 10da 22       		.uleb128 0x22
 3136 10db 0F030000 		.4byte	.LASF266
 3137 10df 01       		.byte	0x1
 3138 10e0 EE       		.byte	0xee
 3139 10e1 C20D0000 		.4byte	0xdc2
 3140 10e5 80020000 		.4byte	.LFB276
 3141 10e9 1C000000 		.4byte	.LFE276-.LFB276
 3142 10ed 01       		.uleb128 0x1
 3143 10ee 9C       		.byte	0x9c
 3144 10ef 02110000 		.4byte	0x1102
 3145 10f3 21       		.uleb128 0x21
 3146 10f4 39090000 		.4byte	.LASF263
 3147 10f8 01       		.byte	0x1
 3148 10f9 EE       		.byte	0xee
 3149 10fa AC100000 		.4byte	0x10ac
 3150 10fe 02       		.uleb128 0x2
 3151 10ff 91       		.byte	0x91
 3152 1100 74       		.sleb128 -12
 3153 1101 00       		.byte	0
 3154 1102 22       		.uleb128 0x22
 3155 1103 F10D0000 		.4byte	.LASF267
 3156 1107 01       		.byte	0x1
 3157 1108 F9       		.byte	0xf9
 3158 1109 C20D0000 		.4byte	0xdc2
 3159 110d A0020000 		.4byte	.LFB277
 3160 1111 1C000000 		.4byte	.LFE277-.LFB277
 3161 1115 01       		.uleb128 0x1
 3162 1116 9C       		.byte	0x9c
 3163 1117 2A110000 		.4byte	0x112a
 3164 111b 21       		.uleb128 0x21
 3165 111c 39090000 		.4byte	.LASF263
 3166 1120 01       		.byte	0x1
ARM GAS  /tmp/ccPQ1Gqd.s 			page 57


 3167 1121 F9       		.byte	0xf9
 3168 1122 AC100000 		.4byte	0x10ac
 3169 1126 02       		.uleb128 0x2
 3170 1127 91       		.byte	0x91
 3171 1128 74       		.sleb128 -12
 3172 1129 00       		.byte	0
 3173 112a 23       		.uleb128 0x23
 3174 112b 14040000 		.4byte	.LASF268
 3175 112f 01       		.byte	0x1
 3176 1130 0701     		.2byte	0x107
 3177 1132 C20D0000 		.4byte	0xdc2
 3178 1136 C0020000 		.4byte	.LFB278
 3179 113a 32000000 		.4byte	.LFE278-.LFB278
 3180 113e 01       		.uleb128 0x1
 3181 113f 9C       		.byte	0x9c
 3182 1140 81110000 		.4byte	0x1181
 3183 1144 24       		.uleb128 0x24
 3184 1145 39090000 		.4byte	.LASF263
 3185 1149 01       		.byte	0x1
 3186 114a 0701     		.2byte	0x107
 3187 114c AC100000 		.4byte	0x10ac
 3188 1150 02       		.uleb128 0x2
 3189 1151 91       		.byte	0x91
 3190 1152 74       		.sleb128 -12
 3191 1153 24       		.uleb128 0x24
 3192 1154 3C0D0000 		.4byte	.LASF269
 3193 1158 01       		.byte	0x1
 3194 1159 0801     		.2byte	0x108
 3195 115b C8000000 		.4byte	0xc8
 3196 115f 02       		.uleb128 0x2
 3197 1160 91       		.byte	0x91
 3198 1161 73       		.sleb128 -13
 3199 1162 24       		.uleb128 0x24
 3200 1163 380E0000 		.4byte	.LASF270
 3201 1167 01       		.byte	0x1
 3202 1168 0901     		.2byte	0x109
 3203 116a C8000000 		.4byte	0xc8
 3204 116e 02       		.uleb128 0x2
 3205 116f 91       		.byte	0x91
 3206 1170 72       		.sleb128 -14
 3207 1171 24       		.uleb128 0x24
 3208 1172 4A010000 		.4byte	.LASF271
 3209 1176 01       		.byte	0x1
 3210 1177 0A01     		.2byte	0x10a
 3211 1179 D3000000 		.4byte	0xd3
 3212 117d 02       		.uleb128 0x2
 3213 117e 91       		.byte	0x91
 3214 117f 70       		.sleb128 -16
 3215 1180 00       		.byte	0
 3216 1181 23       		.uleb128 0x23
 3217 1182 A00D0000 		.4byte	.LASF272
 3218 1186 01       		.byte	0x1
 3219 1187 1A01     		.2byte	0x11a
 3220 1189 C20D0000 		.4byte	0xdc2
 3221 118d 00030000 		.4byte	.LFB279
 3222 1191 28000000 		.4byte	.LFE279-.LFB279
 3223 1195 01       		.uleb128 0x1
ARM GAS  /tmp/ccPQ1Gqd.s 			page 58


 3224 1196 9C       		.byte	0x9c
 3225 1197 BA110000 		.4byte	0x11ba
 3226 119b 24       		.uleb128 0x24
 3227 119c 39090000 		.4byte	.LASF263
 3228 11a0 01       		.byte	0x1
 3229 11a1 1A01     		.2byte	0x11a
 3230 11a3 AC100000 		.4byte	0x10ac
 3231 11a7 02       		.uleb128 0x2
 3232 11a8 91       		.byte	0x91
 3233 11a9 74       		.sleb128 -12
 3234 11aa 24       		.uleb128 0x24
 3235 11ab 3C0D0000 		.4byte	.LASF269
 3236 11af 01       		.byte	0x1
 3237 11b0 1A01     		.2byte	0x11a
 3238 11b2 C8000000 		.4byte	0xc8
 3239 11b6 02       		.uleb128 0x2
 3240 11b7 91       		.byte	0x91
 3241 11b8 73       		.sleb128 -13
 3242 11b9 00       		.byte	0
 3243 11ba 23       		.uleb128 0x23
 3244 11bb D7090000 		.4byte	.LASF273
 3245 11bf 01       		.byte	0x1
 3246 11c0 2601     		.2byte	0x126
 3247 11c2 C20D0000 		.4byte	0xdc2
 3248 11c6 30030000 		.4byte	.LFB280
 3249 11ca 28000000 		.4byte	.LFE280-.LFB280
 3250 11ce 01       		.uleb128 0x1
 3251 11cf 9C       		.byte	0x9c
 3252 11d0 F3110000 		.4byte	0x11f3
 3253 11d4 24       		.uleb128 0x24
 3254 11d5 39090000 		.4byte	.LASF263
 3255 11d9 01       		.byte	0x1
 3256 11da 2601     		.2byte	0x126
 3257 11dc AC100000 		.4byte	0x10ac
 3258 11e0 02       		.uleb128 0x2
 3259 11e1 91       		.byte	0x91
 3260 11e2 74       		.sleb128 -12
 3261 11e3 24       		.uleb128 0x24
 3262 11e4 3C0D0000 		.4byte	.LASF269
 3263 11e8 01       		.byte	0x1
 3264 11e9 2601     		.2byte	0x126
 3265 11eb C8000000 		.4byte	0xc8
 3266 11ef 02       		.uleb128 0x2
 3267 11f0 91       		.byte	0x91
 3268 11f1 73       		.sleb128 -13
 3269 11f2 00       		.byte	0
 3270 11f3 23       		.uleb128 0x23
 3271 11f4 0B050000 		.4byte	.LASF274
 3272 11f8 01       		.byte	0x1
 3273 11f9 3201     		.2byte	0x132
 3274 11fb C20D0000 		.4byte	0xdc2
 3275 11ff 60030000 		.4byte	.LFB281
 3276 1203 28000000 		.4byte	.LFE281-.LFB281
 3277 1207 01       		.uleb128 0x1
 3278 1208 9C       		.byte	0x9c
 3279 1209 2C120000 		.4byte	0x122c
 3280 120d 24       		.uleb128 0x24
ARM GAS  /tmp/ccPQ1Gqd.s 			page 59


 3281 120e 39090000 		.4byte	.LASF263
 3282 1212 01       		.byte	0x1
 3283 1213 3201     		.2byte	0x132
 3284 1215 AC100000 		.4byte	0x10ac
 3285 1219 02       		.uleb128 0x2
 3286 121a 91       		.byte	0x91
 3287 121b 74       		.sleb128 -12
 3288 121c 24       		.uleb128 0x24
 3289 121d 3C0D0000 		.4byte	.LASF269
 3290 1221 01       		.byte	0x1
 3291 1222 3201     		.2byte	0x132
 3292 1224 C8000000 		.4byte	0xc8
 3293 1228 02       		.uleb128 0x2
 3294 1229 91       		.byte	0x91
 3295 122a 73       		.sleb128 -13
 3296 122b 00       		.byte	0
 3297 122c 23       		.uleb128 0x23
 3298 122d 05070000 		.4byte	.LASF275
 3299 1231 01       		.byte	0x1
 3300 1232 3E01     		.2byte	0x13e
 3301 1234 C20D0000 		.4byte	0xdc2
 3302 1238 90030000 		.4byte	.LFB282
 3303 123c 28000000 		.4byte	.LFE282-.LFB282
 3304 1240 01       		.uleb128 0x1
 3305 1241 9C       		.byte	0x9c
 3306 1242 65120000 		.4byte	0x1265
 3307 1246 24       		.uleb128 0x24
 3308 1247 39090000 		.4byte	.LASF263
 3309 124b 01       		.byte	0x1
 3310 124c 3E01     		.2byte	0x13e
 3311 124e AC100000 		.4byte	0x10ac
 3312 1252 02       		.uleb128 0x2
 3313 1253 91       		.byte	0x91
 3314 1254 74       		.sleb128 -12
 3315 1255 24       		.uleb128 0x24
 3316 1256 3C0D0000 		.4byte	.LASF269
 3317 125a 01       		.byte	0x1
 3318 125b 3E01     		.2byte	0x13e
 3319 125d C8000000 		.4byte	0xc8
 3320 1261 02       		.uleb128 0x2
 3321 1262 91       		.byte	0x91
 3322 1263 73       		.sleb128 -13
 3323 1264 00       		.byte	0
 3324 1265 25       		.uleb128 0x25
 3325 1266 BF080000 		.4byte	.LASF276
 3326 126a 01       		.byte	0x1
 3327 126b 4A01     		.2byte	0x14a
 3328 126d C8000000 		.4byte	0xc8
 3329 1271 C0030000 		.4byte	.LFB283
 3330 1275 56000000 		.4byte	.LFE283-.LFB283
 3331 1279 01       		.uleb128 0x1
 3332 127a 9C       		.byte	0x9c
 3333 127b AD120000 		.4byte	0x12ad
 3334 127f 24       		.uleb128 0x24
 3335 1280 39090000 		.4byte	.LASF263
 3336 1284 01       		.byte	0x1
 3337 1285 4A01     		.2byte	0x14a
ARM GAS  /tmp/ccPQ1Gqd.s 			page 60


 3338 1287 AC100000 		.4byte	0x10ac
 3339 128b 02       		.uleb128 0x2
 3340 128c 91       		.byte	0x91
 3341 128d 74       		.sleb128 -12
 3342 128e 24       		.uleb128 0x24
 3343 128f 3C0D0000 		.4byte	.LASF269
 3344 1293 01       		.byte	0x1
 3345 1294 4A01     		.2byte	0x14a
 3346 1296 C8000000 		.4byte	0xc8
 3347 129a 02       		.uleb128 0x2
 3348 129b 91       		.byte	0x91
 3349 129c 73       		.sleb128 -13
 3350 129d 26       		.uleb128 0x26
 3351 129e 34090000 		.4byte	.LASF252
 3352 12a2 01       		.byte	0x1
 3353 12a3 4C01     		.2byte	0x14c
 3354 12a5 DE0E0000 		.4byte	0xede
 3355 12a9 02       		.uleb128 0x2
 3356 12aa 91       		.byte	0x91
 3357 12ab 7C       		.sleb128 -4
 3358 12ac 00       		.byte	0
 3359 12ad 23       		.uleb128 0x23
 3360 12ae 100D0000 		.4byte	.LASF277
 3361 12b2 01       		.byte	0x1
 3362 12b3 5E01     		.2byte	0x15e
 3363 12b5 C20D0000 		.4byte	0xdc2
 3364 12b9 20040000 		.4byte	.LFB284
 3365 12bd 28000000 		.4byte	.LFE284-.LFB284
 3366 12c1 01       		.uleb128 0x1
 3367 12c2 9C       		.byte	0x9c
 3368 12c3 E6120000 		.4byte	0x12e6
 3369 12c7 24       		.uleb128 0x24
 3370 12c8 39090000 		.4byte	.LASF263
 3371 12cc 01       		.byte	0x1
 3372 12cd 5E01     		.2byte	0x15e
 3373 12cf AC100000 		.4byte	0x10ac
 3374 12d3 02       		.uleb128 0x2
 3375 12d4 91       		.byte	0x91
 3376 12d5 74       		.sleb128 -12
 3377 12d6 24       		.uleb128 0x24
 3378 12d7 550A0000 		.4byte	.LASF278
 3379 12db 01       		.byte	0x1
 3380 12dc 5E01     		.2byte	0x15e
 3381 12de C8000000 		.4byte	0xc8
 3382 12e2 02       		.uleb128 0x2
 3383 12e3 91       		.byte	0x91
 3384 12e4 73       		.sleb128 -13
 3385 12e5 00       		.byte	0
 3386 12e6 23       		.uleb128 0x23
 3387 12e7 80030000 		.4byte	.LASF279
 3388 12eb 01       		.byte	0x1
 3389 12ec 6C01     		.2byte	0x16c
 3390 12ee C20D0000 		.4byte	0xdc2
 3391 12f2 50040000 		.4byte	.LFB285
 3392 12f6 34000000 		.4byte	.LFE285-.LFB285
 3393 12fa 01       		.uleb128 0x1
 3394 12fb 9C       		.byte	0x9c
ARM GAS  /tmp/ccPQ1Gqd.s 			page 61


 3395 12fc 3D130000 		.4byte	0x133d
 3396 1300 24       		.uleb128 0x24
 3397 1301 39090000 		.4byte	.LASF263
 3398 1305 01       		.byte	0x1
 3399 1306 6C01     		.2byte	0x16c
 3400 1308 AC100000 		.4byte	0x10ac
 3401 130c 02       		.uleb128 0x2
 3402 130d 91       		.byte	0x91
 3403 130e 74       		.sleb128 -12
 3404 130f 24       		.uleb128 0x24
 3405 1310 3C0D0000 		.4byte	.LASF269
 3406 1314 01       		.byte	0x1
 3407 1315 6D01     		.2byte	0x16d
 3408 1317 C8000000 		.4byte	0xc8
 3409 131b 02       		.uleb128 0x2
 3410 131c 91       		.byte	0x91
 3411 131d 73       		.sleb128 -13
 3412 131e 24       		.uleb128 0x24
 3413 131f 0B0D0000 		.4byte	.LASF280
 3414 1323 01       		.byte	0x1
 3415 1324 6E01     		.2byte	0x16e
 3416 1326 DC020000 		.4byte	0x2dc
 3417 132a 02       		.uleb128 0x2
 3418 132b 91       		.byte	0x91
 3419 132c 6C       		.sleb128 -20
 3420 132d 24       		.uleb128 0x24
 3421 132e E4080000 		.4byte	.LASF281
 3422 1332 01       		.byte	0x1
 3423 1333 6F01     		.2byte	0x16f
 3424 1335 D3000000 		.4byte	0xd3
 3425 1339 02       		.uleb128 0x2
 3426 133a 91       		.byte	0x91
 3427 133b 70       		.sleb128 -16
 3428 133c 00       		.byte	0
 3429 133d 23       		.uleb128 0x23
 3430 133e 700A0000 		.4byte	.LASF282
 3431 1342 01       		.byte	0x1
 3432 1343 7D01     		.2byte	0x17d
 3433 1345 C20D0000 		.4byte	0xdc2
 3434 1349 90040000 		.4byte	.LFB286
 3435 134d 34000000 		.4byte	.LFE286-.LFB286
 3436 1351 01       		.uleb128 0x1
 3437 1352 9C       		.byte	0x9c
 3438 1353 94130000 		.4byte	0x1394
 3439 1357 24       		.uleb128 0x24
 3440 1358 39090000 		.4byte	.LASF263
 3441 135c 01       		.byte	0x1
 3442 135d 7D01     		.2byte	0x17d
 3443 135f AC100000 		.4byte	0x10ac
 3444 1363 02       		.uleb128 0x2
 3445 1364 91       		.byte	0x91
 3446 1365 74       		.sleb128 -12
 3447 1366 24       		.uleb128 0x24
 3448 1367 3C0D0000 		.4byte	.LASF269
 3449 136b 01       		.byte	0x1
 3450 136c 7E01     		.2byte	0x17e
 3451 136e C8000000 		.4byte	0xc8
ARM GAS  /tmp/ccPQ1Gqd.s 			page 62


 3452 1372 02       		.uleb128 0x2
 3453 1373 91       		.byte	0x91
 3454 1374 73       		.sleb128 -13
 3455 1375 24       		.uleb128 0x24
 3456 1376 0B0D0000 		.4byte	.LASF280
 3457 137a 01       		.byte	0x1
 3458 137b 7F01     		.2byte	0x17f
 3459 137d DC020000 		.4byte	0x2dc
 3460 1381 02       		.uleb128 0x2
 3461 1382 91       		.byte	0x91
 3462 1383 6C       		.sleb128 -20
 3463 1384 24       		.uleb128 0x24
 3464 1385 E4080000 		.4byte	.LASF281
 3465 1389 01       		.byte	0x1
 3466 138a 8001     		.2byte	0x180
 3467 138c D3000000 		.4byte	0xd3
 3468 1390 02       		.uleb128 0x2
 3469 1391 91       		.byte	0x91
 3470 1392 70       		.sleb128 -16
 3471 1393 00       		.byte	0
 3472 1394 23       		.uleb128 0x23
 3473 1395 F5040000 		.4byte	.LASF283
 3474 1399 01       		.byte	0x1
 3475 139a 8C01     		.2byte	0x18c
 3476 139c E9000000 		.4byte	0xe9
 3477 13a0 D0040000 		.4byte	.LFB287
 3478 13a4 28000000 		.4byte	.LFE287-.LFB287
 3479 13a8 01       		.uleb128 0x1
 3480 13a9 9C       		.byte	0x9c
 3481 13aa CD130000 		.4byte	0x13cd
 3482 13ae 24       		.uleb128 0x24
 3483 13af 39090000 		.4byte	.LASF263
 3484 13b3 01       		.byte	0x1
 3485 13b4 8C01     		.2byte	0x18c
 3486 13b6 AC100000 		.4byte	0x10ac
 3487 13ba 02       		.uleb128 0x2
 3488 13bb 91       		.byte	0x91
 3489 13bc 74       		.sleb128 -12
 3490 13bd 24       		.uleb128 0x24
 3491 13be 3C0D0000 		.4byte	.LASF269
 3492 13c2 01       		.byte	0x1
 3493 13c3 8C01     		.2byte	0x18c
 3494 13c5 C8000000 		.4byte	0xc8
 3495 13c9 02       		.uleb128 0x2
 3496 13ca 91       		.byte	0x91
 3497 13cb 73       		.sleb128 -13
 3498 13cc 00       		.byte	0
 3499 13cd 27       		.uleb128 0x27
 3500 13ce 640F0000 		.4byte	.LASF284
 3501 13d2 01       		.byte	0x1
 3502 13d3 9601     		.2byte	0x196
 3503 13d5 00050000 		.4byte	.LFB288
 3504 13d9 12000000 		.4byte	.LFE288-.LFB288
 3505 13dd 01       		.uleb128 0x1
 3506 13de 9C       		.byte	0x9c
 3507 13df F3130000 		.4byte	0x13f3
 3508 13e3 24       		.uleb128 0x24
ARM GAS  /tmp/ccPQ1Gqd.s 			page 63


 3509 13e4 440D0000 		.4byte	.LASF285
 3510 13e8 01       		.byte	0x1
 3511 13e9 9601     		.2byte	0x196
 3512 13eb E9000000 		.4byte	0xe9
 3513 13ef 02       		.uleb128 0x2
 3514 13f0 91       		.byte	0x91
 3515 13f1 74       		.sleb128 -12
 3516 13f2 00       		.byte	0
 3517 13f3 28       		.uleb128 0x28
 3518 13f4 9A050000 		.4byte	.LASF286
 3519 13f8 12       		.byte	0x12
 3520 13f9 FA06     		.2byte	0x6fa
 3521 13fb FF130000 		.4byte	0x13ff
 3522 13ff 08       		.uleb128 0x8
 3523 1400 DE000000 		.4byte	0xde
 3524 1404 29       		.uleb128 0x29
 3525 1405 636800   		.ascii	"ch\000"
 3526 1408 0B       		.byte	0xb
 3527 1409 0902     		.2byte	0x209
 3528 140b BE080000 		.4byte	0x8be
 3529 140f 2A       		.uleb128 0x2a
 3530 1410 34090000 		.4byte	.LASF252
 3531 1414 01       		.byte	0x1
 3532 1415 39       		.byte	0x39
 3533 1416 7F050000 		.4byte	0x57f
 3534 141a 05       		.uleb128 0x5
 3535 141b 03       		.byte	0x3
 3536 141c 00000000 		.4byte	hpcd
 3537 1420 00       		.byte	0
 3538              		.section	.debug_abbrev,"",%progbits
 3539              	.Ldebug_abbrev0:
 3540 0000 01       		.uleb128 0x1
 3541 0001 11       		.uleb128 0x11
 3542 0002 01       		.byte	0x1
 3543 0003 25       		.uleb128 0x25
 3544 0004 0E       		.uleb128 0xe
 3545 0005 13       		.uleb128 0x13
 3546 0006 0B       		.uleb128 0xb
 3547 0007 03       		.uleb128 0x3
 3548 0008 0E       		.uleb128 0xe
 3549 0009 1B       		.uleb128 0x1b
 3550 000a 0E       		.uleb128 0xe
 3551 000b 11       		.uleb128 0x11
 3552 000c 01       		.uleb128 0x1
 3553 000d 12       		.uleb128 0x12
 3554 000e 06       		.uleb128 0x6
 3555 000f 10       		.uleb128 0x10
 3556 0010 17       		.uleb128 0x17
 3557 0011 00       		.byte	0
 3558 0012 00       		.byte	0
 3559 0013 02       		.uleb128 0x2
 3560 0014 16       		.uleb128 0x16
 3561 0015 00       		.byte	0
 3562 0016 03       		.uleb128 0x3
 3563 0017 0E       		.uleb128 0xe
 3564 0018 3A       		.uleb128 0x3a
 3565 0019 0B       		.uleb128 0xb
ARM GAS  /tmp/ccPQ1Gqd.s 			page 64


 3566 001a 3B       		.uleb128 0x3b
 3567 001b 0B       		.uleb128 0xb
 3568 001c 49       		.uleb128 0x49
 3569 001d 13       		.uleb128 0x13
 3570 001e 00       		.byte	0
 3571 001f 00       		.byte	0
 3572 0020 03       		.uleb128 0x3
 3573 0021 24       		.uleb128 0x24
 3574 0022 00       		.byte	0
 3575 0023 0B       		.uleb128 0xb
 3576 0024 0B       		.uleb128 0xb
 3577 0025 3E       		.uleb128 0x3e
 3578 0026 0B       		.uleb128 0xb
 3579 0027 03       		.uleb128 0x3
 3580 0028 0E       		.uleb128 0xe
 3581 0029 00       		.byte	0
 3582 002a 00       		.byte	0
 3583 002b 04       		.uleb128 0x4
 3584 002c 24       		.uleb128 0x24
 3585 002d 00       		.byte	0
 3586 002e 0B       		.uleb128 0xb
 3587 002f 0B       		.uleb128 0xb
 3588 0030 3E       		.uleb128 0x3e
 3589 0031 0B       		.uleb128 0xb
 3590 0032 03       		.uleb128 0x3
 3591 0033 08       		.uleb128 0x8
 3592 0034 00       		.byte	0
 3593 0035 00       		.byte	0
 3594 0036 05       		.uleb128 0x5
 3595 0037 0F       		.uleb128 0xf
 3596 0038 00       		.byte	0
 3597 0039 0B       		.uleb128 0xb
 3598 003a 0B       		.uleb128 0xb
 3599 003b 00       		.byte	0
 3600 003c 00       		.byte	0
 3601 003d 06       		.uleb128 0x6
 3602 003e 0F       		.uleb128 0xf
 3603 003f 00       		.byte	0
 3604 0040 0B       		.uleb128 0xb
 3605 0041 0B       		.uleb128 0xb
 3606 0042 49       		.uleb128 0x49
 3607 0043 13       		.uleb128 0x13
 3608 0044 00       		.byte	0
 3609 0045 00       		.byte	0
 3610 0046 07       		.uleb128 0x7
 3611 0047 26       		.uleb128 0x26
 3612 0048 00       		.byte	0
 3613 0049 49       		.uleb128 0x49
 3614 004a 13       		.uleb128 0x13
 3615 004b 00       		.byte	0
 3616 004c 00       		.byte	0
 3617 004d 08       		.uleb128 0x8
 3618 004e 35       		.uleb128 0x35
 3619 004f 00       		.byte	0
 3620 0050 49       		.uleb128 0x49
 3621 0051 13       		.uleb128 0x13
 3622 0052 00       		.byte	0
ARM GAS  /tmp/ccPQ1Gqd.s 			page 65


 3623 0053 00       		.byte	0
 3624 0054 09       		.uleb128 0x9
 3625 0055 01       		.uleb128 0x1
 3626 0056 01       		.byte	0x1
 3627 0057 49       		.uleb128 0x49
 3628 0058 13       		.uleb128 0x13
 3629 0059 01       		.uleb128 0x1
 3630 005a 13       		.uleb128 0x13
 3631 005b 00       		.byte	0
 3632 005c 00       		.byte	0
 3633 005d 0A       		.uleb128 0xa
 3634 005e 21       		.uleb128 0x21
 3635 005f 00       		.byte	0
 3636 0060 49       		.uleb128 0x49
 3637 0061 13       		.uleb128 0x13
 3638 0062 2F       		.uleb128 0x2f
 3639 0063 0B       		.uleb128 0xb
 3640 0064 00       		.byte	0
 3641 0065 00       		.byte	0
 3642 0066 0B       		.uleb128 0xb
 3643 0067 13       		.uleb128 0x13
 3644 0068 01       		.byte	0x1
 3645 0069 0B       		.uleb128 0xb
 3646 006a 05       		.uleb128 0x5
 3647 006b 3A       		.uleb128 0x3a
 3648 006c 0B       		.uleb128 0xb
 3649 006d 3B       		.uleb128 0x3b
 3650 006e 05       		.uleb128 0x5
 3651 006f 01       		.uleb128 0x1
 3652 0070 13       		.uleb128 0x13
 3653 0071 00       		.byte	0
 3654 0072 00       		.byte	0
 3655 0073 0C       		.uleb128 0xc
 3656 0074 0D       		.uleb128 0xd
 3657 0075 00       		.byte	0
 3658 0076 03       		.uleb128 0x3
 3659 0077 0E       		.uleb128 0xe
 3660 0078 3A       		.uleb128 0x3a
 3661 0079 0B       		.uleb128 0xb
 3662 007a 3B       		.uleb128 0x3b
 3663 007b 05       		.uleb128 0x5
 3664 007c 49       		.uleb128 0x49
 3665 007d 13       		.uleb128 0x13
 3666 007e 38       		.uleb128 0x38
 3667 007f 0B       		.uleb128 0xb
 3668 0080 00       		.byte	0
 3669 0081 00       		.byte	0
 3670 0082 0D       		.uleb128 0xd
 3671 0083 0D       		.uleb128 0xd
 3672 0084 00       		.byte	0
 3673 0085 03       		.uleb128 0x3
 3674 0086 08       		.uleb128 0x8
 3675 0087 3A       		.uleb128 0x3a
 3676 0088 0B       		.uleb128 0xb
 3677 0089 3B       		.uleb128 0x3b
 3678 008a 05       		.uleb128 0x5
 3679 008b 49       		.uleb128 0x49
ARM GAS  /tmp/ccPQ1Gqd.s 			page 66


 3680 008c 13       		.uleb128 0x13
 3681 008d 38       		.uleb128 0x38
 3682 008e 0B       		.uleb128 0xb
 3683 008f 00       		.byte	0
 3684 0090 00       		.byte	0
 3685 0091 0E       		.uleb128 0xe
 3686 0092 0D       		.uleb128 0xd
 3687 0093 00       		.byte	0
 3688 0094 03       		.uleb128 0x3
 3689 0095 0E       		.uleb128 0xe
 3690 0096 3A       		.uleb128 0x3a
 3691 0097 0B       		.uleb128 0xb
 3692 0098 3B       		.uleb128 0x3b
 3693 0099 05       		.uleb128 0x5
 3694 009a 49       		.uleb128 0x49
 3695 009b 13       		.uleb128 0x13
 3696 009c 38       		.uleb128 0x38
 3697 009d 05       		.uleb128 0x5
 3698 009e 00       		.byte	0
 3699 009f 00       		.byte	0
 3700 00a0 0F       		.uleb128 0xf
 3701 00a1 16       		.uleb128 0x16
 3702 00a2 00       		.byte	0
 3703 00a3 03       		.uleb128 0x3
 3704 00a4 0E       		.uleb128 0xe
 3705 00a5 3A       		.uleb128 0x3a
 3706 00a6 0B       		.uleb128 0xb
 3707 00a7 3B       		.uleb128 0x3b
 3708 00a8 05       		.uleb128 0x5
 3709 00a9 49       		.uleb128 0x49
 3710 00aa 13       		.uleb128 0x13
 3711 00ab 00       		.byte	0
 3712 00ac 00       		.byte	0
 3713 00ad 10       		.uleb128 0x10
 3714 00ae 04       		.uleb128 0x4
 3715 00af 01       		.byte	0x1
 3716 00b0 0B       		.uleb128 0xb
 3717 00b1 0B       		.uleb128 0xb
 3718 00b2 3A       		.uleb128 0x3a
 3719 00b3 0B       		.uleb128 0xb
 3720 00b4 3B       		.uleb128 0x3b
 3721 00b5 0B       		.uleb128 0xb
 3722 00b6 01       		.uleb128 0x1
 3723 00b7 13       		.uleb128 0x13
 3724 00b8 00       		.byte	0
 3725 00b9 00       		.byte	0
 3726 00ba 11       		.uleb128 0x11
 3727 00bb 28       		.uleb128 0x28
 3728 00bc 00       		.byte	0
 3729 00bd 03       		.uleb128 0x3
 3730 00be 0E       		.uleb128 0xe
 3731 00bf 1C       		.uleb128 0x1c
 3732 00c0 0D       		.uleb128 0xd
 3733 00c1 00       		.byte	0
 3734 00c2 00       		.byte	0
 3735 00c3 12       		.uleb128 0x12
 3736 00c4 13       		.uleb128 0x13
ARM GAS  /tmp/ccPQ1Gqd.s 			page 67


 3737 00c5 01       		.byte	0x1
 3738 00c6 0B       		.uleb128 0xb
 3739 00c7 0B       		.uleb128 0xb
 3740 00c8 3A       		.uleb128 0x3a
 3741 00c9 0B       		.uleb128 0xb
 3742 00ca 3B       		.uleb128 0x3b
 3743 00cb 0B       		.uleb128 0xb
 3744 00cc 01       		.uleb128 0x1
 3745 00cd 13       		.uleb128 0x13
 3746 00ce 00       		.byte	0
 3747 00cf 00       		.byte	0
 3748 00d0 13       		.uleb128 0x13
 3749 00d1 0D       		.uleb128 0xd
 3750 00d2 00       		.byte	0
 3751 00d3 03       		.uleb128 0x3
 3752 00d4 0E       		.uleb128 0xe
 3753 00d5 3A       		.uleb128 0x3a
 3754 00d6 0B       		.uleb128 0xb
 3755 00d7 3B       		.uleb128 0x3b
 3756 00d8 0B       		.uleb128 0xb
 3757 00d9 49       		.uleb128 0x49
 3758 00da 13       		.uleb128 0x13
 3759 00db 38       		.uleb128 0x38
 3760 00dc 0B       		.uleb128 0xb
 3761 00dd 00       		.byte	0
 3762 00de 00       		.byte	0
 3763 00df 14       		.uleb128 0x14
 3764 00e0 0D       		.uleb128 0xd
 3765 00e1 00       		.byte	0
 3766 00e2 03       		.uleb128 0x3
 3767 00e3 08       		.uleb128 0x8
 3768 00e4 3A       		.uleb128 0x3a
 3769 00e5 0B       		.uleb128 0xb
 3770 00e6 3B       		.uleb128 0x3b
 3771 00e7 0B       		.uleb128 0xb
 3772 00e8 49       		.uleb128 0x49
 3773 00e9 13       		.uleb128 0x13
 3774 00ea 38       		.uleb128 0x38
 3775 00eb 0B       		.uleb128 0xb
 3776 00ec 00       		.byte	0
 3777 00ed 00       		.byte	0
 3778 00ee 15       		.uleb128 0x15
 3779 00ef 13       		.uleb128 0x13
 3780 00f0 01       		.byte	0x1
 3781 00f1 0B       		.uleb128 0xb
 3782 00f2 05       		.uleb128 0x5
 3783 00f3 3A       		.uleb128 0x3a
 3784 00f4 0B       		.uleb128 0xb
 3785 00f5 3B       		.uleb128 0x3b
 3786 00f6 0B       		.uleb128 0xb
 3787 00f7 01       		.uleb128 0x1
 3788 00f8 13       		.uleb128 0x13
 3789 00f9 00       		.byte	0
 3790 00fa 00       		.byte	0
 3791 00fb 16       		.uleb128 0x16
 3792 00fc 0D       		.uleb128 0xd
 3793 00fd 00       		.byte	0
ARM GAS  /tmp/ccPQ1Gqd.s 			page 68


 3794 00fe 03       		.uleb128 0x3
 3795 00ff 0E       		.uleb128 0xe
 3796 0100 3A       		.uleb128 0x3a
 3797 0101 0B       		.uleb128 0xb
 3798 0102 3B       		.uleb128 0x3b
 3799 0103 0B       		.uleb128 0xb
 3800 0104 49       		.uleb128 0x49
 3801 0105 13       		.uleb128 0x13
 3802 0106 38       		.uleb128 0x38
 3803 0107 05       		.uleb128 0x5
 3804 0108 00       		.byte	0
 3805 0109 00       		.byte	0
 3806 010a 17       		.uleb128 0x17
 3807 010b 13       		.uleb128 0x13
 3808 010c 01       		.byte	0x1
 3809 010d 03       		.uleb128 0x3
 3810 010e 0E       		.uleb128 0xe
 3811 010f 0B       		.uleb128 0xb
 3812 0110 0B       		.uleb128 0xb
 3813 0111 3A       		.uleb128 0x3a
 3814 0112 0B       		.uleb128 0xb
 3815 0113 3B       		.uleb128 0x3b
 3816 0114 0B       		.uleb128 0xb
 3817 0115 01       		.uleb128 0x1
 3818 0116 13       		.uleb128 0x13
 3819 0117 00       		.byte	0
 3820 0118 00       		.byte	0
 3821 0119 18       		.uleb128 0x18
 3822 011a 13       		.uleb128 0x13
 3823 011b 01       		.byte	0x1
 3824 011c 03       		.uleb128 0x3
 3825 011d 0E       		.uleb128 0xe
 3826 011e 0B       		.uleb128 0xb
 3827 011f 0B       		.uleb128 0xb
 3828 0120 3A       		.uleb128 0x3a
 3829 0121 0B       		.uleb128 0xb
 3830 0122 3B       		.uleb128 0x3b
 3831 0123 05       		.uleb128 0x5
 3832 0124 01       		.uleb128 0x1
 3833 0125 13       		.uleb128 0x13
 3834 0126 00       		.byte	0
 3835 0127 00       		.byte	0
 3836 0128 19       		.uleb128 0x19
 3837 0129 15       		.uleb128 0x15
 3838 012a 01       		.byte	0x1
 3839 012b 27       		.uleb128 0x27
 3840 012c 19       		.uleb128 0x19
 3841 012d 01       		.uleb128 0x1
 3842 012e 13       		.uleb128 0x13
 3843 012f 00       		.byte	0
 3844 0130 00       		.byte	0
 3845 0131 1A       		.uleb128 0x1a
 3846 0132 05       		.uleb128 0x5
 3847 0133 00       		.byte	0
 3848 0134 49       		.uleb128 0x49
 3849 0135 13       		.uleb128 0x13
 3850 0136 00       		.byte	0
ARM GAS  /tmp/ccPQ1Gqd.s 			page 69


 3851 0137 00       		.byte	0
 3852 0138 1B       		.uleb128 0x1b
 3853 0139 13       		.uleb128 0x13
 3854 013a 01       		.byte	0x1
 3855 013b 03       		.uleb128 0x3
 3856 013c 0E       		.uleb128 0xe
 3857 013d 0B       		.uleb128 0xb
 3858 013e 05       		.uleb128 0x5
 3859 013f 3A       		.uleb128 0x3a
 3860 0140 0B       		.uleb128 0xb
 3861 0141 3B       		.uleb128 0x3b
 3862 0142 05       		.uleb128 0x5
 3863 0143 01       		.uleb128 0x1
 3864 0144 13       		.uleb128 0x13
 3865 0145 00       		.byte	0
 3866 0146 00       		.byte	0
 3867 0147 1C       		.uleb128 0x1c
 3868 0148 17       		.uleb128 0x17
 3869 0149 01       		.byte	0x1
 3870 014a 0B       		.uleb128 0xb
 3871 014b 0B       		.uleb128 0xb
 3872 014c 3A       		.uleb128 0x3a
 3873 014d 0B       		.uleb128 0xb
 3874 014e 3B       		.uleb128 0x3b
 3875 014f 0B       		.uleb128 0xb
 3876 0150 01       		.uleb128 0x1
 3877 0151 13       		.uleb128 0x13
 3878 0152 00       		.byte	0
 3879 0153 00       		.byte	0
 3880 0154 1D       		.uleb128 0x1d
 3881 0155 0D       		.uleb128 0xd
 3882 0156 00       		.byte	0
 3883 0157 03       		.uleb128 0x3
 3884 0158 0E       		.uleb128 0xe
 3885 0159 3A       		.uleb128 0x3a
 3886 015a 0B       		.uleb128 0xb
 3887 015b 3B       		.uleb128 0x3b
 3888 015c 05       		.uleb128 0x5
 3889 015d 49       		.uleb128 0x49
 3890 015e 13       		.uleb128 0x13
 3891 015f 00       		.byte	0
 3892 0160 00       		.byte	0
 3893 0161 1E       		.uleb128 0x1e
 3894 0162 15       		.uleb128 0x15
 3895 0163 01       		.byte	0x1
 3896 0164 27       		.uleb128 0x27
 3897 0165 19       		.uleb128 0x19
 3898 0166 49       		.uleb128 0x49
 3899 0167 13       		.uleb128 0x13
 3900 0168 01       		.uleb128 0x1
 3901 0169 13       		.uleb128 0x13
 3902 016a 00       		.byte	0
 3903 016b 00       		.byte	0
 3904 016c 1F       		.uleb128 0x1f
 3905 016d 13       		.uleb128 0x13
 3906 016e 01       		.byte	0x1
 3907 016f 03       		.uleb128 0x3
ARM GAS  /tmp/ccPQ1Gqd.s 			page 70


 3908 0170 0E       		.uleb128 0xe
 3909 0171 0B       		.uleb128 0xb
 3910 0172 05       		.uleb128 0x5
 3911 0173 3A       		.uleb128 0x3a
 3912 0174 0B       		.uleb128 0xb
 3913 0175 3B       		.uleb128 0x3b
 3914 0176 0B       		.uleb128 0xb
 3915 0177 01       		.uleb128 0x1
 3916 0178 13       		.uleb128 0x13
 3917 0179 00       		.byte	0
 3918 017a 00       		.byte	0
 3919 017b 20       		.uleb128 0x20
 3920 017c 2E       		.uleb128 0x2e
 3921 017d 01       		.byte	0x1
 3922 017e 3F       		.uleb128 0x3f
 3923 017f 19       		.uleb128 0x19
 3924 0180 03       		.uleb128 0x3
 3925 0181 0E       		.uleb128 0xe
 3926 0182 3A       		.uleb128 0x3a
 3927 0183 0B       		.uleb128 0xb
 3928 0184 3B       		.uleb128 0x3b
 3929 0185 0B       		.uleb128 0xb
 3930 0186 27       		.uleb128 0x27
 3931 0187 19       		.uleb128 0x19
 3932 0188 11       		.uleb128 0x11
 3933 0189 01       		.uleb128 0x1
 3934 018a 12       		.uleb128 0x12
 3935 018b 06       		.uleb128 0x6
 3936 018c 40       		.uleb128 0x40
 3937 018d 18       		.uleb128 0x18
 3938 018e 9642     		.uleb128 0x2116
 3939 0190 19       		.uleb128 0x19
 3940 0191 01       		.uleb128 0x1
 3941 0192 13       		.uleb128 0x13
 3942 0193 00       		.byte	0
 3943 0194 00       		.byte	0
 3944 0195 21       		.uleb128 0x21
 3945 0196 05       		.uleb128 0x5
 3946 0197 00       		.byte	0
 3947 0198 03       		.uleb128 0x3
 3948 0199 0E       		.uleb128 0xe
 3949 019a 3A       		.uleb128 0x3a
 3950 019b 0B       		.uleb128 0xb
 3951 019c 3B       		.uleb128 0x3b
 3952 019d 0B       		.uleb128 0xb
 3953 019e 49       		.uleb128 0x49
 3954 019f 13       		.uleb128 0x13
 3955 01a0 02       		.uleb128 0x2
 3956 01a1 18       		.uleb128 0x18
 3957 01a2 00       		.byte	0
 3958 01a3 00       		.byte	0
 3959 01a4 22       		.uleb128 0x22
 3960 01a5 2E       		.uleb128 0x2e
 3961 01a6 01       		.byte	0x1
 3962 01a7 3F       		.uleb128 0x3f
 3963 01a8 19       		.uleb128 0x19
 3964 01a9 03       		.uleb128 0x3
ARM GAS  /tmp/ccPQ1Gqd.s 			page 71


 3965 01aa 0E       		.uleb128 0xe
 3966 01ab 3A       		.uleb128 0x3a
 3967 01ac 0B       		.uleb128 0xb
 3968 01ad 3B       		.uleb128 0x3b
 3969 01ae 0B       		.uleb128 0xb
 3970 01af 27       		.uleb128 0x27
 3971 01b0 19       		.uleb128 0x19
 3972 01b1 49       		.uleb128 0x49
 3973 01b2 13       		.uleb128 0x13
 3974 01b3 11       		.uleb128 0x11
 3975 01b4 01       		.uleb128 0x1
 3976 01b5 12       		.uleb128 0x12
 3977 01b6 06       		.uleb128 0x6
 3978 01b7 40       		.uleb128 0x40
 3979 01b8 18       		.uleb128 0x18
 3980 01b9 9642     		.uleb128 0x2116
 3981 01bb 19       		.uleb128 0x19
 3982 01bc 01       		.uleb128 0x1
 3983 01bd 13       		.uleb128 0x13
 3984 01be 00       		.byte	0
 3985 01bf 00       		.byte	0
 3986 01c0 23       		.uleb128 0x23
 3987 01c1 2E       		.uleb128 0x2e
 3988 01c2 01       		.byte	0x1
 3989 01c3 3F       		.uleb128 0x3f
 3990 01c4 19       		.uleb128 0x19
 3991 01c5 03       		.uleb128 0x3
 3992 01c6 0E       		.uleb128 0xe
 3993 01c7 3A       		.uleb128 0x3a
 3994 01c8 0B       		.uleb128 0xb
 3995 01c9 3B       		.uleb128 0x3b
 3996 01ca 05       		.uleb128 0x5
 3997 01cb 27       		.uleb128 0x27
 3998 01cc 19       		.uleb128 0x19
 3999 01cd 49       		.uleb128 0x49
 4000 01ce 13       		.uleb128 0x13
 4001 01cf 11       		.uleb128 0x11
 4002 01d0 01       		.uleb128 0x1
 4003 01d1 12       		.uleb128 0x12
 4004 01d2 06       		.uleb128 0x6
 4005 01d3 40       		.uleb128 0x40
 4006 01d4 18       		.uleb128 0x18
 4007 01d5 9642     		.uleb128 0x2116
 4008 01d7 19       		.uleb128 0x19
 4009 01d8 01       		.uleb128 0x1
 4010 01d9 13       		.uleb128 0x13
 4011 01da 00       		.byte	0
 4012 01db 00       		.byte	0
 4013 01dc 24       		.uleb128 0x24
 4014 01dd 05       		.uleb128 0x5
 4015 01de 00       		.byte	0
 4016 01df 03       		.uleb128 0x3
 4017 01e0 0E       		.uleb128 0xe
 4018 01e1 3A       		.uleb128 0x3a
 4019 01e2 0B       		.uleb128 0xb
 4020 01e3 3B       		.uleb128 0x3b
 4021 01e4 05       		.uleb128 0x5
ARM GAS  /tmp/ccPQ1Gqd.s 			page 72


 4022 01e5 49       		.uleb128 0x49
 4023 01e6 13       		.uleb128 0x13
 4024 01e7 02       		.uleb128 0x2
 4025 01e8 18       		.uleb128 0x18
 4026 01e9 00       		.byte	0
 4027 01ea 00       		.byte	0
 4028 01eb 25       		.uleb128 0x25
 4029 01ec 2E       		.uleb128 0x2e
 4030 01ed 01       		.byte	0x1
 4031 01ee 3F       		.uleb128 0x3f
 4032 01ef 19       		.uleb128 0x19
 4033 01f0 03       		.uleb128 0x3
 4034 01f1 0E       		.uleb128 0xe
 4035 01f2 3A       		.uleb128 0x3a
 4036 01f3 0B       		.uleb128 0xb
 4037 01f4 3B       		.uleb128 0x3b
 4038 01f5 05       		.uleb128 0x5
 4039 01f6 27       		.uleb128 0x27
 4040 01f7 19       		.uleb128 0x19
 4041 01f8 49       		.uleb128 0x49
 4042 01f9 13       		.uleb128 0x13
 4043 01fa 11       		.uleb128 0x11
 4044 01fb 01       		.uleb128 0x1
 4045 01fc 12       		.uleb128 0x12
 4046 01fd 06       		.uleb128 0x6
 4047 01fe 40       		.uleb128 0x40
 4048 01ff 18       		.uleb128 0x18
 4049 0200 9742     		.uleb128 0x2117
 4050 0202 19       		.uleb128 0x19
 4051 0203 01       		.uleb128 0x1
 4052 0204 13       		.uleb128 0x13
 4053 0205 00       		.byte	0
 4054 0206 00       		.byte	0
 4055 0207 26       		.uleb128 0x26
 4056 0208 34       		.uleb128 0x34
 4057 0209 00       		.byte	0
 4058 020a 03       		.uleb128 0x3
 4059 020b 0E       		.uleb128 0xe
 4060 020c 3A       		.uleb128 0x3a
 4061 020d 0B       		.uleb128 0xb
 4062 020e 3B       		.uleb128 0x3b
 4063 020f 05       		.uleb128 0x5
 4064 0210 49       		.uleb128 0x49
 4065 0211 13       		.uleb128 0x13
 4066 0212 02       		.uleb128 0x2
 4067 0213 18       		.uleb128 0x18
 4068 0214 00       		.byte	0
 4069 0215 00       		.byte	0
 4070 0216 27       		.uleb128 0x27
 4071 0217 2E       		.uleb128 0x2e
 4072 0218 01       		.byte	0x1
 4073 0219 3F       		.uleb128 0x3f
 4074 021a 19       		.uleb128 0x19
 4075 021b 03       		.uleb128 0x3
 4076 021c 0E       		.uleb128 0xe
 4077 021d 3A       		.uleb128 0x3a
 4078 021e 0B       		.uleb128 0xb
ARM GAS  /tmp/ccPQ1Gqd.s 			page 73


 4079 021f 3B       		.uleb128 0x3b
 4080 0220 05       		.uleb128 0x5
 4081 0221 27       		.uleb128 0x27
 4082 0222 19       		.uleb128 0x19
 4083 0223 11       		.uleb128 0x11
 4084 0224 01       		.uleb128 0x1
 4085 0225 12       		.uleb128 0x12
 4086 0226 06       		.uleb128 0x6
 4087 0227 40       		.uleb128 0x40
 4088 0228 18       		.uleb128 0x18
 4089 0229 9642     		.uleb128 0x2116
 4090 022b 19       		.uleb128 0x19
 4091 022c 01       		.uleb128 0x1
 4092 022d 13       		.uleb128 0x13
 4093 022e 00       		.byte	0
 4094 022f 00       		.byte	0
 4095 0230 28       		.uleb128 0x28
 4096 0231 34       		.uleb128 0x34
 4097 0232 00       		.byte	0
 4098 0233 03       		.uleb128 0x3
 4099 0234 0E       		.uleb128 0xe
 4100 0235 3A       		.uleb128 0x3a
 4101 0236 0B       		.uleb128 0xb
 4102 0237 3B       		.uleb128 0x3b
 4103 0238 05       		.uleb128 0x5
 4104 0239 49       		.uleb128 0x49
 4105 023a 13       		.uleb128 0x13
 4106 023b 3F       		.uleb128 0x3f
 4107 023c 19       		.uleb128 0x19
 4108 023d 3C       		.uleb128 0x3c
 4109 023e 19       		.uleb128 0x19
 4110 023f 00       		.byte	0
 4111 0240 00       		.byte	0
 4112 0241 29       		.uleb128 0x29
 4113 0242 34       		.uleb128 0x34
 4114 0243 00       		.byte	0
 4115 0244 03       		.uleb128 0x3
 4116 0245 08       		.uleb128 0x8
 4117 0246 3A       		.uleb128 0x3a
 4118 0247 0B       		.uleb128 0xb
 4119 0248 3B       		.uleb128 0x3b
 4120 0249 05       		.uleb128 0x5
 4121 024a 49       		.uleb128 0x49
 4122 024b 13       		.uleb128 0x13
 4123 024c 3F       		.uleb128 0x3f
 4124 024d 19       		.uleb128 0x19
 4125 024e 3C       		.uleb128 0x3c
 4126 024f 19       		.uleb128 0x19
 4127 0250 00       		.byte	0
 4128 0251 00       		.byte	0
 4129 0252 2A       		.uleb128 0x2a
 4130 0253 34       		.uleb128 0x34
 4131 0254 00       		.byte	0
 4132 0255 03       		.uleb128 0x3
 4133 0256 0E       		.uleb128 0xe
 4134 0257 3A       		.uleb128 0x3a
 4135 0258 0B       		.uleb128 0xb
ARM GAS  /tmp/ccPQ1Gqd.s 			page 74


 4136 0259 3B       		.uleb128 0x3b
 4137 025a 0B       		.uleb128 0xb
 4138 025b 49       		.uleb128 0x49
 4139 025c 13       		.uleb128 0x13
 4140 025d 3F       		.uleb128 0x3f
 4141 025e 19       		.uleb128 0x19
 4142 025f 02       		.uleb128 0x2
 4143 0260 18       		.uleb128 0x18
 4144 0261 00       		.byte	0
 4145 0262 00       		.byte	0
 4146 0263 00       		.byte	0
 4147              		.section	.debug_aranges,"",%progbits
 4148 0000 1C000000 		.4byte	0x1c
 4149 0004 0200     		.2byte	0x2
 4150 0006 00000000 		.4byte	.Ldebug_info0
 4151 000a 04       		.byte	0x4
 4152 000b 00       		.byte	0
 4153 000c 0000     		.2byte	0
 4154 000e 0000     		.2byte	0
 4155 0010 00000000 		.4byte	.Ltext0
 4156 0014 12050000 		.4byte	.Letext0-.Ltext0
 4157 0018 00000000 		.4byte	0
 4158 001c 00000000 		.4byte	0
 4159              		.section	.debug_line,"",%progbits
 4160              	.Ldebug_line0:
 4161 0000 BF040000 		.section	.debug_str,"MS",%progbits,1
 4161      02001B04 
 4161      00000201 
 4161      FB0E0D00 
 4161      01010101 
 4162              	.LASF212:
 4163 0000 6465765F 		.ascii	"dev_speed\000"
 4163      73706565 
 4163      6400
 4164              	.LASF137:
 4165 000a 63685F74 		.ascii	"ch_threads_list\000"
 4165      68726561 
 4165      64735F6C 
 4165      69737400 
 4166              	.LASF148:
 4167 001a 76746675 		.ascii	"vtfunc_t\000"
 4167      6E635F74 
 4167      00
 4168              	.LASF193:
 4169 0023 77496E64 		.ascii	"wIndex\000"
 4169      657800
 4170              	.LASF189:
 4171 002a 7573625F 		.ascii	"usb_setup_req\000"
 4171      73657475 
 4171      705F7265 
 4171      7100
 4172              	.LASF179:
 4173 0038 77746D74 		.ascii	"wtmtxp\000"
 4173      787000
 4174              	.LASF50:
 4175 003f 6465765F 		.ascii	"dev_endpoints\000"
 4175      656E6470 
ARM GAS  /tmp/ccPQ1Gqd.s 			page 75


 4175      6F696E74 
 4175      7300
 4176              	.LASF173:
 4177 004d 746D5F63 		.ascii	"tm_calibration_t\000"
 4177      616C6962 
 4177      72617469 
 4177      6F6E5F74 
 4177      00
 4178              	.LASF134:
 4179 005e 74687265 		.ascii	"thread_reference_t\000"
 4179      61645F72 
 4179      65666572 
 4179      656E6365 
 4179      5F7400
 4180              	.LASF16:
 4181 0071 63686172 		.ascii	"char\000"
 4181      00
 4182              	.LASF168:
 4183 0076 72656761 		.ascii	"regarm_t\000"
 4183      726D5F74 
 4183      00
 4184              	.LASF118:
 4185 007f 705F7072 		.ascii	"p_prio\000"
 4185      696F00
 4186              	.LASF229:
 4187 0086 55534244 		.ascii	"USBD_SPEED_HIGH\000"
 4187      5F535045 
 4187      45445F48 
 4187      49474800 
 4188              	.LASF48:
 4189 0096 48414C5F 		.ascii	"HAL_LOCKED\000"
 4189      4C4F434B 
 4189      454400
 4190              	.LASF59:
 4191 00a1 62617474 		.ascii	"battery_charging_enable\000"
 4191      6572795F 
 4191      63686172 
 4191      67696E67 
 4191      5F656E61 
 4192              	.LASF95:
 4193 00b9 4C6F636B 		.ascii	"Lock\000"
 4193      00
 4194              	.LASF213:
 4195 00be 65705F69 		.ascii	"ep_in\000"
 4195      6E00
 4196              	.LASF144:
 4197 00c4 725F6374 		.ascii	"r_ctx\000"
 4197      7800
 4198              	.LASF177:
 4199 00ca 77747472 		.ascii	"wttrp\000"
 4199      7000
 4200              	.LASF216:
 4201 00d0 6570305F 		.ascii	"ep0_data_len\000"
 4201      64617461 
 4201      5F6C656E 
 4201      00
 4202              	.LASF89:
ARM GAS  /tmp/ccPQ1Gqd.s 			page 76


 4203 00dd 5043445F 		.ascii	"PCD_EPTypeDef\000"
 4203      45505479 
 4203      70654465 
 4203      6600
 4204              	.LASF83:
 4205 00eb 4C504D5F 		.ascii	"LPM_L1\000"
 4205      4C3100
 4206              	.LASF186:
 4207 00f2 6D5F6F77 		.ascii	"m_owner\000"
 4207      6E657200 
 4208              	.LASF182:
 4209 00fa 735F7175 		.ascii	"s_queue\000"
 4209      65756500 
 4210              	.LASF158:
 4211 0102 76745F73 		.ascii	"vt_systime\000"
 4211      79737469 
 4211      6D6500
 4212              	.LASF207:
 4213 010d 47657444 		.ascii	"GetDeviceQualifierDescriptor\000"
 4213      65766963 
 4213      65517561 
 4213      6C696669 
 4213      65724465 
 4214              	.LASF86:
 4215 012a 5043445F 		.ascii	"PCD_LPM_StateTypeDef\000"
 4215      4C504D5F 
 4215      53746174 
 4215      65547970 
 4215      65446566 
 4216              	.LASF128:
 4217 013f 705F6D73 		.ascii	"p_msgqueue\000"
 4217      67717565 
 4217      756500
 4218              	.LASF271:
 4219 014a 65705F6D 		.ascii	"ep_mps\000"
 4219      707300
 4220              	.LASF0:
 4221 0151 756E7369 		.ascii	"unsigned int\000"
 4221      676E6564 
 4221      20696E74 
 4221      00
 4222              	.LASF242:
 4223 015e 47657443 		.ascii	"GetConfigurationStrDescriptor\000"
 4223      6F6E6669 
 4223      67757261 
 4223      74696F6E 
 4223      53747244 
 4224              	.LASF221:
 4225 017c 6465765F 		.ascii	"dev_test_mode\000"
 4225      74657374 
 4225      5F6D6F64 
 4225      6500
 4226              	.LASF135:
 4227 018a 74687265 		.ascii	"threads_list_t\000"
 4227      6164735F 
 4227      6C697374 
 4227      5F7400
ARM GAS  /tmp/ccPQ1Gqd.s 			page 77


 4228              	.LASF222:
 4229 0199 6465765F 		.ascii	"dev_remote_wakeup\000"
 4229      72656D6F 
 4229      74655F77 
 4229      616B6575 
 4229      7000
 4230              	.LASF127:
 4231 01ab 705F7761 		.ascii	"p_waiting\000"
 4231      6974696E 
 4231      6700
 4232              	.LASF97:
 4233 01b5 53657475 		.ascii	"Setup\000"
 4233      7000
 4234              	.LASF288:
 4235 01bb 2E2E2F2E 		.ascii	"../../../../../Projects/Multi/Applications/BlueMicr"
 4235      2E2F2E2E 
 4235      2F2E2E2F 
 4235      2E2E2F50 
 4235      726F6A65 
 4236 01ee 6F737973 		.ascii	"osystem2/Src/usbd_conf.c\000"
 4236      74656D32 
 4236      2F537263 
 4236      2F757362 
 4236      645F636F 
 4237              	.LASF68:
 4238 0207 6576656E 		.ascii	"even_odd_frame\000"
 4238      5F6F6464 
 4238      5F667261 
 4238      6D6500
 4239              	.LASF46:
 4240 0216 5553425F 		.ascii	"USB_OTG_GlobalTypeDef\000"
 4240      4F54475F 
 4240      476C6F62 
 4240      616C5479 
 4240      70654465 
 4241              	.LASF27:
 4242 022c 47494E54 		.ascii	"GINTSTS\000"
 4242      53545300 
 4243              	.LASF35:
 4244 0234 47434346 		.ascii	"GCCFG\000"
 4244      4700
 4245              	.LASF219:
 4246 023a 6465765F 		.ascii	"dev_address\000"
 4246      61646472 
 4246      65737300 
 4247              	.LASF76:
 4248 0246 48414C5F 		.ascii	"HAL_PCD_STATE_RESET\000"
 4248      5043445F 
 4248      53544154 
 4248      455F5245 
 4248      53455400 
 4249              	.LASF176:
 4250 025a 77746F62 		.ascii	"wtobjp\000"
 4250      6A7000
 4251              	.LASF165:
 4252 0261 76746C69 		.ascii	"vtlist\000"
 4252      737400
ARM GAS  /tmp/ccPQ1Gqd.s 			page 78


 4253              	.LASF141:
 4254 0268 63685F72 		.ascii	"ch_ready_list\000"
 4254      65616479 
 4254      5F6C6973 
 4254      7400
 4255              	.LASF167:
 4256 0276 69646C65 		.ascii	"idle_thread_wa\000"
 4256      5F746872 
 4256      6561645F 
 4256      776100
 4257              	.LASF96:
 4258 0285 53746174 		.ascii	"State\000"
 4258      6500
 4259              	.LASF180:
 4260 028b 65776D61 		.ascii	"ewmask\000"
 4260      736B00
 4261              	.LASF28:
 4262 0292 47494E54 		.ascii	"GINTMSK\000"
 4262      4D534B00 
 4263              	.LASF63:
 4264 029a 5553425F 		.ascii	"USB_OTG_CfgTypeDef\000"
 4264      4F54475F 
 4264      43666754 
 4264      79706544 
 4264      656600
 4265              	.LASF37:
 4266 02ad 47485743 		.ascii	"GHWCFG3\000"
 4266      46473300 
 4267              	.LASF32:
 4268 02b5 44494550 		.ascii	"DIEPTXF0_HNPTXFSIZ\000"
 4268      54584630 
 4268      5F484E50 
 4268      54584653 
 4268      495A00
 4269              	.LASF139:
 4270 02c8 63685F74 		.ascii	"ch_threads_queue\000"
 4270      68726561 
 4270      64735F71 
 4270      75657565 
 4270      00
 4271              	.LASF256:
 4272 02d9 48414C5F 		.ascii	"HAL_PCD_ResetCallback\000"
 4272      5043445F 
 4272      52657365 
 4272      7443616C 
 4272      6C626163 
 4273              	.LASF260:
 4274 02ef 48414C5F 		.ascii	"HAL_PCD_ISOINIncompleteCallback\000"
 4274      5043445F 
 4274      49534F49 
 4274      4E496E63 
 4274      6F6D706C 
 4275              	.LASF266:
 4276 030f 55534244 		.ascii	"USBD_LL_Start\000"
 4276      5F4C4C5F 
 4276      53746172 
 4276      7400
ARM GAS  /tmp/ccPQ1Gqd.s 			page 79


 4277              	.LASF25:
 4278 031d 47555342 		.ascii	"GUSBCFG\000"
 4278      43464700 
 4279              	.LASF243:
 4280 0325 47657449 		.ascii	"GetInterfaceStrDescriptor\000"
 4280      6E746572 
 4280      66616365 
 4280      53747244 
 4280      65736372 
 4281              	.LASF206:
 4282 033f 4765744F 		.ascii	"GetOtherSpeedConfigDescriptor\000"
 4282      74686572 
 4282      53706565 
 4282      64436F6E 
 4282      66696744 
 4283              	.LASF52:
 4284 035d 73706565 		.ascii	"speed\000"
 4284      6400
 4285              	.LASF183:
 4286 0363 735F636E 		.ascii	"s_cnt\000"
 4286      7400
 4287              	.LASF160:
 4288 0369 63685F73 		.ascii	"ch_system_debug\000"
 4288      79737465 
 4288      6D5F6465 
 4288      62756700 
 4289              	.LASF192:
 4290 0379 7756616C 		.ascii	"wValue\000"
 4290      756500
 4291              	.LASF279:
 4292 0380 55534244 		.ascii	"USBD_LL_Transmit\000"
 4292      5F4C4C5F 
 4292      5472616E 
 4292      736D6974 
 4292      00
 4293              	.LASF239:
 4294 0391 4765744D 		.ascii	"GetManufacturerStrDescriptor\000"
 4294      616E7566 
 4294      61637475 
 4294      72657253 
 4294      74724465 
 4295              	.LASF20:
 4296 03ae 75696E74 		.ascii	"uint32_t\000"
 4296      33325F74 
 4296      00
 4297              	.LASF214:
 4298 03b7 65705F6F 		.ascii	"ep_out\000"
 4298      757400
 4299              	.LASF100:
 4300 03be 6C706D5F 		.ascii	"lpm_active\000"
 4300      61637469 
 4300      766500
 4301              	.LASF112:
 4302 03c9 6576656E 		.ascii	"eventmask_t\000"
 4302      746D6173 
 4302      6B5F7400 
 4303              	.LASF143:
ARM GAS  /tmp/ccPQ1Gqd.s 			page 80


 4304 03d5 725F7072 		.ascii	"r_prio\000"
 4304      696F00
 4305              	.LASF155:
 4306 03dc 76745F70 		.ascii	"vt_par\000"
 4306      617200
 4307              	.LASF58:
 4308 03e3 6C706D5F 		.ascii	"lpm_enable\000"
 4308      656E6162 
 4308      6C6500
 4309              	.LASF104:
 4310 03ee 666C6F61 		.ascii	"float\000"
 4310      7400
 4311              	.LASF210:
 4312 03f4 6465765F 		.ascii	"dev_default_config\000"
 4312      64656661 
 4312      756C745F 
 4312      636F6E66 
 4312      696700
 4313              	.LASF181:
 4314 0407 63685F73 		.ascii	"ch_semaphore\000"
 4314      656D6170 
 4314      686F7265 
 4314      00
 4315              	.LASF268:
 4316 0414 55534244 		.ascii	"USBD_LL_OpenEP\000"
 4316      5F4C4C5F 
 4316      4F70656E 
 4316      455000
 4317              	.LASF110:
 4318 0423 74707269 		.ascii	"tprio_t\000"
 4318      6F5F7400 
 4319              	.LASF150:
 4320 042b 63685F76 		.ascii	"ch_virtual_timer\000"
 4320      69727475 
 4320      616C5F74 
 4320      696D6572 
 4320      00
 4321              	.LASF226:
 4322 043c 70436C61 		.ascii	"pClassData\000"
 4322      73734461 
 4322      746100
 4323              	.LASF53:
 4324 0447 646D615F 		.ascii	"dma_enable\000"
 4324      656E6162 
 4324      6C6500
 4325              	.LASF14:
 4326 0452 6C6F6E67 		.ascii	"long long unsigned int\000"
 4326      206C6F6E 
 4326      6720756E 
 4326      7369676E 
 4326      65642069 
 4327              	.LASF61:
 4328 0469 7573655F 		.ascii	"use_dedicated_ep1\000"
 4328      64656469 
 4328      63617465 
 4328      645F6570 
 4328      3100
ARM GAS  /tmp/ccPQ1Gqd.s 			page 81


 4329              	.LASF197:
 4330 047b 4465496E 		.ascii	"DeInit\000"
 4330      697400
 4331              	.LASF31:
 4332 0482 47525846 		.ascii	"GRXFSIZ\000"
 4332      53495A00 
 4333              	.LASF69:
 4334 048a 74785F66 		.ascii	"tx_fifo_num\000"
 4334      69666F5F 
 4334      6E756D00 
 4335              	.LASF6:
 4336 0496 5F5F7569 		.ascii	"__uint16_t\000"
 4336      6E743136 
 4336      5F7400
 4337              	.LASF202:
 4338 04a1 49736F49 		.ascii	"IsoINIncomplete\000"
 4338      4E496E63 
 4338      6F6D706C 
 4338      65746500 
 4339              	.LASF138:
 4340 04b1 74687265 		.ascii	"threads_queue_t\000"
 4340      6164735F 
 4340      71756575 
 4340      655F7400 
 4341              	.LASF208:
 4342 04c1 5F555342 		.ascii	"_USBD_HandleTypeDef\000"
 4342      445F4861 
 4342      6E646C65 
 4342      54797065 
 4342      44656600 
 4343              	.LASF157:
 4344 04d5 63685F76 		.ascii	"ch_virtual_timers_list\000"
 4344      69727475 
 4344      616C5F74 
 4344      696D6572 
 4344      735F6C69 
 4345              	.LASF115:
 4346 04ec 74687265 		.ascii	"thread_t\000"
 4346      61645F74 
 4346      00
 4347              	.LASF283:
 4348 04f5 55534244 		.ascii	"USBD_LL_GetRxDataSize\000"
 4348      5F4C4C5F 
 4348      47657452 
 4348      78446174 
 4348      6153697A 
 4349              	.LASF274:
 4350 050b 55534244 		.ascii	"USBD_LL_StallEP\000"
 4350      5F4C4C5F 
 4350      5374616C 
 4350      6C455000 
 4351              	.LASF91:
 4352 051b 496E6974 		.ascii	"Init\000"
 4352      00
 4353              	.LASF2:
 4354 0520 73697A65 		.ascii	"size_t\000"
 4354      5F7400
ARM GAS  /tmp/ccPQ1Gqd.s 			page 82


 4355              	.LASF174:
 4356 0527 7264796D 		.ascii	"rdymsg\000"
 4356      736700
 4357              	.LASF247:
 4358 052e 72656D5F 		.ascii	"rem_length\000"
 4358      6C656E67 
 4358      746800
 4359              	.LASF172:
 4360 0539 6F666673 		.ascii	"offset\000"
 4360      657400
 4361              	.LASF102:
 4362 0540 70446174 		.ascii	"pData\000"
 4362      6100
 4363              	.LASF233:
 4364 0546 55534244 		.ascii	"USBD_OK\000"
 4364      5F4F4B00 
 4365              	.LASF60:
 4366 054e 76627573 		.ascii	"vbus_sensing_enable\000"
 4366      5F73656E 
 4366      73696E67 
 4366      5F656E61 
 4366      626C6500 
 4367              	.LASF246:
 4368 0562 746F7461 		.ascii	"total_length\000"
 4368      6C5F6C65 
 4368      6E677468 
 4368      00
 4369              	.LASF232:
 4370 056f 55534244 		.ascii	"USBD_SpeedTypeDef\000"
 4370      5F537065 
 4370      65645479 
 4370      70654465 
 4370      6600
 4371              	.LASF264:
 4372 0581 55534244 		.ascii	"USBD_LL_Init\000"
 4372      5F4C4C5F 
 4372      496E6974 
 4372      00
 4373              	.LASF199:
 4374 058e 4550305F 		.ascii	"EP0_RxReady\000"
 4374      52785265 
 4374      61647900 
 4375              	.LASF286:
 4376 059a 49544D5F 		.ascii	"ITM_RxBuffer\000"
 4376      52784275 
 4376      66666572 
 4376      00
 4377              	.LASF184:
 4378 05a7 63685F6D 		.ascii	"ch_mutex\000"
 4378      75746578 
 4378      00
 4379              	.LASF13:
 4380 05b0 5F5F7569 		.ascii	"__uint64_t\000"
 4380      6E743634 
 4380      5F7400
 4381              	.LASF198:
 4382 05bb 4550305F 		.ascii	"EP0_TxSent\000"
ARM GAS  /tmp/ccPQ1Gqd.s 			page 83


 4382      54785365 
 4382      6E7400
 4383              	.LASF47:
 4384 05c6 48414C5F 		.ascii	"HAL_UNLOCKED\000"
 4384      554E4C4F 
 4384      434B4544 
 4384      00
 4385              	.LASF220:
 4386 05d3 6465765F 		.ascii	"dev_connection_status\000"
 4386      636F6E6E 
 4386      65637469 
 4386      6F6E5F73 
 4386      74617475 
 4387              	.LASF262:
 4388 05e9 48414C5F 		.ascii	"HAL_PCD_DisconnectCallback\000"
 4388      5043445F 
 4388      44697363 
 4388      6F6E6E65 
 4388      63744361 
 4389              	.LASF80:
 4390 0604 48414C5F 		.ascii	"HAL_PCD_STATE_TIMEOUT\000"
 4390      5043445F 
 4390      53544154 
 4390      455F5449 
 4390      4D454F55 
 4391              	.LASF64:
 4392 061a 69735F69 		.ascii	"is_in\000"
 4392      6E00
 4393              	.LASF194:
 4394 0620 774C656E 		.ascii	"wLength\000"
 4394      67746800 
 4395              	.LASF67:
 4396 0628 64617461 		.ascii	"data_pid_start\000"
 4396      5F706964 
 4396      5F737461 
 4396      727400
 4397              	.LASF114:
 4398 0637 73797374 		.ascii	"systime_t\000"
 4398      696D655F 
 4398      7400
 4399              	.LASF122:
 4400 0641 705F6E61 		.ascii	"p_name\000"
 4400      6D6500
 4401              	.LASF289:
 4402 0648 2F752F65 		.ascii	"/u/elawton2/p442-submissions/sensortile/reference/b"
 4402      6C617774 
 4402      6F6E322F 
 4402      70343432 
 4402      2D737562 
 4403 067b 6C75656D 		.ascii	"luemicrosystem2/BlueMicrosystem2_V2.2.0/Projects/Mu"
 4403      6963726F 
 4403      73797374 
 4403      656D322F 
 4403      426C7565 
 4404 06ae 6C74692F 		.ascii	"lti/Applications/BlueMicrosystem2/bluechibi\000"
 4404      4170706C 
 4404      69636174 
ARM GAS  /tmp/ccPQ1Gqd.s 			page 84


 4404      696F6E73 
 4404      2F426C75 
 4405              	.LASF205:
 4406 06da 47657446 		.ascii	"GetFSConfigDescriptor\000"
 4406      53436F6E 
 4406      66696744 
 4406      65736372 
 4406      6970746F 
 4407              	.LASF195:
 4408 06f0 55534244 		.ascii	"USBD_SetupReqTypedef\000"
 4408      5F536574 
 4408      75705265 
 4408      71547970 
 4408      65646566 
 4409              	.LASF275:
 4410 0705 55534244 		.ascii	"USBD_LL_ClearStallEP\000"
 4410      5F4C4C5F 
 4410      436C6561 
 4410      72537461 
 4410      6C6C4550 
 4411              	.LASF78:
 4412 071a 48414C5F 		.ascii	"HAL_PCD_STATE_ERROR\000"
 4412      5043445F 
 4412      53544154 
 4412      455F4552 
 4412      524F5200 
 4413              	.LASF225:
 4414 072e 70436C61 		.ascii	"pClass\000"
 4414      737300
 4415              	.LASF196:
 4416 0735 5F446576 		.ascii	"_Device_cb\000"
 4416      6963655F 
 4416      636200
 4417              	.LASF153:
 4418 0740 76745F64 		.ascii	"vt_delta\000"
 4418      656C7461 
 4418      00
 4419              	.LASF62:
 4420 0749 7573655F 		.ascii	"use_external_vbus\000"
 4420      65787465 
 4420      726E616C 
 4420      5F766275 
 4420      7300
 4421              	.LASF8:
 4422 075b 5F5F696E 		.ascii	"__int32_t\000"
 4422      7433325F 
 4422      7400
 4423              	.LASF145:
 4424 0765 725F6E65 		.ascii	"r_newer\000"
 4424      77657200 
 4425              	.LASF72:
 4426 076d 646D615F 		.ascii	"dma_addr\000"
 4426      61646472 
 4426      00
 4427              	.LASF26:
 4428 0776 47525354 		.ascii	"GRSTCTL\000"
 4428      43544C00 
ARM GAS  /tmp/ccPQ1Gqd.s 			page 85


 4429              	.LASF54:
 4430 077e 6570305F 		.ascii	"ep0_mps\000"
 4430      6D707300 
 4431              	.LASF107:
 4432 0786 74737461 		.ascii	"tstate_t\000"
 4432      74655F74 
 4432      00
 4433              	.LASF71:
 4434 078f 78666572 		.ascii	"xfer_buff\000"
 4434      5F627566 
 4434      6600
 4435              	.LASF265:
 4436 0799 55534244 		.ascii	"USBD_LL_DeInit\000"
 4436      5F4C4C5F 
 4436      4465496E 
 4436      697400
 4437              	.LASF121:
 4438 07a8 705F6F6C 		.ascii	"p_older\000"
 4438      64657200 
 4439              	.LASF123:
 4440 07b0 705F7374 		.ascii	"p_state\000"
 4440      61746500 
 4441              	.LASF235:
 4442 07b8 55534244 		.ascii	"USBD_FAIL\000"
 4442      5F464149 
 4442      4C00
 4443              	.LASF10:
 4444 07c2 5F5F7569 		.ascii	"__uint32_t\000"
 4444      6E743332 
 4444      5F7400
 4445              	.LASF17:
 4446 07cd 75696E74 		.ascii	"uint8_t\000"
 4446      385F7400 
 4447              	.LASF245:
 4448 07d5 73746174 		.ascii	"status\000"
 4448      757300
 4449              	.LASF133:
 4450 07dc 705F6D70 		.ascii	"p_mpool\000"
 4450      6F6F6C00 
 4451              	.LASF190:
 4452 07e4 626D5265 		.ascii	"bmRequest\000"
 4452      71756573 
 4452      7400
 4453              	.LASF131:
 4454 07ee 705F6D74 		.ascii	"p_mtxlist\000"
 4454      786C6973 
 4454      7400
 4455              	.LASF149:
 4456 07f8 76697274 		.ascii	"virtual_timer_t\000"
 4456      75616C5F 
 4456      74696D65 
 4456      725F7400 
 4457              	.LASF236:
 4458 0808 55534244 		.ascii	"USBD_StatusTypeDef\000"
 4458      5F537461 
 4458      74757354 
 4458      79706544 
ARM GAS  /tmp/ccPQ1Gqd.s 			page 86


 4458      656600
 4459              	.LASF159:
 4460 081b 73797374 		.ascii	"system_debug_t\000"
 4460      656D5F64 
 4460      65627567 
 4460      5F7400
 4461              	.LASF12:
 4462 082a 6C6F6E67 		.ascii	"long long int\000"
 4462      206C6F6E 
 4462      6720696E 
 4462      7400
 4463              	.LASF98:
 4464 0838 4C504D5F 		.ascii	"LPM_State\000"
 4464      53746174 
 4464      6500
 4465              	.LASF201:
 4466 0842 44617461 		.ascii	"DataOut\000"
 4466      4F757400 
 4467              	.LASF142:
 4468 084a 725F7175 		.ascii	"r_queue\000"
 4468      65756500 
 4469              	.LASF111:
 4470 0852 6D73675F 		.ascii	"msg_t\000"
 4470      7400
 4471              	.LASF132:
 4472 0858 705F7265 		.ascii	"p_realprio\000"
 4472      616C7072 
 4472      696F00
 4473              	.LASF170:
 4474 0863 636F6E74 		.ascii	"context\000"
 4474      65787400 
 4475              	.LASF124:
 4476 086b 705F666C 		.ascii	"p_flags\000"
 4476      61677300 
 4477              	.LASF231:
 4478 0873 55534244 		.ascii	"USBD_SPEED_LOW\000"
 4478      5F535045 
 4478      45445F4C 
 4478      4F5700
 4479              	.LASF99:
 4480 0882 4245534C 		.ascii	"BESL\000"
 4480      00
 4481              	.LASF259:
 4482 0887 48414C5F 		.ascii	"HAL_PCD_ISOOUTIncompleteCallback\000"
 4482      5043445F 
 4482      49534F4F 
 4482      5554496E 
 4482      636F6D70 
 4483              	.LASF241:
 4484 08a8 47657453 		.ascii	"GetSerialStrDescriptor\000"
 4484      65726961 
 4484      6C537472 
 4484      44657363 
 4484      72697074 
 4485              	.LASF276:
 4486 08bf 55534244 		.ascii	"USBD_LL_IsStallEP\000"
 4486      5F4C4C5F 
ARM GAS  /tmp/ccPQ1Gqd.s 			page 87


 4486      49735374 
 4486      616C6C45 
 4486      5000
 4487              	.LASF162:
 4488 08d1 63685F73 		.ascii	"ch_system_t\000"
 4488      79737465 
 4488      6D5F7400 
 4489              	.LASF94:
 4490 08dd 4F55545F 		.ascii	"OUT_ep\000"
 4490      657000
 4491              	.LASF281:
 4492 08e4 73697A65 		.ascii	"size\000"
 4492      00
 4493              	.LASF33:
 4494 08e9 484E5054 		.ascii	"HNPTXSTS\000"
 4494      58535453 
 4494      00
 4495              	.LASF57:
 4496 08f2 6C6F775F 		.ascii	"low_power_enable\000"
 4496      706F7765 
 4496      725F656E 
 4496      61626C65 
 4496      00
 4497              	.LASF36:
 4498 0903 52657365 		.ascii	"Reserved5\000"
 4498      72766564 
 4498      3500
 4499              	.LASF38:
 4500 090d 52657365 		.ascii	"Reserved6\000"
 4500      72766564 
 4500      3600
 4501              	.LASF109:
 4502 0917 74736C69 		.ascii	"tslices_t\000"
 4502      6365735F 
 4502      7400
 4503              	.LASF146:
 4504 0921 725F6F6C 		.ascii	"r_older\000"
 4504      64657200 
 4505              	.LASF55:
 4506 0929 7068795F 		.ascii	"phy_itface\000"
 4506      69746661 
 4506      636500
 4507              	.LASF252:
 4508 0934 68706364 		.ascii	"hpcd\000"
 4508      00
 4509              	.LASF263:
 4510 0939 70646576 		.ascii	"pdev\000"
 4510      00
 4511              	.LASF161:
 4512 093e 70616E69 		.ascii	"panic_msg\000"
 4512      635F6D73 
 4512      6700
 4513              	.LASF129:
 4514 0948 705F6D73 		.ascii	"p_msg\000"
 4514      6700
 4515              	.LASF223:
 4516 094e 72657175 		.ascii	"request\000"
ARM GAS  /tmp/ccPQ1Gqd.s 			page 88


 4516      65737400 
 4517              	.LASF251:
 4518 0956 48414C5F 		.ascii	"HAL_PCD_DataOutStageCallback\000"
 4518      5043445F 
 4518      44617461 
 4518      4F757453 
 4518      74616765 
 4519              	.LASF106:
 4520 0973 746D6F64 		.ascii	"tmode_t\000"
 4520      655F7400 
 4521              	.LASF56:
 4522 097b 536F665F 		.ascii	"Sof_enable\000"
 4522      656E6162 
 4522      6C6500
 4523              	.LASF81:
 4524 0986 5043445F 		.ascii	"PCD_StateTypeDef\000"
 4524      53746174 
 4524      65547970 
 4524      65446566 
 4524      00
 4525              	.LASF18:
 4526 0997 75696E74 		.ascii	"uint16_t\000"
 4526      31365F74 
 4526      00
 4527              	.LASF24:
 4528 09a0 47414842 		.ascii	"GAHBCFG\000"
 4528      43464700 
 4529              	.LASF88:
 4530 09a8 5043445F 		.ascii	"PCD_InitTypeDef\000"
 4530      496E6974 
 4530      54797065 
 4530      44656600 
 4531              	.LASF105:
 4532 09b8 7274636E 		.ascii	"rtcnt_t\000"
 4532      745F7400 
 4533              	.LASF44:
 4534 09c0 48505458 		.ascii	"HPTXFSIZ\000"
 4534      4653495A 
 4534      00
 4535              	.LASF4:
 4536 09c9 756E7369 		.ascii	"unsigned char\000"
 4536      676E6564 
 4536      20636861 
 4536      7200
 4537              	.LASF273:
 4538 09d7 55534244 		.ascii	"USBD_LL_FlushEP\000"
 4538      5F4C4C5F 
 4538      466C7573 
 4538      68455000 
 4539              	.LASF43:
 4540 09e7 52657365 		.ascii	"Reserved43\000"
 4540      72766564 
 4540      343300
 4541              	.LASF75:
 4542 09f2 5553425F 		.ascii	"USB_OTG_EPTypeDef\000"
 4542      4F54475F 
 4542      45505479 
ARM GAS  /tmp/ccPQ1Gqd.s 			page 89


 4542      70654465 
 4542      6600
 4543              	.LASF5:
 4544 0a04 73686F72 		.ascii	"short int\000"
 4544      7420696E 
 4544      7400
 4545              	.LASF73:
 4546 0a0e 78666572 		.ascii	"xfer_len\000"
 4546      5F6C656E 
 4546      00
 4547              	.LASF147:
 4548 0a17 725F6375 		.ascii	"r_current\000"
 4548      7272656E 
 4548      7400
 4549              	.LASF130:
 4550 0a21 705F6570 		.ascii	"p_epending\000"
 4550      656E6469 
 4550      6E6700
 4551              	.LASF185:
 4552 0a2c 6D5F7175 		.ascii	"m_queue\000"
 4552      65756500 
 4553              	.LASF9:
 4554 0a34 6C6F6E67 		.ascii	"long int\000"
 4554      20696E74 
 4554      00
 4555              	.LASF171:
 4556 0a3d 706F7274 		.ascii	"port_intctx\000"
 4556      5F696E74 
 4556      63747800 
 4557              	.LASF92:
 4558 0a49 5553425F 		.ascii	"USB_Address\000"
 4558      41646472 
 4558      65737300 
 4559              	.LASF278:
 4560 0a55 6465765F 		.ascii	"dev_addr\000"
 4560      61646472 
 4560      00
 4561              	.LASF211:
 4562 0a5e 6465765F 		.ascii	"dev_config_status\000"
 4562      636F6E66 
 4562      69675F73 
 4562      74617475 
 4562      7300
 4563              	.LASF282:
 4564 0a70 55534244 		.ascii	"USBD_LL_PrepareReceive\000"
 4564      5F4C4C5F 
 4564      50726570 
 4564      61726552 
 4564      65636569 
 4565              	.LASF218:
 4566 0a87 6465765F 		.ascii	"dev_old_state\000"
 4566      6F6C645F 
 4566      73746174 
 4566      6500
 4567              	.LASF163:
 4568 0a95 63685F73 		.ascii	"ch_system\000"
 4568      79737465 
ARM GAS  /tmp/ccPQ1Gqd.s 			page 90


 4568      6D00
 4569              	.LASF217:
 4570 0a9f 6465765F 		.ascii	"dev_state\000"
 4570      73746174 
 4570      6500
 4571              	.LASF70:
 4572 0aa9 6D617870 		.ascii	"maxpacket\000"
 4572      61636B65 
 4572      7400
 4573              	.LASF90:
 4574 0ab3 496E7374 		.ascii	"Instance\000"
 4574      616E6365 
 4574      00
 4575              	.LASF42:
 4576 0abc 47414450 		.ascii	"GADPCTL\000"
 4576      43544C00 
 4577              	.LASF116:
 4578 0ac4 705F6E65 		.ascii	"p_next\000"
 4578      787400
 4579              	.LASF21:
 4580 0acb 75696E74 		.ascii	"uint64_t\000"
 4580      36345F74 
 4580      00
 4581              	.LASF119:
 4582 0ad4 705F6374 		.ascii	"p_ctx\000"
 4582      7800
 4583              	.LASF254:
 4584 0ada 48414C5F 		.ascii	"HAL_PCD_DataInStageCallback\000"
 4584      5043445F 
 4584      44617461 
 4584      496E5374 
 4584      61676543 
 4585              	.LASF65:
 4586 0af6 69735F73 		.ascii	"is_stall\000"
 4586      74616C6C 
 4586      00
 4587              	.LASF164:
 4588 0aff 726C6973 		.ascii	"rlist\000"
 4588      7400
 4589              	.LASF234:
 4590 0b05 55534244 		.ascii	"USBD_BUSY\000"
 4590      5F425553 
 4590      5900
 4591              	.LASF3:
 4592 0b0f 5F5F7569 		.ascii	"__uint8_t\000"
 4592      6E74385F 
 4592      7400
 4593              	.LASF82:
 4594 0b19 4C504D5F 		.ascii	"LPM_L0\000"
 4594      4C3000
 4595              	.LASF191:
 4596 0b20 62526571 		.ascii	"bRequest\000"
 4596      75657374 
 4596      00
 4597              	.LASF84:
 4598 0b29 4C504D5F 		.ascii	"LPM_L2\000"
 4598      4C3200
ARM GAS  /tmp/ccPQ1Gqd.s 			page 91


 4599              	.LASF85:
 4600 0b30 4C504D5F 		.ascii	"LPM_L3\000"
 4600      4C3300
 4601              	.LASF41:
 4602 0b37 47444649 		.ascii	"GDFIFOCFG\000"
 4602      464F4346 
 4602      4700
 4603              	.LASF287:
 4604 0b41 474E5520 		.ascii	"GNU C 4.8.4 20140526 (release) [ARM/embedded-4_8-br"
 4604      4320342E 
 4604      382E3420 
 4604      32303134 
 4604      30353236 
 4605 0b74 616E6368 		.ascii	"anch revision 211358] -mcpu=cortex-m4 -mno-thumb-in"
 4605      20726576 
 4605      6973696F 
 4605      6E203231 
 4605      31333538 
 4606 0ba7 74657277 		.ascii	"terwork -mthumb -ggdb -O0 -std=c99 -fomit-frame-poi"
 4606      6F726B20 
 4606      2D6D7468 
 4606      756D6220 
 4606      2D676764 
 4607 0bda 6E746572 		.ascii	"nter -falign-functions=16\000"
 4607      202D6661 
 4607      6C69676E 
 4607      2D66756E 
 4607      6374696F 
 4608              	.LASF49:
 4609 0bf4 48414C5F 		.ascii	"HAL_LockTypeDef\000"
 4609      4C6F636B 
 4609      54797065 
 4609      44656600 
 4610              	.LASF23:
 4611 0c04 474F5447 		.ascii	"GOTGINT\000"
 4611      494E5400 
 4612              	.LASF203:
 4613 0c0c 49736F4F 		.ascii	"IsoOUTIncomplete\000"
 4613      5554496E 
 4613      636F6D70 
 4613      6C657465 
 4613      00
 4614              	.LASF22:
 4615 0c1d 474F5447 		.ascii	"GOTGCTL\000"
 4615      43544C00 
 4616              	.LASF249:
 4617 0c25 55534244 		.ascii	"USBD_HandleTypeDef\000"
 4617      5F48616E 
 4617      646C6554 
 4617      79706544 
 4617      656600
 4618              	.LASF240:
 4619 0c38 47657450 		.ascii	"GetProductStrDescriptor\000"
 4619      726F6475 
 4619      63745374 
 4619      72446573 
 4619      63726970 
ARM GAS  /tmp/ccPQ1Gqd.s 			page 92


 4620              	.LASF261:
 4621 0c50 48414C5F 		.ascii	"HAL_PCD_ConnectCallback\000"
 4621      5043445F 
 4621      436F6E6E 
 4621      65637443 
 4621      616C6C62 
 4622              	.LASF136:
 4623 0c68 63685F74 		.ascii	"ch_thread\000"
 4623      68726561 
 4623      6400
 4624              	.LASF117:
 4625 0c72 705F7072 		.ascii	"p_prev\000"
 4625      657600
 4626              	.LASF253:
 4627 0c79 65706E75 		.ascii	"epnum\000"
 4627      6D00
 4628              	.LASF15:
 4629 0c7f 73697A65 		.ascii	"sizetype\000"
 4629      74797065 
 4629      00
 4630              	.LASF108:
 4631 0c88 74726566 		.ascii	"trefs_t\000"
 4631      735F7400 
 4632              	.LASF11:
 4633 0c90 6C6F6E67 		.ascii	"long unsigned int\000"
 4633      20756E73 
 4633      69676E65 
 4633      6420696E 
 4633      7400
 4634              	.LASF103:
 4635 0ca2 5043445F 		.ascii	"PCD_HandleTypeDef\000"
 4635      48616E64 
 4635      6C655479 
 4635      70654465 
 4635      6600
 4636              	.LASF30:
 4637 0cb4 47525853 		.ascii	"GRXSTSP\000"
 4637      54535000 
 4638              	.LASF79:
 4639 0cbc 48414C5F 		.ascii	"HAL_PCD_STATE_BUSY\000"
 4639      5043445F 
 4639      53544154 
 4639      455F4255 
 4639      535900
 4640              	.LASF29:
 4641 0ccf 47525853 		.ascii	"GRXSTSR\000"
 4641      54535200 
 4642              	.LASF19:
 4643 0cd7 696E7433 		.ascii	"int32_t\000"
 4643      325F7400 
 4644              	.LASF178:
 4645 0cdf 77747365 		.ascii	"wtsemp\000"
 4645      6D7000
 4646              	.LASF188:
 4647 0ce6 6D757465 		.ascii	"mutex_t\000"
 4647      785F7400 
 4648              	.LASF101:
ARM GAS  /tmp/ccPQ1Gqd.s 			page 93


 4649 0cee 62617474 		.ascii	"battery_charging_active\000"
 4649      6572795F 
 4649      63686172 
 4649      67696E67 
 4649      5F616374 
 4650              	.LASF66:
 4651 0d06 74797065 		.ascii	"type\000"
 4651      00
 4652              	.LASF280:
 4653 0d0b 70627566 		.ascii	"pbuf\000"
 4653      00
 4654              	.LASF277:
 4655 0d10 55534244 		.ascii	"USBD_LL_SetUSBAddress\000"
 4655      5F4C4C5F 
 4655      53657455 
 4655      53424164 
 4655      64726573 
 4656              	.LASF156:
 4657 0d26 76697274 		.ascii	"virtual_timers_list_t\000"
 4657      75616C5F 
 4657      74696D65 
 4657      72735F6C 
 4657      6973745F 
 4658              	.LASF269:
 4659 0d3c 65705F61 		.ascii	"ep_addr\000"
 4659      64647200 
 4660              	.LASF285:
 4661 0d44 44656C61 		.ascii	"Delay\000"
 4661      7900
 4662              	.LASF224:
 4663 0d4a 70446573 		.ascii	"pDesc\000"
 4663      6300
 4664              	.LASF250:
 4665 0d50 48414C5F 		.ascii	"HAL_PCD_SetupStageCallback\000"
 4665      5043445F 
 4665      53657475 
 4665      70537461 
 4665      67654361 
 4666              	.LASF126:
 4667 0d6b 705F7072 		.ascii	"p_preempt\000"
 4667      65656D70 
 4667      7400
 4668              	.LASF51:
 4669 0d75 486F7374 		.ascii	"Host_channels\000"
 4669      5F636861 
 4669      6E6E656C 
 4669      7300
 4670              	.LASF125:
 4671 0d83 705F7265 		.ascii	"p_refs\000"
 4671      667300
 4672              	.LASF166:
 4673 0d8a 6D61696E 		.ascii	"mainthread\000"
 4673      74687265 
 4673      616400
 4674              	.LASF209:
 4675 0d95 6465765F 		.ascii	"dev_config\000"
 4675      636F6E66 
ARM GAS  /tmp/ccPQ1Gqd.s 			page 94


 4675      696700
 4676              	.LASF272:
 4677 0da0 55534244 		.ascii	"USBD_LL_CloseEP\000"
 4677      5F4C4C5F 
 4677      436C6F73 
 4677      65455000 
 4678              	.LASF140:
 4679 0db0 72656164 		.ascii	"ready_list_t\000"
 4679      795F6C69 
 4679      73745F74 
 4679      00
 4680              	.LASF151:
 4681 0dbd 76745F6E 		.ascii	"vt_next\000"
 4681      65787400 
 4682              	.LASF258:
 4683 0dc5 48414C5F 		.ascii	"HAL_PCD_ResumeCallback\000"
 4683      5043445F 
 4683      52657375 
 4683      6D654361 
 4683      6C6C6261 
 4684              	.LASF45:
 4685 0ddc 44494550 		.ascii	"DIEPTXF\000"
 4685      54584600 
 4686              	.LASF40:
 4687 0de4 47505752 		.ascii	"GPWRDN\000"
 4687      444E00
 4688              	.LASF113:
 4689 0deb 636E745F 		.ascii	"cnt_t\000"
 4689      7400
 4690              	.LASF267:
 4691 0df1 55534244 		.ascii	"USBD_LL_Stop\000"
 4691      5F4C4C5F 
 4691      53746F70 
 4691      00
 4692              	.LASF39:
 4693 0dfe 474C504D 		.ascii	"GLPMCFG\000"
 4693      43464700 
 4694              	.LASF237:
 4695 0e06 47657444 		.ascii	"GetDeviceDescriptor\000"
 4695      65766963 
 4695      65446573 
 4695      63726970 
 4695      746F7200 
 4696              	.LASF238:
 4697 0e1a 4765744C 		.ascii	"GetLangIDStrDescriptor\000"
 4697      616E6749 
 4697      44537472 
 4697      44657363 
 4697      72697074 
 4698              	.LASF187:
 4699 0e31 6D5F6E65 		.ascii	"m_next\000"
 4699      787400
 4700              	.LASF270:
 4701 0e38 65705F74 		.ascii	"ep_type\000"
 4701      79706500 
 4702              	.LASF87:
 4703 0e40 5043445F 		.ascii	"PCD_TypeDef\000"
ARM GAS  /tmp/ccPQ1Gqd.s 			page 95


 4703      54797065 
 4703      44656600 
 4704              	.LASF1:
 4705 0e4c 7369676E 		.ascii	"signed char\000"
 4705      65642063 
 4705      68617200 
 4706              	.LASF77:
 4707 0e58 48414C5F 		.ascii	"HAL_PCD_STATE_READY\000"
 4707      5043445F 
 4707      53544154 
 4707      455F5245 
 4707      41445900 
 4708              	.LASF7:
 4709 0e6c 73686F72 		.ascii	"short unsigned int\000"
 4709      7420756E 
 4709      7369676E 
 4709      65642069 
 4709      6E7400
 4710              	.LASF255:
 4711 0e7f 48414C5F 		.ascii	"HAL_PCD_SOFCallback\000"
 4711      5043445F 
 4711      534F4643 
 4711      616C6C62 
 4711      61636B00 
 4712              	.LASF169:
 4713 0e93 73746B61 		.ascii	"stkalign_t\000"
 4713      6C69676E 
 4713      5F7400
 4714              	.LASF204:
 4715 0e9e 47657448 		.ascii	"GetHSConfigDescriptor\000"
 4715      53436F6E 
 4715      66696744 
 4715      65736372 
 4715      6970746F 
 4716              	.LASF257:
 4717 0eb4 48414C5F 		.ascii	"HAL_PCD_SuspendCallback\000"
 4717      5043445F 
 4717      53757370 
 4717      656E6443 
 4717      616C6C62 
 4718              	.LASF93:
 4719 0ecc 494E5F65 		.ascii	"IN_ep\000"
 4719      7000
 4720              	.LASF154:
 4721 0ed2 76745F66 		.ascii	"vt_func\000"
 4721      756E6300 
 4722              	.LASF227:
 4723 0eda 70557365 		.ascii	"pUserData\000"
 4723      72446174 
 4723      6100
 4724              	.LASF244:
 4725 0ee4 55534244 		.ascii	"USBD_DescriptorsTypeDef\000"
 4725      5F446573 
 4725      63726970 
 4725      746F7273 
 4725      54797065 
 4726              	.LASF152:
ARM GAS  /tmp/ccPQ1Gqd.s 			page 96


 4727 0efc 76745F70 		.ascii	"vt_prev\000"
 4727      72657600 
 4728              	.LASF215:
 4729 0f04 6570305F 		.ascii	"ep0_state\000"
 4729      73746174 
 4729      6500
 4730              	.LASF228:
 4731 0f0e 55534244 		.ascii	"USBD_ClassTypeDef\000"
 4731      5F436C61 
 4731      73735479 
 4731      70654465 
 4731      6600
 4732              	.LASF34:
 4733 0f20 52657365 		.ascii	"Reserved30\000"
 4733      72766564 
 4733      333000
 4734              	.LASF74:
 4735 0f2b 78666572 		.ascii	"xfer_count\000"
 4735      5F636F75 
 4735      6E7400
 4736              	.LASF230:
 4737 0f36 55534244 		.ascii	"USBD_SPEED_FULL\000"
 4737      5F535045 
 4737      45445F46 
 4737      554C4C00 
 4738              	.LASF248:
 4739 0f46 55534244 		.ascii	"USBD_EndpointTypeDef\000"
 4739      5F456E64 
 4739      706F696E 
 4739      74547970 
 4739      65446566 
 4740              	.LASF175:
 4741 0f5b 65786974 		.ascii	"exitcode\000"
 4741      636F6465 
 4741      00
 4742              	.LASF284:
 4743 0f64 55534244 		.ascii	"USBD_LL_Delay\000"
 4743      5F4C4C5F 
 4743      44656C61 
 4743      7900
 4744              	.LASF120:
 4745 0f72 705F6E65 		.ascii	"p_newer\000"
 4745      77657200 
 4746              	.LASF200:
 4747 0f7a 44617461 		.ascii	"DataIn\000"
 4747      496E00
 4748              		.ident	"GCC: (GNU Tools for ARM Embedded Processors) 4.8.4 20140526 (release) [ARM/embedded-4_8-br
ARM GAS  /tmp/ccPQ1Gqd.s 			page 97


DEFINED SYMBOLS
                            *ABS*:00000000 usbd_conf.c
                            *COM*:000003cc hpcd
     /tmp/ccPQ1Gqd.s:19     .text:00000000 $t
     /tmp/ccPQ1Gqd.s:25     .text:00000000 HAL_PCD_SetupStageCallback
     /tmp/ccPQ1Gqd.s:59     .text:00000020 HAL_PCD_DataOutStageCallback
     /tmp/ccPQ1Gqd.s:103    .text:00000060 HAL_PCD_DataInStageCallback
     /tmp/ccPQ1Gqd.s:147    .text:000000a0 HAL_PCD_SOFCallback
     /tmp/ccPQ1Gqd.s:177    .text:000000c0 HAL_PCD_ResetCallback
     /tmp/ccPQ1Gqd.s:213    .text:000000f0 HAL_PCD_SuspendCallback
     /tmp/ccPQ1Gqd.s:243    .text:00000110 HAL_PCD_ResumeCallback
     /tmp/ccPQ1Gqd.s:273    .text:00000130 HAL_PCD_ISOOUTIncompleteCallback
     /tmp/ccPQ1Gqd.s:307    .text:00000160 HAL_PCD_ISOINIncompleteCallback
     /tmp/ccPQ1Gqd.s:341    .text:00000190 HAL_PCD_ConnectCallback
     /tmp/ccPQ1Gqd.s:371    .text:000001b0 HAL_PCD_DisconnectCallback
     /tmp/ccPQ1Gqd.s:401    .text:000001d0 USBD_LL_Init
     /tmp/ccPQ1Gqd.s:496    .text:0000025c $d
     /tmp/ccPQ1Gqd.s:500    .text:00000260 $t
     /tmp/ccPQ1Gqd.s:506    .text:00000260 USBD_LL_DeInit
     /tmp/ccPQ1Gqd.s:539    .text:00000280 USBD_LL_Start
     /tmp/ccPQ1Gqd.s:572    .text:000002a0 USBD_LL_Stop
     /tmp/ccPQ1Gqd.s:605    .text:000002c0 USBD_LL_OpenEP
     /tmp/ccPQ1Gqd.s:643    .text:00000300 USBD_LL_CloseEP
     /tmp/ccPQ1Gqd.s:680    .text:00000330 USBD_LL_FlushEP
     /tmp/ccPQ1Gqd.s:717    .text:00000360 USBD_LL_StallEP
     /tmp/ccPQ1Gqd.s:754    .text:00000390 USBD_LL_ClearStallEP
     /tmp/ccPQ1Gqd.s:791    .text:000003c0 USBD_LL_IsStallEP
     /tmp/ccPQ1Gqd.s:851    .text:00000420 USBD_LL_SetUSBAddress
     /tmp/ccPQ1Gqd.s:888    .text:00000450 USBD_LL_Transmit
     /tmp/ccPQ1Gqd.s:929    .text:00000490 USBD_LL_PrepareReceive
     /tmp/ccPQ1Gqd.s:970    .text:000004d0 USBD_LL_GetRxDataSize
     /tmp/ccPQ1Gqd.s:1006   .text:00000500 USBD_LL_Delay
                     .debug_frame:00000010 $d

UNDEFINED SYMBOLS
USBD_LL_SetupStage
USBD_LL_DataOutStage
USBD_LL_DataInStage
USBD_LL_SOF
USBD_LL_Reset
USBD_LL_SetSpeed
USBD_LL_Suspend
USBD_LL_Resume
USBD_LL_IsoOUTIncomplete
USBD_LL_IsoINIncomplete
USBD_LL_DevConnected
USBD_LL_DevDisconnected
HAL_PCD_Init
HAL_PCDEx_SetRxFiFo
HAL_PCDEx_SetTxFiFo
HAL_PCD_DeInit
HAL_PCD_Start
HAL_PCD_Stop
HAL_PCD_EP_Open
HAL_PCD_EP_Close
HAL_PCD_EP_Flush
HAL_PCD_EP_SetStall
ARM GAS  /tmp/ccPQ1Gqd.s 			page 98


HAL_PCD_EP_ClrStall
HAL_PCD_SetAddress
HAL_PCD_EP_Transmit
HAL_PCD_EP_Receive
HAL_PCD_EP_GetRxCount
HAL_Delay
