ARM GAS  /tmp/ccPQ1Gqd.s 			page 1


   1              		.syntax unified
   2              		.cpu cortex-m4
   3              		.fpu softvfp
   4              		.eabi_attribute 20, 1
   5              		.eabi_attribute 21, 1
   6              		.eabi_attribute 23, 3
   7              		.eabi_attribute 24, 1
   8              		.eabi_attribute 25, 1
   9              		.eabi_attribute 26, 1
  10              		.eabi_attribute 30, 6
  11              		.eabi_attribute 34, 1
  12              		.eabi_attribute 18, 4
  13              		.thumb
  14              		.file	"usbd_conf.c"
  15              		.text
  16              	.Ltext0:
  17              		.cfi_sections	.debug_frame
  18              		.comm	hpcd,972,4
  19              		.align	2
  20              		.p2align 4,,15
  21              		.global	HAL_PCD_SetupStageCallback
  22              		.thumb
  23              		.thumb_func
  24              		.type	HAL_PCD_SetupStageCallback, %function
  25              	HAL_PCD_SetupStageCallback:
  26              	.LFB263:
  27              		.file 1 "../../../../../Projects/Multi/Applications/BlueMicrosystem2/Src/usbd_conf.c"
  28              		.loc 1 72 0
  29              		.cfi_startproc
  30              		@ args = 0, pretend = 0, frame = 8
  31              		@ frame_needed = 0, uses_anonymous_args = 0
  32 0000 00B5     		push	{lr}
  33              		.cfi_def_cfa_offset 4
  34              		.cfi_offset 14, -4
  35 0002 83B0     		sub	sp, sp, #12
  36              		.cfi_def_cfa_offset 16
  37 0004 0190     		str	r0, [sp, #4]
  38              		.loc 1 73 0
  39 0006 019B     		ldr	r3, [sp, #4]
  40 0008 D3F8C823 		ldr	r2, [r3, #968]
  41 000c 019B     		ldr	r3, [sp, #4]
  42 000e 03F56273 		add	r3, r3, #904
  43 0012 1046     		mov	r0, r2
  44 0014 1946     		mov	r1, r3
  45 0016 FFF7FEFF 		bl	USBD_LL_SetupStage
  46              		.loc 1 74 0
  47 001a 03B0     		add	sp, sp, #12
  48              		@ sp needed
  49 001c 5DF804FB 		ldr	pc, [sp], #4
  50              		.cfi_endproc
  51              	.LFE263:
  52              		.size	HAL_PCD_SetupStageCallback, .-HAL_PCD_SetupStageCallback
  53              		.align	2
  54              		.p2align 4,,15
  55              		.global	HAL_PCD_DataOutStageCallback
  56              		.thumb
  57              		.thumb_func
ARM GAS  /tmp/ccPQ1Gqd.s 			page 2


  58              		.type	HAL_PCD_DataOutStageCallback, %function
  59              	HAL_PCD_DataOutStageCallback:
  60              	.LFB264:
  61              		.loc 1 83 0
  62              		.cfi_startproc
  63              		@ args = 0, pretend = 0, frame = 8
  64              		@ frame_needed = 0, uses_anonymous_args = 0
  65 0020 00B5     		push	{lr}
  66              		.cfi_def_cfa_offset 4
  67              		.cfi_offset 14, -4
  68 0022 83B0     		sub	sp, sp, #12
  69              		.cfi_def_cfa_offset 16
  70 0024 0190     		str	r0, [sp, #4]
  71 0026 0B46     		mov	r3, r1
  72 0028 8DF80330 		strb	r3, [sp, #3]
  73              		.loc 1 84 0
  74 002c 019B     		ldr	r3, [sp, #4]
  75 002e D3F8C813 		ldr	r1, [r3, #968]
  76 0032 9DF80320 		ldrb	r2, [sp, #3]	@ zero_extendqisi2
  77 0036 0198     		ldr	r0, [sp, #4]
  78 0038 1346     		mov	r3, r2
  79 003a DB00     		lsls	r3, r3, #3
  80 003c 9B1A     		subs	r3, r3, r2
  81 003e 9B00     		lsls	r3, r3, #2
  82 0040 0344     		add	r3, r3, r0
  83 0042 03F5F473 		add	r3, r3, #488
  84 0046 5B68     		ldr	r3, [r3, #4]
  85 0048 9DF80320 		ldrb	r2, [sp, #3]	@ zero_extendqisi2
  86 004c 0846     		mov	r0, r1
  87 004e 1146     		mov	r1, r2
  88 0050 1A46     		mov	r2, r3
  89 0052 FFF7FEFF 		bl	USBD_LL_DataOutStage
  90              		.loc 1 85 0
  91 0056 03B0     		add	sp, sp, #12
  92              		@ sp needed
  93 0058 5DF804FB 		ldr	pc, [sp], #4
  94              		.cfi_endproc
  95              	.LFE264:
  96              		.size	HAL_PCD_DataOutStageCallback, .-HAL_PCD_DataOutStageCallback
  97              		.align	2
  98 005c AFF30080 		.p2align 4,,15
  99              		.global	HAL_PCD_DataInStageCallback
 100              		.thumb
 101              		.thumb_func
 102              		.type	HAL_PCD_DataInStageCallback, %function
 103              	HAL_PCD_DataInStageCallback:
 104              	.LFB265:
 105              		.loc 1 94 0
 106              		.cfi_startproc
 107              		@ args = 0, pretend = 0, frame = 8
 108              		@ frame_needed = 0, uses_anonymous_args = 0
 109 0060 00B5     		push	{lr}
 110              		.cfi_def_cfa_offset 4
 111              		.cfi_offset 14, -4
 112 0062 83B0     		sub	sp, sp, #12
 113              		.cfi_def_cfa_offset 16
 114 0064 0190     		str	r0, [sp, #4]
ARM GAS  /tmp/ccPQ1Gqd.s 			page 3


 115 0066 0B46     		mov	r3, r1
 116 0068 8DF80330 		strb	r3, [sp, #3]
 117              		.loc 1 95 0
 118 006c 019B     		ldr	r3, [sp, #4]
 119 006e D3F8C813 		ldr	r1, [r3, #968]
 120 0072 9DF80320 		ldrb	r2, [sp, #3]	@ zero_extendqisi2
 121 0076 0198     		ldr	r0, [sp, #4]
 122 0078 1346     		mov	r3, r2
 123 007a DB00     		lsls	r3, r3, #3
 124 007c 9B1A     		subs	r3, r3, r2
 125 007e 9B00     		lsls	r3, r3, #2
 126 0080 0344     		add	r3, r3, r0
 127 0082 4033     		adds	r3, r3, #64
 128 0084 9B68     		ldr	r3, [r3, #8]
 129 0086 9DF80320 		ldrb	r2, [sp, #3]	@ zero_extendqisi2
 130 008a 0846     		mov	r0, r1
 131 008c 1146     		mov	r1, r2
 132 008e 1A46     		mov	r2, r3
 133 0090 FFF7FEFF 		bl	USBD_LL_DataInStage
 134              		.loc 1 96 0
 135 0094 03B0     		add	sp, sp, #12
 136              		@ sp needed
 137 0096 5DF804FB 		ldr	pc, [sp], #4
 138              		.cfi_endproc
 139              	.LFE265:
 140              		.size	HAL_PCD_DataInStageCallback, .-HAL_PCD_DataInStageCallback
 141 009a 00BF     		.align	2
 142 009c AFF30080 		.p2align 4,,15
 143              		.global	HAL_PCD_SOFCallback
 144              		.thumb
 145              		.thumb_func
 146              		.type	HAL_PCD_SOFCallback, %function
 147              	HAL_PCD_SOFCallback:
 148              	.LFB266:
 149              		.loc 1 104 0
 150              		.cfi_startproc
 151              		@ args = 0, pretend = 0, frame = 8
 152              		@ frame_needed = 0, uses_anonymous_args = 0
 153 00a0 00B5     		push	{lr}
 154              		.cfi_def_cfa_offset 4
 155              		.cfi_offset 14, -4
 156 00a2 83B0     		sub	sp, sp, #12
 157              		.cfi_def_cfa_offset 16
 158 00a4 0190     		str	r0, [sp, #4]
 159              		.loc 1 105 0
 160 00a6 019B     		ldr	r3, [sp, #4]
 161 00a8 D3F8C833 		ldr	r3, [r3, #968]
 162 00ac 1846     		mov	r0, r3
 163 00ae FFF7FEFF 		bl	USBD_LL_SOF
 164              		.loc 1 106 0
 165 00b2 03B0     		add	sp, sp, #12
 166              		@ sp needed
 167 00b4 5DF804FB 		ldr	pc, [sp], #4
 168              		.cfi_endproc
 169              	.LFE266:
 170              		.size	HAL_PCD_SOFCallback, .-HAL_PCD_SOFCallback
 171              		.align	2
ARM GAS  /tmp/ccPQ1Gqd.s 			page 4


 172 00b8 AFF30080 		.p2align 4,,15
 172      AFF30080 
 173              		.global	HAL_PCD_ResetCallback
 174              		.thumb
 175              		.thumb_func
 176              		.type	HAL_PCD_ResetCallback, %function
 177              	HAL_PCD_ResetCallback:
 178              	.LFB267:
 179              		.loc 1 114 0
 180              		.cfi_startproc
 181              		@ args = 0, pretend = 0, frame = 8
 182              		@ frame_needed = 0, uses_anonymous_args = 0
 183 00c0 00B5     		push	{lr}
 184              		.cfi_def_cfa_offset 4
 185              		.cfi_offset 14, -4
 186 00c2 83B0     		sub	sp, sp, #12
 187              		.cfi_def_cfa_offset 16
 188 00c4 0190     		str	r0, [sp, #4]
 189              		.loc 1 116 0
 190 00c6 019B     		ldr	r3, [sp, #4]
 191 00c8 D3F8C833 		ldr	r3, [r3, #968]
 192 00cc 1846     		mov	r0, r3
 193 00ce FFF7FEFF 		bl	USBD_LL_Reset
 194              		.loc 1 119 0
 195 00d2 019B     		ldr	r3, [sp, #4]
 196 00d4 D3F8C833 		ldr	r3, [r3, #968]
 197 00d8 1846     		mov	r0, r3
 198 00da 0121     		movs	r1, #1
 199 00dc FFF7FEFF 		bl	USBD_LL_SetSpeed
 200              		.loc 1 120 0
 201 00e0 03B0     		add	sp, sp, #12
 202              		@ sp needed
 203 00e2 5DF804FB 		ldr	pc, [sp], #4
 204              		.cfi_endproc
 205              	.LFE267:
 206              		.size	HAL_PCD_ResetCallback, .-HAL_PCD_ResetCallback
 207 00e6 00BF     		.align	2
 208 00e8 AFF30080 		.p2align 4,,15
 208      AFF30080 
 209              		.global	HAL_PCD_SuspendCallback
 210              		.thumb
 211              		.thumb_func
 212              		.type	HAL_PCD_SuspendCallback, %function
 213              	HAL_PCD_SuspendCallback:
 214              	.LFB268:
 215              		.loc 1 128 0
 216              		.cfi_startproc
 217              		@ args = 0, pretend = 0, frame = 8
 218              		@ frame_needed = 0, uses_anonymous_args = 0
 219 00f0 00B5     		push	{lr}
 220              		.cfi_def_cfa_offset 4
 221              		.cfi_offset 14, -4
 222 00f2 83B0     		sub	sp, sp, #12
 223              		.cfi_def_cfa_offset 16
 224 00f4 0190     		str	r0, [sp, #4]
 225              		.loc 1 129 0
 226 00f6 019B     		ldr	r3, [sp, #4]
ARM GAS  /tmp/ccPQ1Gqd.s 			page 5


 227 00f8 D3F8C833 		ldr	r3, [r3, #968]
 228 00fc 1846     		mov	r0, r3
 229 00fe FFF7FEFF 		bl	USBD_LL_Suspend
 230              		.loc 1 130 0
 231 0102 03B0     		add	sp, sp, #12
 232              		@ sp needed
 233 0104 5DF804FB 		ldr	pc, [sp], #4
 234              		.cfi_endproc
 235              	.LFE268:
 236              		.size	HAL_PCD_SuspendCallback, .-HAL_PCD_SuspendCallback
 237              		.align	2
 238 0108 AFF30080 		.p2align 4,,15
 238      AFF30080 
 239              		.global	HAL_PCD_ResumeCallback
 240              		.thumb
 241              		.thumb_func
 242              		.type	HAL_PCD_ResumeCallback, %function
 243              	HAL_PCD_ResumeCallback:
 244              	.LFB269:
 245              		.loc 1 138 0
 246              		.cfi_startproc
 247              		@ args = 0, pretend = 0, frame = 8
 248              		@ frame_needed = 0, uses_anonymous_args = 0
 249 0110 00B5     		push	{lr}
 250              		.cfi_def_cfa_offset 4
 251              		.cfi_offset 14, -4
 252 0112 83B0     		sub	sp, sp, #12
 253              		.cfi_def_cfa_offset 16
 254 0114 0190     		str	r0, [sp, #4]
 255              		.loc 1 139 0
 256 0116 019B     		ldr	r3, [sp, #4]
 257 0118 D3F8C833 		ldr	r3, [r3, #968]
 258 011c 1846     		mov	r0, r3
 259 011e FFF7FEFF 		bl	USBD_LL_Resume
 260              		.loc 1 140 0
 261 0122 03B0     		add	sp, sp, #12
 262              		@ sp needed
 263 0124 5DF804FB 		ldr	pc, [sp], #4
 264              		.cfi_endproc
 265              	.LFE269:
 266              		.size	HAL_PCD_ResumeCallback, .-HAL_PCD_ResumeCallback
 267              		.align	2
 268 0128 AFF30080 		.p2align 4,,15
 268      AFF30080 
 269              		.global	HAL_PCD_ISOOUTIncompleteCallback
 270              		.thumb
 271              		.thumb_func
 272              		.type	HAL_PCD_ISOOUTIncompleteCallback, %function
 273              	HAL_PCD_ISOOUTIncompleteCallback:
 274              	.LFB270:
 275              		.loc 1 149 0
 276              		.cfi_startproc
 277              		@ args = 0, pretend = 0, frame = 8
 278              		@ frame_needed = 0, uses_anonymous_args = 0
 279 0130 00B5     		push	{lr}
 280              		.cfi_def_cfa_offset 4
 281              		.cfi_offset 14, -4
ARM GAS  /tmp/ccPQ1Gqd.s 			page 6


 282 0132 83B0     		sub	sp, sp, #12
 283              		.cfi_def_cfa_offset 16
 284 0134 0190     		str	r0, [sp, #4]
 285 0136 0B46     		mov	r3, r1
 286 0138 8DF80330 		strb	r3, [sp, #3]
 287              		.loc 1 150 0
 288 013c 019B     		ldr	r3, [sp, #4]
 289 013e D3F8C823 		ldr	r2, [r3, #968]
 290 0142 9DF80330 		ldrb	r3, [sp, #3]	@ zero_extendqisi2
 291 0146 1046     		mov	r0, r2
 292 0148 1946     		mov	r1, r3
 293 014a FFF7FEFF 		bl	USBD_LL_IsoOUTIncomplete
 294              		.loc 1 151 0
 295 014e 03B0     		add	sp, sp, #12
 296              		@ sp needed
 297 0150 5DF804FB 		ldr	pc, [sp], #4
 298              		.cfi_endproc
 299              	.LFE270:
 300              		.size	HAL_PCD_ISOOUTIncompleteCallback, .-HAL_PCD_ISOOUTIncompleteCallback
 301              		.align	2
 302 0154 AFF30080 		.p2align 4,,15
 302      AFF30080 
 302      AFF30080 
 303              		.global	HAL_PCD_ISOINIncompleteCallback
 304              		.thumb
 305              		.thumb_func
 306              		.type	HAL_PCD_ISOINIncompleteCallback, %function
 307              	HAL_PCD_ISOINIncompleteCallback:
 308              	.LFB271:
 309              		.loc 1 160 0
 310              		.cfi_startproc
 311              		@ args = 0, pretend = 0, frame = 8
 312              		@ frame_needed = 0, uses_anonymous_args = 0
 313 0160 00B5     		push	{lr}
 314              		.cfi_def_cfa_offset 4
 315              		.cfi_offset 14, -4
 316 0162 83B0     		sub	sp, sp, #12
 317              		.cfi_def_cfa_offset 16
 318 0164 0190     		str	r0, [sp, #4]
 319 0166 0B46     		mov	r3, r1
 320 0168 8DF80330 		strb	r3, [sp, #3]
 321              		.loc 1 161 0
 322 016c 019B     		ldr	r3, [sp, #4]
 323 016e D3F8C823 		ldr	r2, [r3, #968]
 324 0172 9DF80330 		ldrb	r3, [sp, #3]	@ zero_extendqisi2
 325 0176 1046     		mov	r0, r2
 326 0178 1946     		mov	r1, r3
 327 017a FFF7FEFF 		bl	USBD_LL_IsoINIncomplete
 328              		.loc 1 162 0
 329 017e 03B0     		add	sp, sp, #12
 330              		@ sp needed
 331 0180 5DF804FB 		ldr	pc, [sp], #4
 332              		.cfi_endproc
 333              	.LFE271:
 334              		.size	HAL_PCD_ISOINIncompleteCallback, .-HAL_PCD_ISOINIncompleteCallback
 335              		.align	2
 336 0184 AFF30080 		.p2align 4,,15
ARM GAS  /tmp/ccPQ1Gqd.s 			page 7


 336      AFF30080 
 336      AFF30080 
 337              		.global	HAL_PCD_ConnectCallback
 338              		.thumb
 339              		.thumb_func
 340              		.type	HAL_PCD_ConnectCallback, %function
 341              	HAL_PCD_ConnectCallback:
 342              	.LFB272:
 343              		.loc 1 170 0
 344              		.cfi_startproc
 345              		@ args = 0, pretend = 0, frame = 8
 346              		@ frame_needed = 0, uses_anonymous_args = 0
 347 0190 00B5     		push	{lr}
 348              		.cfi_def_cfa_offset 4
 349              		.cfi_offset 14, -4
 350 0192 83B0     		sub	sp, sp, #12
 351              		.cfi_def_cfa_offset 16
 352 0194 0190     		str	r0, [sp, #4]
 353              		.loc 1 171 0
 354 0196 019B     		ldr	r3, [sp, #4]
 355 0198 D3F8C833 		ldr	r3, [r3, #968]
 356 019c 1846     		mov	r0, r3
 357 019e FFF7FEFF 		bl	USBD_LL_DevConnected
 358              		.loc 1 172 0
 359 01a2 03B0     		add	sp, sp, #12
 360              		@ sp needed
 361 01a4 5DF804FB 		ldr	pc, [sp], #4
 362              		.cfi_endproc
 363              	.LFE272:
 364              		.size	HAL_PCD_ConnectCallback, .-HAL_PCD_ConnectCallback
 365              		.align	2
 366 01a8 AFF30080 		.p2align 4,,15
 366      AFF30080 
 367              		.global	HAL_PCD_DisconnectCallback
 368              		.thumb
 369              		.thumb_func
 370              		.type	HAL_PCD_DisconnectCallback, %function
 371              	HAL_PCD_DisconnectCallback:
 372              	.LFB273:
 373              		.loc 1 180 0
 374              		.cfi_startproc
 375              		@ args = 0, pretend = 0, frame = 8
 376              		@ frame_needed = 0, uses_anonymous_args = 0
 377 01b0 00B5     		push	{lr}
 378              		.cfi_def_cfa_offset 4
 379              		.cfi_offset 14, -4
 380 01b2 83B0     		sub	sp, sp, #12
 381              		.cfi_def_cfa_offset 16
 382 01b4 0190     		str	r0, [sp, #4]
 383              		.loc 1 181 0
 384 01b6 019B     		ldr	r3, [sp, #4]
 385 01b8 D3F8C833 		ldr	r3, [r3, #968]
 386 01bc 1846     		mov	r0, r3
 387 01be FFF7FEFF 		bl	USBD_LL_DevDisconnected
 388              		.loc 1 182 0
 389 01c2 03B0     		add	sp, sp, #12
 390              		@ sp needed
ARM GAS  /tmp/ccPQ1Gqd.s 			page 8


 391 01c4 5DF804FB 		ldr	pc, [sp], #4
 392              		.cfi_endproc
 393              	.LFE273:
 394              		.size	HAL_PCD_DisconnectCallback, .-HAL_PCD_DisconnectCallback
 395              		.align	2
 396 01c8 AFF30080 		.p2align 4,,15
 396      AFF30080 
 397              		.global	USBD_LL_Init
 398              		.thumb
 399              		.thumb_func
 400              		.type	USBD_LL_Init, %function
 401              	USBD_LL_Init:
 402              	.LFB274:
 403              		.loc 1 195 0
 404              		.cfi_startproc
 405              		@ args = 0, pretend = 0, frame = 8
 406              		@ frame_needed = 0, uses_anonymous_args = 0
 407 01d0 00B5     		push	{lr}
 408              		.cfi_def_cfa_offset 4
 409              		.cfi_offset 14, -4
 410 01d2 83B0     		sub	sp, sp, #12
 411              		.cfi_def_cfa_offset 16
 412 01d4 0190     		str	r0, [sp, #4]
 413              		.loc 1 197 0
 414 01d6 214B     		ldr	r3, .L14
 415 01d8 4FF0A042 		mov	r2, #1342177280
 416 01dc 1A60     		str	r2, [r3]
 417              		.loc 1 198 0
 418 01de 1F4B     		ldr	r3, .L14
 419 01e0 0522     		movs	r2, #5
 420 01e2 5A60     		str	r2, [r3, #4]
 421              		.loc 1 199 0
 422 01e4 1D4B     		ldr	r3, .L14
 423 01e6 0022     		movs	r2, #0
 424 01e8 1A63     		str	r2, [r3, #48]
 425              		.loc 1 200 0
 426 01ea 1C4B     		ldr	r3, .L14
 427 01ec 4022     		movs	r2, #64
 428 01ee 5A61     		str	r2, [r3, #20]
 429              		.loc 1 201 0
 430 01f0 1A4B     		ldr	r3, .L14
 431 01f2 0022     		movs	r2, #0
 432 01f4 1A61     		str	r2, [r3, #16]
 433              		.loc 1 202 0
 434 01f6 194B     		ldr	r3, .L14
 435 01f8 0022     		movs	r2, #0
 436 01fa 1A62     		str	r2, [r3, #32]
 437              		.loc 1 203 0
 438 01fc 174B     		ldr	r3, .L14
 439 01fe 0022     		movs	r2, #0
 440 0200 5A62     		str	r2, [r3, #36]
 441              		.loc 1 204 0
 442 0202 164B     		ldr	r3, .L14
 443 0204 0022     		movs	r2, #0
 444 0206 9A62     		str	r2, [r3, #40]
 445              		.loc 1 205 0
 446 0208 144B     		ldr	r3, .L14
ARM GAS  /tmp/ccPQ1Gqd.s 			page 9


 447 020a 0122     		movs	r2, #1
 448 020c 9A61     		str	r2, [r3, #24]
 449              		.loc 1 206 0
 450 020e 134B     		ldr	r3, .L14
 451 0210 0022     		movs	r2, #0
 452 0212 DA61     		str	r2, [r3, #28]
 453              		.loc 1 207 0
 454 0214 114B     		ldr	r3, .L14
 455 0216 0122     		movs	r2, #1
 456 0218 DA60     		str	r2, [r3, #12]
 457              		.loc 1 208 0
 458 021a 104B     		ldr	r3, .L14
 459 021c 0022     		movs	r2, #0
 460 021e DA62     		str	r2, [r3, #44]
 461              		.loc 1 210 0
 462 0220 0E4B     		ldr	r3, .L14
 463 0222 019A     		ldr	r2, [sp, #4]
 464 0224 C3F8C823 		str	r2, [r3, #968]
 465              		.loc 1 211 0
 466 0228 019B     		ldr	r3, [sp, #4]
 467 022a 0C4A     		ldr	r2, .L14
 468 022c C3F82022 		str	r2, [r3, #544]
 469              		.loc 1 213 0
 470 0230 0A48     		ldr	r0, .L14
 471 0232 FFF7FEFF 		bl	HAL_PCD_Init
 472              		.loc 1 215 0
 473 0236 0948     		ldr	r0, .L14
 474 0238 8021     		movs	r1, #128
 475 023a FFF7FEFF 		bl	HAL_PCDEx_SetRxFiFo
 476              		.loc 1 216 0
 477 023e 0748     		ldr	r0, .L14
 478 0240 0021     		movs	r1, #0
 479 0242 4022     		movs	r2, #64
 480 0244 FFF7FEFF 		bl	HAL_PCDEx_SetTxFiFo
 481              		.loc 1 217 0
 482 0248 0448     		ldr	r0, .L14
 483 024a 0121     		movs	r1, #1
 484 024c 8022     		movs	r2, #128
 485 024e FFF7FEFF 		bl	HAL_PCDEx_SetTxFiFo
 486              		.loc 1 219 0
 487 0252 0023     		movs	r3, #0
 488              		.loc 1 220 0
 489 0254 1846     		mov	r0, r3
 490 0256 03B0     		add	sp, sp, #12
 491              		@ sp needed
 492 0258 5DF804FB 		ldr	pc, [sp], #4
 493              	.L15:
 494              		.align	2
 495              	.L14:
 496 025c 00000000 		.word	hpcd
 497              		.cfi_endproc
 498              	.LFE274:
 499              		.size	USBD_LL_Init, .-USBD_LL_Init
 500              		.align	2
 501              		.p2align 4,,15
 502              		.global	USBD_LL_DeInit
 503              		.thumb
ARM GAS  /tmp/ccPQ1Gqd.s 			page 10


 504              		.thumb_func
 505              		.type	USBD_LL_DeInit, %function
 506              	USBD_LL_DeInit:
 507              	.LFB275:
 508              		.loc 1 228 0
 509              		.cfi_startproc
 510              		@ args = 0, pretend = 0, frame = 8
 511              		@ frame_needed = 0, uses_anonymous_args = 0
 512 0260 00B5     		push	{lr}
 513              		.cfi_def_cfa_offset 4
 514              		.cfi_offset 14, -4
 515 0262 83B0     		sub	sp, sp, #12
 516              		.cfi_def_cfa_offset 16
 517 0264 0190     		str	r0, [sp, #4]
 518              		.loc 1 229 0
 519 0266 019B     		ldr	r3, [sp, #4]
 520 0268 D3F82032 		ldr	r3, [r3, #544]
 521 026c 1846     		mov	r0, r3
 522 026e FFF7FEFF 		bl	HAL_PCD_DeInit
 523              		.loc 1 230 0
 524 0272 0023     		movs	r3, #0
 525              		.loc 1 231 0
 526 0274 1846     		mov	r0, r3
 527 0276 03B0     		add	sp, sp, #12
 528              		@ sp needed
 529 0278 5DF804FB 		ldr	pc, [sp], #4
 530              		.cfi_endproc
 531              	.LFE275:
 532              		.size	USBD_LL_DeInit, .-USBD_LL_DeInit
 533              		.align	2
 534 027c AFF30080 		.p2align 4,,15
 535              		.global	USBD_LL_Start
 536              		.thumb
 537              		.thumb_func
 538              		.type	USBD_LL_Start, %function
 539              	USBD_LL_Start:
 540              	.LFB276:
 541              		.loc 1 239 0
 542              		.cfi_startproc
 543              		@ args = 0, pretend = 0, frame = 8
 544              		@ frame_needed = 0, uses_anonymous_args = 0
 545 0280 00B5     		push	{lr}
 546              		.cfi_def_cfa_offset 4
 547              		.cfi_offset 14, -4
 548 0282 83B0     		sub	sp, sp, #12
 549              		.cfi_def_cfa_offset 16
 550 0284 0190     		str	r0, [sp, #4]
 551              		.loc 1 240 0
 552 0286 019B     		ldr	r3, [sp, #4]
 553 0288 D3F82032 		ldr	r3, [r3, #544]
 554 028c 1846     		mov	r0, r3
 555 028e FFF7FEFF 		bl	HAL_PCD_Start
 556              		.loc 1 241 0
 557 0292 0023     		movs	r3, #0
 558              		.loc 1 242 0
 559 0294 1846     		mov	r0, r3
 560 0296 03B0     		add	sp, sp, #12
ARM GAS  /tmp/ccPQ1Gqd.s 			page 11


 561              		@ sp needed
 562 0298 5DF804FB 		ldr	pc, [sp], #4
 563              		.cfi_endproc
 564              	.LFE276:
 565              		.size	USBD_LL_Start, .-USBD_LL_Start
 566              		.align	2
 567 029c AFF30080 		.p2align 4,,15
 568              		.global	USBD_LL_Stop
 569              		.thumb
 570              		.thumb_func
 571              		.type	USBD_LL_Stop, %function
 572              	USBD_LL_Stop:
 573              	.LFB277:
 574              		.loc 1 250 0
 575              		.cfi_startproc
 576              		@ args = 0, pretend = 0, frame = 8
 577              		@ frame_needed = 0, uses_anonymous_args = 0
 578 02a0 00B5     		push	{lr}
 579              		.cfi_def_cfa_offset 4
 580              		.cfi_offset 14, -4
 581 02a2 83B0     		sub	sp, sp, #12
 582              		.cfi_def_cfa_offset 16
 583 02a4 0190     		str	r0, [sp, #4]
 584              		.loc 1 251 0
 585 02a6 019B     		ldr	r3, [sp, #4]
 586 02a8 D3F82032 		ldr	r3, [r3, #544]
 587 02ac 1846     		mov	r0, r3
 588 02ae FFF7FEFF 		bl	HAL_PCD_Stop
 589              		.loc 1 252 0
 590 02b2 0023     		movs	r3, #0
 591              		.loc 1 253 0
 592 02b4 1846     		mov	r0, r3
 593 02b6 03B0     		add	sp, sp, #12
 594              		@ sp needed
 595 02b8 5DF804FB 		ldr	pc, [sp], #4
 596              		.cfi_endproc
 597              	.LFE277:
 598              		.size	USBD_LL_Stop, .-USBD_LL_Stop
 599              		.align	2
 600 02bc AFF30080 		.p2align 4,,15
 601              		.global	USBD_LL_OpenEP
 602              		.thumb
 603              		.thumb_func
 604              		.type	USBD_LL_OpenEP, %function
 605              	USBD_LL_OpenEP:
 606              	.LFB278:
 607              		.loc 1 267 0
 608              		.cfi_startproc
 609              		@ args = 0, pretend = 0, frame = 8
 610              		@ frame_needed = 0, uses_anonymous_args = 0
 611 02c0 00B5     		push	{lr}
 612              		.cfi_def_cfa_offset 4
 613              		.cfi_offset 14, -4
 614 02c2 83B0     		sub	sp, sp, #12
 615              		.cfi_def_cfa_offset 16
 616 02c4 0190     		str	r0, [sp, #4]
 617 02c6 8DF80310 		strb	r1, [sp, #3]
ARM GAS  /tmp/ccPQ1Gqd.s 			page 12


 618 02ca 8DF80220 		strb	r2, [sp, #2]
 619 02ce ADF80030 		strh	r3, [sp]	@ movhi
 620              		.loc 1 268 0
 621 02d2 019B     		ldr	r3, [sp, #4]
 622 02d4 D3F82002 		ldr	r0, [r3, #544]
 623 02d8 9DF80310 		ldrb	r1, [sp, #3]	@ zero_extendqisi2
 624 02dc BDF80020 		ldrh	r2, [sp]
 625 02e0 9DF80230 		ldrb	r3, [sp, #2]	@ zero_extendqisi2
 626 02e4 FFF7FEFF 		bl	HAL_PCD_EP_Open
 627              		.loc 1 273 0
 628 02e8 0023     		movs	r3, #0
 629              		.loc 1 274 0
 630 02ea 1846     		mov	r0, r3
 631 02ec 03B0     		add	sp, sp, #12
 632              		@ sp needed
 633 02ee 5DF804FB 		ldr	pc, [sp], #4
 634              		.cfi_endproc
 635              	.LFE278:
 636              		.size	USBD_LL_OpenEP, .-USBD_LL_OpenEP
 637 02f2 00BF     		.align	2
 638 02f4 AFF30080 		.p2align 4,,15
 638      AFF30080 
 638      AFF30080 
 639              		.global	USBD_LL_CloseEP
 640              		.thumb
 641              		.thumb_func
 642              		.type	USBD_LL_CloseEP, %function
 643              	USBD_LL_CloseEP:
 644              	.LFB279:
 645              		.loc 1 283 0
 646              		.cfi_startproc
 647              		@ args = 0, pretend = 0, frame = 8
 648              		@ frame_needed = 0, uses_anonymous_args = 0
 649 0300 00B5     		push	{lr}
 650              		.cfi_def_cfa_offset 4
 651              		.cfi_offset 14, -4
 652 0302 83B0     		sub	sp, sp, #12
 653              		.cfi_def_cfa_offset 16
 654 0304 0190     		str	r0, [sp, #4]
 655 0306 0B46     		mov	r3, r1
 656 0308 8DF80330 		strb	r3, [sp, #3]
 657              		.loc 1 284 0
 658 030c 019B     		ldr	r3, [sp, #4]
 659 030e D3F82022 		ldr	r2, [r3, #544]
 660 0312 9DF80330 		ldrb	r3, [sp, #3]	@ zero_extendqisi2
 661 0316 1046     		mov	r0, r2
 662 0318 1946     		mov	r1, r3
 663 031a FFF7FEFF 		bl	HAL_PCD_EP_Close
 664              		.loc 1 285 0
 665 031e 0023     		movs	r3, #0
 666              		.loc 1 286 0
 667 0320 1846     		mov	r0, r3
 668 0322 03B0     		add	sp, sp, #12
 669              		@ sp needed
 670 0324 5DF804FB 		ldr	pc, [sp], #4
 671              		.cfi_endproc
 672              	.LFE279:
ARM GAS  /tmp/ccPQ1Gqd.s 			page 13


 673              		.size	USBD_LL_CloseEP, .-USBD_LL_CloseEP
 674              		.align	2
 675 0328 AFF30080 		.p2align 4,,15
 675      AFF30080 
 676              		.global	USBD_LL_FlushEP
 677              		.thumb
 678              		.thumb_func
 679              		.type	USBD_LL_FlushEP, %function
 680              	USBD_LL_FlushEP:
 681              	.LFB280:
 682              		.loc 1 295 0
 683              		.cfi_startproc
 684              		@ args = 0, pretend = 0, frame = 8
 685              		@ frame_needed = 0, uses_anonymous_args = 0
 686 0330 00B5     		push	{lr}
 687              		.cfi_def_cfa_offset 4
 688              		.cfi_offset 14, -4
 689 0332 83B0     		sub	sp, sp, #12
 690              		.cfi_def_cfa_offset 16
 691 0334 0190     		str	r0, [sp, #4]
 692 0336 0B46     		mov	r3, r1
 693 0338 8DF80330 		strb	r3, [sp, #3]
 694              		.loc 1 296 0
 695 033c 019B     		ldr	r3, [sp, #4]
 696 033e D3F82022 		ldr	r2, [r3, #544]
 697 0342 9DF80330 		ldrb	r3, [sp, #3]	@ zero_extendqisi2
 698 0346 1046     		mov	r0, r2
 699 0348 1946     		mov	r1, r3
 700 034a FFF7FEFF 		bl	HAL_PCD_EP_Flush
 701              		.loc 1 297 0
 702 034e 0023     		movs	r3, #0
 703              		.loc 1 298 0
 704 0350 1846     		mov	r0, r3
 705 0352 03B0     		add	sp, sp, #12
 706              		@ sp needed
 707 0354 5DF804FB 		ldr	pc, [sp], #4
 708              		.cfi_endproc
 709              	.LFE280:
 710              		.size	USBD_LL_FlushEP, .-USBD_LL_FlushEP
 711              		.align	2
 712 0358 AFF30080 		.p2align 4,,15
 712      AFF30080 
 713              		.global	USBD_LL_StallEP
 714              		.thumb
 715              		.thumb_func
 716              		.type	USBD_LL_StallEP, %function
 717              	USBD_LL_StallEP:
 718              	.LFB281:
 719              		.loc 1 307 0
 720              		.cfi_startproc
 721              		@ args = 0, pretend = 0, frame = 8
 722              		@ frame_needed = 0, uses_anonymous_args = 0
 723 0360 00B5     		push	{lr}
 724              		.cfi_def_cfa_offset 4
 725              		.cfi_offset 14, -4
 726 0362 83B0     		sub	sp, sp, #12
 727              		.cfi_def_cfa_offset 16
ARM GAS  /tmp/ccPQ1Gqd.s 			page 14


 728 0364 0190     		str	r0, [sp, #4]
 729 0366 0B46     		mov	r3, r1
 730 0368 8DF80330 		strb	r3, [sp, #3]
 731              		.loc 1 308 0
 732 036c 019B     		ldr	r3, [sp, #4]
 733 036e D3F82022 		ldr	r2, [r3, #544]
 734 0372 9DF80330 		ldrb	r3, [sp, #3]	@ zero_extendqisi2
 735 0376 1046     		mov	r0, r2
 736 0378 1946     		mov	r1, r3
 737 037a FFF7FEFF 		bl	HAL_PCD_EP_SetStall
 738              		.loc 1 309 0
 739 037e 0023     		movs	r3, #0
 740              		.loc 1 310 0
 741 0380 1846     		mov	r0, r3
 742 0382 03B0     		add	sp, sp, #12
 743              		@ sp needed
 744 0384 5DF804FB 		ldr	pc, [sp], #4
 745              		.cfi_endproc
 746              	.LFE281:
 747              		.size	USBD_LL_StallEP, .-USBD_LL_StallEP
 748              		.align	2
 749 0388 AFF30080 		.p2align 4,,15
 749      AFF30080 
 750              		.global	USBD_LL_ClearStallEP
 751              		.thumb
 752              		.thumb_func
 753              		.type	USBD_LL_ClearStallEP, %function
 754              	USBD_LL_ClearStallEP:
 755              	.LFB282:
 756              		.loc 1 319 0
 757              		.cfi_startproc
 758              		@ args = 0, pretend = 0, frame = 8
 759              		@ frame_needed = 0, uses_anonymous_args = 0
 760 0390 00B5     		push	{lr}
 761              		.cfi_def_cfa_offset 4
 762              		.cfi_offset 14, -4
 763 0392 83B0     		sub	sp, sp, #12
 764              		.cfi_def_cfa_offset 16
 765 0394 0190     		str	r0, [sp, #4]
 766 0396 0B46     		mov	r3, r1
 767 0398 8DF80330 		strb	r3, [sp, #3]
 768              		.loc 1 320 0
 769 039c 019B     		ldr	r3, [sp, #4]
 770 039e D3F82022 		ldr	r2, [r3, #544]
 771 03a2 9DF80330 		ldrb	r3, [sp, #3]	@ zero_extendqisi2
 772 03a6 1046     		mov	r0, r2
 773 03a8 1946     		mov	r1, r3
 774 03aa FFF7FEFF 		bl	HAL_PCD_EP_ClrStall
 775              		.loc 1 321 0
 776 03ae 0023     		movs	r3, #0
 777              		.loc 1 322 0
 778 03b0 1846     		mov	r0, r3
 779 03b2 03B0     		add	sp, sp, #12
 780              		@ sp needed
 781 03b4 5DF804FB 		ldr	pc, [sp], #4
 782              		.cfi_endproc
 783              	.LFE282:
ARM GAS  /tmp/ccPQ1Gqd.s 			page 15


 784              		.size	USBD_LL_ClearStallEP, .-USBD_LL_ClearStallEP
 785              		.align	2
 786 03b8 AFF30080 		.p2align 4,,15
 786      AFF30080 
 787              		.global	USBD_LL_IsStallEP
 788              		.thumb
 789              		.thumb_func
 790              		.type	USBD_LL_IsStallEP, %function
 791              	USBD_LL_IsStallEP:
 792              	.LFB283:
 793              		.loc 1 331 0
 794              		.cfi_startproc
 795              		@ args = 0, pretend = 0, frame = 16
 796              		@ frame_needed = 0, uses_anonymous_args = 0
 797              		@ link register save eliminated.
 798 03c0 84B0     		sub	sp, sp, #16
 799              		.cfi_def_cfa_offset 16
 800 03c2 0190     		str	r0, [sp, #4]
 801 03c4 0B46     		mov	r3, r1
 802 03c6 8DF80330 		strb	r3, [sp, #3]
 803              		.loc 1 332 0
 804 03ca 019B     		ldr	r3, [sp, #4]
 805 03cc D3F82032 		ldr	r3, [r3, #544]
 806 03d0 0393     		str	r3, [sp, #12]
 807              		.loc 1 334 0
 808 03d2 9DF80330 		ldrb	r3, [sp, #3]	@ zero_extendqisi2
 809 03d6 5BB2     		sxtb	r3, r3
 810 03d8 002B     		cmp	r3, #0
 811 03da 0CDA     		bge	.L33
 812              		.loc 1 336 0
 813 03dc 9DF80330 		ldrb	r3, [sp, #3]	@ zero_extendqisi2
 814 03e0 03F07F02 		and	r2, r3, #127
 815 03e4 0399     		ldr	r1, [sp, #12]
 816 03e6 1346     		mov	r3, r2
 817 03e8 DB00     		lsls	r3, r3, #3
 818 03ea 9B1A     		subs	r3, r3, r2
 819 03ec 9B00     		lsls	r3, r3, #2
 820 03ee 0B44     		add	r3, r3, r1
 821 03f0 3833     		adds	r3, r3, #56
 822 03f2 9B79     		ldrb	r3, [r3, #6]	@ zero_extendqisi2
 823 03f4 0CE0     		b	.L34
 824              	.L33:
 825              		.loc 1 340 0
 826 03f6 9DF80330 		ldrb	r3, [sp, #3]	@ zero_extendqisi2
 827 03fa 03F07F02 		and	r2, r3, #127
 828 03fe 0399     		ldr	r1, [sp, #12]
 829 0400 1346     		mov	r3, r2
 830 0402 DB00     		lsls	r3, r3, #3
 831 0404 9B1A     		subs	r3, r3, r2
 832 0406 9B00     		lsls	r3, r3, #2
 833 0408 0B44     		add	r3, r3, r1
 834 040a 03F5F073 		add	r3, r3, #480
 835 040e 9B78     		ldrb	r3, [r3, #2]	@ zero_extendqisi2
 836              	.L34:
 837              		.loc 1 342 0
 838 0410 1846     		mov	r0, r3
 839 0412 04B0     		add	sp, sp, #16
ARM GAS  /tmp/ccPQ1Gqd.s 			page 16


 840              		@ sp needed
 841 0414 7047     		bx	lr
 842              		.cfi_endproc
 843              	.LFE283:
 844              		.size	USBD_LL_IsStallEP, .-USBD_LL_IsStallEP
 845 0416 00BF     		.align	2
 846 0418 AFF30080 		.p2align 4,,15
 846      AFF30080 
 847              		.global	USBD_LL_SetUSBAddress
 848              		.thumb
 849              		.thumb_func
 850              		.type	USBD_LL_SetUSBAddress, %function
 851              	USBD_LL_SetUSBAddress:
 852              	.LFB284:
 853              		.loc 1 351 0
 854              		.cfi_startproc
 855              		@ args = 0, pretend = 0, frame = 8
 856              		@ frame_needed = 0, uses_anonymous_args = 0
 857 0420 00B5     		push	{lr}
 858              		.cfi_def_cfa_offset 4
 859              		.cfi_offset 14, -4
 860 0422 83B0     		sub	sp, sp, #12
 861              		.cfi_def_cfa_offset 16
 862 0424 0190     		str	r0, [sp, #4]
 863 0426 0B46     		mov	r3, r1
 864 0428 8DF80330 		strb	r3, [sp, #3]
 865              		.loc 1 352 0
 866 042c 019B     		ldr	r3, [sp, #4]
 867 042e D3F82022 		ldr	r2, [r3, #544]
 868 0432 9DF80330 		ldrb	r3, [sp, #3]	@ zero_extendqisi2
 869 0436 1046     		mov	r0, r2
 870 0438 1946     		mov	r1, r3
 871 043a FFF7FEFF 		bl	HAL_PCD_SetAddress
 872              		.loc 1 353 0
 873 043e 0023     		movs	r3, #0
 874              		.loc 1 354 0
 875 0440 1846     		mov	r0, r3
 876 0442 03B0     		add	sp, sp, #12
 877              		@ sp needed
 878 0444 5DF804FB 		ldr	pc, [sp], #4
 879              		.cfi_endproc
 880              	.LFE284:
 881              		.size	USBD_LL_SetUSBAddress, .-USBD_LL_SetUSBAddress
 882              		.align	2
 883 0448 AFF30080 		.p2align 4,,15
 883      AFF30080 
 884              		.global	USBD_LL_Transmit
 885              		.thumb
 886              		.thumb_func
 887              		.type	USBD_LL_Transmit, %function
 888              	USBD_LL_Transmit:
 889              	.LFB285:
 890              		.loc 1 368 0
 891              		.cfi_startproc
 892              		@ args = 0, pretend = 0, frame = 16
 893              		@ frame_needed = 0, uses_anonymous_args = 0
 894 0450 00B5     		push	{lr}
ARM GAS  /tmp/ccPQ1Gqd.s 			page 17


 895              		.cfi_def_cfa_offset 4
 896              		.cfi_offset 14, -4
 897 0452 85B0     		sub	sp, sp, #20
 898              		.cfi_def_cfa_offset 24
 899 0454 0390     		str	r0, [sp, #12]
 900 0456 0192     		str	r2, [sp, #4]
 901 0458 0A46     		mov	r2, r1
 902 045a 8DF80B20 		strb	r2, [sp, #11]
 903 045e ADF80830 		strh	r3, [sp, #8]	@ movhi
 904              		.loc 1 369 0
 905 0462 039B     		ldr	r3, [sp, #12]
 906 0464 D3F82012 		ldr	r1, [r3, #544]
 907 0468 BDF80830 		ldrh	r3, [sp, #8]
 908 046c 9DF80B20 		ldrb	r2, [sp, #11]	@ zero_extendqisi2
 909 0470 0846     		mov	r0, r1
 910 0472 1146     		mov	r1, r2
 911 0474 019A     		ldr	r2, [sp, #4]
 912 0476 FFF7FEFF 		bl	HAL_PCD_EP_Transmit
 913              		.loc 1 370 0
 914 047a 0023     		movs	r3, #0
 915              		.loc 1 371 0
 916 047c 1846     		mov	r0, r3
 917 047e 05B0     		add	sp, sp, #20
 918              		@ sp needed
 919 0480 5DF804FB 		ldr	pc, [sp], #4
 920              		.cfi_endproc
 921              	.LFE285:
 922              		.size	USBD_LL_Transmit, .-USBD_LL_Transmit
 923              		.align	2
 924 0484 AFF30080 		.p2align 4,,15
 924      AFF30080 
 924      AFF30080 
 925              		.global	USBD_LL_PrepareReceive
 926              		.thumb
 927              		.thumb_func
 928              		.type	USBD_LL_PrepareReceive, %function
 929              	USBD_LL_PrepareReceive:
 930              	.LFB286:
 931              		.loc 1 385 0
 932              		.cfi_startproc
 933              		@ args = 0, pretend = 0, frame = 16
 934              		@ frame_needed = 0, uses_anonymous_args = 0
 935 0490 00B5     		push	{lr}
 936              		.cfi_def_cfa_offset 4
 937              		.cfi_offset 14, -4
 938 0492 85B0     		sub	sp, sp, #20
 939              		.cfi_def_cfa_offset 24
 940 0494 0390     		str	r0, [sp, #12]
 941 0496 0192     		str	r2, [sp, #4]
 942 0498 0A46     		mov	r2, r1
 943 049a 8DF80B20 		strb	r2, [sp, #11]
 944 049e ADF80830 		strh	r3, [sp, #8]	@ movhi
 945              		.loc 1 386 0
 946 04a2 039B     		ldr	r3, [sp, #12]
 947 04a4 D3F82012 		ldr	r1, [r3, #544]
 948 04a8 BDF80830 		ldrh	r3, [sp, #8]
 949 04ac 9DF80B20 		ldrb	r2, [sp, #11]	@ zero_extendqisi2
ARM GAS  /tmp/ccPQ1Gqd.s 			page 18


 950 04b0 0846     		mov	r0, r1
 951 04b2 1146     		mov	r1, r2
 952 04b4 019A     		ldr	r2, [sp, #4]
 953 04b6 FFF7FEFF 		bl	HAL_PCD_EP_Receive
 954              		.loc 1 387 0
 955 04ba 0023     		movs	r3, #0
 956              		.loc 1 388 0
 957 04bc 1846     		mov	r0, r3
 958 04be 05B0     		add	sp, sp, #20
 959              		@ sp needed
 960 04c0 5DF804FB 		ldr	pc, [sp], #4
 961              		.cfi_endproc
 962              	.LFE286:
 963              		.size	USBD_LL_PrepareReceive, .-USBD_LL_PrepareReceive
 964              		.align	2
 965 04c4 AFF30080 		.p2align 4,,15
 965      AFF30080 
 965      AFF30080 
 966              		.global	USBD_LL_GetRxDataSize
 967              		.thumb
 968              		.thumb_func
 969              		.type	USBD_LL_GetRxDataSize, %function
 970              	USBD_LL_GetRxDataSize:
 971              	.LFB287:
 972              		.loc 1 397 0
 973              		.cfi_startproc
 974              		@ args = 0, pretend = 0, frame = 8
 975              		@ frame_needed = 0, uses_anonymous_args = 0
 976 04d0 00B5     		push	{lr}
 977              		.cfi_def_cfa_offset 4
 978              		.cfi_offset 14, -4
 979 04d2 83B0     		sub	sp, sp, #12
 980              		.cfi_def_cfa_offset 16
 981 04d4 0190     		str	r0, [sp, #4]
 982 04d6 0B46     		mov	r3, r1
 983 04d8 8DF80330 		strb	r3, [sp, #3]
 984              		.loc 1 398 0
 985 04dc 019B     		ldr	r3, [sp, #4]
 986 04de D3F82022 		ldr	r2, [r3, #544]
 987 04e2 9DF80330 		ldrb	r3, [sp, #3]	@ zero_extendqisi2
 988 04e6 1046     		mov	r0, r2
 989 04e8 1946     		mov	r1, r3
 990 04ea FFF7FEFF 		bl	HAL_PCD_EP_GetRxCount
 991 04ee 0346     		mov	r3, r0
 992              		.loc 1 399 0
 993 04f0 1846     		mov	r0, r3
 994 04f2 03B0     		add	sp, sp, #12
 995              		@ sp needed
 996 04f4 5DF804FB 		ldr	pc, [sp], #4
 997              		.cfi_endproc
 998              	.LFE287:
 999              		.size	USBD_LL_GetRxDataSize, .-USBD_LL_GetRxDataSize
 1000              		.align	2
 1001 04f8 AFF30080 		.p2align 4,,15
 1001      AFF30080 
 1002              		.global	USBD_LL_Delay
 1003              		.thumb
ARM GAS  /tmp/ccPQ1Gqd.s 			page 19


 1004              		.thumb_func
 1005              		.type	USBD_LL_Delay, %function
 1006              	USBD_LL_Delay:
 1007              	.LFB288:
 1008              		.loc 1 407 0
 1009              		.cfi_startproc
 1010              		@ args = 0, pretend = 0, frame = 8
 1011              		@ frame_needed = 0, uses_anonymous_args = 0
 1012 0500 00B5     		push	{lr}
 1013              		.cfi_def_cfa_offset 4
 1014              		.cfi_offset 14, -4
 1015 0502 83B0     		sub	sp, sp, #12
 1016              		.cfi_def_cfa_offset 16
 1017 0504 0190     		str	r0, [sp, #4]
 1018              		.loc 1 408 0
 1019 0506 0198     		ldr	r0, [sp, #4]
 1020 0508 FFF7FEFF 		bl	HAL_Delay
 1021              		.loc 1 409 0
 1022 050c 03B0     		add	sp, sp, #12
 1023              		@ sp needed
 1024 050e 5DF804FB 		ldr	pc, [sp], #4
 1025              		.cfi_endproc
 1026              	.LFE288:
 1027              		.size	USBD_LL_Delay, .-USBD_LL_Delay
 1028              	.Letext0:
 1029              		.file 2 "/nfs/nfs5/home/research/hardware/arm2/gcc-arm-embedded/gcc-arm-none-eabi-4_8-2014q2/lib/g
 1030              		.file 3 "/nfs/nfs5/home/research/hardware/arm2/gcc-arm-embedded/gcc-arm-none-eabi-4_8-2014q2/arm-n
 1031              		.file 4 "/nfs/nfs5/home/research/hardware/arm2/gcc-arm-embedded/gcc-arm-none-eabi-4_8-2014q2/arm-n
 1032              		.file 5 "../../../../../../ChibiOS/os/ext/CMSIS/ST/STM32L4xx/stm32l476xx.h"
 1033              		.file 6 "../../../../../Drivers/STM32L4xx_HAL_Driver/Inc/stm32l4xx_hal_def.h"
 1034              		.file 7 "../../../../../Drivers/STM32L4xx_HAL_Driver/Inc/stm32l4xx_ll_usb.h"
 1035              		.file 8 "../../../../../Drivers/STM32L4xx_HAL_Driver/Inc/stm32l4xx_hal_pcd.h"
 1036              		.file 9 "../../../../../../ChibiOS/os/rt/ports/ARMCMx/compilers/GCC/chtypes.h"
 1037              		.file 10 "../../../../../../ChibiOS/os/rt/include/chsystypes.h"
 1038              		.file 11 "../../../../../../ChibiOS/os/rt/include/chschd.h"
 1039              		.file 12 "../../../../../../ChibiOS/os/rt/ports/ARMCMx/chcore.h"
 1040              		.file 13 "../../../../../../ChibiOS/os/rt/ports/ARMCMx/chcore_v7m.h"
 1041              		.file 14 "../../../../../../ChibiOS/os/rt/include/chtm.h"
 1042              		.file 15 "../../../../../../ChibiOS/os/rt/include/chsem.h"
 1043              		.file 16 "../../../../../../ChibiOS/os/rt/include/chmtx.h"
 1044              		.file 17 "../../../../../Middlewares/ST/STM32_USB_Device_Library/Core/Inc/usbd_def.h"
 1045              		.file 18 "../../../../../../ChibiOS/os/ext/CMSIS/include/core_cm4.h"