ARM GAS  /tmp/ccQzkBHa.s 			page 1


   1              		.syntax unified
   2              		.cpu cortex-m4
   3              		.fpu softvfp
   4              		.eabi_attribute 20, 1
   5              		.eabi_attribute 21, 1
   6              		.eabi_attribute 23, 3
   7              		.eabi_attribute 24, 1
   8              		.eabi_attribute 25, 1
   9              		.eabi_attribute 26, 1
  10              		.eabi_attribute 30, 6
  11              		.eabi_attribute 34, 1
  12              		.eabi_attribute 18, 4
  13              		.thumb
  14              		.file	"usbd_cdc.c"
  15              		.text
  16              	.Ltext0:
  17              		.cfi_sections	.debug_frame
  18              		.data
  19              		.align	2
  20              		.type	USBD_CDC_DeviceQualifierDesc, %object
  21              		.size	USBD_CDC_DeviceQualifierDesc, 10
  22              	USBD_CDC_DeviceQualifierDesc:
  23 0000 0A       		.byte	10
  24 0001 06       		.byte	6
  25 0002 00       		.byte	0
  26 0003 02       		.byte	2
  27 0004 00       		.byte	0
  28 0005 00       		.byte	0
  29 0006 00       		.byte	0
  30 0007 40       		.byte	64
  31 0008 01       		.byte	1
  32 0009 00       		.byte	0
  33              		.global	USBD_CDC
  34 000a 0000     		.align	2
  35              		.type	USBD_CDC, %object
  36              		.size	USBD_CDC, 56
  37              	USBD_CDC:
  38 000c 00000000 		.word	USBD_CDC_Init
  39 0010 00000000 		.word	USBD_CDC_DeInit
  40 0014 00000000 		.word	USBD_CDC_Setup
  41 0018 00000000 		.word	0
  42 001c 00000000 		.word	USBD_CDC_EP0_RxReady
  43 0020 00000000 		.word	USBD_CDC_DataIn
  44 0024 00000000 		.word	USBD_CDC_DataOut
  45 0028 00000000 		.word	0
  46 002c 00000000 		.word	0
  47 0030 00000000 		.word	0
  48 0034 00000000 		.word	USBD_CDC_GetHSCfgDesc
  49 0038 00000000 		.word	USBD_CDC_GetFSCfgDesc
  50 003c 00000000 		.word	USBD_CDC_GetOtherSpeedCfgDesc
  51 0040 00000000 		.word	USBD_CDC_GetDeviceQualifierDescriptor
  52              		.global	USBD_CDC_CfgHSDesc
  53              		.align	2
  54              		.type	USBD_CDC_CfgHSDesc, %object
  55              		.size	USBD_CDC_CfgHSDesc, 67
  56              	USBD_CDC_CfgHSDesc:
  57 0044 09       		.byte	9
ARM GAS  /tmp/ccQzkBHa.s 			page 2


  58 0045 02       		.byte	2
  59 0046 43       		.byte	67
  60 0047 00       		.byte	0
  61 0048 02       		.byte	2
  62 0049 01       		.byte	1
  63 004a 00       		.byte	0
  64 004b C0       		.byte	-64
  65 004c 32       		.byte	50
  66 004d 09       		.byte	9
  67 004e 04       		.byte	4
  68 004f 00       		.byte	0
  69 0050 00       		.byte	0
  70 0051 01       		.byte	1
  71 0052 02       		.byte	2
  72 0053 02       		.byte	2
  73 0054 01       		.byte	1
  74 0055 00       		.byte	0
  75 0056 05       		.byte	5
  76 0057 24       		.byte	36
  77 0058 00       		.byte	0
  78 0059 10       		.byte	16
  79 005a 01       		.byte	1
  80 005b 05       		.byte	5
  81 005c 24       		.byte	36
  82 005d 01       		.byte	1
  83 005e 00       		.byte	0
  84 005f 01       		.byte	1
  85 0060 04       		.byte	4
  86 0061 24       		.byte	36
  87 0062 02       		.byte	2
  88 0063 02       		.byte	2
  89 0064 05       		.byte	5
  90 0065 24       		.byte	36
  91 0066 06       		.byte	6
  92 0067 00       		.byte	0
  93 0068 01       		.byte	1
  94 0069 07       		.byte	7
  95 006a 05       		.byte	5
  96 006b 82       		.byte	-126
  97 006c 03       		.byte	3
  98 006d 08       		.byte	8
  99 006e 00       		.byte	0
 100 006f 10       		.byte	16
 101 0070 09       		.byte	9
 102 0071 04       		.byte	4
 103 0072 01       		.byte	1
 104 0073 00       		.byte	0
 105 0074 02       		.byte	2
 106 0075 0A       		.byte	10
 107 0076 00       		.byte	0
 108 0077 00       		.byte	0
 109 0078 00       		.byte	0
 110 0079 07       		.byte	7
 111 007a 05       		.byte	5
 112 007b 01       		.byte	1
 113 007c 02       		.byte	2
 114 007d 00       		.byte	0
ARM GAS  /tmp/ccQzkBHa.s 			page 3


 115 007e 02       		.byte	2
 116 007f 00       		.byte	0
 117 0080 07       		.byte	7
 118 0081 05       		.byte	5
 119 0082 81       		.byte	-127
 120 0083 02       		.byte	2
 121 0084 00       		.byte	0
 122 0085 02       		.byte	2
 123 0086 00       		.byte	0
 124              		.global	USBD_CDC_CfgFSDesc
 125 0087 00       		.align	2
 126              		.type	USBD_CDC_CfgFSDesc, %object
 127              		.size	USBD_CDC_CfgFSDesc, 67
 128              	USBD_CDC_CfgFSDesc:
 129 0088 09       		.byte	9
 130 0089 02       		.byte	2
 131 008a 43       		.byte	67
 132 008b 00       		.byte	0
 133 008c 02       		.byte	2
 134 008d 01       		.byte	1
 135 008e 00       		.byte	0
 136 008f C0       		.byte	-64
 137 0090 32       		.byte	50
 138 0091 09       		.byte	9
 139 0092 04       		.byte	4
 140 0093 00       		.byte	0
 141 0094 00       		.byte	0
 142 0095 01       		.byte	1
 143 0096 02       		.byte	2
 144 0097 02       		.byte	2
 145 0098 01       		.byte	1
 146 0099 00       		.byte	0
 147 009a 05       		.byte	5
 148 009b 24       		.byte	36
 149 009c 00       		.byte	0
 150 009d 10       		.byte	16
 151 009e 01       		.byte	1
 152 009f 05       		.byte	5
 153 00a0 24       		.byte	36
 154 00a1 01       		.byte	1
 155 00a2 00       		.byte	0
 156 00a3 01       		.byte	1
 157 00a4 04       		.byte	4
 158 00a5 24       		.byte	36
 159 00a6 02       		.byte	2
 160 00a7 02       		.byte	2
 161 00a8 05       		.byte	5
 162 00a9 24       		.byte	36
 163 00aa 06       		.byte	6
 164 00ab 00       		.byte	0
 165 00ac 01       		.byte	1
 166 00ad 07       		.byte	7
 167 00ae 05       		.byte	5
 168 00af 82       		.byte	-126
 169 00b0 03       		.byte	3
 170 00b1 08       		.byte	8
 171 00b2 00       		.byte	0
ARM GAS  /tmp/ccQzkBHa.s 			page 4


 172 00b3 10       		.byte	16
 173 00b4 09       		.byte	9
 174 00b5 04       		.byte	4
 175 00b6 01       		.byte	1
 176 00b7 00       		.byte	0
 177 00b8 02       		.byte	2
 178 00b9 0A       		.byte	10
 179 00ba 00       		.byte	0
 180 00bb 00       		.byte	0
 181 00bc 00       		.byte	0
 182 00bd 07       		.byte	7
 183 00be 05       		.byte	5
 184 00bf 01       		.byte	1
 185 00c0 02       		.byte	2
 186 00c1 40       		.byte	64
 187 00c2 00       		.byte	0
 188 00c3 00       		.byte	0
 189 00c4 07       		.byte	7
 190 00c5 05       		.byte	5
 191 00c6 81       		.byte	-127
 192 00c7 02       		.byte	2
 193 00c8 40       		.byte	64
 194 00c9 00       		.byte	0
 195 00ca 00       		.byte	0
 196              		.global	USBD_CDC_OtherSpeedCfgDesc
 197 00cb 00       		.align	2
 198              		.type	USBD_CDC_OtherSpeedCfgDesc, %object
 199              		.size	USBD_CDC_OtherSpeedCfgDesc, 67
 200              	USBD_CDC_OtherSpeedCfgDesc:
 201 00cc 09       		.byte	9
 202 00cd 07       		.byte	7
 203 00ce 43       		.byte	67
 204 00cf 00       		.byte	0
 205 00d0 02       		.byte	2
 206 00d1 01       		.byte	1
 207 00d2 04       		.byte	4
 208 00d3 C0       		.byte	-64
 209 00d4 32       		.byte	50
 210 00d5 09       		.byte	9
 211 00d6 04       		.byte	4
 212 00d7 00       		.byte	0
 213 00d8 00       		.byte	0
 214 00d9 01       		.byte	1
 215 00da 02       		.byte	2
 216 00db 02       		.byte	2
 217 00dc 01       		.byte	1
 218 00dd 00       		.byte	0
 219 00de 05       		.byte	5
 220 00df 24       		.byte	36
 221 00e0 00       		.byte	0
 222 00e1 10       		.byte	16
 223 00e2 01       		.byte	1
 224 00e3 05       		.byte	5
 225 00e4 24       		.byte	36
 226 00e5 01       		.byte	1
 227 00e6 00       		.byte	0
 228 00e7 01       		.byte	1
ARM GAS  /tmp/ccQzkBHa.s 			page 5


 229 00e8 04       		.byte	4
 230 00e9 24       		.byte	36
 231 00ea 02       		.byte	2
 232 00eb 02       		.byte	2
 233 00ec 05       		.byte	5
 234 00ed 24       		.byte	36
 235 00ee 06       		.byte	6
 236 00ef 00       		.byte	0
 237 00f0 01       		.byte	1
 238 00f1 07       		.byte	7
 239 00f2 05       		.byte	5
 240 00f3 82       		.byte	-126
 241 00f4 03       		.byte	3
 242 00f5 08       		.byte	8
 243 00f6 00       		.byte	0
 244 00f7 FF       		.byte	-1
 245 00f8 09       		.byte	9
 246 00f9 04       		.byte	4
 247 00fa 01       		.byte	1
 248 00fb 00       		.byte	0
 249 00fc 02       		.byte	2
 250 00fd 0A       		.byte	10
 251 00fe 00       		.byte	0
 252 00ff 00       		.byte	0
 253 0100 00       		.byte	0
 254 0101 07       		.byte	7
 255 0102 05       		.byte	5
 256 0103 01       		.byte	1
 257 0104 02       		.byte	2
 258 0105 40       		.byte	64
 259 0106 00       		.byte	0
 260 0107 00       		.byte	0
 261 0108 07       		.byte	7
 262 0109 05       		.byte	5
 263 010a 81       		.byte	-127
 264 010b 02       		.byte	2
 265 010c 40       		.byte	64
 266 010d 00       		.byte	0
 267 010e 00       		.byte	0
 268 010f 00       		.text
 269              		.align	2
 270              		.p2align 4,,15
 271              		.thumb
 272              		.thumb_func
 273              		.type	USBD_CDC_Init, %function
 274              	USBD_CDC_Init:
 275              	.LFB125:
 276              		.file 1 "../../../../../Middlewares/ST/STM32_USB_Device_Library/Class/CDC/Src/usbd_cdc.c"
 277              		.loc 1 477 0
 278              		.cfi_startproc
 279              		@ args = 0, pretend = 0, frame = 16
 280              		@ frame_needed = 0, uses_anonymous_args = 0
 281 0000 00B5     		push	{lr}
 282              		.cfi_def_cfa_offset 4
 283              		.cfi_offset 14, -4
 284 0002 85B0     		sub	sp, sp, #20
 285              		.cfi_def_cfa_offset 24
ARM GAS  /tmp/ccQzkBHa.s 			page 6


 286 0004 0190     		str	r0, [sp, #4]
 287 0006 0B46     		mov	r3, r1
 288 0008 8DF80330 		strb	r3, [sp, #3]
 289              		.loc 1 478 0
 290 000c 0023     		movs	r3, #0
 291 000e 8DF80F30 		strb	r3, [sp, #15]
 292              		.loc 1 481 0
 293 0012 019B     		ldr	r3, [sp, #4]
 294 0014 1B7C     		ldrb	r3, [r3, #16]	@ zero_extendqisi2
 295 0016 002B     		cmp	r3, #0
 296 0018 0ED1     		bne	.L2
 297              		.loc 1 484 0
 298 001a 0198     		ldr	r0, [sp, #4]
 299 001c 8121     		movs	r1, #129
 300 001e 0222     		movs	r2, #2
 301 0020 4FF40073 		mov	r3, #512
 302 0024 FFF7FEFF 		bl	USBD_LL_OpenEP
 303              		.loc 1 490 0
 304 0028 0198     		ldr	r0, [sp, #4]
 305 002a 0121     		movs	r1, #1
 306 002c 0222     		movs	r2, #2
 307 002e 4FF40073 		mov	r3, #512
 308 0032 FFF7FEFF 		bl	USBD_LL_OpenEP
 309 0036 0BE0     		b	.L3
 310              	.L2:
 311              		.loc 1 499 0
 312 0038 0198     		ldr	r0, [sp, #4]
 313 003a 8121     		movs	r1, #129
 314 003c 0222     		movs	r2, #2
 315 003e 4023     		movs	r3, #64
 316 0040 FFF7FEFF 		bl	USBD_LL_OpenEP
 317              		.loc 1 505 0
 318 0044 0198     		ldr	r0, [sp, #4]
 319 0046 0121     		movs	r1, #1
 320 0048 0222     		movs	r2, #2
 321 004a 4023     		movs	r3, #64
 322 004c FFF7FEFF 		bl	USBD_LL_OpenEP
 323              	.L3:
 324              		.loc 1 511 0
 325 0050 0198     		ldr	r0, [sp, #4]
 326 0052 8221     		movs	r1, #130
 327 0054 0322     		movs	r2, #3
 328 0056 0823     		movs	r3, #8
 329 0058 FFF7FEFF 		bl	USBD_LL_OpenEP
 330              		.loc 1 517 0
 331 005c 4FF40770 		mov	r0, #540
 332 0060 FFF7FEFF 		bl	malloc
 333 0064 0346     		mov	r3, r0
 334 0066 1A46     		mov	r2, r3
 335 0068 019B     		ldr	r3, [sp, #4]
 336 006a C3F81822 		str	r2, [r3, #536]
 337              		.loc 1 519 0
 338 006e 019B     		ldr	r3, [sp, #4]
 339 0070 D3F81832 		ldr	r3, [r3, #536]
 340 0074 002B     		cmp	r3, #0
 341 0076 03D1     		bne	.L4
 342              		.loc 1 521 0
ARM GAS  /tmp/ccQzkBHa.s 			page 7


 343 0078 0123     		movs	r3, #1
 344 007a 8DF80F30 		strb	r3, [sp, #15]
 345 007e 28E0     		b	.L5
 346              	.L4:
 347              		.loc 1 525 0
 348 0080 019B     		ldr	r3, [sp, #4]
 349 0082 D3F81832 		ldr	r3, [r3, #536]
 350 0086 0293     		str	r3, [sp, #8]
 351              		.loc 1 528 0
 352 0088 019B     		ldr	r3, [sp, #4]
 353 008a D3F81C32 		ldr	r3, [r3, #540]
 354 008e 1B68     		ldr	r3, [r3]
 355 0090 9847     		blx	r3
 356              		.loc 1 531 0
 357 0092 029B     		ldr	r3, [sp, #8]
 358 0094 0022     		movs	r2, #0
 359 0096 C3F81422 		str	r2, [r3, #532]
 360              		.loc 1 532 0
 361 009a 029B     		ldr	r3, [sp, #8]
 362 009c 0022     		movs	r2, #0
 363 009e C3F81822 		str	r2, [r3, #536]
 364              		.loc 1 534 0
 365 00a2 019B     		ldr	r3, [sp, #4]
 366 00a4 1B7C     		ldrb	r3, [r3, #16]	@ zero_extendqisi2
 367 00a6 002B     		cmp	r3, #0
 368 00a8 0AD1     		bne	.L6
 369              		.loc 1 537 0
 370 00aa 029B     		ldr	r3, [sp, #8]
 371 00ac D3F80432 		ldr	r3, [r3, #516]
 372 00b0 0198     		ldr	r0, [sp, #4]
 373 00b2 0121     		movs	r1, #1
 374 00b4 1A46     		mov	r2, r3
 375 00b6 4FF40073 		mov	r3, #512
 376 00ba FFF7FEFF 		bl	USBD_LL_PrepareReceive
 377 00be 08E0     		b	.L5
 378              	.L6:
 379              		.loc 1 545 0
 380 00c0 029B     		ldr	r3, [sp, #8]
 381 00c2 D3F80432 		ldr	r3, [r3, #516]
 382 00c6 0198     		ldr	r0, [sp, #4]
 383 00c8 0121     		movs	r1, #1
 384 00ca 1A46     		mov	r2, r3
 385 00cc 4023     		movs	r3, #64
 386 00ce FFF7FEFF 		bl	USBD_LL_PrepareReceive
 387              	.L5:
 388              		.loc 1 553 0
 389 00d2 9DF80F30 		ldrb	r3, [sp, #15]	@ zero_extendqisi2
 390              		.loc 1 554 0
 391 00d6 1846     		mov	r0, r3
 392 00d8 05B0     		add	sp, sp, #20
 393              		@ sp needed
 394 00da 5DF804FB 		ldr	pc, [sp], #4
 395              		.cfi_endproc
 396              	.LFE125:
 397              		.size	USBD_CDC_Init, .-USBD_CDC_Init
 398 00de 00BF     		.align	2
 399              		.p2align 4,,15
ARM GAS  /tmp/ccQzkBHa.s 			page 8


 400              		.thumb
 401              		.thumb_func
 402              		.type	USBD_CDC_DeInit, %function
 403              	USBD_CDC_DeInit:
 404              	.LFB126:
 405              		.loc 1 565 0
 406              		.cfi_startproc
 407              		@ args = 0, pretend = 0, frame = 16
 408              		@ frame_needed = 0, uses_anonymous_args = 0
 409 00e0 00B5     		push	{lr}
 410              		.cfi_def_cfa_offset 4
 411              		.cfi_offset 14, -4
 412 00e2 85B0     		sub	sp, sp, #20
 413              		.cfi_def_cfa_offset 24
 414 00e4 0190     		str	r0, [sp, #4]
 415 00e6 0B46     		mov	r3, r1
 416 00e8 8DF80330 		strb	r3, [sp, #3]
 417              		.loc 1 566 0
 418 00ec 0023     		movs	r3, #0
 419 00ee 8DF80F30 		strb	r3, [sp, #15]
 420              		.loc 1 569 0
 421 00f2 0198     		ldr	r0, [sp, #4]
 422 00f4 8121     		movs	r1, #129
 423 00f6 FFF7FEFF 		bl	USBD_LL_CloseEP
 424              		.loc 1 573 0
 425 00fa 0198     		ldr	r0, [sp, #4]
 426 00fc 0121     		movs	r1, #1
 427 00fe FFF7FEFF 		bl	USBD_LL_CloseEP
 428              		.loc 1 577 0
 429 0102 0198     		ldr	r0, [sp, #4]
 430 0104 8221     		movs	r1, #130
 431 0106 FFF7FEFF 		bl	USBD_LL_CloseEP
 432              		.loc 1 582 0
 433 010a 019B     		ldr	r3, [sp, #4]
 434 010c D3F81832 		ldr	r3, [r3, #536]
 435 0110 002B     		cmp	r3, #0
 436 0112 0ED0     		beq	.L9
 437              		.loc 1 584 0
 438 0114 019B     		ldr	r3, [sp, #4]
 439 0116 D3F81C32 		ldr	r3, [r3, #540]
 440 011a 5B68     		ldr	r3, [r3, #4]
 441 011c 9847     		blx	r3
 442              		.loc 1 585 0
 443 011e 019B     		ldr	r3, [sp, #4]
 444 0120 D3F81832 		ldr	r3, [r3, #536]
 445 0124 1846     		mov	r0, r3
 446 0126 FFF7FEFF 		bl	free
 447              		.loc 1 586 0
 448 012a 019B     		ldr	r3, [sp, #4]
 449 012c 0022     		movs	r2, #0
 450 012e C3F81822 		str	r2, [r3, #536]
 451              	.L9:
 452              		.loc 1 589 0
 453 0132 9DF80F30 		ldrb	r3, [sp, #15]	@ zero_extendqisi2
 454              		.loc 1 590 0
 455 0136 1846     		mov	r0, r3
 456 0138 05B0     		add	sp, sp, #20
ARM GAS  /tmp/ccQzkBHa.s 			page 9


 457              		@ sp needed
 458 013a 5DF804FB 		ldr	pc, [sp], #4
 459              		.cfi_endproc
 460              	.LFE126:
 461              		.size	USBD_CDC_DeInit, .-USBD_CDC_DeInit
 462 013e 00BF     		.align	2
 463              		.p2align 4,,15
 464              		.thumb
 465              		.thumb_func
 466              		.type	USBD_CDC_Setup, %function
 467              	USBD_CDC_Setup:
 468              	.LFB127:
 469              		.loc 1 601 0
 470              		.cfi_startproc
 471              		@ args = 0, pretend = 0, frame = 16
 472              		@ frame_needed = 0, uses_anonymous_args = 0
 473 0140 00B5     		push	{lr}
 474              		.cfi_def_cfa_offset 4
 475              		.cfi_offset 14, -4
 476 0142 85B0     		sub	sp, sp, #20
 477              		.cfi_def_cfa_offset 24
 478 0144 0190     		str	r0, [sp, #4]
 479 0146 0091     		str	r1, [sp]
 480              		.loc 1 602 0
 481 0148 019B     		ldr	r3, [sp, #4]
 482 014a D3F81832 		ldr	r3, [r3, #536]
 483 014e 0393     		str	r3, [sp, #12]
 484              		.loc 1 605 0
 485 0150 009B     		ldr	r3, [sp]
 486 0152 1B78     		ldrb	r3, [r3]	@ zero_extendqisi2
 487 0154 03F06003 		and	r3, r3, #96
 488 0158 002B     		cmp	r3, #0
 489 015a 3ED0     		beq	.L13
 490 015c 202B     		cmp	r3, #32
 491 015e 00D0     		beq	.L14
 492              		.loc 1 652 0
 493 0160 47E0     		b	.L23
 494              	.L14:
 495              		.loc 1 608 0
 496 0162 009B     		ldr	r3, [sp]
 497 0164 DB88     		ldrh	r3, [r3, #6]
 498 0166 002B     		cmp	r3, #0
 499 0168 2CD0     		beq	.L15
 500              		.loc 1 610 0
 501 016a 009B     		ldr	r3, [sp]
 502 016c 1B78     		ldrb	r3, [r3]	@ zero_extendqisi2
 503 016e DBB2     		uxtb	r3, r3
 504 0170 5BB2     		sxtb	r3, r3
 505 0172 002B     		cmp	r3, #0
 506 0174 12DA     		bge	.L16
 507              		.loc 1 612 0
 508 0176 019B     		ldr	r3, [sp, #4]
 509 0178 D3F81C32 		ldr	r3, [r3, #540]
 510 017c 9B68     		ldr	r3, [r3, #8]
 511 017e 009A     		ldr	r2, [sp]
 512 0180 5078     		ldrb	r0, [r2, #1]	@ zero_extendqisi2
 513              		.loc 1 613 0
ARM GAS  /tmp/ccQzkBHa.s 			page 10


 514 0182 0399     		ldr	r1, [sp, #12]
 515              		.loc 1 612 0
 516 0184 009A     		ldr	r2, [sp]
 517 0186 D288     		ldrh	r2, [r2, #6]
 518 0188 9847     		blx	r3
 519              		.loc 1 616 0
 520 018a 039A     		ldr	r2, [sp, #12]
 521              		.loc 1 615 0
 522 018c 009B     		ldr	r3, [sp]
 523 018e DB88     		ldrh	r3, [r3, #6]
 524 0190 0198     		ldr	r0, [sp, #4]
 525 0192 1146     		mov	r1, r2
 526 0194 1A46     		mov	r2, r3
 527 0196 FFF7FEFF 		bl	USBD_CtlSendData
 528              		.loc 1 636 0
 529 019a 2BE0     		b	.L19
 530              	.L16:
 531              		.loc 1 621 0
 532 019c 009B     		ldr	r3, [sp]
 533 019e 5A78     		ldrb	r2, [r3, #1]	@ zero_extendqisi2
 534 01a0 039B     		ldr	r3, [sp, #12]
 535 01a2 83F80022 		strb	r2, [r3, #512]
 536              		.loc 1 622 0
 537 01a6 009B     		ldr	r3, [sp]
 538 01a8 DB88     		ldrh	r3, [r3, #6]
 539 01aa DAB2     		uxtb	r2, r3
 540 01ac 039B     		ldr	r3, [sp, #12]
 541 01ae 83F80122 		strb	r2, [r3, #513]
 542              		.loc 1 625 0
 543 01b2 039A     		ldr	r2, [sp, #12]
 544              		.loc 1 624 0
 545 01b4 009B     		ldr	r3, [sp]
 546 01b6 DB88     		ldrh	r3, [r3, #6]
 547 01b8 0198     		ldr	r0, [sp, #4]
 548 01ba 1146     		mov	r1, r2
 549 01bc 1A46     		mov	r2, r3
 550 01be FFF7FEFF 		bl	USBD_CtlPrepareRx
 551              		.loc 1 636 0
 552 01c2 17E0     		b	.L19
 553              	.L15:
 554              		.loc 1 632 0
 555 01c4 019B     		ldr	r3, [sp, #4]
 556 01c6 D3F81C32 		ldr	r3, [r3, #540]
 557 01ca 9B68     		ldr	r3, [r3, #8]
 558 01cc 009A     		ldr	r2, [sp]
 559 01ce 5278     		ldrb	r2, [r2, #1]	@ zero_extendqisi2
 560 01d0 1046     		mov	r0, r2
 561 01d2 0099     		ldr	r1, [sp]
 562 01d4 0022     		movs	r2, #0
 563 01d6 9847     		blx	r3
 564              		.loc 1 636 0
 565 01d8 0CE0     		b	.L19
 566              	.L13:
 567              		.loc 1 639 0
 568 01da 009B     		ldr	r3, [sp]
 569 01dc 5B78     		ldrb	r3, [r3, #1]	@ zero_extendqisi2
 570 01de 0A2B     		cmp	r3, #10
ARM GAS  /tmp/ccQzkBHa.s 			page 11


 571 01e0 01D0     		beq	.L20
 572 01e2 0B2B     		cmp	r3, #11
 573              		.loc 1 648 0
 574 01e4 05E0     		b	.L12
 575              	.L20:
 576              		.loc 1 642 0
 577 01e6 0198     		ldr	r0, [sp, #4]
 578 01e8 0549     		ldr	r1, .L24
 579 01ea 0122     		movs	r2, #1
 580 01ec FFF7FEFF 		bl	USBD_CtlSendData
 581              		.loc 1 645 0
 582 01f0 00BF     		nop
 583              	.L12:
 584              	.L23:
 585              		.loc 1 652 0
 586 01f2 00BF     		nop
 587              	.L19:
 588              		.loc 1 654 0
 589 01f4 0023     		movs	r3, #0
 590              		.loc 1 655 0
 591 01f6 1846     		mov	r0, r3
 592 01f8 05B0     		add	sp, sp, #20
 593              		@ sp needed
 594 01fa 5DF804FB 		ldr	pc, [sp], #4
 595              	.L25:
 596 01fe 00BF     		.align	2
 597              	.L24:
 598 0200 00000000 		.word	ifalt.9550
 599              		.cfi_endproc
 600              	.LFE127:
 601              		.size	USBD_CDC_Setup, .-USBD_CDC_Setup
 602              		.align	2
 603 0204 AFF30080 		.p2align 4,,15
 603      AFF30080 
 603      AFF30080 
 604              		.thumb
 605              		.thumb_func
 606              		.type	USBD_CDC_DataIn, %function
 607              	USBD_CDC_DataIn:
 608              	.LFB128:
 609              		.loc 1 665 0
 610              		.cfi_startproc
 611              		@ args = 0, pretend = 0, frame = 16
 612              		@ frame_needed = 0, uses_anonymous_args = 0
 613              		@ link register save eliminated.
 614 0210 84B0     		sub	sp, sp, #16
 615              		.cfi_def_cfa_offset 16
 616 0212 0190     		str	r0, [sp, #4]
 617 0214 0B46     		mov	r3, r1
 618 0216 8DF80330 		strb	r3, [sp, #3]
 619              		.loc 1 666 0
 620 021a 019B     		ldr	r3, [sp, #4]
 621 021c D3F81832 		ldr	r3, [r3, #536]
 622 0220 0393     		str	r3, [sp, #12]
 623              		.loc 1 668 0
 624 0222 019B     		ldr	r3, [sp, #4]
 625 0224 D3F81832 		ldr	r3, [r3, #536]
ARM GAS  /tmp/ccQzkBHa.s 			page 12


 626 0228 002B     		cmp	r3, #0
 627 022a 05D0     		beq	.L27
 628              		.loc 1 671 0
 629 022c 039B     		ldr	r3, [sp, #12]
 630 022e 0022     		movs	r2, #0
 631 0230 C3F81422 		str	r2, [r3, #532]
 632              		.loc 1 673 0
 633 0234 0023     		movs	r3, #0
 634 0236 00E0     		b	.L28
 635              	.L27:
 636              		.loc 1 677 0
 637 0238 0223     		movs	r3, #2
 638              	.L28:
 639              		.loc 1 679 0
 640 023a 1846     		mov	r0, r3
 641 023c 04B0     		add	sp, sp, #16
 642              		@ sp needed
 643 023e 7047     		bx	lr
 644              		.cfi_endproc
 645              	.LFE128:
 646              		.size	USBD_CDC_DataIn, .-USBD_CDC_DataIn
 647              		.align	2
 648              		.p2align 4,,15
 649              		.thumb
 650              		.thumb_func
 651              		.type	USBD_CDC_DataOut, %function
 652              	USBD_CDC_DataOut:
 653              	.LFB129:
 654              		.loc 1 689 0
 655              		.cfi_startproc
 656              		@ args = 0, pretend = 0, frame = 16
 657              		@ frame_needed = 0, uses_anonymous_args = 0
 658 0240 00B5     		push	{lr}
 659              		.cfi_def_cfa_offset 4
 660              		.cfi_offset 14, -4
 661 0242 85B0     		sub	sp, sp, #20
 662              		.cfi_def_cfa_offset 24
 663 0244 0190     		str	r0, [sp, #4]
 664 0246 0B46     		mov	r3, r1
 665 0248 8DF80330 		strb	r3, [sp, #3]
 666              		.loc 1 690 0
 667 024c 019B     		ldr	r3, [sp, #4]
 668 024e D3F81832 		ldr	r3, [r3, #536]
 669 0252 0393     		str	r3, [sp, #12]
 670              		.loc 1 693 0
 671 0254 9DF80330 		ldrb	r3, [sp, #3]	@ zero_extendqisi2
 672 0258 0198     		ldr	r0, [sp, #4]
 673 025a 1946     		mov	r1, r3
 674 025c FFF7FEFF 		bl	USBD_LL_GetRxDataSize
 675 0260 0246     		mov	r2, r0
 676 0262 039B     		ldr	r3, [sp, #12]
 677 0264 C3F80C22 		str	r2, [r3, #524]
 678              		.loc 1 697 0
 679 0268 019B     		ldr	r3, [sp, #4]
 680 026a D3F81832 		ldr	r3, [r3, #536]
 681 026e 002B     		cmp	r3, #0
 682 0270 0ED0     		beq	.L30
ARM GAS  /tmp/ccQzkBHa.s 			page 13


 683              		.loc 1 699 0
 684 0272 019B     		ldr	r3, [sp, #4]
 685 0274 D3F81C32 		ldr	r3, [r3, #540]
 686 0278 DB68     		ldr	r3, [r3, #12]
 687 027a 039A     		ldr	r2, [sp, #12]
 688 027c D2F80412 		ldr	r1, [r2, #516]
 689 0280 039A     		ldr	r2, [sp, #12]
 690 0282 02F50372 		add	r2, r2, #524
 691 0286 0846     		mov	r0, r1
 692 0288 1146     		mov	r1, r2
 693 028a 9847     		blx	r3
 694              		.loc 1 701 0
 695 028c 0023     		movs	r3, #0
 696 028e 00E0     		b	.L31
 697              	.L30:
 698              		.loc 1 705 0
 699 0290 0223     		movs	r3, #2
 700              	.L31:
 701              		.loc 1 707 0
 702 0292 1846     		mov	r0, r3
 703 0294 05B0     		add	sp, sp, #20
 704              		@ sp needed
 705 0296 5DF804FB 		ldr	pc, [sp], #4
 706              		.cfi_endproc
 707              	.LFE129:
 708              		.size	USBD_CDC_DataOut, .-USBD_CDC_DataOut
 709 029a 00BF     		.align	2
 710 029c AFF30080 		.p2align 4,,15
 711              		.thumb
 712              		.thumb_func
 713              		.type	USBD_CDC_EP0_RxReady, %function
 714              	USBD_CDC_EP0_RxReady:
 715              	.LFB130:
 716              		.loc 1 719 0
 717              		.cfi_startproc
 718              		@ args = 0, pretend = 0, frame = 16
 719              		@ frame_needed = 0, uses_anonymous_args = 0
 720 02a0 00B5     		push	{lr}
 721              		.cfi_def_cfa_offset 4
 722              		.cfi_offset 14, -4
 723 02a2 85B0     		sub	sp, sp, #20
 724              		.cfi_def_cfa_offset 24
 725 02a4 0190     		str	r0, [sp, #4]
 726              		.loc 1 720 0
 727 02a6 019B     		ldr	r3, [sp, #4]
 728 02a8 D3F81832 		ldr	r3, [r3, #536]
 729 02ac 0393     		str	r3, [sp, #12]
 730              		.loc 1 722 0
 731 02ae 019B     		ldr	r3, [sp, #4]
 732 02b0 D3F81C32 		ldr	r3, [r3, #540]
 733 02b4 002B     		cmp	r3, #0
 734 02b6 14D0     		beq	.L33
 735              		.loc 1 722 0 is_stmt 0 discriminator 1
 736 02b8 039B     		ldr	r3, [sp, #12]
 737 02ba 93F80032 		ldrb	r3, [r3, #512]	@ zero_extendqisi2
 738 02be FF2B     		cmp	r3, #255
 739 02c0 0FD0     		beq	.L33
ARM GAS  /tmp/ccQzkBHa.s 			page 14


 740              		.loc 1 724 0 is_stmt 1
 741 02c2 019B     		ldr	r3, [sp, #4]
 742 02c4 D3F81C32 		ldr	r3, [r3, #540]
 743 02c8 9B68     		ldr	r3, [r3, #8]
 744 02ca 039A     		ldr	r2, [sp, #12]
 745 02cc 92F80002 		ldrb	r0, [r2, #512]	@ zero_extendqisi2
 746              		.loc 1 725 0
 747 02d0 0399     		ldr	r1, [sp, #12]
 748              		.loc 1 726 0
 749 02d2 039A     		ldr	r2, [sp, #12]
 750 02d4 92F80122 		ldrb	r2, [r2, #513]	@ zero_extendqisi2
 751              		.loc 1 724 0
 752 02d8 9847     		blx	r3
 753              		.loc 1 727 0
 754 02da 039B     		ldr	r3, [sp, #12]
 755 02dc FF22     		movs	r2, #255
 756 02de 83F80022 		strb	r2, [r3, #512]
 757              	.L33:
 758              		.loc 1 730 0
 759 02e2 0023     		movs	r3, #0
 760              		.loc 1 731 0
 761 02e4 1846     		mov	r0, r3
 762 02e6 05B0     		add	sp, sp, #20
 763              		@ sp needed
 764 02e8 5DF804FB 		ldr	pc, [sp], #4
 765              		.cfi_endproc
 766              	.LFE130:
 767              		.size	USBD_CDC_EP0_RxReady, .-USBD_CDC_EP0_RxReady
 768              		.align	2
 769 02ec AFF30080 		.p2align 4,,15
 770              		.thumb
 771              		.thumb_func
 772              		.type	USBD_CDC_GetFSCfgDesc, %function
 773              	USBD_CDC_GetFSCfgDesc:
 774              	.LFB131:
 775              		.loc 1 741 0
 776              		.cfi_startproc
 777              		@ args = 0, pretend = 0, frame = 8
 778              		@ frame_needed = 0, uses_anonymous_args = 0
 779              		@ link register save eliminated.
 780 02f0 82B0     		sub	sp, sp, #8
 781              		.cfi_def_cfa_offset 8
 782 02f2 0190     		str	r0, [sp, #4]
 783              		.loc 1 742 0
 784 02f4 019B     		ldr	r3, [sp, #4]
 785 02f6 4322     		movs	r2, #67
 786 02f8 1A80     		strh	r2, [r3]	@ movhi
 787              		.loc 1 743 0
 788 02fa 024B     		ldr	r3, .L37
 789              		.loc 1 744 0
 790 02fc 1846     		mov	r0, r3
 791 02fe 02B0     		add	sp, sp, #8
 792              		@ sp needed
 793 0300 7047     		bx	lr
 794              	.L38:
 795 0302 00BF     		.align	2
 796              	.L37:
ARM GAS  /tmp/ccQzkBHa.s 			page 15


 797 0304 00000000 		.word	USBD_CDC_CfgFSDesc
 798              		.cfi_endproc
 799              	.LFE131:
 800              		.size	USBD_CDC_GetFSCfgDesc, .-USBD_CDC_GetFSCfgDesc
 801              		.align	2
 802 0308 AFF30080 		.p2align 4,,15
 802      AFF30080 
 803              		.thumb
 804              		.thumb_func
 805              		.type	USBD_CDC_GetHSCfgDesc, %function
 806              	USBD_CDC_GetHSCfgDesc:
 807              	.LFB132:
 808              		.loc 1 754 0
 809              		.cfi_startproc
 810              		@ args = 0, pretend = 0, frame = 8
 811              		@ frame_needed = 0, uses_anonymous_args = 0
 812              		@ link register save eliminated.
 813 0310 82B0     		sub	sp, sp, #8
 814              		.cfi_def_cfa_offset 8
 815 0312 0190     		str	r0, [sp, #4]
 816              		.loc 1 755 0
 817 0314 019B     		ldr	r3, [sp, #4]
 818 0316 4322     		movs	r2, #67
 819 0318 1A80     		strh	r2, [r3]	@ movhi
 820              		.loc 1 756 0
 821 031a 024B     		ldr	r3, .L41
 822              		.loc 1 757 0
 823 031c 1846     		mov	r0, r3
 824 031e 02B0     		add	sp, sp, #8
 825              		@ sp needed
 826 0320 7047     		bx	lr
 827              	.L42:
 828 0322 00BF     		.align	2
 829              	.L41:
 830 0324 00000000 		.word	USBD_CDC_CfgHSDesc
 831              		.cfi_endproc
 832              	.LFE132:
 833              		.size	USBD_CDC_GetHSCfgDesc, .-USBD_CDC_GetHSCfgDesc
 834              		.align	2
 835 0328 AFF30080 		.p2align 4,,15
 835      AFF30080 
 836              		.thumb
 837              		.thumb_func
 838              		.type	USBD_CDC_GetOtherSpeedCfgDesc, %function
 839              	USBD_CDC_GetOtherSpeedCfgDesc:
 840              	.LFB133:
 841              		.loc 1 767 0
 842              		.cfi_startproc
 843              		@ args = 0, pretend = 0, frame = 8
 844              		@ frame_needed = 0, uses_anonymous_args = 0
 845              		@ link register save eliminated.
 846 0330 82B0     		sub	sp, sp, #8
 847              		.cfi_def_cfa_offset 8
 848 0332 0190     		str	r0, [sp, #4]
 849              		.loc 1 768 0
 850 0334 019B     		ldr	r3, [sp, #4]
 851 0336 4322     		movs	r2, #67
ARM GAS  /tmp/ccQzkBHa.s 			page 16


 852 0338 1A80     		strh	r2, [r3]	@ movhi
 853              		.loc 1 769 0
 854 033a 024B     		ldr	r3, .L45
 855              		.loc 1 770 0
 856 033c 1846     		mov	r0, r3
 857 033e 02B0     		add	sp, sp, #8
 858              		@ sp needed
 859 0340 7047     		bx	lr
 860              	.L46:
 861 0342 00BF     		.align	2
 862              	.L45:
 863 0344 00000000 		.word	USBD_CDC_OtherSpeedCfgDesc
 864              		.cfi_endproc
 865              	.LFE133:
 866              		.size	USBD_CDC_GetOtherSpeedCfgDesc, .-USBD_CDC_GetOtherSpeedCfgDesc
 867              		.align	2
 868 0348 AFF30080 		.p2align 4,,15
 868      AFF30080 
 869              		.global	USBD_CDC_GetDeviceQualifierDescriptor
 870              		.thumb
 871              		.thumb_func
 872              		.type	USBD_CDC_GetDeviceQualifierDescriptor, %function
 873              	USBD_CDC_GetDeviceQualifierDescriptor:
 874              	.LFB134:
 875              		.loc 1 779 0
 876              		.cfi_startproc
 877              		@ args = 0, pretend = 0, frame = 8
 878              		@ frame_needed = 0, uses_anonymous_args = 0
 879              		@ link register save eliminated.
 880 0350 82B0     		sub	sp, sp, #8
 881              		.cfi_def_cfa_offset 8
 882 0352 0190     		str	r0, [sp, #4]
 883              		.loc 1 780 0
 884 0354 019B     		ldr	r3, [sp, #4]
 885 0356 0A22     		movs	r2, #10
 886 0358 1A80     		strh	r2, [r3]	@ movhi
 887              		.loc 1 781 0
 888 035a 024B     		ldr	r3, .L49
 889              		.loc 1 782 0
 890 035c 1846     		mov	r0, r3
 891 035e 02B0     		add	sp, sp, #8
 892              		@ sp needed
 893 0360 7047     		bx	lr
 894              	.L50:
 895 0362 00BF     		.align	2
 896              	.L49:
 897 0364 00000000 		.word	USBD_CDC_DeviceQualifierDesc
 898              		.cfi_endproc
 899              	.LFE134:
 900              		.size	USBD_CDC_GetDeviceQualifierDescriptor, .-USBD_CDC_GetDeviceQualifierDescriptor
 901              		.align	2
 902 0368 AFF30080 		.p2align 4,,15
 902      AFF30080 
 903              		.global	USBD_CDC_RegisterInterface
 904              		.thumb
 905              		.thumb_func
 906              		.type	USBD_CDC_RegisterInterface, %function
ARM GAS  /tmp/ccQzkBHa.s 			page 17


 907              	USBD_CDC_RegisterInterface:
 908              	.LFB135:
 909              		.loc 1 792 0
 910              		.cfi_startproc
 911              		@ args = 0, pretend = 0, frame = 16
 912              		@ frame_needed = 0, uses_anonymous_args = 0
 913              		@ link register save eliminated.
 914 0370 84B0     		sub	sp, sp, #16
 915              		.cfi_def_cfa_offset 16
 916 0372 0190     		str	r0, [sp, #4]
 917 0374 0091     		str	r1, [sp]
 918              		.loc 1 793 0
 919 0376 0223     		movs	r3, #2
 920 0378 8DF80F30 		strb	r3, [sp, #15]
 921              		.loc 1 795 0
 922 037c 009B     		ldr	r3, [sp]
 923 037e 002B     		cmp	r3, #0
 924 0380 06D0     		beq	.L52
 925              		.loc 1 797 0
 926 0382 019B     		ldr	r3, [sp, #4]
 927 0384 009A     		ldr	r2, [sp]
 928 0386 C3F81C22 		str	r2, [r3, #540]
 929              		.loc 1 798 0
 930 038a 0023     		movs	r3, #0
 931 038c 8DF80F30 		strb	r3, [sp, #15]
 932              	.L52:
 933              		.loc 1 801 0
 934 0390 9DF80F30 		ldrb	r3, [sp, #15]	@ zero_extendqisi2
 935              		.loc 1 802 0
 936 0394 1846     		mov	r0, r3
 937 0396 04B0     		add	sp, sp, #16
 938              		@ sp needed
 939 0398 7047     		bx	lr
 940              		.cfi_endproc
 941              	.LFE135:
 942              		.size	USBD_CDC_RegisterInterface, .-USBD_CDC_RegisterInterface
 943 039a 00BF     		.align	2
 944 039c AFF30080 		.p2align 4,,15
 945              		.global	USBD_CDC_SetTxBuffer
 946              		.thumb
 947              		.thumb_func
 948              		.type	USBD_CDC_SetTxBuffer, %function
 949              	USBD_CDC_SetTxBuffer:
 950              	.LFB136:
 951              		.loc 1 813 0
 952              		.cfi_startproc
 953              		@ args = 0, pretend = 0, frame = 24
 954              		@ frame_needed = 0, uses_anonymous_args = 0
 955              		@ link register save eliminated.
 956 03a0 86B0     		sub	sp, sp, #24
 957              		.cfi_def_cfa_offset 24
 958 03a2 0390     		str	r0, [sp, #12]
 959 03a4 0291     		str	r1, [sp, #8]
 960 03a6 1346     		mov	r3, r2
 961 03a8 ADF80630 		strh	r3, [sp, #6]	@ movhi
 962              		.loc 1 814 0
 963 03ac 039B     		ldr	r3, [sp, #12]
ARM GAS  /tmp/ccQzkBHa.s 			page 18


 964 03ae D3F81832 		ldr	r3, [r3, #536]
 965 03b2 0593     		str	r3, [sp, #20]
 966              		.loc 1 816 0
 967 03b4 059B     		ldr	r3, [sp, #20]
 968 03b6 029A     		ldr	r2, [sp, #8]
 969 03b8 C3F80822 		str	r2, [r3, #520]
 970              		.loc 1 817 0
 971 03bc BDF80620 		ldrh	r2, [sp, #6]
 972 03c0 059B     		ldr	r3, [sp, #20]
 973 03c2 C3F81022 		str	r2, [r3, #528]
 974              		.loc 1 819 0
 975 03c6 0023     		movs	r3, #0
 976              		.loc 1 820 0
 977 03c8 1846     		mov	r0, r3
 978 03ca 06B0     		add	sp, sp, #24
 979              		@ sp needed
 980 03cc 7047     		bx	lr
 981              		.cfi_endproc
 982              	.LFE136:
 983              		.size	USBD_CDC_SetTxBuffer, .-USBD_CDC_SetTxBuffer
 984 03ce 00BF     		.align	2
 985              		.p2align 4,,15
 986              		.global	USBD_CDC_SetRxBuffer
 987              		.thumb
 988              		.thumb_func
 989              		.type	USBD_CDC_SetRxBuffer, %function
 990              	USBD_CDC_SetRxBuffer:
 991              	.LFB137:
 992              		.loc 1 831 0
 993              		.cfi_startproc
 994              		@ args = 0, pretend = 0, frame = 16
 995              		@ frame_needed = 0, uses_anonymous_args = 0
 996              		@ link register save eliminated.
 997 03d0 84B0     		sub	sp, sp, #16
 998              		.cfi_def_cfa_offset 16
 999 03d2 0190     		str	r0, [sp, #4]
 1000 03d4 0091     		str	r1, [sp]
 1001              		.loc 1 832 0
 1002 03d6 019B     		ldr	r3, [sp, #4]
 1003 03d8 D3F81832 		ldr	r3, [r3, #536]
 1004 03dc 0393     		str	r3, [sp, #12]
 1005              		.loc 1 834 0
 1006 03de 039B     		ldr	r3, [sp, #12]
 1007 03e0 009A     		ldr	r2, [sp]
 1008 03e2 C3F80422 		str	r2, [r3, #516]
 1009              		.loc 1 836 0
 1010 03e6 0023     		movs	r3, #0
 1011              		.loc 1 837 0
 1012 03e8 1846     		mov	r0, r3
 1013 03ea 04B0     		add	sp, sp, #16
 1014              		@ sp needed
 1015 03ec 7047     		bx	lr
 1016              		.cfi_endproc
 1017              	.LFE137:
 1018              		.size	USBD_CDC_SetRxBuffer, .-USBD_CDC_SetRxBuffer
 1019 03ee 00BF     		.align	2
 1020              		.p2align 4,,15
ARM GAS  /tmp/ccQzkBHa.s 			page 19


 1021              		.global	USBD_CDC_TransmitPacket
 1022              		.thumb
 1023              		.thumb_func
 1024              		.type	USBD_CDC_TransmitPacket, %function
 1025              	USBD_CDC_TransmitPacket:
 1026              	.LFB138:
 1027              		.loc 1 847 0
 1028              		.cfi_startproc
 1029              		@ args = 0, pretend = 0, frame = 16
 1030              		@ frame_needed = 0, uses_anonymous_args = 0
 1031 03f0 00B5     		push	{lr}
 1032              		.cfi_def_cfa_offset 4
 1033              		.cfi_offset 14, -4
 1034 03f2 85B0     		sub	sp, sp, #20
 1035              		.cfi_def_cfa_offset 24
 1036 03f4 0190     		str	r0, [sp, #4]
 1037              		.loc 1 848 0
 1038 03f6 019B     		ldr	r3, [sp, #4]
 1039 03f8 D3F81832 		ldr	r3, [r3, #536]
 1040 03fc 0393     		str	r3, [sp, #12]
 1041              		.loc 1 850 0
 1042 03fe 019B     		ldr	r3, [sp, #4]
 1043 0400 D3F81832 		ldr	r3, [r3, #536]
 1044 0404 002B     		cmp	r3, #0
 1045 0406 17D0     		beq	.L59
 1046              		.loc 1 852 0
 1047 0408 039B     		ldr	r3, [sp, #12]
 1048 040a D3F81432 		ldr	r3, [r3, #532]
 1049 040e 002B     		cmp	r3, #0
 1050 0410 10D1     		bne	.L60
 1051              		.loc 1 855 0
 1052 0412 039B     		ldr	r3, [sp, #12]
 1053 0414 0122     		movs	r2, #1
 1054 0416 C3F81422 		str	r2, [r3, #532]
 1055              		.loc 1 858 0
 1056 041a 039B     		ldr	r3, [sp, #12]
 1057 041c D3F80822 		ldr	r2, [r3, #520]
 1058              		.loc 1 861 0
 1059 0420 039B     		ldr	r3, [sp, #12]
 1060 0422 D3F81032 		ldr	r3, [r3, #528]
 1061              		.loc 1 858 0
 1062 0426 9BB2     		uxth	r3, r3
 1063 0428 0198     		ldr	r0, [sp, #4]
 1064 042a 8121     		movs	r1, #129
 1065 042c FFF7FEFF 		bl	USBD_LL_Transmit
 1066              		.loc 1 863 0
 1067 0430 0023     		movs	r3, #0
 1068 0432 02E0     		b	.L61
 1069              	.L60:
 1070              		.loc 1 867 0
 1071 0434 0123     		movs	r3, #1
 1072 0436 00E0     		b	.L61
 1073              	.L59:
 1074              		.loc 1 872 0
 1075 0438 0223     		movs	r3, #2
 1076              	.L61:
 1077              		.loc 1 874 0
ARM GAS  /tmp/ccQzkBHa.s 			page 20


 1078 043a 1846     		mov	r0, r3
 1079 043c 05B0     		add	sp, sp, #20
 1080              		@ sp needed
 1081 043e 5DF804FB 		ldr	pc, [sp], #4
 1082              		.cfi_endproc
 1083              	.LFE138:
 1084              		.size	USBD_CDC_TransmitPacket, .-USBD_CDC_TransmitPacket
 1085 0442 00BF     		.align	2
 1086 0444 AFF30080 		.p2align 4,,15
 1086      AFF30080 
 1086      AFF30080 
 1087              		.global	USBD_CDC_ReceivePacket
 1088              		.thumb
 1089              		.thumb_func
 1090              		.type	USBD_CDC_ReceivePacket, %function
 1091              	USBD_CDC_ReceivePacket:
 1092              	.LFB139:
 1093              		.loc 1 884 0
 1094              		.cfi_startproc
 1095              		@ args = 0, pretend = 0, frame = 16
 1096              		@ frame_needed = 0, uses_anonymous_args = 0
 1097 0450 00B5     		push	{lr}
 1098              		.cfi_def_cfa_offset 4
 1099              		.cfi_offset 14, -4
 1100 0452 85B0     		sub	sp, sp, #20
 1101              		.cfi_def_cfa_offset 24
 1102 0454 0190     		str	r0, [sp, #4]
 1103              		.loc 1 885 0
 1104 0456 019B     		ldr	r3, [sp, #4]
 1105 0458 D3F81832 		ldr	r3, [r3, #536]
 1106 045c 0393     		str	r3, [sp, #12]
 1107              		.loc 1 888 0
 1108 045e 019B     		ldr	r3, [sp, #4]
 1109 0460 D3F81832 		ldr	r3, [r3, #536]
 1110 0464 002B     		cmp	r3, #0
 1111 0466 19D0     		beq	.L63
 1112              		.loc 1 890 0
 1113 0468 019B     		ldr	r3, [sp, #4]
 1114 046a 1B7C     		ldrb	r3, [r3, #16]	@ zero_extendqisi2
 1115 046c 002B     		cmp	r3, #0
 1116 046e 0AD1     		bne	.L64
 1117              		.loc 1 893 0
 1118 0470 039B     		ldr	r3, [sp, #12]
 1119 0472 D3F80432 		ldr	r3, [r3, #516]
 1120 0476 0198     		ldr	r0, [sp, #4]
 1121 0478 0121     		movs	r1, #1
 1122 047a 1A46     		mov	r2, r3
 1123 047c 4FF40073 		mov	r3, #512
 1124 0480 FFF7FEFF 		bl	USBD_LL_PrepareReceive
 1125 0484 08E0     		b	.L65
 1126              	.L64:
 1127              		.loc 1 901 0
 1128 0486 039B     		ldr	r3, [sp, #12]
 1129 0488 D3F80432 		ldr	r3, [r3, #516]
 1130 048c 0198     		ldr	r0, [sp, #4]
 1131 048e 0121     		movs	r1, #1
 1132 0490 1A46     		mov	r2, r3
ARM GAS  /tmp/ccQzkBHa.s 			page 21


 1133 0492 4023     		movs	r3, #64
 1134 0494 FFF7FEFF 		bl	USBD_LL_PrepareReceive
 1135              	.L65:
 1136              		.loc 1 906 0
 1137 0498 0023     		movs	r3, #0
 1138 049a 00E0     		b	.L66
 1139              	.L63:
 1140              		.loc 1 910 0
 1141 049c 0223     		movs	r3, #2
 1142              	.L66:
 1143              		.loc 1 912 0
 1144 049e 1846     		mov	r0, r3
 1145 04a0 05B0     		add	sp, sp, #20
 1146              		@ sp needed
 1147 04a2 5DF804FB 		ldr	pc, [sp], #4
 1148              		.cfi_endproc
 1149              	.LFE139:
 1150              		.size	USBD_CDC_ReceivePacket, .-USBD_CDC_ReceivePacket
 1151              		.bss
 1152              	ifalt.9550:
 1153 0000 00       		.space	1
 1154              		.text
 1155              	.Letext0:
 1156              		.file 2 "/nfs/nfs5/home/research/hardware/arm2/gcc-arm-embedded/gcc-arm-none-eabi-4_8-2014q2/arm-n
 1157              		.file 3 "/nfs/nfs5/home/research/hardware/arm2/gcc-arm-embedded/gcc-arm-none-eabi-4_8-2014q2/arm-n
 1158              		.file 4 "../../../../../Middlewares/ST/STM32_USB_Device_Library/Core/Inc/usbd_def.h"
 1159              		.file 5 "../../../../../Middlewares/ST/STM32_USB_Device_Library/Class/CDC/Inc/usbd_cdc.h"
 1160              		.file 6 "../../../../../../ChibiOS/os/ext/CMSIS/include/core_cm4.h"