ARM GAS  /tmp/ccSQ3RPF.s 			page 1


   1              		.syntax unified
   2              		.cpu cortex-m4
   3              		.fpu softvfp
   4              		.eabi_attribute 20, 1
   5              		.eabi_attribute 21, 1
   6              		.eabi_attribute 23, 3
   7              		.eabi_attribute 24, 1
   8              		.eabi_attribute 25, 1
   9              		.eabi_attribute 26, 1
  10              		.eabi_attribute 30, 6
  11              		.eabi_attribute 34, 1
  12              		.eabi_attribute 18, 4
  13              		.thumb
  14              		.file	"usbd_ioreq.c"
  15              		.text
  16              	.Ltext0:
  17              		.cfi_sections	.debug_frame
  18              		.align	2
  19              		.p2align 4,,15
  20              		.global	USBD_CtlSendData
  21              		.thumb
  22              		.thumb_func
  23              		.type	USBD_CtlSendData, %function
  24              	USBD_CtlSendData:
  25              	.LFB125:
  26              		.file 1 "../../../../../Middlewares/ST/STM32_USB_Device_Library/Core/Src/usbd_ioreq.c"
  27              		.loc 1 98 0
  28              		.cfi_startproc
  29              		@ args = 0, pretend = 0, frame = 16
  30              		@ frame_needed = 0, uses_anonymous_args = 0
  31 0000 00B5     		push	{lr}
  32              		.cfi_def_cfa_offset 4
  33              		.cfi_offset 14, -4
  34 0002 85B0     		sub	sp, sp, #20
  35              		.cfi_def_cfa_offset 24
  36 0004 0390     		str	r0, [sp, #12]
  37 0006 0291     		str	r1, [sp, #8]
  38 0008 1346     		mov	r3, r2
  39 000a ADF80630 		strh	r3, [sp, #6]	@ movhi
  40              		.loc 1 100 0
  41 000e 039B     		ldr	r3, [sp, #12]
  42 0010 0222     		movs	r2, #2
  43 0012 C3F8F421 		str	r2, [r3, #500]
  44              		.loc 1 101 0
  45 0016 BDF80620 		ldrh	r2, [sp, #6]
  46 001a 039B     		ldr	r3, [sp, #12]
  47 001c 9A61     		str	r2, [r3, #24]
  48              		.loc 1 102 0
  49 001e BDF80620 		ldrh	r2, [sp, #6]
  50 0022 039B     		ldr	r3, [sp, #12]
  51 0024 DA61     		str	r2, [r3, #28]
  52              		.loc 1 104 0
  53 0026 BDF80630 		ldrh	r3, [sp, #6]
  54 002a 0398     		ldr	r0, [sp, #12]
  55 002c 0021     		movs	r1, #0
  56 002e 029A     		ldr	r2, [sp, #8]
  57 0030 FFF7FEFF 		bl	USBD_LL_Transmit
ARM GAS  /tmp/ccSQ3RPF.s 			page 2


  58              		.loc 1 106 0
  59 0034 0023     		movs	r3, #0
  60              		.loc 1 107 0
  61 0036 1846     		mov	r0, r3
  62 0038 05B0     		add	sp, sp, #20
  63              		@ sp needed
  64 003a 5DF804FB 		ldr	pc, [sp], #4
  65              		.cfi_endproc
  66              	.LFE125:
  67              		.size	USBD_CtlSendData, .-USBD_CtlSendData
  68 003e 00BF     		.align	2
  69              		.p2align 4,,15
  70              		.global	USBD_CtlContinueSendData
  71              		.thumb
  72              		.thumb_func
  73              		.type	USBD_CtlContinueSendData, %function
  74              	USBD_CtlContinueSendData:
  75              	.LFB126:
  76              		.loc 1 120 0
  77              		.cfi_startproc
  78              		@ args = 0, pretend = 0, frame = 16
  79              		@ frame_needed = 0, uses_anonymous_args = 0
  80 0040 00B5     		push	{lr}
  81              		.cfi_def_cfa_offset 4
  82              		.cfi_offset 14, -4
  83 0042 85B0     		sub	sp, sp, #20
  84              		.cfi_def_cfa_offset 24
  85 0044 0390     		str	r0, [sp, #12]
  86 0046 0291     		str	r1, [sp, #8]
  87 0048 1346     		mov	r3, r2
  88 004a ADF80630 		strh	r3, [sp, #6]	@ movhi
  89              		.loc 1 122 0
  90 004e BDF80630 		ldrh	r3, [sp, #6]
  91 0052 0398     		ldr	r0, [sp, #12]
  92 0054 0021     		movs	r1, #0
  93 0056 029A     		ldr	r2, [sp, #8]
  94 0058 FFF7FEFF 		bl	USBD_LL_Transmit
  95              		.loc 1 124 0
  96 005c 0023     		movs	r3, #0
  97              		.loc 1 125 0
  98 005e 1846     		mov	r0, r3
  99 0060 05B0     		add	sp, sp, #20
 100              		@ sp needed
 101 0062 5DF804FB 		ldr	pc, [sp], #4
 102              		.cfi_endproc
 103              	.LFE126:
 104              		.size	USBD_CtlContinueSendData, .-USBD_CtlContinueSendData
 105 0066 00BF     		.align	2
 106 0068 AFF30080 		.p2align 4,,15
 106      AFF30080 
 107              		.global	USBD_CtlPrepareRx
 108              		.thumb
 109              		.thumb_func
 110              		.type	USBD_CtlPrepareRx, %function
 111              	USBD_CtlPrepareRx:
 112              	.LFB127:
 113              		.loc 1 138 0
ARM GAS  /tmp/ccSQ3RPF.s 			page 3


 114              		.cfi_startproc
 115              		@ args = 0, pretend = 0, frame = 16
 116              		@ frame_needed = 0, uses_anonymous_args = 0
 117 0070 00B5     		push	{lr}
 118              		.cfi_def_cfa_offset 4
 119              		.cfi_offset 14, -4
 120 0072 85B0     		sub	sp, sp, #20
 121              		.cfi_def_cfa_offset 24
 122 0074 0390     		str	r0, [sp, #12]
 123 0076 0291     		str	r1, [sp, #8]
 124 0078 1346     		mov	r3, r2
 125 007a ADF80630 		strh	r3, [sp, #6]	@ movhi
 126              		.loc 1 140 0
 127 007e 039B     		ldr	r3, [sp, #12]
 128 0080 0322     		movs	r2, #3
 129 0082 C3F8F421 		str	r2, [r3, #500]
 130              		.loc 1 141 0
 131 0086 BDF80620 		ldrh	r2, [sp, #6]
 132 008a 039B     		ldr	r3, [sp, #12]
 133 008c C3F80821 		str	r2, [r3, #264]
 134              		.loc 1 142 0
 135 0090 BDF80620 		ldrh	r2, [sp, #6]
 136 0094 039B     		ldr	r3, [sp, #12]
 137 0096 C3F80C21 		str	r2, [r3, #268]
 138              		.loc 1 144 0
 139 009a BDF80630 		ldrh	r3, [sp, #6]
 140 009e 0398     		ldr	r0, [sp, #12]
 141 00a0 0021     		movs	r1, #0
 142 00a2 029A     		ldr	r2, [sp, #8]
 143 00a4 FFF7FEFF 		bl	USBD_LL_PrepareReceive
 144              		.loc 1 149 0
 145 00a8 0023     		movs	r3, #0
 146              		.loc 1 150 0
 147 00aa 1846     		mov	r0, r3
 148 00ac 05B0     		add	sp, sp, #20
 149              		@ sp needed
 150 00ae 5DF804FB 		ldr	pc, [sp], #4
 151              		.cfi_endproc
 152              	.LFE127:
 153              		.size	USBD_CtlPrepareRx, .-USBD_CtlPrepareRx
 154 00b2 00BF     		.align	2
 155 00b4 AFF30080 		.p2align 4,,15
 155      AFF30080 
 155      AFF30080 
 156              		.global	USBD_CtlContinueRx
 157              		.thumb
 158              		.thumb_func
 159              		.type	USBD_CtlContinueRx, %function
 160              	USBD_CtlContinueRx:
 161              	.LFB128:
 162              		.loc 1 163 0
 163              		.cfi_startproc
 164              		@ args = 0, pretend = 0, frame = 16
 165              		@ frame_needed = 0, uses_anonymous_args = 0
 166 00c0 00B5     		push	{lr}
 167              		.cfi_def_cfa_offset 4
 168              		.cfi_offset 14, -4
ARM GAS  /tmp/ccSQ3RPF.s 			page 4


 169 00c2 85B0     		sub	sp, sp, #20
 170              		.cfi_def_cfa_offset 24
 171 00c4 0390     		str	r0, [sp, #12]
 172 00c6 0291     		str	r1, [sp, #8]
 173 00c8 1346     		mov	r3, r2
 174 00ca ADF80630 		strh	r3, [sp, #6]	@ movhi
 175              		.loc 1 165 0
 176 00ce BDF80630 		ldrh	r3, [sp, #6]
 177 00d2 0398     		ldr	r0, [sp, #12]
 178 00d4 0021     		movs	r1, #0
 179 00d6 029A     		ldr	r2, [sp, #8]
 180 00d8 FFF7FEFF 		bl	USBD_LL_PrepareReceive
 181              		.loc 1 169 0
 182 00dc 0023     		movs	r3, #0
 183              		.loc 1 170 0
 184 00de 1846     		mov	r0, r3
 185 00e0 05B0     		add	sp, sp, #20
 186              		@ sp needed
 187 00e2 5DF804FB 		ldr	pc, [sp], #4
 188              		.cfi_endproc
 189              	.LFE128:
 190              		.size	USBD_CtlContinueRx, .-USBD_CtlContinueRx
 191 00e6 00BF     		.align	2
 192 00e8 AFF30080 		.p2align 4,,15
 192      AFF30080 
 193              		.global	USBD_CtlSendStatus
 194              		.thumb
 195              		.thumb_func
 196              		.type	USBD_CtlSendStatus, %function
 197              	USBD_CtlSendStatus:
 198              	.LFB129:
 199              		.loc 1 178 0
 200              		.cfi_startproc
 201              		@ args = 0, pretend = 0, frame = 8
 202              		@ frame_needed = 0, uses_anonymous_args = 0
 203 00f0 00B5     		push	{lr}
 204              		.cfi_def_cfa_offset 4
 205              		.cfi_offset 14, -4
 206 00f2 83B0     		sub	sp, sp, #12
 207              		.cfi_def_cfa_offset 16
 208 00f4 0190     		str	r0, [sp, #4]
 209              		.loc 1 181 0
 210 00f6 019B     		ldr	r3, [sp, #4]
 211 00f8 0422     		movs	r2, #4
 212 00fa C3F8F421 		str	r2, [r3, #500]
 213              		.loc 1 184 0
 214 00fe 0198     		ldr	r0, [sp, #4]
 215 0100 0021     		movs	r1, #0
 216 0102 0022     		movs	r2, #0
 217 0104 0023     		movs	r3, #0
 218 0106 FFF7FEFF 		bl	USBD_LL_Transmit
 219              		.loc 1 186 0
 220 010a 0023     		movs	r3, #0
 221              		.loc 1 187 0
 222 010c 1846     		mov	r0, r3
 223 010e 03B0     		add	sp, sp, #12
 224              		@ sp needed
ARM GAS  /tmp/ccSQ3RPF.s 			page 5


 225 0110 5DF804FB 		ldr	pc, [sp], #4
 226              		.cfi_endproc
 227              	.LFE129:
 228              		.size	USBD_CtlSendStatus, .-USBD_CtlSendStatus
 229              		.align	2
 230 0114 AFF30080 		.p2align 4,,15
 230      AFF30080 
 230      AFF30080 
 231              		.global	USBD_CtlReceiveStatus
 232              		.thumb
 233              		.thumb_func
 234              		.type	USBD_CtlReceiveStatus, %function
 235              	USBD_CtlReceiveStatus:
 236              	.LFB130:
 237              		.loc 1 196 0
 238              		.cfi_startproc
 239              		@ args = 0, pretend = 0, frame = 8
 240              		@ frame_needed = 0, uses_anonymous_args = 0
 241 0120 00B5     		push	{lr}
 242              		.cfi_def_cfa_offset 4
 243              		.cfi_offset 14, -4
 244 0122 83B0     		sub	sp, sp, #12
 245              		.cfi_def_cfa_offset 16
 246 0124 0190     		str	r0, [sp, #4]
 247              		.loc 1 198 0
 248 0126 019B     		ldr	r3, [sp, #4]
 249 0128 0522     		movs	r2, #5
 250 012a C3F8F421 		str	r2, [r3, #500]
 251              		.loc 1 201 0
 252 012e 0198     		ldr	r0, [sp, #4]
 253 0130 0021     		movs	r1, #0
 254 0132 0022     		movs	r2, #0
 255 0134 0023     		movs	r3, #0
 256 0136 FFF7FEFF 		bl	USBD_LL_PrepareReceive
 257              		.loc 1 206 0
 258 013a 0023     		movs	r3, #0
 259              		.loc 1 207 0
 260 013c 1846     		mov	r0, r3
 261 013e 03B0     		add	sp, sp, #12
 262              		@ sp needed
 263 0140 5DF804FB 		ldr	pc, [sp], #4
 264              		.cfi_endproc
 265              	.LFE130:
 266              		.size	USBD_CtlReceiveStatus, .-USBD_CtlReceiveStatus
 267              		.align	2
 268 0144 AFF30080 		.p2align 4,,15
 268      AFF30080 
 268      AFF30080 
 269              		.global	USBD_GetRxCount
 270              		.thumb
 271              		.thumb_func
 272              		.type	USBD_GetRxCount, %function
 273              	USBD_GetRxCount:
 274              	.LFB131:
 275              		.loc 1 218 0
 276              		.cfi_startproc
 277              		@ args = 0, pretend = 0, frame = 8
ARM GAS  /tmp/ccSQ3RPF.s 			page 6


 278              		@ frame_needed = 0, uses_anonymous_args = 0
 279 0150 00B5     		push	{lr}
 280              		.cfi_def_cfa_offset 4
 281              		.cfi_offset 14, -4
 282 0152 83B0     		sub	sp, sp, #12
 283              		.cfi_def_cfa_offset 16
 284 0154 0190     		str	r0, [sp, #4]
 285 0156 0B46     		mov	r3, r1
 286 0158 8DF80330 		strb	r3, [sp, #3]
 287              		.loc 1 219 0
 288 015c 9DF80330 		ldrb	r3, [sp, #3]	@ zero_extendqisi2
 289 0160 0198     		ldr	r0, [sp, #4]
 290 0162 1946     		mov	r1, r3
 291 0164 FFF7FEFF 		bl	USBD_LL_GetRxDataSize
 292 0168 0346     		mov	r3, r0
 293 016a 9BB2     		uxth	r3, r3
 294              		.loc 1 220 0
 295 016c 1846     		mov	r0, r3
 296 016e 03B0     		add	sp, sp, #12
 297              		@ sp needed
 298 0170 5DF804FB 		ldr	pc, [sp], #4
 299              		.cfi_endproc
 300              	.LFE131:
 301              		.size	USBD_GetRxCount, .-USBD_GetRxCount
 302              	.Letext0:
 303              		.file 2 "/nfs/nfs5/home/research/hardware/arm2/gcc-arm-embedded/gcc-arm-none-eabi-4_8-2014q2/arm-n
 304              		.file 3 "/nfs/nfs5/home/research/hardware/arm2/gcc-arm-embedded/gcc-arm-none-eabi-4_8-2014q2/arm-n
 305              		.file 4 "../../../../../Middlewares/ST/STM32_USB_Device_Library/Core/Inc/usbd_def.h"
 306              		.file 5 "../../../../../../ChibiOS/os/ext/CMSIS/include/core_cm4.h"