ARM GAS  /tmp/ccRrg1qB.s 			page 1


   1              		.syntax unified
   2              		.cpu cortex-m4
   3              		.fpu softvfp
   4              		.eabi_attribute 20, 1
   5              		.eabi_attribute 21, 1
   6              		.eabi_attribute 23, 3
   7              		.eabi_attribute 24, 1
   8              		.eabi_attribute 25, 1
   9              		.eabi_attribute 26, 1
  10              		.eabi_attribute 30, 6
  11              		.eabi_attribute 34, 1
  12              		.eabi_attribute 18, 4
  13              		.thumb
  14              		.file	"LSM303AGR_ACC_driver.c"
  15              		.text
  16              	.Ltext0:
  17              		.cfi_sections	.debug_frame
  18              		.data
  19              		.align	2
  20              		.type	lsm303ad_accel_cfg, %object
  21              		.size	lsm303ad_accel_cfg, 16
  22              	lsm303ad_accel_cfg:
  23 0000 00000000 		.word	0
  24 0004 00080048 		.word	1207961600
  25 0008 0400     		.short	4
  26 000a 30C0     		.short	-16336
  27 000c 0000     		.short	0
  28 000e 0000     		.space	2
  29              		.text
  30              		.align	2
  31              		.p2align 4,,15
  32              		.global	LSM303AGR_ACC_Init
  33              		.thumb
  34              		.thumb_func
  35              		.type	LSM303AGR_ACC_Init, %function
  36              	LSM303AGR_ACC_Init:
  37              	.LFB267:
  38              		.file 1 "./driver/LSM303AGR_ACC_driver.c"
  39              		.loc 1 74 0
  40              		.cfi_startproc
  41              		@ args = 0, pretend = 0, frame = 8
  42              		@ frame_needed = 0, uses_anonymous_args = 0
  43 0000 00B5     		push	{lr}
  44              		.cfi_def_cfa_offset 4
  45              		.cfi_offset 14, -4
  46 0002 83B0     		sub	sp, sp, #12
  47              		.cfi_def_cfa_offset 16
  48              		.loc 1 75 0
  49 0004 0123     		movs	r3, #1
  50 0006 8DF80730 		strb	r3, [sp, #7]
  51              		.loc 1 76 0
  52 000a 2723     		movs	r3, #39
  53 000c 8DF80630 		strb	r3, [sp, #6]
  54              		.loc 1 77 0
  55 0010 0DF10603 		add	r3, sp, #6
  56 0014 0020     		movs	r0, #0
  57 0016 2021     		movs	r1, #32
ARM GAS  /tmp/ccRrg1qB.s 			page 2


  58 0018 1A46     		mov	r2, r3
  59 001a 0123     		movs	r3, #1
  60 001c FFF7FEFF 		bl	LSM303AGR_ACC_WriteReg
  61              		.loc 1 78 0
  62 0020 0DF10703 		add	r3, sp, #7
  63 0024 0020     		movs	r0, #0
  64 0026 2321     		movs	r1, #35
  65 0028 1A46     		mov	r2, r3
  66 002a 0123     		movs	r3, #1
  67 002c FFF7FEFF 		bl	LSM303AGR_ACC_WriteReg
  68              		.loc 1 79 0
  69 0030 0123     		movs	r3, #1
  70              		.loc 1 80 0
  71 0032 1846     		mov	r0, r3
  72 0034 03B0     		add	sp, sp, #12
  73              		@ sp needed
  74 0036 5DF804FB 		ldr	pc, [sp], #4
  75              		.cfi_endproc
  76              	.LFE267:
  77              		.size	LSM303AGR_ACC_Init, .-LSM303AGR_ACC_Init
  78 003a 00BF     		.align	2
  79 003c AFF30080 		.p2align 4,,15
  80              		.global	LSM303AGR_ACC_HR_Init
  81              		.thumb
  82              		.thumb_func
  83              		.type	LSM303AGR_ACC_HR_Init, %function
  84              	LSM303AGR_ACC_HR_Init:
  85              	.LFB268:
  86              		.loc 1 82 0
  87              		.cfi_startproc
  88              		@ args = 0, pretend = 0, frame = 8
  89              		@ frame_needed = 0, uses_anonymous_args = 0
  90 0040 00B5     		push	{lr}
  91              		.cfi_def_cfa_offset 4
  92              		.cfi_offset 14, -4
  93 0042 83B0     		sub	sp, sp, #12
  94              		.cfi_def_cfa_offset 16
  95              		.loc 1 83 0
  96 0044 0923     		movs	r3, #9
  97 0046 8DF80730 		strb	r3, [sp, #7]
  98              		.loc 1 84 0
  99 004a 2723     		movs	r3, #39
 100 004c 8DF80630 		strb	r3, [sp, #6]
 101              		.loc 1 85 0
 102 0050 0DF10603 		add	r3, sp, #6
 103 0054 0020     		movs	r0, #0
 104 0056 2021     		movs	r1, #32
 105 0058 1A46     		mov	r2, r3
 106 005a 0123     		movs	r3, #1
 107 005c FFF7FEFF 		bl	LSM303AGR_ACC_WriteReg
 108              		.loc 1 86 0
 109 0060 0DF10703 		add	r3, sp, #7
 110 0064 0020     		movs	r0, #0
 111 0066 2321     		movs	r1, #35
 112 0068 1A46     		mov	r2, r3
 113 006a 0123     		movs	r3, #1
 114 006c FFF7FEFF 		bl	LSM303AGR_ACC_WriteReg
ARM GAS  /tmp/ccRrg1qB.s 			page 3


 115              		.loc 1 87 0
 116 0070 0123     		movs	r3, #1
 117              		.loc 1 88 0
 118 0072 1846     		mov	r0, r3
 119 0074 03B0     		add	sp, sp, #12
 120              		@ sp needed
 121 0076 5DF804FB 		ldr	pc, [sp], #4
 122              		.cfi_endproc
 123              	.LFE268:
 124              		.size	LSM303AGR_ACC_HR_Init, .-LSM303AGR_ACC_HR_Init
 125 007a 00BF     		.align	2
 126 007c AFF30080 		.p2align 4,,15
 127              		.global	LSM303AGR_ACC_WriteReg
 128              		.thumb
 129              		.thumb_func
 130              		.type	LSM303AGR_ACC_WriteReg, %function
 131              	LSM303AGR_ACC_WriteReg:
 132              	.LFB269:
 133              		.loc 1 99 0
 134              		.cfi_startproc
 135              		@ args = 0, pretend = 0, frame = 16
 136              		@ frame_needed = 0, uses_anonymous_args = 0
 137 0080 00B5     		push	{lr}
 138              		.cfi_def_cfa_offset 4
 139              		.cfi_offset 14, -4
 140 0082 85B0     		sub	sp, sp, #20
 141              		.cfi_def_cfa_offset 24
 142 0084 0390     		str	r0, [sp, #12]
 143 0086 0192     		str	r2, [sp, #4]
 144 0088 0A46     		mov	r2, r1
 145 008a 8DF80B20 		strb	r2, [sp, #11]
 146 008e ADF80830 		strh	r3, [sp, #8]	@ movhi
 147              		.loc 1 101 0
 148 0092 9DF80B20 		ldrb	r2, [sp, #11]	@ zero_extendqisi2
 149 0096 BDF80830 		ldrh	r3, [sp, #8]
 150 009a 0748     		ldr	r0, .L8
 151 009c 1146     		mov	r1, r2
 152 009e 019A     		ldr	r2, [sp, #4]
 153 00a0 FFF7FEFF 		bl	Sensor_IO_SPI_Write
 154 00a4 0346     		mov	r3, r0
 155 00a6 002B     		cmp	r3, #0
 156 00a8 01D0     		beq	.L6
 157              		.loc 1 103 0
 158 00aa 0023     		movs	r3, #0
 159 00ac 00E0     		b	.L7
 160              	.L6:
 161              		.loc 1 107 0
 162 00ae 0123     		movs	r3, #1
 163              	.L7:
 164              		.loc 1 109 0
 165 00b0 1846     		mov	r0, r3
 166 00b2 05B0     		add	sp, sp, #20
 167              		@ sp needed
 168 00b4 5DF804FB 		ldr	pc, [sp], #4
 169              	.L9:
 170              		.align	2
 171              	.L8:
ARM GAS  /tmp/ccRrg1qB.s 			page 4


 172 00b8 00000000 		.word	lsm303ad_accel_cfg
 173              		.cfi_endproc
 174              	.LFE269:
 175              		.size	LSM303AGR_ACC_WriteReg, .-LSM303AGR_ACC_WriteReg
 176              		.align	2
 177 00bc AFF30080 		.p2align 4,,15
 178              		.global	LSM303AGR_ACC_ReadReg
 179              		.thumb
 180              		.thumb_func
 181              		.type	LSM303AGR_ACC_ReadReg, %function
 182              	LSM303AGR_ACC_ReadReg:
 183              	.LFB270:
 184              		.loc 1 120 0
 185              		.cfi_startproc
 186              		@ args = 0, pretend = 0, frame = 16
 187              		@ frame_needed = 0, uses_anonymous_args = 0
 188 00c0 00B5     		push	{lr}
 189              		.cfi_def_cfa_offset 4
 190              		.cfi_offset 14, -4
 191 00c2 85B0     		sub	sp, sp, #20
 192              		.cfi_def_cfa_offset 24
 193 00c4 0390     		str	r0, [sp, #12]
 194 00c6 0192     		str	r2, [sp, #4]
 195 00c8 0A46     		mov	r2, r1
 196 00ca 8DF80B20 		strb	r2, [sp, #11]
 197 00ce ADF80830 		strh	r3, [sp, #8]	@ movhi
 198              		.loc 1 122 0
 199 00d2 9DF80B20 		ldrb	r2, [sp, #11]	@ zero_extendqisi2
 200 00d6 BDF80830 		ldrh	r3, [sp, #8]
 201 00da 0748     		ldr	r0, .L13
 202 00dc 1146     		mov	r1, r2
 203 00de 019A     		ldr	r2, [sp, #4]
 204 00e0 FFF7FEFF 		bl	Sensor_IO_SPI_Read
 205 00e4 0346     		mov	r3, r0
 206 00e6 002B     		cmp	r3, #0
 207 00e8 01D0     		beq	.L11
 208              		.loc 1 124 0
 209 00ea 0023     		movs	r3, #0
 210 00ec 00E0     		b	.L12
 211              	.L11:
 212              		.loc 1 128 0
 213 00ee 0123     		movs	r3, #1
 214              	.L12:
 215              		.loc 1 130 0
 216 00f0 1846     		mov	r0, r3
 217 00f2 05B0     		add	sp, sp, #20
 218              		@ sp needed
 219 00f4 5DF804FB 		ldr	pc, [sp], #4
 220              	.L14:
 221              		.align	2
 222              	.L13:
 223 00f8 00000000 		.word	lsm303ad_accel_cfg
 224              		.cfi_endproc
 225              	.LFE270:
 226              		.size	LSM303AGR_ACC_ReadReg, .-LSM303AGR_ACC_ReadReg
 227              		.align	2
 228 00fc AFF30080 		.p2align 4,,15
ARM GAS  /tmp/ccRrg1qB.s 			page 5


 229              		.global	LSM303AGR_ACC_R_WHO_AM_I
 230              		.thumb
 231              		.thumb_func
 232              		.type	LSM303AGR_ACC_R_WHO_AM_I, %function
 233              	LSM303AGR_ACC_R_WHO_AM_I:
 234              	.LFB271:
 235              		.loc 1 142 0
 236              		.cfi_startproc
 237              		@ args = 0, pretend = 0, frame = 8
 238              		@ frame_needed = 0, uses_anonymous_args = 0
 239 0100 00B5     		push	{lr}
 240              		.cfi_def_cfa_offset 4
 241              		.cfi_offset 14, -4
 242 0102 83B0     		sub	sp, sp, #12
 243              		.cfi_def_cfa_offset 16
 244 0104 0190     		str	r0, [sp, #4]
 245 0106 0091     		str	r1, [sp]
 246              		.loc 1 143 0
 247 0108 0198     		ldr	r0, [sp, #4]
 248 010a 0F21     		movs	r1, #15
 249 010c 009A     		ldr	r2, [sp]
 250 010e 0123     		movs	r3, #1
 251 0110 FFF7FEFF 		bl	LSM303AGR_ACC_ReadReg
 252 0114 0346     		mov	r3, r0
 253 0116 002B     		cmp	r3, #0
 254 0118 01D1     		bne	.L16
 255              		.loc 1 144 0
 256 011a 0023     		movs	r3, #0
 257 011c 00E0     		b	.L17
 258              	.L16:
 259              		.loc 1 149 0
 260 011e 0123     		movs	r3, #1
 261              	.L17:
 262              		.loc 1 150 0
 263 0120 1846     		mov	r0, r3
 264 0122 03B0     		add	sp, sp, #12
 265              		@ sp needed
 266 0124 5DF804FB 		ldr	pc, [sp], #4
 267              		.cfi_endproc
 268              	.LFE271:
 269              		.size	LSM303AGR_ACC_R_WHO_AM_I, .-LSM303AGR_ACC_R_WHO_AM_I
 270              		.align	2
 271 0128 AFF30080 		.p2align 4,,15
 271      AFF30080 
 272              		.global	LSM303AGR_ACC_W_BlockDataUpdate
 273              		.thumb
 274              		.thumb_func
 275              		.type	LSM303AGR_ACC_W_BlockDataUpdate, %function
 276              	LSM303AGR_ACC_W_BlockDataUpdate:
 277              	.LFB272:
 278              		.loc 1 160 0
 279              		.cfi_startproc
 280              		@ args = 0, pretend = 0, frame = 16
 281              		@ frame_needed = 0, uses_anonymous_args = 0
 282 0130 00B5     		push	{lr}
 283              		.cfi_def_cfa_offset 4
 284              		.cfi_offset 14, -4
ARM GAS  /tmp/ccRrg1qB.s 			page 6


 285 0132 85B0     		sub	sp, sp, #20
 286              		.cfi_def_cfa_offset 24
 287 0134 0190     		str	r0, [sp, #4]
 288 0136 0B46     		mov	r3, r1
 289 0138 8DF80330 		strb	r3, [sp, #3]
 290              		.loc 1 163 0
 291 013c 0DF10F03 		add	r3, sp, #15
 292 0140 0198     		ldr	r0, [sp, #4]
 293 0142 2321     		movs	r1, #35
 294 0144 1A46     		mov	r2, r3
 295 0146 0123     		movs	r3, #1
 296 0148 FFF7FEFF 		bl	LSM303AGR_ACC_ReadReg
 297 014c 0346     		mov	r3, r0
 298 014e 002B     		cmp	r3, #0
 299 0150 01D1     		bne	.L19
 300              		.loc 1 164 0
 301 0152 0023     		movs	r3, #0
 302 0154 1CE0     		b	.L22
 303              	.L19:
 304              		.loc 1 166 0
 305 0156 9DF80F30 		ldrb	r3, [sp, #15]	@ zero_extendqisi2
 306 015a 03F07F03 		and	r3, r3, #127
 307 015e DBB2     		uxtb	r3, r3
 308 0160 8DF80F30 		strb	r3, [sp, #15]
 309              		.loc 1 167 0
 310 0164 9DF80F20 		ldrb	r2, [sp, #15]	@ zero_extendqisi2
 311 0168 9DF80330 		ldrb	r3, [sp, #3]
 312 016c 1343     		orrs	r3, r3, r2
 313 016e DBB2     		uxtb	r3, r3
 314 0170 8DF80F30 		strb	r3, [sp, #15]
 315              		.loc 1 169 0
 316 0174 0DF10F03 		add	r3, sp, #15
 317 0178 0198     		ldr	r0, [sp, #4]
 318 017a 2321     		movs	r1, #35
 319 017c 1A46     		mov	r2, r3
 320 017e 0123     		movs	r3, #1
 321 0180 FFF7FEFF 		bl	LSM303AGR_ACC_WriteReg
 322 0184 0346     		mov	r3, r0
 323 0186 002B     		cmp	r3, #0
 324 0188 01D1     		bne	.L21
 325              		.loc 1 170 0
 326 018a 0023     		movs	r3, #0
 327 018c 00E0     		b	.L22
 328              	.L21:
 329              		.loc 1 172 0
 330 018e 0123     		movs	r3, #1
 331              	.L22:
 332              		.loc 1 173 0
 333 0190 1846     		mov	r0, r3
 334 0192 05B0     		add	sp, sp, #20
 335              		@ sp needed
 336 0194 5DF804FB 		ldr	pc, [sp], #4
 337              		.cfi_endproc
 338              	.LFE272:
 339              		.size	LSM303AGR_ACC_W_BlockDataUpdate, .-LSM303AGR_ACC_W_BlockDataUpdate
 340              		.align	2
 341 0198 AFF30080 		.p2align 4,,15
ARM GAS  /tmp/ccRrg1qB.s 			page 7


 341      AFF30080 
 342              		.global	LSM303AGR_ACC_R_BlockDataUpdate
 343              		.thumb
 344              		.thumb_func
 345              		.type	LSM303AGR_ACC_R_BlockDataUpdate, %function
 346              	LSM303AGR_ACC_R_BlockDataUpdate:
 347              	.LFB273:
 348              		.loc 1 183 0
 349              		.cfi_startproc
 350              		@ args = 0, pretend = 0, frame = 8
 351              		@ frame_needed = 0, uses_anonymous_args = 0
 352 01a0 00B5     		push	{lr}
 353              		.cfi_def_cfa_offset 4
 354              		.cfi_offset 14, -4
 355 01a2 83B0     		sub	sp, sp, #12
 356              		.cfi_def_cfa_offset 16
 357 01a4 0190     		str	r0, [sp, #4]
 358 01a6 0091     		str	r1, [sp]
 359              		.loc 1 184 0
 360 01a8 0198     		ldr	r0, [sp, #4]
 361 01aa 2321     		movs	r1, #35
 362 01ac 009A     		ldr	r2, [sp]
 363 01ae 0123     		movs	r3, #1
 364 01b0 FFF7FEFF 		bl	LSM303AGR_ACC_ReadReg
 365 01b4 0346     		mov	r3, r0
 366 01b6 002B     		cmp	r3, #0
 367 01b8 01D1     		bne	.L24
 368              		.loc 1 185 0
 369 01ba 0023     		movs	r3, #0
 370 01bc 07E0     		b	.L25
 371              	.L24:
 372              		.loc 1 187 0
 373 01be 009B     		ldr	r3, [sp]
 374 01c0 1B78     		ldrb	r3, [r3]	@ zero_extendqisi2
 375 01c2 23F07F03 		bic	r3, r3, #127
 376 01c6 DAB2     		uxtb	r2, r3
 377 01c8 009B     		ldr	r3, [sp]
 378 01ca 1A70     		strb	r2, [r3]
 379              		.loc 1 189 0
 380 01cc 0123     		movs	r3, #1
 381              	.L25:
 382              		.loc 1 190 0
 383 01ce 1846     		mov	r0, r3
 384 01d0 03B0     		add	sp, sp, #12
 385              		@ sp needed
 386 01d2 5DF804FB 		ldr	pc, [sp], #4
 387              		.cfi_endproc
 388              	.LFE273:
 389              		.size	LSM303AGR_ACC_R_BlockDataUpdate, .-LSM303AGR_ACC_R_BlockDataUpdate
 390 01d6 00BF     		.align	2
 391 01d8 AFF30080 		.p2align 4,,15
 391      AFF30080 
 392              		.global	LSM303AGR_ACC_W_FullScale
 393              		.thumb
 394              		.thumb_func
 395              		.type	LSM303AGR_ACC_W_FullScale, %function
 396              	LSM303AGR_ACC_W_FullScale:
ARM GAS  /tmp/ccRrg1qB.s 			page 8


 397              	.LFB274:
 398              		.loc 1 200 0
 399              		.cfi_startproc
 400              		@ args = 0, pretend = 0, frame = 16
 401              		@ frame_needed = 0, uses_anonymous_args = 0
 402 01e0 00B5     		push	{lr}
 403              		.cfi_def_cfa_offset 4
 404              		.cfi_offset 14, -4
 405 01e2 85B0     		sub	sp, sp, #20
 406              		.cfi_def_cfa_offset 24
 407 01e4 0190     		str	r0, [sp, #4]
 408 01e6 0B46     		mov	r3, r1
 409 01e8 8DF80330 		strb	r3, [sp, #3]
 410              		.loc 1 203 0
 411 01ec 0DF10F03 		add	r3, sp, #15
 412 01f0 0198     		ldr	r0, [sp, #4]
 413 01f2 2321     		movs	r1, #35
 414 01f4 1A46     		mov	r2, r3
 415 01f6 0123     		movs	r3, #1
 416 01f8 FFF7FEFF 		bl	LSM303AGR_ACC_ReadReg
 417 01fc 0346     		mov	r3, r0
 418 01fe 002B     		cmp	r3, #0
 419 0200 01D1     		bne	.L27
 420              		.loc 1 204 0
 421 0202 0023     		movs	r3, #0
 422 0204 1CE0     		b	.L30
 423              	.L27:
 424              		.loc 1 206 0
 425 0206 9DF80F30 		ldrb	r3, [sp, #15]	@ zero_extendqisi2
 426 020a 23F03003 		bic	r3, r3, #48
 427 020e DBB2     		uxtb	r3, r3
 428 0210 8DF80F30 		strb	r3, [sp, #15]
 429              		.loc 1 207 0
 430 0214 9DF80F20 		ldrb	r2, [sp, #15]	@ zero_extendqisi2
 431 0218 9DF80330 		ldrb	r3, [sp, #3]
 432 021c 1343     		orrs	r3, r3, r2
 433 021e DBB2     		uxtb	r3, r3
 434 0220 8DF80F30 		strb	r3, [sp, #15]
 435              		.loc 1 209 0
 436 0224 0DF10F03 		add	r3, sp, #15
 437 0228 0198     		ldr	r0, [sp, #4]
 438 022a 2321     		movs	r1, #35
 439 022c 1A46     		mov	r2, r3
 440 022e 0123     		movs	r3, #1
 441 0230 FFF7FEFF 		bl	LSM303AGR_ACC_WriteReg
 442 0234 0346     		mov	r3, r0
 443 0236 002B     		cmp	r3, #0
 444 0238 01D1     		bne	.L29
 445              		.loc 1 210 0
 446 023a 0023     		movs	r3, #0
 447 023c 00E0     		b	.L30
 448              	.L29:
 449              		.loc 1 212 0
 450 023e 0123     		movs	r3, #1
 451              	.L30:
 452              		.loc 1 213 0
 453 0240 1846     		mov	r0, r3
ARM GAS  /tmp/ccRrg1qB.s 			page 9


 454 0242 05B0     		add	sp, sp, #20
 455              		@ sp needed
 456 0244 5DF804FB 		ldr	pc, [sp], #4
 457              		.cfi_endproc
 458              	.LFE274:
 459              		.size	LSM303AGR_ACC_W_FullScale, .-LSM303AGR_ACC_W_FullScale
 460              		.align	2
 461 0248 AFF30080 		.p2align 4,,15
 461      AFF30080 
 462              		.global	LSM303AGR_ACC_R_FullScale
 463              		.thumb
 464              		.thumb_func
 465              		.type	LSM303AGR_ACC_R_FullScale, %function
 466              	LSM303AGR_ACC_R_FullScale:
 467              	.LFB275:
 468              		.loc 1 223 0
 469              		.cfi_startproc
 470              		@ args = 0, pretend = 0, frame = 8
 471              		@ frame_needed = 0, uses_anonymous_args = 0
 472 0250 00B5     		push	{lr}
 473              		.cfi_def_cfa_offset 4
 474              		.cfi_offset 14, -4
 475 0252 83B0     		sub	sp, sp, #12
 476              		.cfi_def_cfa_offset 16
 477 0254 0190     		str	r0, [sp, #4]
 478 0256 0091     		str	r1, [sp]
 479              		.loc 1 224 0
 480 0258 0198     		ldr	r0, [sp, #4]
 481 025a 2321     		movs	r1, #35
 482 025c 009A     		ldr	r2, [sp]
 483 025e 0123     		movs	r3, #1
 484 0260 FFF7FEFF 		bl	LSM303AGR_ACC_ReadReg
 485 0264 0346     		mov	r3, r0
 486 0266 002B     		cmp	r3, #0
 487 0268 01D1     		bne	.L32
 488              		.loc 1 225 0
 489 026a 0023     		movs	r3, #0
 490 026c 07E0     		b	.L33
 491              	.L32:
 492              		.loc 1 227 0
 493 026e 009B     		ldr	r3, [sp]
 494 0270 1B78     		ldrb	r3, [r3]	@ zero_extendqisi2
 495 0272 03F03003 		and	r3, r3, #48
 496 0276 DAB2     		uxtb	r2, r3
 497 0278 009B     		ldr	r3, [sp]
 498 027a 1A70     		strb	r2, [r3]
 499              		.loc 1 229 0
 500 027c 0123     		movs	r3, #1
 501              	.L33:
 502              		.loc 1 230 0
 503 027e 1846     		mov	r0, r3
 504 0280 03B0     		add	sp, sp, #12
 505              		@ sp needed
 506 0282 5DF804FB 		ldr	pc, [sp], #4
 507              		.cfi_endproc
 508              	.LFE275:
 509              		.size	LSM303AGR_ACC_R_FullScale, .-LSM303AGR_ACC_R_FullScale
ARM GAS  /tmp/ccRrg1qB.s 			page 10


 510 0286 00BF     		.align	2
 511 0288 AFF30080 		.p2align 4,,15
 511      AFF30080 
 512              		.global	LSM303AGR_ACC_Get_Raw_Acceleration
 513              		.thumb
 514              		.thumb_func
 515              		.type	LSM303AGR_ACC_Get_Raw_Acceleration, %function
 516              	LSM303AGR_ACC_Get_Raw_Acceleration:
 517              	.LFB276:
 518              		.loc 1 240 0
 519              		.cfi_startproc
 520              		@ args = 0, pretend = 0, frame = 8
 521              		@ frame_needed = 0, uses_anonymous_args = 0
 522 0290 00B5     		push	{lr}
 523              		.cfi_def_cfa_offset 4
 524              		.cfi_offset 14, -4
 525 0292 83B0     		sub	sp, sp, #12
 526              		.cfi_def_cfa_offset 16
 527 0294 0190     		str	r0, [sp, #4]
 528 0296 0091     		str	r1, [sp]
 529              		.loc 1 241 0
 530 0298 0198     		ldr	r0, [sp, #4]
 531 029a 2821     		movs	r1, #40
 532 029c 009A     		ldr	r2, [sp]
 533 029e 0623     		movs	r3, #6
 534 02a0 FFF7FEFF 		bl	LSM303AGR_ACC_ReadReg
 535 02a4 0346     		mov	r3, r0
 536 02a6 002B     		cmp	r3, #0
 537 02a8 01D1     		bne	.L35
 538              		.loc 1 242 0
 539 02aa 0023     		movs	r3, #0
 540 02ac 00E0     		b	.L36
 541              	.L35:
 542              		.loc 1 244 0
 543 02ae 0123     		movs	r3, #1
 544              	.L36:
 545              		.loc 1 245 0
 546 02b0 1846     		mov	r0, r3
 547 02b2 03B0     		add	sp, sp, #12
 548              		@ sp needed
 549 02b4 5DF804FB 		ldr	pc, [sp], #4
 550              		.cfi_endproc
 551              	.LFE276:
 552              		.size	LSM303AGR_ACC_Get_Raw_Acceleration, .-LSM303AGR_ACC_Get_Raw_Acceleration
 553              		.global	LSM303AGR_ACC_Sensitivity_List
 554              		.section	.rodata
 555              		.align	3
 556              		.type	LSM303AGR_ACC_Sensitivity_List, %object
 557              		.size	LSM303AGR_ACC_Sensitivity_List, 96
 558              	LSM303AGR_ACC_Sensitivity_List:
 559 0000 D4030000 		.word	980
 560 0004 00000000 		.word	0
 561 0008 9E070000 		.word	1950
 562 000c 00000000 		.word	0
 563 0010 3C0F0000 		.word	3900
 564 0014 00000000 		.word	0
 565 0018 C82D0000 		.word	11720
ARM GAS  /tmp/ccRrg1qB.s 			page 11


 566 001c 00000000 		.word	0
 567 0020 3C0F0000 		.word	3900
 568 0024 00000000 		.word	0
 569 0028 8C1E0000 		.word	7820
 570 002c 00000000 		.word	0
 571 0030 0E3D0000 		.word	15630
 572 0034 00000000 		.word	0
 573 0038 34B70000 		.word	46900
 574 003c 00000000 		.word	0
 575 0040 0E3D0000 		.word	15630
 576 0044 00000000 		.word	0
 577 0048 1C7A0000 		.word	31260
 578 004c 00000000 		.word	0
 579 0050 38F40000 		.word	62520
 580 0054 00000000 		.word	0
 581 0058 BCDC0200 		.word	187580
 582 005c 00000000 		.word	0
 583              		.global	__aeabi_ldivmod
 584              		.text
 585              		.align	2
 586 02b8 AFF30080 		.p2align 4,,15
 586      AFF30080 
 587              		.global	LSM303AGR_ACC_Get_Acceleration
 588              		.thumb
 589              		.thumb_func
 590              		.type	LSM303AGR_ACC_Get_Acceleration, %function
 591              	LSM303AGR_ACC_Get_Acceleration:
 592              	.LFB277:
 593              		.loc 1 285 0
 594              		.cfi_startproc
 595              		@ args = 0, pretend = 0, frame = 24
 596              		@ frame_needed = 0, uses_anonymous_args = 0
 597 02c0 70B5     		push	{r4, r5, r6, lr}
 598              		.cfi_def_cfa_offset 16
 599              		.cfi_offset 4, -16
 600              		.cfi_offset 5, -12
 601              		.cfi_offset 6, -8
 602              		.cfi_offset 14, -4
 603 02c2 86B0     		sub	sp, sp, #24
 604              		.cfi_def_cfa_offset 40
 605 02c4 0190     		str	r0, [sp, #4]
 606 02c6 0091     		str	r1, [sp]
 607              		.loc 1 287 0
 608 02c8 0023     		movs	r3, #0
 609 02ca 8DF81730 		strb	r3, [sp, #23]
 610 02ce 0023     		movs	r3, #0
 611 02d0 8DF81630 		strb	r3, [sp, #22]
 612 02d4 0023     		movs	r3, #0
 613 02d6 8DF81530 		strb	r3, [sp, #21]
 614              		.loc 1 293 0
 615 02da 0DF10A03 		add	r3, sp, #10
 616 02de 0198     		ldr	r0, [sp, #4]
 617 02e0 1946     		mov	r1, r3
 618 02e2 FFF7FEFF 		bl	LSM303AGR_ACC_R_HiRes
 619              		.loc 1 294 0
 620 02e6 0DF10B03 		add	r3, sp, #11
 621 02ea 0198     		ldr	r0, [sp, #4]
ARM GAS  /tmp/ccRrg1qB.s 			page 12


 622 02ec 1946     		mov	r1, r3
 623 02ee FFF7FEFF 		bl	LSM303AGR_ACC_R_LOWPWR_EN
 624              		.loc 1 296 0
 625 02f2 9DF80B30 		ldrb	r3, [sp, #11]	@ zero_extendqisi2
 626 02f6 082B     		cmp	r3, #8
 627 02f8 0AD1     		bne	.L38
 628              		.loc 1 296 0 is_stmt 0 discriminator 1
 629 02fa 9DF80A30 		ldrb	r3, [sp, #10]	@ zero_extendqisi2
 630 02fe 002B     		cmp	r3, #0
 631 0300 06D1     		bne	.L38
 632              		.loc 1 299 0 is_stmt 1
 633 0302 0223     		movs	r3, #2
 634 0304 8DF81730 		strb	r3, [sp, #23]
 635              		.loc 1 300 0
 636 0308 0823     		movs	r3, #8
 637 030a 8DF81530 		strb	r3, [sp, #21]
 638 030e 1FE0     		b	.L39
 639              	.L38:
 640              		.loc 1 302 0
 641 0310 9DF80B30 		ldrb	r3, [sp, #11]	@ zero_extendqisi2
 642 0314 002B     		cmp	r3, #0
 643 0316 0AD1     		bne	.L40
 644              		.loc 1 302 0 is_stmt 0 discriminator 1
 645 0318 9DF80A30 		ldrb	r3, [sp, #10]	@ zero_extendqisi2
 646 031c 002B     		cmp	r3, #0
 647 031e 06D1     		bne	.L40
 648              		.loc 1 305 0 is_stmt 1
 649 0320 0123     		movs	r3, #1
 650 0322 8DF81730 		strb	r3, [sp, #23]
 651              		.loc 1 306 0
 652 0326 0623     		movs	r3, #6
 653 0328 8DF81530 		strb	r3, [sp, #21]
 654 032c 10E0     		b	.L39
 655              	.L40:
 656              		.loc 1 308 0
 657 032e 9DF80B30 		ldrb	r3, [sp, #11]	@ zero_extendqisi2
 658 0332 002B     		cmp	r3, #0
 659 0334 0AD1     		bne	.L41
 660              		.loc 1 308 0 is_stmt 0 discriminator 1
 661 0336 9DF80A30 		ldrb	r3, [sp, #10]	@ zero_extendqisi2
 662 033a 082B     		cmp	r3, #8
 663 033c 06D1     		bne	.L41
 664              		.loc 1 311 0 is_stmt 1
 665 033e 0023     		movs	r3, #0
 666 0340 8DF81730 		strb	r3, [sp, #23]
 667              		.loc 1 312 0
 668 0344 0423     		movs	r3, #4
 669 0346 8DF81530 		strb	r3, [sp, #21]
 670 034a 01E0     		b	.L39
 671              	.L41:
 672              		.loc 1 315 0
 673 034c 0023     		movs	r3, #0
 674 034e B8E0     		b	.L49
 675              	.L39:
 676              		.loc 1 318 0
 677 0350 0DF10903 		add	r3, sp, #9
 678 0354 0198     		ldr	r0, [sp, #4]
ARM GAS  /tmp/ccRrg1qB.s 			page 13


 679 0356 1946     		mov	r1, r3
 680 0358 FFF7FEFF 		bl	LSM303AGR_ACC_R_FullScale
 681              		.loc 1 319 0
 682 035c 9DF80930 		ldrb	r3, [sp, #9]	@ zero_extendqisi2
 683 0360 102B     		cmp	r3, #16
 684 0362 0DD0     		beq	.L44
 685 0364 102B     		cmp	r3, #16
 686 0366 02DC     		bgt	.L45
 687 0368 002B     		cmp	r3, #0
 688 036a 05D0     		beq	.L46
 689 036c 14E0     		b	.L43
 690              	.L45:
 691 036e 202B     		cmp	r3, #32
 692 0370 0AD0     		beq	.L47
 693 0372 302B     		cmp	r3, #48
 694 0374 0CD0     		beq	.L48
 695 0376 0FE0     		b	.L43
 696              	.L46:
 697              		.loc 1 322 0
 698 0378 0023     		movs	r3, #0
 699 037a 8DF81630 		strb	r3, [sp, #22]
 700              		.loc 1 323 0
 701 037e 0BE0     		b	.L43
 702              	.L44:
 703              		.loc 1 326 0
 704 0380 0123     		movs	r3, #1
 705 0382 8DF81630 		strb	r3, [sp, #22]
 706              		.loc 1 327 0
 707 0386 07E0     		b	.L43
 708              	.L47:
 709              		.loc 1 330 0
 710 0388 0223     		movs	r3, #2
 711 038a 8DF81630 		strb	r3, [sp, #22]
 712              		.loc 1 331 0
 713 038e 03E0     		b	.L43
 714              	.L48:
 715              		.loc 1 334 0
 716 0390 0323     		movs	r3, #3
 717 0392 8DF81630 		strb	r3, [sp, #22]
 718              		.loc 1 335 0
 719 0396 00BF     		nop
 720              	.L43:
 721              		.loc 1 339 0
 722 0398 03AB     		add	r3, sp, #12
 723 039a 0198     		ldr	r0, [sp, #4]
 724 039c 1946     		mov	r1, r3
 725 039e FFF7FEFF 		bl	LSM303AGR_ACC_Get_Raw_Acceleration
 726              		.loc 1 342 0
 727 03a2 BDF80C30 		ldrh	r3, [sp, #12]
 728 03a6 1AB2     		sxth	r2, r3
 729 03a8 9DF81530 		ldrb	r3, [sp, #21]	@ zero_extendqisi2
 730 03ac 42FA03F3 		asr	r3, r2, r3
 731 03b0 1846     		mov	r0, r3
 732 03b2 4FEAE071 		asr	r1, r0, #31
 733 03b6 9DF81740 		ldrb	r4, [sp, #23]	@ zero_extendqisi2
 734 03ba 9DF81630 		ldrb	r3, [sp, #22]	@ zero_extendqisi2
 735 03be 424A     		ldr	r2, .L50
ARM GAS  /tmp/ccRrg1qB.s 			page 14


 736 03c0 A400     		lsls	r4, r4, #2
 737 03c2 2344     		add	r3, r3, r4
 738 03c4 DB00     		lsls	r3, r3, #3
 739 03c6 1344     		add	r3, r3, r2
 740 03c8 D3E90023 		ldrd	r2, [r3]
 741 03cc 02FB01F5 		mul	r5, r2, r1
 742 03d0 00FB03F4 		mul	r4, r0, r3
 743 03d4 2C44     		add	r4, r4, r5
 744 03d6 A0FB0223 		umull	r2, r3, r0, r2
 745 03da E118     		adds	r1, r4, r3
 746 03dc 0B46     		mov	r3, r1
 747 03de 12F5FA72 		adds	r2, r2, #500
 748 03e2 43F10003 		adc	r3, r3, #0
 749 03e6 1046     		mov	r0, r2
 750 03e8 1946     		mov	r1, r3
 751 03ea 4FF47A72 		mov	r2, #1000
 752 03ee 4FF00003 		mov	r3, #0
 753 03f2 FFF7FEFF 		bl	__aeabi_ldivmod
 754 03f6 0246     		mov	r2, r0
 755 03f8 0B46     		mov	r3, r1
 756 03fa 009B     		ldr	r3, [sp]
 757 03fc 1A60     		str	r2, [r3]
 758              		.loc 1 343 0
 759 03fe 009B     		ldr	r3, [sp]
 760 0400 1C1D     		adds	r4, r3, #4
 761 0402 BDF80E30 		ldrh	r3, [sp, #14]
 762 0406 1AB2     		sxth	r2, r3
 763 0408 9DF81530 		ldrb	r3, [sp, #21]	@ zero_extendqisi2
 764 040c 42FA03F3 		asr	r3, r2, r3
 765 0410 1846     		mov	r0, r3
 766 0412 4FEAE071 		asr	r1, r0, #31
 767 0416 9DF81750 		ldrb	r5, [sp, #23]	@ zero_extendqisi2
 768 041a 9DF81630 		ldrb	r3, [sp, #22]	@ zero_extendqisi2
 769 041e 2A4A     		ldr	r2, .L50
 770 0420 AD00     		lsls	r5, r5, #2
 771 0422 2B44     		add	r3, r3, r5
 772 0424 DB00     		lsls	r3, r3, #3
 773 0426 1344     		add	r3, r3, r2
 774 0428 D3E90023 		ldrd	r2, [r3]
 775 042c 02FB01F6 		mul	r6, r2, r1
 776 0430 00FB03F5 		mul	r5, r0, r3
 777 0434 3544     		add	r5, r5, r6
 778 0436 A0FB0223 		umull	r2, r3, r0, r2
 779 043a E918     		adds	r1, r5, r3
 780 043c 0B46     		mov	r3, r1
 781 043e 12F5FA72 		adds	r2, r2, #500
 782 0442 43F10003 		adc	r3, r3, #0
 783 0446 1046     		mov	r0, r2
 784 0448 1946     		mov	r1, r3
 785 044a 4FF47A72 		mov	r2, #1000
 786 044e 4FF00003 		mov	r3, #0
 787 0452 FFF7FEFF 		bl	__aeabi_ldivmod
 788 0456 0246     		mov	r2, r0
 789 0458 0B46     		mov	r3, r1
 790 045a 1346     		mov	r3, r2
 791 045c 2360     		str	r3, [r4]
 792              		.loc 1 344 0
ARM GAS  /tmp/ccRrg1qB.s 			page 15


 793 045e 009B     		ldr	r3, [sp]
 794 0460 03F10804 		add	r4, r3, #8
 795 0464 BDF81030 		ldrh	r3, [sp, #16]
 796 0468 1AB2     		sxth	r2, r3
 797 046a 9DF81530 		ldrb	r3, [sp, #21]	@ zero_extendqisi2
 798 046e 42FA03F3 		asr	r3, r2, r3
 799 0472 1846     		mov	r0, r3
 800 0474 4FEAE071 		asr	r1, r0, #31
 801 0478 9DF81750 		ldrb	r5, [sp, #23]	@ zero_extendqisi2
 802 047c 9DF81630 		ldrb	r3, [sp, #22]	@ zero_extendqisi2
 803 0480 114A     		ldr	r2, .L50
 804 0482 AD00     		lsls	r5, r5, #2
 805 0484 2B44     		add	r3, r3, r5
 806 0486 DB00     		lsls	r3, r3, #3
 807 0488 1344     		add	r3, r3, r2
 808 048a D3E90023 		ldrd	r2, [r3]
 809 048e 02FB01F6 		mul	r6, r2, r1
 810 0492 00FB03F5 		mul	r5, r0, r3
 811 0496 3544     		add	r5, r5, r6
 812 0498 A0FB0223 		umull	r2, r3, r0, r2
 813 049c E918     		adds	r1, r5, r3
 814 049e 0B46     		mov	r3, r1
 815 04a0 12F5FA72 		adds	r2, r2, #500
 816 04a4 43F10003 		adc	r3, r3, #0
 817 04a8 1046     		mov	r0, r2
 818 04aa 1946     		mov	r1, r3
 819 04ac 4FF47A72 		mov	r2, #1000
 820 04b0 4FF00003 		mov	r3, #0
 821 04b4 FFF7FEFF 		bl	__aeabi_ldivmod
 822 04b8 0246     		mov	r2, r0
 823 04ba 0B46     		mov	r3, r1
 824 04bc 1346     		mov	r3, r2
 825 04be 2360     		str	r3, [r4]
 826              		.loc 1 346 0
 827 04c0 0123     		movs	r3, #1
 828              	.L49:
 829              		.loc 1 347 0
 830 04c2 1846     		mov	r0, r3
 831 04c4 06B0     		add	sp, sp, #24
 832              		@ sp needed
 833 04c6 70BD     		pop	{r4, r5, r6, pc}
 834              	.L51:
 835              		.align	2
 836              	.L50:
 837 04c8 00000000 		.word	LSM303AGR_ACC_Sensitivity_List
 838              		.cfi_endproc
 839              	.LFE277:
 840              		.size	LSM303AGR_ACC_Get_Acceleration, .-LSM303AGR_ACC_Get_Acceleration
 841              		.align	2
 842 04cc AFF30080 		.p2align 4,,15
 843              		.global	LSM303AGR_ACC_W_ODR
 844              		.thumb
 845              		.thumb_func
 846              		.type	LSM303AGR_ACC_W_ODR, %function
 847              	LSM303AGR_ACC_W_ODR:
 848              	.LFB278:
 849              		.loc 1 357 0
ARM GAS  /tmp/ccRrg1qB.s 			page 16


 850              		.cfi_startproc
 851              		@ args = 0, pretend = 0, frame = 16
 852              		@ frame_needed = 0, uses_anonymous_args = 0
 853 04d0 00B5     		push	{lr}
 854              		.cfi_def_cfa_offset 4
 855              		.cfi_offset 14, -4
 856 04d2 85B0     		sub	sp, sp, #20
 857              		.cfi_def_cfa_offset 24
 858 04d4 0190     		str	r0, [sp, #4]
 859 04d6 0B46     		mov	r3, r1
 860 04d8 8DF80330 		strb	r3, [sp, #3]
 861              		.loc 1 360 0
 862 04dc 0DF10F03 		add	r3, sp, #15
 863 04e0 0198     		ldr	r0, [sp, #4]
 864 04e2 2021     		movs	r1, #32
 865 04e4 1A46     		mov	r2, r3
 866 04e6 0123     		movs	r3, #1
 867 04e8 FFF7FEFF 		bl	LSM303AGR_ACC_ReadReg
 868 04ec 0346     		mov	r3, r0
 869 04ee 002B     		cmp	r3, #0
 870 04f0 01D1     		bne	.L53
 871              		.loc 1 361 0
 872 04f2 0023     		movs	r3, #0
 873 04f4 1CE0     		b	.L56
 874              	.L53:
 875              		.loc 1 363 0
 876 04f6 9DF80F30 		ldrb	r3, [sp, #15]	@ zero_extendqisi2
 877 04fa 03F00F03 		and	r3, r3, #15
 878 04fe DBB2     		uxtb	r3, r3
 879 0500 8DF80F30 		strb	r3, [sp, #15]
 880              		.loc 1 364 0
 881 0504 9DF80F20 		ldrb	r2, [sp, #15]	@ zero_extendqisi2
 882 0508 9DF80330 		ldrb	r3, [sp, #3]
 883 050c 1343     		orrs	r3, r3, r2
 884 050e DBB2     		uxtb	r3, r3
 885 0510 8DF80F30 		strb	r3, [sp, #15]
 886              		.loc 1 366 0
 887 0514 0DF10F03 		add	r3, sp, #15
 888 0518 0198     		ldr	r0, [sp, #4]
 889 051a 2021     		movs	r1, #32
 890 051c 1A46     		mov	r2, r3
 891 051e 0123     		movs	r3, #1
 892 0520 FFF7FEFF 		bl	LSM303AGR_ACC_WriteReg
 893 0524 0346     		mov	r3, r0
 894 0526 002B     		cmp	r3, #0
 895 0528 01D1     		bne	.L55
 896              		.loc 1 367 0
 897 052a 0023     		movs	r3, #0
 898 052c 00E0     		b	.L56
 899              	.L55:
 900              		.loc 1 369 0
 901 052e 0123     		movs	r3, #1
 902              	.L56:
 903              		.loc 1 370 0
 904 0530 1846     		mov	r0, r3
 905 0532 05B0     		add	sp, sp, #20
 906              		@ sp needed
ARM GAS  /tmp/ccRrg1qB.s 			page 17


 907 0534 5DF804FB 		ldr	pc, [sp], #4
 908              		.cfi_endproc
 909              	.LFE278:
 910              		.size	LSM303AGR_ACC_W_ODR, .-LSM303AGR_ACC_W_ODR
 911              		.align	2
 912 0538 AFF30080 		.p2align 4,,15
 912      AFF30080 
 913              		.global	LSM303AGR_ACC_R_ODR
 914              		.thumb
 915              		.thumb_func
 916              		.type	LSM303AGR_ACC_R_ODR, %function
 917              	LSM303AGR_ACC_R_ODR:
 918              	.LFB279:
 919              		.loc 1 380 0
 920              		.cfi_startproc
 921              		@ args = 0, pretend = 0, frame = 8
 922              		@ frame_needed = 0, uses_anonymous_args = 0
 923 0540 00B5     		push	{lr}
 924              		.cfi_def_cfa_offset 4
 925              		.cfi_offset 14, -4
 926 0542 83B0     		sub	sp, sp, #12
 927              		.cfi_def_cfa_offset 16
 928 0544 0190     		str	r0, [sp, #4]
 929 0546 0091     		str	r1, [sp]
 930              		.loc 1 381 0
 931 0548 0198     		ldr	r0, [sp, #4]
 932 054a 2021     		movs	r1, #32
 933 054c 009A     		ldr	r2, [sp]
 934 054e 0123     		movs	r3, #1
 935 0550 FFF7FEFF 		bl	LSM303AGR_ACC_ReadReg
 936 0554 0346     		mov	r3, r0
 937 0556 002B     		cmp	r3, #0
 938 0558 01D1     		bne	.L58
 939              		.loc 1 382 0
 940 055a 0023     		movs	r3, #0
 941 055c 07E0     		b	.L59
 942              	.L58:
 943              		.loc 1 384 0
 944 055e 009B     		ldr	r3, [sp]
 945 0560 1B78     		ldrb	r3, [r3]	@ zero_extendqisi2
 946 0562 23F00F03 		bic	r3, r3, #15
 947 0566 DAB2     		uxtb	r2, r3
 948 0568 009B     		ldr	r3, [sp]
 949 056a 1A70     		strb	r2, [r3]
 950              		.loc 1 386 0
 951 056c 0123     		movs	r3, #1
 952              	.L59:
 953              		.loc 1 387 0
 954 056e 1846     		mov	r0, r3
 955 0570 03B0     		add	sp, sp, #12
 956              		@ sp needed
 957 0572 5DF804FB 		ldr	pc, [sp], #4
 958              		.cfi_endproc
 959              	.LFE279:
 960              		.size	LSM303AGR_ACC_R_ODR, .-LSM303AGR_ACC_R_ODR
 961 0576 00BF     		.align	2
 962 0578 AFF30080 		.p2align 4,,15
ARM GAS  /tmp/ccRrg1qB.s 			page 18


 962      AFF30080 
 963              		.global	LSM303AGR_ACC_R_x_data_avail
 964              		.thumb
 965              		.thumb_func
 966              		.type	LSM303AGR_ACC_R_x_data_avail, %function
 967              	LSM303AGR_ACC_R_x_data_avail:
 968              	.LFB280:
 969              		.loc 1 399 0
 970              		.cfi_startproc
 971              		@ args = 0, pretend = 0, frame = 8
 972              		@ frame_needed = 0, uses_anonymous_args = 0
 973 0580 00B5     		push	{lr}
 974              		.cfi_def_cfa_offset 4
 975              		.cfi_offset 14, -4
 976 0582 83B0     		sub	sp, sp, #12
 977              		.cfi_def_cfa_offset 16
 978 0584 0190     		str	r0, [sp, #4]
 979 0586 0091     		str	r1, [sp]
 980              		.loc 1 400 0
 981 0588 0198     		ldr	r0, [sp, #4]
 982 058a 0721     		movs	r1, #7
 983 058c 009A     		ldr	r2, [sp]
 984 058e 0123     		movs	r3, #1
 985 0590 FFF7FEFF 		bl	LSM303AGR_ACC_ReadReg
 986 0594 0346     		mov	r3, r0
 987 0596 002B     		cmp	r3, #0
 988 0598 01D1     		bne	.L61
 989              		.loc 1 401 0
 990 059a 0023     		movs	r3, #0
 991 059c 07E0     		b	.L62
 992              	.L61:
 993              		.loc 1 403 0
 994 059e 009B     		ldr	r3, [sp]
 995 05a0 1B78     		ldrb	r3, [r3]	@ zero_extendqisi2
 996 05a2 03F00103 		and	r3, r3, #1
 997 05a6 DAB2     		uxtb	r2, r3
 998 05a8 009B     		ldr	r3, [sp]
 999 05aa 1A70     		strb	r2, [r3]
 1000              		.loc 1 405 0
 1001 05ac 0123     		movs	r3, #1
 1002              	.L62:
 1003              		.loc 1 406 0
 1004 05ae 1846     		mov	r0, r3
 1005 05b0 03B0     		add	sp, sp, #12
 1006              		@ sp needed
 1007 05b2 5DF804FB 		ldr	pc, [sp], #4
 1008              		.cfi_endproc
 1009              	.LFE280:
 1010              		.size	LSM303AGR_ACC_R_x_data_avail, .-LSM303AGR_ACC_R_x_data_avail
 1011 05b6 00BF     		.align	2
 1012 05b8 AFF30080 		.p2align 4,,15
 1012      AFF30080 
 1013              		.global	LSM303AGR_ACC_R_y_data_avail
 1014              		.thumb
 1015              		.thumb_func
 1016              		.type	LSM303AGR_ACC_R_y_data_avail, %function
 1017              	LSM303AGR_ACC_R_y_data_avail:
ARM GAS  /tmp/ccRrg1qB.s 			page 19


 1018              	.LFB281:
 1019              		.loc 1 416 0
 1020              		.cfi_startproc
 1021              		@ args = 0, pretend = 0, frame = 8
 1022              		@ frame_needed = 0, uses_anonymous_args = 0
 1023 05c0 00B5     		push	{lr}
 1024              		.cfi_def_cfa_offset 4
 1025              		.cfi_offset 14, -4
 1026 05c2 83B0     		sub	sp, sp, #12
 1027              		.cfi_def_cfa_offset 16
 1028 05c4 0190     		str	r0, [sp, #4]
 1029 05c6 0091     		str	r1, [sp]
 1030              		.loc 1 417 0
 1031 05c8 0198     		ldr	r0, [sp, #4]
 1032 05ca 0721     		movs	r1, #7
 1033 05cc 009A     		ldr	r2, [sp]
 1034 05ce 0123     		movs	r3, #1
 1035 05d0 FFF7FEFF 		bl	LSM303AGR_ACC_ReadReg
 1036 05d4 0346     		mov	r3, r0
 1037 05d6 002B     		cmp	r3, #0
 1038 05d8 01D1     		bne	.L64
 1039              		.loc 1 418 0
 1040 05da 0023     		movs	r3, #0
 1041 05dc 07E0     		b	.L65
 1042              	.L64:
 1043              		.loc 1 420 0
 1044 05de 009B     		ldr	r3, [sp]
 1045 05e0 1B78     		ldrb	r3, [r3]	@ zero_extendqisi2
 1046 05e2 03F00203 		and	r3, r3, #2
 1047 05e6 DAB2     		uxtb	r2, r3
 1048 05e8 009B     		ldr	r3, [sp]
 1049 05ea 1A70     		strb	r2, [r3]
 1050              		.loc 1 422 0
 1051 05ec 0123     		movs	r3, #1
 1052              	.L65:
 1053              		.loc 1 423 0
 1054 05ee 1846     		mov	r0, r3
 1055 05f0 03B0     		add	sp, sp, #12
 1056              		@ sp needed
 1057 05f2 5DF804FB 		ldr	pc, [sp], #4
 1058              		.cfi_endproc
 1059              	.LFE281:
 1060              		.size	LSM303AGR_ACC_R_y_data_avail, .-LSM303AGR_ACC_R_y_data_avail
 1061 05f6 00BF     		.align	2
 1062 05f8 AFF30080 		.p2align 4,,15
 1062      AFF30080 
 1063              		.global	LSM303AGR_ACC_R_z_data_avail
 1064              		.thumb
 1065              		.thumb_func
 1066              		.type	LSM303AGR_ACC_R_z_data_avail, %function
 1067              	LSM303AGR_ACC_R_z_data_avail:
 1068              	.LFB282:
 1069              		.loc 1 433 0
 1070              		.cfi_startproc
 1071              		@ args = 0, pretend = 0, frame = 8
 1072              		@ frame_needed = 0, uses_anonymous_args = 0
 1073 0600 00B5     		push	{lr}
ARM GAS  /tmp/ccRrg1qB.s 			page 20


 1074              		.cfi_def_cfa_offset 4
 1075              		.cfi_offset 14, -4
 1076 0602 83B0     		sub	sp, sp, #12
 1077              		.cfi_def_cfa_offset 16
 1078 0604 0190     		str	r0, [sp, #4]
 1079 0606 0091     		str	r1, [sp]
 1080              		.loc 1 434 0
 1081 0608 0198     		ldr	r0, [sp, #4]
 1082 060a 0721     		movs	r1, #7
 1083 060c 009A     		ldr	r2, [sp]
 1084 060e 0123     		movs	r3, #1
 1085 0610 FFF7FEFF 		bl	LSM303AGR_ACC_ReadReg
 1086 0614 0346     		mov	r3, r0
 1087 0616 002B     		cmp	r3, #0
 1088 0618 01D1     		bne	.L67
 1089              		.loc 1 435 0
 1090 061a 0023     		movs	r3, #0
 1091 061c 07E0     		b	.L68
 1092              	.L67:
 1093              		.loc 1 437 0
 1094 061e 009B     		ldr	r3, [sp]
 1095 0620 1B78     		ldrb	r3, [r3]	@ zero_extendqisi2
 1096 0622 03F00403 		and	r3, r3, #4
 1097 0626 DAB2     		uxtb	r2, r3
 1098 0628 009B     		ldr	r3, [sp]
 1099 062a 1A70     		strb	r2, [r3]
 1100              		.loc 1 439 0
 1101 062c 0123     		movs	r3, #1
 1102              	.L68:
 1103              		.loc 1 440 0
 1104 062e 1846     		mov	r0, r3
 1105 0630 03B0     		add	sp, sp, #12
 1106              		@ sp needed
 1107 0632 5DF804FB 		ldr	pc, [sp], #4
 1108              		.cfi_endproc
 1109              	.LFE282:
 1110              		.size	LSM303AGR_ACC_R_z_data_avail, .-LSM303AGR_ACC_R_z_data_avail
 1111 0636 00BF     		.align	2
 1112 0638 AFF30080 		.p2align 4,,15
 1112      AFF30080 
 1113              		.global	LSM303AGR_ACC_R_xyz_data_avail
 1114              		.thumb
 1115              		.thumb_func
 1116              		.type	LSM303AGR_ACC_R_xyz_data_avail, %function
 1117              	LSM303AGR_ACC_R_xyz_data_avail:
 1118              	.LFB283:
 1119              		.loc 1 450 0
 1120              		.cfi_startproc
 1121              		@ args = 0, pretend = 0, frame = 8
 1122              		@ frame_needed = 0, uses_anonymous_args = 0
 1123 0640 00B5     		push	{lr}
 1124              		.cfi_def_cfa_offset 4
 1125              		.cfi_offset 14, -4
 1126 0642 83B0     		sub	sp, sp, #12
 1127              		.cfi_def_cfa_offset 16
 1128 0644 0190     		str	r0, [sp, #4]
 1129 0646 0091     		str	r1, [sp]
ARM GAS  /tmp/ccRrg1qB.s 			page 21


 1130              		.loc 1 451 0
 1131 0648 0198     		ldr	r0, [sp, #4]
 1132 064a 0721     		movs	r1, #7
 1133 064c 009A     		ldr	r2, [sp]
 1134 064e 0123     		movs	r3, #1
 1135 0650 FFF7FEFF 		bl	LSM303AGR_ACC_ReadReg
 1136 0654 0346     		mov	r3, r0
 1137 0656 002B     		cmp	r3, #0
 1138 0658 01D1     		bne	.L70
 1139              		.loc 1 452 0
 1140 065a 0023     		movs	r3, #0
 1141 065c 07E0     		b	.L71
 1142              	.L70:
 1143              		.loc 1 454 0
 1144 065e 009B     		ldr	r3, [sp]
 1145 0660 1B78     		ldrb	r3, [r3]	@ zero_extendqisi2
 1146 0662 03F00803 		and	r3, r3, #8
 1147 0666 DAB2     		uxtb	r2, r3
 1148 0668 009B     		ldr	r3, [sp]
 1149 066a 1A70     		strb	r2, [r3]
 1150              		.loc 1 456 0
 1151 066c 0123     		movs	r3, #1
 1152              	.L71:
 1153              		.loc 1 457 0
 1154 066e 1846     		mov	r0, r3
 1155 0670 03B0     		add	sp, sp, #12
 1156              		@ sp needed
 1157 0672 5DF804FB 		ldr	pc, [sp], #4
 1158              		.cfi_endproc
 1159              	.LFE283:
 1160              		.size	LSM303AGR_ACC_R_xyz_data_avail, .-LSM303AGR_ACC_R_xyz_data_avail
 1161 0676 00BF     		.align	2
 1162 0678 AFF30080 		.p2align 4,,15
 1162      AFF30080 
 1163              		.global	LSM303AGR_ACC_R_DataXOverrun
 1164              		.thumb
 1165              		.thumb_func
 1166              		.type	LSM303AGR_ACC_R_DataXOverrun, %function
 1167              	LSM303AGR_ACC_R_DataXOverrun:
 1168              	.LFB284:
 1169              		.loc 1 467 0
 1170              		.cfi_startproc
 1171              		@ args = 0, pretend = 0, frame = 8
 1172              		@ frame_needed = 0, uses_anonymous_args = 0
 1173 0680 00B5     		push	{lr}
 1174              		.cfi_def_cfa_offset 4
 1175              		.cfi_offset 14, -4
 1176 0682 83B0     		sub	sp, sp, #12
 1177              		.cfi_def_cfa_offset 16
 1178 0684 0190     		str	r0, [sp, #4]
 1179 0686 0091     		str	r1, [sp]
 1180              		.loc 1 468 0
 1181 0688 0198     		ldr	r0, [sp, #4]
 1182 068a 0721     		movs	r1, #7
 1183 068c 009A     		ldr	r2, [sp]
 1184 068e 0123     		movs	r3, #1
 1185 0690 FFF7FEFF 		bl	LSM303AGR_ACC_ReadReg
ARM GAS  /tmp/ccRrg1qB.s 			page 22


 1186 0694 0346     		mov	r3, r0
 1187 0696 002B     		cmp	r3, #0
 1188 0698 01D1     		bne	.L73
 1189              		.loc 1 469 0
 1190 069a 0023     		movs	r3, #0
 1191 069c 07E0     		b	.L74
 1192              	.L73:
 1193              		.loc 1 471 0
 1194 069e 009B     		ldr	r3, [sp]
 1195 06a0 1B78     		ldrb	r3, [r3]	@ zero_extendqisi2
 1196 06a2 03F01003 		and	r3, r3, #16
 1197 06a6 DAB2     		uxtb	r2, r3
 1198 06a8 009B     		ldr	r3, [sp]
 1199 06aa 1A70     		strb	r2, [r3]
 1200              		.loc 1 473 0
 1201 06ac 0123     		movs	r3, #1
 1202              	.L74:
 1203              		.loc 1 474 0
 1204 06ae 1846     		mov	r0, r3
 1205 06b0 03B0     		add	sp, sp, #12
 1206              		@ sp needed
 1207 06b2 5DF804FB 		ldr	pc, [sp], #4
 1208              		.cfi_endproc
 1209              	.LFE284:
 1210              		.size	LSM303AGR_ACC_R_DataXOverrun, .-LSM303AGR_ACC_R_DataXOverrun
 1211 06b6 00BF     		.align	2
 1212 06b8 AFF30080 		.p2align 4,,15
 1212      AFF30080 
 1213              		.global	LSM303AGR_ACC_R_DataYOverrun
 1214              		.thumb
 1215              		.thumb_func
 1216              		.type	LSM303AGR_ACC_R_DataYOverrun, %function
 1217              	LSM303AGR_ACC_R_DataYOverrun:
 1218              	.LFB285:
 1219              		.loc 1 484 0
 1220              		.cfi_startproc
 1221              		@ args = 0, pretend = 0, frame = 8
 1222              		@ frame_needed = 0, uses_anonymous_args = 0
 1223 06c0 00B5     		push	{lr}
 1224              		.cfi_def_cfa_offset 4
 1225              		.cfi_offset 14, -4
 1226 06c2 83B0     		sub	sp, sp, #12
 1227              		.cfi_def_cfa_offset 16
 1228 06c4 0190     		str	r0, [sp, #4]
 1229 06c6 0091     		str	r1, [sp]
 1230              		.loc 1 485 0
 1231 06c8 0198     		ldr	r0, [sp, #4]
 1232 06ca 0721     		movs	r1, #7
 1233 06cc 009A     		ldr	r2, [sp]
 1234 06ce 0123     		movs	r3, #1
 1235 06d0 FFF7FEFF 		bl	LSM303AGR_ACC_ReadReg
 1236 06d4 0346     		mov	r3, r0
 1237 06d6 002B     		cmp	r3, #0
 1238 06d8 01D1     		bne	.L76
 1239              		.loc 1 486 0
 1240 06da 0023     		movs	r3, #0
 1241 06dc 07E0     		b	.L77
ARM GAS  /tmp/ccRrg1qB.s 			page 23


 1242              	.L76:
 1243              		.loc 1 488 0
 1244 06de 009B     		ldr	r3, [sp]
 1245 06e0 1B78     		ldrb	r3, [r3]	@ zero_extendqisi2
 1246 06e2 03F02003 		and	r3, r3, #32
 1247 06e6 DAB2     		uxtb	r2, r3
 1248 06e8 009B     		ldr	r3, [sp]
 1249 06ea 1A70     		strb	r2, [r3]
 1250              		.loc 1 490 0
 1251 06ec 0123     		movs	r3, #1
 1252              	.L77:
 1253              		.loc 1 491 0
 1254 06ee 1846     		mov	r0, r3
 1255 06f0 03B0     		add	sp, sp, #12
 1256              		@ sp needed
 1257 06f2 5DF804FB 		ldr	pc, [sp], #4
 1258              		.cfi_endproc
 1259              	.LFE285:
 1260              		.size	LSM303AGR_ACC_R_DataYOverrun, .-LSM303AGR_ACC_R_DataYOverrun
 1261 06f6 00BF     		.align	2
 1262 06f8 AFF30080 		.p2align 4,,15
 1262      AFF30080 
 1263              		.global	LSM303AGR_ACC_R_DataZOverrun
 1264              		.thumb
 1265              		.thumb_func
 1266              		.type	LSM303AGR_ACC_R_DataZOverrun, %function
 1267              	LSM303AGR_ACC_R_DataZOverrun:
 1268              	.LFB286:
 1269              		.loc 1 501 0
 1270              		.cfi_startproc
 1271              		@ args = 0, pretend = 0, frame = 8
 1272              		@ frame_needed = 0, uses_anonymous_args = 0
 1273 0700 00B5     		push	{lr}
 1274              		.cfi_def_cfa_offset 4
 1275              		.cfi_offset 14, -4
 1276 0702 83B0     		sub	sp, sp, #12
 1277              		.cfi_def_cfa_offset 16
 1278 0704 0190     		str	r0, [sp, #4]
 1279 0706 0091     		str	r1, [sp]
 1280              		.loc 1 502 0
 1281 0708 0198     		ldr	r0, [sp, #4]
 1282 070a 0721     		movs	r1, #7
 1283 070c 009A     		ldr	r2, [sp]
 1284 070e 0123     		movs	r3, #1
 1285 0710 FFF7FEFF 		bl	LSM303AGR_ACC_ReadReg
 1286 0714 0346     		mov	r3, r0
 1287 0716 002B     		cmp	r3, #0
 1288 0718 01D1     		bne	.L79
 1289              		.loc 1 503 0
 1290 071a 0023     		movs	r3, #0
 1291 071c 07E0     		b	.L80
 1292              	.L79:
 1293              		.loc 1 505 0
 1294 071e 009B     		ldr	r3, [sp]
 1295 0720 1B78     		ldrb	r3, [r3]	@ zero_extendqisi2
 1296 0722 03F04003 		and	r3, r3, #64
 1297 0726 DAB2     		uxtb	r2, r3
ARM GAS  /tmp/ccRrg1qB.s 			page 24


 1298 0728 009B     		ldr	r3, [sp]
 1299 072a 1A70     		strb	r2, [r3]
 1300              		.loc 1 507 0
 1301 072c 0123     		movs	r3, #1
 1302              	.L80:
 1303              		.loc 1 508 0
 1304 072e 1846     		mov	r0, r3
 1305 0730 03B0     		add	sp, sp, #12
 1306              		@ sp needed
 1307 0732 5DF804FB 		ldr	pc, [sp], #4
 1308              		.cfi_endproc
 1309              	.LFE286:
 1310              		.size	LSM303AGR_ACC_R_DataZOverrun, .-LSM303AGR_ACC_R_DataZOverrun
 1311 0736 00BF     		.align	2
 1312 0738 AFF30080 		.p2align 4,,15
 1312      AFF30080 
 1313              		.global	LSM303AGR_ACC_R_DataXYZOverrun
 1314              		.thumb
 1315              		.thumb_func
 1316              		.type	LSM303AGR_ACC_R_DataXYZOverrun, %function
 1317              	LSM303AGR_ACC_R_DataXYZOverrun:
 1318              	.LFB287:
 1319              		.loc 1 518 0
 1320              		.cfi_startproc
 1321              		@ args = 0, pretend = 0, frame = 8
 1322              		@ frame_needed = 0, uses_anonymous_args = 0
 1323 0740 00B5     		push	{lr}
 1324              		.cfi_def_cfa_offset 4
 1325              		.cfi_offset 14, -4
 1326 0742 83B0     		sub	sp, sp, #12
 1327              		.cfi_def_cfa_offset 16
 1328 0744 0190     		str	r0, [sp, #4]
 1329 0746 0091     		str	r1, [sp]
 1330              		.loc 1 519 0
 1331 0748 0198     		ldr	r0, [sp, #4]
 1332 074a 0721     		movs	r1, #7
 1333 074c 009A     		ldr	r2, [sp]
 1334 074e 0123     		movs	r3, #1
 1335 0750 FFF7FEFF 		bl	LSM303AGR_ACC_ReadReg
 1336 0754 0346     		mov	r3, r0
 1337 0756 002B     		cmp	r3, #0
 1338 0758 01D1     		bne	.L82
 1339              		.loc 1 520 0
 1340 075a 0023     		movs	r3, #0
 1341 075c 07E0     		b	.L83
 1342              	.L82:
 1343              		.loc 1 522 0
 1344 075e 009B     		ldr	r3, [sp]
 1345 0760 1B78     		ldrb	r3, [r3]	@ zero_extendqisi2
 1346 0762 23F07F03 		bic	r3, r3, #127
 1347 0766 DAB2     		uxtb	r2, r3
 1348 0768 009B     		ldr	r3, [sp]
 1349 076a 1A70     		strb	r2, [r3]
 1350              		.loc 1 524 0
 1351 076c 0123     		movs	r3, #1
 1352              	.L83:
 1353              		.loc 1 525 0
ARM GAS  /tmp/ccRrg1qB.s 			page 25


 1354 076e 1846     		mov	r0, r3
 1355 0770 03B0     		add	sp, sp, #12
 1356              		@ sp needed
 1357 0772 5DF804FB 		ldr	pc, [sp], #4
 1358              		.cfi_endproc
 1359              	.LFE287:
 1360              		.size	LSM303AGR_ACC_R_DataXYZOverrun, .-LSM303AGR_ACC_R_DataXYZOverrun
 1361 0776 00BF     		.align	2
 1362 0778 AFF30080 		.p2align 4,,15
 1362      AFF30080 
 1363              		.global	LSM303AGR_ACC_R_int_counter
 1364              		.thumb
 1365              		.thumb_func
 1366              		.type	LSM303AGR_ACC_R_int_counter, %function
 1367              	LSM303AGR_ACC_R_int_counter:
 1368              	.LFB288:
 1369              		.loc 1 535 0
 1370              		.cfi_startproc
 1371              		@ args = 0, pretend = 0, frame = 8
 1372              		@ frame_needed = 0, uses_anonymous_args = 0
 1373 0780 00B5     		push	{lr}
 1374              		.cfi_def_cfa_offset 4
 1375              		.cfi_offset 14, -4
 1376 0782 83B0     		sub	sp, sp, #12
 1377              		.cfi_def_cfa_offset 16
 1378 0784 0190     		str	r0, [sp, #4]
 1379 0786 0091     		str	r1, [sp]
 1380              		.loc 1 536 0
 1381 0788 0198     		ldr	r0, [sp, #4]
 1382 078a 0E21     		movs	r1, #14
 1383 078c 009A     		ldr	r2, [sp]
 1384 078e 0123     		movs	r3, #1
 1385 0790 FFF7FEFF 		bl	LSM303AGR_ACC_ReadReg
 1386 0794 0346     		mov	r3, r0
 1387 0796 002B     		cmp	r3, #0
 1388 0798 01D1     		bne	.L85
 1389              		.loc 1 537 0
 1390 079a 0023     		movs	r3, #0
 1391 079c 08E0     		b	.L86
 1392              	.L85:
 1393              		.loc 1 539 0
 1394 079e 009B     		ldr	r3, [sp]
 1395 07a0 1A78     		ldrb	r2, [r3]	@ zero_extendqisi2
 1396 07a2 009B     		ldr	r3, [sp]
 1397 07a4 1A70     		strb	r2, [r3]
 1398              		.loc 1 540 0
 1399 07a6 009B     		ldr	r3, [sp]
 1400 07a8 1A78     		ldrb	r2, [r3]	@ zero_extendqisi2
 1401 07aa 009B     		ldr	r3, [sp]
 1402 07ac 1A70     		strb	r2, [r3]
 1403              		.loc 1 542 0
 1404 07ae 0123     		movs	r3, #1
 1405              	.L86:
 1406              		.loc 1 543 0
 1407 07b0 1846     		mov	r0, r3
 1408 07b2 03B0     		add	sp, sp, #12
 1409              		@ sp needed
ARM GAS  /tmp/ccRrg1qB.s 			page 26


 1410 07b4 5DF804FB 		ldr	pc, [sp], #4
 1411              		.cfi_endproc
 1412              	.LFE288:
 1413              		.size	LSM303AGR_ACC_R_int_counter, .-LSM303AGR_ACC_R_int_counter
 1414              		.align	2
 1415 07b8 AFF30080 		.p2align 4,,15
 1415      AFF30080 
 1416              		.global	LSM303AGR_ACC_W_TEMP_EN_bits
 1417              		.thumb
 1418              		.thumb_func
 1419              		.type	LSM303AGR_ACC_W_TEMP_EN_bits, %function
 1420              	LSM303AGR_ACC_W_TEMP_EN_bits:
 1421              	.LFB289:
 1422              		.loc 1 553 0
 1423              		.cfi_startproc
 1424              		@ args = 0, pretend = 0, frame = 16
 1425              		@ frame_needed = 0, uses_anonymous_args = 0
 1426 07c0 00B5     		push	{lr}
 1427              		.cfi_def_cfa_offset 4
 1428              		.cfi_offset 14, -4
 1429 07c2 85B0     		sub	sp, sp, #20
 1430              		.cfi_def_cfa_offset 24
 1431 07c4 0190     		str	r0, [sp, #4]
 1432 07c6 0B46     		mov	r3, r1
 1433 07c8 8DF80330 		strb	r3, [sp, #3]
 1434              		.loc 1 556 0
 1435 07cc 0DF10F03 		add	r3, sp, #15
 1436 07d0 0198     		ldr	r0, [sp, #4]
 1437 07d2 1F21     		movs	r1, #31
 1438 07d4 1A46     		mov	r2, r3
 1439 07d6 0123     		movs	r3, #1
 1440 07d8 FFF7FEFF 		bl	LSM303AGR_ACC_ReadReg
 1441 07dc 0346     		mov	r3, r0
 1442 07de 002B     		cmp	r3, #0
 1443 07e0 01D1     		bne	.L88
 1444              		.loc 1 557 0
 1445 07e2 0023     		movs	r3, #0
 1446 07e4 1CE0     		b	.L91
 1447              	.L88:
 1448              		.loc 1 559 0
 1449 07e6 9DF80F30 		ldrb	r3, [sp, #15]	@ zero_extendqisi2
 1450 07ea 23F04003 		bic	r3, r3, #64
 1451 07ee DBB2     		uxtb	r3, r3
 1452 07f0 8DF80F30 		strb	r3, [sp, #15]
 1453              		.loc 1 560 0
 1454 07f4 9DF80F20 		ldrb	r2, [sp, #15]	@ zero_extendqisi2
 1455 07f8 9DF80330 		ldrb	r3, [sp, #3]
 1456 07fc 1343     		orrs	r3, r3, r2
 1457 07fe DBB2     		uxtb	r3, r3
 1458 0800 8DF80F30 		strb	r3, [sp, #15]
 1459              		.loc 1 562 0
 1460 0804 0DF10F03 		add	r3, sp, #15
 1461 0808 0198     		ldr	r0, [sp, #4]
 1462 080a 1F21     		movs	r1, #31
 1463 080c 1A46     		mov	r2, r3
 1464 080e 0123     		movs	r3, #1
 1465 0810 FFF7FEFF 		bl	LSM303AGR_ACC_WriteReg
ARM GAS  /tmp/ccRrg1qB.s 			page 27


 1466 0814 0346     		mov	r3, r0
 1467 0816 002B     		cmp	r3, #0
 1468 0818 01D1     		bne	.L90
 1469              		.loc 1 563 0
 1470 081a 0023     		movs	r3, #0
 1471 081c 00E0     		b	.L91
 1472              	.L90:
 1473              		.loc 1 565 0
 1474 081e 0123     		movs	r3, #1
 1475              	.L91:
 1476              		.loc 1 566 0
 1477 0820 1846     		mov	r0, r3
 1478 0822 05B0     		add	sp, sp, #20
 1479              		@ sp needed
 1480 0824 5DF804FB 		ldr	pc, [sp], #4
 1481              		.cfi_endproc
 1482              	.LFE289:
 1483              		.size	LSM303AGR_ACC_W_TEMP_EN_bits, .-LSM303AGR_ACC_W_TEMP_EN_bits
 1484              		.align	2
 1485 0828 AFF30080 		.p2align 4,,15
 1485      AFF30080 
 1486              		.global	LSM303AGR_ACC_R_TEMP_EN_bits
 1487              		.thumb
 1488              		.thumb_func
 1489              		.type	LSM303AGR_ACC_R_TEMP_EN_bits, %function
 1490              	LSM303AGR_ACC_R_TEMP_EN_bits:
 1491              	.LFB290:
 1492              		.loc 1 576 0
 1493              		.cfi_startproc
 1494              		@ args = 0, pretend = 0, frame = 8
 1495              		@ frame_needed = 0, uses_anonymous_args = 0
 1496 0830 00B5     		push	{lr}
 1497              		.cfi_def_cfa_offset 4
 1498              		.cfi_offset 14, -4
 1499 0832 83B0     		sub	sp, sp, #12
 1500              		.cfi_def_cfa_offset 16
 1501 0834 0190     		str	r0, [sp, #4]
 1502 0836 0091     		str	r1, [sp]
 1503              		.loc 1 577 0
 1504 0838 0198     		ldr	r0, [sp, #4]
 1505 083a 1F21     		movs	r1, #31
 1506 083c 009A     		ldr	r2, [sp]
 1507 083e 0123     		movs	r3, #1
 1508 0840 FFF7FEFF 		bl	LSM303AGR_ACC_ReadReg
 1509 0844 0346     		mov	r3, r0
 1510 0846 002B     		cmp	r3, #0
 1511 0848 01D1     		bne	.L93
 1512              		.loc 1 578 0
 1513 084a 0023     		movs	r3, #0
 1514 084c 07E0     		b	.L94
 1515              	.L93:
 1516              		.loc 1 580 0
 1517 084e 009B     		ldr	r3, [sp]
 1518 0850 1B78     		ldrb	r3, [r3]	@ zero_extendqisi2
 1519 0852 03F04003 		and	r3, r3, #64
 1520 0856 DAB2     		uxtb	r2, r3
 1521 0858 009B     		ldr	r3, [sp]
ARM GAS  /tmp/ccRrg1qB.s 			page 28


 1522 085a 1A70     		strb	r2, [r3]
 1523              		.loc 1 582 0
 1524 085c 0123     		movs	r3, #1
 1525              	.L94:
 1526              		.loc 1 583 0
 1527 085e 1846     		mov	r0, r3
 1528 0860 03B0     		add	sp, sp, #12
 1529              		@ sp needed
 1530 0862 5DF804FB 		ldr	pc, [sp], #4
 1531              		.cfi_endproc
 1532              	.LFE290:
 1533              		.size	LSM303AGR_ACC_R_TEMP_EN_bits, .-LSM303AGR_ACC_R_TEMP_EN_bits
 1534 0866 00BF     		.align	2
 1535 0868 AFF30080 		.p2align 4,,15
 1535      AFF30080 
 1536              		.global	LSM303AGR_ACC_W_ADC_PD
 1537              		.thumb
 1538              		.thumb_func
 1539              		.type	LSM303AGR_ACC_W_ADC_PD, %function
 1540              	LSM303AGR_ACC_W_ADC_PD:
 1541              	.LFB291:
 1542              		.loc 1 593 0
 1543              		.cfi_startproc
 1544              		@ args = 0, pretend = 0, frame = 16
 1545              		@ frame_needed = 0, uses_anonymous_args = 0
 1546 0870 00B5     		push	{lr}
 1547              		.cfi_def_cfa_offset 4
 1548              		.cfi_offset 14, -4
 1549 0872 85B0     		sub	sp, sp, #20
 1550              		.cfi_def_cfa_offset 24
 1551 0874 0190     		str	r0, [sp, #4]
 1552 0876 0B46     		mov	r3, r1
 1553 0878 8DF80330 		strb	r3, [sp, #3]
 1554              		.loc 1 596 0
 1555 087c 0DF10F03 		add	r3, sp, #15
 1556 0880 0198     		ldr	r0, [sp, #4]
 1557 0882 1F21     		movs	r1, #31
 1558 0884 1A46     		mov	r2, r3
 1559 0886 0123     		movs	r3, #1
 1560 0888 FFF7FEFF 		bl	LSM303AGR_ACC_ReadReg
 1561 088c 0346     		mov	r3, r0
 1562 088e 002B     		cmp	r3, #0
 1563 0890 01D1     		bne	.L96
 1564              		.loc 1 597 0
 1565 0892 0023     		movs	r3, #0
 1566 0894 1CE0     		b	.L99
 1567              	.L96:
 1568              		.loc 1 599 0
 1569 0896 9DF80F30 		ldrb	r3, [sp, #15]	@ zero_extendqisi2
 1570 089a 03F07F03 		and	r3, r3, #127
 1571 089e DBB2     		uxtb	r3, r3
 1572 08a0 8DF80F30 		strb	r3, [sp, #15]
 1573              		.loc 1 600 0
 1574 08a4 9DF80F20 		ldrb	r2, [sp, #15]	@ zero_extendqisi2
 1575 08a8 9DF80330 		ldrb	r3, [sp, #3]
 1576 08ac 1343     		orrs	r3, r3, r2
 1577 08ae DBB2     		uxtb	r3, r3
ARM GAS  /tmp/ccRrg1qB.s 			page 29


 1578 08b0 8DF80F30 		strb	r3, [sp, #15]
 1579              		.loc 1 602 0
 1580 08b4 0DF10F03 		add	r3, sp, #15
 1581 08b8 0198     		ldr	r0, [sp, #4]
 1582 08ba 1F21     		movs	r1, #31
 1583 08bc 1A46     		mov	r2, r3
 1584 08be 0123     		movs	r3, #1
 1585 08c0 FFF7FEFF 		bl	LSM303AGR_ACC_WriteReg
 1586 08c4 0346     		mov	r3, r0
 1587 08c6 002B     		cmp	r3, #0
 1588 08c8 01D1     		bne	.L98
 1589              		.loc 1 603 0
 1590 08ca 0023     		movs	r3, #0
 1591 08cc 00E0     		b	.L99
 1592              	.L98:
 1593              		.loc 1 605 0
 1594 08ce 0123     		movs	r3, #1
 1595              	.L99:
 1596              		.loc 1 606 0
 1597 08d0 1846     		mov	r0, r3
 1598 08d2 05B0     		add	sp, sp, #20
 1599              		@ sp needed
 1600 08d4 5DF804FB 		ldr	pc, [sp], #4
 1601              		.cfi_endproc
 1602              	.LFE291:
 1603              		.size	LSM303AGR_ACC_W_ADC_PD, .-LSM303AGR_ACC_W_ADC_PD
 1604              		.align	2
 1605 08d8 AFF30080 		.p2align 4,,15
 1605      AFF30080 
 1606              		.global	LSM303AGR_ACC_R_ADC_PD
 1607              		.thumb
 1608              		.thumb_func
 1609              		.type	LSM303AGR_ACC_R_ADC_PD, %function
 1610              	LSM303AGR_ACC_R_ADC_PD:
 1611              	.LFB292:
 1612              		.loc 1 616 0
 1613              		.cfi_startproc
 1614              		@ args = 0, pretend = 0, frame = 8
 1615              		@ frame_needed = 0, uses_anonymous_args = 0
 1616 08e0 00B5     		push	{lr}
 1617              		.cfi_def_cfa_offset 4
 1618              		.cfi_offset 14, -4
 1619 08e2 83B0     		sub	sp, sp, #12
 1620              		.cfi_def_cfa_offset 16
 1621 08e4 0190     		str	r0, [sp, #4]
 1622 08e6 0091     		str	r1, [sp]
 1623              		.loc 1 617 0
 1624 08e8 0198     		ldr	r0, [sp, #4]
 1625 08ea 1F21     		movs	r1, #31
 1626 08ec 009A     		ldr	r2, [sp]
 1627 08ee 0123     		movs	r3, #1
 1628 08f0 FFF7FEFF 		bl	LSM303AGR_ACC_ReadReg
 1629 08f4 0346     		mov	r3, r0
 1630 08f6 002B     		cmp	r3, #0
 1631 08f8 01D1     		bne	.L101
 1632              		.loc 1 618 0
 1633 08fa 0023     		movs	r3, #0
ARM GAS  /tmp/ccRrg1qB.s 			page 30


 1634 08fc 07E0     		b	.L102
 1635              	.L101:
 1636              		.loc 1 620 0
 1637 08fe 009B     		ldr	r3, [sp]
 1638 0900 1B78     		ldrb	r3, [r3]	@ zero_extendqisi2
 1639 0902 23F07F03 		bic	r3, r3, #127
 1640 0906 DAB2     		uxtb	r2, r3
 1641 0908 009B     		ldr	r3, [sp]
 1642 090a 1A70     		strb	r2, [r3]
 1643              		.loc 1 622 0
 1644 090c 0123     		movs	r3, #1
 1645              	.L102:
 1646              		.loc 1 623 0
 1647 090e 1846     		mov	r0, r3
 1648 0910 03B0     		add	sp, sp, #12
 1649              		@ sp needed
 1650 0912 5DF804FB 		ldr	pc, [sp], #4
 1651              		.cfi_endproc
 1652              	.LFE292:
 1653              		.size	LSM303AGR_ACC_R_ADC_PD, .-LSM303AGR_ACC_R_ADC_PD
 1654 0916 00BF     		.align	2
 1655 0918 AFF30080 		.p2align 4,,15
 1655      AFF30080 
 1656              		.global	LSM303AGR_ACC_W_XEN
 1657              		.thumb
 1658              		.thumb_func
 1659              		.type	LSM303AGR_ACC_W_XEN, %function
 1660              	LSM303AGR_ACC_W_XEN:
 1661              	.LFB293:
 1662              		.loc 1 633 0
 1663              		.cfi_startproc
 1664              		@ args = 0, pretend = 0, frame = 16
 1665              		@ frame_needed = 0, uses_anonymous_args = 0
 1666 0920 00B5     		push	{lr}
 1667              		.cfi_def_cfa_offset 4
 1668              		.cfi_offset 14, -4
 1669 0922 85B0     		sub	sp, sp, #20
 1670              		.cfi_def_cfa_offset 24
 1671 0924 0190     		str	r0, [sp, #4]
 1672 0926 0B46     		mov	r3, r1
 1673 0928 8DF80330 		strb	r3, [sp, #3]
 1674              		.loc 1 636 0
 1675 092c 0DF10F03 		add	r3, sp, #15
 1676 0930 0198     		ldr	r0, [sp, #4]
 1677 0932 2021     		movs	r1, #32
 1678 0934 1A46     		mov	r2, r3
 1679 0936 0123     		movs	r3, #1
 1680 0938 FFF7FEFF 		bl	LSM303AGR_ACC_ReadReg
 1681 093c 0346     		mov	r3, r0
 1682 093e 002B     		cmp	r3, #0
 1683 0940 01D1     		bne	.L104
 1684              		.loc 1 637 0
 1685 0942 0023     		movs	r3, #0
 1686 0944 1CE0     		b	.L107
 1687              	.L104:
 1688              		.loc 1 639 0
 1689 0946 9DF80F30 		ldrb	r3, [sp, #15]	@ zero_extendqisi2
ARM GAS  /tmp/ccRrg1qB.s 			page 31


 1690 094a 23F00103 		bic	r3, r3, #1
 1691 094e DBB2     		uxtb	r3, r3
 1692 0950 8DF80F30 		strb	r3, [sp, #15]
 1693              		.loc 1 640 0
 1694 0954 9DF80F20 		ldrb	r2, [sp, #15]	@ zero_extendqisi2
 1695 0958 9DF80330 		ldrb	r3, [sp, #3]
 1696 095c 1343     		orrs	r3, r3, r2
 1697 095e DBB2     		uxtb	r3, r3
 1698 0960 8DF80F30 		strb	r3, [sp, #15]
 1699              		.loc 1 642 0
 1700 0964 0DF10F03 		add	r3, sp, #15
 1701 0968 0198     		ldr	r0, [sp, #4]
 1702 096a 2021     		movs	r1, #32
 1703 096c 1A46     		mov	r2, r3
 1704 096e 0123     		movs	r3, #1
 1705 0970 FFF7FEFF 		bl	LSM303AGR_ACC_WriteReg
 1706 0974 0346     		mov	r3, r0
 1707 0976 002B     		cmp	r3, #0
 1708 0978 01D1     		bne	.L106
 1709              		.loc 1 643 0
 1710 097a 0023     		movs	r3, #0
 1711 097c 00E0     		b	.L107
 1712              	.L106:
 1713              		.loc 1 645 0
 1714 097e 0123     		movs	r3, #1
 1715              	.L107:
 1716              		.loc 1 646 0
 1717 0980 1846     		mov	r0, r3
 1718 0982 05B0     		add	sp, sp, #20
 1719              		@ sp needed
 1720 0984 5DF804FB 		ldr	pc, [sp], #4
 1721              		.cfi_endproc
 1722              	.LFE293:
 1723              		.size	LSM303AGR_ACC_W_XEN, .-LSM303AGR_ACC_W_XEN
 1724              		.align	2
 1725 0988 AFF30080 		.p2align 4,,15
 1725      AFF30080 
 1726              		.global	LSM303AGR_ACC_R_XEN
 1727              		.thumb
 1728              		.thumb_func
 1729              		.type	LSM303AGR_ACC_R_XEN, %function
 1730              	LSM303AGR_ACC_R_XEN:
 1731              	.LFB294:
 1732              		.loc 1 656 0
 1733              		.cfi_startproc
 1734              		@ args = 0, pretend = 0, frame = 8
 1735              		@ frame_needed = 0, uses_anonymous_args = 0
 1736 0990 00B5     		push	{lr}
 1737              		.cfi_def_cfa_offset 4
 1738              		.cfi_offset 14, -4
 1739 0992 83B0     		sub	sp, sp, #12
 1740              		.cfi_def_cfa_offset 16
 1741 0994 0190     		str	r0, [sp, #4]
 1742 0996 0091     		str	r1, [sp]
 1743              		.loc 1 657 0
 1744 0998 0198     		ldr	r0, [sp, #4]
 1745 099a 2021     		movs	r1, #32
ARM GAS  /tmp/ccRrg1qB.s 			page 32


 1746 099c 009A     		ldr	r2, [sp]
 1747 099e 0123     		movs	r3, #1
 1748 09a0 FFF7FEFF 		bl	LSM303AGR_ACC_ReadReg
 1749 09a4 0346     		mov	r3, r0
 1750 09a6 002B     		cmp	r3, #0
 1751 09a8 01D1     		bne	.L109
 1752              		.loc 1 658 0
 1753 09aa 0023     		movs	r3, #0
 1754 09ac 07E0     		b	.L110
 1755              	.L109:
 1756              		.loc 1 660 0
 1757 09ae 009B     		ldr	r3, [sp]
 1758 09b0 1B78     		ldrb	r3, [r3]	@ zero_extendqisi2
 1759 09b2 03F00103 		and	r3, r3, #1
 1760 09b6 DAB2     		uxtb	r2, r3
 1761 09b8 009B     		ldr	r3, [sp]
 1762 09ba 1A70     		strb	r2, [r3]
 1763              		.loc 1 662 0
 1764 09bc 0123     		movs	r3, #1
 1765              	.L110:
 1766              		.loc 1 663 0
 1767 09be 1846     		mov	r0, r3
 1768 09c0 03B0     		add	sp, sp, #12
 1769              		@ sp needed
 1770 09c2 5DF804FB 		ldr	pc, [sp], #4
 1771              		.cfi_endproc
 1772              	.LFE294:
 1773              		.size	LSM303AGR_ACC_R_XEN, .-LSM303AGR_ACC_R_XEN
 1774 09c6 00BF     		.align	2
 1775 09c8 AFF30080 		.p2align 4,,15
 1775      AFF30080 
 1776              		.global	LSM303AGR_ACC_W_YEN
 1777              		.thumb
 1778              		.thumb_func
 1779              		.type	LSM303AGR_ACC_W_YEN, %function
 1780              	LSM303AGR_ACC_W_YEN:
 1781              	.LFB295:
 1782              		.loc 1 673 0
 1783              		.cfi_startproc
 1784              		@ args = 0, pretend = 0, frame = 16
 1785              		@ frame_needed = 0, uses_anonymous_args = 0
 1786 09d0 00B5     		push	{lr}
 1787              		.cfi_def_cfa_offset 4
 1788              		.cfi_offset 14, -4
 1789 09d2 85B0     		sub	sp, sp, #20
 1790              		.cfi_def_cfa_offset 24
 1791 09d4 0190     		str	r0, [sp, #4]
 1792 09d6 0B46     		mov	r3, r1
 1793 09d8 8DF80330 		strb	r3, [sp, #3]
 1794              		.loc 1 676 0
 1795 09dc 0DF10F03 		add	r3, sp, #15
 1796 09e0 0198     		ldr	r0, [sp, #4]
 1797 09e2 2021     		movs	r1, #32
 1798 09e4 1A46     		mov	r2, r3
 1799 09e6 0123     		movs	r3, #1
 1800 09e8 FFF7FEFF 		bl	LSM303AGR_ACC_ReadReg
 1801 09ec 0346     		mov	r3, r0
ARM GAS  /tmp/ccRrg1qB.s 			page 33


 1802 09ee 002B     		cmp	r3, #0
 1803 09f0 01D1     		bne	.L112
 1804              		.loc 1 677 0
 1805 09f2 0023     		movs	r3, #0
 1806 09f4 1CE0     		b	.L115
 1807              	.L112:
 1808              		.loc 1 679 0
 1809 09f6 9DF80F30 		ldrb	r3, [sp, #15]	@ zero_extendqisi2
 1810 09fa 23F00203 		bic	r3, r3, #2
 1811 09fe DBB2     		uxtb	r3, r3
 1812 0a00 8DF80F30 		strb	r3, [sp, #15]
 1813              		.loc 1 680 0
 1814 0a04 9DF80F20 		ldrb	r2, [sp, #15]	@ zero_extendqisi2
 1815 0a08 9DF80330 		ldrb	r3, [sp, #3]
 1816 0a0c 1343     		orrs	r3, r3, r2
 1817 0a0e DBB2     		uxtb	r3, r3
 1818 0a10 8DF80F30 		strb	r3, [sp, #15]
 1819              		.loc 1 682 0
 1820 0a14 0DF10F03 		add	r3, sp, #15
 1821 0a18 0198     		ldr	r0, [sp, #4]
 1822 0a1a 2021     		movs	r1, #32
 1823 0a1c 1A46     		mov	r2, r3
 1824 0a1e 0123     		movs	r3, #1
 1825 0a20 FFF7FEFF 		bl	LSM303AGR_ACC_WriteReg
 1826 0a24 0346     		mov	r3, r0
 1827 0a26 002B     		cmp	r3, #0
 1828 0a28 01D1     		bne	.L114
 1829              		.loc 1 683 0
 1830 0a2a 0023     		movs	r3, #0
 1831 0a2c 00E0     		b	.L115
 1832              	.L114:
 1833              		.loc 1 685 0
 1834 0a2e 0123     		movs	r3, #1
 1835              	.L115:
 1836              		.loc 1 686 0
 1837 0a30 1846     		mov	r0, r3
 1838 0a32 05B0     		add	sp, sp, #20
 1839              		@ sp needed
 1840 0a34 5DF804FB 		ldr	pc, [sp], #4
 1841              		.cfi_endproc
 1842              	.LFE295:
 1843              		.size	LSM303AGR_ACC_W_YEN, .-LSM303AGR_ACC_W_YEN
 1844              		.align	2
 1845 0a38 AFF30080 		.p2align 4,,15
 1845      AFF30080 
 1846              		.global	LSM303AGR_ACC_R_YEN
 1847              		.thumb
 1848              		.thumb_func
 1849              		.type	LSM303AGR_ACC_R_YEN, %function
 1850              	LSM303AGR_ACC_R_YEN:
 1851              	.LFB296:
 1852              		.loc 1 696 0
 1853              		.cfi_startproc
 1854              		@ args = 0, pretend = 0, frame = 8
 1855              		@ frame_needed = 0, uses_anonymous_args = 0
 1856 0a40 00B5     		push	{lr}
 1857              		.cfi_def_cfa_offset 4
ARM GAS  /tmp/ccRrg1qB.s 			page 34


 1858              		.cfi_offset 14, -4
 1859 0a42 83B0     		sub	sp, sp, #12
 1860              		.cfi_def_cfa_offset 16
 1861 0a44 0190     		str	r0, [sp, #4]
 1862 0a46 0091     		str	r1, [sp]
 1863              		.loc 1 697 0
 1864 0a48 0198     		ldr	r0, [sp, #4]
 1865 0a4a 2021     		movs	r1, #32
 1866 0a4c 009A     		ldr	r2, [sp]
 1867 0a4e 0123     		movs	r3, #1
 1868 0a50 FFF7FEFF 		bl	LSM303AGR_ACC_ReadReg
 1869 0a54 0346     		mov	r3, r0
 1870 0a56 002B     		cmp	r3, #0
 1871 0a58 01D1     		bne	.L117
 1872              		.loc 1 698 0
 1873 0a5a 0023     		movs	r3, #0
 1874 0a5c 07E0     		b	.L118
 1875              	.L117:
 1876              		.loc 1 700 0
 1877 0a5e 009B     		ldr	r3, [sp]
 1878 0a60 1B78     		ldrb	r3, [r3]	@ zero_extendqisi2
 1879 0a62 03F00203 		and	r3, r3, #2
 1880 0a66 DAB2     		uxtb	r2, r3
 1881 0a68 009B     		ldr	r3, [sp]
 1882 0a6a 1A70     		strb	r2, [r3]
 1883              		.loc 1 702 0
 1884 0a6c 0123     		movs	r3, #1
 1885              	.L118:
 1886              		.loc 1 703 0
 1887 0a6e 1846     		mov	r0, r3
 1888 0a70 03B0     		add	sp, sp, #12
 1889              		@ sp needed
 1890 0a72 5DF804FB 		ldr	pc, [sp], #4
 1891              		.cfi_endproc
 1892              	.LFE296:
 1893              		.size	LSM303AGR_ACC_R_YEN, .-LSM303AGR_ACC_R_YEN
 1894 0a76 00BF     		.align	2
 1895 0a78 AFF30080 		.p2align 4,,15
 1895      AFF30080 
 1896              		.global	LSM303AGR_ACC_W_ZEN
 1897              		.thumb
 1898              		.thumb_func
 1899              		.type	LSM303AGR_ACC_W_ZEN, %function
 1900              	LSM303AGR_ACC_W_ZEN:
 1901              	.LFB297:
 1902              		.loc 1 713 0
 1903              		.cfi_startproc
 1904              		@ args = 0, pretend = 0, frame = 16
 1905              		@ frame_needed = 0, uses_anonymous_args = 0
 1906 0a80 00B5     		push	{lr}
 1907              		.cfi_def_cfa_offset 4
 1908              		.cfi_offset 14, -4
 1909 0a82 85B0     		sub	sp, sp, #20
 1910              		.cfi_def_cfa_offset 24
 1911 0a84 0190     		str	r0, [sp, #4]
 1912 0a86 0B46     		mov	r3, r1
 1913 0a88 8DF80330 		strb	r3, [sp, #3]
ARM GAS  /tmp/ccRrg1qB.s 			page 35


 1914              		.loc 1 716 0
 1915 0a8c 0DF10F03 		add	r3, sp, #15
 1916 0a90 0198     		ldr	r0, [sp, #4]
 1917 0a92 2021     		movs	r1, #32
 1918 0a94 1A46     		mov	r2, r3
 1919 0a96 0123     		movs	r3, #1
 1920 0a98 FFF7FEFF 		bl	LSM303AGR_ACC_ReadReg
 1921 0a9c 0346     		mov	r3, r0
 1922 0a9e 002B     		cmp	r3, #0
 1923 0aa0 01D1     		bne	.L120
 1924              		.loc 1 717 0
 1925 0aa2 0023     		movs	r3, #0
 1926 0aa4 1CE0     		b	.L123
 1927              	.L120:
 1928              		.loc 1 719 0
 1929 0aa6 9DF80F30 		ldrb	r3, [sp, #15]	@ zero_extendqisi2
 1930 0aaa 23F00403 		bic	r3, r3, #4
 1931 0aae DBB2     		uxtb	r3, r3
 1932 0ab0 8DF80F30 		strb	r3, [sp, #15]
 1933              		.loc 1 720 0
 1934 0ab4 9DF80F20 		ldrb	r2, [sp, #15]	@ zero_extendqisi2
 1935 0ab8 9DF80330 		ldrb	r3, [sp, #3]
 1936 0abc 1343     		orrs	r3, r3, r2
 1937 0abe DBB2     		uxtb	r3, r3
 1938 0ac0 8DF80F30 		strb	r3, [sp, #15]
 1939              		.loc 1 722 0
 1940 0ac4 0DF10F03 		add	r3, sp, #15
 1941 0ac8 0198     		ldr	r0, [sp, #4]
 1942 0aca 2021     		movs	r1, #32
 1943 0acc 1A46     		mov	r2, r3
 1944 0ace 0123     		movs	r3, #1
 1945 0ad0 FFF7FEFF 		bl	LSM303AGR_ACC_WriteReg
 1946 0ad4 0346     		mov	r3, r0
 1947 0ad6 002B     		cmp	r3, #0
 1948 0ad8 01D1     		bne	.L122
 1949              		.loc 1 723 0
 1950 0ada 0023     		movs	r3, #0
 1951 0adc 00E0     		b	.L123
 1952              	.L122:
 1953              		.loc 1 725 0
 1954 0ade 0123     		movs	r3, #1
 1955              	.L123:
 1956              		.loc 1 726 0
 1957 0ae0 1846     		mov	r0, r3
 1958 0ae2 05B0     		add	sp, sp, #20
 1959              		@ sp needed
 1960 0ae4 5DF804FB 		ldr	pc, [sp], #4
 1961              		.cfi_endproc
 1962              	.LFE297:
 1963              		.size	LSM303AGR_ACC_W_ZEN, .-LSM303AGR_ACC_W_ZEN
 1964              		.align	2
 1965 0ae8 AFF30080 		.p2align 4,,15
 1965      AFF30080 
 1966              		.global	LSM303AGR_ACC_R_ZEN
 1967              		.thumb
 1968              		.thumb_func
 1969              		.type	LSM303AGR_ACC_R_ZEN, %function
ARM GAS  /tmp/ccRrg1qB.s 			page 36


 1970              	LSM303AGR_ACC_R_ZEN:
 1971              	.LFB298:
 1972              		.loc 1 736 0
 1973              		.cfi_startproc
 1974              		@ args = 0, pretend = 0, frame = 8
 1975              		@ frame_needed = 0, uses_anonymous_args = 0
 1976 0af0 00B5     		push	{lr}
 1977              		.cfi_def_cfa_offset 4
 1978              		.cfi_offset 14, -4
 1979 0af2 83B0     		sub	sp, sp, #12
 1980              		.cfi_def_cfa_offset 16
 1981 0af4 0190     		str	r0, [sp, #4]
 1982 0af6 0091     		str	r1, [sp]
 1983              		.loc 1 737 0
 1984 0af8 0198     		ldr	r0, [sp, #4]
 1985 0afa 2021     		movs	r1, #32
 1986 0afc 009A     		ldr	r2, [sp]
 1987 0afe 0123     		movs	r3, #1
 1988 0b00 FFF7FEFF 		bl	LSM303AGR_ACC_ReadReg
 1989 0b04 0346     		mov	r3, r0
 1990 0b06 002B     		cmp	r3, #0
 1991 0b08 01D1     		bne	.L125
 1992              		.loc 1 738 0
 1993 0b0a 0023     		movs	r3, #0
 1994 0b0c 07E0     		b	.L126
 1995              	.L125:
 1996              		.loc 1 740 0
 1997 0b0e 009B     		ldr	r3, [sp]
 1998 0b10 1B78     		ldrb	r3, [r3]	@ zero_extendqisi2
 1999 0b12 03F00403 		and	r3, r3, #4
 2000 0b16 DAB2     		uxtb	r2, r3
 2001 0b18 009B     		ldr	r3, [sp]
 2002 0b1a 1A70     		strb	r2, [r3]
 2003              		.loc 1 742 0
 2004 0b1c 0123     		movs	r3, #1
 2005              	.L126:
 2006              		.loc 1 743 0
 2007 0b1e 1846     		mov	r0, r3
 2008 0b20 03B0     		add	sp, sp, #12
 2009              		@ sp needed
 2010 0b22 5DF804FB 		ldr	pc, [sp], #4
 2011              		.cfi_endproc
 2012              	.LFE298:
 2013              		.size	LSM303AGR_ACC_R_ZEN, .-LSM303AGR_ACC_R_ZEN
 2014 0b26 00BF     		.align	2
 2015 0b28 AFF30080 		.p2align 4,,15
 2015      AFF30080 
 2016              		.global	LSM303AGR_ACC_W_LOWPWR_EN
 2017              		.thumb
 2018              		.thumb_func
 2019              		.type	LSM303AGR_ACC_W_LOWPWR_EN, %function
 2020              	LSM303AGR_ACC_W_LOWPWR_EN:
 2021              	.LFB299:
 2022              		.loc 1 753 0
 2023              		.cfi_startproc
 2024              		@ args = 0, pretend = 0, frame = 16
 2025              		@ frame_needed = 0, uses_anonymous_args = 0
ARM GAS  /tmp/ccRrg1qB.s 			page 37


 2026 0b30 00B5     		push	{lr}
 2027              		.cfi_def_cfa_offset 4
 2028              		.cfi_offset 14, -4
 2029 0b32 85B0     		sub	sp, sp, #20
 2030              		.cfi_def_cfa_offset 24
 2031 0b34 0190     		str	r0, [sp, #4]
 2032 0b36 0B46     		mov	r3, r1
 2033 0b38 8DF80330 		strb	r3, [sp, #3]
 2034              		.loc 1 756 0
 2035 0b3c 0DF10F03 		add	r3, sp, #15
 2036 0b40 0198     		ldr	r0, [sp, #4]
 2037 0b42 2021     		movs	r1, #32
 2038 0b44 1A46     		mov	r2, r3
 2039 0b46 0123     		movs	r3, #1
 2040 0b48 FFF7FEFF 		bl	LSM303AGR_ACC_ReadReg
 2041 0b4c 0346     		mov	r3, r0
 2042 0b4e 002B     		cmp	r3, #0
 2043 0b50 01D1     		bne	.L128
 2044              		.loc 1 757 0
 2045 0b52 0023     		movs	r3, #0
 2046 0b54 1CE0     		b	.L131
 2047              	.L128:
 2048              		.loc 1 759 0
 2049 0b56 9DF80F30 		ldrb	r3, [sp, #15]	@ zero_extendqisi2
 2050 0b5a 23F00803 		bic	r3, r3, #8
 2051 0b5e DBB2     		uxtb	r3, r3
 2052 0b60 8DF80F30 		strb	r3, [sp, #15]
 2053              		.loc 1 760 0
 2054 0b64 9DF80F20 		ldrb	r2, [sp, #15]	@ zero_extendqisi2
 2055 0b68 9DF80330 		ldrb	r3, [sp, #3]
 2056 0b6c 1343     		orrs	r3, r3, r2
 2057 0b6e DBB2     		uxtb	r3, r3
 2058 0b70 8DF80F30 		strb	r3, [sp, #15]
 2059              		.loc 1 762 0
 2060 0b74 0DF10F03 		add	r3, sp, #15
 2061 0b78 0198     		ldr	r0, [sp, #4]
 2062 0b7a 2021     		movs	r1, #32
 2063 0b7c 1A46     		mov	r2, r3
 2064 0b7e 0123     		movs	r3, #1
 2065 0b80 FFF7FEFF 		bl	LSM303AGR_ACC_WriteReg
 2066 0b84 0346     		mov	r3, r0
 2067 0b86 002B     		cmp	r3, #0
 2068 0b88 01D1     		bne	.L130
 2069              		.loc 1 763 0
 2070 0b8a 0023     		movs	r3, #0
 2071 0b8c 00E0     		b	.L131
 2072              	.L130:
 2073              		.loc 1 765 0
 2074 0b8e 0123     		movs	r3, #1
 2075              	.L131:
 2076              		.loc 1 766 0
 2077 0b90 1846     		mov	r0, r3
 2078 0b92 05B0     		add	sp, sp, #20
 2079              		@ sp needed
 2080 0b94 5DF804FB 		ldr	pc, [sp], #4
 2081              		.cfi_endproc
 2082              	.LFE299:
ARM GAS  /tmp/ccRrg1qB.s 			page 38


 2083              		.size	LSM303AGR_ACC_W_LOWPWR_EN, .-LSM303AGR_ACC_W_LOWPWR_EN
 2084              		.align	2
 2085 0b98 AFF30080 		.p2align 4,,15
 2085      AFF30080 
 2086              		.global	LSM303AGR_ACC_R_LOWPWR_EN
 2087              		.thumb
 2088              		.thumb_func
 2089              		.type	LSM303AGR_ACC_R_LOWPWR_EN, %function
 2090              	LSM303AGR_ACC_R_LOWPWR_EN:
 2091              	.LFB300:
 2092              		.loc 1 776 0
 2093              		.cfi_startproc
 2094              		@ args = 0, pretend = 0, frame = 8
 2095              		@ frame_needed = 0, uses_anonymous_args = 0
 2096 0ba0 00B5     		push	{lr}
 2097              		.cfi_def_cfa_offset 4
 2098              		.cfi_offset 14, -4
 2099 0ba2 83B0     		sub	sp, sp, #12
 2100              		.cfi_def_cfa_offset 16
 2101 0ba4 0190     		str	r0, [sp, #4]
 2102 0ba6 0091     		str	r1, [sp]
 2103              		.loc 1 777 0
 2104 0ba8 0198     		ldr	r0, [sp, #4]
 2105 0baa 2021     		movs	r1, #32
 2106 0bac 009A     		ldr	r2, [sp]
 2107 0bae 0123     		movs	r3, #1
 2108 0bb0 FFF7FEFF 		bl	LSM303AGR_ACC_ReadReg
 2109 0bb4 0346     		mov	r3, r0
 2110 0bb6 002B     		cmp	r3, #0
 2111 0bb8 01D1     		bne	.L133
 2112              		.loc 1 778 0
 2113 0bba 0023     		movs	r3, #0
 2114 0bbc 07E0     		b	.L134
 2115              	.L133:
 2116              		.loc 1 780 0
 2117 0bbe 009B     		ldr	r3, [sp]
 2118 0bc0 1B78     		ldrb	r3, [r3]	@ zero_extendqisi2
 2119 0bc2 03F00803 		and	r3, r3, #8
 2120 0bc6 DAB2     		uxtb	r2, r3
 2121 0bc8 009B     		ldr	r3, [sp]
 2122 0bca 1A70     		strb	r2, [r3]
 2123              		.loc 1 782 0
 2124 0bcc 0123     		movs	r3, #1
 2125              	.L134:
 2126              		.loc 1 783 0
 2127 0bce 1846     		mov	r0, r3
 2128 0bd0 03B0     		add	sp, sp, #12
 2129              		@ sp needed
 2130 0bd2 5DF804FB 		ldr	pc, [sp], #4
 2131              		.cfi_endproc
 2132              	.LFE300:
 2133              		.size	LSM303AGR_ACC_R_LOWPWR_EN, .-LSM303AGR_ACC_R_LOWPWR_EN
 2134 0bd6 00BF     		.align	2
 2135 0bd8 AFF30080 		.p2align 4,,15
 2135      AFF30080 
 2136              		.global	LSM303AGR_ACC_W_hpf_aoi_en_int1
 2137              		.thumb
ARM GAS  /tmp/ccRrg1qB.s 			page 39


 2138              		.thumb_func
 2139              		.type	LSM303AGR_ACC_W_hpf_aoi_en_int1, %function
 2140              	LSM303AGR_ACC_W_hpf_aoi_en_int1:
 2141              	.LFB301:
 2142              		.loc 1 793 0
 2143              		.cfi_startproc
 2144              		@ args = 0, pretend = 0, frame = 16
 2145              		@ frame_needed = 0, uses_anonymous_args = 0
 2146 0be0 00B5     		push	{lr}
 2147              		.cfi_def_cfa_offset 4
 2148              		.cfi_offset 14, -4
 2149 0be2 85B0     		sub	sp, sp, #20
 2150              		.cfi_def_cfa_offset 24
 2151 0be4 0190     		str	r0, [sp, #4]
 2152 0be6 0B46     		mov	r3, r1
 2153 0be8 8DF80330 		strb	r3, [sp, #3]
 2154              		.loc 1 796 0
 2155 0bec 0DF10F03 		add	r3, sp, #15
 2156 0bf0 0198     		ldr	r0, [sp, #4]
 2157 0bf2 2121     		movs	r1, #33
 2158 0bf4 1A46     		mov	r2, r3
 2159 0bf6 0123     		movs	r3, #1
 2160 0bf8 FFF7FEFF 		bl	LSM303AGR_ACC_ReadReg
 2161 0bfc 0346     		mov	r3, r0
 2162 0bfe 002B     		cmp	r3, #0
 2163 0c00 01D1     		bne	.L136
 2164              		.loc 1 797 0
 2165 0c02 0023     		movs	r3, #0
 2166 0c04 1CE0     		b	.L139
 2167              	.L136:
 2168              		.loc 1 799 0
 2169 0c06 9DF80F30 		ldrb	r3, [sp, #15]	@ zero_extendqisi2
 2170 0c0a 23F00103 		bic	r3, r3, #1
 2171 0c0e DBB2     		uxtb	r3, r3
 2172 0c10 8DF80F30 		strb	r3, [sp, #15]
 2173              		.loc 1 800 0
 2174 0c14 9DF80F20 		ldrb	r2, [sp, #15]	@ zero_extendqisi2
 2175 0c18 9DF80330 		ldrb	r3, [sp, #3]
 2176 0c1c 1343     		orrs	r3, r3, r2
 2177 0c1e DBB2     		uxtb	r3, r3
 2178 0c20 8DF80F30 		strb	r3, [sp, #15]
 2179              		.loc 1 802 0
 2180 0c24 0DF10F03 		add	r3, sp, #15
 2181 0c28 0198     		ldr	r0, [sp, #4]
 2182 0c2a 2121     		movs	r1, #33
 2183 0c2c 1A46     		mov	r2, r3
 2184 0c2e 0123     		movs	r3, #1
 2185 0c30 FFF7FEFF 		bl	LSM303AGR_ACC_WriteReg
 2186 0c34 0346     		mov	r3, r0
 2187 0c36 002B     		cmp	r3, #0
 2188 0c38 01D1     		bne	.L138
 2189              		.loc 1 803 0
 2190 0c3a 0023     		movs	r3, #0
 2191 0c3c 00E0     		b	.L139
 2192              	.L138:
 2193              		.loc 1 805 0
 2194 0c3e 0123     		movs	r3, #1
ARM GAS  /tmp/ccRrg1qB.s 			page 40


 2195              	.L139:
 2196              		.loc 1 806 0
 2197 0c40 1846     		mov	r0, r3
 2198 0c42 05B0     		add	sp, sp, #20
 2199              		@ sp needed
 2200 0c44 5DF804FB 		ldr	pc, [sp], #4
 2201              		.cfi_endproc
 2202              	.LFE301:
 2203              		.size	LSM303AGR_ACC_W_hpf_aoi_en_int1, .-LSM303AGR_ACC_W_hpf_aoi_en_int1
 2204              		.align	2
 2205 0c48 AFF30080 		.p2align 4,,15
 2205      AFF30080 
 2206              		.global	LSM303AGR_ACC_R_hpf_aoi_en_int1
 2207              		.thumb
 2208              		.thumb_func
 2209              		.type	LSM303AGR_ACC_R_hpf_aoi_en_int1, %function
 2210              	LSM303AGR_ACC_R_hpf_aoi_en_int1:
 2211              	.LFB302:
 2212              		.loc 1 816 0
 2213              		.cfi_startproc
 2214              		@ args = 0, pretend = 0, frame = 8
 2215              		@ frame_needed = 0, uses_anonymous_args = 0
 2216 0c50 00B5     		push	{lr}
 2217              		.cfi_def_cfa_offset 4
 2218              		.cfi_offset 14, -4
 2219 0c52 83B0     		sub	sp, sp, #12
 2220              		.cfi_def_cfa_offset 16
 2221 0c54 0190     		str	r0, [sp, #4]
 2222 0c56 0091     		str	r1, [sp]
 2223              		.loc 1 817 0
 2224 0c58 0198     		ldr	r0, [sp, #4]
 2225 0c5a 2121     		movs	r1, #33
 2226 0c5c 009A     		ldr	r2, [sp]
 2227 0c5e 0123     		movs	r3, #1
 2228 0c60 FFF7FEFF 		bl	LSM303AGR_ACC_ReadReg
 2229 0c64 0346     		mov	r3, r0
 2230 0c66 002B     		cmp	r3, #0
 2231 0c68 01D1     		bne	.L141
 2232              		.loc 1 818 0
 2233 0c6a 0023     		movs	r3, #0
 2234 0c6c 07E0     		b	.L142
 2235              	.L141:
 2236              		.loc 1 820 0
 2237 0c6e 009B     		ldr	r3, [sp]
 2238 0c70 1B78     		ldrb	r3, [r3]	@ zero_extendqisi2
 2239 0c72 03F00103 		and	r3, r3, #1
 2240 0c76 DAB2     		uxtb	r2, r3
 2241 0c78 009B     		ldr	r3, [sp]
 2242 0c7a 1A70     		strb	r2, [r3]
 2243              		.loc 1 822 0
 2244 0c7c 0123     		movs	r3, #1
 2245              	.L142:
 2246              		.loc 1 823 0
 2247 0c7e 1846     		mov	r0, r3
 2248 0c80 03B0     		add	sp, sp, #12
 2249              		@ sp needed
 2250 0c82 5DF804FB 		ldr	pc, [sp], #4
ARM GAS  /tmp/ccRrg1qB.s 			page 41


 2251              		.cfi_endproc
 2252              	.LFE302:
 2253              		.size	LSM303AGR_ACC_R_hpf_aoi_en_int1, .-LSM303AGR_ACC_R_hpf_aoi_en_int1
 2254 0c86 00BF     		.align	2
 2255 0c88 AFF30080 		.p2align 4,,15
 2255      AFF30080 
 2256              		.global	LSM303AGR_ACC_W_hpf_aoi_en_int2
 2257              		.thumb
 2258              		.thumb_func
 2259              		.type	LSM303AGR_ACC_W_hpf_aoi_en_int2, %function
 2260              	LSM303AGR_ACC_W_hpf_aoi_en_int2:
 2261              	.LFB303:
 2262              		.loc 1 833 0
 2263              		.cfi_startproc
 2264              		@ args = 0, pretend = 0, frame = 16
 2265              		@ frame_needed = 0, uses_anonymous_args = 0
 2266 0c90 00B5     		push	{lr}
 2267              		.cfi_def_cfa_offset 4
 2268              		.cfi_offset 14, -4
 2269 0c92 85B0     		sub	sp, sp, #20
 2270              		.cfi_def_cfa_offset 24
 2271 0c94 0190     		str	r0, [sp, #4]
 2272 0c96 0B46     		mov	r3, r1
 2273 0c98 8DF80330 		strb	r3, [sp, #3]
 2274              		.loc 1 836 0
 2275 0c9c 0DF10F03 		add	r3, sp, #15
 2276 0ca0 0198     		ldr	r0, [sp, #4]
 2277 0ca2 2121     		movs	r1, #33
 2278 0ca4 1A46     		mov	r2, r3
 2279 0ca6 0123     		movs	r3, #1
 2280 0ca8 FFF7FEFF 		bl	LSM303AGR_ACC_ReadReg
 2281 0cac 0346     		mov	r3, r0
 2282 0cae 002B     		cmp	r3, #0
 2283 0cb0 01D1     		bne	.L144
 2284              		.loc 1 837 0
 2285 0cb2 0023     		movs	r3, #0
 2286 0cb4 1CE0     		b	.L147
 2287              	.L144:
 2288              		.loc 1 839 0
 2289 0cb6 9DF80F30 		ldrb	r3, [sp, #15]	@ zero_extendqisi2
 2290 0cba 23F00203 		bic	r3, r3, #2
 2291 0cbe DBB2     		uxtb	r3, r3
 2292 0cc0 8DF80F30 		strb	r3, [sp, #15]
 2293              		.loc 1 840 0
 2294 0cc4 9DF80F20 		ldrb	r2, [sp, #15]	@ zero_extendqisi2
 2295 0cc8 9DF80330 		ldrb	r3, [sp, #3]
 2296 0ccc 1343     		orrs	r3, r3, r2
 2297 0cce DBB2     		uxtb	r3, r3
 2298 0cd0 8DF80F30 		strb	r3, [sp, #15]
 2299              		.loc 1 842 0
 2300 0cd4 0DF10F03 		add	r3, sp, #15
 2301 0cd8 0198     		ldr	r0, [sp, #4]
 2302 0cda 2121     		movs	r1, #33
 2303 0cdc 1A46     		mov	r2, r3
 2304 0cde 0123     		movs	r3, #1
 2305 0ce0 FFF7FEFF 		bl	LSM303AGR_ACC_WriteReg
 2306 0ce4 0346     		mov	r3, r0
ARM GAS  /tmp/ccRrg1qB.s 			page 42


 2307 0ce6 002B     		cmp	r3, #0
 2308 0ce8 01D1     		bne	.L146
 2309              		.loc 1 843 0
 2310 0cea 0023     		movs	r3, #0
 2311 0cec 00E0     		b	.L147
 2312              	.L146:
 2313              		.loc 1 845 0
 2314 0cee 0123     		movs	r3, #1
 2315              	.L147:
 2316              		.loc 1 846 0
 2317 0cf0 1846     		mov	r0, r3
 2318 0cf2 05B0     		add	sp, sp, #20
 2319              		@ sp needed
 2320 0cf4 5DF804FB 		ldr	pc, [sp], #4
 2321              		.cfi_endproc
 2322              	.LFE303:
 2323              		.size	LSM303AGR_ACC_W_hpf_aoi_en_int2, .-LSM303AGR_ACC_W_hpf_aoi_en_int2
 2324              		.align	2
 2325 0cf8 AFF30080 		.p2align 4,,15
 2325      AFF30080 
 2326              		.global	LSM303AGR_ACC_R_hpf_aoi_en_int2
 2327              		.thumb
 2328              		.thumb_func
 2329              		.type	LSM303AGR_ACC_R_hpf_aoi_en_int2, %function
 2330              	LSM303AGR_ACC_R_hpf_aoi_en_int2:
 2331              	.LFB304:
 2332              		.loc 1 856 0
 2333              		.cfi_startproc
 2334              		@ args = 0, pretend = 0, frame = 8
 2335              		@ frame_needed = 0, uses_anonymous_args = 0
 2336 0d00 00B5     		push	{lr}
 2337              		.cfi_def_cfa_offset 4
 2338              		.cfi_offset 14, -4
 2339 0d02 83B0     		sub	sp, sp, #12
 2340              		.cfi_def_cfa_offset 16
 2341 0d04 0190     		str	r0, [sp, #4]
 2342 0d06 0091     		str	r1, [sp]
 2343              		.loc 1 857 0
 2344 0d08 0198     		ldr	r0, [sp, #4]
 2345 0d0a 2121     		movs	r1, #33
 2346 0d0c 009A     		ldr	r2, [sp]
 2347 0d0e 0123     		movs	r3, #1
 2348 0d10 FFF7FEFF 		bl	LSM303AGR_ACC_ReadReg
 2349 0d14 0346     		mov	r3, r0
 2350 0d16 002B     		cmp	r3, #0
 2351 0d18 01D1     		bne	.L149
 2352              		.loc 1 858 0
 2353 0d1a 0023     		movs	r3, #0
 2354 0d1c 07E0     		b	.L150
 2355              	.L149:
 2356              		.loc 1 860 0
 2357 0d1e 009B     		ldr	r3, [sp]
 2358 0d20 1B78     		ldrb	r3, [r3]	@ zero_extendqisi2
 2359 0d22 03F00203 		and	r3, r3, #2
 2360 0d26 DAB2     		uxtb	r2, r3
 2361 0d28 009B     		ldr	r3, [sp]
 2362 0d2a 1A70     		strb	r2, [r3]
ARM GAS  /tmp/ccRrg1qB.s 			page 43


 2363              		.loc 1 862 0
 2364 0d2c 0123     		movs	r3, #1
 2365              	.L150:
 2366              		.loc 1 863 0
 2367 0d2e 1846     		mov	r0, r3
 2368 0d30 03B0     		add	sp, sp, #12
 2369              		@ sp needed
 2370 0d32 5DF804FB 		ldr	pc, [sp], #4
 2371              		.cfi_endproc
 2372              	.LFE304:
 2373              		.size	LSM303AGR_ACC_R_hpf_aoi_en_int2, .-LSM303AGR_ACC_R_hpf_aoi_en_int2
 2374 0d36 00BF     		.align	2
 2375 0d38 AFF30080 		.p2align 4,,15
 2375      AFF30080 
 2376              		.global	LSM303AGR_ACC_W_hpf_click_en
 2377              		.thumb
 2378              		.thumb_func
 2379              		.type	LSM303AGR_ACC_W_hpf_click_en, %function
 2380              	LSM303AGR_ACC_W_hpf_click_en:
 2381              	.LFB305:
 2382              		.loc 1 873 0
 2383              		.cfi_startproc
 2384              		@ args = 0, pretend = 0, frame = 16
 2385              		@ frame_needed = 0, uses_anonymous_args = 0
 2386 0d40 00B5     		push	{lr}
 2387              		.cfi_def_cfa_offset 4
 2388              		.cfi_offset 14, -4
 2389 0d42 85B0     		sub	sp, sp, #20
 2390              		.cfi_def_cfa_offset 24
 2391 0d44 0190     		str	r0, [sp, #4]
 2392 0d46 0B46     		mov	r3, r1
 2393 0d48 8DF80330 		strb	r3, [sp, #3]
 2394              		.loc 1 876 0
 2395 0d4c 0DF10F03 		add	r3, sp, #15
 2396 0d50 0198     		ldr	r0, [sp, #4]
 2397 0d52 2121     		movs	r1, #33
 2398 0d54 1A46     		mov	r2, r3
 2399 0d56 0123     		movs	r3, #1
 2400 0d58 FFF7FEFF 		bl	LSM303AGR_ACC_ReadReg
 2401 0d5c 0346     		mov	r3, r0
 2402 0d5e 002B     		cmp	r3, #0
 2403 0d60 01D1     		bne	.L152
 2404              		.loc 1 877 0
 2405 0d62 0023     		movs	r3, #0
 2406 0d64 1CE0     		b	.L155
 2407              	.L152:
 2408              		.loc 1 879 0
 2409 0d66 9DF80F30 		ldrb	r3, [sp, #15]	@ zero_extendqisi2
 2410 0d6a 23F00403 		bic	r3, r3, #4
 2411 0d6e DBB2     		uxtb	r3, r3
 2412 0d70 8DF80F30 		strb	r3, [sp, #15]
 2413              		.loc 1 880 0
 2414 0d74 9DF80F20 		ldrb	r2, [sp, #15]	@ zero_extendqisi2
 2415 0d78 9DF80330 		ldrb	r3, [sp, #3]
 2416 0d7c 1343     		orrs	r3, r3, r2
 2417 0d7e DBB2     		uxtb	r3, r3
 2418 0d80 8DF80F30 		strb	r3, [sp, #15]
ARM GAS  /tmp/ccRrg1qB.s 			page 44


 2419              		.loc 1 882 0
 2420 0d84 0DF10F03 		add	r3, sp, #15
 2421 0d88 0198     		ldr	r0, [sp, #4]
 2422 0d8a 2121     		movs	r1, #33
 2423 0d8c 1A46     		mov	r2, r3
 2424 0d8e 0123     		movs	r3, #1
 2425 0d90 FFF7FEFF 		bl	LSM303AGR_ACC_WriteReg
 2426 0d94 0346     		mov	r3, r0
 2427 0d96 002B     		cmp	r3, #0
 2428 0d98 01D1     		bne	.L154
 2429              		.loc 1 883 0
 2430 0d9a 0023     		movs	r3, #0
 2431 0d9c 00E0     		b	.L155
 2432              	.L154:
 2433              		.loc 1 885 0
 2434 0d9e 0123     		movs	r3, #1
 2435              	.L155:
 2436              		.loc 1 886 0
 2437 0da0 1846     		mov	r0, r3
 2438 0da2 05B0     		add	sp, sp, #20
 2439              		@ sp needed
 2440 0da4 5DF804FB 		ldr	pc, [sp], #4
 2441              		.cfi_endproc
 2442              	.LFE305:
 2443              		.size	LSM303AGR_ACC_W_hpf_click_en, .-LSM303AGR_ACC_W_hpf_click_en
 2444              		.align	2
 2445 0da8 AFF30080 		.p2align 4,,15
 2445      AFF30080 
 2446              		.global	LSM303AGR_ACC_R_hpf_click_en
 2447              		.thumb
 2448              		.thumb_func
 2449              		.type	LSM303AGR_ACC_R_hpf_click_en, %function
 2450              	LSM303AGR_ACC_R_hpf_click_en:
 2451              	.LFB306:
 2452              		.loc 1 896 0
 2453              		.cfi_startproc
 2454              		@ args = 0, pretend = 0, frame = 8
 2455              		@ frame_needed = 0, uses_anonymous_args = 0
 2456 0db0 00B5     		push	{lr}
 2457              		.cfi_def_cfa_offset 4
 2458              		.cfi_offset 14, -4
 2459 0db2 83B0     		sub	sp, sp, #12
 2460              		.cfi_def_cfa_offset 16
 2461 0db4 0190     		str	r0, [sp, #4]
 2462 0db6 0091     		str	r1, [sp]
 2463              		.loc 1 897 0
 2464 0db8 0198     		ldr	r0, [sp, #4]
 2465 0dba 2121     		movs	r1, #33
 2466 0dbc 009A     		ldr	r2, [sp]
 2467 0dbe 0123     		movs	r3, #1
 2468 0dc0 FFF7FEFF 		bl	LSM303AGR_ACC_ReadReg
 2469 0dc4 0346     		mov	r3, r0
 2470 0dc6 002B     		cmp	r3, #0
 2471 0dc8 01D1     		bne	.L157
 2472              		.loc 1 898 0
 2473 0dca 0023     		movs	r3, #0
 2474 0dcc 07E0     		b	.L158
ARM GAS  /tmp/ccRrg1qB.s 			page 45


 2475              	.L157:
 2476              		.loc 1 900 0
 2477 0dce 009B     		ldr	r3, [sp]
 2478 0dd0 1B78     		ldrb	r3, [r3]	@ zero_extendqisi2
 2479 0dd2 03F00403 		and	r3, r3, #4
 2480 0dd6 DAB2     		uxtb	r2, r3
 2481 0dd8 009B     		ldr	r3, [sp]
 2482 0dda 1A70     		strb	r2, [r3]
 2483              		.loc 1 902 0
 2484 0ddc 0123     		movs	r3, #1
 2485              	.L158:
 2486              		.loc 1 903 0
 2487 0dde 1846     		mov	r0, r3
 2488 0de0 03B0     		add	sp, sp, #12
 2489              		@ sp needed
 2490 0de2 5DF804FB 		ldr	pc, [sp], #4
 2491              		.cfi_endproc
 2492              	.LFE306:
 2493              		.size	LSM303AGR_ACC_R_hpf_click_en, .-LSM303AGR_ACC_R_hpf_click_en
 2494 0de6 00BF     		.align	2
 2495 0de8 AFF30080 		.p2align 4,,15
 2495      AFF30080 
 2496              		.global	LSM303AGR_ACC_W_Data_Filter
 2497              		.thumb
 2498              		.thumb_func
 2499              		.type	LSM303AGR_ACC_W_Data_Filter, %function
 2500              	LSM303AGR_ACC_W_Data_Filter:
 2501              	.LFB307:
 2502              		.loc 1 913 0
 2503              		.cfi_startproc
 2504              		@ args = 0, pretend = 0, frame = 16
 2505              		@ frame_needed = 0, uses_anonymous_args = 0
 2506 0df0 00B5     		push	{lr}
 2507              		.cfi_def_cfa_offset 4
 2508              		.cfi_offset 14, -4
 2509 0df2 85B0     		sub	sp, sp, #20
 2510              		.cfi_def_cfa_offset 24
 2511 0df4 0190     		str	r0, [sp, #4]
 2512 0df6 0B46     		mov	r3, r1
 2513 0df8 8DF80330 		strb	r3, [sp, #3]
 2514              		.loc 1 916 0
 2515 0dfc 0DF10F03 		add	r3, sp, #15
 2516 0e00 0198     		ldr	r0, [sp, #4]
 2517 0e02 2121     		movs	r1, #33
 2518 0e04 1A46     		mov	r2, r3
 2519 0e06 0123     		movs	r3, #1
 2520 0e08 FFF7FEFF 		bl	LSM303AGR_ACC_ReadReg
 2521 0e0c 0346     		mov	r3, r0
 2522 0e0e 002B     		cmp	r3, #0
 2523 0e10 01D1     		bne	.L160
 2524              		.loc 1 917 0
 2525 0e12 0023     		movs	r3, #0
 2526 0e14 1CE0     		b	.L163
 2527              	.L160:
 2528              		.loc 1 919 0
 2529 0e16 9DF80F30 		ldrb	r3, [sp, #15]	@ zero_extendqisi2
 2530 0e1a 23F00803 		bic	r3, r3, #8
ARM GAS  /tmp/ccRrg1qB.s 			page 46


 2531 0e1e DBB2     		uxtb	r3, r3
 2532 0e20 8DF80F30 		strb	r3, [sp, #15]
 2533              		.loc 1 920 0
 2534 0e24 9DF80F20 		ldrb	r2, [sp, #15]	@ zero_extendqisi2
 2535 0e28 9DF80330 		ldrb	r3, [sp, #3]
 2536 0e2c 1343     		orrs	r3, r3, r2
 2537 0e2e DBB2     		uxtb	r3, r3
 2538 0e30 8DF80F30 		strb	r3, [sp, #15]
 2539              		.loc 1 922 0
 2540 0e34 0DF10F03 		add	r3, sp, #15
 2541 0e38 0198     		ldr	r0, [sp, #4]
 2542 0e3a 2121     		movs	r1, #33
 2543 0e3c 1A46     		mov	r2, r3
 2544 0e3e 0123     		movs	r3, #1
 2545 0e40 FFF7FEFF 		bl	LSM303AGR_ACC_WriteReg
 2546 0e44 0346     		mov	r3, r0
 2547 0e46 002B     		cmp	r3, #0
 2548 0e48 01D1     		bne	.L162
 2549              		.loc 1 923 0
 2550 0e4a 0023     		movs	r3, #0
 2551 0e4c 00E0     		b	.L163
 2552              	.L162:
 2553              		.loc 1 925 0
 2554 0e4e 0123     		movs	r3, #1
 2555              	.L163:
 2556              		.loc 1 926 0
 2557 0e50 1846     		mov	r0, r3
 2558 0e52 05B0     		add	sp, sp, #20
 2559              		@ sp needed
 2560 0e54 5DF804FB 		ldr	pc, [sp], #4
 2561              		.cfi_endproc
 2562              	.LFE307:
 2563              		.size	LSM303AGR_ACC_W_Data_Filter, .-LSM303AGR_ACC_W_Data_Filter
 2564              		.align	2
 2565 0e58 AFF30080 		.p2align 4,,15
 2565      AFF30080 
 2566              		.global	LSM303AGR_ACC_R_Data_Filter
 2567              		.thumb
 2568              		.thumb_func
 2569              		.type	LSM303AGR_ACC_R_Data_Filter, %function
 2570              	LSM303AGR_ACC_R_Data_Filter:
 2571              	.LFB308:
 2572              		.loc 1 936 0
 2573              		.cfi_startproc
 2574              		@ args = 0, pretend = 0, frame = 8
 2575              		@ frame_needed = 0, uses_anonymous_args = 0
 2576 0e60 00B5     		push	{lr}
 2577              		.cfi_def_cfa_offset 4
 2578              		.cfi_offset 14, -4
 2579 0e62 83B0     		sub	sp, sp, #12
 2580              		.cfi_def_cfa_offset 16
 2581 0e64 0190     		str	r0, [sp, #4]
 2582 0e66 0091     		str	r1, [sp]
 2583              		.loc 1 937 0
 2584 0e68 0198     		ldr	r0, [sp, #4]
 2585 0e6a 2121     		movs	r1, #33
 2586 0e6c 009A     		ldr	r2, [sp]
ARM GAS  /tmp/ccRrg1qB.s 			page 47


 2587 0e6e 0123     		movs	r3, #1
 2588 0e70 FFF7FEFF 		bl	LSM303AGR_ACC_ReadReg
 2589 0e74 0346     		mov	r3, r0
 2590 0e76 002B     		cmp	r3, #0
 2591 0e78 01D1     		bne	.L165
 2592              		.loc 1 938 0
 2593 0e7a 0023     		movs	r3, #0
 2594 0e7c 07E0     		b	.L166
 2595              	.L165:
 2596              		.loc 1 940 0
 2597 0e7e 009B     		ldr	r3, [sp]
 2598 0e80 1B78     		ldrb	r3, [r3]	@ zero_extendqisi2
 2599 0e82 03F00803 		and	r3, r3, #8
 2600 0e86 DAB2     		uxtb	r2, r3
 2601 0e88 009B     		ldr	r3, [sp]
 2602 0e8a 1A70     		strb	r2, [r3]
 2603              		.loc 1 942 0
 2604 0e8c 0123     		movs	r3, #1
 2605              	.L166:
 2606              		.loc 1 943 0
 2607 0e8e 1846     		mov	r0, r3
 2608 0e90 03B0     		add	sp, sp, #12
 2609              		@ sp needed
 2610 0e92 5DF804FB 		ldr	pc, [sp], #4
 2611              		.cfi_endproc
 2612              	.LFE308:
 2613              		.size	LSM303AGR_ACC_R_Data_Filter, .-LSM303AGR_ACC_R_Data_Filter
 2614 0e96 00BF     		.align	2
 2615 0e98 AFF30080 		.p2align 4,,15
 2615      AFF30080 
 2616              		.global	LSM303AGR_ACC_W_hpf_cutoff_freq
 2617              		.thumb
 2618              		.thumb_func
 2619              		.type	LSM303AGR_ACC_W_hpf_cutoff_freq, %function
 2620              	LSM303AGR_ACC_W_hpf_cutoff_freq:
 2621              	.LFB309:
 2622              		.loc 1 953 0
 2623              		.cfi_startproc
 2624              		@ args = 0, pretend = 0, frame = 16
 2625              		@ frame_needed = 0, uses_anonymous_args = 0
 2626 0ea0 00B5     		push	{lr}
 2627              		.cfi_def_cfa_offset 4
 2628              		.cfi_offset 14, -4
 2629 0ea2 85B0     		sub	sp, sp, #20
 2630              		.cfi_def_cfa_offset 24
 2631 0ea4 0190     		str	r0, [sp, #4]
 2632 0ea6 0B46     		mov	r3, r1
 2633 0ea8 8DF80330 		strb	r3, [sp, #3]
 2634              		.loc 1 956 0
 2635 0eac 0DF10F03 		add	r3, sp, #15
 2636 0eb0 0198     		ldr	r0, [sp, #4]
 2637 0eb2 2121     		movs	r1, #33
 2638 0eb4 1A46     		mov	r2, r3
 2639 0eb6 0123     		movs	r3, #1
 2640 0eb8 FFF7FEFF 		bl	LSM303AGR_ACC_ReadReg
 2641 0ebc 0346     		mov	r3, r0
 2642 0ebe 002B     		cmp	r3, #0
ARM GAS  /tmp/ccRrg1qB.s 			page 48


 2643 0ec0 01D1     		bne	.L168
 2644              		.loc 1 957 0
 2645 0ec2 0023     		movs	r3, #0
 2646 0ec4 1CE0     		b	.L171
 2647              	.L168:
 2648              		.loc 1 959 0
 2649 0ec6 9DF80F30 		ldrb	r3, [sp, #15]	@ zero_extendqisi2
 2650 0eca 23F03003 		bic	r3, r3, #48
 2651 0ece DBB2     		uxtb	r3, r3
 2652 0ed0 8DF80F30 		strb	r3, [sp, #15]
 2653              		.loc 1 960 0
 2654 0ed4 9DF80F20 		ldrb	r2, [sp, #15]	@ zero_extendqisi2
 2655 0ed8 9DF80330 		ldrb	r3, [sp, #3]
 2656 0edc 1343     		orrs	r3, r3, r2
 2657 0ede DBB2     		uxtb	r3, r3
 2658 0ee0 8DF80F30 		strb	r3, [sp, #15]
 2659              		.loc 1 962 0
 2660 0ee4 0DF10F03 		add	r3, sp, #15
 2661 0ee8 0198     		ldr	r0, [sp, #4]
 2662 0eea 2121     		movs	r1, #33
 2663 0eec 1A46     		mov	r2, r3
 2664 0eee 0123     		movs	r3, #1
 2665 0ef0 FFF7FEFF 		bl	LSM303AGR_ACC_WriteReg
 2666 0ef4 0346     		mov	r3, r0
 2667 0ef6 002B     		cmp	r3, #0
 2668 0ef8 01D1     		bne	.L170
 2669              		.loc 1 963 0
 2670 0efa 0023     		movs	r3, #0
 2671 0efc 00E0     		b	.L171
 2672              	.L170:
 2673              		.loc 1 965 0
 2674 0efe 0123     		movs	r3, #1
 2675              	.L171:
 2676              		.loc 1 966 0
 2677 0f00 1846     		mov	r0, r3
 2678 0f02 05B0     		add	sp, sp, #20
 2679              		@ sp needed
 2680 0f04 5DF804FB 		ldr	pc, [sp], #4
 2681              		.cfi_endproc
 2682              	.LFE309:
 2683              		.size	LSM303AGR_ACC_W_hpf_cutoff_freq, .-LSM303AGR_ACC_W_hpf_cutoff_freq
 2684              		.align	2
 2685 0f08 AFF30080 		.p2align 4,,15
 2685      AFF30080 
 2686              		.global	LSM303AGR_ACC_R_hpf_cutoff_freq
 2687              		.thumb
 2688              		.thumb_func
 2689              		.type	LSM303AGR_ACC_R_hpf_cutoff_freq, %function
 2690              	LSM303AGR_ACC_R_hpf_cutoff_freq:
 2691              	.LFB310:
 2692              		.loc 1 976 0
 2693              		.cfi_startproc
 2694              		@ args = 0, pretend = 0, frame = 8
 2695              		@ frame_needed = 0, uses_anonymous_args = 0
 2696 0f10 00B5     		push	{lr}
 2697              		.cfi_def_cfa_offset 4
 2698              		.cfi_offset 14, -4
ARM GAS  /tmp/ccRrg1qB.s 			page 49


 2699 0f12 83B0     		sub	sp, sp, #12
 2700              		.cfi_def_cfa_offset 16
 2701 0f14 0190     		str	r0, [sp, #4]
 2702 0f16 0091     		str	r1, [sp]
 2703              		.loc 1 977 0
 2704 0f18 0198     		ldr	r0, [sp, #4]
 2705 0f1a 2121     		movs	r1, #33
 2706 0f1c 009A     		ldr	r2, [sp]
 2707 0f1e 0123     		movs	r3, #1
 2708 0f20 FFF7FEFF 		bl	LSM303AGR_ACC_ReadReg
 2709 0f24 0346     		mov	r3, r0
 2710 0f26 002B     		cmp	r3, #0
 2711 0f28 01D1     		bne	.L173
 2712              		.loc 1 978 0
 2713 0f2a 0023     		movs	r3, #0
 2714 0f2c 07E0     		b	.L174
 2715              	.L173:
 2716              		.loc 1 980 0
 2717 0f2e 009B     		ldr	r3, [sp]
 2718 0f30 1B78     		ldrb	r3, [r3]	@ zero_extendqisi2
 2719 0f32 03F03003 		and	r3, r3, #48
 2720 0f36 DAB2     		uxtb	r2, r3
 2721 0f38 009B     		ldr	r3, [sp]
 2722 0f3a 1A70     		strb	r2, [r3]
 2723              		.loc 1 982 0
 2724 0f3c 0123     		movs	r3, #1
 2725              	.L174:
 2726              		.loc 1 983 0
 2727 0f3e 1846     		mov	r0, r3
 2728 0f40 03B0     		add	sp, sp, #12
 2729              		@ sp needed
 2730 0f42 5DF804FB 		ldr	pc, [sp], #4
 2731              		.cfi_endproc
 2732              	.LFE310:
 2733              		.size	LSM303AGR_ACC_R_hpf_cutoff_freq, .-LSM303AGR_ACC_R_hpf_cutoff_freq
 2734 0f46 00BF     		.align	2
 2735 0f48 AFF30080 		.p2align 4,,15
 2735      AFF30080 
 2736              		.global	LSM303AGR_ACC_W_hpf_mode
 2737              		.thumb
 2738              		.thumb_func
 2739              		.type	LSM303AGR_ACC_W_hpf_mode, %function
 2740              	LSM303AGR_ACC_W_hpf_mode:
 2741              	.LFB311:
 2742              		.loc 1 993 0
 2743              		.cfi_startproc
 2744              		@ args = 0, pretend = 0, frame = 16
 2745              		@ frame_needed = 0, uses_anonymous_args = 0
 2746 0f50 00B5     		push	{lr}
 2747              		.cfi_def_cfa_offset 4
 2748              		.cfi_offset 14, -4
 2749 0f52 85B0     		sub	sp, sp, #20
 2750              		.cfi_def_cfa_offset 24
 2751 0f54 0190     		str	r0, [sp, #4]
 2752 0f56 0B46     		mov	r3, r1
 2753 0f58 8DF80330 		strb	r3, [sp, #3]
 2754              		.loc 1 996 0
ARM GAS  /tmp/ccRrg1qB.s 			page 50


 2755 0f5c 0DF10F03 		add	r3, sp, #15
 2756 0f60 0198     		ldr	r0, [sp, #4]
 2757 0f62 2121     		movs	r1, #33
 2758 0f64 1A46     		mov	r2, r3
 2759 0f66 0123     		movs	r3, #1
 2760 0f68 FFF7FEFF 		bl	LSM303AGR_ACC_ReadReg
 2761 0f6c 0346     		mov	r3, r0
 2762 0f6e 002B     		cmp	r3, #0
 2763 0f70 01D1     		bne	.L176
 2764              		.loc 1 997 0
 2765 0f72 0023     		movs	r3, #0
 2766 0f74 1CE0     		b	.L179
 2767              	.L176:
 2768              		.loc 1 999 0
 2769 0f76 9DF80F30 		ldrb	r3, [sp, #15]	@ zero_extendqisi2
 2770 0f7a 03F03F03 		and	r3, r3, #63
 2771 0f7e DBB2     		uxtb	r3, r3
 2772 0f80 8DF80F30 		strb	r3, [sp, #15]
 2773              		.loc 1 1000 0
 2774 0f84 9DF80F20 		ldrb	r2, [sp, #15]	@ zero_extendqisi2
 2775 0f88 9DF80330 		ldrb	r3, [sp, #3]
 2776 0f8c 1343     		orrs	r3, r3, r2
 2777 0f8e DBB2     		uxtb	r3, r3
 2778 0f90 8DF80F30 		strb	r3, [sp, #15]
 2779              		.loc 1 1002 0
 2780 0f94 0DF10F03 		add	r3, sp, #15
 2781 0f98 0198     		ldr	r0, [sp, #4]
 2782 0f9a 2121     		movs	r1, #33
 2783 0f9c 1A46     		mov	r2, r3
 2784 0f9e 0123     		movs	r3, #1
 2785 0fa0 FFF7FEFF 		bl	LSM303AGR_ACC_WriteReg
 2786 0fa4 0346     		mov	r3, r0
 2787 0fa6 002B     		cmp	r3, #0
 2788 0fa8 01D1     		bne	.L178
 2789              		.loc 1 1003 0
 2790 0faa 0023     		movs	r3, #0
 2791 0fac 00E0     		b	.L179
 2792              	.L178:
 2793              		.loc 1 1005 0
 2794 0fae 0123     		movs	r3, #1
 2795              	.L179:
 2796              		.loc 1 1006 0
 2797 0fb0 1846     		mov	r0, r3
 2798 0fb2 05B0     		add	sp, sp, #20
 2799              		@ sp needed
 2800 0fb4 5DF804FB 		ldr	pc, [sp], #4
 2801              		.cfi_endproc
 2802              	.LFE311:
 2803              		.size	LSM303AGR_ACC_W_hpf_mode, .-LSM303AGR_ACC_W_hpf_mode
 2804              		.align	2
 2805 0fb8 AFF30080 		.p2align 4,,15
 2805      AFF30080 
 2806              		.global	LSM303AGR_ACC_R_hpf_mode
 2807              		.thumb
 2808              		.thumb_func
 2809              		.type	LSM303AGR_ACC_R_hpf_mode, %function
 2810              	LSM303AGR_ACC_R_hpf_mode:
ARM GAS  /tmp/ccRrg1qB.s 			page 51


 2811              	.LFB312:
 2812              		.loc 1 1016 0
 2813              		.cfi_startproc
 2814              		@ args = 0, pretend = 0, frame = 8
 2815              		@ frame_needed = 0, uses_anonymous_args = 0
 2816 0fc0 00B5     		push	{lr}
 2817              		.cfi_def_cfa_offset 4
 2818              		.cfi_offset 14, -4
 2819 0fc2 83B0     		sub	sp, sp, #12
 2820              		.cfi_def_cfa_offset 16
 2821 0fc4 0190     		str	r0, [sp, #4]
 2822 0fc6 0091     		str	r1, [sp]
 2823              		.loc 1 1017 0
 2824 0fc8 0198     		ldr	r0, [sp, #4]
 2825 0fca 2121     		movs	r1, #33
 2826 0fcc 009A     		ldr	r2, [sp]
 2827 0fce 0123     		movs	r3, #1
 2828 0fd0 FFF7FEFF 		bl	LSM303AGR_ACC_ReadReg
 2829 0fd4 0346     		mov	r3, r0
 2830 0fd6 002B     		cmp	r3, #0
 2831 0fd8 01D1     		bne	.L181
 2832              		.loc 1 1018 0
 2833 0fda 0023     		movs	r3, #0
 2834 0fdc 07E0     		b	.L182
 2835              	.L181:
 2836              		.loc 1 1020 0
 2837 0fde 009B     		ldr	r3, [sp]
 2838 0fe0 1B78     		ldrb	r3, [r3]	@ zero_extendqisi2
 2839 0fe2 23F03F03 		bic	r3, r3, #63
 2840 0fe6 DAB2     		uxtb	r2, r3
 2841 0fe8 009B     		ldr	r3, [sp]
 2842 0fea 1A70     		strb	r2, [r3]
 2843              		.loc 1 1022 0
 2844 0fec 0123     		movs	r3, #1
 2845              	.L182:
 2846              		.loc 1 1023 0
 2847 0fee 1846     		mov	r0, r3
 2848 0ff0 03B0     		add	sp, sp, #12
 2849              		@ sp needed
 2850 0ff2 5DF804FB 		ldr	pc, [sp], #4
 2851              		.cfi_endproc
 2852              	.LFE312:
 2853              		.size	LSM303AGR_ACC_R_hpf_mode, .-LSM303AGR_ACC_R_hpf_mode
 2854 0ff6 00BF     		.align	2
 2855 0ff8 AFF30080 		.p2align 4,,15
 2855      AFF30080 
 2856              		.global	LSM303AGR_ACC_W_FIFO_Overrun_on_INT1
 2857              		.thumb
 2858              		.thumb_func
 2859              		.type	LSM303AGR_ACC_W_FIFO_Overrun_on_INT1, %function
 2860              	LSM303AGR_ACC_W_FIFO_Overrun_on_INT1:
 2861              	.LFB313:
 2862              		.loc 1 1033 0
 2863              		.cfi_startproc
 2864              		@ args = 0, pretend = 0, frame = 16
 2865              		@ frame_needed = 0, uses_anonymous_args = 0
 2866 1000 00B5     		push	{lr}
ARM GAS  /tmp/ccRrg1qB.s 			page 52


 2867              		.cfi_def_cfa_offset 4
 2868              		.cfi_offset 14, -4
 2869 1002 85B0     		sub	sp, sp, #20
 2870              		.cfi_def_cfa_offset 24
 2871 1004 0190     		str	r0, [sp, #4]
 2872 1006 0B46     		mov	r3, r1
 2873 1008 8DF80330 		strb	r3, [sp, #3]
 2874              		.loc 1 1036 0
 2875 100c 0DF10F03 		add	r3, sp, #15
 2876 1010 0198     		ldr	r0, [sp, #4]
 2877 1012 2221     		movs	r1, #34
 2878 1014 1A46     		mov	r2, r3
 2879 1016 0123     		movs	r3, #1
 2880 1018 FFF7FEFF 		bl	LSM303AGR_ACC_ReadReg
 2881 101c 0346     		mov	r3, r0
 2882 101e 002B     		cmp	r3, #0
 2883 1020 01D1     		bne	.L184
 2884              		.loc 1 1037 0
 2885 1022 0023     		movs	r3, #0
 2886 1024 1CE0     		b	.L187
 2887              	.L184:
 2888              		.loc 1 1039 0
 2889 1026 9DF80F30 		ldrb	r3, [sp, #15]	@ zero_extendqisi2
 2890 102a 23F00203 		bic	r3, r3, #2
 2891 102e DBB2     		uxtb	r3, r3
 2892 1030 8DF80F30 		strb	r3, [sp, #15]
 2893              		.loc 1 1040 0
 2894 1034 9DF80F20 		ldrb	r2, [sp, #15]	@ zero_extendqisi2
 2895 1038 9DF80330 		ldrb	r3, [sp, #3]
 2896 103c 1343     		orrs	r3, r3, r2
 2897 103e DBB2     		uxtb	r3, r3
 2898 1040 8DF80F30 		strb	r3, [sp, #15]
 2899              		.loc 1 1042 0
 2900 1044 0DF10F03 		add	r3, sp, #15
 2901 1048 0198     		ldr	r0, [sp, #4]
 2902 104a 2221     		movs	r1, #34
 2903 104c 1A46     		mov	r2, r3
 2904 104e 0123     		movs	r3, #1
 2905 1050 FFF7FEFF 		bl	LSM303AGR_ACC_WriteReg
 2906 1054 0346     		mov	r3, r0
 2907 1056 002B     		cmp	r3, #0
 2908 1058 01D1     		bne	.L186
 2909              		.loc 1 1043 0
 2910 105a 0023     		movs	r3, #0
 2911 105c 00E0     		b	.L187
 2912              	.L186:
 2913              		.loc 1 1045 0
 2914 105e 0123     		movs	r3, #1
 2915              	.L187:
 2916              		.loc 1 1046 0
 2917 1060 1846     		mov	r0, r3
 2918 1062 05B0     		add	sp, sp, #20
 2919              		@ sp needed
 2920 1064 5DF804FB 		ldr	pc, [sp], #4
 2921              		.cfi_endproc
 2922              	.LFE313:
 2923              		.size	LSM303AGR_ACC_W_FIFO_Overrun_on_INT1, .-LSM303AGR_ACC_W_FIFO_Overrun_on_INT1
ARM GAS  /tmp/ccRrg1qB.s 			page 53


 2924              		.align	2
 2925 1068 AFF30080 		.p2align 4,,15
 2925      AFF30080 
 2926              		.global	LSM303AGR_ACC_R_FIFO_Overrun_on_INT1
 2927              		.thumb
 2928              		.thumb_func
 2929              		.type	LSM303AGR_ACC_R_FIFO_Overrun_on_INT1, %function
 2930              	LSM303AGR_ACC_R_FIFO_Overrun_on_INT1:
 2931              	.LFB314:
 2932              		.loc 1 1056 0
 2933              		.cfi_startproc
 2934              		@ args = 0, pretend = 0, frame = 8
 2935              		@ frame_needed = 0, uses_anonymous_args = 0
 2936 1070 00B5     		push	{lr}
 2937              		.cfi_def_cfa_offset 4
 2938              		.cfi_offset 14, -4
 2939 1072 83B0     		sub	sp, sp, #12
 2940              		.cfi_def_cfa_offset 16
 2941 1074 0190     		str	r0, [sp, #4]
 2942 1076 0091     		str	r1, [sp]
 2943              		.loc 1 1057 0
 2944 1078 0198     		ldr	r0, [sp, #4]
 2945 107a 2221     		movs	r1, #34
 2946 107c 009A     		ldr	r2, [sp]
 2947 107e 0123     		movs	r3, #1
 2948 1080 FFF7FEFF 		bl	LSM303AGR_ACC_ReadReg
 2949 1084 0346     		mov	r3, r0
 2950 1086 002B     		cmp	r3, #0
 2951 1088 01D1     		bne	.L189
 2952              		.loc 1 1058 0
 2953 108a 0023     		movs	r3, #0
 2954 108c 07E0     		b	.L190
 2955              	.L189:
 2956              		.loc 1 1060 0
 2957 108e 009B     		ldr	r3, [sp]
 2958 1090 1B78     		ldrb	r3, [r3]	@ zero_extendqisi2
 2959 1092 03F00203 		and	r3, r3, #2
 2960 1096 DAB2     		uxtb	r2, r3
 2961 1098 009B     		ldr	r3, [sp]
 2962 109a 1A70     		strb	r2, [r3]
 2963              		.loc 1 1062 0
 2964 109c 0123     		movs	r3, #1
 2965              	.L190:
 2966              		.loc 1 1063 0
 2967 109e 1846     		mov	r0, r3
 2968 10a0 03B0     		add	sp, sp, #12
 2969              		@ sp needed
 2970 10a2 5DF804FB 		ldr	pc, [sp], #4
 2971              		.cfi_endproc
 2972              	.LFE314:
 2973              		.size	LSM303AGR_ACC_R_FIFO_Overrun_on_INT1, .-LSM303AGR_ACC_R_FIFO_Overrun_on_INT1
 2974 10a6 00BF     		.align	2
 2975 10a8 AFF30080 		.p2align 4,,15
 2975      AFF30080 
 2976              		.global	LSM303AGR_ACC_W_FIFO_Watermark_on_INT1
 2977              		.thumb
 2978              		.thumb_func
ARM GAS  /tmp/ccRrg1qB.s 			page 54


 2979              		.type	LSM303AGR_ACC_W_FIFO_Watermark_on_INT1, %function
 2980              	LSM303AGR_ACC_W_FIFO_Watermark_on_INT1:
 2981              	.LFB315:
 2982              		.loc 1 1073 0
 2983              		.cfi_startproc
 2984              		@ args = 0, pretend = 0, frame = 16
 2985              		@ frame_needed = 0, uses_anonymous_args = 0
 2986 10b0 00B5     		push	{lr}
 2987              		.cfi_def_cfa_offset 4
 2988              		.cfi_offset 14, -4
 2989 10b2 85B0     		sub	sp, sp, #20
 2990              		.cfi_def_cfa_offset 24
 2991 10b4 0190     		str	r0, [sp, #4]
 2992 10b6 0B46     		mov	r3, r1
 2993 10b8 8DF80330 		strb	r3, [sp, #3]
 2994              		.loc 1 1076 0
 2995 10bc 0DF10F03 		add	r3, sp, #15
 2996 10c0 0198     		ldr	r0, [sp, #4]
 2997 10c2 2221     		movs	r1, #34
 2998 10c4 1A46     		mov	r2, r3
 2999 10c6 0123     		movs	r3, #1
 3000 10c8 FFF7FEFF 		bl	LSM303AGR_ACC_ReadReg
 3001 10cc 0346     		mov	r3, r0
 3002 10ce 002B     		cmp	r3, #0
 3003 10d0 01D1     		bne	.L192
 3004              		.loc 1 1077 0
 3005 10d2 0023     		movs	r3, #0
 3006 10d4 1CE0     		b	.L195
 3007              	.L192:
 3008              		.loc 1 1079 0
 3009 10d6 9DF80F30 		ldrb	r3, [sp, #15]	@ zero_extendqisi2
 3010 10da 23F00403 		bic	r3, r3, #4
 3011 10de DBB2     		uxtb	r3, r3
 3012 10e0 8DF80F30 		strb	r3, [sp, #15]
 3013              		.loc 1 1080 0
 3014 10e4 9DF80F20 		ldrb	r2, [sp, #15]	@ zero_extendqisi2
 3015 10e8 9DF80330 		ldrb	r3, [sp, #3]
 3016 10ec 1343     		orrs	r3, r3, r2
 3017 10ee DBB2     		uxtb	r3, r3
 3018 10f0 8DF80F30 		strb	r3, [sp, #15]
 3019              		.loc 1 1082 0
 3020 10f4 0DF10F03 		add	r3, sp, #15
 3021 10f8 0198     		ldr	r0, [sp, #4]
 3022 10fa 2221     		movs	r1, #34
 3023 10fc 1A46     		mov	r2, r3
 3024 10fe 0123     		movs	r3, #1
 3025 1100 FFF7FEFF 		bl	LSM303AGR_ACC_WriteReg
 3026 1104 0346     		mov	r3, r0
 3027 1106 002B     		cmp	r3, #0
 3028 1108 01D1     		bne	.L194
 3029              		.loc 1 1083 0
 3030 110a 0023     		movs	r3, #0
 3031 110c 00E0     		b	.L195
 3032              	.L194:
 3033              		.loc 1 1085 0
 3034 110e 0123     		movs	r3, #1
 3035              	.L195:
ARM GAS  /tmp/ccRrg1qB.s 			page 55


 3036              		.loc 1 1086 0
 3037 1110 1846     		mov	r0, r3
 3038 1112 05B0     		add	sp, sp, #20
 3039              		@ sp needed
 3040 1114 5DF804FB 		ldr	pc, [sp], #4
 3041              		.cfi_endproc
 3042              	.LFE315:
 3043              		.size	LSM303AGR_ACC_W_FIFO_Watermark_on_INT1, .-LSM303AGR_ACC_W_FIFO_Watermark_on_INT1
 3044              		.align	2
 3045 1118 AFF30080 		.p2align 4,,15
 3045      AFF30080 
 3046              		.global	LSM303AGR_ACC_R_FIFO_Watermark_on_INT1
 3047              		.thumb
 3048              		.thumb_func
 3049              		.type	LSM303AGR_ACC_R_FIFO_Watermark_on_INT1, %function
 3050              	LSM303AGR_ACC_R_FIFO_Watermark_on_INT1:
 3051              	.LFB316:
 3052              		.loc 1 1096 0
 3053              		.cfi_startproc
 3054              		@ args = 0, pretend = 0, frame = 8
 3055              		@ frame_needed = 0, uses_anonymous_args = 0
 3056 1120 00B5     		push	{lr}
 3057              		.cfi_def_cfa_offset 4
 3058              		.cfi_offset 14, -4
 3059 1122 83B0     		sub	sp, sp, #12
 3060              		.cfi_def_cfa_offset 16
 3061 1124 0190     		str	r0, [sp, #4]
 3062 1126 0091     		str	r1, [sp]
 3063              		.loc 1 1097 0
 3064 1128 0198     		ldr	r0, [sp, #4]
 3065 112a 2221     		movs	r1, #34
 3066 112c 009A     		ldr	r2, [sp]
 3067 112e 0123     		movs	r3, #1
 3068 1130 FFF7FEFF 		bl	LSM303AGR_ACC_ReadReg
 3069 1134 0346     		mov	r3, r0
 3070 1136 002B     		cmp	r3, #0
 3071 1138 01D1     		bne	.L197
 3072              		.loc 1 1098 0
 3073 113a 0023     		movs	r3, #0
 3074 113c 07E0     		b	.L198
 3075              	.L197:
 3076              		.loc 1 1100 0
 3077 113e 009B     		ldr	r3, [sp]
 3078 1140 1B78     		ldrb	r3, [r3]	@ zero_extendqisi2
 3079 1142 03F00403 		and	r3, r3, #4
 3080 1146 DAB2     		uxtb	r2, r3
 3081 1148 009B     		ldr	r3, [sp]
 3082 114a 1A70     		strb	r2, [r3]
 3083              		.loc 1 1102 0
 3084 114c 0123     		movs	r3, #1
 3085              	.L198:
 3086              		.loc 1 1103 0
 3087 114e 1846     		mov	r0, r3
 3088 1150 03B0     		add	sp, sp, #12
 3089              		@ sp needed
 3090 1152 5DF804FB 		ldr	pc, [sp], #4
 3091              		.cfi_endproc
ARM GAS  /tmp/ccRrg1qB.s 			page 56


 3092              	.LFE316:
 3093              		.size	LSM303AGR_ACC_R_FIFO_Watermark_on_INT1, .-LSM303AGR_ACC_R_FIFO_Watermark_on_INT1
 3094 1156 00BF     		.align	2
 3095 1158 AFF30080 		.p2align 4,,15
 3095      AFF30080 
 3096              		.global	LSM303AGR_ACC_W_FIFO_DRDY2_on_INT1
 3097              		.thumb
 3098              		.thumb_func
 3099              		.type	LSM303AGR_ACC_W_FIFO_DRDY2_on_INT1, %function
 3100              	LSM303AGR_ACC_W_FIFO_DRDY2_on_INT1:
 3101              	.LFB317:
 3102              		.loc 1 1113 0
 3103              		.cfi_startproc
 3104              		@ args = 0, pretend = 0, frame = 16
 3105              		@ frame_needed = 0, uses_anonymous_args = 0
 3106 1160 00B5     		push	{lr}
 3107              		.cfi_def_cfa_offset 4
 3108              		.cfi_offset 14, -4
 3109 1162 85B0     		sub	sp, sp, #20
 3110              		.cfi_def_cfa_offset 24
 3111 1164 0190     		str	r0, [sp, #4]
 3112 1166 0B46     		mov	r3, r1
 3113 1168 8DF80330 		strb	r3, [sp, #3]
 3114              		.loc 1 1116 0
 3115 116c 0DF10F03 		add	r3, sp, #15
 3116 1170 0198     		ldr	r0, [sp, #4]
 3117 1172 2221     		movs	r1, #34
 3118 1174 1A46     		mov	r2, r3
 3119 1176 0123     		movs	r3, #1
 3120 1178 FFF7FEFF 		bl	LSM303AGR_ACC_ReadReg
 3121 117c 0346     		mov	r3, r0
 3122 117e 002B     		cmp	r3, #0
 3123 1180 01D1     		bne	.L200
 3124              		.loc 1 1117 0
 3125 1182 0023     		movs	r3, #0
 3126 1184 1CE0     		b	.L203
 3127              	.L200:
 3128              		.loc 1 1119 0
 3129 1186 9DF80F30 		ldrb	r3, [sp, #15]	@ zero_extendqisi2
 3130 118a 23F00803 		bic	r3, r3, #8
 3131 118e DBB2     		uxtb	r3, r3
 3132 1190 8DF80F30 		strb	r3, [sp, #15]
 3133              		.loc 1 1120 0
 3134 1194 9DF80F20 		ldrb	r2, [sp, #15]	@ zero_extendqisi2
 3135 1198 9DF80330 		ldrb	r3, [sp, #3]
 3136 119c 1343     		orrs	r3, r3, r2
 3137 119e DBB2     		uxtb	r3, r3
 3138 11a0 8DF80F30 		strb	r3, [sp, #15]
 3139              		.loc 1 1122 0
 3140 11a4 0DF10F03 		add	r3, sp, #15
 3141 11a8 0198     		ldr	r0, [sp, #4]
 3142 11aa 2221     		movs	r1, #34
 3143 11ac 1A46     		mov	r2, r3
 3144 11ae 0123     		movs	r3, #1
 3145 11b0 FFF7FEFF 		bl	LSM303AGR_ACC_WriteReg
 3146 11b4 0346     		mov	r3, r0
 3147 11b6 002B     		cmp	r3, #0
ARM GAS  /tmp/ccRrg1qB.s 			page 57


 3148 11b8 01D1     		bne	.L202
 3149              		.loc 1 1123 0
 3150 11ba 0023     		movs	r3, #0
 3151 11bc 00E0     		b	.L203
 3152              	.L202:
 3153              		.loc 1 1125 0
 3154 11be 0123     		movs	r3, #1
 3155              	.L203:
 3156              		.loc 1 1126 0
 3157 11c0 1846     		mov	r0, r3
 3158 11c2 05B0     		add	sp, sp, #20
 3159              		@ sp needed
 3160 11c4 5DF804FB 		ldr	pc, [sp], #4
 3161              		.cfi_endproc
 3162              	.LFE317:
 3163              		.size	LSM303AGR_ACC_W_FIFO_DRDY2_on_INT1, .-LSM303AGR_ACC_W_FIFO_DRDY2_on_INT1
 3164              		.align	2
 3165 11c8 AFF30080 		.p2align 4,,15
 3165      AFF30080 
 3166              		.global	LSM303AGR_ACC_R_FIFO_DRDY2_on_INT1
 3167              		.thumb
 3168              		.thumb_func
 3169              		.type	LSM303AGR_ACC_R_FIFO_DRDY2_on_INT1, %function
 3170              	LSM303AGR_ACC_R_FIFO_DRDY2_on_INT1:
 3171              	.LFB318:
 3172              		.loc 1 1136 0
 3173              		.cfi_startproc
 3174              		@ args = 0, pretend = 0, frame = 8
 3175              		@ frame_needed = 0, uses_anonymous_args = 0
 3176 11d0 00B5     		push	{lr}
 3177              		.cfi_def_cfa_offset 4
 3178              		.cfi_offset 14, -4
 3179 11d2 83B0     		sub	sp, sp, #12
 3180              		.cfi_def_cfa_offset 16
 3181 11d4 0190     		str	r0, [sp, #4]
 3182 11d6 0091     		str	r1, [sp]
 3183              		.loc 1 1137 0
 3184 11d8 0198     		ldr	r0, [sp, #4]
 3185 11da 2221     		movs	r1, #34
 3186 11dc 009A     		ldr	r2, [sp]
 3187 11de 0123     		movs	r3, #1
 3188 11e0 FFF7FEFF 		bl	LSM303AGR_ACC_ReadReg
 3189 11e4 0346     		mov	r3, r0
 3190 11e6 002B     		cmp	r3, #0
 3191 11e8 01D1     		bne	.L205
 3192              		.loc 1 1138 0
 3193 11ea 0023     		movs	r3, #0
 3194 11ec 07E0     		b	.L206
 3195              	.L205:
 3196              		.loc 1 1140 0
 3197 11ee 009B     		ldr	r3, [sp]
 3198 11f0 1B78     		ldrb	r3, [r3]	@ zero_extendqisi2
 3199 11f2 03F00803 		and	r3, r3, #8
 3200 11f6 DAB2     		uxtb	r2, r3
 3201 11f8 009B     		ldr	r3, [sp]
 3202 11fa 1A70     		strb	r2, [r3]
 3203              		.loc 1 1142 0
ARM GAS  /tmp/ccRrg1qB.s 			page 58


 3204 11fc 0123     		movs	r3, #1
 3205              	.L206:
 3206              		.loc 1 1143 0
 3207 11fe 1846     		mov	r0, r3
 3208 1200 03B0     		add	sp, sp, #12
 3209              		@ sp needed
 3210 1202 5DF804FB 		ldr	pc, [sp], #4
 3211              		.cfi_endproc
 3212              	.LFE318:
 3213              		.size	LSM303AGR_ACC_R_FIFO_DRDY2_on_INT1, .-LSM303AGR_ACC_R_FIFO_DRDY2_on_INT1
 3214 1206 00BF     		.align	2
 3215 1208 AFF30080 		.p2align 4,,15
 3215      AFF30080 
 3216              		.global	LSM303AGR_ACC_W_FIFO_DRDY1_on_INT1
 3217              		.thumb
 3218              		.thumb_func
 3219              		.type	LSM303AGR_ACC_W_FIFO_DRDY1_on_INT1, %function
 3220              	LSM303AGR_ACC_W_FIFO_DRDY1_on_INT1:
 3221              	.LFB319:
 3222              		.loc 1 1153 0
 3223              		.cfi_startproc
 3224              		@ args = 0, pretend = 0, frame = 16
 3225              		@ frame_needed = 0, uses_anonymous_args = 0
 3226 1210 00B5     		push	{lr}
 3227              		.cfi_def_cfa_offset 4
 3228              		.cfi_offset 14, -4
 3229 1212 85B0     		sub	sp, sp, #20
 3230              		.cfi_def_cfa_offset 24
 3231 1214 0190     		str	r0, [sp, #4]
 3232 1216 0B46     		mov	r3, r1
 3233 1218 8DF80330 		strb	r3, [sp, #3]
 3234              		.loc 1 1156 0
 3235 121c 0DF10F03 		add	r3, sp, #15
 3236 1220 0198     		ldr	r0, [sp, #4]
 3237 1222 2221     		movs	r1, #34
 3238 1224 1A46     		mov	r2, r3
 3239 1226 0123     		movs	r3, #1
 3240 1228 FFF7FEFF 		bl	LSM303AGR_ACC_ReadReg
 3241 122c 0346     		mov	r3, r0
 3242 122e 002B     		cmp	r3, #0
 3243 1230 01D1     		bne	.L208
 3244              		.loc 1 1157 0
 3245 1232 0023     		movs	r3, #0
 3246 1234 1CE0     		b	.L211
 3247              	.L208:
 3248              		.loc 1 1159 0
 3249 1236 9DF80F30 		ldrb	r3, [sp, #15]	@ zero_extendqisi2
 3250 123a 23F01003 		bic	r3, r3, #16
 3251 123e DBB2     		uxtb	r3, r3
 3252 1240 8DF80F30 		strb	r3, [sp, #15]
 3253              		.loc 1 1160 0
 3254 1244 9DF80F20 		ldrb	r2, [sp, #15]	@ zero_extendqisi2
 3255 1248 9DF80330 		ldrb	r3, [sp, #3]
 3256 124c 1343     		orrs	r3, r3, r2
 3257 124e DBB2     		uxtb	r3, r3
 3258 1250 8DF80F30 		strb	r3, [sp, #15]
 3259              		.loc 1 1162 0
ARM GAS  /tmp/ccRrg1qB.s 			page 59


 3260 1254 0DF10F03 		add	r3, sp, #15
 3261 1258 0198     		ldr	r0, [sp, #4]
 3262 125a 2221     		movs	r1, #34
 3263 125c 1A46     		mov	r2, r3
 3264 125e 0123     		movs	r3, #1
 3265 1260 FFF7FEFF 		bl	LSM303AGR_ACC_WriteReg
 3266 1264 0346     		mov	r3, r0
 3267 1266 002B     		cmp	r3, #0
 3268 1268 01D1     		bne	.L210
 3269              		.loc 1 1163 0
 3270 126a 0023     		movs	r3, #0
 3271 126c 00E0     		b	.L211
 3272              	.L210:
 3273              		.loc 1 1165 0
 3274 126e 0123     		movs	r3, #1
 3275              	.L211:
 3276              		.loc 1 1166 0
 3277 1270 1846     		mov	r0, r3
 3278 1272 05B0     		add	sp, sp, #20
 3279              		@ sp needed
 3280 1274 5DF804FB 		ldr	pc, [sp], #4
 3281              		.cfi_endproc
 3282              	.LFE319:
 3283              		.size	LSM303AGR_ACC_W_FIFO_DRDY1_on_INT1, .-LSM303AGR_ACC_W_FIFO_DRDY1_on_INT1
 3284              		.align	2
 3285 1278 AFF30080 		.p2align 4,,15
 3285      AFF30080 
 3286              		.global	LSM303AGR_ACC_R_FIFO_DRDY1_on_INT1
 3287              		.thumb
 3288              		.thumb_func
 3289              		.type	LSM303AGR_ACC_R_FIFO_DRDY1_on_INT1, %function
 3290              	LSM303AGR_ACC_R_FIFO_DRDY1_on_INT1:
 3291              	.LFB320:
 3292              		.loc 1 1176 0
 3293              		.cfi_startproc
 3294              		@ args = 0, pretend = 0, frame = 8
 3295              		@ frame_needed = 0, uses_anonymous_args = 0
 3296 1280 00B5     		push	{lr}
 3297              		.cfi_def_cfa_offset 4
 3298              		.cfi_offset 14, -4
 3299 1282 83B0     		sub	sp, sp, #12
 3300              		.cfi_def_cfa_offset 16
 3301 1284 0190     		str	r0, [sp, #4]
 3302 1286 0091     		str	r1, [sp]
 3303              		.loc 1 1177 0
 3304 1288 0198     		ldr	r0, [sp, #4]
 3305 128a 2221     		movs	r1, #34
 3306 128c 009A     		ldr	r2, [sp]
 3307 128e 0123     		movs	r3, #1
 3308 1290 FFF7FEFF 		bl	LSM303AGR_ACC_ReadReg
 3309 1294 0346     		mov	r3, r0
 3310 1296 002B     		cmp	r3, #0
 3311 1298 01D1     		bne	.L213
 3312              		.loc 1 1178 0
 3313 129a 0023     		movs	r3, #0
 3314 129c 07E0     		b	.L214
 3315              	.L213:
ARM GAS  /tmp/ccRrg1qB.s 			page 60


 3316              		.loc 1 1180 0
 3317 129e 009B     		ldr	r3, [sp]
 3318 12a0 1B78     		ldrb	r3, [r3]	@ zero_extendqisi2
 3319 12a2 03F01003 		and	r3, r3, #16
 3320 12a6 DAB2     		uxtb	r2, r3
 3321 12a8 009B     		ldr	r3, [sp]
 3322 12aa 1A70     		strb	r2, [r3]
 3323              		.loc 1 1182 0
 3324 12ac 0123     		movs	r3, #1
 3325              	.L214:
 3326              		.loc 1 1183 0
 3327 12ae 1846     		mov	r0, r3
 3328 12b0 03B0     		add	sp, sp, #12
 3329              		@ sp needed
 3330 12b2 5DF804FB 		ldr	pc, [sp], #4
 3331              		.cfi_endproc
 3332              	.LFE320:
 3333              		.size	LSM303AGR_ACC_R_FIFO_DRDY1_on_INT1, .-LSM303AGR_ACC_R_FIFO_DRDY1_on_INT1
 3334 12b6 00BF     		.align	2
 3335 12b8 AFF30080 		.p2align 4,,15
 3335      AFF30080 
 3336              		.global	LSM303AGR_ACC_W_FIFO_AOL2_on_INT1
 3337              		.thumb
 3338              		.thumb_func
 3339              		.type	LSM303AGR_ACC_W_FIFO_AOL2_on_INT1, %function
 3340              	LSM303AGR_ACC_W_FIFO_AOL2_on_INT1:
 3341              	.LFB321:
 3342              		.loc 1 1193 0
 3343              		.cfi_startproc
 3344              		@ args = 0, pretend = 0, frame = 16
 3345              		@ frame_needed = 0, uses_anonymous_args = 0
 3346 12c0 00B5     		push	{lr}
 3347              		.cfi_def_cfa_offset 4
 3348              		.cfi_offset 14, -4
 3349 12c2 85B0     		sub	sp, sp, #20
 3350              		.cfi_def_cfa_offset 24
 3351 12c4 0190     		str	r0, [sp, #4]
 3352 12c6 0B46     		mov	r3, r1
 3353 12c8 8DF80330 		strb	r3, [sp, #3]
 3354              		.loc 1 1196 0
 3355 12cc 0DF10F03 		add	r3, sp, #15
 3356 12d0 0198     		ldr	r0, [sp, #4]
 3357 12d2 2221     		movs	r1, #34
 3358 12d4 1A46     		mov	r2, r3
 3359 12d6 0123     		movs	r3, #1
 3360 12d8 FFF7FEFF 		bl	LSM303AGR_ACC_ReadReg
 3361 12dc 0346     		mov	r3, r0
 3362 12de 002B     		cmp	r3, #0
 3363 12e0 01D1     		bne	.L216
 3364              		.loc 1 1197 0
 3365 12e2 0023     		movs	r3, #0
 3366 12e4 1CE0     		b	.L219
 3367              	.L216:
 3368              		.loc 1 1199 0
 3369 12e6 9DF80F30 		ldrb	r3, [sp, #15]	@ zero_extendqisi2
 3370 12ea 23F02003 		bic	r3, r3, #32
 3371 12ee DBB2     		uxtb	r3, r3
ARM GAS  /tmp/ccRrg1qB.s 			page 61


 3372 12f0 8DF80F30 		strb	r3, [sp, #15]
 3373              		.loc 1 1200 0
 3374 12f4 9DF80F20 		ldrb	r2, [sp, #15]	@ zero_extendqisi2
 3375 12f8 9DF80330 		ldrb	r3, [sp, #3]
 3376 12fc 1343     		orrs	r3, r3, r2
 3377 12fe DBB2     		uxtb	r3, r3
 3378 1300 8DF80F30 		strb	r3, [sp, #15]
 3379              		.loc 1 1202 0
 3380 1304 0DF10F03 		add	r3, sp, #15
 3381 1308 0198     		ldr	r0, [sp, #4]
 3382 130a 2221     		movs	r1, #34
 3383 130c 1A46     		mov	r2, r3
 3384 130e 0123     		movs	r3, #1
 3385 1310 FFF7FEFF 		bl	LSM303AGR_ACC_WriteReg
 3386 1314 0346     		mov	r3, r0
 3387 1316 002B     		cmp	r3, #0
 3388 1318 01D1     		bne	.L218
 3389              		.loc 1 1203 0
 3390 131a 0023     		movs	r3, #0
 3391 131c 00E0     		b	.L219
 3392              	.L218:
 3393              		.loc 1 1205 0
 3394 131e 0123     		movs	r3, #1
 3395              	.L219:
 3396              		.loc 1 1206 0
 3397 1320 1846     		mov	r0, r3
 3398 1322 05B0     		add	sp, sp, #20
 3399              		@ sp needed
 3400 1324 5DF804FB 		ldr	pc, [sp], #4
 3401              		.cfi_endproc
 3402              	.LFE321:
 3403              		.size	LSM303AGR_ACC_W_FIFO_AOL2_on_INT1, .-LSM303AGR_ACC_W_FIFO_AOL2_on_INT1
 3404              		.align	2
 3405 1328 AFF30080 		.p2align 4,,15
 3405      AFF30080 
 3406              		.global	LSM303AGR_ACC_R_FIFO_AOL2_on_INT1
 3407              		.thumb
 3408              		.thumb_func
 3409              		.type	LSM303AGR_ACC_R_FIFO_AOL2_on_INT1, %function
 3410              	LSM303AGR_ACC_R_FIFO_AOL2_on_INT1:
 3411              	.LFB322:
 3412              		.loc 1 1216 0
 3413              		.cfi_startproc
 3414              		@ args = 0, pretend = 0, frame = 8
 3415              		@ frame_needed = 0, uses_anonymous_args = 0
 3416 1330 00B5     		push	{lr}
 3417              		.cfi_def_cfa_offset 4
 3418              		.cfi_offset 14, -4
 3419 1332 83B0     		sub	sp, sp, #12
 3420              		.cfi_def_cfa_offset 16
 3421 1334 0190     		str	r0, [sp, #4]
 3422 1336 0091     		str	r1, [sp]
 3423              		.loc 1 1217 0
 3424 1338 0198     		ldr	r0, [sp, #4]
 3425 133a 2221     		movs	r1, #34
 3426 133c 009A     		ldr	r2, [sp]
 3427 133e 0123     		movs	r3, #1
ARM GAS  /tmp/ccRrg1qB.s 			page 62


 3428 1340 FFF7FEFF 		bl	LSM303AGR_ACC_ReadReg
 3429 1344 0346     		mov	r3, r0
 3430 1346 002B     		cmp	r3, #0
 3431 1348 01D1     		bne	.L221
 3432              		.loc 1 1218 0
 3433 134a 0023     		movs	r3, #0
 3434 134c 07E0     		b	.L222
 3435              	.L221:
 3436              		.loc 1 1220 0
 3437 134e 009B     		ldr	r3, [sp]
 3438 1350 1B78     		ldrb	r3, [r3]	@ zero_extendqisi2
 3439 1352 03F02003 		and	r3, r3, #32
 3440 1356 DAB2     		uxtb	r2, r3
 3441 1358 009B     		ldr	r3, [sp]
 3442 135a 1A70     		strb	r2, [r3]
 3443              		.loc 1 1222 0
 3444 135c 0123     		movs	r3, #1
 3445              	.L222:
 3446              		.loc 1 1223 0
 3447 135e 1846     		mov	r0, r3
 3448 1360 03B0     		add	sp, sp, #12
 3449              		@ sp needed
 3450 1362 5DF804FB 		ldr	pc, [sp], #4
 3451              		.cfi_endproc
 3452              	.LFE322:
 3453              		.size	LSM303AGR_ACC_R_FIFO_AOL2_on_INT1, .-LSM303AGR_ACC_R_FIFO_AOL2_on_INT1
 3454 1366 00BF     		.align	2
 3455 1368 AFF30080 		.p2align 4,,15
 3455      AFF30080 
 3456              		.global	LSM303AGR_ACC_W_FIFO_AOL1_on_INT1
 3457              		.thumb
 3458              		.thumb_func
 3459              		.type	LSM303AGR_ACC_W_FIFO_AOL1_on_INT1, %function
 3460              	LSM303AGR_ACC_W_FIFO_AOL1_on_INT1:
 3461              	.LFB323:
 3462              		.loc 1 1233 0
 3463              		.cfi_startproc
 3464              		@ args = 0, pretend = 0, frame = 16
 3465              		@ frame_needed = 0, uses_anonymous_args = 0
 3466 1370 00B5     		push	{lr}
 3467              		.cfi_def_cfa_offset 4
 3468              		.cfi_offset 14, -4
 3469 1372 85B0     		sub	sp, sp, #20
 3470              		.cfi_def_cfa_offset 24
 3471 1374 0190     		str	r0, [sp, #4]
 3472 1376 0B46     		mov	r3, r1
 3473 1378 8DF80330 		strb	r3, [sp, #3]
 3474              		.loc 1 1236 0
 3475 137c 0DF10F03 		add	r3, sp, #15
 3476 1380 0198     		ldr	r0, [sp, #4]
 3477 1382 2221     		movs	r1, #34
 3478 1384 1A46     		mov	r2, r3
 3479 1386 0123     		movs	r3, #1
 3480 1388 FFF7FEFF 		bl	LSM303AGR_ACC_ReadReg
 3481 138c 0346     		mov	r3, r0
 3482 138e 002B     		cmp	r3, #0
 3483 1390 01D1     		bne	.L224
ARM GAS  /tmp/ccRrg1qB.s 			page 63


 3484              		.loc 1 1237 0
 3485 1392 0023     		movs	r3, #0
 3486 1394 1CE0     		b	.L227
 3487              	.L224:
 3488              		.loc 1 1239 0
 3489 1396 9DF80F30 		ldrb	r3, [sp, #15]	@ zero_extendqisi2
 3490 139a 23F04003 		bic	r3, r3, #64
 3491 139e DBB2     		uxtb	r3, r3
 3492 13a0 8DF80F30 		strb	r3, [sp, #15]
 3493              		.loc 1 1240 0
 3494 13a4 9DF80F20 		ldrb	r2, [sp, #15]	@ zero_extendqisi2
 3495 13a8 9DF80330 		ldrb	r3, [sp, #3]
 3496 13ac 1343     		orrs	r3, r3, r2
 3497 13ae DBB2     		uxtb	r3, r3
 3498 13b0 8DF80F30 		strb	r3, [sp, #15]
 3499              		.loc 1 1242 0
 3500 13b4 0DF10F03 		add	r3, sp, #15
 3501 13b8 0198     		ldr	r0, [sp, #4]
 3502 13ba 2221     		movs	r1, #34
 3503 13bc 1A46     		mov	r2, r3
 3504 13be 0123     		movs	r3, #1
 3505 13c0 FFF7FEFF 		bl	LSM303AGR_ACC_WriteReg
 3506 13c4 0346     		mov	r3, r0
 3507 13c6 002B     		cmp	r3, #0
 3508 13c8 01D1     		bne	.L226
 3509              		.loc 1 1243 0
 3510 13ca 0023     		movs	r3, #0
 3511 13cc 00E0     		b	.L227
 3512              	.L226:
 3513              		.loc 1 1245 0
 3514 13ce 0123     		movs	r3, #1
 3515              	.L227:
 3516              		.loc 1 1246 0
 3517 13d0 1846     		mov	r0, r3
 3518 13d2 05B0     		add	sp, sp, #20
 3519              		@ sp needed
 3520 13d4 5DF804FB 		ldr	pc, [sp], #4
 3521              		.cfi_endproc
 3522              	.LFE323:
 3523              		.size	LSM303AGR_ACC_W_FIFO_AOL1_on_INT1, .-LSM303AGR_ACC_W_FIFO_AOL1_on_INT1
 3524              		.align	2
 3525 13d8 AFF30080 		.p2align 4,,15
 3525      AFF30080 
 3526              		.global	LSM303AGR_ACC_R_FIFO_AOL1_on_INT1
 3527              		.thumb
 3528              		.thumb_func
 3529              		.type	LSM303AGR_ACC_R_FIFO_AOL1_on_INT1, %function
 3530              	LSM303AGR_ACC_R_FIFO_AOL1_on_INT1:
 3531              	.LFB324:
 3532              		.loc 1 1256 0
 3533              		.cfi_startproc
 3534              		@ args = 0, pretend = 0, frame = 8
 3535              		@ frame_needed = 0, uses_anonymous_args = 0
 3536 13e0 00B5     		push	{lr}
 3537              		.cfi_def_cfa_offset 4
 3538              		.cfi_offset 14, -4
 3539 13e2 83B0     		sub	sp, sp, #12
ARM GAS  /tmp/ccRrg1qB.s 			page 64


 3540              		.cfi_def_cfa_offset 16
 3541 13e4 0190     		str	r0, [sp, #4]
 3542 13e6 0091     		str	r1, [sp]
 3543              		.loc 1 1257 0
 3544 13e8 0198     		ldr	r0, [sp, #4]
 3545 13ea 2221     		movs	r1, #34
 3546 13ec 009A     		ldr	r2, [sp]
 3547 13ee 0123     		movs	r3, #1
 3548 13f0 FFF7FEFF 		bl	LSM303AGR_ACC_ReadReg
 3549 13f4 0346     		mov	r3, r0
 3550 13f6 002B     		cmp	r3, #0
 3551 13f8 01D1     		bne	.L229
 3552              		.loc 1 1258 0
 3553 13fa 0023     		movs	r3, #0
 3554 13fc 07E0     		b	.L230
 3555              	.L229:
 3556              		.loc 1 1260 0
 3557 13fe 009B     		ldr	r3, [sp]
 3558 1400 1B78     		ldrb	r3, [r3]	@ zero_extendqisi2
 3559 1402 03F04003 		and	r3, r3, #64
 3560 1406 DAB2     		uxtb	r2, r3
 3561 1408 009B     		ldr	r3, [sp]
 3562 140a 1A70     		strb	r2, [r3]
 3563              		.loc 1 1262 0
 3564 140c 0123     		movs	r3, #1
 3565              	.L230:
 3566              		.loc 1 1263 0
 3567 140e 1846     		mov	r0, r3
 3568 1410 03B0     		add	sp, sp, #12
 3569              		@ sp needed
 3570 1412 5DF804FB 		ldr	pc, [sp], #4
 3571              		.cfi_endproc
 3572              	.LFE324:
 3573              		.size	LSM303AGR_ACC_R_FIFO_AOL1_on_INT1, .-LSM303AGR_ACC_R_FIFO_AOL1_on_INT1
 3574 1416 00BF     		.align	2
 3575 1418 AFF30080 		.p2align 4,,15
 3575      AFF30080 
 3576              		.global	LSM303AGR_ACC_W_FIFO_Click_on_INT1
 3577              		.thumb
 3578              		.thumb_func
 3579              		.type	LSM303AGR_ACC_W_FIFO_Click_on_INT1, %function
 3580              	LSM303AGR_ACC_W_FIFO_Click_on_INT1:
 3581              	.LFB325:
 3582              		.loc 1 1273 0
 3583              		.cfi_startproc
 3584              		@ args = 0, pretend = 0, frame = 16
 3585              		@ frame_needed = 0, uses_anonymous_args = 0
 3586 1420 00B5     		push	{lr}
 3587              		.cfi_def_cfa_offset 4
 3588              		.cfi_offset 14, -4
 3589 1422 85B0     		sub	sp, sp, #20
 3590              		.cfi_def_cfa_offset 24
 3591 1424 0190     		str	r0, [sp, #4]
 3592 1426 0B46     		mov	r3, r1
 3593 1428 8DF80330 		strb	r3, [sp, #3]
 3594              		.loc 1 1276 0
 3595 142c 0DF10F03 		add	r3, sp, #15
ARM GAS  /tmp/ccRrg1qB.s 			page 65


 3596 1430 0198     		ldr	r0, [sp, #4]
 3597 1432 2221     		movs	r1, #34
 3598 1434 1A46     		mov	r2, r3
 3599 1436 0123     		movs	r3, #1
 3600 1438 FFF7FEFF 		bl	LSM303AGR_ACC_ReadReg
 3601 143c 0346     		mov	r3, r0
 3602 143e 002B     		cmp	r3, #0
 3603 1440 01D1     		bne	.L232
 3604              		.loc 1 1277 0
 3605 1442 0023     		movs	r3, #0
 3606 1444 1CE0     		b	.L235
 3607              	.L232:
 3608              		.loc 1 1279 0
 3609 1446 9DF80F30 		ldrb	r3, [sp, #15]	@ zero_extendqisi2
 3610 144a 03F07F03 		and	r3, r3, #127
 3611 144e DBB2     		uxtb	r3, r3
 3612 1450 8DF80F30 		strb	r3, [sp, #15]
 3613              		.loc 1 1280 0
 3614 1454 9DF80F20 		ldrb	r2, [sp, #15]	@ zero_extendqisi2
 3615 1458 9DF80330 		ldrb	r3, [sp, #3]
 3616 145c 1343     		orrs	r3, r3, r2
 3617 145e DBB2     		uxtb	r3, r3
 3618 1460 8DF80F30 		strb	r3, [sp, #15]
 3619              		.loc 1 1282 0
 3620 1464 0DF10F03 		add	r3, sp, #15
 3621 1468 0198     		ldr	r0, [sp, #4]
 3622 146a 2221     		movs	r1, #34
 3623 146c 1A46     		mov	r2, r3
 3624 146e 0123     		movs	r3, #1
 3625 1470 FFF7FEFF 		bl	LSM303AGR_ACC_WriteReg
 3626 1474 0346     		mov	r3, r0
 3627 1476 002B     		cmp	r3, #0
 3628 1478 01D1     		bne	.L234
 3629              		.loc 1 1283 0
 3630 147a 0023     		movs	r3, #0
 3631 147c 00E0     		b	.L235
 3632              	.L234:
 3633              		.loc 1 1285 0
 3634 147e 0123     		movs	r3, #1
 3635              	.L235:
 3636              		.loc 1 1286 0
 3637 1480 1846     		mov	r0, r3
 3638 1482 05B0     		add	sp, sp, #20
 3639              		@ sp needed
 3640 1484 5DF804FB 		ldr	pc, [sp], #4
 3641              		.cfi_endproc
 3642              	.LFE325:
 3643              		.size	LSM303AGR_ACC_W_FIFO_Click_on_INT1, .-LSM303AGR_ACC_W_FIFO_Click_on_INT1
 3644              		.align	2
 3645 1488 AFF30080 		.p2align 4,,15
 3645      AFF30080 
 3646              		.global	LSM303AGR_ACC_R_FIFO_Click_on_INT1
 3647              		.thumb
 3648              		.thumb_func
 3649              		.type	LSM303AGR_ACC_R_FIFO_Click_on_INT1, %function
 3650              	LSM303AGR_ACC_R_FIFO_Click_on_INT1:
 3651              	.LFB326:
ARM GAS  /tmp/ccRrg1qB.s 			page 66


 3652              		.loc 1 1296 0
 3653              		.cfi_startproc
 3654              		@ args = 0, pretend = 0, frame = 8
 3655              		@ frame_needed = 0, uses_anonymous_args = 0
 3656 1490 00B5     		push	{lr}
 3657              		.cfi_def_cfa_offset 4
 3658              		.cfi_offset 14, -4
 3659 1492 83B0     		sub	sp, sp, #12
 3660              		.cfi_def_cfa_offset 16
 3661 1494 0190     		str	r0, [sp, #4]
 3662 1496 0091     		str	r1, [sp]
 3663              		.loc 1 1297 0
 3664 1498 0198     		ldr	r0, [sp, #4]
 3665 149a 2221     		movs	r1, #34
 3666 149c 009A     		ldr	r2, [sp]
 3667 149e 0123     		movs	r3, #1
 3668 14a0 FFF7FEFF 		bl	LSM303AGR_ACC_ReadReg
 3669 14a4 0346     		mov	r3, r0
 3670 14a6 002B     		cmp	r3, #0
 3671 14a8 01D1     		bne	.L237
 3672              		.loc 1 1298 0
 3673 14aa 0023     		movs	r3, #0
 3674 14ac 07E0     		b	.L238
 3675              	.L237:
 3676              		.loc 1 1300 0
 3677 14ae 009B     		ldr	r3, [sp]
 3678 14b0 1B78     		ldrb	r3, [r3]	@ zero_extendqisi2
 3679 14b2 23F07F03 		bic	r3, r3, #127
 3680 14b6 DAB2     		uxtb	r2, r3
 3681 14b8 009B     		ldr	r3, [sp]
 3682 14ba 1A70     		strb	r2, [r3]
 3683              		.loc 1 1302 0
 3684 14bc 0123     		movs	r3, #1
 3685              	.L238:
 3686              		.loc 1 1303 0
 3687 14be 1846     		mov	r0, r3
 3688 14c0 03B0     		add	sp, sp, #12
 3689              		@ sp needed
 3690 14c2 5DF804FB 		ldr	pc, [sp], #4
 3691              		.cfi_endproc
 3692              	.LFE326:
 3693              		.size	LSM303AGR_ACC_R_FIFO_Click_on_INT1, .-LSM303AGR_ACC_R_FIFO_Click_on_INT1
 3694 14c6 00BF     		.align	2
 3695 14c8 AFF30080 		.p2align 4,,15
 3695      AFF30080 
 3696              		.global	LSM303AGR_ACC_W_SPI_mode
 3697              		.thumb
 3698              		.thumb_func
 3699              		.type	LSM303AGR_ACC_W_SPI_mode, %function
 3700              	LSM303AGR_ACC_W_SPI_mode:
 3701              	.LFB327:
 3702              		.loc 1 1313 0
 3703              		.cfi_startproc
 3704              		@ args = 0, pretend = 0, frame = 16
 3705              		@ frame_needed = 0, uses_anonymous_args = 0
 3706 14d0 00B5     		push	{lr}
 3707              		.cfi_def_cfa_offset 4
ARM GAS  /tmp/ccRrg1qB.s 			page 67


 3708              		.cfi_offset 14, -4
 3709 14d2 85B0     		sub	sp, sp, #20
 3710              		.cfi_def_cfa_offset 24
 3711 14d4 0190     		str	r0, [sp, #4]
 3712 14d6 0B46     		mov	r3, r1
 3713 14d8 8DF80330 		strb	r3, [sp, #3]
 3714              		.loc 1 1316 0
 3715 14dc 0DF10F03 		add	r3, sp, #15
 3716 14e0 0198     		ldr	r0, [sp, #4]
 3717 14e2 2321     		movs	r1, #35
 3718 14e4 1A46     		mov	r2, r3
 3719 14e6 0123     		movs	r3, #1
 3720 14e8 FFF7FEFF 		bl	LSM303AGR_ACC_ReadReg
 3721 14ec 0346     		mov	r3, r0
 3722 14ee 002B     		cmp	r3, #0
 3723 14f0 01D1     		bne	.L240
 3724              		.loc 1 1317 0
 3725 14f2 0023     		movs	r3, #0
 3726 14f4 1CE0     		b	.L243
 3727              	.L240:
 3728              		.loc 1 1319 0
 3729 14f6 9DF80F30 		ldrb	r3, [sp, #15]	@ zero_extendqisi2
 3730 14fa 23F00103 		bic	r3, r3, #1
 3731 14fe DBB2     		uxtb	r3, r3
 3732 1500 8DF80F30 		strb	r3, [sp, #15]
 3733              		.loc 1 1320 0
 3734 1504 9DF80F20 		ldrb	r2, [sp, #15]	@ zero_extendqisi2
 3735 1508 9DF80330 		ldrb	r3, [sp, #3]
 3736 150c 1343     		orrs	r3, r3, r2
 3737 150e DBB2     		uxtb	r3, r3
 3738 1510 8DF80F30 		strb	r3, [sp, #15]
 3739              		.loc 1 1322 0
 3740 1514 0DF10F03 		add	r3, sp, #15
 3741 1518 0198     		ldr	r0, [sp, #4]
 3742 151a 2321     		movs	r1, #35
 3743 151c 1A46     		mov	r2, r3
 3744 151e 0123     		movs	r3, #1
 3745 1520 FFF7FEFF 		bl	LSM303AGR_ACC_WriteReg
 3746 1524 0346     		mov	r3, r0
 3747 1526 002B     		cmp	r3, #0
 3748 1528 01D1     		bne	.L242
 3749              		.loc 1 1323 0
 3750 152a 0023     		movs	r3, #0
 3751 152c 00E0     		b	.L243
 3752              	.L242:
 3753              		.loc 1 1325 0
 3754 152e 0123     		movs	r3, #1
 3755              	.L243:
 3756              		.loc 1 1326 0
 3757 1530 1846     		mov	r0, r3
 3758 1532 05B0     		add	sp, sp, #20
 3759              		@ sp needed
 3760 1534 5DF804FB 		ldr	pc, [sp], #4
 3761              		.cfi_endproc
 3762              	.LFE327:
 3763              		.size	LSM303AGR_ACC_W_SPI_mode, .-LSM303AGR_ACC_W_SPI_mode
 3764              		.align	2
ARM GAS  /tmp/ccRrg1qB.s 			page 68


 3765 1538 AFF30080 		.p2align 4,,15
 3765      AFF30080 
 3766              		.global	LSM303AGR_ACC_R_SPI_mode
 3767              		.thumb
 3768              		.thumb_func
 3769              		.type	LSM303AGR_ACC_R_SPI_mode, %function
 3770              	LSM303AGR_ACC_R_SPI_mode:
 3771              	.LFB328:
 3772              		.loc 1 1336 0
 3773              		.cfi_startproc
 3774              		@ args = 0, pretend = 0, frame = 8
 3775              		@ frame_needed = 0, uses_anonymous_args = 0
 3776 1540 00B5     		push	{lr}
 3777              		.cfi_def_cfa_offset 4
 3778              		.cfi_offset 14, -4
 3779 1542 83B0     		sub	sp, sp, #12
 3780              		.cfi_def_cfa_offset 16
 3781 1544 0190     		str	r0, [sp, #4]
 3782 1546 0091     		str	r1, [sp]
 3783              		.loc 1 1337 0
 3784 1548 0198     		ldr	r0, [sp, #4]
 3785 154a 2321     		movs	r1, #35
 3786 154c 009A     		ldr	r2, [sp]
 3787 154e 0123     		movs	r3, #1
 3788 1550 FFF7FEFF 		bl	LSM303AGR_ACC_ReadReg
 3789 1554 0346     		mov	r3, r0
 3790 1556 002B     		cmp	r3, #0
 3791 1558 01D1     		bne	.L245
 3792              		.loc 1 1338 0
 3793 155a 0023     		movs	r3, #0
 3794 155c 07E0     		b	.L246
 3795              	.L245:
 3796              		.loc 1 1340 0
 3797 155e 009B     		ldr	r3, [sp]
 3798 1560 1B78     		ldrb	r3, [r3]	@ zero_extendqisi2
 3799 1562 03F00103 		and	r3, r3, #1
 3800 1566 DAB2     		uxtb	r2, r3
 3801 1568 009B     		ldr	r3, [sp]
 3802 156a 1A70     		strb	r2, [r3]
 3803              		.loc 1 1342 0
 3804 156c 0123     		movs	r3, #1
 3805              	.L246:
 3806              		.loc 1 1343 0
 3807 156e 1846     		mov	r0, r3
 3808 1570 03B0     		add	sp, sp, #12
 3809              		@ sp needed
 3810 1572 5DF804FB 		ldr	pc, [sp], #4
 3811              		.cfi_endproc
 3812              	.LFE328:
 3813              		.size	LSM303AGR_ACC_R_SPI_mode, .-LSM303AGR_ACC_R_SPI_mode
 3814 1576 00BF     		.align	2
 3815 1578 AFF30080 		.p2align 4,,15
 3815      AFF30080 
 3816              		.global	LSM303AGR_ACC_W_SelfTest
 3817              		.thumb
 3818              		.thumb_func
 3819              		.type	LSM303AGR_ACC_W_SelfTest, %function
ARM GAS  /tmp/ccRrg1qB.s 			page 69


 3820              	LSM303AGR_ACC_W_SelfTest:
 3821              	.LFB329:
 3822              		.loc 1 1353 0
 3823              		.cfi_startproc
 3824              		@ args = 0, pretend = 0, frame = 16
 3825              		@ frame_needed = 0, uses_anonymous_args = 0
 3826 1580 00B5     		push	{lr}
 3827              		.cfi_def_cfa_offset 4
 3828              		.cfi_offset 14, -4
 3829 1582 85B0     		sub	sp, sp, #20
 3830              		.cfi_def_cfa_offset 24
 3831 1584 0190     		str	r0, [sp, #4]
 3832 1586 0B46     		mov	r3, r1
 3833 1588 8DF80330 		strb	r3, [sp, #3]
 3834              		.loc 1 1356 0
 3835 158c 0DF10F03 		add	r3, sp, #15
 3836 1590 0198     		ldr	r0, [sp, #4]
 3837 1592 2321     		movs	r1, #35
 3838 1594 1A46     		mov	r2, r3
 3839 1596 0123     		movs	r3, #1
 3840 1598 FFF7FEFF 		bl	LSM303AGR_ACC_ReadReg
 3841 159c 0346     		mov	r3, r0
 3842 159e 002B     		cmp	r3, #0
 3843 15a0 01D1     		bne	.L248
 3844              		.loc 1 1357 0
 3845 15a2 0023     		movs	r3, #0
 3846 15a4 1CE0     		b	.L251
 3847              	.L248:
 3848              		.loc 1 1359 0
 3849 15a6 9DF80F30 		ldrb	r3, [sp, #15]	@ zero_extendqisi2
 3850 15aa 23F00603 		bic	r3, r3, #6
 3851 15ae DBB2     		uxtb	r3, r3
 3852 15b0 8DF80F30 		strb	r3, [sp, #15]
 3853              		.loc 1 1360 0
 3854 15b4 9DF80F20 		ldrb	r2, [sp, #15]	@ zero_extendqisi2
 3855 15b8 9DF80330 		ldrb	r3, [sp, #3]
 3856 15bc 1343     		orrs	r3, r3, r2
 3857 15be DBB2     		uxtb	r3, r3
 3858 15c0 8DF80F30 		strb	r3, [sp, #15]
 3859              		.loc 1 1362 0
 3860 15c4 0DF10F03 		add	r3, sp, #15
 3861 15c8 0198     		ldr	r0, [sp, #4]
 3862 15ca 2321     		movs	r1, #35
 3863 15cc 1A46     		mov	r2, r3
 3864 15ce 0123     		movs	r3, #1
 3865 15d0 FFF7FEFF 		bl	LSM303AGR_ACC_WriteReg
 3866 15d4 0346     		mov	r3, r0
 3867 15d6 002B     		cmp	r3, #0
 3868 15d8 01D1     		bne	.L250
 3869              		.loc 1 1363 0
 3870 15da 0023     		movs	r3, #0
 3871 15dc 00E0     		b	.L251
 3872              	.L250:
 3873              		.loc 1 1365 0
 3874 15de 0123     		movs	r3, #1
 3875              	.L251:
 3876              		.loc 1 1366 0
ARM GAS  /tmp/ccRrg1qB.s 			page 70


 3877 15e0 1846     		mov	r0, r3
 3878 15e2 05B0     		add	sp, sp, #20
 3879              		@ sp needed
 3880 15e4 5DF804FB 		ldr	pc, [sp], #4
 3881              		.cfi_endproc
 3882              	.LFE329:
 3883              		.size	LSM303AGR_ACC_W_SelfTest, .-LSM303AGR_ACC_W_SelfTest
 3884              		.align	2
 3885 15e8 AFF30080 		.p2align 4,,15
 3885      AFF30080 
 3886              		.global	LSM303AGR_ACC_R_SelfTest
 3887              		.thumb
 3888              		.thumb_func
 3889              		.type	LSM303AGR_ACC_R_SelfTest, %function
 3890              	LSM303AGR_ACC_R_SelfTest:
 3891              	.LFB330:
 3892              		.loc 1 1376 0
 3893              		.cfi_startproc
 3894              		@ args = 0, pretend = 0, frame = 8
 3895              		@ frame_needed = 0, uses_anonymous_args = 0
 3896 15f0 00B5     		push	{lr}
 3897              		.cfi_def_cfa_offset 4
 3898              		.cfi_offset 14, -4
 3899 15f2 83B0     		sub	sp, sp, #12
 3900              		.cfi_def_cfa_offset 16
 3901 15f4 0190     		str	r0, [sp, #4]
 3902 15f6 0091     		str	r1, [sp]
 3903              		.loc 1 1377 0
 3904 15f8 0198     		ldr	r0, [sp, #4]
 3905 15fa 2321     		movs	r1, #35
 3906 15fc 009A     		ldr	r2, [sp]
 3907 15fe 0123     		movs	r3, #1
 3908 1600 FFF7FEFF 		bl	LSM303AGR_ACC_ReadReg
 3909 1604 0346     		mov	r3, r0
 3910 1606 002B     		cmp	r3, #0
 3911 1608 01D1     		bne	.L253
 3912              		.loc 1 1378 0
 3913 160a 0023     		movs	r3, #0
 3914 160c 07E0     		b	.L254
 3915              	.L253:
 3916              		.loc 1 1380 0
 3917 160e 009B     		ldr	r3, [sp]
 3918 1610 1B78     		ldrb	r3, [r3]	@ zero_extendqisi2
 3919 1612 03F00603 		and	r3, r3, #6
 3920 1616 DAB2     		uxtb	r2, r3
 3921 1618 009B     		ldr	r3, [sp]
 3922 161a 1A70     		strb	r2, [r3]
 3923              		.loc 1 1382 0
 3924 161c 0123     		movs	r3, #1
 3925              	.L254:
 3926              		.loc 1 1383 0
 3927 161e 1846     		mov	r0, r3
 3928 1620 03B0     		add	sp, sp, #12
 3929              		@ sp needed
 3930 1622 5DF804FB 		ldr	pc, [sp], #4
 3931              		.cfi_endproc
 3932              	.LFE330:
ARM GAS  /tmp/ccRrg1qB.s 			page 71


 3933              		.size	LSM303AGR_ACC_R_SelfTest, .-LSM303AGR_ACC_R_SelfTest
 3934 1626 00BF     		.align	2
 3935 1628 AFF30080 		.p2align 4,,15
 3935      AFF30080 
 3936              		.global	LSM303AGR_ACC_W_HiRes
 3937              		.thumb
 3938              		.thumb_func
 3939              		.type	LSM303AGR_ACC_W_HiRes, %function
 3940              	LSM303AGR_ACC_W_HiRes:
 3941              	.LFB331:
 3942              		.loc 1 1393 0
 3943              		.cfi_startproc
 3944              		@ args = 0, pretend = 0, frame = 16
 3945              		@ frame_needed = 0, uses_anonymous_args = 0
 3946 1630 00B5     		push	{lr}
 3947              		.cfi_def_cfa_offset 4
 3948              		.cfi_offset 14, -4
 3949 1632 85B0     		sub	sp, sp, #20
 3950              		.cfi_def_cfa_offset 24
 3951 1634 0190     		str	r0, [sp, #4]
 3952 1636 0B46     		mov	r3, r1
 3953 1638 8DF80330 		strb	r3, [sp, #3]
 3954              		.loc 1 1396 0
 3955 163c 0DF10F03 		add	r3, sp, #15
 3956 1640 0198     		ldr	r0, [sp, #4]
 3957 1642 2321     		movs	r1, #35
 3958 1644 1A46     		mov	r2, r3
 3959 1646 0123     		movs	r3, #1
 3960 1648 FFF7FEFF 		bl	LSM303AGR_ACC_ReadReg
 3961 164c 0346     		mov	r3, r0
 3962 164e 002B     		cmp	r3, #0
 3963 1650 01D1     		bne	.L256
 3964              		.loc 1 1397 0
 3965 1652 0023     		movs	r3, #0
 3966 1654 1CE0     		b	.L259
 3967              	.L256:
 3968              		.loc 1 1399 0
 3969 1656 9DF80F30 		ldrb	r3, [sp, #15]	@ zero_extendqisi2
 3970 165a 23F00803 		bic	r3, r3, #8
 3971 165e DBB2     		uxtb	r3, r3
 3972 1660 8DF80F30 		strb	r3, [sp, #15]
 3973              		.loc 1 1400 0
 3974 1664 9DF80F20 		ldrb	r2, [sp, #15]	@ zero_extendqisi2
 3975 1668 9DF80330 		ldrb	r3, [sp, #3]
 3976 166c 1343     		orrs	r3, r3, r2
 3977 166e DBB2     		uxtb	r3, r3
 3978 1670 8DF80F30 		strb	r3, [sp, #15]
 3979              		.loc 1 1402 0
 3980 1674 0DF10F03 		add	r3, sp, #15
 3981 1678 0198     		ldr	r0, [sp, #4]
 3982 167a 2321     		movs	r1, #35
 3983 167c 1A46     		mov	r2, r3
 3984 167e 0123     		movs	r3, #1
 3985 1680 FFF7FEFF 		bl	LSM303AGR_ACC_WriteReg
 3986 1684 0346     		mov	r3, r0
 3987 1686 002B     		cmp	r3, #0
 3988 1688 01D1     		bne	.L258
ARM GAS  /tmp/ccRrg1qB.s 			page 72


 3989              		.loc 1 1403 0
 3990 168a 0023     		movs	r3, #0
 3991 168c 00E0     		b	.L259
 3992              	.L258:
 3993              		.loc 1 1405 0
 3994 168e 0123     		movs	r3, #1
 3995              	.L259:
 3996              		.loc 1 1406 0
 3997 1690 1846     		mov	r0, r3
 3998 1692 05B0     		add	sp, sp, #20
 3999              		@ sp needed
 4000 1694 5DF804FB 		ldr	pc, [sp], #4
 4001              		.cfi_endproc
 4002              	.LFE331:
 4003              		.size	LSM303AGR_ACC_W_HiRes, .-LSM303AGR_ACC_W_HiRes
 4004              		.align	2
 4005 1698 AFF30080 		.p2align 4,,15
 4005      AFF30080 
 4006              		.global	LSM303AGR_ACC_R_HiRes
 4007              		.thumb
 4008              		.thumb_func
 4009              		.type	LSM303AGR_ACC_R_HiRes, %function
 4010              	LSM303AGR_ACC_R_HiRes:
 4011              	.LFB332:
 4012              		.loc 1 1416 0
 4013              		.cfi_startproc
 4014              		@ args = 0, pretend = 0, frame = 8
 4015              		@ frame_needed = 0, uses_anonymous_args = 0
 4016 16a0 00B5     		push	{lr}
 4017              		.cfi_def_cfa_offset 4
 4018              		.cfi_offset 14, -4
 4019 16a2 83B0     		sub	sp, sp, #12
 4020              		.cfi_def_cfa_offset 16
 4021 16a4 0190     		str	r0, [sp, #4]
 4022 16a6 0091     		str	r1, [sp]
 4023              		.loc 1 1417 0
 4024 16a8 0198     		ldr	r0, [sp, #4]
 4025 16aa 2321     		movs	r1, #35
 4026 16ac 009A     		ldr	r2, [sp]
 4027 16ae 0123     		movs	r3, #1
 4028 16b0 FFF7FEFF 		bl	LSM303AGR_ACC_ReadReg
 4029 16b4 0346     		mov	r3, r0
 4030 16b6 002B     		cmp	r3, #0
 4031 16b8 01D1     		bne	.L261
 4032              		.loc 1 1418 0
 4033 16ba 0023     		movs	r3, #0
 4034 16bc 07E0     		b	.L262
 4035              	.L261:
 4036              		.loc 1 1420 0
 4037 16be 009B     		ldr	r3, [sp]
 4038 16c0 1B78     		ldrb	r3, [r3]	@ zero_extendqisi2
 4039 16c2 03F00803 		and	r3, r3, #8
 4040 16c6 DAB2     		uxtb	r2, r3
 4041 16c8 009B     		ldr	r3, [sp]
 4042 16ca 1A70     		strb	r2, [r3]
 4043              		.loc 1 1422 0
 4044 16cc 0123     		movs	r3, #1
ARM GAS  /tmp/ccRrg1qB.s 			page 73


 4045              	.L262:
 4046              		.loc 1 1423 0
 4047 16ce 1846     		mov	r0, r3
 4048 16d0 03B0     		add	sp, sp, #12
 4049              		@ sp needed
 4050 16d2 5DF804FB 		ldr	pc, [sp], #4
 4051              		.cfi_endproc
 4052              	.LFE332:
 4053              		.size	LSM303AGR_ACC_R_HiRes, .-LSM303AGR_ACC_R_HiRes
 4054 16d6 00BF     		.align	2
 4055 16d8 AFF30080 		.p2align 4,,15
 4055      AFF30080 
 4056              		.global	LSM303AGR_ACC_W_LittleBigEndian
 4057              		.thumb
 4058              		.thumb_func
 4059              		.type	LSM303AGR_ACC_W_LittleBigEndian, %function
 4060              	LSM303AGR_ACC_W_LittleBigEndian:
 4061              	.LFB333:
 4062              		.loc 1 1433 0
 4063              		.cfi_startproc
 4064              		@ args = 0, pretend = 0, frame = 16
 4065              		@ frame_needed = 0, uses_anonymous_args = 0
 4066 16e0 00B5     		push	{lr}
 4067              		.cfi_def_cfa_offset 4
 4068              		.cfi_offset 14, -4
 4069 16e2 85B0     		sub	sp, sp, #20
 4070              		.cfi_def_cfa_offset 24
 4071 16e4 0190     		str	r0, [sp, #4]
 4072 16e6 0B46     		mov	r3, r1
 4073 16e8 8DF80330 		strb	r3, [sp, #3]
 4074              		.loc 1 1436 0
 4075 16ec 0DF10F03 		add	r3, sp, #15
 4076 16f0 0198     		ldr	r0, [sp, #4]
 4077 16f2 2321     		movs	r1, #35
 4078 16f4 1A46     		mov	r2, r3
 4079 16f6 0123     		movs	r3, #1
 4080 16f8 FFF7FEFF 		bl	LSM303AGR_ACC_ReadReg
 4081 16fc 0346     		mov	r3, r0
 4082 16fe 002B     		cmp	r3, #0
 4083 1700 01D1     		bne	.L264
 4084              		.loc 1 1437 0
 4085 1702 0023     		movs	r3, #0
 4086 1704 1CE0     		b	.L267
 4087              	.L264:
 4088              		.loc 1 1439 0
 4089 1706 9DF80F30 		ldrb	r3, [sp, #15]	@ zero_extendqisi2
 4090 170a 23F04003 		bic	r3, r3, #64
 4091 170e DBB2     		uxtb	r3, r3
 4092 1710 8DF80F30 		strb	r3, [sp, #15]
 4093              		.loc 1 1440 0
 4094 1714 9DF80F20 		ldrb	r2, [sp, #15]	@ zero_extendqisi2
 4095 1718 9DF80330 		ldrb	r3, [sp, #3]
 4096 171c 1343     		orrs	r3, r3, r2
 4097 171e DBB2     		uxtb	r3, r3
 4098 1720 8DF80F30 		strb	r3, [sp, #15]
 4099              		.loc 1 1442 0
 4100 1724 0DF10F03 		add	r3, sp, #15
ARM GAS  /tmp/ccRrg1qB.s 			page 74


 4101 1728 0198     		ldr	r0, [sp, #4]
 4102 172a 2321     		movs	r1, #35
 4103 172c 1A46     		mov	r2, r3
 4104 172e 0123     		movs	r3, #1
 4105 1730 FFF7FEFF 		bl	LSM303AGR_ACC_WriteReg
 4106 1734 0346     		mov	r3, r0
 4107 1736 002B     		cmp	r3, #0
 4108 1738 01D1     		bne	.L266
 4109              		.loc 1 1443 0
 4110 173a 0023     		movs	r3, #0
 4111 173c 00E0     		b	.L267
 4112              	.L266:
 4113              		.loc 1 1445 0
 4114 173e 0123     		movs	r3, #1
 4115              	.L267:
 4116              		.loc 1 1446 0
 4117 1740 1846     		mov	r0, r3
 4118 1742 05B0     		add	sp, sp, #20
 4119              		@ sp needed
 4120 1744 5DF804FB 		ldr	pc, [sp], #4
 4121              		.cfi_endproc
 4122              	.LFE333:
 4123              		.size	LSM303AGR_ACC_W_LittleBigEndian, .-LSM303AGR_ACC_W_LittleBigEndian
 4124              		.align	2
 4125 1748 AFF30080 		.p2align 4,,15
 4125      AFF30080 
 4126              		.global	LSM303AGR_ACC_R_LittleBigEndian
 4127              		.thumb
 4128              		.thumb_func
 4129              		.type	LSM303AGR_ACC_R_LittleBigEndian, %function
 4130              	LSM303AGR_ACC_R_LittleBigEndian:
 4131              	.LFB334:
 4132              		.loc 1 1456 0
 4133              		.cfi_startproc
 4134              		@ args = 0, pretend = 0, frame = 8
 4135              		@ frame_needed = 0, uses_anonymous_args = 0
 4136 1750 00B5     		push	{lr}
 4137              		.cfi_def_cfa_offset 4
 4138              		.cfi_offset 14, -4
 4139 1752 83B0     		sub	sp, sp, #12
 4140              		.cfi_def_cfa_offset 16
 4141 1754 0190     		str	r0, [sp, #4]
 4142 1756 0091     		str	r1, [sp]
 4143              		.loc 1 1457 0
 4144 1758 0198     		ldr	r0, [sp, #4]
 4145 175a 2321     		movs	r1, #35
 4146 175c 009A     		ldr	r2, [sp]
 4147 175e 0123     		movs	r3, #1
 4148 1760 FFF7FEFF 		bl	LSM303AGR_ACC_ReadReg
 4149 1764 0346     		mov	r3, r0
 4150 1766 002B     		cmp	r3, #0
 4151 1768 01D1     		bne	.L269
 4152              		.loc 1 1458 0
 4153 176a 0023     		movs	r3, #0
 4154 176c 07E0     		b	.L270
 4155              	.L269:
 4156              		.loc 1 1460 0
ARM GAS  /tmp/ccRrg1qB.s 			page 75


 4157 176e 009B     		ldr	r3, [sp]
 4158 1770 1B78     		ldrb	r3, [r3]	@ zero_extendqisi2
 4159 1772 03F04003 		and	r3, r3, #64
 4160 1776 DAB2     		uxtb	r2, r3
 4161 1778 009B     		ldr	r3, [sp]
 4162 177a 1A70     		strb	r2, [r3]
 4163              		.loc 1 1462 0
 4164 177c 0123     		movs	r3, #1
 4165              	.L270:
 4166              		.loc 1 1463 0
 4167 177e 1846     		mov	r0, r3
 4168 1780 03B0     		add	sp, sp, #12
 4169              		@ sp needed
 4170 1782 5DF804FB 		ldr	pc, [sp], #4
 4171              		.cfi_endproc
 4172              	.LFE334:
 4173              		.size	LSM303AGR_ACC_R_LittleBigEndian, .-LSM303AGR_ACC_R_LittleBigEndian
 4174 1786 00BF     		.align	2
 4175 1788 AFF30080 		.p2align 4,,15
 4175      AFF30080 
 4176              		.global	LSM303AGR_ACC_W_4D_on_INT2
 4177              		.thumb
 4178              		.thumb_func
 4179              		.type	LSM303AGR_ACC_W_4D_on_INT2, %function
 4180              	LSM303AGR_ACC_W_4D_on_INT2:
 4181              	.LFB335:
 4182              		.loc 1 1473 0
 4183              		.cfi_startproc
 4184              		@ args = 0, pretend = 0, frame = 16
 4185              		@ frame_needed = 0, uses_anonymous_args = 0
 4186 1790 00B5     		push	{lr}
 4187              		.cfi_def_cfa_offset 4
 4188              		.cfi_offset 14, -4
 4189 1792 85B0     		sub	sp, sp, #20
 4190              		.cfi_def_cfa_offset 24
 4191 1794 0190     		str	r0, [sp, #4]
 4192 1796 0B46     		mov	r3, r1
 4193 1798 8DF80330 		strb	r3, [sp, #3]
 4194              		.loc 1 1476 0
 4195 179c 0DF10F03 		add	r3, sp, #15
 4196 17a0 0198     		ldr	r0, [sp, #4]
 4197 17a2 2421     		movs	r1, #36
 4198 17a4 1A46     		mov	r2, r3
 4199 17a6 0123     		movs	r3, #1
 4200 17a8 FFF7FEFF 		bl	LSM303AGR_ACC_ReadReg
 4201 17ac 0346     		mov	r3, r0
 4202 17ae 002B     		cmp	r3, #0
 4203 17b0 01D1     		bne	.L272
 4204              		.loc 1 1477 0
 4205 17b2 0023     		movs	r3, #0
 4206 17b4 1CE0     		b	.L275
 4207              	.L272:
 4208              		.loc 1 1479 0
 4209 17b6 9DF80F30 		ldrb	r3, [sp, #15]	@ zero_extendqisi2
 4210 17ba 23F00103 		bic	r3, r3, #1
 4211 17be DBB2     		uxtb	r3, r3
 4212 17c0 8DF80F30 		strb	r3, [sp, #15]
ARM GAS  /tmp/ccRrg1qB.s 			page 76


 4213              		.loc 1 1480 0
 4214 17c4 9DF80F20 		ldrb	r2, [sp, #15]	@ zero_extendqisi2
 4215 17c8 9DF80330 		ldrb	r3, [sp, #3]
 4216 17cc 1343     		orrs	r3, r3, r2
 4217 17ce DBB2     		uxtb	r3, r3
 4218 17d0 8DF80F30 		strb	r3, [sp, #15]
 4219              		.loc 1 1482 0
 4220 17d4 0DF10F03 		add	r3, sp, #15
 4221 17d8 0198     		ldr	r0, [sp, #4]
 4222 17da 2421     		movs	r1, #36
 4223 17dc 1A46     		mov	r2, r3
 4224 17de 0123     		movs	r3, #1
 4225 17e0 FFF7FEFF 		bl	LSM303AGR_ACC_WriteReg
 4226 17e4 0346     		mov	r3, r0
 4227 17e6 002B     		cmp	r3, #0
 4228 17e8 01D1     		bne	.L274
 4229              		.loc 1 1483 0
 4230 17ea 0023     		movs	r3, #0
 4231 17ec 00E0     		b	.L275
 4232              	.L274:
 4233              		.loc 1 1485 0
 4234 17ee 0123     		movs	r3, #1
 4235              	.L275:
 4236              		.loc 1 1486 0
 4237 17f0 1846     		mov	r0, r3
 4238 17f2 05B0     		add	sp, sp, #20
 4239              		@ sp needed
 4240 17f4 5DF804FB 		ldr	pc, [sp], #4
 4241              		.cfi_endproc
 4242              	.LFE335:
 4243              		.size	LSM303AGR_ACC_W_4D_on_INT2, .-LSM303AGR_ACC_W_4D_on_INT2
 4244              		.align	2
 4245 17f8 AFF30080 		.p2align 4,,15
 4245      AFF30080 
 4246              		.global	LSM303AGR_ACC_R_4D_on_INT2
 4247              		.thumb
 4248              		.thumb_func
 4249              		.type	LSM303AGR_ACC_R_4D_on_INT2, %function
 4250              	LSM303AGR_ACC_R_4D_on_INT2:
 4251              	.LFB336:
 4252              		.loc 1 1496 0
 4253              		.cfi_startproc
 4254              		@ args = 0, pretend = 0, frame = 8
 4255              		@ frame_needed = 0, uses_anonymous_args = 0
 4256 1800 00B5     		push	{lr}
 4257              		.cfi_def_cfa_offset 4
 4258              		.cfi_offset 14, -4
 4259 1802 83B0     		sub	sp, sp, #12
 4260              		.cfi_def_cfa_offset 16
 4261 1804 0190     		str	r0, [sp, #4]
 4262 1806 0091     		str	r1, [sp]
 4263              		.loc 1 1497 0
 4264 1808 0198     		ldr	r0, [sp, #4]
 4265 180a 2421     		movs	r1, #36
 4266 180c 009A     		ldr	r2, [sp]
 4267 180e 0123     		movs	r3, #1
 4268 1810 FFF7FEFF 		bl	LSM303AGR_ACC_ReadReg
ARM GAS  /tmp/ccRrg1qB.s 			page 77


 4269 1814 0346     		mov	r3, r0
 4270 1816 002B     		cmp	r3, #0
 4271 1818 01D1     		bne	.L277
 4272              		.loc 1 1498 0
 4273 181a 0023     		movs	r3, #0
 4274 181c 07E0     		b	.L278
 4275              	.L277:
 4276              		.loc 1 1500 0
 4277 181e 009B     		ldr	r3, [sp]
 4278 1820 1B78     		ldrb	r3, [r3]	@ zero_extendqisi2
 4279 1822 03F00103 		and	r3, r3, #1
 4280 1826 DAB2     		uxtb	r2, r3
 4281 1828 009B     		ldr	r3, [sp]
 4282 182a 1A70     		strb	r2, [r3]
 4283              		.loc 1 1502 0
 4284 182c 0123     		movs	r3, #1
 4285              	.L278:
 4286              		.loc 1 1503 0
 4287 182e 1846     		mov	r0, r3
 4288 1830 03B0     		add	sp, sp, #12
 4289              		@ sp needed
 4290 1832 5DF804FB 		ldr	pc, [sp], #4
 4291              		.cfi_endproc
 4292              	.LFE336:
 4293              		.size	LSM303AGR_ACC_R_4D_on_INT2, .-LSM303AGR_ACC_R_4D_on_INT2
 4294 1836 00BF     		.align	2
 4295 1838 AFF30080 		.p2align 4,,15
 4295      AFF30080 
 4296              		.global	LSM303AGR_ACC_W_LatchInterrupt_on_INT2
 4297              		.thumb
 4298              		.thumb_func
 4299              		.type	LSM303AGR_ACC_W_LatchInterrupt_on_INT2, %function
 4300              	LSM303AGR_ACC_W_LatchInterrupt_on_INT2:
 4301              	.LFB337:
 4302              		.loc 1 1513 0
 4303              		.cfi_startproc
 4304              		@ args = 0, pretend = 0, frame = 16
 4305              		@ frame_needed = 0, uses_anonymous_args = 0
 4306 1840 00B5     		push	{lr}
 4307              		.cfi_def_cfa_offset 4
 4308              		.cfi_offset 14, -4
 4309 1842 85B0     		sub	sp, sp, #20
 4310              		.cfi_def_cfa_offset 24
 4311 1844 0190     		str	r0, [sp, #4]
 4312 1846 0B46     		mov	r3, r1
 4313 1848 8DF80330 		strb	r3, [sp, #3]
 4314              		.loc 1 1516 0
 4315 184c 0DF10F03 		add	r3, sp, #15
 4316 1850 0198     		ldr	r0, [sp, #4]
 4317 1852 2421     		movs	r1, #36
 4318 1854 1A46     		mov	r2, r3
 4319 1856 0123     		movs	r3, #1
 4320 1858 FFF7FEFF 		bl	LSM303AGR_ACC_ReadReg
 4321 185c 0346     		mov	r3, r0
 4322 185e 002B     		cmp	r3, #0
 4323 1860 01D1     		bne	.L280
 4324              		.loc 1 1517 0
ARM GAS  /tmp/ccRrg1qB.s 			page 78


 4325 1862 0023     		movs	r3, #0
 4326 1864 1CE0     		b	.L283
 4327              	.L280:
 4328              		.loc 1 1519 0
 4329 1866 9DF80F30 		ldrb	r3, [sp, #15]	@ zero_extendqisi2
 4330 186a 23F00203 		bic	r3, r3, #2
 4331 186e DBB2     		uxtb	r3, r3
 4332 1870 8DF80F30 		strb	r3, [sp, #15]
 4333              		.loc 1 1520 0
 4334 1874 9DF80F20 		ldrb	r2, [sp, #15]	@ zero_extendqisi2
 4335 1878 9DF80330 		ldrb	r3, [sp, #3]
 4336 187c 1343     		orrs	r3, r3, r2
 4337 187e DBB2     		uxtb	r3, r3
 4338 1880 8DF80F30 		strb	r3, [sp, #15]
 4339              		.loc 1 1522 0
 4340 1884 0DF10F03 		add	r3, sp, #15
 4341 1888 0198     		ldr	r0, [sp, #4]
 4342 188a 2421     		movs	r1, #36
 4343 188c 1A46     		mov	r2, r3
 4344 188e 0123     		movs	r3, #1
 4345 1890 FFF7FEFF 		bl	LSM303AGR_ACC_WriteReg
 4346 1894 0346     		mov	r3, r0
 4347 1896 002B     		cmp	r3, #0
 4348 1898 01D1     		bne	.L282
 4349              		.loc 1 1523 0
 4350 189a 0023     		movs	r3, #0
 4351 189c 00E0     		b	.L283
 4352              	.L282:
 4353              		.loc 1 1525 0
 4354 189e 0123     		movs	r3, #1
 4355              	.L283:
 4356              		.loc 1 1526 0
 4357 18a0 1846     		mov	r0, r3
 4358 18a2 05B0     		add	sp, sp, #20
 4359              		@ sp needed
 4360 18a4 5DF804FB 		ldr	pc, [sp], #4
 4361              		.cfi_endproc
 4362              	.LFE337:
 4363              		.size	LSM303AGR_ACC_W_LatchInterrupt_on_INT2, .-LSM303AGR_ACC_W_LatchInterrupt_on_INT2
 4364              		.align	2
 4365 18a8 AFF30080 		.p2align 4,,15
 4365      AFF30080 
 4366              		.global	LSM303AGR_ACC_R_LatchInterrupt_on_INT2
 4367              		.thumb
 4368              		.thumb_func
 4369              		.type	LSM303AGR_ACC_R_LatchInterrupt_on_INT2, %function
 4370              	LSM303AGR_ACC_R_LatchInterrupt_on_INT2:
 4371              	.LFB338:
 4372              		.loc 1 1536 0
 4373              		.cfi_startproc
 4374              		@ args = 0, pretend = 0, frame = 8
 4375              		@ frame_needed = 0, uses_anonymous_args = 0
 4376 18b0 00B5     		push	{lr}
 4377              		.cfi_def_cfa_offset 4
 4378              		.cfi_offset 14, -4
 4379 18b2 83B0     		sub	sp, sp, #12
 4380              		.cfi_def_cfa_offset 16
ARM GAS  /tmp/ccRrg1qB.s 			page 79


 4381 18b4 0190     		str	r0, [sp, #4]
 4382 18b6 0091     		str	r1, [sp]
 4383              		.loc 1 1537 0
 4384 18b8 0198     		ldr	r0, [sp, #4]
 4385 18ba 2421     		movs	r1, #36
 4386 18bc 009A     		ldr	r2, [sp]
 4387 18be 0123     		movs	r3, #1
 4388 18c0 FFF7FEFF 		bl	LSM303AGR_ACC_ReadReg
 4389 18c4 0346     		mov	r3, r0
 4390 18c6 002B     		cmp	r3, #0
 4391 18c8 01D1     		bne	.L285
 4392              		.loc 1 1538 0
 4393 18ca 0023     		movs	r3, #0
 4394 18cc 07E0     		b	.L286
 4395              	.L285:
 4396              		.loc 1 1540 0
 4397 18ce 009B     		ldr	r3, [sp]
 4398 18d0 1B78     		ldrb	r3, [r3]	@ zero_extendqisi2
 4399 18d2 03F00203 		and	r3, r3, #2
 4400 18d6 DAB2     		uxtb	r2, r3
 4401 18d8 009B     		ldr	r3, [sp]
 4402 18da 1A70     		strb	r2, [r3]
 4403              		.loc 1 1542 0
 4404 18dc 0123     		movs	r3, #1
 4405              	.L286:
 4406              		.loc 1 1543 0
 4407 18de 1846     		mov	r0, r3
 4408 18e0 03B0     		add	sp, sp, #12
 4409              		@ sp needed
 4410 18e2 5DF804FB 		ldr	pc, [sp], #4
 4411              		.cfi_endproc
 4412              	.LFE338:
 4413              		.size	LSM303AGR_ACC_R_LatchInterrupt_on_INT2, .-LSM303AGR_ACC_R_LatchInterrupt_on_INT2
 4414 18e6 00BF     		.align	2
 4415 18e8 AFF30080 		.p2align 4,,15
 4415      AFF30080 
 4416              		.global	LSM303AGR_ACC_W_4D_on_INT1
 4417              		.thumb
 4418              		.thumb_func
 4419              		.type	LSM303AGR_ACC_W_4D_on_INT1, %function
 4420              	LSM303AGR_ACC_W_4D_on_INT1:
 4421              	.LFB339:
 4422              		.loc 1 1553 0
 4423              		.cfi_startproc
 4424              		@ args = 0, pretend = 0, frame = 16
 4425              		@ frame_needed = 0, uses_anonymous_args = 0
 4426 18f0 00B5     		push	{lr}
 4427              		.cfi_def_cfa_offset 4
 4428              		.cfi_offset 14, -4
 4429 18f2 85B0     		sub	sp, sp, #20
 4430              		.cfi_def_cfa_offset 24
 4431 18f4 0190     		str	r0, [sp, #4]
 4432 18f6 0B46     		mov	r3, r1
 4433 18f8 8DF80330 		strb	r3, [sp, #3]
 4434              		.loc 1 1556 0
 4435 18fc 0DF10F03 		add	r3, sp, #15
 4436 1900 0198     		ldr	r0, [sp, #4]
ARM GAS  /tmp/ccRrg1qB.s 			page 80


 4437 1902 2421     		movs	r1, #36
 4438 1904 1A46     		mov	r2, r3
 4439 1906 0123     		movs	r3, #1
 4440 1908 FFF7FEFF 		bl	LSM303AGR_ACC_ReadReg
 4441 190c 0346     		mov	r3, r0
 4442 190e 002B     		cmp	r3, #0
 4443 1910 01D1     		bne	.L288
 4444              		.loc 1 1557 0
 4445 1912 0023     		movs	r3, #0
 4446 1914 1CE0     		b	.L291
 4447              	.L288:
 4448              		.loc 1 1559 0
 4449 1916 9DF80F30 		ldrb	r3, [sp, #15]	@ zero_extendqisi2
 4450 191a 23F00403 		bic	r3, r3, #4
 4451 191e DBB2     		uxtb	r3, r3
 4452 1920 8DF80F30 		strb	r3, [sp, #15]
 4453              		.loc 1 1560 0
 4454 1924 9DF80F20 		ldrb	r2, [sp, #15]	@ zero_extendqisi2
 4455 1928 9DF80330 		ldrb	r3, [sp, #3]
 4456 192c 1343     		orrs	r3, r3, r2
 4457 192e DBB2     		uxtb	r3, r3
 4458 1930 8DF80F30 		strb	r3, [sp, #15]
 4459              		.loc 1 1562 0
 4460 1934 0DF10F03 		add	r3, sp, #15
 4461 1938 0198     		ldr	r0, [sp, #4]
 4462 193a 2421     		movs	r1, #36
 4463 193c 1A46     		mov	r2, r3
 4464 193e 0123     		movs	r3, #1
 4465 1940 FFF7FEFF 		bl	LSM303AGR_ACC_WriteReg
 4466 1944 0346     		mov	r3, r0
 4467 1946 002B     		cmp	r3, #0
 4468 1948 01D1     		bne	.L290
 4469              		.loc 1 1563 0
 4470 194a 0023     		movs	r3, #0
 4471 194c 00E0     		b	.L291
 4472              	.L290:
 4473              		.loc 1 1565 0
 4474 194e 0123     		movs	r3, #1
 4475              	.L291:
 4476              		.loc 1 1566 0
 4477 1950 1846     		mov	r0, r3
 4478 1952 05B0     		add	sp, sp, #20
 4479              		@ sp needed
 4480 1954 5DF804FB 		ldr	pc, [sp], #4
 4481              		.cfi_endproc
 4482              	.LFE339:
 4483              		.size	LSM303AGR_ACC_W_4D_on_INT1, .-LSM303AGR_ACC_W_4D_on_INT1
 4484              		.align	2
 4485 1958 AFF30080 		.p2align 4,,15
 4485      AFF30080 
 4486              		.global	LSM303AGR_ACC_R_4D_on_INT1
 4487              		.thumb
 4488              		.thumb_func
 4489              		.type	LSM303AGR_ACC_R_4D_on_INT1, %function
 4490              	LSM303AGR_ACC_R_4D_on_INT1:
 4491              	.LFB340:
 4492              		.loc 1 1576 0
ARM GAS  /tmp/ccRrg1qB.s 			page 81


 4493              		.cfi_startproc
 4494              		@ args = 0, pretend = 0, frame = 8
 4495              		@ frame_needed = 0, uses_anonymous_args = 0
 4496 1960 00B5     		push	{lr}
 4497              		.cfi_def_cfa_offset 4
 4498              		.cfi_offset 14, -4
 4499 1962 83B0     		sub	sp, sp, #12
 4500              		.cfi_def_cfa_offset 16
 4501 1964 0190     		str	r0, [sp, #4]
 4502 1966 0091     		str	r1, [sp]
 4503              		.loc 1 1577 0
 4504 1968 0198     		ldr	r0, [sp, #4]
 4505 196a 2421     		movs	r1, #36
 4506 196c 009A     		ldr	r2, [sp]
 4507 196e 0123     		movs	r3, #1
 4508 1970 FFF7FEFF 		bl	LSM303AGR_ACC_ReadReg
 4509 1974 0346     		mov	r3, r0
 4510 1976 002B     		cmp	r3, #0
 4511 1978 01D1     		bne	.L293
 4512              		.loc 1 1578 0
 4513 197a 0023     		movs	r3, #0
 4514 197c 07E0     		b	.L294
 4515              	.L293:
 4516              		.loc 1 1580 0
 4517 197e 009B     		ldr	r3, [sp]
 4518 1980 1B78     		ldrb	r3, [r3]	@ zero_extendqisi2
 4519 1982 03F00403 		and	r3, r3, #4
 4520 1986 DAB2     		uxtb	r2, r3
 4521 1988 009B     		ldr	r3, [sp]
 4522 198a 1A70     		strb	r2, [r3]
 4523              		.loc 1 1582 0
 4524 198c 0123     		movs	r3, #1
 4525              	.L294:
 4526              		.loc 1 1583 0
 4527 198e 1846     		mov	r0, r3
 4528 1990 03B0     		add	sp, sp, #12
 4529              		@ sp needed
 4530 1992 5DF804FB 		ldr	pc, [sp], #4
 4531              		.cfi_endproc
 4532              	.LFE340:
 4533              		.size	LSM303AGR_ACC_R_4D_on_INT1, .-LSM303AGR_ACC_R_4D_on_INT1
 4534 1996 00BF     		.align	2
 4535 1998 AFF30080 		.p2align 4,,15
 4535      AFF30080 
 4536              		.global	LSM303AGR_ACC_W_LatchInterrupt_on_INT1
 4537              		.thumb
 4538              		.thumb_func
 4539              		.type	LSM303AGR_ACC_W_LatchInterrupt_on_INT1, %function
 4540              	LSM303AGR_ACC_W_LatchInterrupt_on_INT1:
 4541              	.LFB341:
 4542              		.loc 1 1593 0
 4543              		.cfi_startproc
 4544              		@ args = 0, pretend = 0, frame = 16
 4545              		@ frame_needed = 0, uses_anonymous_args = 0
 4546 19a0 00B5     		push	{lr}
 4547              		.cfi_def_cfa_offset 4
 4548              		.cfi_offset 14, -4
ARM GAS  /tmp/ccRrg1qB.s 			page 82


 4549 19a2 85B0     		sub	sp, sp, #20
 4550              		.cfi_def_cfa_offset 24
 4551 19a4 0190     		str	r0, [sp, #4]
 4552 19a6 0B46     		mov	r3, r1
 4553 19a8 8DF80330 		strb	r3, [sp, #3]
 4554              		.loc 1 1596 0
 4555 19ac 0DF10F03 		add	r3, sp, #15
 4556 19b0 0198     		ldr	r0, [sp, #4]
 4557 19b2 2421     		movs	r1, #36
 4558 19b4 1A46     		mov	r2, r3
 4559 19b6 0123     		movs	r3, #1
 4560 19b8 FFF7FEFF 		bl	LSM303AGR_ACC_ReadReg
 4561 19bc 0346     		mov	r3, r0
 4562 19be 002B     		cmp	r3, #0
 4563 19c0 01D1     		bne	.L296
 4564              		.loc 1 1597 0
 4565 19c2 0023     		movs	r3, #0
 4566 19c4 1CE0     		b	.L299
 4567              	.L296:
 4568              		.loc 1 1599 0
 4569 19c6 9DF80F30 		ldrb	r3, [sp, #15]	@ zero_extendqisi2
 4570 19ca 23F00803 		bic	r3, r3, #8
 4571 19ce DBB2     		uxtb	r3, r3
 4572 19d0 8DF80F30 		strb	r3, [sp, #15]
 4573              		.loc 1 1600 0
 4574 19d4 9DF80F20 		ldrb	r2, [sp, #15]	@ zero_extendqisi2
 4575 19d8 9DF80330 		ldrb	r3, [sp, #3]
 4576 19dc 1343     		orrs	r3, r3, r2
 4577 19de DBB2     		uxtb	r3, r3
 4578 19e0 8DF80F30 		strb	r3, [sp, #15]
 4579              		.loc 1 1602 0
 4580 19e4 0DF10F03 		add	r3, sp, #15
 4581 19e8 0198     		ldr	r0, [sp, #4]
 4582 19ea 2421     		movs	r1, #36
 4583 19ec 1A46     		mov	r2, r3
 4584 19ee 0123     		movs	r3, #1
 4585 19f0 FFF7FEFF 		bl	LSM303AGR_ACC_WriteReg
 4586 19f4 0346     		mov	r3, r0
 4587 19f6 002B     		cmp	r3, #0
 4588 19f8 01D1     		bne	.L298
 4589              		.loc 1 1603 0
 4590 19fa 0023     		movs	r3, #0
 4591 19fc 00E0     		b	.L299
 4592              	.L298:
 4593              		.loc 1 1605 0
 4594 19fe 0123     		movs	r3, #1
 4595              	.L299:
 4596              		.loc 1 1606 0
 4597 1a00 1846     		mov	r0, r3
 4598 1a02 05B0     		add	sp, sp, #20
 4599              		@ sp needed
 4600 1a04 5DF804FB 		ldr	pc, [sp], #4
 4601              		.cfi_endproc
 4602              	.LFE341:
 4603              		.size	LSM303AGR_ACC_W_LatchInterrupt_on_INT1, .-LSM303AGR_ACC_W_LatchInterrupt_on_INT1
 4604              		.align	2
 4605 1a08 AFF30080 		.p2align 4,,15
ARM GAS  /tmp/ccRrg1qB.s 			page 83


 4605      AFF30080 
 4606              		.global	LSM303AGR_ACC_R_LatchInterrupt_on_INT1
 4607              		.thumb
 4608              		.thumb_func
 4609              		.type	LSM303AGR_ACC_R_LatchInterrupt_on_INT1, %function
 4610              	LSM303AGR_ACC_R_LatchInterrupt_on_INT1:
 4611              	.LFB342:
 4612              		.loc 1 1616 0
 4613              		.cfi_startproc
 4614              		@ args = 0, pretend = 0, frame = 8
 4615              		@ frame_needed = 0, uses_anonymous_args = 0
 4616 1a10 00B5     		push	{lr}
 4617              		.cfi_def_cfa_offset 4
 4618              		.cfi_offset 14, -4
 4619 1a12 83B0     		sub	sp, sp, #12
 4620              		.cfi_def_cfa_offset 16
 4621 1a14 0190     		str	r0, [sp, #4]
 4622 1a16 0091     		str	r1, [sp]
 4623              		.loc 1 1617 0
 4624 1a18 0198     		ldr	r0, [sp, #4]
 4625 1a1a 2421     		movs	r1, #36
 4626 1a1c 009A     		ldr	r2, [sp]
 4627 1a1e 0123     		movs	r3, #1
 4628 1a20 FFF7FEFF 		bl	LSM303AGR_ACC_ReadReg
 4629 1a24 0346     		mov	r3, r0
 4630 1a26 002B     		cmp	r3, #0
 4631 1a28 01D1     		bne	.L301
 4632              		.loc 1 1618 0
 4633 1a2a 0023     		movs	r3, #0
 4634 1a2c 07E0     		b	.L302
 4635              	.L301:
 4636              		.loc 1 1620 0
 4637 1a2e 009B     		ldr	r3, [sp]
 4638 1a30 1B78     		ldrb	r3, [r3]	@ zero_extendqisi2
 4639 1a32 03F00803 		and	r3, r3, #8
 4640 1a36 DAB2     		uxtb	r2, r3
 4641 1a38 009B     		ldr	r3, [sp]
 4642 1a3a 1A70     		strb	r2, [r3]
 4643              		.loc 1 1622 0
 4644 1a3c 0123     		movs	r3, #1
 4645              	.L302:
 4646              		.loc 1 1623 0
 4647 1a3e 1846     		mov	r0, r3
 4648 1a40 03B0     		add	sp, sp, #12
 4649              		@ sp needed
 4650 1a42 5DF804FB 		ldr	pc, [sp], #4
 4651              		.cfi_endproc
 4652              	.LFE342:
 4653              		.size	LSM303AGR_ACC_R_LatchInterrupt_on_INT1, .-LSM303AGR_ACC_R_LatchInterrupt_on_INT1
 4654 1a46 00BF     		.align	2
 4655 1a48 AFF30080 		.p2align 4,,15
 4655      AFF30080 
 4656              		.global	LSM303AGR_ACC_W_FIFO_EN
 4657              		.thumb
 4658              		.thumb_func
 4659              		.type	LSM303AGR_ACC_W_FIFO_EN, %function
 4660              	LSM303AGR_ACC_W_FIFO_EN:
ARM GAS  /tmp/ccRrg1qB.s 			page 84


 4661              	.LFB343:
 4662              		.loc 1 1633 0
 4663              		.cfi_startproc
 4664              		@ args = 0, pretend = 0, frame = 16
 4665              		@ frame_needed = 0, uses_anonymous_args = 0
 4666 1a50 00B5     		push	{lr}
 4667              		.cfi_def_cfa_offset 4
 4668              		.cfi_offset 14, -4
 4669 1a52 85B0     		sub	sp, sp, #20
 4670              		.cfi_def_cfa_offset 24
 4671 1a54 0190     		str	r0, [sp, #4]
 4672 1a56 0B46     		mov	r3, r1
 4673 1a58 8DF80330 		strb	r3, [sp, #3]
 4674              		.loc 1 1636 0
 4675 1a5c 0DF10F03 		add	r3, sp, #15
 4676 1a60 0198     		ldr	r0, [sp, #4]
 4677 1a62 2421     		movs	r1, #36
 4678 1a64 1A46     		mov	r2, r3
 4679 1a66 0123     		movs	r3, #1
 4680 1a68 FFF7FEFF 		bl	LSM303AGR_ACC_ReadReg
 4681 1a6c 0346     		mov	r3, r0
 4682 1a6e 002B     		cmp	r3, #0
 4683 1a70 01D1     		bne	.L304
 4684              		.loc 1 1637 0
 4685 1a72 0023     		movs	r3, #0
 4686 1a74 1CE0     		b	.L307
 4687              	.L304:
 4688              		.loc 1 1639 0
 4689 1a76 9DF80F30 		ldrb	r3, [sp, #15]	@ zero_extendqisi2
 4690 1a7a 23F04003 		bic	r3, r3, #64
 4691 1a7e DBB2     		uxtb	r3, r3
 4692 1a80 8DF80F30 		strb	r3, [sp, #15]
 4693              		.loc 1 1640 0
 4694 1a84 9DF80F20 		ldrb	r2, [sp, #15]	@ zero_extendqisi2
 4695 1a88 9DF80330 		ldrb	r3, [sp, #3]
 4696 1a8c 1343     		orrs	r3, r3, r2
 4697 1a8e DBB2     		uxtb	r3, r3
 4698 1a90 8DF80F30 		strb	r3, [sp, #15]
 4699              		.loc 1 1642 0
 4700 1a94 0DF10F03 		add	r3, sp, #15
 4701 1a98 0198     		ldr	r0, [sp, #4]
 4702 1a9a 2421     		movs	r1, #36
 4703 1a9c 1A46     		mov	r2, r3
 4704 1a9e 0123     		movs	r3, #1
 4705 1aa0 FFF7FEFF 		bl	LSM303AGR_ACC_WriteReg
 4706 1aa4 0346     		mov	r3, r0
 4707 1aa6 002B     		cmp	r3, #0
 4708 1aa8 01D1     		bne	.L306
 4709              		.loc 1 1643 0
 4710 1aaa 0023     		movs	r3, #0
 4711 1aac 00E0     		b	.L307
 4712              	.L306:
 4713              		.loc 1 1645 0
 4714 1aae 0123     		movs	r3, #1
 4715              	.L307:
 4716              		.loc 1 1646 0
 4717 1ab0 1846     		mov	r0, r3
ARM GAS  /tmp/ccRrg1qB.s 			page 85


 4718 1ab2 05B0     		add	sp, sp, #20
 4719              		@ sp needed
 4720 1ab4 5DF804FB 		ldr	pc, [sp], #4
 4721              		.cfi_endproc
 4722              	.LFE343:
 4723              		.size	LSM303AGR_ACC_W_FIFO_EN, .-LSM303AGR_ACC_W_FIFO_EN
 4724              		.align	2
 4725 1ab8 AFF30080 		.p2align 4,,15
 4725      AFF30080 
 4726              		.global	LSM303AGR_ACC_R_FIFO_EN
 4727              		.thumb
 4728              		.thumb_func
 4729              		.type	LSM303AGR_ACC_R_FIFO_EN, %function
 4730              	LSM303AGR_ACC_R_FIFO_EN:
 4731              	.LFB344:
 4732              		.loc 1 1656 0
 4733              		.cfi_startproc
 4734              		@ args = 0, pretend = 0, frame = 8
 4735              		@ frame_needed = 0, uses_anonymous_args = 0
 4736 1ac0 00B5     		push	{lr}
 4737              		.cfi_def_cfa_offset 4
 4738              		.cfi_offset 14, -4
 4739 1ac2 83B0     		sub	sp, sp, #12
 4740              		.cfi_def_cfa_offset 16
 4741 1ac4 0190     		str	r0, [sp, #4]
 4742 1ac6 0091     		str	r1, [sp]
 4743              		.loc 1 1657 0
 4744 1ac8 0198     		ldr	r0, [sp, #4]
 4745 1aca 2421     		movs	r1, #36
 4746 1acc 009A     		ldr	r2, [sp]
 4747 1ace 0123     		movs	r3, #1
 4748 1ad0 FFF7FEFF 		bl	LSM303AGR_ACC_ReadReg
 4749 1ad4 0346     		mov	r3, r0
 4750 1ad6 002B     		cmp	r3, #0
 4751 1ad8 01D1     		bne	.L309
 4752              		.loc 1 1658 0
 4753 1ada 0023     		movs	r3, #0
 4754 1adc 07E0     		b	.L310
 4755              	.L309:
 4756              		.loc 1 1660 0
 4757 1ade 009B     		ldr	r3, [sp]
 4758 1ae0 1B78     		ldrb	r3, [r3]	@ zero_extendqisi2
 4759 1ae2 03F04003 		and	r3, r3, #64
 4760 1ae6 DAB2     		uxtb	r2, r3
 4761 1ae8 009B     		ldr	r3, [sp]
 4762 1aea 1A70     		strb	r2, [r3]
 4763              		.loc 1 1662 0
 4764 1aec 0123     		movs	r3, #1
 4765              	.L310:
 4766              		.loc 1 1663 0
 4767 1aee 1846     		mov	r0, r3
 4768 1af0 03B0     		add	sp, sp, #12
 4769              		@ sp needed
 4770 1af2 5DF804FB 		ldr	pc, [sp], #4
 4771              		.cfi_endproc
 4772              	.LFE344:
 4773              		.size	LSM303AGR_ACC_R_FIFO_EN, .-LSM303AGR_ACC_R_FIFO_EN
ARM GAS  /tmp/ccRrg1qB.s 			page 86


 4774 1af6 00BF     		.align	2
 4775 1af8 AFF30080 		.p2align 4,,15
 4775      AFF30080 
 4776              		.global	LSM303AGR_ACC_W_RebootMemory
 4777              		.thumb
 4778              		.thumb_func
 4779              		.type	LSM303AGR_ACC_W_RebootMemory, %function
 4780              	LSM303AGR_ACC_W_RebootMemory:
 4781              	.LFB345:
 4782              		.loc 1 1673 0
 4783              		.cfi_startproc
 4784              		@ args = 0, pretend = 0, frame = 16
 4785              		@ frame_needed = 0, uses_anonymous_args = 0
 4786 1b00 00B5     		push	{lr}
 4787              		.cfi_def_cfa_offset 4
 4788              		.cfi_offset 14, -4
 4789 1b02 85B0     		sub	sp, sp, #20
 4790              		.cfi_def_cfa_offset 24
 4791 1b04 0190     		str	r0, [sp, #4]
 4792 1b06 0B46     		mov	r3, r1
 4793 1b08 8DF80330 		strb	r3, [sp, #3]
 4794              		.loc 1 1676 0
 4795 1b0c 0DF10F03 		add	r3, sp, #15
 4796 1b10 0198     		ldr	r0, [sp, #4]
 4797 1b12 2421     		movs	r1, #36
 4798 1b14 1A46     		mov	r2, r3
 4799 1b16 0123     		movs	r3, #1
 4800 1b18 FFF7FEFF 		bl	LSM303AGR_ACC_ReadReg
 4801 1b1c 0346     		mov	r3, r0
 4802 1b1e 002B     		cmp	r3, #0
 4803 1b20 01D1     		bne	.L312
 4804              		.loc 1 1677 0
 4805 1b22 0023     		movs	r3, #0
 4806 1b24 1CE0     		b	.L315
 4807              	.L312:
 4808              		.loc 1 1679 0
 4809 1b26 9DF80F30 		ldrb	r3, [sp, #15]	@ zero_extendqisi2
 4810 1b2a 03F07F03 		and	r3, r3, #127
 4811 1b2e DBB2     		uxtb	r3, r3
 4812 1b30 8DF80F30 		strb	r3, [sp, #15]
 4813              		.loc 1 1680 0
 4814 1b34 9DF80F20 		ldrb	r2, [sp, #15]	@ zero_extendqisi2
 4815 1b38 9DF80330 		ldrb	r3, [sp, #3]
 4816 1b3c 1343     		orrs	r3, r3, r2
 4817 1b3e DBB2     		uxtb	r3, r3
 4818 1b40 8DF80F30 		strb	r3, [sp, #15]
 4819              		.loc 1 1682 0
 4820 1b44 0DF10F03 		add	r3, sp, #15
 4821 1b48 0198     		ldr	r0, [sp, #4]
 4822 1b4a 2421     		movs	r1, #36
 4823 1b4c 1A46     		mov	r2, r3
 4824 1b4e 0123     		movs	r3, #1
 4825 1b50 FFF7FEFF 		bl	LSM303AGR_ACC_WriteReg
 4826 1b54 0346     		mov	r3, r0
 4827 1b56 002B     		cmp	r3, #0
 4828 1b58 01D1     		bne	.L314
 4829              		.loc 1 1683 0
ARM GAS  /tmp/ccRrg1qB.s 			page 87


 4830 1b5a 0023     		movs	r3, #0
 4831 1b5c 00E0     		b	.L315
 4832              	.L314:
 4833              		.loc 1 1685 0
 4834 1b5e 0123     		movs	r3, #1
 4835              	.L315:
 4836              		.loc 1 1686 0
 4837 1b60 1846     		mov	r0, r3
 4838 1b62 05B0     		add	sp, sp, #20
 4839              		@ sp needed
 4840 1b64 5DF804FB 		ldr	pc, [sp], #4
 4841              		.cfi_endproc
 4842              	.LFE345:
 4843              		.size	LSM303AGR_ACC_W_RebootMemory, .-LSM303AGR_ACC_W_RebootMemory
 4844              		.align	2
 4845 1b68 AFF30080 		.p2align 4,,15
 4845      AFF30080 
 4846              		.global	LSM303AGR_ACC_R_RebootMemory
 4847              		.thumb
 4848              		.thumb_func
 4849              		.type	LSM303AGR_ACC_R_RebootMemory, %function
 4850              	LSM303AGR_ACC_R_RebootMemory:
 4851              	.LFB346:
 4852              		.loc 1 1696 0
 4853              		.cfi_startproc
 4854              		@ args = 0, pretend = 0, frame = 8
 4855              		@ frame_needed = 0, uses_anonymous_args = 0
 4856 1b70 00B5     		push	{lr}
 4857              		.cfi_def_cfa_offset 4
 4858              		.cfi_offset 14, -4
 4859 1b72 83B0     		sub	sp, sp, #12
 4860              		.cfi_def_cfa_offset 16
 4861 1b74 0190     		str	r0, [sp, #4]
 4862 1b76 0091     		str	r1, [sp]
 4863              		.loc 1 1697 0
 4864 1b78 0198     		ldr	r0, [sp, #4]
 4865 1b7a 2421     		movs	r1, #36
 4866 1b7c 009A     		ldr	r2, [sp]
 4867 1b7e 0123     		movs	r3, #1
 4868 1b80 FFF7FEFF 		bl	LSM303AGR_ACC_ReadReg
 4869 1b84 0346     		mov	r3, r0
 4870 1b86 002B     		cmp	r3, #0
 4871 1b88 01D1     		bne	.L317
 4872              		.loc 1 1698 0
 4873 1b8a 0023     		movs	r3, #0
 4874 1b8c 07E0     		b	.L318
 4875              	.L317:
 4876              		.loc 1 1700 0
 4877 1b8e 009B     		ldr	r3, [sp]
 4878 1b90 1B78     		ldrb	r3, [r3]	@ zero_extendqisi2
 4879 1b92 23F07F03 		bic	r3, r3, #127
 4880 1b96 DAB2     		uxtb	r2, r3
 4881 1b98 009B     		ldr	r3, [sp]
 4882 1b9a 1A70     		strb	r2, [r3]
 4883              		.loc 1 1702 0
 4884 1b9c 0123     		movs	r3, #1
 4885              	.L318:
ARM GAS  /tmp/ccRrg1qB.s 			page 88


 4886              		.loc 1 1703 0
 4887 1b9e 1846     		mov	r0, r3
 4888 1ba0 03B0     		add	sp, sp, #12
 4889              		@ sp needed
 4890 1ba2 5DF804FB 		ldr	pc, [sp], #4
 4891              		.cfi_endproc
 4892              	.LFE346:
 4893              		.size	LSM303AGR_ACC_R_RebootMemory, .-LSM303AGR_ACC_R_RebootMemory
 4894 1ba6 00BF     		.align	2
 4895 1ba8 AFF30080 		.p2align 4,,15
 4895      AFF30080 
 4896              		.global	LSM303AGR_ACC_W_IntActive
 4897              		.thumb
 4898              		.thumb_func
 4899              		.type	LSM303AGR_ACC_W_IntActive, %function
 4900              	LSM303AGR_ACC_W_IntActive:
 4901              	.LFB347:
 4902              		.loc 1 1713 0
 4903              		.cfi_startproc
 4904              		@ args = 0, pretend = 0, frame = 16
 4905              		@ frame_needed = 0, uses_anonymous_args = 0
 4906 1bb0 00B5     		push	{lr}
 4907              		.cfi_def_cfa_offset 4
 4908              		.cfi_offset 14, -4
 4909 1bb2 85B0     		sub	sp, sp, #20
 4910              		.cfi_def_cfa_offset 24
 4911 1bb4 0190     		str	r0, [sp, #4]
 4912 1bb6 0B46     		mov	r3, r1
 4913 1bb8 8DF80330 		strb	r3, [sp, #3]
 4914              		.loc 1 1716 0
 4915 1bbc 0DF10F03 		add	r3, sp, #15
 4916 1bc0 0198     		ldr	r0, [sp, #4]
 4917 1bc2 2521     		movs	r1, #37
 4918 1bc4 1A46     		mov	r2, r3
 4919 1bc6 0123     		movs	r3, #1
 4920 1bc8 FFF7FEFF 		bl	LSM303AGR_ACC_ReadReg
 4921 1bcc 0346     		mov	r3, r0
 4922 1bce 002B     		cmp	r3, #0
 4923 1bd0 01D1     		bne	.L320
 4924              		.loc 1 1717 0
 4925 1bd2 0023     		movs	r3, #0
 4926 1bd4 1CE0     		b	.L323
 4927              	.L320:
 4928              		.loc 1 1719 0
 4929 1bd6 9DF80F30 		ldrb	r3, [sp, #15]	@ zero_extendqisi2
 4930 1bda 23F00203 		bic	r3, r3, #2
 4931 1bde DBB2     		uxtb	r3, r3
 4932 1be0 8DF80F30 		strb	r3, [sp, #15]
 4933              		.loc 1 1720 0
 4934 1be4 9DF80F20 		ldrb	r2, [sp, #15]	@ zero_extendqisi2
 4935 1be8 9DF80330 		ldrb	r3, [sp, #3]
 4936 1bec 1343     		orrs	r3, r3, r2
 4937 1bee DBB2     		uxtb	r3, r3
 4938 1bf0 8DF80F30 		strb	r3, [sp, #15]
 4939              		.loc 1 1722 0
 4940 1bf4 0DF10F03 		add	r3, sp, #15
 4941 1bf8 0198     		ldr	r0, [sp, #4]
ARM GAS  /tmp/ccRrg1qB.s 			page 89


 4942 1bfa 2521     		movs	r1, #37
 4943 1bfc 1A46     		mov	r2, r3
 4944 1bfe 0123     		movs	r3, #1
 4945 1c00 FFF7FEFF 		bl	LSM303AGR_ACC_WriteReg
 4946 1c04 0346     		mov	r3, r0
 4947 1c06 002B     		cmp	r3, #0
 4948 1c08 01D1     		bne	.L322
 4949              		.loc 1 1723 0
 4950 1c0a 0023     		movs	r3, #0
 4951 1c0c 00E0     		b	.L323
 4952              	.L322:
 4953              		.loc 1 1725 0
 4954 1c0e 0123     		movs	r3, #1
 4955              	.L323:
 4956              		.loc 1 1726 0
 4957 1c10 1846     		mov	r0, r3
 4958 1c12 05B0     		add	sp, sp, #20
 4959              		@ sp needed
 4960 1c14 5DF804FB 		ldr	pc, [sp], #4
 4961              		.cfi_endproc
 4962              	.LFE347:
 4963              		.size	LSM303AGR_ACC_W_IntActive, .-LSM303AGR_ACC_W_IntActive
 4964              		.align	2
 4965 1c18 AFF30080 		.p2align 4,,15
 4965      AFF30080 
 4966              		.global	LSM303AGR_ACC_R_IntActive
 4967              		.thumb
 4968              		.thumb_func
 4969              		.type	LSM303AGR_ACC_R_IntActive, %function
 4970              	LSM303AGR_ACC_R_IntActive:
 4971              	.LFB348:
 4972              		.loc 1 1736 0
 4973              		.cfi_startproc
 4974              		@ args = 0, pretend = 0, frame = 8
 4975              		@ frame_needed = 0, uses_anonymous_args = 0
 4976 1c20 00B5     		push	{lr}
 4977              		.cfi_def_cfa_offset 4
 4978              		.cfi_offset 14, -4
 4979 1c22 83B0     		sub	sp, sp, #12
 4980              		.cfi_def_cfa_offset 16
 4981 1c24 0190     		str	r0, [sp, #4]
 4982 1c26 0091     		str	r1, [sp]
 4983              		.loc 1 1737 0
 4984 1c28 0198     		ldr	r0, [sp, #4]
 4985 1c2a 2521     		movs	r1, #37
 4986 1c2c 009A     		ldr	r2, [sp]
 4987 1c2e 0123     		movs	r3, #1
 4988 1c30 FFF7FEFF 		bl	LSM303AGR_ACC_ReadReg
 4989 1c34 0346     		mov	r3, r0
 4990 1c36 002B     		cmp	r3, #0
 4991 1c38 01D1     		bne	.L325
 4992              		.loc 1 1738 0
 4993 1c3a 0023     		movs	r3, #0
 4994 1c3c 07E0     		b	.L326
 4995              	.L325:
 4996              		.loc 1 1740 0
 4997 1c3e 009B     		ldr	r3, [sp]
ARM GAS  /tmp/ccRrg1qB.s 			page 90


 4998 1c40 1B78     		ldrb	r3, [r3]	@ zero_extendqisi2
 4999 1c42 03F00203 		and	r3, r3, #2
 5000 1c46 DAB2     		uxtb	r2, r3
 5001 1c48 009B     		ldr	r3, [sp]
 5002 1c4a 1A70     		strb	r2, [r3]
 5003              		.loc 1 1742 0
 5004 1c4c 0123     		movs	r3, #1
 5005              	.L326:
 5006              		.loc 1 1743 0
 5007 1c4e 1846     		mov	r0, r3
 5008 1c50 03B0     		add	sp, sp, #12
 5009              		@ sp needed
 5010 1c52 5DF804FB 		ldr	pc, [sp], #4
 5011              		.cfi_endproc
 5012              	.LFE348:
 5013              		.size	LSM303AGR_ACC_R_IntActive, .-LSM303AGR_ACC_R_IntActive
 5014 1c56 00BF     		.align	2
 5015 1c58 AFF30080 		.p2align 4,,15
 5015      AFF30080 
 5016              		.global	LSM303AGR_ACC_W_P2_ACT
 5017              		.thumb
 5018              		.thumb_func
 5019              		.type	LSM303AGR_ACC_W_P2_ACT, %function
 5020              	LSM303AGR_ACC_W_P2_ACT:
 5021              	.LFB349:
 5022              		.loc 1 1753 0
 5023              		.cfi_startproc
 5024              		@ args = 0, pretend = 0, frame = 16
 5025              		@ frame_needed = 0, uses_anonymous_args = 0
 5026 1c60 00B5     		push	{lr}
 5027              		.cfi_def_cfa_offset 4
 5028              		.cfi_offset 14, -4
 5029 1c62 85B0     		sub	sp, sp, #20
 5030              		.cfi_def_cfa_offset 24
 5031 1c64 0190     		str	r0, [sp, #4]
 5032 1c66 0B46     		mov	r3, r1
 5033 1c68 8DF80330 		strb	r3, [sp, #3]
 5034              		.loc 1 1756 0
 5035 1c6c 0DF10F03 		add	r3, sp, #15
 5036 1c70 0198     		ldr	r0, [sp, #4]
 5037 1c72 2521     		movs	r1, #37
 5038 1c74 1A46     		mov	r2, r3
 5039 1c76 0123     		movs	r3, #1
 5040 1c78 FFF7FEFF 		bl	LSM303AGR_ACC_ReadReg
 5041 1c7c 0346     		mov	r3, r0
 5042 1c7e 002B     		cmp	r3, #0
 5043 1c80 01D1     		bne	.L328
 5044              		.loc 1 1757 0
 5045 1c82 0023     		movs	r3, #0
 5046 1c84 1CE0     		b	.L331
 5047              	.L328:
 5048              		.loc 1 1759 0
 5049 1c86 9DF80F30 		ldrb	r3, [sp, #15]	@ zero_extendqisi2
 5050 1c8a 23F00803 		bic	r3, r3, #8
 5051 1c8e DBB2     		uxtb	r3, r3
 5052 1c90 8DF80F30 		strb	r3, [sp, #15]
 5053              		.loc 1 1760 0
ARM GAS  /tmp/ccRrg1qB.s 			page 91


 5054 1c94 9DF80F20 		ldrb	r2, [sp, #15]	@ zero_extendqisi2
 5055 1c98 9DF80330 		ldrb	r3, [sp, #3]
 5056 1c9c 1343     		orrs	r3, r3, r2
 5057 1c9e DBB2     		uxtb	r3, r3
 5058 1ca0 8DF80F30 		strb	r3, [sp, #15]
 5059              		.loc 1 1762 0
 5060 1ca4 0DF10F03 		add	r3, sp, #15
 5061 1ca8 0198     		ldr	r0, [sp, #4]
 5062 1caa 2521     		movs	r1, #37
 5063 1cac 1A46     		mov	r2, r3
 5064 1cae 0123     		movs	r3, #1
 5065 1cb0 FFF7FEFF 		bl	LSM303AGR_ACC_WriteReg
 5066 1cb4 0346     		mov	r3, r0
 5067 1cb6 002B     		cmp	r3, #0
 5068 1cb8 01D1     		bne	.L330
 5069              		.loc 1 1763 0
 5070 1cba 0023     		movs	r3, #0
 5071 1cbc 00E0     		b	.L331
 5072              	.L330:
 5073              		.loc 1 1765 0
 5074 1cbe 0123     		movs	r3, #1
 5075              	.L331:
 5076              		.loc 1 1766 0
 5077 1cc0 1846     		mov	r0, r3
 5078 1cc2 05B0     		add	sp, sp, #20
 5079              		@ sp needed
 5080 1cc4 5DF804FB 		ldr	pc, [sp], #4
 5081              		.cfi_endproc
 5082              	.LFE349:
 5083              		.size	LSM303AGR_ACC_W_P2_ACT, .-LSM303AGR_ACC_W_P2_ACT
 5084              		.align	2
 5085 1cc8 AFF30080 		.p2align 4,,15
 5085      AFF30080 
 5086              		.global	LSM303AGR_ACC_R_P2_ACT
 5087              		.thumb
 5088              		.thumb_func
 5089              		.type	LSM303AGR_ACC_R_P2_ACT, %function
 5090              	LSM303AGR_ACC_R_P2_ACT:
 5091              	.LFB350:
 5092              		.loc 1 1776 0
 5093              		.cfi_startproc
 5094              		@ args = 0, pretend = 0, frame = 8
 5095              		@ frame_needed = 0, uses_anonymous_args = 0
 5096 1cd0 00B5     		push	{lr}
 5097              		.cfi_def_cfa_offset 4
 5098              		.cfi_offset 14, -4
 5099 1cd2 83B0     		sub	sp, sp, #12
 5100              		.cfi_def_cfa_offset 16
 5101 1cd4 0190     		str	r0, [sp, #4]
 5102 1cd6 0091     		str	r1, [sp]
 5103              		.loc 1 1777 0
 5104 1cd8 0198     		ldr	r0, [sp, #4]
 5105 1cda 2521     		movs	r1, #37
 5106 1cdc 009A     		ldr	r2, [sp]
 5107 1cde 0123     		movs	r3, #1
 5108 1ce0 FFF7FEFF 		bl	LSM303AGR_ACC_ReadReg
 5109 1ce4 0346     		mov	r3, r0
ARM GAS  /tmp/ccRrg1qB.s 			page 92


 5110 1ce6 002B     		cmp	r3, #0
 5111 1ce8 01D1     		bne	.L333
 5112              		.loc 1 1778 0
 5113 1cea 0023     		movs	r3, #0
 5114 1cec 07E0     		b	.L334
 5115              	.L333:
 5116              		.loc 1 1780 0
 5117 1cee 009B     		ldr	r3, [sp]
 5118 1cf0 1B78     		ldrb	r3, [r3]	@ zero_extendqisi2
 5119 1cf2 03F00803 		and	r3, r3, #8
 5120 1cf6 DAB2     		uxtb	r2, r3
 5121 1cf8 009B     		ldr	r3, [sp]
 5122 1cfa 1A70     		strb	r2, [r3]
 5123              		.loc 1 1782 0
 5124 1cfc 0123     		movs	r3, #1
 5125              	.L334:
 5126              		.loc 1 1783 0
 5127 1cfe 1846     		mov	r0, r3
 5128 1d00 03B0     		add	sp, sp, #12
 5129              		@ sp needed
 5130 1d02 5DF804FB 		ldr	pc, [sp], #4
 5131              		.cfi_endproc
 5132              	.LFE350:
 5133              		.size	LSM303AGR_ACC_R_P2_ACT, .-LSM303AGR_ACC_R_P2_ACT
 5134 1d06 00BF     		.align	2
 5135 1d08 AFF30080 		.p2align 4,,15
 5135      AFF30080 
 5136              		.global	LSM303AGR_ACC_W_Boot_on_INT2
 5137              		.thumb
 5138              		.thumb_func
 5139              		.type	LSM303AGR_ACC_W_Boot_on_INT2, %function
 5140              	LSM303AGR_ACC_W_Boot_on_INT2:
 5141              	.LFB351:
 5142              		.loc 1 1793 0
 5143              		.cfi_startproc
 5144              		@ args = 0, pretend = 0, frame = 16
 5145              		@ frame_needed = 0, uses_anonymous_args = 0
 5146 1d10 00B5     		push	{lr}
 5147              		.cfi_def_cfa_offset 4
 5148              		.cfi_offset 14, -4
 5149 1d12 85B0     		sub	sp, sp, #20
 5150              		.cfi_def_cfa_offset 24
 5151 1d14 0190     		str	r0, [sp, #4]
 5152 1d16 0B46     		mov	r3, r1
 5153 1d18 8DF80330 		strb	r3, [sp, #3]
 5154              		.loc 1 1796 0
 5155 1d1c 0DF10F03 		add	r3, sp, #15
 5156 1d20 0198     		ldr	r0, [sp, #4]
 5157 1d22 2521     		movs	r1, #37
 5158 1d24 1A46     		mov	r2, r3
 5159 1d26 0123     		movs	r3, #1
 5160 1d28 FFF7FEFF 		bl	LSM303AGR_ACC_ReadReg
 5161 1d2c 0346     		mov	r3, r0
 5162 1d2e 002B     		cmp	r3, #0
 5163 1d30 01D1     		bne	.L336
 5164              		.loc 1 1797 0
 5165 1d32 0023     		movs	r3, #0
ARM GAS  /tmp/ccRrg1qB.s 			page 93


 5166 1d34 1CE0     		b	.L339
 5167              	.L336:
 5168              		.loc 1 1799 0
 5169 1d36 9DF80F30 		ldrb	r3, [sp, #15]	@ zero_extendqisi2
 5170 1d3a 23F01003 		bic	r3, r3, #16
 5171 1d3e DBB2     		uxtb	r3, r3
 5172 1d40 8DF80F30 		strb	r3, [sp, #15]
 5173              		.loc 1 1800 0
 5174 1d44 9DF80F20 		ldrb	r2, [sp, #15]	@ zero_extendqisi2
 5175 1d48 9DF80330 		ldrb	r3, [sp, #3]
 5176 1d4c 1343     		orrs	r3, r3, r2
 5177 1d4e DBB2     		uxtb	r3, r3
 5178 1d50 8DF80F30 		strb	r3, [sp, #15]
 5179              		.loc 1 1802 0
 5180 1d54 0DF10F03 		add	r3, sp, #15
 5181 1d58 0198     		ldr	r0, [sp, #4]
 5182 1d5a 2521     		movs	r1, #37
 5183 1d5c 1A46     		mov	r2, r3
 5184 1d5e 0123     		movs	r3, #1
 5185 1d60 FFF7FEFF 		bl	LSM303AGR_ACC_WriteReg
 5186 1d64 0346     		mov	r3, r0
 5187 1d66 002B     		cmp	r3, #0
 5188 1d68 01D1     		bne	.L338
 5189              		.loc 1 1803 0
 5190 1d6a 0023     		movs	r3, #0
 5191 1d6c 00E0     		b	.L339
 5192              	.L338:
 5193              		.loc 1 1805 0
 5194 1d6e 0123     		movs	r3, #1
 5195              	.L339:
 5196              		.loc 1 1806 0
 5197 1d70 1846     		mov	r0, r3
 5198 1d72 05B0     		add	sp, sp, #20
 5199              		@ sp needed
 5200 1d74 5DF804FB 		ldr	pc, [sp], #4
 5201              		.cfi_endproc
 5202              	.LFE351:
 5203              		.size	LSM303AGR_ACC_W_Boot_on_INT2, .-LSM303AGR_ACC_W_Boot_on_INT2
 5204              		.align	2
 5205 1d78 AFF30080 		.p2align 4,,15
 5205      AFF30080 
 5206              		.global	LSM303AGR_ACC_R_Boot_on_INT2
 5207              		.thumb
 5208              		.thumb_func
 5209              		.type	LSM303AGR_ACC_R_Boot_on_INT2, %function
 5210              	LSM303AGR_ACC_R_Boot_on_INT2:
 5211              	.LFB352:
 5212              		.loc 1 1816 0
 5213              		.cfi_startproc
 5214              		@ args = 0, pretend = 0, frame = 8
 5215              		@ frame_needed = 0, uses_anonymous_args = 0
 5216 1d80 00B5     		push	{lr}
 5217              		.cfi_def_cfa_offset 4
 5218              		.cfi_offset 14, -4
 5219 1d82 83B0     		sub	sp, sp, #12
 5220              		.cfi_def_cfa_offset 16
 5221 1d84 0190     		str	r0, [sp, #4]
ARM GAS  /tmp/ccRrg1qB.s 			page 94


 5222 1d86 0091     		str	r1, [sp]
 5223              		.loc 1 1817 0
 5224 1d88 0198     		ldr	r0, [sp, #4]
 5225 1d8a 2521     		movs	r1, #37
 5226 1d8c 009A     		ldr	r2, [sp]
 5227 1d8e 0123     		movs	r3, #1
 5228 1d90 FFF7FEFF 		bl	LSM303AGR_ACC_ReadReg
 5229 1d94 0346     		mov	r3, r0
 5230 1d96 002B     		cmp	r3, #0
 5231 1d98 01D1     		bne	.L341
 5232              		.loc 1 1818 0
 5233 1d9a 0023     		movs	r3, #0
 5234 1d9c 07E0     		b	.L342
 5235              	.L341:
 5236              		.loc 1 1820 0
 5237 1d9e 009B     		ldr	r3, [sp]
 5238 1da0 1B78     		ldrb	r3, [r3]	@ zero_extendqisi2
 5239 1da2 03F01003 		and	r3, r3, #16
 5240 1da6 DAB2     		uxtb	r2, r3
 5241 1da8 009B     		ldr	r3, [sp]
 5242 1daa 1A70     		strb	r2, [r3]
 5243              		.loc 1 1822 0
 5244 1dac 0123     		movs	r3, #1
 5245              	.L342:
 5246              		.loc 1 1823 0
 5247 1dae 1846     		mov	r0, r3
 5248 1db0 03B0     		add	sp, sp, #12
 5249              		@ sp needed
 5250 1db2 5DF804FB 		ldr	pc, [sp], #4
 5251              		.cfi_endproc
 5252              	.LFE352:
 5253              		.size	LSM303AGR_ACC_R_Boot_on_INT2, .-LSM303AGR_ACC_R_Boot_on_INT2
 5254 1db6 00BF     		.align	2
 5255 1db8 AFF30080 		.p2align 4,,15
 5255      AFF30080 
 5256              		.global	LSM303AGR_ACC_W_I2_on_INT2
 5257              		.thumb
 5258              		.thumb_func
 5259              		.type	LSM303AGR_ACC_W_I2_on_INT2, %function
 5260              	LSM303AGR_ACC_W_I2_on_INT2:
 5261              	.LFB353:
 5262              		.loc 1 1833 0
 5263              		.cfi_startproc
 5264              		@ args = 0, pretend = 0, frame = 16
 5265              		@ frame_needed = 0, uses_anonymous_args = 0
 5266 1dc0 00B5     		push	{lr}
 5267              		.cfi_def_cfa_offset 4
 5268              		.cfi_offset 14, -4
 5269 1dc2 85B0     		sub	sp, sp, #20
 5270              		.cfi_def_cfa_offset 24
 5271 1dc4 0190     		str	r0, [sp, #4]
 5272 1dc6 0B46     		mov	r3, r1
 5273 1dc8 8DF80330 		strb	r3, [sp, #3]
 5274              		.loc 1 1836 0
 5275 1dcc 0DF10F03 		add	r3, sp, #15
 5276 1dd0 0198     		ldr	r0, [sp, #4]
 5277 1dd2 2521     		movs	r1, #37
ARM GAS  /tmp/ccRrg1qB.s 			page 95


 5278 1dd4 1A46     		mov	r2, r3
 5279 1dd6 0123     		movs	r3, #1
 5280 1dd8 FFF7FEFF 		bl	LSM303AGR_ACC_ReadReg
 5281 1ddc 0346     		mov	r3, r0
 5282 1dde 002B     		cmp	r3, #0
 5283 1de0 01D1     		bne	.L344
 5284              		.loc 1 1837 0
 5285 1de2 0023     		movs	r3, #0
 5286 1de4 1CE0     		b	.L347
 5287              	.L344:
 5288              		.loc 1 1839 0
 5289 1de6 9DF80F30 		ldrb	r3, [sp, #15]	@ zero_extendqisi2
 5290 1dea 23F02003 		bic	r3, r3, #32
 5291 1dee DBB2     		uxtb	r3, r3
 5292 1df0 8DF80F30 		strb	r3, [sp, #15]
 5293              		.loc 1 1840 0
 5294 1df4 9DF80F20 		ldrb	r2, [sp, #15]	@ zero_extendqisi2
 5295 1df8 9DF80330 		ldrb	r3, [sp, #3]
 5296 1dfc 1343     		orrs	r3, r3, r2
 5297 1dfe DBB2     		uxtb	r3, r3
 5298 1e00 8DF80F30 		strb	r3, [sp, #15]
 5299              		.loc 1 1842 0
 5300 1e04 0DF10F03 		add	r3, sp, #15
 5301 1e08 0198     		ldr	r0, [sp, #4]
 5302 1e0a 2521     		movs	r1, #37
 5303 1e0c 1A46     		mov	r2, r3
 5304 1e0e 0123     		movs	r3, #1
 5305 1e10 FFF7FEFF 		bl	LSM303AGR_ACC_WriteReg
 5306 1e14 0346     		mov	r3, r0
 5307 1e16 002B     		cmp	r3, #0
 5308 1e18 01D1     		bne	.L346
 5309              		.loc 1 1843 0
 5310 1e1a 0023     		movs	r3, #0
 5311 1e1c 00E0     		b	.L347
 5312              	.L346:
 5313              		.loc 1 1845 0
 5314 1e1e 0123     		movs	r3, #1
 5315              	.L347:
 5316              		.loc 1 1846 0
 5317 1e20 1846     		mov	r0, r3
 5318 1e22 05B0     		add	sp, sp, #20
 5319              		@ sp needed
 5320 1e24 5DF804FB 		ldr	pc, [sp], #4
 5321              		.cfi_endproc
 5322              	.LFE353:
 5323              		.size	LSM303AGR_ACC_W_I2_on_INT2, .-LSM303AGR_ACC_W_I2_on_INT2
 5324              		.align	2
 5325 1e28 AFF30080 		.p2align 4,,15
 5325      AFF30080 
 5326              		.global	LSM303AGR_ACC_R_I2_on_INT2
 5327              		.thumb
 5328              		.thumb_func
 5329              		.type	LSM303AGR_ACC_R_I2_on_INT2, %function
 5330              	LSM303AGR_ACC_R_I2_on_INT2:
 5331              	.LFB354:
 5332              		.loc 1 1856 0
 5333              		.cfi_startproc
ARM GAS  /tmp/ccRrg1qB.s 			page 96


 5334              		@ args = 0, pretend = 0, frame = 8
 5335              		@ frame_needed = 0, uses_anonymous_args = 0
 5336 1e30 00B5     		push	{lr}
 5337              		.cfi_def_cfa_offset 4
 5338              		.cfi_offset 14, -4
 5339 1e32 83B0     		sub	sp, sp, #12
 5340              		.cfi_def_cfa_offset 16
 5341 1e34 0190     		str	r0, [sp, #4]
 5342 1e36 0091     		str	r1, [sp]
 5343              		.loc 1 1857 0
 5344 1e38 0198     		ldr	r0, [sp, #4]
 5345 1e3a 2521     		movs	r1, #37
 5346 1e3c 009A     		ldr	r2, [sp]
 5347 1e3e 0123     		movs	r3, #1
 5348 1e40 FFF7FEFF 		bl	LSM303AGR_ACC_ReadReg
 5349 1e44 0346     		mov	r3, r0
 5350 1e46 002B     		cmp	r3, #0
 5351 1e48 01D1     		bne	.L349
 5352              		.loc 1 1858 0
 5353 1e4a 0023     		movs	r3, #0
 5354 1e4c 07E0     		b	.L350
 5355              	.L349:
 5356              		.loc 1 1860 0
 5357 1e4e 009B     		ldr	r3, [sp]
 5358 1e50 1B78     		ldrb	r3, [r3]	@ zero_extendqisi2
 5359 1e52 03F02003 		and	r3, r3, #32
 5360 1e56 DAB2     		uxtb	r2, r3
 5361 1e58 009B     		ldr	r3, [sp]
 5362 1e5a 1A70     		strb	r2, [r3]
 5363              		.loc 1 1862 0
 5364 1e5c 0123     		movs	r3, #1
 5365              	.L350:
 5366              		.loc 1 1863 0
 5367 1e5e 1846     		mov	r0, r3
 5368 1e60 03B0     		add	sp, sp, #12
 5369              		@ sp needed
 5370 1e62 5DF804FB 		ldr	pc, [sp], #4
 5371              		.cfi_endproc
 5372              	.LFE354:
 5373              		.size	LSM303AGR_ACC_R_I2_on_INT2, .-LSM303AGR_ACC_R_I2_on_INT2
 5374 1e66 00BF     		.align	2
 5375 1e68 AFF30080 		.p2align 4,,15
 5375      AFF30080 
 5376              		.global	LSM303AGR_ACC_W_I2_on_INT1
 5377              		.thumb
 5378              		.thumb_func
 5379              		.type	LSM303AGR_ACC_W_I2_on_INT1, %function
 5380              	LSM303AGR_ACC_W_I2_on_INT1:
 5381              	.LFB355:
 5382              		.loc 1 1873 0
 5383              		.cfi_startproc
 5384              		@ args = 0, pretend = 0, frame = 16
 5385              		@ frame_needed = 0, uses_anonymous_args = 0
 5386 1e70 00B5     		push	{lr}
 5387              		.cfi_def_cfa_offset 4
 5388              		.cfi_offset 14, -4
 5389 1e72 85B0     		sub	sp, sp, #20
ARM GAS  /tmp/ccRrg1qB.s 			page 97


 5390              		.cfi_def_cfa_offset 24
 5391 1e74 0190     		str	r0, [sp, #4]
 5392 1e76 0B46     		mov	r3, r1
 5393 1e78 8DF80330 		strb	r3, [sp, #3]
 5394              		.loc 1 1876 0
 5395 1e7c 0DF10F03 		add	r3, sp, #15
 5396 1e80 0198     		ldr	r0, [sp, #4]
 5397 1e82 2521     		movs	r1, #37
 5398 1e84 1A46     		mov	r2, r3
 5399 1e86 0123     		movs	r3, #1
 5400 1e88 FFF7FEFF 		bl	LSM303AGR_ACC_ReadReg
 5401 1e8c 0346     		mov	r3, r0
 5402 1e8e 002B     		cmp	r3, #0
 5403 1e90 01D1     		bne	.L352
 5404              		.loc 1 1877 0
 5405 1e92 0023     		movs	r3, #0
 5406 1e94 1CE0     		b	.L355
 5407              	.L352:
 5408              		.loc 1 1879 0
 5409 1e96 9DF80F30 		ldrb	r3, [sp, #15]	@ zero_extendqisi2
 5410 1e9a 23F04003 		bic	r3, r3, #64
 5411 1e9e DBB2     		uxtb	r3, r3
 5412 1ea0 8DF80F30 		strb	r3, [sp, #15]
 5413              		.loc 1 1880 0
 5414 1ea4 9DF80F20 		ldrb	r2, [sp, #15]	@ zero_extendqisi2
 5415 1ea8 9DF80330 		ldrb	r3, [sp, #3]
 5416 1eac 1343     		orrs	r3, r3, r2
 5417 1eae DBB2     		uxtb	r3, r3
 5418 1eb0 8DF80F30 		strb	r3, [sp, #15]
 5419              		.loc 1 1882 0
 5420 1eb4 0DF10F03 		add	r3, sp, #15
 5421 1eb8 0198     		ldr	r0, [sp, #4]
 5422 1eba 2521     		movs	r1, #37
 5423 1ebc 1A46     		mov	r2, r3
 5424 1ebe 0123     		movs	r3, #1
 5425 1ec0 FFF7FEFF 		bl	LSM303AGR_ACC_WriteReg
 5426 1ec4 0346     		mov	r3, r0
 5427 1ec6 002B     		cmp	r3, #0
 5428 1ec8 01D1     		bne	.L354
 5429              		.loc 1 1883 0
 5430 1eca 0023     		movs	r3, #0
 5431 1ecc 00E0     		b	.L355
 5432              	.L354:
 5433              		.loc 1 1885 0
 5434 1ece 0123     		movs	r3, #1
 5435              	.L355:
 5436              		.loc 1 1886 0
 5437 1ed0 1846     		mov	r0, r3
 5438 1ed2 05B0     		add	sp, sp, #20
 5439              		@ sp needed
 5440 1ed4 5DF804FB 		ldr	pc, [sp], #4
 5441              		.cfi_endproc
 5442              	.LFE355:
 5443              		.size	LSM303AGR_ACC_W_I2_on_INT1, .-LSM303AGR_ACC_W_I2_on_INT1
 5444              		.align	2
 5445 1ed8 AFF30080 		.p2align 4,,15
 5445      AFF30080 
ARM GAS  /tmp/ccRrg1qB.s 			page 98


 5446              		.global	LSM303AGR_ACC_R_I2_on_INT1
 5447              		.thumb
 5448              		.thumb_func
 5449              		.type	LSM303AGR_ACC_R_I2_on_INT1, %function
 5450              	LSM303AGR_ACC_R_I2_on_INT1:
 5451              	.LFB356:
 5452              		.loc 1 1896 0
 5453              		.cfi_startproc
 5454              		@ args = 0, pretend = 0, frame = 8
 5455              		@ frame_needed = 0, uses_anonymous_args = 0
 5456 1ee0 00B5     		push	{lr}
 5457              		.cfi_def_cfa_offset 4
 5458              		.cfi_offset 14, -4
 5459 1ee2 83B0     		sub	sp, sp, #12
 5460              		.cfi_def_cfa_offset 16
 5461 1ee4 0190     		str	r0, [sp, #4]
 5462 1ee6 0091     		str	r1, [sp]
 5463              		.loc 1 1897 0
 5464 1ee8 0198     		ldr	r0, [sp, #4]
 5465 1eea 2521     		movs	r1, #37
 5466 1eec 009A     		ldr	r2, [sp]
 5467 1eee 0123     		movs	r3, #1
 5468 1ef0 FFF7FEFF 		bl	LSM303AGR_ACC_ReadReg
 5469 1ef4 0346     		mov	r3, r0
 5470 1ef6 002B     		cmp	r3, #0
 5471 1ef8 01D1     		bne	.L357
 5472              		.loc 1 1898 0
 5473 1efa 0023     		movs	r3, #0
 5474 1efc 07E0     		b	.L358
 5475              	.L357:
 5476              		.loc 1 1900 0
 5477 1efe 009B     		ldr	r3, [sp]
 5478 1f00 1B78     		ldrb	r3, [r3]	@ zero_extendqisi2
 5479 1f02 03F04003 		and	r3, r3, #64
 5480 1f06 DAB2     		uxtb	r2, r3
 5481 1f08 009B     		ldr	r3, [sp]
 5482 1f0a 1A70     		strb	r2, [r3]
 5483              		.loc 1 1902 0
 5484 1f0c 0123     		movs	r3, #1
 5485              	.L358:
 5486              		.loc 1 1903 0
 5487 1f0e 1846     		mov	r0, r3
 5488 1f10 03B0     		add	sp, sp, #12
 5489              		@ sp needed
 5490 1f12 5DF804FB 		ldr	pc, [sp], #4
 5491              		.cfi_endproc
 5492              	.LFE356:
 5493              		.size	LSM303AGR_ACC_R_I2_on_INT1, .-LSM303AGR_ACC_R_I2_on_INT1
 5494 1f16 00BF     		.align	2
 5495 1f18 AFF30080 		.p2align 4,,15
 5495      AFF30080 
 5496              		.global	LSM303AGR_ACC_W_Click_on_INT2
 5497              		.thumb
 5498              		.thumb_func
 5499              		.type	LSM303AGR_ACC_W_Click_on_INT2, %function
 5500              	LSM303AGR_ACC_W_Click_on_INT2:
 5501              	.LFB357:
ARM GAS  /tmp/ccRrg1qB.s 			page 99


 5502              		.loc 1 1913 0
 5503              		.cfi_startproc
 5504              		@ args = 0, pretend = 0, frame = 16
 5505              		@ frame_needed = 0, uses_anonymous_args = 0
 5506 1f20 00B5     		push	{lr}
 5507              		.cfi_def_cfa_offset 4
 5508              		.cfi_offset 14, -4
 5509 1f22 85B0     		sub	sp, sp, #20
 5510              		.cfi_def_cfa_offset 24
 5511 1f24 0190     		str	r0, [sp, #4]
 5512 1f26 0B46     		mov	r3, r1
 5513 1f28 8DF80330 		strb	r3, [sp, #3]
 5514              		.loc 1 1916 0
 5515 1f2c 0DF10F03 		add	r3, sp, #15
 5516 1f30 0198     		ldr	r0, [sp, #4]
 5517 1f32 2521     		movs	r1, #37
 5518 1f34 1A46     		mov	r2, r3
 5519 1f36 0123     		movs	r3, #1
 5520 1f38 FFF7FEFF 		bl	LSM303AGR_ACC_ReadReg
 5521 1f3c 0346     		mov	r3, r0
 5522 1f3e 002B     		cmp	r3, #0
 5523 1f40 01D1     		bne	.L360
 5524              		.loc 1 1917 0
 5525 1f42 0023     		movs	r3, #0
 5526 1f44 1CE0     		b	.L363
 5527              	.L360:
 5528              		.loc 1 1919 0
 5529 1f46 9DF80F30 		ldrb	r3, [sp, #15]	@ zero_extendqisi2
 5530 1f4a 03F07F03 		and	r3, r3, #127
 5531 1f4e DBB2     		uxtb	r3, r3
 5532 1f50 8DF80F30 		strb	r3, [sp, #15]
 5533              		.loc 1 1920 0
 5534 1f54 9DF80F20 		ldrb	r2, [sp, #15]	@ zero_extendqisi2
 5535 1f58 9DF80330 		ldrb	r3, [sp, #3]
 5536 1f5c 1343     		orrs	r3, r3, r2
 5537 1f5e DBB2     		uxtb	r3, r3
 5538 1f60 8DF80F30 		strb	r3, [sp, #15]
 5539              		.loc 1 1922 0
 5540 1f64 0DF10F03 		add	r3, sp, #15
 5541 1f68 0198     		ldr	r0, [sp, #4]
 5542 1f6a 2521     		movs	r1, #37
 5543 1f6c 1A46     		mov	r2, r3
 5544 1f6e 0123     		movs	r3, #1
 5545 1f70 FFF7FEFF 		bl	LSM303AGR_ACC_WriteReg
 5546 1f74 0346     		mov	r3, r0
 5547 1f76 002B     		cmp	r3, #0
 5548 1f78 01D1     		bne	.L362
 5549              		.loc 1 1923 0
 5550 1f7a 0023     		movs	r3, #0
 5551 1f7c 00E0     		b	.L363
 5552              	.L362:
 5553              		.loc 1 1925 0
 5554 1f7e 0123     		movs	r3, #1
 5555              	.L363:
 5556              		.loc 1 1926 0
 5557 1f80 1846     		mov	r0, r3
 5558 1f82 05B0     		add	sp, sp, #20
ARM GAS  /tmp/ccRrg1qB.s 			page 100


 5559              		@ sp needed
 5560 1f84 5DF804FB 		ldr	pc, [sp], #4
 5561              		.cfi_endproc
 5562              	.LFE357:
 5563              		.size	LSM303AGR_ACC_W_Click_on_INT2, .-LSM303AGR_ACC_W_Click_on_INT2
 5564              		.align	2
 5565 1f88 AFF30080 		.p2align 4,,15
 5565      AFF30080 
 5566              		.global	LSM303AGR_ACC_R_Click_on_INT2
 5567              		.thumb
 5568              		.thumb_func
 5569              		.type	LSM303AGR_ACC_R_Click_on_INT2, %function
 5570              	LSM303AGR_ACC_R_Click_on_INT2:
 5571              	.LFB358:
 5572              		.loc 1 1936 0
 5573              		.cfi_startproc
 5574              		@ args = 0, pretend = 0, frame = 8
 5575              		@ frame_needed = 0, uses_anonymous_args = 0
 5576 1f90 00B5     		push	{lr}
 5577              		.cfi_def_cfa_offset 4
 5578              		.cfi_offset 14, -4
 5579 1f92 83B0     		sub	sp, sp, #12
 5580              		.cfi_def_cfa_offset 16
 5581 1f94 0190     		str	r0, [sp, #4]
 5582 1f96 0091     		str	r1, [sp]
 5583              		.loc 1 1937 0
 5584 1f98 0198     		ldr	r0, [sp, #4]
 5585 1f9a 2521     		movs	r1, #37
 5586 1f9c 009A     		ldr	r2, [sp]
 5587 1f9e 0123     		movs	r3, #1
 5588 1fa0 FFF7FEFF 		bl	LSM303AGR_ACC_ReadReg
 5589 1fa4 0346     		mov	r3, r0
 5590 1fa6 002B     		cmp	r3, #0
 5591 1fa8 01D1     		bne	.L365
 5592              		.loc 1 1938 0
 5593 1faa 0023     		movs	r3, #0
 5594 1fac 07E0     		b	.L366
 5595              	.L365:
 5596              		.loc 1 1940 0
 5597 1fae 009B     		ldr	r3, [sp]
 5598 1fb0 1B78     		ldrb	r3, [r3]	@ zero_extendqisi2
 5599 1fb2 23F07F03 		bic	r3, r3, #127
 5600 1fb6 DAB2     		uxtb	r2, r3
 5601 1fb8 009B     		ldr	r3, [sp]
 5602 1fba 1A70     		strb	r2, [r3]
 5603              		.loc 1 1942 0
 5604 1fbc 0123     		movs	r3, #1
 5605              	.L366:
 5606              		.loc 1 1943 0
 5607 1fbe 1846     		mov	r0, r3
 5608 1fc0 03B0     		add	sp, sp, #12
 5609              		@ sp needed
 5610 1fc2 5DF804FB 		ldr	pc, [sp], #4
 5611              		.cfi_endproc
 5612              	.LFE358:
 5613              		.size	LSM303AGR_ACC_R_Click_on_INT2, .-LSM303AGR_ACC_R_Click_on_INT2
 5614 1fc6 00BF     		.align	2
ARM GAS  /tmp/ccRrg1qB.s 			page 101


 5615 1fc8 AFF30080 		.p2align 4,,15
 5615      AFF30080 
 5616              		.global	LSM303AGR_ACC_W_ReferenceVal
 5617              		.thumb
 5618              		.thumb_func
 5619              		.type	LSM303AGR_ACC_W_ReferenceVal, %function
 5620              	LSM303AGR_ACC_W_ReferenceVal:
 5621              	.LFB359:
 5622              		.loc 1 1953 0
 5623              		.cfi_startproc
 5624              		@ args = 0, pretend = 0, frame = 16
 5625              		@ frame_needed = 0, uses_anonymous_args = 0
 5626 1fd0 00B5     		push	{lr}
 5627              		.cfi_def_cfa_offset 4
 5628              		.cfi_offset 14, -4
 5629 1fd2 85B0     		sub	sp, sp, #20
 5630              		.cfi_def_cfa_offset 24
 5631 1fd4 0190     		str	r0, [sp, #4]
 5632 1fd6 0B46     		mov	r3, r1
 5633 1fd8 8DF80330 		strb	r3, [sp, #3]
 5634              		.loc 1 1959 0
 5635 1fdc 0DF10F03 		add	r3, sp, #15
 5636 1fe0 0198     		ldr	r0, [sp, #4]
 5637 1fe2 2621     		movs	r1, #38
 5638 1fe4 1A46     		mov	r2, r3
 5639 1fe6 0123     		movs	r3, #1
 5640 1fe8 FFF7FEFF 		bl	LSM303AGR_ACC_ReadReg
 5641 1fec 0346     		mov	r3, r0
 5642 1fee 002B     		cmp	r3, #0
 5643 1ff0 01D1     		bne	.L368
 5644              		.loc 1 1960 0
 5645 1ff2 0023     		movs	r3, #0
 5646 1ff4 18E0     		b	.L371
 5647              	.L368:
 5648              		.loc 1 1962 0
 5649 1ff6 0023     		movs	r3, #0
 5650 1ff8 8DF80F30 		strb	r3, [sp, #15]
 5651              		.loc 1 1963 0
 5652 1ffc 9DF80F20 		ldrb	r2, [sp, #15]	@ zero_extendqisi2
 5653 2000 9DF80330 		ldrb	r3, [sp, #3]
 5654 2004 1343     		orrs	r3, r3, r2
 5655 2006 DBB2     		uxtb	r3, r3
 5656 2008 8DF80F30 		strb	r3, [sp, #15]
 5657              		.loc 1 1965 0
 5658 200c 0DF10F03 		add	r3, sp, #15
 5659 2010 0198     		ldr	r0, [sp, #4]
 5660 2012 2621     		movs	r1, #38
 5661 2014 1A46     		mov	r2, r3
 5662 2016 0123     		movs	r3, #1
 5663 2018 FFF7FEFF 		bl	LSM303AGR_ACC_WriteReg
 5664 201c 0346     		mov	r3, r0
 5665 201e 002B     		cmp	r3, #0
 5666 2020 01D1     		bne	.L370
 5667              		.loc 1 1966 0
 5668 2022 0023     		movs	r3, #0
 5669 2024 00E0     		b	.L371
 5670              	.L370:
ARM GAS  /tmp/ccRrg1qB.s 			page 102


 5671              		.loc 1 1968 0
 5672 2026 0123     		movs	r3, #1
 5673              	.L371:
 5674              		.loc 1 1969 0
 5675 2028 1846     		mov	r0, r3
 5676 202a 05B0     		add	sp, sp, #20
 5677              		@ sp needed
 5678 202c 5DF804FB 		ldr	pc, [sp], #4
 5679              		.cfi_endproc
 5680              	.LFE359:
 5681              		.size	LSM303AGR_ACC_W_ReferenceVal, .-LSM303AGR_ACC_W_ReferenceVal
 5682              		.align	2
 5683              		.p2align 4,,15
 5684              		.global	LSM303AGR_ACC_R_ReferenceVal
 5685              		.thumb
 5686              		.thumb_func
 5687              		.type	LSM303AGR_ACC_R_ReferenceVal, %function
 5688              	LSM303AGR_ACC_R_ReferenceVal:
 5689              	.LFB360:
 5690              		.loc 1 1979 0
 5691              		.cfi_startproc
 5692              		@ args = 0, pretend = 0, frame = 8
 5693              		@ frame_needed = 0, uses_anonymous_args = 0
 5694 2030 00B5     		push	{lr}
 5695              		.cfi_def_cfa_offset 4
 5696              		.cfi_offset 14, -4
 5697 2032 83B0     		sub	sp, sp, #12
 5698              		.cfi_def_cfa_offset 16
 5699 2034 0190     		str	r0, [sp, #4]
 5700 2036 0091     		str	r1, [sp]
 5701              		.loc 1 1980 0
 5702 2038 0198     		ldr	r0, [sp, #4]
 5703 203a 2621     		movs	r1, #38
 5704 203c 009A     		ldr	r2, [sp]
 5705 203e 0123     		movs	r3, #1
 5706 2040 FFF7FEFF 		bl	LSM303AGR_ACC_ReadReg
 5707 2044 0346     		mov	r3, r0
 5708 2046 002B     		cmp	r3, #0
 5709 2048 01D1     		bne	.L373
 5710              		.loc 1 1981 0
 5711 204a 0023     		movs	r3, #0
 5712 204c 08E0     		b	.L374
 5713              	.L373:
 5714              		.loc 1 1983 0
 5715 204e 009B     		ldr	r3, [sp]
 5716 2050 1A78     		ldrb	r2, [r3]	@ zero_extendqisi2
 5717 2052 009B     		ldr	r3, [sp]
 5718 2054 1A70     		strb	r2, [r3]
 5719              		.loc 1 1984 0
 5720 2056 009B     		ldr	r3, [sp]
 5721 2058 1A78     		ldrb	r2, [r3]	@ zero_extendqisi2
 5722 205a 009B     		ldr	r3, [sp]
 5723 205c 1A70     		strb	r2, [r3]
 5724              		.loc 1 1986 0
 5725 205e 0123     		movs	r3, #1
 5726              	.L374:
 5727              		.loc 1 1987 0
ARM GAS  /tmp/ccRrg1qB.s 			page 103


 5728 2060 1846     		mov	r0, r3
 5729 2062 03B0     		add	sp, sp, #12
 5730              		@ sp needed
 5731 2064 5DF804FB 		ldr	pc, [sp], #4
 5732              		.cfi_endproc
 5733              	.LFE360:
 5734              		.size	LSM303AGR_ACC_R_ReferenceVal, .-LSM303AGR_ACC_R_ReferenceVal
 5735              		.align	2
 5736 2068 AFF30080 		.p2align 4,,15
 5736      AFF30080 
 5737              		.global	LSM303AGR_ACC_R_XDataAvail
 5738              		.thumb
 5739              		.thumb_func
 5740              		.type	LSM303AGR_ACC_R_XDataAvail, %function
 5741              	LSM303AGR_ACC_R_XDataAvail:
 5742              	.LFB361:
 5743              		.loc 1 1997 0
 5744              		.cfi_startproc
 5745              		@ args = 0, pretend = 0, frame = 8
 5746              		@ frame_needed = 0, uses_anonymous_args = 0
 5747 2070 00B5     		push	{lr}
 5748              		.cfi_def_cfa_offset 4
 5749              		.cfi_offset 14, -4
 5750 2072 83B0     		sub	sp, sp, #12
 5751              		.cfi_def_cfa_offset 16
 5752 2074 0190     		str	r0, [sp, #4]
 5753 2076 0091     		str	r1, [sp]
 5754              		.loc 1 1998 0
 5755 2078 0198     		ldr	r0, [sp, #4]
 5756 207a 2721     		movs	r1, #39
 5757 207c 009A     		ldr	r2, [sp]
 5758 207e 0123     		movs	r3, #1
 5759 2080 FFF7FEFF 		bl	LSM303AGR_ACC_ReadReg
 5760 2084 0346     		mov	r3, r0
 5761 2086 002B     		cmp	r3, #0
 5762 2088 01D1     		bne	.L376
 5763              		.loc 1 1999 0
 5764 208a 0023     		movs	r3, #0
 5765 208c 07E0     		b	.L377
 5766              	.L376:
 5767              		.loc 1 2001 0
 5768 208e 009B     		ldr	r3, [sp]
 5769 2090 1B78     		ldrb	r3, [r3]	@ zero_extendqisi2
 5770 2092 03F00103 		and	r3, r3, #1
 5771 2096 DAB2     		uxtb	r2, r3
 5772 2098 009B     		ldr	r3, [sp]
 5773 209a 1A70     		strb	r2, [r3]
 5774              		.loc 1 2003 0
 5775 209c 0123     		movs	r3, #1
 5776              	.L377:
 5777              		.loc 1 2004 0
 5778 209e 1846     		mov	r0, r3
 5779 20a0 03B0     		add	sp, sp, #12
 5780              		@ sp needed
 5781 20a2 5DF804FB 		ldr	pc, [sp], #4
 5782              		.cfi_endproc
 5783              	.LFE361:
ARM GAS  /tmp/ccRrg1qB.s 			page 104


 5784              		.size	LSM303AGR_ACC_R_XDataAvail, .-LSM303AGR_ACC_R_XDataAvail
 5785 20a6 00BF     		.align	2
 5786 20a8 AFF30080 		.p2align 4,,15
 5786      AFF30080 
 5787              		.global	LSM303AGR_ACC_R_YDataAvail
 5788              		.thumb
 5789              		.thumb_func
 5790              		.type	LSM303AGR_ACC_R_YDataAvail, %function
 5791              	LSM303AGR_ACC_R_YDataAvail:
 5792              	.LFB362:
 5793              		.loc 1 2014 0
 5794              		.cfi_startproc
 5795              		@ args = 0, pretend = 0, frame = 8
 5796              		@ frame_needed = 0, uses_anonymous_args = 0
 5797 20b0 00B5     		push	{lr}
 5798              		.cfi_def_cfa_offset 4
 5799              		.cfi_offset 14, -4
 5800 20b2 83B0     		sub	sp, sp, #12
 5801              		.cfi_def_cfa_offset 16
 5802 20b4 0190     		str	r0, [sp, #4]
 5803 20b6 0091     		str	r1, [sp]
 5804              		.loc 1 2015 0
 5805 20b8 0198     		ldr	r0, [sp, #4]
 5806 20ba 2721     		movs	r1, #39
 5807 20bc 009A     		ldr	r2, [sp]
 5808 20be 0123     		movs	r3, #1
 5809 20c0 FFF7FEFF 		bl	LSM303AGR_ACC_ReadReg
 5810 20c4 0346     		mov	r3, r0
 5811 20c6 002B     		cmp	r3, #0
 5812 20c8 01D1     		bne	.L379
 5813              		.loc 1 2016 0
 5814 20ca 0023     		movs	r3, #0
 5815 20cc 07E0     		b	.L380
 5816              	.L379:
 5817              		.loc 1 2018 0
 5818 20ce 009B     		ldr	r3, [sp]
 5819 20d0 1B78     		ldrb	r3, [r3]	@ zero_extendqisi2
 5820 20d2 03F00203 		and	r3, r3, #2
 5821 20d6 DAB2     		uxtb	r2, r3
 5822 20d8 009B     		ldr	r3, [sp]
 5823 20da 1A70     		strb	r2, [r3]
 5824              		.loc 1 2020 0
 5825 20dc 0123     		movs	r3, #1
 5826              	.L380:
 5827              		.loc 1 2021 0
 5828 20de 1846     		mov	r0, r3
 5829 20e0 03B0     		add	sp, sp, #12
 5830              		@ sp needed
 5831 20e2 5DF804FB 		ldr	pc, [sp], #4
 5832              		.cfi_endproc
 5833              	.LFE362:
 5834              		.size	LSM303AGR_ACC_R_YDataAvail, .-LSM303AGR_ACC_R_YDataAvail
 5835 20e6 00BF     		.align	2
 5836 20e8 AFF30080 		.p2align 4,,15
 5836      AFF30080 
 5837              		.global	LSM303AGR_ACC_R_ZDataAvail
 5838              		.thumb
ARM GAS  /tmp/ccRrg1qB.s 			page 105


 5839              		.thumb_func
 5840              		.type	LSM303AGR_ACC_R_ZDataAvail, %function
 5841              	LSM303AGR_ACC_R_ZDataAvail:
 5842              	.LFB363:
 5843              		.loc 1 2031 0
 5844              		.cfi_startproc
 5845              		@ args = 0, pretend = 0, frame = 8
 5846              		@ frame_needed = 0, uses_anonymous_args = 0
 5847 20f0 00B5     		push	{lr}
 5848              		.cfi_def_cfa_offset 4
 5849              		.cfi_offset 14, -4
 5850 20f2 83B0     		sub	sp, sp, #12
 5851              		.cfi_def_cfa_offset 16
 5852 20f4 0190     		str	r0, [sp, #4]
 5853 20f6 0091     		str	r1, [sp]
 5854              		.loc 1 2032 0
 5855 20f8 0198     		ldr	r0, [sp, #4]
 5856 20fa 2721     		movs	r1, #39
 5857 20fc 009A     		ldr	r2, [sp]
 5858 20fe 0123     		movs	r3, #1
 5859 2100 FFF7FEFF 		bl	LSM303AGR_ACC_ReadReg
 5860 2104 0346     		mov	r3, r0
 5861 2106 002B     		cmp	r3, #0
 5862 2108 01D1     		bne	.L382
 5863              		.loc 1 2033 0
 5864 210a 0023     		movs	r3, #0
 5865 210c 07E0     		b	.L383
 5866              	.L382:
 5867              		.loc 1 2035 0
 5868 210e 009B     		ldr	r3, [sp]
 5869 2110 1B78     		ldrb	r3, [r3]	@ zero_extendqisi2
 5870 2112 03F00403 		and	r3, r3, #4
 5871 2116 DAB2     		uxtb	r2, r3
 5872 2118 009B     		ldr	r3, [sp]
 5873 211a 1A70     		strb	r2, [r3]
 5874              		.loc 1 2037 0
 5875 211c 0123     		movs	r3, #1
 5876              	.L383:
 5877              		.loc 1 2038 0
 5878 211e 1846     		mov	r0, r3
 5879 2120 03B0     		add	sp, sp, #12
 5880              		@ sp needed
 5881 2122 5DF804FB 		ldr	pc, [sp], #4
 5882              		.cfi_endproc
 5883              	.LFE363:
 5884              		.size	LSM303AGR_ACC_R_ZDataAvail, .-LSM303AGR_ACC_R_ZDataAvail
 5885 2126 00BF     		.align	2
 5886 2128 AFF30080 		.p2align 4,,15
 5886      AFF30080 
 5887              		.global	LSM303AGR_ACC_R_XYZDataAvail
 5888              		.thumb
 5889              		.thumb_func
 5890              		.type	LSM303AGR_ACC_R_XYZDataAvail, %function
 5891              	LSM303AGR_ACC_R_XYZDataAvail:
 5892              	.LFB364:
 5893              		.loc 1 2048 0
 5894              		.cfi_startproc
ARM GAS  /tmp/ccRrg1qB.s 			page 106


 5895              		@ args = 0, pretend = 0, frame = 8
 5896              		@ frame_needed = 0, uses_anonymous_args = 0
 5897 2130 00B5     		push	{lr}
 5898              		.cfi_def_cfa_offset 4
 5899              		.cfi_offset 14, -4
 5900 2132 83B0     		sub	sp, sp, #12
 5901              		.cfi_def_cfa_offset 16
 5902 2134 0190     		str	r0, [sp, #4]
 5903 2136 0091     		str	r1, [sp]
 5904              		.loc 1 2049 0
 5905 2138 0198     		ldr	r0, [sp, #4]
 5906 213a 2721     		movs	r1, #39
 5907 213c 009A     		ldr	r2, [sp]
 5908 213e 0123     		movs	r3, #1
 5909 2140 FFF7FEFF 		bl	LSM303AGR_ACC_ReadReg
 5910 2144 0346     		mov	r3, r0
 5911 2146 002B     		cmp	r3, #0
 5912 2148 01D1     		bne	.L385
 5913              		.loc 1 2050 0
 5914 214a 0023     		movs	r3, #0
 5915 214c 07E0     		b	.L386
 5916              	.L385:
 5917              		.loc 1 2052 0
 5918 214e 009B     		ldr	r3, [sp]
 5919 2150 1B78     		ldrb	r3, [r3]	@ zero_extendqisi2
 5920 2152 03F00803 		and	r3, r3, #8
 5921 2156 DAB2     		uxtb	r2, r3
 5922 2158 009B     		ldr	r3, [sp]
 5923 215a 1A70     		strb	r2, [r3]
 5924              		.loc 1 2054 0
 5925 215c 0123     		movs	r3, #1
 5926              	.L386:
 5927              		.loc 1 2055 0
 5928 215e 1846     		mov	r0, r3
 5929 2160 03B0     		add	sp, sp, #12
 5930              		@ sp needed
 5931 2162 5DF804FB 		ldr	pc, [sp], #4
 5932              		.cfi_endproc
 5933              	.LFE364:
 5934              		.size	LSM303AGR_ACC_R_XYZDataAvail, .-LSM303AGR_ACC_R_XYZDataAvail
 5935 2166 00BF     		.align	2
 5936 2168 AFF30080 		.p2align 4,,15
 5936      AFF30080 
 5937              		.global	LSM303AGR_ACC_R_XDataOverrun
 5938              		.thumb
 5939              		.thumb_func
 5940              		.type	LSM303AGR_ACC_R_XDataOverrun, %function
 5941              	LSM303AGR_ACC_R_XDataOverrun:
 5942              	.LFB365:
 5943              		.loc 1 2065 0
 5944              		.cfi_startproc
 5945              		@ args = 0, pretend = 0, frame = 8
 5946              		@ frame_needed = 0, uses_anonymous_args = 0
 5947 2170 00B5     		push	{lr}
 5948              		.cfi_def_cfa_offset 4
 5949              		.cfi_offset 14, -4
 5950 2172 83B0     		sub	sp, sp, #12
ARM GAS  /tmp/ccRrg1qB.s 			page 107


 5951              		.cfi_def_cfa_offset 16
 5952 2174 0190     		str	r0, [sp, #4]
 5953 2176 0091     		str	r1, [sp]
 5954              		.loc 1 2066 0
 5955 2178 0198     		ldr	r0, [sp, #4]
 5956 217a 2721     		movs	r1, #39
 5957 217c 009A     		ldr	r2, [sp]
 5958 217e 0123     		movs	r3, #1
 5959 2180 FFF7FEFF 		bl	LSM303AGR_ACC_ReadReg
 5960 2184 0346     		mov	r3, r0
 5961 2186 002B     		cmp	r3, #0
 5962 2188 01D1     		bne	.L388
 5963              		.loc 1 2067 0
 5964 218a 0023     		movs	r3, #0
 5965 218c 07E0     		b	.L389
 5966              	.L388:
 5967              		.loc 1 2069 0
 5968 218e 009B     		ldr	r3, [sp]
 5969 2190 1B78     		ldrb	r3, [r3]	@ zero_extendqisi2
 5970 2192 03F01003 		and	r3, r3, #16
 5971 2196 DAB2     		uxtb	r2, r3
 5972 2198 009B     		ldr	r3, [sp]
 5973 219a 1A70     		strb	r2, [r3]
 5974              		.loc 1 2071 0
 5975 219c 0123     		movs	r3, #1
 5976              	.L389:
 5977              		.loc 1 2072 0
 5978 219e 1846     		mov	r0, r3
 5979 21a0 03B0     		add	sp, sp, #12
 5980              		@ sp needed
 5981 21a2 5DF804FB 		ldr	pc, [sp], #4
 5982              		.cfi_endproc
 5983              	.LFE365:
 5984              		.size	LSM303AGR_ACC_R_XDataOverrun, .-LSM303AGR_ACC_R_XDataOverrun
 5985 21a6 00BF     		.align	2
 5986 21a8 AFF30080 		.p2align 4,,15
 5986      AFF30080 
 5987              		.global	LSM303AGR_ACC_R_YDataOverrun
 5988              		.thumb
 5989              		.thumb_func
 5990              		.type	LSM303AGR_ACC_R_YDataOverrun, %function
 5991              	LSM303AGR_ACC_R_YDataOverrun:
 5992              	.LFB366:
 5993              		.loc 1 2082 0
 5994              		.cfi_startproc
 5995              		@ args = 0, pretend = 0, frame = 8
 5996              		@ frame_needed = 0, uses_anonymous_args = 0
 5997 21b0 00B5     		push	{lr}
 5998              		.cfi_def_cfa_offset 4
 5999              		.cfi_offset 14, -4
 6000 21b2 83B0     		sub	sp, sp, #12
 6001              		.cfi_def_cfa_offset 16
 6002 21b4 0190     		str	r0, [sp, #4]
 6003 21b6 0091     		str	r1, [sp]
 6004              		.loc 1 2083 0
 6005 21b8 0198     		ldr	r0, [sp, #4]
 6006 21ba 2721     		movs	r1, #39
ARM GAS  /tmp/ccRrg1qB.s 			page 108


 6007 21bc 009A     		ldr	r2, [sp]
 6008 21be 0123     		movs	r3, #1
 6009 21c0 FFF7FEFF 		bl	LSM303AGR_ACC_ReadReg
 6010 21c4 0346     		mov	r3, r0
 6011 21c6 002B     		cmp	r3, #0
 6012 21c8 01D1     		bne	.L391
 6013              		.loc 1 2084 0
 6014 21ca 0023     		movs	r3, #0
 6015 21cc 07E0     		b	.L392
 6016              	.L391:
 6017              		.loc 1 2086 0
 6018 21ce 009B     		ldr	r3, [sp]
 6019 21d0 1B78     		ldrb	r3, [r3]	@ zero_extendqisi2
 6020 21d2 03F02003 		and	r3, r3, #32
 6021 21d6 DAB2     		uxtb	r2, r3
 6022 21d8 009B     		ldr	r3, [sp]
 6023 21da 1A70     		strb	r2, [r3]
 6024              		.loc 1 2088 0
 6025 21dc 0123     		movs	r3, #1
 6026              	.L392:
 6027              		.loc 1 2089 0
 6028 21de 1846     		mov	r0, r3
 6029 21e0 03B0     		add	sp, sp, #12
 6030              		@ sp needed
 6031 21e2 5DF804FB 		ldr	pc, [sp], #4
 6032              		.cfi_endproc
 6033              	.LFE366:
 6034              		.size	LSM303AGR_ACC_R_YDataOverrun, .-LSM303AGR_ACC_R_YDataOverrun
 6035 21e6 00BF     		.align	2
 6036 21e8 AFF30080 		.p2align 4,,15
 6036      AFF30080 
 6037              		.global	LSM303AGR_ACC_R_ZDataOverrun
 6038              		.thumb
 6039              		.thumb_func
 6040              		.type	LSM303AGR_ACC_R_ZDataOverrun, %function
 6041              	LSM303AGR_ACC_R_ZDataOverrun:
 6042              	.LFB367:
 6043              		.loc 1 2099 0
 6044              		.cfi_startproc
 6045              		@ args = 0, pretend = 0, frame = 8
 6046              		@ frame_needed = 0, uses_anonymous_args = 0
 6047 21f0 00B5     		push	{lr}
 6048              		.cfi_def_cfa_offset 4
 6049              		.cfi_offset 14, -4
 6050 21f2 83B0     		sub	sp, sp, #12
 6051              		.cfi_def_cfa_offset 16
 6052 21f4 0190     		str	r0, [sp, #4]
 6053 21f6 0091     		str	r1, [sp]
 6054              		.loc 1 2100 0
 6055 21f8 0198     		ldr	r0, [sp, #4]
 6056 21fa 2721     		movs	r1, #39
 6057 21fc 009A     		ldr	r2, [sp]
 6058 21fe 0123     		movs	r3, #1
 6059 2200 FFF7FEFF 		bl	LSM303AGR_ACC_ReadReg
 6060 2204 0346     		mov	r3, r0
 6061 2206 002B     		cmp	r3, #0
 6062 2208 01D1     		bne	.L394
ARM GAS  /tmp/ccRrg1qB.s 			page 109


 6063              		.loc 1 2101 0
 6064 220a 0023     		movs	r3, #0
 6065 220c 07E0     		b	.L395
 6066              	.L394:
 6067              		.loc 1 2103 0
 6068 220e 009B     		ldr	r3, [sp]
 6069 2210 1B78     		ldrb	r3, [r3]	@ zero_extendqisi2
 6070 2212 03F04003 		and	r3, r3, #64
 6071 2216 DAB2     		uxtb	r2, r3
 6072 2218 009B     		ldr	r3, [sp]
 6073 221a 1A70     		strb	r2, [r3]
 6074              		.loc 1 2105 0
 6075 221c 0123     		movs	r3, #1
 6076              	.L395:
 6077              		.loc 1 2106 0
 6078 221e 1846     		mov	r0, r3
 6079 2220 03B0     		add	sp, sp, #12
 6080              		@ sp needed
 6081 2222 5DF804FB 		ldr	pc, [sp], #4
 6082              		.cfi_endproc
 6083              	.LFE367:
 6084              		.size	LSM303AGR_ACC_R_ZDataOverrun, .-LSM303AGR_ACC_R_ZDataOverrun
 6085 2226 00BF     		.align	2
 6086 2228 AFF30080 		.p2align 4,,15
 6086      AFF30080 
 6087              		.global	LSM303AGR_ACC_R_XYZDataOverrun
 6088              		.thumb
 6089              		.thumb_func
 6090              		.type	LSM303AGR_ACC_R_XYZDataOverrun, %function
 6091              	LSM303AGR_ACC_R_XYZDataOverrun:
 6092              	.LFB368:
 6093              		.loc 1 2116 0
 6094              		.cfi_startproc
 6095              		@ args = 0, pretend = 0, frame = 8
 6096              		@ frame_needed = 0, uses_anonymous_args = 0
 6097 2230 00B5     		push	{lr}
 6098              		.cfi_def_cfa_offset 4
 6099              		.cfi_offset 14, -4
 6100 2232 83B0     		sub	sp, sp, #12
 6101              		.cfi_def_cfa_offset 16
 6102 2234 0190     		str	r0, [sp, #4]
 6103 2236 0091     		str	r1, [sp]
 6104              		.loc 1 2117 0
 6105 2238 0198     		ldr	r0, [sp, #4]
 6106 223a 2721     		movs	r1, #39
 6107 223c 009A     		ldr	r2, [sp]
 6108 223e 0123     		movs	r3, #1
 6109 2240 FFF7FEFF 		bl	LSM303AGR_ACC_ReadReg
 6110 2244 0346     		mov	r3, r0
 6111 2246 002B     		cmp	r3, #0
 6112 2248 01D1     		bne	.L397
 6113              		.loc 1 2118 0
 6114 224a 0023     		movs	r3, #0
 6115 224c 07E0     		b	.L398
 6116              	.L397:
 6117              		.loc 1 2120 0
 6118 224e 009B     		ldr	r3, [sp]
ARM GAS  /tmp/ccRrg1qB.s 			page 110


 6119 2250 1B78     		ldrb	r3, [r3]	@ zero_extendqisi2
 6120 2252 23F07F03 		bic	r3, r3, #127
 6121 2256 DAB2     		uxtb	r2, r3
 6122 2258 009B     		ldr	r3, [sp]
 6123 225a 1A70     		strb	r2, [r3]
 6124              		.loc 1 2122 0
 6125 225c 0123     		movs	r3, #1
 6126              	.L398:
 6127              		.loc 1 2123 0
 6128 225e 1846     		mov	r0, r3
 6129 2260 03B0     		add	sp, sp, #12
 6130              		@ sp needed
 6131 2262 5DF804FB 		ldr	pc, [sp], #4
 6132              		.cfi_endproc
 6133              	.LFE368:
 6134              		.size	LSM303AGR_ACC_R_XYZDataOverrun, .-LSM303AGR_ACC_R_XYZDataOverrun
 6135 2266 00BF     		.align	2
 6136 2268 AFF30080 		.p2align 4,,15
 6136      AFF30080 
 6137              		.global	LSM303AGR_ACC_W_FifoThreshold
 6138              		.thumb
 6139              		.thumb_func
 6140              		.type	LSM303AGR_ACC_W_FifoThreshold, %function
 6141              	LSM303AGR_ACC_W_FifoThreshold:
 6142              	.LFB369:
 6143              		.loc 1 2133 0
 6144              		.cfi_startproc
 6145              		@ args = 0, pretend = 0, frame = 16
 6146              		@ frame_needed = 0, uses_anonymous_args = 0
 6147 2270 00B5     		push	{lr}
 6148              		.cfi_def_cfa_offset 4
 6149              		.cfi_offset 14, -4
 6150 2272 85B0     		sub	sp, sp, #20
 6151              		.cfi_def_cfa_offset 24
 6152 2274 0190     		str	r0, [sp, #4]
 6153 2276 0B46     		mov	r3, r1
 6154 2278 8DF80330 		strb	r3, [sp, #3]
 6155              		.loc 1 2137 0
 6156 227c 9DF80330 		ldrb	r3, [sp, #3]
 6157 2280 03F01F03 		and	r3, r3, #31
 6158 2284 8DF80330 		strb	r3, [sp, #3]
 6159              		.loc 1 2139 0
 6160 2288 0DF10F03 		add	r3, sp, #15
 6161 228c 0198     		ldr	r0, [sp, #4]
 6162 228e 2E21     		movs	r1, #46
 6163 2290 1A46     		mov	r2, r3
 6164 2292 0123     		movs	r3, #1
 6165 2294 FFF7FEFF 		bl	LSM303AGR_ACC_ReadReg
 6166 2298 0346     		mov	r3, r0
 6167 229a 002B     		cmp	r3, #0
 6168 229c 01D1     		bne	.L400
 6169              		.loc 1 2140 0
 6170 229e 0023     		movs	r3, #0
 6171 22a0 1CE0     		b	.L403
 6172              	.L400:
 6173              		.loc 1 2142 0
 6174 22a2 9DF80F30 		ldrb	r3, [sp, #15]	@ zero_extendqisi2
ARM GAS  /tmp/ccRrg1qB.s 			page 111


 6175 22a6 23F01F03 		bic	r3, r3, #31
 6176 22aa DBB2     		uxtb	r3, r3
 6177 22ac 8DF80F30 		strb	r3, [sp, #15]
 6178              		.loc 1 2143 0
 6179 22b0 9DF80F20 		ldrb	r2, [sp, #15]	@ zero_extendqisi2
 6180 22b4 9DF80330 		ldrb	r3, [sp, #3]
 6181 22b8 1343     		orrs	r3, r3, r2
 6182 22ba DBB2     		uxtb	r3, r3
 6183 22bc 8DF80F30 		strb	r3, [sp, #15]
 6184              		.loc 1 2145 0
 6185 22c0 0DF10F03 		add	r3, sp, #15
 6186 22c4 0198     		ldr	r0, [sp, #4]
 6187 22c6 2E21     		movs	r1, #46
 6188 22c8 1A46     		mov	r2, r3
 6189 22ca 0123     		movs	r3, #1
 6190 22cc FFF7FEFF 		bl	LSM303AGR_ACC_WriteReg
 6191 22d0 0346     		mov	r3, r0
 6192 22d2 002B     		cmp	r3, #0
 6193 22d4 01D1     		bne	.L402
 6194              		.loc 1 2146 0
 6195 22d6 0023     		movs	r3, #0
 6196 22d8 00E0     		b	.L403
 6197              	.L402:
 6198              		.loc 1 2148 0
 6199 22da 0123     		movs	r3, #1
 6200              	.L403:
 6201              		.loc 1 2149 0
 6202 22dc 1846     		mov	r0, r3
 6203 22de 05B0     		add	sp, sp, #20
 6204              		@ sp needed
 6205 22e0 5DF804FB 		ldr	pc, [sp], #4
 6206              		.cfi_endproc
 6207              	.LFE369:
 6208              		.size	LSM303AGR_ACC_W_FifoThreshold, .-LSM303AGR_ACC_W_FifoThreshold
 6209              		.align	2
 6210 22e4 AFF30080 		.p2align 4,,15
 6210      AFF30080 
 6210      AFF30080 
 6211              		.global	LSM303AGR_ACC_R_FifoThreshold
 6212              		.thumb
 6213              		.thumb_func
 6214              		.type	LSM303AGR_ACC_R_FifoThreshold, %function
 6215              	LSM303AGR_ACC_R_FifoThreshold:
 6216              	.LFB370:
 6217              		.loc 1 2159 0
 6218              		.cfi_startproc
 6219              		@ args = 0, pretend = 0, frame = 8
 6220              		@ frame_needed = 0, uses_anonymous_args = 0
 6221 22f0 00B5     		push	{lr}
 6222              		.cfi_def_cfa_offset 4
 6223              		.cfi_offset 14, -4
 6224 22f2 83B0     		sub	sp, sp, #12
 6225              		.cfi_def_cfa_offset 16
 6226 22f4 0190     		str	r0, [sp, #4]
 6227 22f6 0091     		str	r1, [sp]
 6228              		.loc 1 2160 0
 6229 22f8 0198     		ldr	r0, [sp, #4]
ARM GAS  /tmp/ccRrg1qB.s 			page 112


 6230 22fa 2E21     		movs	r1, #46
 6231 22fc 009A     		ldr	r2, [sp]
 6232 22fe 0123     		movs	r3, #1
 6233 2300 FFF7FEFF 		bl	LSM303AGR_ACC_ReadReg
 6234 2304 0346     		mov	r3, r0
 6235 2306 002B     		cmp	r3, #0
 6236 2308 01D1     		bne	.L405
 6237              		.loc 1 2161 0
 6238 230a 0023     		movs	r3, #0
 6239 230c 0BE0     		b	.L406
 6240              	.L405:
 6241              		.loc 1 2163 0
 6242 230e 009B     		ldr	r3, [sp]
 6243 2310 1B78     		ldrb	r3, [r3]	@ zero_extendqisi2
 6244 2312 03F01F03 		and	r3, r3, #31
 6245 2316 DAB2     		uxtb	r2, r3
 6246 2318 009B     		ldr	r3, [sp]
 6247 231a 1A70     		strb	r2, [r3]
 6248              		.loc 1 2164 0
 6249 231c 009B     		ldr	r3, [sp]
 6250 231e 1A78     		ldrb	r2, [r3]	@ zero_extendqisi2
 6251 2320 009B     		ldr	r3, [sp]
 6252 2322 1A70     		strb	r2, [r3]
 6253              		.loc 1 2166 0
 6254 2324 0123     		movs	r3, #1
 6255              	.L406:
 6256              		.loc 1 2167 0
 6257 2326 1846     		mov	r0, r3
 6258 2328 03B0     		add	sp, sp, #12
 6259              		@ sp needed
 6260 232a 5DF804FB 		ldr	pc, [sp], #4
 6261              		.cfi_endproc
 6262              	.LFE370:
 6263              		.size	LSM303AGR_ACC_R_FifoThreshold, .-LSM303AGR_ACC_R_FifoThreshold
 6264 232e 00BF     		.align	2
 6265              		.p2align 4,,15
 6266              		.global	LSM303AGR_ACC_W_TriggerSel
 6267              		.thumb
 6268              		.thumb_func
 6269              		.type	LSM303AGR_ACC_W_TriggerSel, %function
 6270              	LSM303AGR_ACC_W_TriggerSel:
 6271              	.LFB371:
 6272              		.loc 1 2177 0
 6273              		.cfi_startproc
 6274              		@ args = 0, pretend = 0, frame = 16
 6275              		@ frame_needed = 0, uses_anonymous_args = 0
 6276 2330 00B5     		push	{lr}
 6277              		.cfi_def_cfa_offset 4
 6278              		.cfi_offset 14, -4
 6279 2332 85B0     		sub	sp, sp, #20
 6280              		.cfi_def_cfa_offset 24
 6281 2334 0190     		str	r0, [sp, #4]
 6282 2336 0B46     		mov	r3, r1
 6283 2338 8DF80330 		strb	r3, [sp, #3]
 6284              		.loc 1 2180 0
 6285 233c 0DF10F03 		add	r3, sp, #15
 6286 2340 0198     		ldr	r0, [sp, #4]
ARM GAS  /tmp/ccRrg1qB.s 			page 113


 6287 2342 2E21     		movs	r1, #46
 6288 2344 1A46     		mov	r2, r3
 6289 2346 0123     		movs	r3, #1
 6290 2348 FFF7FEFF 		bl	LSM303AGR_ACC_ReadReg
 6291 234c 0346     		mov	r3, r0
 6292 234e 002B     		cmp	r3, #0
 6293 2350 01D1     		bne	.L408
 6294              		.loc 1 2181 0
 6295 2352 0023     		movs	r3, #0
 6296 2354 1CE0     		b	.L411
 6297              	.L408:
 6298              		.loc 1 2183 0
 6299 2356 9DF80F30 		ldrb	r3, [sp, #15]	@ zero_extendqisi2
 6300 235a 23F02003 		bic	r3, r3, #32
 6301 235e DBB2     		uxtb	r3, r3
 6302 2360 8DF80F30 		strb	r3, [sp, #15]
 6303              		.loc 1 2184 0
 6304 2364 9DF80F20 		ldrb	r2, [sp, #15]	@ zero_extendqisi2
 6305 2368 9DF80330 		ldrb	r3, [sp, #3]
 6306 236c 1343     		orrs	r3, r3, r2
 6307 236e DBB2     		uxtb	r3, r3
 6308 2370 8DF80F30 		strb	r3, [sp, #15]
 6309              		.loc 1 2186 0
 6310 2374 0DF10F03 		add	r3, sp, #15
 6311 2378 0198     		ldr	r0, [sp, #4]
 6312 237a 2E21     		movs	r1, #46
 6313 237c 1A46     		mov	r2, r3
 6314 237e 0123     		movs	r3, #1
 6315 2380 FFF7FEFF 		bl	LSM303AGR_ACC_WriteReg
 6316 2384 0346     		mov	r3, r0
 6317 2386 002B     		cmp	r3, #0
 6318 2388 01D1     		bne	.L410
 6319              		.loc 1 2187 0
 6320 238a 0023     		movs	r3, #0
 6321 238c 00E0     		b	.L411
 6322              	.L410:
 6323              		.loc 1 2189 0
 6324 238e 0123     		movs	r3, #1
 6325              	.L411:
 6326              		.loc 1 2190 0
 6327 2390 1846     		mov	r0, r3
 6328 2392 05B0     		add	sp, sp, #20
 6329              		@ sp needed
 6330 2394 5DF804FB 		ldr	pc, [sp], #4
 6331              		.cfi_endproc
 6332              	.LFE371:
 6333              		.size	LSM303AGR_ACC_W_TriggerSel, .-LSM303AGR_ACC_W_TriggerSel
 6334              		.align	2
 6335 2398 AFF30080 		.p2align 4,,15
 6335      AFF30080 
 6336              		.global	LSM303AGR_ACC_R_TriggerSel
 6337              		.thumb
 6338              		.thumb_func
 6339              		.type	LSM303AGR_ACC_R_TriggerSel, %function
 6340              	LSM303AGR_ACC_R_TriggerSel:
 6341              	.LFB372:
 6342              		.loc 1 2200 0
ARM GAS  /tmp/ccRrg1qB.s 			page 114


 6343              		.cfi_startproc
 6344              		@ args = 0, pretend = 0, frame = 8
 6345              		@ frame_needed = 0, uses_anonymous_args = 0
 6346 23a0 00B5     		push	{lr}
 6347              		.cfi_def_cfa_offset 4
 6348              		.cfi_offset 14, -4
 6349 23a2 83B0     		sub	sp, sp, #12
 6350              		.cfi_def_cfa_offset 16
 6351 23a4 0190     		str	r0, [sp, #4]
 6352 23a6 0091     		str	r1, [sp]
 6353              		.loc 1 2201 0
 6354 23a8 0198     		ldr	r0, [sp, #4]
 6355 23aa 2E21     		movs	r1, #46
 6356 23ac 009A     		ldr	r2, [sp]
 6357 23ae 0123     		movs	r3, #1
 6358 23b0 FFF7FEFF 		bl	LSM303AGR_ACC_ReadReg
 6359 23b4 0346     		mov	r3, r0
