ARM GAS  /tmp/ccRrg1qB.s 			page 1


   1              		.syntax unified
   2              		.cpu cortex-m4
   3              		.fpu softvfp
   4              		.eabi_attribute 20, 1
   5              		.eabi_attribute 21, 1
   6              		.eabi_attribute 23, 3
   7              		.eabi_attribute 24, 1
   8              		.eabi_attribute 25, 1
   9              		.eabi_attribute 26, 1
  10              		.eabi_attribute 30, 6
  11              		.eabi_attribute 34, 1
  12              		.eabi_attribute 18, 4
  13              		.thumb
  14              		.file	"LSM303AGR_ACC_driver.c"
  15              		.text
  16              	.Ltext0:
  17              		.cfi_sections	.debug_frame
  18              		.data
  19              		.align	2
  20              		.type	lsm303ad_accel_cfg, %object
  21              		.size	lsm303ad_accel_cfg, 16
  22              	lsm303ad_accel_cfg:
  23 0000 00000000 		.word	0
  24 0004 00080048 		.word	1207961600
  25 0008 0400     		.short	4
  26 000a 30C0     		.short	-16336
  27 000c 0000     		.short	0
  28 000e 0000     		.space	2
  29              		.text
  30              		.align	2
  31              		.p2align 4,,15
  32              		.global	LSM303AGR_ACC_Init
  33              		.thumb
  34              		.thumb_func
  35              		.type	LSM303AGR_ACC_Init, %function
  36              	LSM303AGR_ACC_Init:
  37              	.LFB267:
  38              		.file 1 "./driver/LSM303AGR_ACC_driver.c"
  39              		.loc 1 74 0
  40              		.cfi_startproc
  41              		@ args = 0, pretend = 0, frame = 8
  42              		@ frame_needed = 0, uses_anonymous_args = 0
  43 0000 00B5     		push	{lr}
  44              		.cfi_def_cfa_offset 4
  45              		.cfi_offset 14, -4
  46 0002 83B0     		sub	sp, sp, #12
  47              		.cfi_def_cfa_offset 16
  48              		.loc 1 75 0
  49 0004 0123     		movs	r3, #1
  50 0006 8DF80730 		strb	r3, [sp, #7]
  51              		.loc 1 76 0
  52 000a 2723     		movs	r3, #39
  53 000c 8DF80630 		strb	r3, [sp, #6]
  54              		.loc 1 77 0
  55 0010 0DF10603 		add	r3, sp, #6
  56 0014 0020     		movs	r0, #0
  57 0016 2021     		movs	r1, #32
ARM GAS  /tmp/ccRrg1qB.s 			page 2


  58 0018 1A46     		mov	r2, r3
  59 001a 0123     		movs	r3, #1
  60 001c FFF7FEFF 		bl	LSM303AGR_ACC_WriteReg
  61              		.loc 1 78 0
  62 0020 0DF10703 		add	r3, sp, #7
  63 0024 0020     		movs	r0, #0
  64 0026 2321     		movs	r1, #35
  65 0028 1A46     		mov	r2, r3
  66 002a 0123     		movs	r3, #1
  67 002c FFF7FEFF 		bl	LSM303AGR_ACC_WriteReg
  68              		.loc 1 79 0
  69 0030 0123     		movs	r3, #1
  70              		.loc 1 80 0
  71 0032 1846     		mov	r0, r3
  72 0034 03B0     		add	sp, sp, #12
  73              		@ sp needed
  74 0036 5DF804FB 		ldr	pc, [sp], #4
  75              		.cfi_endproc
  76              	.LFE267:
  77              		.size	LSM303AGR_ACC_Init, .-LSM303AGR_ACC_Init
  78 003a 00BF     		.align	2
  79 003c AFF30080 		.p2align 4,,15
  80              		.global	LSM303AGR_ACC_HR_Init
  81              		.thumb
  82              		.thumb_func
  83              		.type	LSM303AGR_ACC_HR_Init, %function
  84              	LSM303AGR_ACC_HR_Init:
  85              	.LFB268:
  86              		.loc 1 82 0
  87              		.cfi_startproc
  88              		@ args = 0, pretend = 0, frame = 8
  89              		@ frame_needed = 0, uses_anonymous_args = 0
  90 0040 00B5     		push	{lr}
  91              		.cfi_def_cfa_offset 4
  92              		.cfi_offset 14, -4
  93 0042 83B0     		sub	sp, sp, #12
  94              		.cfi_def_cfa_offset 16
  95              		.loc 1 83 0
  96 0044 0923     		movs	r3, #9
  97 0046 8DF80730 		strb	r3, [sp, #7]
  98              		.loc 1 84 0
  99 004a 2723     		movs	r3, #39
 100 004c 8DF80630 		strb	r3, [sp, #6]
 101              		.loc 1 85 0
 102 0050 0DF10603 		add	r3, sp, #6
 103 0054 0020     		movs	r0, #0
 104 0056 2021     		movs	r1, #32
 105 0058 1A46     		mov	r2, r3
 106 005a 0123     		movs	r3, #1
 107 005c FFF7FEFF 		bl	LSM303AGR_ACC_WriteReg
 108              		.loc 1 86 0
 109 0060 0DF10703 		add	r3, sp, #7
 110 0064 0020     		movs	r0, #0
 111 0066 2321     		movs	r1, #35
 112 0068 1A46     		mov	r2, r3
 113 006a 0123     		movs	r3, #1
 114 006c FFF7FEFF 		bl	LSM303AGR_ACC_WriteReg
ARM GAS  /tmp/ccRrg1qB.s 			page 3


 115              		.loc 1 87 0
 116 0070 0123     		movs	r3, #1
 117              		.loc 1 88 0
 118 0072 1846     		mov	r0, r3
 119 0074 03B0     		add	sp, sp, #12
 120              		@ sp needed
 121 0076 5DF804FB 		ldr	pc, [sp], #4
 122              		.cfi_endproc
 123              	.LFE268:
 124              		.size	LSM303AGR_ACC_HR_Init, .-LSM303AGR_ACC_HR_Init
 125 007a 00BF     		.align	2
 126 007c AFF30080 		.p2align 4,,15
 127              		.global	LSM303AGR_ACC_WriteReg
 128              		.thumb
 129              		.thumb_func
 130              		.type	LSM303AGR_ACC_WriteReg, %function
 131              	LSM303AGR_ACC_WriteReg:
 132              	.LFB269:
 133              		.loc 1 99 0
 134              		.cfi_startproc
 135              		@ args = 0, pretend = 0, frame = 16
 136              		@ frame_needed = 0, uses_anonymous_args = 0
 137 0080 00B5     		push	{lr}
 138              		.cfi_def_cfa_offset 4
 139              		.cfi_offset 14, -4
 140 0082 85B0     		sub	sp, sp, #20
 141              		.cfi_def_cfa_offset 24
 142 0084 0390     		str	r0, [sp, #12]
 143 0086 0192     		str	r2, [sp, #4]
 144 0088 0A46     		mov	r2, r1
 145 008a 8DF80B20 		strb	r2, [sp, #11]
 146 008e ADF80830 		strh	r3, [sp, #8]	@ movhi
 147              		.loc 1 101 0
 148 0092 9DF80B20 		ldrb	r2, [sp, #11]	@ zero_extendqisi2
 149 0096 BDF80830 		ldrh	r3, [sp, #8]
 150 009a 0748     		ldr	r0, .L8
 151 009c 1146     		mov	r1, r2
 152 009e 019A     		ldr	r2, [sp, #4]
 153 00a0 FFF7FEFF 		bl	Sensor_IO_SPI_Write
 154 00a4 0346     		mov	r3, r0
 155 00a6 002B     		cmp	r3, #0
 156 00a8 01D0     		beq	.L6
 157              		.loc 1 103 0
 158 00aa 0023     		movs	r3, #0
 159 00ac 00E0     		b	.L7
 160              	.L6:
 161              		.loc 1 107 0
 162 00ae 0123     		movs	r3, #1
 163              	.L7:
 164              		.loc 1 109 0
 165 00b0 1846     		mov	r0, r3
 166 00b2 05B0     		add	sp, sp, #20
 167              		@ sp needed
 168 00b4 5DF804FB 		ldr	pc, [sp], #4
 169              	.L9:
 170              		.align	2
 171              	.L8:
ARM GAS  /tmp/ccRrg1qB.s 			page 4


 172 00b8 00000000 		.word	lsm303ad_accel_cfg
 173              		.cfi_endproc
 174              	.LFE269:
 175              		.size	LSM303AGR_ACC_WriteReg, .-LSM303AGR_ACC_WriteReg
 176              		.align	2
 177 00bc AFF30080 		.p2align 4,,15
 178              		.global	LSM303AGR_ACC_ReadReg
 179              		.thumb
 180              		.thumb_func
 181              		.type	LSM303AGR_ACC_ReadReg, %function
 182              	LSM303AGR_ACC_ReadReg:
 183              	.LFB270:
 184              		.loc 1 120 0
 185              		.cfi_startproc
 186              		@ args = 0, pretend = 0, frame = 16
 187              		@ frame_needed = 0, uses_anonymous_args = 0
 188 00c0 00B5     		push	{lr}
 189              		.cfi_def_cfa_offset 4
 190              		.cfi_offset 14, -4
 191 00c2 85B0     		sub	sp, sp, #20
 192              		.cfi_def_cfa_offset 24
 193 00c4 0390     		str	r0, [sp, #12]
 194 00c6 0192     		str	r2, [sp, #4]
 195 00c8 0A46     		mov	r2, r1
 196 00ca 8DF80B20 		strb	r2, [sp, #11]
 197 00ce ADF80830 		strh	r3, [sp, #8]	@ movhi
 198              		.loc 1 122 0
 199 00d2 9DF80B20 		ldrb	r2, [sp, #11]	@ zero_extendqisi2
 200 00d6 BDF80830 		ldrh	r3, [sp, #8]
 201 00da 0748     		ldr	r0, .L13
 202 00dc 1146     		mov	r1, r2
 203 00de 019A     		ldr	r2, [sp, #4]
 204 00e0 FFF7FEFF 		bl	Sensor_IO_SPI_Read
 205 00e4 0346     		mov	r3, r0
 206 00e6 002B     		cmp	r3, #0
 207 00e8 01D0     		beq	.L11
 208              		.loc 1 124 0
 209 00ea 0023     		movs	r3, #0
 210 00ec 00E0     		b	.L12
 211              	.L11:
 212              		.loc 1 128 0
 213 00ee 0123     		movs	r3, #1
 214              	.L12:
 215              		.loc 1 130 0
 216 00f0 1846     		mov	r0, r3
 217 00f2 05B0     		add	sp, sp, #20
 218              		@ sp needed
 219 00f4 5DF804FB 		ldr	pc, [sp], #4
 220              	.L14:
 221              		.align	2
 222              	.L13:
 223 00f8 00000000 		.word	lsm303ad_accel_cfg
 224              		.cfi_endproc
 225              	.LFE270:
 226              		.size	LSM303AGR_ACC_ReadReg, .-LSM303AGR_ACC_ReadReg
 227              		.align	2
 228 00fc AFF30080 		.p2align 4,,15
ARM GAS  /tmp/ccRrg1qB.s 			page 5


 229              		.global	LSM303AGR_ACC_R_WHO_AM_I
 230              		.thumb
 231              		.thumb_func
 232              		.type	LSM303AGR_ACC_R_WHO_AM_I, %function
 233              	LSM303AGR_ACC_R_WHO_AM_I:
 234              	.LFB271:
 235              		.loc 1 142 0
 236              		.cfi_startproc
 237              		@ args = 0, pretend = 0, frame = 8
 238              		@ frame_needed = 0, uses_anonymous_args = 0
 239 0100 00B5     		push	{lr}
 240              		.cfi_def_cfa_offset 4
 241              		.cfi_offset 14, -4
 242 0102 83B0     		sub	sp, sp, #12
 243              		.cfi_def_cfa_offset 16
 244 0104 0190     		str	r0, [sp, #4]
 245 0106 0091     		str	r1, [sp]
 246              		.loc 1 143 0
 247 0108 0198     		ldr	r0, [sp, #4]
 248 010a 0F21     		movs	r1, #15
 249 010c 009A     		ldr	r2, [sp]
 250 010e 0123     		movs	r3, #1
 251 0110 FFF7FEFF 		bl	LSM303AGR_ACC_ReadReg
 252 0114 0346     		mov	r3, r0
 253 0116 002B     		cmp	r3, #0
 254 0118 01D1     		bne	.L16
 255              		.loc 1 144 0
 256 011a 0023     		movs	r3, #0
 257 011c 00E0     		b	.L17
 258              	.L16:
 259              		.loc 1 149 0
 260 011e 0123     		movs	r3, #1
 261              	.L17:
 262              		.loc 1 150 0
 263 0120 1846     		mov	r0, r3
 264 0122 03B0     		add	sp, sp, #12
 265              		@ sp needed
 266 0124 5DF804FB 		ldr	pc, [sp], #4
 267              		.cfi_endproc
 268              	.LFE271:
 269              		.size	LSM303AGR_ACC_R_WHO_AM_I, .-LSM303AGR_ACC_R_WHO_AM_I
 270              		.align	2
 271 0128 AFF30080 		.p2align 4,,15
 271      AFF30080 
 272              		.global	LSM303AGR_ACC_W_BlockDataUpdate
 273              		.thumb
 274              		.thumb_func
 275              		.type	LSM303AGR_ACC_W_BlockDataUpdate, %function
 276              	LSM303AGR_ACC_W_BlockDataUpdate:
 277              	.LFB272:
 278              		.loc 1 160 0
 279              		.cfi_startproc
 280              		@ args = 0, pretend = 0, frame = 16
 281              		@ frame_needed = 0, uses_anonymous_args = 0
 282 0130 00B5     		push	{lr}
 283              		.cfi_def_cfa_offset 4
 284              		.cfi_offset 14, -4
ARM GAS  /tmp/ccRrg1qB.s 			page 6


 285 0132 85B0     		sub	sp, sp, #20
 286              		.cfi_def_cfa_offset 24
 287 0134 0190     		str	r0, [sp, #4]
 288 0136 0B46     		mov	r3, r1
 289 0138 8DF80330 		strb	r3, [sp, #3]
 290              		.loc 1 163 0
 291 013c 0DF10F03 		add	r3, sp, #15
 292 0140 0198     		ldr	r0, [sp, #4]
 293 0142 2321     		movs	r1, #35
 294 0144 1A46     		mov	r2, r3
 295 0146 0123     		movs	r3, #1
 296 0148 FFF7FEFF 		bl	LSM303AGR_ACC_ReadReg
 297 014c 0346     		mov	r3, r0
 298 014e 002B     		cmp	r3, #0
 299 0150 01D1     		bne	.L19
 300              		.loc 1 164 0
 301 0152 0023     		movs	r3, #0
 302 0154 1CE0     		b	.L22
 303              	.L19:
 304              		.loc 1 166 0
 305 0156 9DF80F30 		ldrb	r3, [sp, #15]	@ zero_extendqisi2
 306 015a 03F07F03 		and	r3, r3, #127
 307 015e DBB2     		uxtb	r3, r3
 308 0160 8DF80F30 		strb	r3, [sp, #15]
 309              		.loc 1 167 0
 310 0164 9DF80F20 		ldrb	r2, [sp, #15]	@ zero_extendqisi2
 311 0168 9DF80330 		ldrb	r3, [sp, #3]
 312 016c 1343     		orrs	r3, r3, r2
 313 016e DBB2     		uxtb	r3, r3
 314 0170 8DF80F30 		strb	r3, [sp, #15]
 315              		.loc 1 169 0
 316 0174 0DF10F03 		add	r3, sp, #15
 317 0178 0198     		ldr	r0, [sp, #4]
 318 017a 2321     		movs	r1, #35
 319 017c 1A46     		mov	r2, r3
 320 017e 0123     		movs	r3, #1
 321 0180 FFF7FEFF 		bl	LSM303AGR_ACC_WriteReg
 322 0184 0346     		mov	r3, r0
 323 0186 002B     		cmp	r3, #0
 324 0188 01D1     		bne	.L21
 325              		.loc 1 170 0
 326 018a 0023     		movs	r3, #0
 327 018c 00E0     		b	.L22
 328              	.L21:
 329              		.loc 1 172 0
 330 018e 0123     		movs	r3, #1
 331              	.L22:
 332              		.loc 1 173 0
 333 0190 1846     		mov	r0, r3
 334 0192 05B0     		add	sp, sp, #20
 335              		@ sp needed
 336 0194 5DF804FB 		ldr	pc, [sp], #4
 337              		.cfi_endproc
 338              	.LFE272:
 339              		.size	LSM303AGR_ACC_W_BlockDataUpdate, .-LSM303AGR_ACC_W_BlockDataUpdate
 340              		.align	2
 341 0198 AFF30080 		.p2align 4,,15
ARM GAS  /tmp/ccRrg1qB.s 			page 7


 341      AFF30080 
 342              		.global	LSM303AGR_ACC_R_BlockDataUpdate
 343              		.thumb
 344              		.thumb_func
 345              		.type	LSM303AGR_ACC_R_BlockDataUpdate, %function
 346              	LSM303AGR_ACC_R_BlockDataUpdate:
 347              	.LFB273:
 348              		.loc 1 183 0
 349              		.cfi_startproc
 350              		@ args = 0, pretend = 0, frame = 8
 351              		@ frame_needed = 0, uses_anonymous_args = 0
 352 01a0 00B5     		push	{lr}
 353              		.cfi_def_cfa_offset 4
 354              		.cfi_offset 14, -4
 355 01a2 83B0     		sub	sp, sp, #12
 356              		.cfi_def_cfa_offset 16
 357 01a4 0190     		str	r0, [sp, #4]
 358 01a6 0091     		str	r1, [sp]
 359              		.loc 1 184 0
 360 01a8 0198     		ldr	r0, [sp, #4]
 361 01aa 2321     		movs	r1, #35
 362 01ac 009A     		ldr	r2, [sp]
 363 01ae 0123     		movs	r3, #1
 364 01b0 FFF7FEFF 		bl	LSM303AGR_ACC_ReadReg
 365 01b4 0346     		mov	r3, r0
 366 01b6 002B     		cmp	r3, #0
 367 01b8 01D1     		bne	.L24
 368              		.loc 1 185 0
 369 01ba 0023     		movs	r3, #0
 370 01bc 07E0     		b	.L25
 371              	.L24:
 372              		.loc 1 187 0
 373 01be 009B     		ldr	r3, [sp]
 374 01c0 1B78     		ldrb	r3, [r3]	@ zero_extendqisi2
 375 01c2 23F07F03 		bic	r3, r3, #127
 376 01c6 DAB2     		uxtb	r2, r3
 377 01c8 009B     		ldr	r3, [sp]
 378 01ca 1A70     		strb	r2, [r3]
 379              		.loc 1 189 0
 380 01cc 0123     		movs	r3, #1
 381              	.L25:
 382              		.loc 1 190 0
 383 01ce 1846     		mov	r0, r3
 384 01d0 03B0     		add	sp, sp, #12
 385              		@ sp needed
 386 01d2 5DF804FB 		ldr	pc, [sp], #4
 387              		.cfi_endproc
 388              	.LFE273:
 389              		.size	LSM303AGR_ACC_R_BlockDataUpdate, .-LSM303AGR_ACC_R_BlockDataUpdate
 390 01d6 00BF     		.align	2
 391 01d8 AFF30080 		.p2align 4,,15
 391      AFF30080 
 392              		.global	LSM303AGR_ACC_W_FullScale
 393              		.thumb
 394              		.thumb_func
 395              		.type	LSM303AGR_ACC_W_FullScale, %function
 396              	LSM303AGR_ACC_W_FullScale:
ARM GAS  /tmp/ccRrg1qB.s 			page 8


 397              	.LFB274:
 398              		.loc 1 200 0
 399              		.cfi_startproc
 400              		@ args = 0, pretend = 0, frame = 16
 401              		@ frame_needed = 0, uses_anonymous_args = 0
 402 01e0 00B5     		push	{lr}
 403              		.cfi_def_cfa_offset 4
 404              		.cfi_offset 14, -4
 405 01e2 85B0     		sub	sp, sp, #20
 406              		.cfi_def_cfa_offset 24
 407 01e4 0190     		str	r0, [sp, #4]
 408 01e6 0B46     		mov	r3, r1
 409 01e8 8DF80330 		strb	r3, [sp, #3]
 410              		.loc 1 203 0
 411 01ec 0DF10F03 		add	r3, sp, #15
 412 01f0 0198     		ldr	r0, [sp, #4]
 413 01f2 2321     		movs	r1, #35
 414 01f4 1A46     		mov	r2, r3
 415 01f6 0123     		movs	r3, #1
 416 01f8 FFF7FEFF 		bl	LSM303AGR_ACC_ReadReg
 417 01fc 0346     		mov	r3, r0
 418 01fe 002B     		cmp	r3, #0
 419 0200 01D1     		bne	.L27
 420              		.loc 1 204 0
 421 0202 0023     		movs	r3, #0
 422 0204 1CE0     		b	.L30
 423              	.L27:
 424              		.loc 1 206 0
 425 0206 9DF80F30 		ldrb	r3, [sp, #15]	@ zero_extendqisi2
 426 020a 23F03003 		bic	r3, r3, #48
 427 020e DBB2     		uxtb	r3, r3
 428 0210 8DF80F30 		strb	r3, [sp, #15]
 429              		.loc 1 207 0
 430 0214 9DF80F20 		ldrb	r2, [sp, #15]	@ zero_extendqisi2
 431 0218 9DF80330 		ldrb	r3, [sp, #3]
 432 021c 1343     		orrs	r3, r3, r2
 433 021e DBB2     		uxtb	r3, r3
 434 0220 8DF80F30 		strb	r3, [sp, #15]
 435              		.loc 1 209 0
 436 0224 0DF10F03 		add	r3, sp, #15
 437 0228 0198     		ldr	r0, [sp, #4]
 438 022a 2321     		movs	r1, #35
 439 022c 1A46     		mov	r2, r3
 440 022e 0123     		movs	r3, #1
 441 0230 FFF7FEFF 		bl	LSM303AGR_ACC_WriteReg
 442 0234 0346     		mov	r3, r0
 443 0236 002B     		cmp	r3, #0
 444 0238 01D1     		bne	.L29
 445              		.loc 1 210 0
 446 023a 0023     		movs	r3, #0
 447 023c 00E0     		b	.L30
 448              	.L29:
 449              		.loc 1 212 0
 450 023e 0123     		movs	r3, #1
 451              	.L30:
 452              		.loc 1 213 0
 453 0240 1846     		mov	r0, r3
ARM GAS  /tmp/ccRrg1qB.s 			page 9


 454 0242 05B0     		add	sp, sp, #20
 455              		@ sp needed
 456 0244 5DF804FB 		ldr	pc, [sp], #4
 457              		.cfi_endproc
 458              	.LFE274:
 459              		.size	LSM303AGR_ACC_W_FullScale, .-LSM303AGR_ACC_W_FullScale
 460              		.align	2
 461 0248 AFF30080 		.p2align 4,,15
 461      AFF30080 
 462              		.global	LSM303AGR_ACC_R_FullScale
 463              		.thumb
 464              		.thumb_func
 465              		.type	LSM303AGR_ACC_R_FullScale, %function
 466              	LSM303AGR_ACC_R_FullScale:
 467              	.LFB275:
 468              		.loc 1 223 0
 469              		.cfi_startproc
 470              		@ args = 0, pretend = 0, frame = 8
 471              		@ frame_needed = 0, uses_anonymous_args = 0
 472 0250 00B5     		push	{lr}
 473              		.cfi_def_cfa_offset 4
 474              		.cfi_offset 14, -4
 475 0252 83B0     		sub	sp, sp, #12
 476              		.cfi_def_cfa_offset 16
 477 0254 0190     		str	r0, [sp, #4]
 478 0256 0091     		str	r1, [sp]
 479              		.loc 1 224 0
 480 0258 0198     		ldr	r0, [sp, #4]
 481 025a 2321     		movs	r1, #35
 482 025c 009A     		ldr	r2, [sp]
 483 025e 0123     		movs	r3, #1
 484 0260 FFF7FEFF 		bl	LSM303AGR_ACC_ReadReg
 485 0264 0346     		mov	r3, r0
 486 0266 002B     		cmp	r3, #0
 487 0268 01D1     		bne	.L32
 488              		.loc 1 225 0
 489 026a 0023     		movs	r3, #0
 490 026c 07E0     		b	.L33
 491              	.L32:
 492              		.loc 1 227 0
 493 026e 009B     		ldr	r3, [sp]
 494 0270 1B78     		ldrb	r3, [r3]	@ zero_extendqisi2
 495 0272 03F03003 		and	r3, r3, #48
 496 0276 DAB2     		uxtb	r2, r3
 497 0278 009B     		ldr	r3, [sp]
 498 027a 1A70     		strb	r2, [r3]
 499              		.loc 1 229 0
 500 027c 0123     		movs	r3, #1
 501              	.L33:
 502              		.loc 1 230 0
 503 027e 1846     		mov	r0, r3
 504 0280 03B0     		add	sp, sp, #12
 505              		@ sp needed
 506 0282 5DF804FB 		ldr	pc, [sp], #4
 507              		.cfi_endproc
 508              	.LFE275:
 509              		.size	LSM303AGR_ACC_R_FullScale, .-LSM303AGR_ACC_R_FullScale
ARM GAS  /tmp/ccRrg1qB.s 			page 10


 510 0286 00BF     		.align	2
 511 0288 AFF30080 		.p2align 4,,15
 511      AFF30080 
 512              		.global	LSM303AGR_ACC_Get_Raw_Acceleration
 513              		.thumb
 514              		.thumb_func
 515              		.type	LSM303AGR_ACC_Get_Raw_Acceleration, %function
 516              	LSM303AGR_ACC_Get_Raw_Acceleration:
 517              	.LFB276:
 518              		.loc 1 240 0
 519              		.cfi_startproc
 520              		@ args = 0, pretend = 0, frame = 8
 521              		@ frame_needed = 0, uses_anonymous_args = 0
 522 0290 00B5     		push	{lr}
 523              		.cfi_def_cfa_offset 4
 524              		.cfi_offset 14, -4
 525 0292 83B0     		sub	sp, sp, #12
 526              		.cfi_def_cfa_offset 16
 527 0294 0190     		str	r0, [sp, #4]
 528 0296 0091     		str	r1, [sp]
 529              		.loc 1 241 0
 530 0298 0198     		ldr	r0, [sp, #4]
 531 029a 2821     		movs	r1, #40
 532 029c 009A     		ldr	r2, [sp]
 533 029e 0623     		movs	r3, #6
 534 02a0 FFF7FEFF 		bl	LSM303AGR_ACC_ReadReg
 535 02a4 0346     		mov	r3, r0
 536 02a6 002B     		cmp	r3, #0
 537 02a8 01D1     		bne	.L35
 538              		.loc 1 242 0
 539 02aa 0023     		movs	r3, #0
 540 02ac 00E0     		b	.L36
 541              	.L35:
 542              		.loc 1 244 0
 543 02ae 0123     		movs	r3, #1
 544              	.L36:
 545              		.loc 1 245 0
 546 02b0 1846     		mov	r0, r3
 547 02b2 03B0     		add	sp, sp, #12
 548              		@ sp needed
 549 02b4 5DF804FB 		ldr	pc, [sp], #4
 550              		.cfi_endproc
 551              	.LFE276:
 552              		.size	LSM303AGR_ACC_Get_Raw_Acceleration, .-LSM303AGR_ACC_Get_Raw_Acceleration
 553              		.global	LSM303AGR_ACC_Sensitivity_List
 554              		.section	.rodata
 555              		.align	3
 556              		.type	LSM303AGR_ACC_Sensitivity_List, %object
 557              		.size	LSM303AGR_ACC_Sensitivity_List, 96
 558              	LSM303AGR_ACC_Sensitivity_List:
 559 0000 D4030000 		.word	980
 560 0004 00000000 		.word	0
 561 0008 9E070000 		.word	1950
 562 000c 00000000 		.word	0
 563 0010 3C0F0000 		.word	3900
 564 0014 00000000 		.word	0
 565 0018 C82D0000 		.word	11720
ARM GAS  /tmp/ccRrg1qB.s 			page 11


 566 001c 00000000 		.word	0
 567 0020 3C0F0000 		.word	3900
 568 0024 00000000 		.word	0
 569 0028 8C1E0000 		.word	7820
 570 002c 00000000 		.word	0
 571 0030 0E3D0000 		.word	15630
 572 0034 00000000 		.word	0
 573 0038 34B70000 		.word	46900
 574 003c 00000000 		.word	0
 575 0040 0E3D0000 		.word	15630
 576 0044 00000000 		.word	0
 577 0048 1C7A0000 		.word	31260
 578 004c 00000000 		.word	0
 579 0050 38F40000 		.word	62520
 580 0054 00000000 		.word	0
 581 0058 BCDC0200 		.word	187580
 582 005c 00000000 		.word	0
 583              		.global	__aeabi_ldivmod
 584              		.text
 585              		.align	2
 586 02b8 AFF30080 		.p2align 4,,15
 586      AFF30080 
 587              		.global	LSM303AGR_ACC_Get_Acceleration
 588              		.thumb
 589              		.thumb_func
 590              		.type	LSM303AGR_ACC_Get_Acceleration, %function
 591              	LSM303AGR_ACC_Get_Acceleration:
 592              	.LFB277:
 593              		.loc 1 285 0
 594              		.cfi_startproc
 595              		@ args = 0, pretend = 0, frame = 24
 596              		@ frame_needed = 0, uses_anonymous_args = 0
 597 02c0 70B5     		push	{r4, r5, r6, lr}
 598              		.cfi_def_cfa_offset 16
 599              		.cfi_offset 4, -16
 600              		.cfi_offset 5, -12
 601              		.cfi_offset 6, -8
 602              		.cfi_offset 14, -4
 603 02c2 86B0     		sub	sp, sp, #24
 604              		.cfi_def_cfa_offset 40
 605 02c4 0190     		str	r0, [sp, #4]
 606 02c6 0091     		str	r1, [sp]
 607              		.loc 1 287 0
 608 02c8 0023     		movs	r3, #0
 609 02ca 8DF81730 		strb	r3, [sp, #23]
 610 02ce 0023     		movs	r3, #0
 611 02d0 8DF81630 		strb	r3, [sp, #22]
 612 02d4 0023     		movs	r3, #0
 613 02d6 8DF81530 		strb	r3, [sp, #21]
 614              		.loc 1 293 0
 615 02da 0DF10A03 		add	r3, sp, #10
 616 02de 0198     		ldr	r0, [sp, #4]
 617 02e0 1946     		mov	r1, r3
 618 02e2 FFF7FEFF 		bl	LSM303AGR_ACC_R_HiRes
 619              		.loc 1 294 0
 620 02e6 0DF10B03 		add	r3, sp, #11
 621 02ea 0198     		ldr	r0, [sp, #4]
ARM GAS  /tmp/ccRrg1qB.s 			page 12


 622 02ec 1946     		mov	r1, r3
 623 02ee FFF7FEFF 		bl	LSM303AGR_ACC_R_LOWPWR_EN
 624              		.loc 1 296 0
 625 02f2 9DF80B30 		ldrb	r3, [sp, #11]	@ zero_extendqisi2
 626 02f6 082B     		cmp	r3, #8
 627 02f8 0AD1     		bne	.L38
 628              		.loc 1 296 0 is_stmt 0 discriminator 1
 629 02fa 9DF80A30 		ldrb	r3, [sp, #10]	@ zero_extendqisi2
 630 02fe 002B     		cmp	r3, #0
 631 0300 06D1     		bne	.L38
 632              		.loc 1 299 0 is_stmt 1
 633 0302 0223     		movs	r3, #2
 634 0304 8DF81730 		strb	r3, [sp, #23]
 635              		.loc 1 300 0
 636 0308 0823     		movs	r3, #8
 637 030a 8DF81530 		strb	r3, [sp, #21]
 638 030e 1FE0     		b	.L39
 639              	.L38:
 640              		.loc 1 302 0
 641 0310 9DF80B30 		ldrb	r3, [sp, #11]	@ zero_extendqisi2
 642 0314 002B     		cmp	r3, #0
 643 0316 0AD1     		bne	.L40
 644              		.loc 1 302 0 is_stmt 0 discriminator 1
 645 0318 9DF80A30 		ldrb	r3, [sp, #10]	@ zero_extendqisi2
 646 031c 002B     		cmp	r3, #0
 647 031e 06D1     		bne	.L40
 648              		.loc 1 305 0 is_stmt 1
 649 0320 0123     		movs	r3, #1
 650 0322 8DF81730 		strb	r3, [sp, #23]
 651              		.loc 1 306 0
 652 0326 0623     		movs	r3, #6
 653 0328 8DF81530 		strb	r3, [sp, #21]
 654 032c 10E0     		b	.L39
 655              	.L40:
 656              		.loc 1 308 0
 657 032e 9DF80B30 		ldrb	r3, [sp, #11]	@ zero_extendqisi2
 658 0332 002B     		cmp	r3, #0
 659 0334 0AD1     		bne	.L41
 660              		.loc 1 308 0 is_stmt 0 discriminator 1
 661 0336 9DF80A30 		ldrb	r3, [sp, #10]	@ zero_extendqisi2
 662 033a 082B     		cmp	r3, #8
 663 033c 06D1     		bne	.L41
 664              		.loc 1 311 0 is_stmt 1
 665 033e 0023     		movs	r3, #0
 666 0340 8DF81730 		strb	r3, [sp, #23]
 667              		.loc 1 312 0
 668 0344 0423     		movs	r3, #4
 669 0346 8DF81530 		strb	r3, [sp, #21]
 670 034a 01E0     		b	.L39
 671              	.L41:
 672              		.loc 1 315 0
 673 034c 0023     		movs	r3, #0
 674 034e B8E0     		b	.L49
 675              	.L39:
 676              		.loc 1 318 0
 677 0350 0DF10903 		add	r3, sp, #9
 678 0354 0198     		ldr	r0, [sp, #4]
ARM GAS  /tmp/ccRrg1qB.s 			page 13


 679 0356 1946     		mov	r1, r3
 680 0358 FFF7FEFF 		bl	LSM303AGR_ACC_R_FullScale
 681              		.loc 1 319 0
 682 035c 9DF80930 		ldrb	r3, [sp, #9]	@ zero_extendqisi2
 683 0360 102B     		cmp	r3, #16
 684 0362 0DD0     		beq	.L44
 685 0364 102B     		cmp	r3, #16
 686 0366 02DC     		bgt	.L45
 687 0368 002B     		cmp	r3, #0
 688 036a 05D0     		beq	.L46
 689 036c 14E0     		b	.L43
 690              	.L45:
 691 036e 202B     		cmp	r3, #32
 692 0370 0AD0     		beq	.L47
 693 0372 302B     		cmp	r3, #48
 694 0374 0CD0     		beq	.L48
 695 0376 0FE0     		b	.L43
 696              	.L46:
 697              		.loc 1 322 0
 698 0378 0023     		movs	r3, #0
 699 037a 8DF81630 		strb	r3, [sp, #22]
 700              		.loc 1 323 0
 701 037e 0BE0     		b	.L43
 702              	.L44:
 703              		.loc 1 326 0
 704 0380 0123     		movs	r3, #1
 705 0382 8DF81630 		strb	r3, [sp, #22]
 706              		.loc 1 327 0
 707 0386 07E0     		b	.L43
 708              	.L47:
 709              		.loc 1 330 0
 710 0388 0223     		movs	r3, #2
 711 038a 8DF81630 		strb	r3, [sp, #22]
 712              		.loc 1 331 0
 713 038e 03E0     		b	.L43
 714              	.L48:
 715              		.loc 1 334 0
 716 0390 0323     		movs	r3, #3
 717 0392 8DF81630 		strb	r3, [sp, #22]
 718              		.loc 1 335 0
 719 0396 00BF     		nop
 720              	.L43:
 721              		.loc 1 339 0
 722 0398 03AB     		add	r3, sp, #12
 723 039a 0198     		ldr	r0, [sp, #4]
 724 039c 1946     		mov	r1, r3
 725 039e FFF7FEFF 		bl	LSM303AGR_ACC_Get_Raw_Acceleration
 726              		.loc 1 342 0
 727 03a2 BDF80C30 		ldrh	r3, [sp, #12]
 728 03a6 1AB2     		sxth	r2, r3
 729 03a8 9DF81530 		ldrb	r3, [sp, #21]	@ zero_extendqisi2
 730 03ac 42FA03F3 		asr	r3, r2, r3
 731 03b0 1846     		mov	r0, r3
 732 03b2 4FEAE071 		asr	r1, r0, #31
 733 03b6 9DF81740 		ldrb	r4, [sp, #23]	@ zero_extendqisi2
 734 03ba 9DF81630 		ldrb	r3, [sp, #22]	@ zero_extendqisi2
 735 03be 424A     		ldr	r2, .L50
ARM GAS  /tmp/ccRrg1qB.s 			page 14


 736 03c0 A400     		lsls	r4, r4, #2
 737 03c2 2344     		add	r3, r3, r4
 738 03c4 DB00     		lsls	r3, r3, #3
 739 03c6 1344     		add	r3, r3, r2
 740 03c8 D3E90023 		ldrd	r2, [r3]
 741 03cc 02FB01F5 		mul	r5, r2, r1
 742 03d0 00FB03F4 		mul	r4, r0, r3
 743 03d4 2C44     		add	r4, r4, r5
 744 03d6 A0FB0223 		umull	r2, r3, r0, r2
 745 03da E118     		adds	r1, r4, r3
 746 03dc 0B46     		mov	r3, r1
 747 03de 12F5FA72 		adds	r2, r2, #500
 748 03e2 43F10003 		adc	r3, r3, #0
 749 03e6 1046     		mov	r0, r2
 750 03e8 1946     		mov	r1, r3
 751 03ea 4FF47A72 		mov	r2, #1000
 752 03ee 4FF00003 		mov	r3, #0
 753 03f2 FFF7FEFF 		bl	__aeabi_ldivmod
 754 03f6 0246     		mov	r2, r0
 755 03f8 0B46     		mov	r3, r1
 756 03fa 009B     		ldr	r3, [sp]
 757 03fc 1A60     		str	r2, [r3]
 758              		.loc 1 343 0
 759 03fe 009B     		ldr	r3, [sp]
 760 0400 1C1D     		adds	r4, r3, #4
 761 0402 BDF80E30 		ldrh	r3, [sp, #14]
 762 0406 1AB2     		sxth	r2, r3
 763 0408 9DF81530 		ldrb	r3, [sp, #21]	@ zero_extendqisi2
 764 040c 42FA03F3 		asr	r3, r2, r3
 765 0410 1846     		mov	r0, r3
 766 0412 4FEAE071 		asr	r1, r0, #31
 767 0416 9DF81750 		ldrb	r5, [sp, #23]	@ zero_extendqisi2
 768 041a 9DF81630 		ldrb	r3, [sp, #22]	@ zero_extendqisi2
 769 041e 2A4A     		ldr	r2, .L50
 770 0420 AD00     		lsls	r5, r5, #2
 771 0422 2B44     		add	r3, r3, r5
 772 0424 DB00     		lsls	r3, r3, #3
 773 0426 1344     		add	r3, r3, r2
 774 0428 D3E90023 		ldrd	r2, [r3]
 775 042c 02FB01F6 		mul	r6, r2, r1
 776 0430 00FB03F5 		mul	r5, r0, r3
 777 0434 3544     		add	r5, r5, r6
 778 0436 A0FB0223 		umull	r2, r3, r0, r2
 779 043a E918     		adds	r1, r5, r3
 780 043c 0B46     		mov	r3, r1
 781 043e 12F5FA72 		adds	r2, r2, #500
 782 0442 43F10003 		adc	r3, r3, #0
 783 0446 1046     		mov	r0, r2
 784 0448 1946     		mov	r1, r3
 785 044a 4FF47A72 		mov	r2, #1000
 786 044e 4FF00003 		mov	r3, #0
 787 0452 FFF7FEFF 		bl	__aeabi_ldivmod
 788 0456 0246     		mov	r2, r0
 789 0458 0B46     		mov	r3, r1
 790 045a 1346     		mov	r3, r2
 791 045c 2360     		str	r3, [r4]
 792              		.loc 1 344 0
ARM GAS  /tmp/ccRrg1qB.s 			page 15


 793 045e 009B     		ldr	r3, [sp]
 794 0460 03F10804 		add	r4, r3, #8
 795 0464 BDF81030 		ldrh	r3, [sp, #16]
 796 0468 1AB2     		sxth	r2, r3
 797 046a 9DF81530 		ldrb	r3, [sp, #21]	@ zero_extendqisi2
 798 046e 42FA03F3 		asr	r3, r2, r3
 799 0472 1846     		mov	r0, r3
 800 0474 4FEAE071 		asr	r1, r0, #31
 801 0478 9DF81750 		ldrb	r5, [sp, #23]	@ zero_extendqisi2
 802 047c 9DF81630 		ldrb	r3, [sp, #22]	@ zero_extendqisi2
 803 0480 114A     		ldr	r2, .L50
 804 0482 AD00     		lsls	r5, r5, #2
 805 0484 2B44     		add	r3, r3, r5
 806 0486 DB00     		lsls	r3, r3, #3
 807 0488 1344     		add	r3, r3, r2
 808 048a D3E90023 		ldrd	r2, [r3]
 809 048e 02FB01F6 		mul	r6, r2, r1
 810 0492 00FB03F5 		mul	r5, r0, r3
 811 0496 3544     		add	r5, r5, r6
 812 0498 A0FB0223 		umull	r2, r3, r0, r2
 813 049c E918     		adds	r1, r5, r3
 814 049e 0B46     		mov	r3, r1
 815 04a0 12F5FA72 		adds	r2, r2, #500
 816 04a4 43F10003 		adc	r3, r3, #0
 817 04a8 1046     		mov	r0, r2
 818 04aa 1946     		mov	r1, r3
 819 04ac 4FF47A72 		mov	r2, #1000
 820 04b0 4FF00003 		mov	r3, #0
 821 04b4 FFF7FEFF 		bl	__aeabi_ldivmod
 822 04b8 0246     		mov	r2, r0
 823 04ba 0B46     		mov	r3, r1
 824 04bc 1346     		mov	r3, r2
 825 04be 2360     		str	r3, [r4]
 826              		.loc 1 346 0
 827 04c0 0123     		movs	r3, #1
 828              	.L49:
 829              		.loc 1 347 0
 830 04c2 1846     		mov	r0, r3
 831 04c4 06B0     		add	sp, sp, #24
 832              		@ sp needed
 833 04c6 70BD     		pop	{r4, r5, r6, pc}
 834              	.L51:
 835              		.align	2
 836              	.L50:
 837 04c8 00000000 		.word	LSM303AGR_ACC_Sensitivity_List
 838              		.cfi_endproc
 839              	.LFE277:
 840              		.size	LSM303AGR_ACC_Get_Acceleration, .-LSM303AGR_ACC_Get_Acceleration
 841              		.align	2
 842 04cc AFF30080 		.p2align 4,,15
 843              		.global	LSM303AGR_ACC_W_ODR
 844              		.thumb
 845              		.thumb_func
 846              		.type	LSM303AGR_ACC_W_ODR, %function
 847              	LSM303AGR_ACC_W_ODR:
 848              	.LFB278:
 849              		.loc 1 357 0
ARM GAS  /tmp/ccRrg1qB.s 			page 16


 850              		.cfi_startproc
 851              		@ args = 0, pretend = 0, frame = 16
 852              		@ frame_needed = 0, uses_anonymous_args = 0
 853 04d0 00B5     		push	{lr}
 854              		.cfi_def_cfa_offset 4
 855              		.cfi_offset 14, -4
 856 04d2 85B0     		sub	sp, sp, #20
 857              		.cfi_def_cfa_offset 24
 858 04d4 0190     		str	r0, [sp, #4]
 859 04d6 0B46     		mov	r3, r1
 860 04d8 8DF80330 		strb	r3, [sp, #3]
 861              		.loc 1 360 0
 862 04dc 0DF10F03 		add	r3, sp, #15
 863 04e0 0198     		ldr	r0, [sp, #4]
 864 04e2 2021     		movs	r1, #32
 865 04e4 1A46     		mov	r2, r3
 866 04e6 0123     		movs	r3, #1
 867 04e8 FFF7FEFF 		bl	LSM303AGR_ACC_ReadReg
 868 04ec 0346     		mov	r3, r0
 869 04ee 002B     		cmp	r3, #0
 870 04f0 01D1     		bne	.L53
 871              		.loc 1 361 0
 872 04f2 0023     		movs	r3, #0
 873 04f4 1CE0     		b	.L56
 874              	.L53:
 875              		.loc 1 363 0
 876 04f6 9DF80F30 		ldrb	r3, [sp, #15]	@ zero_extendqisi2
 877 04fa 03F00F03 		and	r3, r3, #15
 878 04fe DBB2     		uxtb	r3, r3
 879 0500 8DF80F30 		strb	r3, [sp, #15]
 880              		.loc 1 364 0
 881 0504 9DF80F20 		ldrb	r2, [sp, #15]	@ zero_extendqisi2
 882 0508 9DF80330 		ldrb	r3, [sp, #3]
 883 050c 1343     		orrs	r3, r3, r2
 884 050e DBB2     		uxtb	r3, r3
 885 0510 8DF80F30 		strb	r3, [sp, #15]
 886              		.loc 1 366 0
 887 0514 0DF10F03 		add	r3, sp, #15
 888 0518 0198     		ldr	r0, [sp, #4]
 889 051a 2021     		movs	r1, #32
 890 051c 1A46     		mov	r2, r3
 891 051e 0123     		movs	r3, #1
 892 0520 FFF7FEFF 		bl	LSM303AGR_ACC_WriteReg
 893 0524 0346     		mov	r3, r0
 894 0526 002B     		cmp	r3, #0
 895 0528 01D1     		bne	.L55
 896              		.loc 1 367 0
 897 052a 0023     		movs	r3, #0
 898 052c 00E0     		b	.L56
 899              	.L55:
 900              		.loc 1 369 0
 901 052e 0123     		movs	r3, #1
 902              	.L56:
 903              		.loc 1 370 0
 904 0530 1846     		mov	r0, r3
 905 0532 05B0     		add	sp, sp, #20
 906              		@ sp needed
ARM GAS  /tmp/ccRrg1qB.s 			page 17


 907 0534 5DF804FB 		ldr	pc, [sp], #4
 908              		.cfi_endproc
 909              	.LFE278:
 910              		.size	LSM303AGR_ACC_W_ODR, .-LSM303AGR_ACC_W_ODR
 911              		.align	2
 912 0538 AFF30080 		.p2align 4,,15
 912      AFF30080 
 913              		.global	LSM303AGR_ACC_R_ODR
 914              		.thumb
 915              		.thumb_func
 916              		.type	LSM303AGR_ACC_R_ODR, %function
 917              	LSM303AGR_ACC_R_ODR:
 918              	.LFB279:
 919              		.loc 1 380 0
 920              		.cfi_startproc
 921              		@ args = 0, pretend = 0, frame = 8
 922              		@ frame_needed = 0, uses_anonymous_args = 0
 923 0540 00B5     		push	{lr}
 924              		.cfi_def_cfa_offset 4
 925              		.cfi_offset 14, -4
 926 0542 83B0     		sub	sp, sp, #12
 927              		.cfi_def_cfa_offset 16
 928 0544 0190     		str	r0, [sp, #4]
 929 0546 0091     		str	r1, [sp]
 930              		.loc 1 381 0
 931 0548 0198     		ldr	r0, [sp, #4]
 932 054a 2021     		movs	r1, #32
 933 054c 009A     		ldr	r2, [sp]
 934 054e 0123     		movs	r3, #1
 935 0550 FFF7FEFF 		bl	LSM303AGR_ACC_ReadReg
 936 0554 0346     		mov	r3, r0
 937 0556 002B     		cmp	r3, #0
 938 0558 01D1     		bne	.L58
 939              		.loc 1 382 0
 940 055a 0023     		movs	r3, #0
 941 055c 07E0     		b	.L59
 942              	.L58:
 943              		.loc 1 384 0
 944 055e 009B     		ldr	r3, [sp]
 945 0560 1B78     		ldrb	r3, [r3]	@ zero_extendqisi2
 946 0562 23F00F03 		bic	r3, r3, #15
 947 0566 DAB2     		uxtb	r2, r3
 948 0568 009B     		ldr	r3, [sp]
 949 056a 1A70     		strb	r2, [r3]
 950              		.loc 1 386 0
 951 056c 0123     		movs	r3, #1
 952              	.L59:
 953              		.loc 1 387 0
 954 056e 1846     		mov	r0, r3
 955 0570 03B0     		add	sp, sp, #12
 956              		@ sp needed
 957 0572 5DF804FB 		ldr	pc, [sp], #4
 958              		.cfi_endproc
 959              	.LFE279:
 960              		.size	LSM303AGR_ACC_R_ODR, .-LSM303AGR_ACC_R_ODR
 961 0576 00BF     		.align	2
 962 0578 AFF30080 		.p2align 4,,15
ARM GAS  /tmp/ccRrg1qB.s 			page 18


 962      AFF30080 
 963              		.global	LSM303AGR_ACC_R_x_data_avail
 964              		.thumb
 965              		.thumb_func
 966              		.type	LSM303AGR_ACC_R_x_data_avail, %function
 967              	LSM303AGR_ACC_R_x_data_avail:
 968              	.LFB280:
 969              		.loc 1 399 0
 970              		.cfi_startproc
 971              		@ args = 0, pretend = 0, frame = 8
 972              		@ frame_needed = 0, uses_anonymous_args = 0
 973 0580 00B5     		push	{lr}
 974              		.cfi_def_cfa_offset 4
 975              		.cfi_offset 14, -4
 976 0582 83B0     		sub	sp, sp, #12
 977              		.cfi_def_cfa_offset 16
 978 0584 0190     		str	r0, [sp, #4]
 979 0586 0091     		str	r1, [sp]
 980              		.loc 1 400 0
 981 0588 0198     		ldr	r0, [sp, #4]
 982 058a 0721     		movs	r1, #7
 983 058c 009A     		ldr	r2, [sp]
 984 058e 0123     		movs	r3, #1
 985 0590 FFF7FEFF 		bl	LSM303AGR_ACC_ReadReg
 986 0594 0346     		mov	r3, r0
 987 0596 002B     		cmp	r3, #0
 988 0598 01D1     		bne	.L61
 989              		.loc 1 401 0
 990 059a 0023     		movs	r3, #0
 991 059c 07E0     		b	.L62
 992              	.L61:
 993              		.loc 1 403 0
 994 059e 009B     		ldr	r3, [sp]
 995 05a0 1B78     		ldrb	r3, [r3]	@ zero_extendqisi2
 996 05a2 03F00103 		and	r3, r3, #1
 997 05a6 DAB2     		uxtb	r2, r3
 998 05a8 009B     		ldr	r3, [sp]
 999 05aa 1A70     		strb	r2, [r3]
 1000              		.loc 1 405 0
 1001 05ac 0123     		movs	r3, #1
 1002              	.L62:
 1003              		.loc 1 406 0
 1004 05ae 1846     		mov	r0, r3
 1005 05b0 03B0     		add	sp, sp, #12
 1006              		@ sp needed
 1007 05b2 5DF804FB 		ldr	pc, [sp], #4
 1008              		.cfi_endproc
 1009              	.LFE280:
 1010              		.size	LSM303AGR_ACC_R_x_data_avail, .-LSM303AGR_ACC_R_x_data_avail
 1011 05b6 00BF     		.align	2
 1012 05b8 AFF30080 		.p2align 4,,15
 1012      AFF30080 
 1013              		.global	LSM303AGR_ACC_R_y_data_avail
 1014              		.thumb
 1015              		.thumb_func
 1016              		.type	LSM303AGR_ACC_R_y_data_avail, %function
 1017              	LSM303AGR_ACC_R_y_data_avail:
ARM GAS  /tmp/ccRrg1qB.s 			page 19


 1018              	.LFB281:
 1019              		.loc 1 416 0
 1020              		.cfi_startproc
 1021              		@ args = 0, pretend = 0, frame = 8
 1022              		@ frame_needed = 0, uses_anonymous_args = 0
 1023 05c0 00B5     		push	{lr}
 1024              		.cfi_def_cfa_offset 4
 1025              		.cfi_offset 14, -4
 1026 05c2 83B0     		sub	sp, sp, #12
 1027              		.cfi_def_cfa_offset 16
 1028 05c4 0190     		str	r0, [sp, #4]
 1029 05c6 0091     		str	r1, [sp]
 1030              		.loc 1 417 0
 1031 05c8 0198     		ldr	r0, [sp, #4]
 1032 05ca 0721     		movs	r1, #7
 1033 05cc 009A     		ldr	r2, [sp]
 1034 05ce 0123     		movs	r3, #1
 1035 05d0 FFF7FEFF 		bl	LSM303AGR_ACC_ReadReg
 1036 05d4 0346     		mov	r3, r0
 1037 05d6 002B     		cmp	r3, #0
 1038 05d8 01D1     		bne	.L64
 1039              		.loc 1 418 0
 1040 05da 0023     		movs	r3, #0
 1041 05dc 07E0     		b	.L65
 1042              	.L64:
 1043              		.loc 1 420 0
 1044 05de 009B     		ldr	r3, [sp]
 1045 05e0 1B78     		ldrb	r3, [r3]	@ zero_extendqisi2
 1046 05e2 03F00203 		and	r3, r3, #2
 1047 05e6 DAB2     		uxtb	r2, r3
 1048 05e8 009B     		ldr	r3, [sp]
 1049 05ea 1A70     		strb	r2, [r3]
 1050              		.loc 1 422 0
 1051 05ec 0123     		movs	r3, #1
 1052              	.L65:
 1053              		.loc 1 423 0
 1054 05ee 1846     		mov	r0, r3
 1055 05f0 03B0     		add	sp, sp, #12
 1056              		@ sp needed
 1057 05f2 5DF804FB 		ldr	pc, [sp], #4
 1058              		.cfi_endproc
 1059              	.LFE281:
 1060              		.size	LSM303AGR_ACC_R_y_data_avail, .-LSM303AGR_ACC_R_y_data_avail
 1061 05f6 00BF     		.align	2
 1062 05f8 AFF30080 		.p2align 4,,15
 1062      AFF30080 
 1063              		.global	LSM303AGR_ACC_R_z_data_avail
 1064              		.thumb
 1065              		.thumb_func
 1066              		.type	LSM303AGR_ACC_R_z_data_avail, %function
 1067              	LSM303AGR_ACC_R_z_data_avail:
 1068              	.LFB282:
 1069              		.loc 1 433 0
 1070              		.cfi_startproc
 1071              		@ args = 0, pretend = 0, frame = 8
 1072              		@ frame_needed = 0, uses_anonymous_args = 0
 1073 0600 00B5     		push	{lr}
ARM GAS  /tmp/ccRrg1qB.s 			page 20


 1074              		.cfi_def_cfa_offset 4
 1075              		.cfi_offset 14, -4
 1076 0602 83B0     		sub	sp, sp, #12
 1077              		.cfi_def_cfa_offset 16
 1078 0604 0190     		str	r0, [sp, #4]
 1079 0606 0091     		str	r1, [sp]
 1080              		.loc 1 434 0
 1081 0608 0198     		ldr	r0, [sp, #4]
 1082 060a 0721     		movs	r1, #7
 1083 060c 009A     		ldr	r2, [sp]
 1084 060e 0123     		movs	r3, #1
 1085 0610 FFF7FEFF 		bl	LSM303AGR_ACC_ReadReg
 1086 0614 0346     		mov	r3, r0
 1087 0616 002B     		cmp	r3, #0
 1088 0618 01D1     		bne	.L67
 1089              		.loc 1 435 0
 1090 061a 0023     		movs	r3, #0
 1091 061c 07E0     		b	.L68
 1092              	.L67:
 1093              		.loc 1 437 0
 1094 061e 009B     		ldr	r3, [sp]
 1095 0620 1B78     		ldrb	r3, [r3]	@ zero_extendqisi2
 1096 0622 03F00403 		and	r3, r3, #4
 1097 0626 DAB2     		uxtb	r2, r3
 1098 0628 009B     		ldr	r3, [sp]
 1099 062a 1A70     		strb	r2, [r3]
 1100              		.loc 1 439 0
 1101 062c 0123     		movs	r3, #1
 1102              	.L68:
 1103              		.loc 1 440 0
 1104 062e 1846     		mov	r0, r3
 1105 0630 03B0     		add	sp, sp, #12
 1106              		@ sp needed
 1107 0632 5DF804FB 		ldr	pc, [sp], #4
 1108              		.cfi_endproc
 1109              	.LFE282:
 1110              		.size	LSM303AGR_ACC_R_z_data_avail, .-LSM303AGR_ACC_R_z_data_avail
 1111 0636 00BF     		.align	2
 1112 0638 AFF30080 		.p2align 4,,15
 1112      AFF30080 
 1113              		.global	LSM303AGR_ACC_R_xyz_data_avail
 1114              		.thumb
 1115              		.thumb_func
 1116              		.type	LSM303AGR_ACC_R_xyz_data_avail, %function
 1117              	LSM303AGR_ACC_R_xyz_data_avail:
 1118              	.LFB283:
 1119              		.loc 1 450 0
 1120              		.cfi_startproc
 1121              		@ args = 0, pretend = 0, frame = 8
 1122              		@ frame_needed = 0, uses_anonymous_args = 0
 1123 0640 00B5     		push	{lr}
 1124              		.cfi_def_cfa_offset 4
 1125              		.cfi_offset 14, -4
 1126 0642 83B0     		sub	sp, sp, #12
 1127              		.cfi_def_cfa_offset 16
 1128 0644 0190     		str	r0, [sp, #4]
 1129 0646 0091     		str	r1, [sp]
ARM GAS  /tmp/ccRrg1qB.s 			page 21


 1130              		.loc 1 451 0
 1131 0648 0198     		ldr	r0, [sp, #4]
 1132 064a 0721     		movs	r1, #7
 1133 064c 009A     		ldr	r2, [sp]
 1134 064e 0123     		movs	r3, #1
 1135 0650 FFF7FEFF 		bl	LSM303AGR_ACC_ReadReg
 1136 0654 0346     		mov	r3, r0
 1137 0656 002B     		cmp	r3, #0
 1138 0658 01D1     		bne	.L70
 1139              		.loc 1 452 0
 1140 065a 0023     		movs	r3, #0
 1141 065c 07E0     		b	.L71
 1142              	.L70:
 1143              		.loc 1 454 0
 1144 065e 009B     		ldr	r3, [sp]
 1145 0660 1B78     		ldrb	r3, [r3]	@ zero_extendqisi2
 1146 0662 03F00803 		and	r3, r3, #8
 1147 0666 DAB2     		uxtb	r2, r3
 1148 0668 009B     		ldr	r3, [sp]
 1149 066a 1A70     		strb	r2, [r3]
 1150              		.loc 1 456 0
 1151 066c 0123     		movs	r3, #1
 1152              	.L71:
 1153              		.loc 1 457 0
 1154 066e 1846     		mov	r0, r3
 1155 0670 03B0     		add	sp, sp, #12
 1156              		@ sp needed
 1157 0672 5DF804FB 		ldr	pc, [sp], #4
 1158              		.cfi_endproc
 1159              	.LFE283:
 1160              		.size	LSM303AGR_ACC_R_xyz_data_avail, .-LSM303AGR_ACC_R_xyz_data_avail
 1161 0676 00BF     		.align	2
 1162 0678 AFF30080 		.p2align 4,,15
 1162      AFF30080 
 1163              		.global	LSM303AGR_ACC_R_DataXOverrun
 1164              		.thumb
 1165              		.thumb_func
 1166              		.type	LSM303AGR_ACC_R_DataXOverrun, %function
 1167              	LSM303AGR_ACC_R_DataXOverrun:
 1168              	.LFB284:
 1169              		.loc 1 467 0
 1170              		.cfi_startproc
 1171              		@ args = 0, pretend = 0, frame = 8
 1172              		@ frame_needed = 0, uses_anonymous_args = 0
 1173 0680 00B5     		push	{lr}
 1174              		.cfi_def_cfa_offset 4
 1175              		.cfi_offset 14, -4
 1176 0682 83B0     		sub	sp, sp, #12
 1177              		.cfi_def_cfa_offset 16
 1178 0684 0190     		str	r0, [sp, #4]
 1179 0686 0091     		str	r1, [sp]
 1180              		.loc 1 468 0
 1181 0688 0198     		ldr	r0, [sp, #4]
 1182 068a 0721     		movs	r1, #7
 1183 068c 009A     		ldr	r2, [sp]
 1184 068e 0123     		movs	r3, #1
 1185 0690 FFF7FEFF 		bl	LSM303AGR_ACC_ReadReg
ARM GAS  /tmp/ccRrg1qB.s 			page 22


 1186 0694 0346     		mov	r3, r0
 1187 0696 002B     		cmp	r3, #0
 1188 0698 01D1     		bne	.L73
 1189              		.loc 1 469 0
 1190 069a 0023     		movs	r3, #0
 1191 069c 07E0     		b	.L74
 1192              	.L73:
 1193              		.loc 1 471 0
 1194 069e 009B     		ldr	r3, [sp]
 1195 06a0 1B78     		ldrb	r3, [r3]	@ zero_extendqisi2
 1196 06a2 03F01003 		and	r3, r3, #16
 1197 06a6 DAB2     		uxtb	r2, r3
 1198 06a8 009B     		ldr	r3, [sp]
 1199 06aa 1A70     		strb	r2, [r3]
 1200              		.loc 1 473 0
 1201 06ac 0123     		movs	r3, #1
 1202              	.L74:
 1203              		.loc 1 474 0
 1204 06ae 1846     		mov	r0, r3
 1205 06b0 03B0     		add	sp, sp, #12
 1206              		@ sp needed
 1207 06b2 5DF804FB 		ldr	pc, [sp], #4
 1208              		.cfi_endproc
 1209              	.LFE284:
 1210              		.size	LSM303AGR_ACC_R_DataXOverrun, .-LSM303AGR_ACC_R_DataXOverrun
 1211 06b6 00BF     		.align	2
 1212 06b8 AFF30080 		.p2align 4,,15
 1212      AFF30080 
 1213              		.global	LSM303AGR_ACC_R_DataYOverrun
 1214              		.thumb
 1215              		.thumb_func
 1216              		.type	LSM303AGR_ACC_R_DataYOverrun, %function
 1217              	LSM303AGR_ACC_R_DataYOverrun:
 1218              	.LFB285:
 1219              		.loc 1 484 0
 1220              		.cfi_startproc
 1221              		@ args = 0, pretend = 0, frame = 8
 1222              		@ frame_needed = 0, uses_anonymous_args = 0
 1223 06c0 00B5     		push	{lr}
 1224              		.cfi_def_cfa_offset 4
 1225              		.cfi_offset 14, -4
 1226 06c2 83B0     		sub	sp, sp, #12
 1227              		.cfi_def_cfa_offset 16
 1228 06c4 0190     		str	r0, [sp, #4]
 1229 06c6 0091     		str	r1, [sp]
 1230              		.loc 1 485 0
 1231 06c8 0198     		ldr	r0, [sp, #4]
 1232 06ca 0721     		movs	r1, #7
 1233 06cc 009A     		ldr	r2, [sp]
 1234 06ce 0123     		movs	r3, #1
 1235 06d0 FFF7FEFF 		bl	LSM303AGR_ACC_ReadReg
 1236 06d4 0346     		mov	r3, r0
 1237 06d6 002B     		cmp	r3, #0
 1238 06d8 01D1     		bne	.L76
 1239              		.loc 1 486 0
 1240 06da 0023     		movs	r3, #0
 1241 06dc 07E0     		b	.L77
ARM GAS  /tmp/ccRrg1qB.s 			page 23


 1242              	.L76:
 1243              		.loc 1 488 0
 1244 06de 009B     		ldr	r3, [sp]
 1245 06e0 1B78     		ldrb	r3, [r3]	@ zero_extendqisi2
 1246 06e2 03F02003 		and	r3, r3, #32
 1247 06e6 DAB2     		uxtb	r2, r3
 1248 06e8 009B     		ldr	r3, [sp]
 1249 06ea 1A70     		strb	r2, [r3]
 1250              		.loc 1 490 0
 1251 06ec 0123     		movs	r3, #1
 1252              	.L77:
 1253              		.loc 1 491 0
 1254 06ee 1846     		mov	r0, r3
 1255 06f0 03B0     		add	sp, sp, #12
 1256              		@ sp needed
 1257 06f2 5DF804FB 		ldr	pc, [sp], #4
 1258              		.cfi_endproc
 1259              	.LFE285:
 1260              		.size	LSM303AGR_ACC_R_DataYOverrun, .-LSM303AGR_ACC_R_DataYOverrun
 1261 06f6 00BF     		.align	2
 1262 06f8 AFF30080 		.p2align 4,,15
 1262      AFF30080 
 1263              		.global	LSM303AGR_ACC_R_DataZOverrun
 1264              		.thumb
 1265              		.thumb_func
 1266              		.type	LSM303AGR_ACC_R_DataZOverrun, %function
 1267              	LSM303AGR_ACC_R_DataZOverrun:
 1268              	.LFB286:
 1269              		.loc 1 501 0
 1270              		.cfi_startproc
 1271              		@ args = 0, pretend = 0, frame = 8
 1272              		@ frame_needed = 0, uses_anonymous_args = 0
 1273 0700 00B5     		push	{lr}
 1274              		.cfi_def_cfa_offset 4
 1275              		.cfi_offset 14, -4
 1276 0702 83B0     		sub	sp, sp, #12
 1277              		.cfi_def_cfa_offset 16
 1278 0704 0190     		str	r0, [sp, #4]
 1279 0706 0091     		str	r1, [sp]
 1280              		.loc 1 502 0
 1281 0708 0198     		ldr	r0, [sp, #4]
 1282 070a 0721     		movs	r1, #7
 1283 070c 009A     		ldr	r2, [sp]
 1284 070e 0123     		movs	r3, #1
 1285 0710 FFF7FEFF 		bl	LSM303AGR_ACC_ReadReg
 1286 0714 0346     		mov	r3, r0
 1287 0716 002B     		cmp	r3, #0
 1288 0718 01D1     		bne	.L79
 1289              		.loc 1 503 0
 1290 071a 0023     		movs	r3, #0
 1291 071c 07E0     		b	.L80
 1292              	.L79:
 1293              		.loc 1 505 0
 1294 071e 009B     		ldr	r3, [sp]
 1295 0720 1B78     		ldrb	r3, [r3]	@ zero_extendqisi2
 1296 0722 03F04003 		and	r3, r3, #64
 1297 0726 DAB2     		uxtb	r2, r3
ARM GAS  /tmp/ccRrg1qB.s 			page 24


 1298 0728 009B     		ldr	r3, [sp]
 1299 072a 1A70     		strb	r2, [r3]
 1300              		.loc 1 507 0
 1301 072c 0123     		movs	r3, #1
 1302              	.L80:
 1303              		.loc 1 508 0
 1304 072e 1846     		mov	r0, r3
 1305 0730 03B0     		add	sp, sp, #12
 1306              		@ sp needed
 1307 0732 5DF804FB 		ldr	pc, [sp], #4
 1308              		.cfi_endproc
 1309              	.LFE286:
 1310              		.size	LSM303AGR_ACC_R_DataZOverrun, .-LSM303AGR_ACC_R_DataZOverrun
 1311 0736 00BF     		.align	2
 1312 0738 AFF30080 		.p2align 4,,15
 1312      AFF30080 
 1313              		.global	LSM303AGR_ACC_R_DataXYZOverrun
 1314              		.thumb
 1315              		.thumb_func
 1316              		.type	LSM303AGR_ACC_R_DataXYZOverrun, %function
 1317              	LSM303AGR_ACC_R_DataXYZOverrun:
 1318              	.LFB287:
 1319              		.loc 1 518 0
 1320              		.cfi_startproc
 1321              		@ args = 0, pretend = 0, frame = 8
 1322              		@ frame_needed = 0, uses_anonymous_args = 0
 1323 0740 00B5     		push	{lr}
 1324              		.cfi_def_cfa_offset 4
 1325              		.cfi_offset 14, -4
 1326 0742 83B0     		sub	sp, sp, #12
 1327              		.cfi_def_cfa_offset 16
 1328 0744 0190     		str	r0, [sp, #4]
 1329 0746 0091     		str	r1, [sp]
 1330              		.loc 1 519 0
 1331 0748 0198     		ldr	r0, [sp, #4]
 1332 074a 0721     		movs	r1, #7
 1333 074c 009A     		ldr	r2, [sp]
 1334 074e 0123     		movs	r3, #1
 1335 0750 FFF7FEFF 		bl	LSM303AGR_ACC_ReadReg
 1336 0754 0346     		mov	r3, r0
 1337 0756 002B     		cmp	r3, #0
 1338 0758 01D1     		bne	.L82
 1339              		.loc 1 520 0
 1340 075a 0023     		movs	r3, #0
 1341 075c 07E0     		b	.L83
 1342              	.L82:
 1343              		.loc 1 522 0
 1344 075e 009B     		ldr	r3, [sp]
 1345 0760 1B78     		ldrb	r3, [r3]	@ zero_extendqisi2
 1346 0762 23F07F03 		bic	r3, r3, #127
 1347 0766 DAB2     		uxtb	r2, r3
 1348 0768 009B     		ldr	r3, [sp]
 1349 076a 1A70     		strb	r2, [r3]
 1350              		.loc 1 524 0
 1351 076c 0123     		movs	r3, #1
 1352              	.L83:
 1353              		.loc 1 525 0
ARM GAS  /tmp/ccRrg1qB.s 			page 25


 1354 076e 1846     		mov	r0, r3
 1355 0770 03B0     		add	sp, sp, #12
 1356              		@ sp needed
 1357 0772 5DF804FB 		ldr	pc, [sp], #4
 1358              		.cfi_endproc
 1359              	.LFE287:
 1360              		.size	LSM303AGR_ACC_R_DataXYZOverrun, .-LSM303AGR_ACC_R_DataXYZOverrun
 1361 0776 00BF     		.align	2
 1362 0778 AFF30080 		.p2align 4,,15
 1362      AFF30080 
 1363              		.global	LSM303AGR_ACC_R_int_counter
 1364              		.thumb
 1365              		.thumb_func
 1366              		.type	LSM303AGR_ACC_R_int_counter, %function
 1367              	LSM303AGR_ACC_R_int_counter:
 1368              	.LFB288:
 1369              		.loc 1 535 0
 1370              		.cfi_startproc
 1371              		@ args = 0, pretend = 0, frame = 8
 1372              		@ frame_needed = 0, uses_anonymous_args = 0
 1373 0780 00B5     		push	{lr}
 1374              		.cfi_def_cfa_offset 4
 1375              		.cfi_offset 14, -4
 1376 0782 83B0     		sub	sp, sp, #12
 1377              		.cfi_def_cfa_offset 16
 1378 0784 0190     		str	r0, [sp, #4]
 1379 0786 0091     		str	r1, [sp]
 1380              		.loc 1 536 0
 1381 0788 0198     		ldr	r0, [sp, #4]
 1382 078a 0E21     		movs	r1, #14
 1383 078c 009A     		ldr	r2, [sp]
 1384 078e 0123     		movs	r3, #1
 1385 0790 FFF7FEFF 		bl	LSM303AGR_ACC_ReadReg
 1386 0794 0346     		mov	r3, r0
 1387 0796 002B     		cmp	r3, #0
 1388 0798 01D1     		bne	.L85
 1389              		.loc 1 537 0
 1390 079a 0023     		movs	r3, #0
 1391 079c 08E0     		b	.L86
 1392              	.L85:
 1393              		.loc 1 539 0
 1394 079e 009B     		ldr	r3, [sp]
 1395 07a0 1A78     		ldrb	r2, [r3]	@ zero_extendqisi2
 1396 07a2 009B     		ldr	r3, [sp]
 1397 07a4 1A70     		strb	r2, [r3]
 1398              		.loc 1 540 0
 1399 07a6 009B     		ldr	r3, [sp]
 1400 07a8 1A78     		ldrb	r2, [r3]	@ zero_extendqisi2
 1401 07aa 009B     		ldr	r3, [sp]
 1402 07ac 1A70     		strb	r2, [r3]
 1403              		.loc 1 542 0
 1404 07ae 0123     		movs	r3, #1
 1405              	.L86:
 1406              		.loc 1 543 0
 1407 07b0 1846     		mov	r0, r3
 1408 07b2 03B0     		add	sp, sp, #12
 1409              		@ sp needed
ARM GAS  /tmp/ccRrg1qB.s 			page 26


 1410 07b4 5DF804FB 		ldr	pc, [sp], #4
 1411              		.cfi_endproc
 1412              	.LFE288:
 1413              		.size	LSM303AGR_ACC_R_int_counter, .-LSM303AGR_ACC_R_int_counter
 1414              		.align	2
 1415 07b8 AFF30080 		.p2align 4,,15
 1415      AFF30080 
 1416              		.global	LSM303AGR_ACC_W_TEMP_EN_bits
 1417              		.thumb
 1418              		.thumb_func
 1419              		.type	LSM303AGR_ACC_W_TEMP_EN_bits, %function
 1420              	LSM303AGR_ACC_W_TEMP_EN_bits:
 1421              	.LFB289:
 1422              		.loc 1 553 0
 1423              		.cfi_startproc
 1424              		@ args = 0, pretend = 0, frame = 16
 1425              		@ frame_needed = 0, uses_anonymous_args = 0
 1426 07c0 00B5     		push	{lr}
 1427              		.cfi_def_cfa_offset 4
 1428              		.cfi_offset 14, -4
 1429 07c2 85B0     		sub	sp, sp, #20
 1430              		.cfi_def_cfa_offset 24
 1431 07c4 0190     		str	r0, [sp, #4]
 1432 07c6 0B46     		mov	r3, r1
 1433 07c8 8DF80330 		strb	r3, [sp, #3]
 1434              		.loc 1 556 0
 1435 07cc 0DF10F03 		add	r3, sp, #15
 1436 07d0 0198     		ldr	r0, [sp, #4]
 1437 07d2 1F21     		movs	r1, #31
 1438 07d4 1A46     		mov	r2, r3
 1439 07d6 0123     		movs	r3, #1
 1440 07d8 FFF7FEFF 		bl	LSM303AGR_ACC_ReadReg
 1441 07dc 0346     		mov	r3, r0
 1442 07de 002B     		cmp	r3, #0
 1443 07e0 01D1     		bne	.L88
 1444              		.loc 1 557 0
 1445 07e2 0023     		movs	r3, #0
 1446 07e4 1CE0     		b	.L91
 1447              	.L88:
 1448              		.loc 1 559 0
 1449 07e6 9DF80F30 		ldrb	r3, [sp, #15]	@ zero_extendqisi2
 1450 07ea 23F04003 		bic	r3, r3, #64
 1451 07ee DBB2     		uxtb	r3, r3
 1452 07f0 8DF80F30 		strb	r3, [sp, #15]
 1453              		.loc 1 560 0
 1454 07f4 9DF80F20 		ldrb	r2, [sp, #15]	@ zero_extendqisi2
 1455 07f8 9DF80330 		ldrb	r3, [sp, #3]
 1456 07fc 1343     		orrs	r3, r3, r2
 1457 07fe DBB2     		uxtb	r3, r3
 1458 0800 8DF80F30 		strb	r3, [sp, #15]
 1459              		.loc 1 562 0
 1460 0804 0DF10F03 		add	r3, sp, #15
 1461 0808 0198     		ldr	r0, [sp, #4]
 1462 080a 1F21     		movs	r1, #31
 1463 080c 1A46     		mov	r2, r3
 1464 080e 0123     		movs	r3, #1
 1465 0810 FFF7FEFF 		bl	LSM303AGR_ACC_WriteReg
ARM GAS  /tmp/ccRrg1qB.s 			page 27


 1466 0814 0346     		mov	r3, r0
 1467 0816 002B     		cmp	r3, #0
 1468 0818 01D1     		bne	.L90
 1469              		.loc 1 563 0
 1470 081a 0023     		movs	r3, #0
 1471 081c 00E0     		b	.L91
 1472              	.L90:
 1473              		.loc 1 565 0
 1474 081e 0123     		movs	r3, #1
 1475              	.L91:
 1476              		.loc 1 566 0
 1477 0820 1846     		mov	r0, r3
 1478 0822 05B0     		add	sp, sp, #20
 1479              		@ sp needed
 1480 0824 5DF804FB 		ldr	pc, [sp], #4
 1481              		.cfi_endproc
 1482              	.LFE289:
 1483              		.size	LSM303AGR_ACC_W_TEMP_EN_bits, .-LSM303AGR_ACC_W_TEMP_EN_bits
 1484              		.align	2
 1485 0828 AFF30080 		.p2align 4,,15
 1485      AFF30080 
 1486              		.global	LSM303AGR_ACC_R_TEMP_EN_bits
 1487              		.thumb
 1488              		.thumb_func
 1489              		.type	LSM303AGR_ACC_R_TEMP_EN_bits, %function
 1490              	LSM303AGR_ACC_R_TEMP_EN_bits:
 1491              	.LFB290:
 1492              		.loc 1 576 0
 1493              		.cfi_startproc
 1494              		@ args = 0, pretend = 0, frame = 8
 1495              		@ frame_needed = 0, uses_anonymous_args = 0
 1496 0830 00B5     		push	{lr}
 1497              		.cfi_def_cfa_offset 4
 1498              		.cfi_offset 14, -4
 1499 0832 83B0     		sub	sp, sp, #12
 1500              		.cfi_def_cfa_offset 16
 1501 0834 0190     		str	r0, [sp, #4]
 1502 0836 0091     		str	r1, [sp]
 1503              		.loc 1 577 0
 1504 0838 0198     		ldr	r0, [sp, #4]
 1505 083a 1F21     		movs	r1, #31
 1506 083c 009A     		ldr	r2, [sp]
 1507 083e 0123     		movs	r3, #1
 1508 0840 FFF7FEFF 		bl	LSM303AGR_ACC_ReadReg
 1509 0844 0346     		mov	r3, r0
 1510 0846 002B     		cmp	r3, #0
 1511 0848 01D1     		bne	.L93
 1512              		.loc 1 578 0
 1513 084a 0023     		movs	r3, #0
 1514 084c 07E0     		b	.L94
 1515              	.L93:
 1516              		.loc 1 580 0
 1517 084e 009B     		ldr	r3, [sp]
 1518 0850 1B78     		ldrb	r3, [r3]	@ zero_extendqisi2
 1519 0852 03F04003 		and	r3, r3, #64
 1520 0856 DAB2     		uxtb	r2, r3
 1521 0858 009B     		ldr	r3, [sp]
ARM GAS  /tmp/ccRrg1qB.s 			page 28


 1522 085a 1A70     		strb	r2, [r3]
 1523              		.loc 1 582 0
 1524 085c 0123     		movs	r3, #1
 1525              	.L94:
 1526              		.loc 1 583 0
 1527 085e 1846     		mov	r0, r3
 1528 0860 03B0     		add	sp, sp, #12
 1529              		@ sp needed
 1530 0862 5DF804FB 		ldr	pc, [sp], #4
 1531              		.cfi_endproc
 1532              	.LFE290:
 1533              		.size	LSM303AGR_ACC_R_TEMP_EN_bits, .-LSM303AGR_ACC_R_TEMP_EN_bits
 1534 0866 00BF     		.align	2
 1535 0868 AFF30080 		.p2align 4,,15
 1535      AFF30080 
 1536              		.global	LSM303AGR_ACC_W_ADC_PD
 1537              		.thumb
 1538              		.thumb_func
 1539              		.type	LSM303AGR_ACC_W_ADC_PD, %function
 1540              	LSM303AGR_ACC_W_ADC_PD:
 1541              	.LFB291:
 1542              		.loc 1 593 0
 1543              		.cfi_startproc
 1544              		@ args = 0, pretend = 0, frame = 16
 1545              		@ frame_needed = 0, uses_anonymous_args = 0
 1546 0870 00B5     		push	{lr}
 1547              		.cfi_def_cfa_offset 4
 1548              		.cfi_offset 14, -4
 1549 0872 85B0     		sub	sp, sp, #20
 1550              		.cfi_def_cfa_offset 24
 1551 0874 0190     		str	r0, [sp, #4]
 1552 0876 0B46     		mov	r3, r1
 1553 0878 8DF80330 		strb	r3, [sp, #3]
 1554              		.loc 1 596 0
 1555 087c 0DF10F03 		add	r3, sp, #15
 1556 0880 0198     		ldr	r0, [sp, #4]
 1557 0882 1F21     		movs	r1, #31
 1558 0884 1A46     		mov	r2, r3
 1559 0886 0123     		movs	r3, #1
 1560 0888 FFF7FEFF 		bl	LSM303AGR_ACC_ReadReg
 1561 088c 0346     		mov	r3, r0
 1562 088e 002B     		cmp	r3, #0
 1563 0890 01D1     		bne	.L96
 1564              		.loc 1 597 0
 1565 0892 0023     		movs	r3, #0
 1566 0894 1CE0     		b	.L99
 1567              	.L96:
 1568              		.loc 1 599 0
 1569 0896 9DF80F30 		ldrb	r3, [sp, #15]	@ zero_extendqisi2
 1570 089a 03F07F03 		and	r3, r3, #127
 1571 089e DBB2     		uxtb	r3, r3
 1572 08a0 8DF80F30 		strb	r3, [sp, #15]
 1573              		.loc 1 600 0
 1574 08a4 9DF80F20 		ldrb	r2, [sp, #15]	@ zero_extendqisi2
 1575 08a8 9DF80330 		ldrb	r3, [sp, #3]
 1576 08ac 1343     		orrs	r3, r3, r2
 1577 08ae DBB2     		uxtb	r3, r3
ARM GAS  /tmp/ccRrg1qB.s 			page 29


 1578 08b0 8DF80F30 		strb	r3, [sp, #15]
 1579              		.loc 1 602 0
 1580 08b4 0DF10F03 		add	r3, sp, #15
 1581 08b8 0198     		ldr	r0, [sp, #4]
 1582 08ba 1F21     		movs	r1, #31
 1583 08bc 1A46     		mov	r2, r3
 1584 08be 0123     		movs	r3, #1
 1585 08c0 FFF7FEFF 		bl	LSM303AGR_ACC_WriteReg
 1586 08c4 0346     		mov	r3, r0
 1587 08c6 002B     		cmp	r3, #0
 1588 08c8 01D1     		bne	.L98
 1589              		.loc 1 603 0
 1590 08ca 0023     		movs	r3, #0
 1591 08cc 00E0     		b	.L99
 1592              	.L98:
 1593              		.loc 1 605 0
 1594 08ce 0123     		movs	r3, #1
 1595              	.L99:
 1596              		.loc 1 606 0
 1597 08d0 1846     		mov	r0, r3
 1598 08d2 05B0     		add	sp, sp, #20
 1599              		@ sp needed
 1600 08d4 5DF804FB 		ldr	pc, [sp], #4
 1601              		.cfi_endproc
 1602              	.LFE291:
 1603              		.size	LSM303AGR_ACC_W_ADC_PD, .-LSM303AGR_ACC_W_ADC_PD
 1604              		.align	2
 1605 08d8 AFF30080 		.p2align 4,,15
 1605      AFF30080 
 1606              		.global	LSM303AGR_ACC_R_ADC_PD
 1607              		.thumb
 1608              		.thumb_func
 1609              		.type	LSM303AGR_ACC_R_ADC_PD, %function
 1610              	LSM303AGR_ACC_R_ADC_PD:
 1611              	.LFB292:
 1612              		.loc 1 616 0
 1613              		.cfi_startproc
 1614              		@ args = 0, pretend = 0, frame = 8
 1615              		@ frame_needed = 0, uses_anonymous_args = 0
 1616 08e0 00B5     		push	{lr}
 1617              		.cfi_def_cfa_offset 4
 1618              		.cfi_offset 14, -4
 1619 08e2 83B0     		sub	sp, sp, #12
 1620              		.cfi_def_cfa_offset 16
 1621 08e4 0190     		str	r0, [sp, #4]
 1622 08e6 0091     		str	r1, [sp]
 1623              		.loc 1 617 0
 1624 08e8 0198     		ldr	r0, [sp, #4]
 1625 08ea 1F21     		movs	r1, #31
 1626 08ec 009A     		ldr	r2, [sp]
 1627 08ee 0123     		movs	r3, #1
 1628 08f0 FFF7FEFF 		bl	LSM303AGR_ACC_ReadReg
 1629 08f4 0346     		mov	r3, r0
 1630 08f6 002B     		cmp	r3, #0
 1631 08f8 01D1     		bne	.L101
 1632              		.loc 1 618 0
 1633 08fa 0023     		movs	r3, #0
ARM GAS  /tmp/ccRrg1qB.s 			page 30


 1634 08fc 07E0     		b	.L102
 1635              	.L101:
 1636              		.loc 1 620 0
 1637 08fe 009B     		ldr	r3, [sp]
 1638 0900 1B78     		ldrb	r3, [r3]	@ zero_extendqisi2
 1639 0902 23F07F03 		bic	r3, r3, #127
 1640 0906 DAB2     		uxtb	r2, r3
 1641 0908 009B     		ldr	r3, [sp]
 1642 090a 1A70     		strb	r2, [r3]
 1643              		.loc 1 622 0
 1644 090c 0123     		movs	r3, #1
 1645              	.L102:
 1646              		.loc 1 623 0
 1647 090e 1846     		mov	r0, r3
 1648 0910 03B0     		add	sp, sp, #12
 1649              		@ sp needed
 1650 0912 5DF804FB 		ldr	pc, [sp], #4
 1651              		.cfi_endproc
 1652              	.LFE292:
 1653              		.size	LSM303AGR_ACC_R_ADC_PD, .-LSM303AGR_ACC_R_ADC_PD
 1654 0916 00BF     		.align	2
 1655 0918 AFF30080 		.p2align 4,,15
 1655      AFF30080 
 1656              		.global	LSM303AGR_ACC_W_XEN
 1657              		.thumb
 1658              		.thumb_func
 1659              		.type	LSM303AGR_ACC_W_XEN, %function
 1660              	LSM303AGR_ACC_W_XEN:
 1661              	.LFB293:
 1662              		.loc 1 633 0
 1663              		.cfi_startproc
 1664              		@ args = 0, pretend = 0, frame = 16
 1665              		@ frame_needed = 0, uses_anonymous_args = 0
 1666 0920 00B5     		push	{lr}
 1667              		.cfi_def_cfa_offset 4
 1668              		.cfi_offset 14, -4
 1669 0922 85B0     		sub	sp, sp, #20
 1670              		.cfi_def_cfa_offset 24
 1671 0924 0190     		str	r0, [sp, #4]
 1672 0926 0B46     		mov	r3, r1
 1673 0928 8DF80330 		strb	r3, [sp, #3]
 1674              		.loc 1 636 0
 1675 092c 0DF10F03 		add	r3, sp, #15
 1676 0930 0198     		ldr	r0, [sp, #4]
 1677 0932 2021     		movs	r1, #32
 1678 0934 1A46     		mov	r2, r3
 1679 0936 0123     		movs	r3, #1
 1680 0938 FFF7FEFF 		bl	LSM303AGR_ACC_ReadReg
 1681 093c 0346     		mov	r3, r0
 1682 093e 002B     		cmp	r3, #0
 1683 0940 01D1     		bne	.L104
 1684              		.loc 1 637 0
 1685 0942 0023     		movs	r3, #0
 1686 0944 1CE0     		b	.L107
 1687              	.L104:
 1688              		.loc 1 639 0
 1689 0946 9DF80F30 		ldrb	r3, [sp, #15]	@ zero_extendqisi2
ARM GAS  /tmp/ccRrg1qB.s 			page 31


 1690 094a 23F00103 		bic	r3, r3, #1
 1691 094e DBB2     		uxtb	r3, r3
 1692 0950 8DF80F30 		strb	r3, [sp, #15]
 1693              		.loc 1 640 0
 1694 0954 9DF80F20 		ldrb	r2, [sp, #15]	@ zero_extendqisi2
 1695 0958 9DF80330 		ldrb	r3, [sp, #3]
 1696 095c 1343     		orrs	r3, r3, r2
 1697 095e DBB2     		uxtb	r3, r3
 1698 0960 8DF80F30 		strb	r3, [sp, #15]
 1699              		.loc 1 642 0
 1700 0964 0DF10F03 		add	r3, sp, #15
 1701 0968 0198     		ldr	r0, [sp, #4]
 1702 096a 2021     		movs	r1, #32
 1703 096c 1A46     		mov	r2, r3
 1704 096e 0123     		movs	r3, #1
 1705 0970 FFF7FEFF 		bl	LSM303AGR_ACC_WriteReg
 1706 0974 0346     		mov	r3, r0
 1707 0976 002B     		cmp	r3, #0
 1708 0978 01D1     		bne	.L106
 1709              		.loc 1 643 0
 1710 097a 0023     		movs	r3, #0
 1711 097c 00E0     		b	.L107
 1712              	.L106:
 1713              		.loc 1 645 0
 1714 097e 0123     		movs	r3, #1
 1715              	.L107:
 1716              		.loc 1 646 0
 1717 0980 1846     		mov	r0, r3
 1718 0982 05B0     		add	sp, sp, #20
 1719              		@ sp needed
 1720 0984 5DF804FB 		ldr	pc, [sp], #4
 1721              		.cfi_endproc
 1722              	.LFE293:
 1723              		.size	LSM303AGR_ACC_W_XEN, .-LSM303AGR_ACC_W_XEN
 1724              		.align	2
 1725 0988 AFF30080 		.p2align 4,,15
 1725      AFF30080 
 1726              		.global	LSM303AGR_ACC_R_XEN
 1727              		.thumb
 1728              		.thumb_func
 1729              		.type	LSM303AGR_ACC_R_XEN, %function
 1730              	LSM303AGR_ACC_R_XEN:
 1731              	.LFB294:
 1732              		.loc 1 656 0
 1733              		.cfi_startproc
 1734              		@ args = 0, pretend = 0, frame = 8
 1735              		@ frame_needed = 0, uses_anonymous_args = 0
 1736 0990 00B5     		push	{lr}
 1737              		.cfi_def_cfa_offset 4
 1738              		.cfi_offset 14, -4
 1739 0992 83B0     		sub	sp, sp, #12
 1740              		.cfi_def_cfa_offset 16
 1741 0994 0190     		str	r0, [sp, #4]
 1742 0996 0091     		str	r1, [sp]
 1743              		.loc 1 657 0
 1744 0998 0198     		ldr	r0, [sp, #4]
 1745 099a 2021     		movs	r1, #32
ARM GAS  /tmp/ccRrg1qB.s 			page 32


 1746 099c 009A     		ldr	r2, [sp]
 1747 099e 0123     		movs	r3, #1
 1748 09a0 FFF7FEFF 		bl	LSM303AGR_ACC_ReadReg
 1749 09a4 0346     		mov	r3, r0
 1750 09a6 002B     		cmp	r3, #0
 1751 09a8 01D1     		bne	.L109
 1752              		.loc 1 658 0
 1753 09aa 0023     		movs	r3, #0
 1754 09ac 07E0     		b	.L110
 1755              	.L109:
 1756              		.loc 1 660 0
 1757 09ae 009B     		ldr	r3, [sp]
 1758 09b0 1B78     		ldrb	r3, [r3]	@ zero_extendqisi2
 1759 09b2 03F00103 		and	r3, r3, #1
 1760 09b6 DAB2     		uxtb	r2, r3
 1761 09b8 009B     		ldr	r3, [sp]
 1762 09ba 1A70     		strb	r2, [r3]
 1763              		.loc 1 662 0
 1764 09bc 0123     		movs	r3, #1
 1765              	.L110:
 1766              		.loc 1 663 0
 1767 09be 1846     		mov	r0, r3
 1768 09c0 03B0     		add	sp, sp, #12
 1769              		@ sp needed
 1770 09c2 5DF804FB 		ldr	pc, [sp], #4
 1771              		.cfi_endproc
 1772              	.LFE294:
 1773              		.size	LSM303AGR_ACC_R_XEN, .-LSM303AGR_ACC_R_XEN
 1774 09c6 00BF     		.align	2
 1775 09c8 AFF30080 		.p2align 4,,15
 1775      AFF30080 
 1776              		.global	LSM303AGR_ACC_W_YEN
 1777              		.thumb
 1778              		.thumb_func
 1779              		.type	LSM303AGR_ACC_W_YEN, %function
 1780              	LSM303AGR_ACC_W_YEN:
 1781              	.LFB295:
 1782              		.loc 1 673 0
 1783              		.cfi_startproc
 1784              		@ args = 0, pretend = 0, frame = 16
 1785              		@ frame_needed = 0, uses_anonymous_args = 0
 1786 09d0 00B5     		push	{lr}
 1787              		.cfi_def_cfa_offset 4
 1788              		.cfi_offset 14, -4
 1789 09d2 85B0     		sub	sp, sp, #20
 1790              		.cfi_def_cfa_offset 24
 1791 09d4 0190     		str	r0, [sp, #4]
 1792 09d6 0B46     		mov	r3, r1
 1793 09d8 8DF80330 		strb	r3, [sp, #3]
 1794              		.loc 1 676 0
 1795 09dc 0DF10F03 		add	r3, sp, #15
 1796 09e0 0198     		ldr	r0, [sp, #4]
 1797 09e2 2021     		movs	r1, #32
 1798 09e4 1A46     		mov	r2, r3
 1799 09e6 0123     		movs	r3, #1
 1800 09e8 FFF7FEFF 		bl	LSM303AGR_ACC_ReadReg
 1801 09ec 0346     		mov	r3, r0
ARM GAS  /tmp/ccRrg1qB.s 			page 33


 1802 09ee 002B     		cmp	r3, #0
 1803 09f0 01D1     		bne	.L112
 1804              		.loc 1 677 0
 1805 09f2 0023     		movs	r3, #0
 1806 09f4 1CE0     		b	.L115
 1807              	.L112:
 1808              		.loc 1 679 0
 1809 09f6 9DF80F30 		ldrb	r3, [sp, #15]	@ zero_extendqisi2
 1810 09fa 23F00203 		bic	r3, r3, #2
 1811 09fe DBB2     		uxtb	r3, r3
 1812 0a00 8DF80F30 		strb	r3, [sp, #15]
 1813              		.loc 1 680 0
 1814 0a04 9DF80F20 		ldrb	r2, [sp, #15]	@ zero_extendqisi2
 1815 0a08 9DF80330 		ldrb	r3, [sp, #3]
 1816 0a0c 1343     		orrs	r3, r3, r2
 1817 0a0e DBB2     		uxtb	r3, r3
 1818 0a10 8DF80F30 		strb	r3, [sp, #15]
 1819              		.loc 1 682 0
 1820 0a14 0DF10F03 		add	r3, sp, #15
 1821 0a18 0198     		ldr	r0, [sp, #4]
 1822 0a1a 2021     		movs	r1, #32
 1823 0a1c 1A46     		mov	r2, r3
 1824 0a1e 0123     		movs	r3, #1
 1825 0a20 FFF7FEFF 		bl	LSM303AGR_ACC_WriteReg
 1826 0a24 0346     		mov	r3, r0
 1827 0a26 002B     		cmp	r3, #0
 1828 0a28 01D1     		bne	.L114
 1829              		.loc 1 683 0
 1830 0a2a 0023     		movs	r3, #0
 1831 0a2c 00E0     		b	.L115
 1832              	.L114:
 1833              		.loc 1 685 0
 1834 0a2e 0123     		movs	r3, #1
 1835              	.L115:
 1836              		.loc 1 686 0
 1837 0a30 1846     		mov	r0, r3
 1838 0a32 05B0     		add	sp, sp, #20
 1839              		@ sp needed
 1840 0a34 5DF804FB 		ldr	pc, [sp], #4
 1841              		.cfi_endproc
 1842              	.LFE295:
 1843              		.size	LSM303AGR_ACC_W_YEN, .-LSM303AGR_ACC_W_YEN
 1844              		.align	2
 1845 0a38 AFF30080 		.p2align 4,,15
 1845      AFF30080 
 1846              		.global	LSM303AGR_ACC_R_YEN
 1847              		.thumb
 1848              		.thumb_func
 1849              		.type	LSM303AGR_ACC_R_YEN, %function
 1850              	LSM303AGR_ACC_R_YEN:
 1851              	.LFB296:
 1852              		.loc 1 696 0
 1853              		.cfi_startproc
 1854              		@ args = 0, pretend = 0, frame = 8
 1855              		@ frame_needed = 0, uses_anonymous_args = 0
 1856 0a40 00B5     		push	{lr}
 1857              		.cfi_def_cfa_offset 4
ARM GAS  /tmp/ccRrg1qB.s 			page 34


 1858              		.cfi_offset 14, -4
 1859 0a42 83B0     		sub	sp, sp, #12
 1860              		.cfi_def_cfa_offset 16
 1861 0a44 0190     		str	r0, [sp, #4]
 1862 0a46 0091     		str	r1, [sp]
 1863              		.loc 1 697 0
 1864 0a48 0198     		ldr	r0, [sp, #4]
 1865 0a4a 2021     		movs	r1, #32
 1866 0a4c 009A     		ldr	r2, [sp]
 1867 0a4e 0123     		movs	r3, #1
 1868 0a50 FFF7FEFF 		bl	LSM303AGR_ACC_ReadReg
 1869 0a54 0346     		mov	r3, r0
 1870 0a56 002B     		cmp	r3, #0
 1871 0a58 01D1     		bne	.L117
 1872              		.loc 1 698 0
 1873 0a5a 0023     		movs	r3, #0
 1874 0a5c 07E0     		b	.L118
 1875              	.L117:
 1876              		.loc 1 700 0
 1877 0a5e 009B     		ldr	r3, [sp]
 1878 0a60 1B78     		ldrb	r3, [r3]	@ zero_extendqisi2
 1879 0a62 03F00203 		and	r3, r3, #2
 1880 0a66 DAB2     		uxtb	r2, r3
 1881 0a68 009B     		ldr	r3, [sp]
 1882 0a6a 1A70     		strb	r2, [r3]
 1883              		.loc 1 702 0
 1884 0a6c 0123     		movs	r3, #1
 1885              	.L118:
 1886              		.loc 1 703 0
 1887 0a6e 1846     		mov	r0, r3
 1888 0a70 03B0     		add	sp, sp, #12
 1889              		@ sp needed
 1890 0a72 5DF804FB 		ldr	pc, [sp], #4
 1891              		.cfi_endproc
 1892              	.LFE296:
 1893              		.size	LSM303AGR_ACC_R_YEN, .-LSM303AGR_ACC_R_YEN
 1894 0a76 00BF     		.align	2
 1895 0a78 AFF30080 		.p2align 4,,15
 1895      AFF30080 
 1896              		.global	LSM303AGR_ACC_W_ZEN
 1897              		.thumb
 1898              		.thumb_func
 1899              		.type	LSM303AGR_ACC_W_ZEN, %function
 1900              	LSM303AGR_ACC_W_ZEN:
 1901              	.LFB297:
 1902              		.loc 1 713 0
 1903              		.cfi_startproc
 1904              		@ args = 0, pretend = 0, frame = 16
 1905              		@ frame_needed = 0, uses_anonymous_args = 0
 1906 0a80 00B5     		push	{lr}
 1907              		.cfi_def_cfa_offset 4
 1908              		.cfi_offset 14, -4
 1909 0a82 85B0     		sub	sp, sp, #20
 1910              		.cfi_def_cfa_offset 24
 1911 0a84 0190     		str	r0, [sp, #4]
 1912 0a86 0B46     		mov	r3, r1
 1913 0a88 8DF80330 		strb	r3, [sp, #3]
ARM GAS  /tmp/ccRrg1qB.s 			page 35


 1914              		.loc 1 716 0
 1915 0a8c 0DF10F03 		add	r3, sp, #15
 1916 0a90 0198     		ldr	r0, [sp, #4]
 1917 0a92 2021     		movs	r1, #32
 1918 0a94 1A46     		mov	r2, r3
 1919 0a96 0123     		movs	r3, #1
 1920 0a98 FFF7FEFF 		bl	LSM303AGR_ACC_ReadReg
 1921 0a9c 0346     		mov	r3, r0
 1922 0a9e 002B     		cmp	r3, #0
 1923 0aa0 01D1     		bne	.L120
 1924              		.loc 1 717 0
 1925 0aa2 0023     		movs	r3, #0
 1926 0aa4 1CE0     		b	.L123
 1927              	.L120:
 1928              		.loc 1 719 0
 1929 0aa6 9DF80F30 		ldrb	r3, [sp, #15]	@ zero_extendqisi2
 1930 0aaa 23F00403 		bic	r3, r3, #4
 1931 0aae DBB2     		uxtb	r3, r3
 1932 0ab0 8DF80F30 		strb	r3, [sp, #15]
 1933              		.loc 1 720 0
 1934 0ab4 9DF80F20 		ldrb	r2, [sp, #15]	@ zero_extendqisi2
 1935 0ab8 9DF80330 		ldrb	r3, [sp, #3]
 1936 0abc 1343     		orrs	r3, r3, r2
 1937 0abe DBB2     		uxtb	r3, r3
 1938 0ac0 8DF80F30 		strb	r3, [sp, #15]
 1939              		.loc 1 722 0
 1940 0ac4 0DF10F03 		add	r3, sp, #15
 1941 0ac8 0198     		ldr	r0, [sp, #4]
 1942 0aca 2021     		movs	r1, #32
 1943 0acc 1A46     		mov	r2, r3
 1944 0ace 0123     		movs	r3, #1
 1945 0ad0 FFF7FEFF 		bl	LSM303AGR_ACC_WriteReg
 1946 0ad4 0346     		mov	r3, r0
 1947 0ad6 002B     		cmp	r3, #0
 1948 0ad8 01D1     		bne	.L122
 1949              		.loc 1 723 0
 1950 0ada 0023     		movs	r3, #0
 1951 0adc 00E0     		b	.L123
 1952              	.L122:
 1953              		.loc 1 725 0
 1954 0ade 0123     		movs	r3, #1
 1955              	.L123:
 1956              		.loc 1 726 0
 1957 0ae0 1846     		mov	r0, r3
 1958 0ae2 05B0     		add	sp, sp, #20
 1959              		@ sp needed
 1960 0ae4 5DF804FB 		ldr	pc, [sp], #4
 1961              		.cfi_endproc
 1962              	.LFE297:
 1963              		.size	LSM303AGR_ACC_W_ZEN, .-LSM303AGR_ACC_W_ZEN
 1964              		.align	2
 1965 0ae8 AFF30080 		.p2align 4,,15
 1965      AFF30080 
 1966              		.global	LSM303AGR_ACC_R_ZEN
 1967              		.thumb
 1968              		.thumb_func
 1969              		.type	LSM303AGR_ACC_R_ZEN, %function
ARM GAS  /tmp/ccRrg1qB.s 			page 36


 1970              	LSM303AGR_ACC_R_ZEN:
 1971              	.LFB298:
 1972              		.loc 1 736 0
 1973              		.cfi_startproc
 1974              		@ args = 0, pretend = 0, frame = 8
 1975              		@ frame_needed = 0, uses_anonymous_args = 0
 1976 0af0 00B5     		push	{lr}
 1977              		.cfi_def_cfa_offset 4
 1978              		.cfi_offset 14, -4
 1979 0af2 83B0     		sub	sp, sp, #12
 1980              		.cfi_def_cfa_offset 16
 1981 0af4 0190     		str	r0, [sp, #4]
 1982 0af6 0091     		str	r1, [sp]
 1983              		.loc 1 737 0
 1984 0af8 0198     		ldr	r0, [sp, #4]
 1985 0afa 2021     		movs	r1, #32
 1986 0afc 009A     		ldr	r2, [sp]
 1987 0afe 0123     		movs	r3, #1
 1988 0b00 FFF7FEFF 		bl	LSM303AGR_ACC_ReadReg
 1989 0b04 0346     		mov	r3, r0
 1990 0b06 002B     		cmp	r3, #0
 1991 0b08 01D1     		bne	.L125
 1992              		.loc 1 738 0
 1993 0b0a 0023     		movs	r3, #0
 1994 0b0c 07E0     		b	.L126
 1995              	.L125:
 1996              		.loc 1 740 0
 1997 0b0e 009B     		ldr	r3, [sp]
 1998 0b10 1B78     		ldrb	r3, [r3]	@ zero_extendqisi2
 1999 0b12 03F00403 		and	r3, r3, #4
 2000 0b16 DAB2     		uxtb	r2, r3
 2001 0b18 009B     		ldr	r3, [sp]
 2002 0b1a 1A70     		strb	r2, [r3]
 2003              		.loc 1 742 0
 2004 0b1c 0123     		movs	r3, #1
 2005              	.L126:
 2006              		.loc 1 743 0
 2007 0b1e 1846     		mov	r0, r3
 2008 0b20 03B0     		add	sp, sp, #12
 2009              		@ sp needed
 2010 0b22 5DF804FB 		ldr	pc, [sp], #4
 2011              		.cfi_endproc
 2012              	.LFE298:
 2013              		.size	LSM303AGR_ACC_R_ZEN, .-LSM303AGR_ACC_R_ZEN
 2014 0b26 00BF     		.align	2
 2015 0b28 AFF30080 		.p2align 4,,15
 2015      AFF30080 
 2016              		.global	LSM303AGR_ACC_W_LOWPWR_EN
 2017              		.thumb
 2018              		.thumb_func
 2019              		.type	LSM303AGR_ACC_W_LOWPWR_EN, %function
 2020              	LSM303AGR_ACC_W_LOWPWR_EN:
 2021              	.LFB299:
 2022              		.loc 1 753 0
 2023              		.cfi_startproc
 2024              		@ args = 0, pretend = 0, frame = 16
 2025              		@ frame_needed = 0, uses_anonymous_args = 0
ARM GAS  /tmp/ccRrg1qB.s 			page 37


 2026 0b30 00B5     		push	{lr}
 2027              		.cfi_def_cfa_offset 4
 2028              		.cfi_offset 14, -4
 2029 0b32 85B0     		sub	sp, sp, #20
 2030              		.cfi_def_cfa_offset 24
 2031 0b34 0190     		str	r0, [sp, #4]
 2032 0b36 0B46     		mov	r3, r1
 2033 0b38 8DF80330 		strb	r3, [sp, #3]
 2034              		.loc 1 756 0
 2035 0b3c 0DF10F03 		add	r3, sp, #15
 2036 0b40 0198     		ldr	r0, [sp, #4]
 2037 0b42 2021     		movs	r1, #32
 2038 0b44 1A46     		mov	r2, r3
 2039 0b46 0123     		movs	r3, #1
 2040 0b48 FFF7FEFF 		bl	LSM303AGR_ACC_ReadReg
 2041 0b4c 0346     		mov	r3, r0
 2042 0b4e 002B     		cmp	r3, #0
 2043 0b50 01D1     		bne	.L128
 2044              		.loc 1 757 0
 2045 0b52 0023     		movs	r3, #0
 2046 0b54 1CE0     		b	.L131
 2047              	.L128:
 2048              		.loc 1 759 0
 2049 0b56 9DF80F30 		ldrb	r3, [sp, #15]	@ zero_extendqisi2
 2050 0b5a 23F00803 		bic	r3, r3, #8
 2051 0b5e DBB2     		uxtb	r3, r3
 2052 0b60 8DF80F30 		strb	r3, [sp, #15]
 2053              		.loc 1 760 0
 2054 0b64 9DF80F20 		ldrb	r2, [sp, #15]	@ zero_extendqisi2
 2055 0b68 9DF80330 		ldrb	r3, [sp, #3]
 2056 0b6c 1343     		orrs	r3, r3, r2
 2057 0b6e DBB2     		uxtb	r3, r3
 2058 0b70 8DF80F30 		strb	r3, [sp, #15]
 2059              		.loc 1 762 0
 2060 0b74 0DF10F03 		add	r3, sp, #15
 2061 0b78 0198     		ldr	r0, [sp, #4]
 2062 0b7a 2021     		movs	r1, #32
 2063 0b7c 1A46     		mov	r2, r3
 2064 0b7e 0123     		movs	r3, #1
 2065 0b80 FFF7FEFF 		bl	LSM303AGR_ACC_WriteReg
 2066 0b84 0346     		mov	r3, r0
 2067 0b86 002B     		cmp	r3, #0
 2068 0b88 01D1     		bne	.L130
 2069              		.loc 1 763 0
 2070 0b8a 0023     		movs	r3, #0
 2071 0b8c 00E0     		b	.L131
 2072              	.L130:
 2073              		.loc 1 765 0
 2074 0b8e 0123     		movs	r3, #1
 2075              	.L131:
 2076              		.loc 1 766 0
 2077 0b90 1846     		mov	r0, r3
 2078 0b92 05B0     		add	sp, sp, #20
 2079              		@ sp needed
 2080 0b94 5DF804FB 		ldr	pc, [sp], #4
 2081              		.cfi_endproc
 2082              	.LFE299:
ARM GAS  /tmp/ccRrg1qB.s 			page 38


 2083              		.size	LSM303AGR_ACC_W_LOWPWR_EN, .-LSM303AGR_ACC_W_LOWPWR_EN
 2084              		.align	2
 2085 0b98 AFF30080 		.p2align 4,,15
 2085      AFF30080 
 2086              		.global	LSM303AGR_ACC_R_LOWPWR_EN
 2087              		.thumb
 2088              		.thumb_func
 2089              		.type	LSM303AGR_ACC_R_LOWPWR_EN, %function
 2090              	LSM303AGR_ACC_R_LOWPWR_EN:
 2091              	.LFB300:
 2092              		.loc 1 776 0
 2093              		.cfi_startproc
 2094              		@ args = 0, pretend = 0, frame = 8
 2095              		@ frame_needed = 0, uses_anonymous_args = 0
 2096 0ba0 00B5     		push	{lr}
 2097              		.cfi_def_cfa_offset 4
 2098              		.cfi_offset 14, -4
 2099 0ba2 83B0     		sub	sp, sp, #12
 2100              		.cfi_def_cfa_offset 16
 2101 0ba4 0190     		str	r0, [sp, #4]
 2102 0ba6 0091     		str	r1, [sp]
 2103              		.loc 1 777 0
 2104 0ba8 0198     		ldr	r0, [sp, #4]
 2105 0baa 2021     		movs	r1, #32
 2106 0bac 009A     		ldr	r2, [sp]
 2107 0bae 0123     		movs	r3, #1
 2108 0bb0 FFF7FEFF 		bl	LSM303AGR_ACC_ReadReg
 2109 0bb4 0346     		mov	r3, r0
 2110 0bb6 002B     		cmp	r3, #0
 2111 0bb8 01D1     		bne	.L133
 2112              		.loc 1 778 0
 2113 0bba 0023     		movs	r3, #0
 2114 0bbc 07E0     		b	.L134
 2115              	.L133:
 2116              		.loc 1 780 0
 2117 0bbe 009B     		ldr	r3, [sp]
 2118 0bc0 1B78     		ldrb	r3, [r3]	@ zero_extendqisi2
 2119 0bc2 03F00803 		and	r3, r3, #8
 2120 0bc6 DAB2     		uxtb	r2, r3
 2121 0bc8 009B     		ldr	r3, [sp]
 2122 0bca 1A70     		strb	r2, [r3]
 2123              		.loc 1 782 0
 2124 0bcc 0123     		movs	r3, #1
 2125              	.L134:
 2126              		.loc 1 783 0
 2127 0bce 1846     		mov	r0, r3
 2128 0bd0 03B0     		add	sp, sp, #12
 2129              		@ sp needed
 2130 0bd2 5DF804FB 		ldr	pc, [sp], #4
 2131              		.cfi_endproc
 2132              	.LFE300:
 2133              		.size	LSM303AGR_ACC_R_LOWPWR_EN, .-LSM303AGR_ACC_R_LOWPWR_EN
 2134 0bd6 00BF     		.align	2
 2135 0bd8 AFF30080 		.p2align 4,,15
 2135      AFF30080 
 2136              		.global	LSM303AGR_ACC_W_hpf_aoi_en_int1
 2137              		.thumb
ARM GAS  /tmp/ccRrg1qB.s 			page 39


 2138              		.thumb_func
 2139              		.type	LSM303AGR_ACC_W_hpf_aoi_en_int1, %function
 2140              	LSM303AGR_ACC_W_hpf_aoi_en_int1:
 2141              	.LFB301:
 2142              		.loc 1 793 0
 2143              		.cfi_startproc
 2144              		@ args = 0, pretend = 0, frame = 16
 2145              		@ frame_needed = 0, uses_anonymous_args = 0
 2146 0be0 00B5     		push	{lr}
 2147              		.cfi_def_cfa_offset 4
 2148              		.cfi_offset 14, -4
 2149 0be2 85B0     		sub	sp, sp, #20
 2150              		.cfi_def_cfa_offset 24
 2151 0be4 0190     		str	r0, [sp, #4]
 2152 0be6 0B46     		mov	r3, r1
 2153 0be8 8DF80330 		strb	r3, [sp, #3]
 2154              		.loc 1 796 0
 2155 0bec 0DF10F03 		add	r3, sp, #15
 2156 0bf0 0198     		ldr	r0, [sp, #4]
 2157 0bf2 2121     		movs	r1, #33
 2158 0bf4 1A46     		mov	r2, r3
 2159 0bf6 0123     		movs	r3, #1
 2160 0bf8 FFF7FEFF 		bl	LSM303AGR_ACC_ReadReg
 2161 0bfc 0346     		mov	r3, r0
 2162 0bfe 002B     		cmp	r3, #0
 2163 0c00 01D1     		bne	.L136
 2164              		.loc 1 797 0
 2165 0c02 0023     		movs	r3, #0
 2166 0c04 1CE0     		b	.L139
 2167              	.L136:
 2168              		.loc 1 799 0
 2169 0c06 9DF80F30 		ldrb	r3, [sp, #15]	@ zero_extendqisi2
 2170 0c0a 23F00103 		bic	r3, r3, #1
 2171 0c0e DBB2     		uxtb	r3, r3
 2172 0c10 8DF80F30 		strb	r3, [sp, #15]
 2173              		.loc 1 800 0
 2174 0c14 9DF80F20 		ldrb	r2, [sp, #15]	@ zero_extendqisi2
 2175 0c18 9DF80330 		ldrb	r3, [sp, #3]
 2176 0c1c 1343     		orrs	r3, r3, r2
 2177 0c1e DBB2     		uxtb	r3, r3
 2178 0c20 8DF80F30 		strb	r3, [sp, #15]
 2179              		.loc 1 802 0
 2180 0c24 0DF10F03 		add	r3, sp, #15
 2181 0c28 0198     		ldr	r0, [sp, #4]
 2182 0c2a 2121     		movs	r1, #33
 2183 0c2c 1A46     		mov	r2, r3
 2184 0c2e 0123     		movs	r3, #1
 2185 0c30 FFF7FEFF 		bl	LSM303AGR_ACC_WriteReg
 2186 0c34 0346     		mov	r3, r0
 2187 0c36 002B     		cmp	r3, #0
 2188 0c38 01D1     		bne	.L138
 2189              		.loc 1 803 0
 2190 0c3a 0023     		movs	r3, #0
 2191 0c3c 00E0     		b	.L139
 2192              	.L138:
 2193              		.loc 1 805 0
 2194 0c3e 0123     		movs	r3, #1
ARM GAS  /tmp/ccRrg1qB.s 			page 40


 2195              	.L139:
 2196              		.loc 1 806 0
 2197 0c40 1846     		mov	r0, r3
 2198 0c42 05B0     		add	sp, sp, #20
 2199              		@ sp needed
 2200 0c44 5DF804FB 		ldr	pc, [sp], #4
 2201              		.cfi_endproc
 2202              	.LFE301:
 2203              		.size	LSM303AGR_ACC_W_hpf_aoi_en_int1, .-LSM303AGR_ACC_W_hpf_aoi_en_int1
 2204              		.align	2
 2205 0c48 AFF30080 		.p2align 4,,15
 2205      AFF30080 
 2206              		.global	LSM303AGR_ACC_R_hpf_aoi_en_int1
 2207              		.thumb
 2208              		.thumb_func
 2209              		.type	LSM303AGR_ACC_R_hpf_aoi_en_int1, %function
 2210              	LSM303AGR_ACC_R_hpf_aoi_en_int1:
 2211              	.LFB302:
 2212              		.loc 1 816 0
 2213              		.cfi_startproc
 2214              		@ args = 0, pretend = 0, frame = 8
 2215              		@ frame_needed = 0, uses_anonymous_args = 0
 2216 0c50 00B5     		push	{lr}
 2217              		.cfi_def_cfa_offset 4
 2218              		.cfi_offset 14, -4
 2219 0c52 83B0     		sub	sp, sp, #12
 2220              		.cfi_def_cfa_offset 16
 2221 0c54 0190     		str	r0, [sp, #4]
 2222 0c56 0091     		str	r1, [sp]
 2223              		.loc 1 817 0
 2224 0c58 0198     		ldr	r0, [sp, #4]
 2225 0c5a 2121     		movs	r1, #33
 2226 0c5c 009A     		ldr	r2, [sp]
 2227 0c5e 0123     		movs	r3, #1
 2228 0c60 FFF7FEFF 		bl	LSM303AGR_ACC_ReadReg
 2229 0c64 0346     		mov	r3, r0
 2230 0c66 002B     		cmp	r3, #0
 2231 0c68 01D1     		bne	.L141
 2232              		.loc 1 818 0
 2233 0c6a 0023     		movs	r3, #0
 2234 0c6c 07E0     		b	.L142
 2235              	.L141:
 2236              		.loc 1 820 0
 2237 0c6e 009B     		ldr	r3, [sp]
 2238 0c70 1B78     		ldrb	r3, [r3]	@ zero_extendqisi2
 2239 0c72 03F00103 		and	r3, r3, #1
 2240 0c76 DAB2     		uxtb	r2, r3
 2241 0c78 009B     		ldr	r3, [sp]
 2242 0c7a 1A70     		strb	r2, [r3]
 2243              		.loc 1 822 0
 2244 0c7c 0123     		movs	r3, #1
 2245              	.L142:
 2246              		.loc 1 823 0
 2247 0c7e 1846     		mov	r0, r3
 2248 0c80 03B0     		add	sp, sp, #12
 2249              		@ sp needed
 2250 0c82 5DF804FB 		ldr	pc, [sp], #4
ARM GAS  /tmp/ccRrg1qB.s 			page 41


 2251              		.cfi_endproc
 2252              	.LFE302:
 2253              		.size	LSM303AGR_ACC_R_hpf_aoi_en_int1, .-LSM303AGR_ACC_R_hpf_aoi_en_int1
 2254 0c86 00BF     		.align	2
 2255 0c88 AFF30080 		.p2align 4,,15
 2255      AFF30080 
 2256              		.global	LSM303AGR_ACC_W_hpf_aoi_en_int2
 2257              		.thumb
 2258              		.thumb_func
 2259              		.type	LSM303AGR_ACC_W_hpf_aoi_en_int2, %function
 2260              	LSM303AGR_ACC_W_hpf_aoi_en_int2:
 2261              	.LFB303:
 2262              		.loc 1 833 0
 2263              		.cfi_startproc
 2264              		@ args = 0, pretend = 0, frame = 16
 2265              		@ frame_needed = 0, uses_anonymous_args = 0
 2266 0c90 00B5     		push	{lr}
 2267              		.cfi_def_cfa_offset 4
 2268              		.cfi_offset 14, -4
 2269 0c92 85B0     		sub	sp, sp, #20
 2270              		.cfi_def_cfa_offset 24
 2271 0c94 0190     		str	r0, [sp, #4]
 2272 0c96 0B46     		mov	r3, r1
 2273 0c98 8DF80330 		strb	r3, [sp, #3]
 2274              		.loc 1 836 0
 2275 0c9c 0DF10F03 		add	r3, sp, #15
 2276 0ca0 0198     		ldr	r0, [sp, #4]
 2277 0ca2 2121     		movs	r1, #33
 2278 0ca4 1A46     		mov	r2, r3
 2279 0ca6 0123     		movs	r3, #1
 2280 0ca8 FFF7FEFF 		bl	LSM303AGR_ACC_ReadReg
 2281 0cac 0346     		mov	r3, r0
 2282 0cae 002B     		cmp	r3, #0
 2283 0cb0 01D1     		bne	.L144
 2284              		.loc 1 837 0
 2285 0cb2 0023     		movs	r3, #0
 2286 0cb4 1CE0     		b	.L147
 2287              	.L144:
 2288              		.loc 1 839 0
 2289 0cb6 9DF80F30 		ldrb	r3, [sp, #15]	@ zero_extendqisi2
 2290 0cba 23F00203 		bic	r3, r3, #2
 2291 0cbe DBB2     		uxtb	r3, r3
 2292 0cc0 8DF80F30 		strb	r3, [sp, #15]
 2293              		.loc 1 840 0
 2294 0cc4 9DF80F20 		ldrb	r2, [sp, #15]	@ zero_extendqisi2
 2295 0cc8 9DF80330 		ldrb	r3, [sp, #3]
 2296 0ccc 1343     		orrs	r3, r3, r2
 2297 0cce DBB2     		uxtb	r3, r3
 2298 0cd0 8DF80F30 		strb	r3, [sp, #15]
 2299              		.loc 1 842 0
 2300 0cd4 0DF10F03 		add	r3, sp, #15
 2301 0cd8 0198     		ldr	r0, [sp, #4]
 2302 0cda 2121     		movs	r1, #33
 2303 0cdc 1A46     		mov	r2, r3
 2304 0cde 0123     		movs	r3, #1
 2305 0ce0 FFF7FEFF 		bl	LSM303AGR_ACC_WriteReg
 2306 0ce4 0346     		mov	r3, r0
ARM GAS  /tmp/ccRrg1qB.s 			page 42


 2307 0ce6 002B     		cmp	r3, #0
 2308 0ce8 01D1     		bne	.L146
 2309              		.loc 1 843 0
 2310 0cea 0023     		movs	r3, #0
 2311 0cec 00E0     		b	.L147
 2312              	.L146:
 2313              		.loc 1 845 0
 2314 0cee 0123     		movs	r3, #1
 2315              	.L147:
 2316              		.loc 1 846 0
 2317 0cf0 1846     		mov	r0, r3
 2318 0cf2 05B0     		add	sp, sp, #20
 2319              		@ sp needed
 2320 0cf4 5DF804FB 		ldr	pc, [sp], #4
 2321              		.cfi_endproc
 2322              	.LFE303:
 2323              		.size	LSM303AGR_ACC_W_hpf_aoi_en_int2, .-LSM303AGR_ACC_W_hpf_aoi_en_int2
 2324              		.align	2
 2325 0cf8 AFF30080 		.p2align 4,,15
 2325      AFF30080 
 2326              		.global	LSM303AGR_ACC_R_hpf_aoi_en_int2
 2327              		.thumb
 2328              		.thumb_func
 2329              		.type	LSM303AGR_ACC_R_hpf_aoi_en_int2, %function
 2330              	LSM303AGR_ACC_R_hpf_aoi_en_int2:
 2331              	.LFB304:
 2332              		.loc 1 856 0
 2333              		.cfi_startproc
 2334              		@ args = 0, pretend = 0, frame = 8
 2335              		@ frame_needed = 0, uses_anonymous_args = 0
 2336 0d00 00B5     		push	{lr}
 2337              		.cfi_def_cfa_offset 4
 2338              		.cfi_offset 14, -4
 2339 0d02 83B0     		sub	sp, sp, #12
 2340              		.cfi_def_cfa_offset 16
 2341 0d04 0190     		str	r0, [sp, #4]
 2342 0d06 0091     		str	r1, [sp]
 2343              		.loc 1 857 0
 2344 0d08 0198     		ldr	r0, [sp, #4]
 2345 0d0a 2121     		movs	r1, #33
 2346 0d0c 009A     		ldr	r2, [sp]
 2347 0d0e 0123     		movs	r3, #1
 2348 0d10 FFF7FEFF 		bl	LSM303AGR_ACC_ReadReg
 2349 0d14 0346     		mov	r3, r0
 2350 0d16 002B     		cmp	r3, #0
 2351 0d18 01D1     		bne	.L149
 2352              		.loc 1 858 0
 2353 0d1a 0023     		movs	r3, #0
 2354 0d1c 07E0     		b	.L150
 2355              	.L149:
 2356              		.loc 1 860 0
 2357 0d1e 009B     		ldr	r3, [sp]
 2358 0d20 1B78     		ldrb	r3, [r3]	@ zero_extendqisi2
 2359 0d22 03F00203 		and	r3, r3, #2
 2360 0d26 DAB2     		uxtb	r2, r3
 2361 0d28 009B     		ldr	r3, [sp]
 2362 0d2a 1A70     		strb	r2, [r3]
ARM GAS  /tmp/ccRrg1qB.s 			page 43


 2363              		.loc 1 862 0
 2364 0d2c 0123     		movs	r3, #1
 2365              	.L150:
 2366              		.loc 1 863 0
 2367 0d2e 1846     		mov	r0, r3
 2368 0d30 03B0     		add	sp, sp, #12
 2369              		@ sp needed
 2370 0d32 5DF804FB 		ldr	pc, [sp], #4
 2371              		.cfi_endproc
 2372              	.LFE304:
 2373              		.size	LSM303AGR_ACC_R_hpf_aoi_en_int2, .-LSM303AGR_ACC_R_hpf_aoi_en_int2
 2374 0d36 00BF     		.align	2
 2375 0d38 AFF30080 		.p2align 4,,15
 2375      AFF30080 
 2376              		.global	LSM303AGR_ACC_W_hpf_click_en
 2377              		.thumb
 2378              		.thumb_func
 2379              		.type	LSM303AGR_ACC_W_hpf_click_en, %function
 2380              	LSM303AGR_ACC_W_hpf_click_en:
 2381              	.LFB305:
 2382              		.loc 1 873 0
 2383              		.cfi_startproc
 2384              		@ args = 0, pretend = 0, frame = 16
 2385              		@ frame_needed = 0, uses_anonymous_args = 0
 2386 0d40 00B5     		push	{lr}
 2387              		.cfi_def_cfa_offset 4
 2388              		.cfi_offset 14, -4
 2389 0d42 85B0     		sub	sp, sp, #20
 2390              		.cfi_def_cfa_offset 24
 2391 0d44 0190     		str	r0, [sp, #4]
 2392 0d46 0B46     		mov	r3, r1
 2393 0d48 8DF80330 		strb	r3, [sp, #3]
 2394              		.loc 1 876 0
 2395 0d4c 0DF10F03 		add	r3, sp, #15
 2396 0d50 0198     		ldr	r0, [sp, #4]
 2397 0d52 2121     		movs	r1, #33
 2398 0d54 1A46     		mov	r2, r3
 2399 0d56 0123     		movs	r3, #1
 2400 0d58 FFF7FEFF 		bl	LSM303AGR_ACC_ReadReg
 2401 0d5c 0346     		mov	r3, r0
 2402 0d5e 002B     		cmp	r3, #0
 2403 0d60 01D1     		bne	.L152
 2404              		.loc 1 877 0
 2405 0d62 0023     		movs	r3, #0
 2406 0d64 1CE0     		b	.L155
 2407              	.L152:
 2408              		.loc 1 879 0
 2409 0d66 9DF80F30 		ldrb	r3, [sp, #15]	@ zero_extendqisi2
 2410 0d6a 23F00403 		bic	r3, r3, #4
 2411 0d6e DBB2     		uxtb	r3, r3
 2412 0d70 8DF80F30 		strb	r3, [sp, #15]
 2413              		.loc 1 880 0
 2414 0d74 9DF80F20 		ldrb	r2, [sp, #15]	@ zero_extendqisi2
 2415 0d78 9DF80330 		ldrb	r3, [sp, #3]
 2416 0d7c 1343     		orrs	r3, r3, r2
 2417 0d7e DBB2     		uxtb	r3, r3
 2418 0d80 8DF80F30 		strb	r3, [sp, #15]
ARM GAS  /tmp/ccRrg1qB.s 			page 44


 2419              		.loc 1 882 0
 2420 0d84 0DF10F03 		add	r3, sp, #15
 2421 0d88 0198     		ldr	r0, [sp, #4]
 2422 0d8a 2121     		movs	r1, #33
 2423 0d8c 1A46     		mov	r2, r3
 2424 0d8e 0123     		movs	r3, #1
 2425 0d90 FFF7FEFF 		bl	LSM303AGR_ACC_WriteReg
 2426 0d94 0346     		mov	r3, r0
 2427 0d96 002B     		cmp	r3, #0
 2428 0d98 01D1     		bne	.L154
 2429              		.loc 1 883 0
 2430 0d9a 0023     		movs	r3, #0
 2431 0d9c 00E0     		b	.L155
 2432              	.L154:
 2433              		.loc 1 885 0
 2434 0d9e 0123     		movs	r3, #1
 2435              	.L155:
 2436              		.loc 1 886 0
 2437 0da0 1846     		mov	r0, r3
 2438 0da2 05B0     		add	sp, sp, #20
 2439              		@ sp needed
 2440 0da4 5DF804FB 		ldr	pc, [sp], #4
 2441              		.cfi_endproc
 2442              	.LFE305:
 2443              		.size	LSM303AGR_ACC_W_hpf_click_en, .-LSM303AGR_ACC_W_hpf_click_en
 2444              		.align	2
 2445 0da8 AFF30080 		.p2align 4,,15
 2445      AFF30080 
 2446              		.global	LSM303AGR_ACC_R_hpf_click_en
 2447              		.thumb
 2448              		.thumb_func
 2449              		.type	LSM303AGR_ACC_R_hpf_click_en, %function
 2450              	LSM303AGR_ACC_R_hpf_click_en:
 2451              	.LFB306:
 2452              		.loc 1 896 0
 2453              		.cfi_startproc
 2454              		@ args = 0, pretend = 0, frame = 8
 2455              		@ frame_needed = 0, uses_anonymous_args = 0
 2456 0db0 00B5     		push	{lr}
 2457              		.cfi_def_cfa_offset 4
 2458              		.cfi_offset 14, -4
 2459 0db2 83B0     		sub	sp, sp, #12
 2460              		.cfi_def_cfa_offset 16
 2461 0db4 0190     		str	r0, [sp, #4]
 2462 0db6 0091     		str	r1, [sp]
 2463              		.loc 1 897 0
 2464 0db8 0198     		ldr	r0, [sp, #4]
 2465 0dba 2121     		movs	r1, #33
 2466 0dbc 009A     		ldr	r2, [sp]
 2467 0dbe 0123     		movs	r3, #1
 2468 0dc0 FFF7FEFF 		bl	LSM303AGR_ACC_ReadReg
 2469 0dc4 0346     		mov	r3, r0
 2470 0dc6 002B     		cmp	r3, #0
 2471 0dc8 01D1     		bne	.L157
 2472              		.loc 1 898 0
 2473 0dca 0023     		movs	r3, #0
 2474 0dcc 07E0     		b	.L158
ARM GAS  /tmp/ccRrg1qB.s 			page 45


 2475              	.L157:
 2476              		.loc 1 900 0
 2477 0dce 009B     		ldr	r3, [sp]
 2478 0dd0 1B78     		ldrb	r3, [r3]	@ zero_extendqisi2
 2479 0dd2 03F00403 		and	r3, r3, #4
 2480 0dd6 DAB2     		uxtb	r2, r3
 2481 0dd8 009B     		ldr	r3, [sp]
 2482 0dda 1A70     		strb	r2, [r3]
 2483              		.loc 1 902 0
 2484 0ddc 0123     		movs	r3, #1
 2485              	.L158:
 2486              		.loc 1 903 0
 2487 0dde 1846     		mov	r0, r3
 2488 0de0 03B0     		add	sp, sp, #12
 2489              		@ sp needed
 2490 0de2 5DF804FB 		ldr	pc, [sp], #4
 2491              		.cfi_endproc
 2492              	.LFE306:
 2493              		.size	LSM303AGR_ACC_R_hpf_click_en, .-LSM303AGR_ACC_R_hpf_click_en
 2494 0de6 00BF     		.align	2
 2495 0de8 AFF30080 		.p2align 4,,15
 2495      AFF30080 
 2496              		.global	LSM303AGR_ACC_W_Data_Filter
 2497              		.thumb
 2498              		.thumb_func
 2499              		.type	LSM303AGR_ACC_W_Data_Filter, %function
 2500              	LSM303AGR_ACC_W_Data_Filter:
 2501              	.LFB307:
 2502              		.loc 1 913 0
 2503              		.cfi_startproc
 2504              		@ args = 0, pretend = 0, frame = 16
 2505              		@ frame_needed = 0, uses_anonymous_args = 0
 2506 0df0 00B5     		push	{lr}
 2507              		.cfi_def_cfa_offset 4
 2508              		.cfi_offset 14, -4
 2509 0df2 85B0     		sub	sp, sp, #20
 2510              		.cfi_def_cfa_offset 24
 2511 0df4 0190     		str	r0, [sp, #4]
 2512 0df6 0B46     		mov	r3, r1
 2513 0df8 8DF80330 		strb	r3, [sp, #3]
 2514              		.loc 1 916 0
 2515 0dfc 0DF10F03 		add	r3, sp, #15
 2516 0e00 0198     		ldr	r0, [sp, #4]
 2517 0e02 2121     		movs	r1, #33
 2518 0e04 1A46     		mov	r2, r3
 2519 0e06 0123     		movs	r3, #1
 2520 0e08 FFF7FEFF 		bl	LSM303AGR_ACC_ReadReg
 2521 0e0c 0346     		mov	r3, r0
 2522 0e0e 002B     		cmp	r3, #0
 2523 0e10 01D1     		bne	.L160
 2524              		.loc 1 917 0
 2525 0e12 0023     		movs	r3, #0
 2526 0e14 1CE0     		b	.L163
 2527              	.L160:
 2528              		.loc 1 919 0
 2529 0e16 9DF80F30 		ldrb	r3, [sp, #15]	@ zero_extendqisi2
 2530 0e1a 23F00803 		bic	r3, r3, #8
ARM GAS  /tmp/ccRrg1qB.s 			page 46


 2531 0e1e DBB2     		uxtb	r3, r3
 2532 0e20 8DF80F30 		strb	r3, [sp, #15]
 2533              		.loc 1 920 0
 2534 0e24 9DF80F20 		ldrb	r2, [sp, #15]	@ zero_extendqisi2
 2535 0e28 9DF80330 		ldrb	r3, [sp, #3]
 2536 0e2c 1343     		orrs	r3, r3, r2
 2537 0e2e DBB2     		uxtb	r3, r3
 2538 0e30 8DF80F30 		strb	r3, [sp, #15]
 2539              		.loc 1 922 0
 2540 0e34 0DF10F03 		add	r3, sp, #15
 2541 0e38 0198     		ldr	r0, [sp, #4]
 2542 0e3a 2121     		movs	r1, #33
 2543 0e3c 1A46     		mov	r2, r3
 2544 0e3e 0123     		movs	r3, #1
 2545 0e40 FFF7FEFF 		bl	LSM303AGR_ACC_WriteReg
 2546 0e44 0346     		mov	r3, r0
 2547 0e46 002B     		cmp	r3, #0
 2548 0e48 01D1     		bne	.L162
 2549              		.loc 1 923 0
 2550 0e4a 0023     		movs	r3, #0
 2551 0e4c 00E0     		b	.L163
 2552              	.L162:
 2553              		.loc 1 925 0
 2554 0e4e 0123     		movs	r3, #1
 2555              	.L163:
 2556              		.loc 1 926 0
 2557 0e50 1846     		mov	r0, r3
 2558 0e52 05B0     		add	sp, sp, #20
 2559              		@ sp needed
 2560 0e54 5DF804FB 		ldr	pc, [sp], #4
 2561              		.cfi_endproc
 2562              	.LFE307:
 2563              		.size	LSM303AGR_ACC_W_Data_Filter, .-LSM303AGR_ACC_W_Data_Filter
 2564              		.align	2
 2565 0e58 AFF30080 		.p2align 4,,15
 2565      AFF30080 
 2566              		.global	LSM303AGR_ACC_R_Data_Filter
 2567              		.thumb
 2568              		.thumb_func
 2569              		.type	LSM303AGR_ACC_R_Data_Filter, %function
 2570              	LSM303AGR_ACC_R_Data_Filter:
 2571              	.LFB308:
 2572              		.loc 1 936 0
 2573              		.cfi_startproc
 2574              		@ args = 0, pretend = 0, frame = 8
 2575              		@ frame_needed = 0, uses_anonymous_args = 0
 2576 0e60 00B5     		push	{lr}
 2577              		.cfi_def_cfa_offset 4
 2578              		.cfi_offset 14, -4
 2579 0e62 83B0     		sub	sp, sp, #12
 2580              		.cfi_def_cfa_offset 16
 2581 0e64 0190     		str	r0, [sp, #4]
 2582 0e66 0091     		str	r1, [sp]
 2583              		.loc 1 937 0
 2584 0e68 0198     		ldr	r0, [sp, #4]
 2585 0e6a 2121     		movs	r1, #33
 2586 0e6c 009A     		ldr	r2, [sp]
ARM GAS  /tmp/ccRrg1qB.s 			page 47


 2587 0e6e 0123     		movs	r3, #1
 2588 0e70 FFF7FEFF 		bl	LSM303AGR_ACC_ReadReg
 2589 0e74 0346     		mov	r3, r0
 2590 0e76 002B     		cmp	r3, #0
 2591 0e78 01D1     		bne	.L165
 2592              		.loc 1 938 0
 2593 0e7a 0023     		movs	r3, #0
 2594 0e7c 07E0     		b	.L166
 2595              	.L165:
 2596              		.loc 1 940 0
 2597 0e7e 009B     		ldr	r3, [sp]
 2598 0e80 1B78     		ldrb	r3, [r3]	@ zero_extendqisi2
 2599 0e82 03F00803 		and	r3, r3, #8
 2600 0e86 DAB2     		uxtb	r2, r3
 2601 0e88 009B     		ldr	r3, [sp]
 2602 0e8a 1A70     		strb	r2, [r3]
 2603              		.loc 1 942 0
 2604 0e8c 0123     		movs	r3, #1
 2605              	.L166:
 2606              		.loc 1 943 0
 2607 0e8e 1846     		mov	r0, r3
 2608 0e90 03B0     		add	sp, sp, #12
 2609              		@ sp needed
 2610 0e92 5DF804FB 		ldr	pc, [sp], #4
 2611              		.cfi_endproc
 2612              	.LFE308:
 2613              		.size	LSM303AGR_ACC_R_Data_Filter, .-LSM303AGR_ACC_R_Data_Filter
 2614 0e96 00BF     		.align	2
 2615 0e98 AFF30080 		.p2align 4,,15
 2615      AFF30080 
 2616              		.global	LSM303AGR_ACC_W_hpf_cutoff_freq
 2617              		.thumb
 2618              		.thumb_func
 2619              		.type	LSM303AGR_ACC_W_hpf_cutoff_freq, %function
 2620              	LSM303AGR_ACC_W_hpf_cutoff_freq:
 2621              	.LFB309:
 2622              		.loc 1 953 0
 2623              		.cfi_startproc
 2624              		@ args = 0, pretend = 0, frame = 16
 2625              		@ frame_needed = 0, uses_anonymous_args = 0
 2626 0ea0 00B5     		push	{lr}
 2627              		.cfi_def_cfa_offset 4
 2628              		.cfi_offset 14, -4
 2629 0ea2 85B0     		sub	sp, sp, #20
 2630              		.cfi_def_cfa_offset 24
 2631 0ea4 0190     		str	r0, [sp, #4]
 2632 0ea6 0B46     		mov	r3, r1
 2633 0ea8 8DF80330 		strb	r3, [sp, #3]
 2634              		.loc 1 956 0
 2635 0eac 0DF10F03 		add	r3, sp, #15
 2636 0eb0 0198     		ldr	r0, [sp, #4]
 2637 0eb2 2121     		movs	r1, #33
 2638 0eb4 1A46     		mov	r2, r3
 2639 0eb6 0123     		movs	r3, #1
 2640 0eb8 FFF7FEFF 		bl	LSM303AGR_ACC_ReadReg
 2641 0ebc 0346     		mov	r3, r0
 2642 0ebe 002B     		cmp	r3, #0
ARM GAS  /tmp/ccRrg1qB.s 			page 48


 2643 0ec0 01D1     		bne	.L168
 2644              		.loc 1 957 0
 2645 0ec2 0023     		movs	r3, #0
 2646 0ec4 1CE0     		b	.L171
 2647              	.L168:
 2648              		.loc 1 959 0
 2649 0ec6 9DF80F30 		ldrb	r3, [sp, #15]	@ zero_extendqisi2
 2650 0eca 23F03003 		bic	r3, r3, #48
 2651 0ece DBB2     		uxtb	r3, r3
 2652 0ed0 8DF80F30 		strb	r3, [sp, #15]
 2653              		.loc 1 960 0
 2654 0ed4 9DF80F20 		ldrb	r2, [sp, #15]	@ zero_extendqisi2
 2655 0ed8 9DF80330 		ldrb	r3, [sp, #3]
 2656 0edc 1343     		orrs	r3, r3, r2
 2657 0ede DBB2     		uxtb	r3, r3
 2658 0ee0 8DF80F30 		strb	r3, [sp, #15]
 2659              		.loc 1 962 0
 2660 0ee4 0DF10F03 		add	r3, sp, #15
 2661 0ee8 0198     		ldr	r0, [sp, #4]
 2662 0eea 2121     		movs	r1, #33
 2663 0eec 1A46     		mov	r2, r3
 2664 0eee 0123     		movs	r3, #1
 2665 0ef0 FFF7FEFF 		bl	LSM303AGR_ACC_WriteReg
 2666 0ef4 0346     		mov	r3, r0
 2667 0ef6 002B     		cmp	r3, #0
 2668 0ef8 01D1     		bne	.L170
 2669              		.loc 1 963 0
 2670 0efa 0023     		movs	r3, #0
 2671 0efc 00E0     		b	.L171
 2672              	.L170:
 2673              		.loc 1 965 0
 2674 0efe 0123     		movs	r3, #1
 2675              	.L171:
 2676              		.loc 1 966 0
 2677 0f00 1846     		mov	r0, r3
 2678 0f02 05B0     		add	sp, sp, #20
 2679              		@ sp needed
 2680 0f04 5DF804FB 		ldr	pc, [sp], #4
 2681              		.cfi_endproc
 2682              	.LFE309:
 2683              		.size	LSM303AGR_ACC_W_hpf_cutoff_freq, .-LSM303AGR_ACC_W_hpf_cutoff_freq
 2684              		.align	2
 2685 0f08 AFF30080 		.p2align 4,,15
 2685      AFF30080 
 2686              		.global	LSM303AGR_ACC_R_hpf_cutoff_freq
 2687              		.thumb
 2688              		.thumb_func
 2689              		.type	LSM303AGR_ACC_R_hpf_cutoff_freq, %function
 2690              	LSM303AGR_ACC_R_hpf_cutoff_freq:
 2691              	.LFB310:
 2692              		.loc 1 976 0
 2693              		.cfi_startproc
 2694              		@ args = 0, pretend = 0, frame = 8
 2695              		@ frame_needed = 0, uses_anonymous_args = 0
 2696 0f10 00B5     		push	{lr}
 2697              		.cfi_def_cfa_offset 4
 2698              		.cfi_offset 14, -4
ARM GAS  /tmp/ccRrg1qB.s 			page 49


 2699 0f12 83B0     		sub	sp, sp, #12
 2700              		.cfi_def_cfa_offset 16
 2701 0f14 0190     		str	r0, [sp, #4]
 2702 0f16 0091     		str	r1, [sp]
 2703              		.loc 1 977 0
 2704 0f18 0198     		ldr	r0, [sp, #4]
 2705 0f1a 2121     		movs	r1, #33
 2706 0f1c 009A     		ldr	r2, [sp]
 2707 0f1e 0123     		movs	r3, #1
 2708 0f20 FFF7FEFF 		bl	LSM303AGR_ACC_ReadReg
 2709 0f24 0346     		mov	r3, r0
 2710 0f26 002B     		cmp	r3, #0
 2711 0f28 01D1     		bne	.L173
 2712              		.loc 1 978 0
 2713 0f2a 0023     		movs	r3, #0
 2714 0f2c 07E0     		b	.L174
 2715              	.L173:
 2716              		.loc 1 980 0
 2717 0f2e 009B     		ldr	r3, [sp]
 2718 0f30 1B78     		ldrb	r3, [r3]	@ zero_extendqisi2
 2719 0f32 03F03003 		and	r3, r3, #48
 2720 0f36 DAB2     		uxtb	r2, r3
 2721 0f38 009B     		ldr	r3, [sp]
 2722 0f3a 1A70     		strb	r2, [r3]
 2723              		.loc 1 982 0
 2724 0f3c 0123     		movs	r3, #1
 2725              	.L174:
 2726              		.loc 1 983 0
 2727 0f3e 1846     		mov	r0, r3
 2728 0f40 03B0     		add	sp, sp, #12
 2729              		@ sp needed
 2730 0f42 5DF804FB 		ldr	pc, [sp], #4
 2731              		.cfi_endproc
 2732              	.LFE310:
 2733              		.size	LSM303AGR_ACC_R_hpf_cutoff_freq, .-LSM303AGR_ACC_R_hpf_cutoff_freq
 2734 0f46 00BF     		.align	2
 2735 0f48 AFF30080 		.p2align 4,,15
 2735      AFF30080 
 2736              		.global	LSM303AGR_ACC_W_hpf_mode
 2737              		.thumb
 2738              		.thumb_func
 2739              		.type	LSM303AGR_ACC_W_hpf_mode, %function
 2740              	LSM303AGR_ACC_W_hpf_mode:
 2741              	.LFB311:
 2742              		.loc 1 993 0
 2743              		.cfi_startproc
 2744              		@ args = 0, pretend = 0, frame = 16
 2745              		@ frame_needed = 0, uses_anonymous_args = 0
 2746 0f50 00B5     		push	{lr}
 2747              		.cfi_def_cfa_offset 4
 2748              		.cfi_offset 14, -4
 2749 0f52 85B0     		sub	sp, sp, #20
 2750              		.cfi_def_cfa_offset 24
 2751 0f54 0190     		str	r0, [sp, #4]
 2752 0f56 0B46     		mov	r3, r1
 2753 0f58 8DF80330 		strb	r3, [sp, #3]
 2754              		.loc 1 996 0
ARM GAS  /tmp/ccRrg1qB.s 			page 50


 2755 0f5c 0DF10F03 		add	r3, sp, #15
 2756 0f60 0198     		ldr	r0, [sp, #4]
 2757 0f62 2121     		movs	r1, #33
 2758 0f64 1A46     		mov	r2, r3
 2759 0f66 0123     		movs	r3, #1
 2760 0f68 FFF7FEFF 		bl	LSM303AGR_ACC_ReadReg
 2761 0f6c 0346     		mov	r3, r0
 2762 0f6e 002B     		cmp	r3, #0
 2763 0f70 01D1     		bne	.L176
 2764              		.loc 1 997 0
 2765 0f72 0023     		movs	r3, #0
 2766 0f74 1CE0     		b	.L179
 2767              	.L176:
 2768              		.loc 1 999 0
 2769 0f76 9DF80F30 		ldrb	r3, [sp, #15]	@ zero_extendqisi2
 2770 0f7a 03F03F03 		and	r3, r3, #63
 2771 0f7e DBB2     		uxtb	r3, r3
 2772 0f80 8DF80F30 		strb	r3, [sp, #15]
 2773              		.loc 1 1000 0
 2774 0f84 9DF80F20 		ldrb	r2, [sp, #15]	@ zero_extendqisi2
 2775 0f88 9DF80330 		ldrb	r3, [sp, #3]
 2776 0f8c 1343     		orrs	r3, r3, r2
 2777 0f8e DBB2     		uxtb	r3, r3
 2778 0f90 8DF80F30 		strb	r3, [sp, #15]
 2779              		.loc 1 1002 0
 2780 0f94 0DF10F03 		add	r3, sp, #15
 2781 0f98 0198     		ldr	r0, [sp, #4]
 2782 0f9a 2121     		movs	r1, #33
 2783 0f9c 1A46     		mov	r2, r3
 2784 0f9e 0123     		movs	r3, #1
 2785 0fa0 FFF7FEFF 		bl	LSM303AGR_ACC_WriteReg
 2786 0fa4 0346     		mov	r3, r0
 2787 0fa6 002B     		cmp	r3, #0
 2788 0fa8 01D1     		bne	.L178
 2789              		.loc 1 1003 0
 2790 0faa 0023     		movs	r3, #0
 2791 0fac 00E0     		b	.L179
 2792              	.L178:
 2793              		.loc 1 1005 0
 2794 0fae 0123     		movs	r3, #1
 2795              	.L179:
 2796              		.loc 1 1006 0
 2797 0fb0 1846     		mov	r0, r3
 2798 0fb2 05B0     		add	sp, sp, #20
 2799              		@ sp needed
 2800 0fb4 5DF804FB 		ldr	pc, [sp], #4
 2801              		.cfi_endproc
 2802              	.LFE311:
 2803              		.size	LSM303AGR_ACC_W_hpf_mode, .-LSM303AGR_ACC_W_hpf_mode
 2804              		.align	2
 2805 0fb8 AFF30080 		.p2align 4,,15
 2805      AFF30080 
 2806              		.global	LSM303AGR_ACC_R_hpf_mode
 2807              		.thumb
 2808              		.thumb_func
 2809              		.type	LSM303AGR_ACC_R_hpf_mode, %function
 2810              	LSM303AGR_ACC_R_hpf_mode:
ARM GAS  /tmp/ccRrg1qB.s 			page 51


 2811              	.LFB312:
 2812              		.loc 1 1016 0
 2813              		.cfi_startproc
 2814              		@ args = 0, pretend = 0, frame = 8
 2815              		@ frame_needed = 0, uses_anonymous_args = 0
 2816 0fc0 00B5     		push	{lr}
 2817              		.cfi_def_cfa_offset 4
 2818              		.cfi_offset 14, -4
 2819 0fc2 83B0     		sub	sp, sp, #12
 2820              		.cfi_def_cfa_offset 16
 2821 0fc4 0190     		str	r0, [sp, #4]
 2822 0fc6 0091     		str	r1, [sp]
 2823              		.loc 1 1017 0
 2824 0fc8 0198     		ldr	r0, [sp, #4]
 2825 0fca 2121     		movs	r1, #33
 2826 0fcc 009A     		ldr	r2, [sp]
 2827 0fce 0123     		movs	r3, #1
 2828 0fd0 FFF7FEFF 		bl	LSM303AGR_ACC_ReadReg
 2829 0fd4 0346     		mov	r3, r0
 2830 0fd6 002B     		cmp	r3, #0
 2831 0fd8 01D1     		bne	.L181
 2832              		.loc 1 1018 0
 2833 0fda 0023     		movs	r3, #0
 2834 0fdc 07E0     		b	.L182
 2835              	.L181:
 2836              		.loc 1 1020 0
 2837 0fde 009B     		ldr	r3, [sp]
 2838 0fe0 1B78     		ldrb	r3, [r3]	@ zero_extendqisi2
 2839 0fe2 23F03F03 		bic	r3, r3, #63
 2840 0fe6 DAB2     		uxtb	r2, r3
 2841 0fe8 009B     		ldr	r3, [sp]
 2842 0fea 1A70     		strb	r2, [r3]
 2843              		.loc 1 1022 0
 2844 0fec 0123     		movs	r3, #1
 2845              	.L182:
 2846              		.loc 1 1023 0
 2847 0fee 1846     		mov	r0, r3
 2848 0ff0 03B0     		add	sp, sp, #12
 2849              		@ sp needed
 2850 0ff2 5DF804FB 		ldr	pc, [sp], #4
 2851              		.cfi_endproc
 2852              	.LFE312:
 2853              		.size	LSM303AGR_ACC_R_hpf_mode, .-LSM303AGR_ACC_R_hpf_mode
 2854 0ff6 00BF     		.align	2
 2855 0ff8 AFF30080 		.p2align 4,,15
 2855      AFF30080 
 2856              		.global	LSM303AGR_ACC_W_FIFO_Overrun_on_INT1
 2857              		.thumb
 2858              		.thumb_func
 2859              		.type	LSM303AGR_ACC_W_FIFO_Overrun_on_INT1, %function
 2860              	LSM303AGR_ACC_W_FIFO_Overrun_on_INT1:
 2861              	.LFB313:
 2862              		.loc 1 1033 0
 2863              		.cfi_startproc
 2864              		@ args = 0, pretend = 0, frame = 16
 2865              		@ frame_needed = 0, uses_anonymous_args = 0
 2866 1000 00B5     		push	{lr}
ARM GAS  /tmp/ccRrg1qB.s 			page 52


 2867              		.cfi_def_cfa_offset 4
 2868              		.cfi_offset 14, -4
 2869 1002 85B0     		sub	sp, sp, #20
 2870              		.cfi_def_cfa_offset 24
 2871 1004 0190     		str	r0, [sp, #4]
 2872 1006 0B46     		mov	r3, r1
 2873 1008 8DF80330 		strb	r3, [sp, #3]
 2874              		.loc 1 1036 0
 2875 100c 0DF10F03 		add	r3, sp, #15
 2876 1010 0198     		ldr	r0, [sp, #4]
 2877 1012 2221     		movs	r1, #34
 2878 1014 1A46     		mov	r2, r3
 2879 1016 0123     		movs	r3, #1
 2880 1018 FFF7FEFF 		bl	LSM303AGR_ACC_ReadReg
 2881 101c 0346     		mov	r3, r0
 2882 101e 002B     		cmp	r3, #0
 2883 1020 01D1     		bne	.L184
 2884              		.loc 1 1037 0
 2885 1022 0023     		movs	r3, #0
 2886 1024 1CE0     		b	.L187
 2887              	.L184:
 2888              		.loc 1 1039 0
 2889 1026 9DF80F30 		ldrb	r3, [sp, #15]	@ zero_extendqisi2
 2890 102a 23F00203 		bic	r3, r3, #2
 2891 102e DBB2     		uxtb	r3, r3
 2892 1030 8DF80F30 		strb	r3, [sp, #15]
 2893              		.loc 1 1040 0
 2894 1034 9DF80F20 		ldrb	r2, [sp, #15]	@ zero_extendqisi2
 2895 1038 9DF80330 		ldrb	r3, [sp, #3]
 2896 103c 1343     		orrs	r3, r3, r2
 2897 103e DBB2     		uxtb	r3, r3
 2898 1040 8DF80F30 		strb	r3, [sp, #15]
 2899              		.loc 1 1042 0
 2900 1044 0DF10F03 		add	r3, sp, #15
 2901 1048 0198     		ldr	r0, [sp, #4]
 2902 104a 2221     		movs	r1, #34
 2903 104c 1A46     		mov	r2, r3
 2904 104e 0123     		movs	r3, #1
 2905 1050 FFF7FEFF 		bl	LSM303AGR_ACC_WriteReg
 2906 1054 0346     		mov	r3, r0
 2907 1056 002B     		cmp	r3, #0
 2908 1058 01D1     		bne	.L186
 2909              		.loc 1 1043 0
 2910 105a 0023     		movs	r3, #0
 2911 105c 00E0     		b	.L187
 2912              	.L186:
 2913              		.loc 1 1045 0
 2914 105e 0123     		movs	r3, #1
 2915              	.L187:
 2916              		.loc 1 1046 0
 2917 1060 1846     		mov	r0, r3
 2918 1062 05B0     		add	sp, sp, #20
 2919              		@ sp needed
 2920 1064 5DF804FB 		ldr	pc, [sp], #4
 2921              		.cfi_endproc
 2922              	.LFE313:
 2923              		.size	LSM303AGR_ACC_W_FIFO_Overrun_on_INT1, .-LSM303AGR_ACC_W_FIFO_Overrun_on_INT1
ARM GAS  /tmp/ccRrg1qB.s 			page 53


 2924              		.align	2
 2925 1068 AFF30080 		.p2align 4,,15
 2925      AFF30080 
 2926              		.global	LSM303AGR_ACC_R_FIFO_Overrun_on_INT1
 2927              		.thumb
 2928              		.thumb_func
 2929              		.type	LSM303AGR_ACC_R_FIFO_Overrun_on_INT1, %function
 2930              	LSM303AGR_ACC_R_FIFO_Overrun_on_INT1:
 2931              	.LFB314:
 2932              		.loc 1 1056 0
 2933              		.cfi_startproc
 2934              		@ args = 0, pretend = 0, frame = 8
 2935              		@ frame_needed = 0, uses_anonymous_args = 0
 2936 1070 00B5     		push	{lr}
 2937              		.cfi_def_cfa_offset 4
 2938              		.cfi_offset 14, -4
 2939 1072 83B0     		sub	sp, sp, #12
 2940              		.cfi_def_cfa_offset 16
 2941 1074 0190     		str	r0, [sp, #4]
 2942 1076 0091     		str	r1, [sp]
 2943              		.loc 1 1057 0
 2944 1078 0198     		ldr	r0, [sp, #4]
 2945 107a 2221     		movs	r1, #34
 2946 107c 009A     		ldr	r2, [sp]
 2947 107e 0123     		movs	r3, #1
 2948 1080 FFF7FEFF 		bl	LSM303AGR_ACC_ReadReg
 2949 1084 0346     		mov	r3, r0
 2950 1086 002B     		cmp	r3, #0
 2951 1088 01D1     		bne	.L189
 2952              		.loc 1 1058 0
 2953 108a 0023     		movs	r3, #0
 2954 108c 07E0     		b	.L190
 2955              	.L189:
 2956              		.loc 1 1060 0
 2957 108e 009B     		ldr	r3, [sp]
 2958 1090 1B78     		ldrb	r3, [r3]	@ zero_extendqisi2
 2959 1092 03F00203 		and	r3, r3, #2
 2960 1096 DAB2     		uxtb	r2, r3
 2961 1098 009B     		ldr	r3, [sp]
 2962 109a 1A70     		strb	r2, [r3]
 2963              		.loc 1 1062 0
 2964 109c 0123     		movs	r3, #1
 2965              	.L190:
 2966              		.loc 1 1063 0
 2967 109e 1846     		mov	r0, r3
 2968 10a0 03B0     		add	sp, sp, #12
 2969              		@ sp needed
 2970 10a2 5DF804FB 		ldr	pc, [sp], #4
 2971              		.cfi_endproc
 2972              	.LFE314:
 2973              		.size	LSM303AGR_ACC_R_FIFO_Overrun_on_INT1, .-LSM303AGR_ACC_R_FIFO_Overrun_on_INT1
 2974 10a6 00BF     		.align	2
 2975 10a8 AFF30080 		.p2align 4,,15
 2975      AFF30080 
 2976              		.global	LSM303AGR_ACC_W_FIFO_Watermark_on_INT1
 2977              		.thumb
 2978              		.thumb_func
ARM GAS  /tmp/ccRrg1qB.s 			page 54


 2979              		.type	LSM303AGR_ACC_W_FIFO_Watermark_on_INT1, %function
 2980              	LSM303AGR_ACC_W_FIFO_Watermark_on_INT1:
 2981              	.LFB315:
 2982              		.loc 1 1073 0
 2983              		.cfi_startproc
 2984              		@ args = 0, pretend = 0, frame = 16
 2985              		@ frame_needed = 0, uses_anonymous_args = 0
 2986 10b0 00B5     		push	{lr}
 2987              		.cfi_def_cfa_offset 4
 2988              		.cfi_offset 14, -4
 2989 10b2 85B0     		sub	sp, sp, #20
 2990              		.cfi_def_cfa_offset 24
 2991 10b4 0190     		str	r0, [sp, #4]
 2992 10b6 0B46     		mov	r3, r1
 2993 10b8 8DF80330 		strb	r3, [sp, #3]
 2994              		.loc 1 1076 0
 2995 10bc 0DF10F03 		add	r3, sp, #15
 2996 10c0 0198     		ldr	r0, [sp, #4]
 2997 10c2 2221     		movs	r1, #34
 2998 10c4 1A46     		mov	r2, r3
 2999 10c6 0123     		movs	r3, #1
 3000 10c8 FFF7FEFF 		bl	LSM303AGR_ACC_ReadReg
 3001 10cc 0346     		mov	r3, r0
 3002 10ce 002B     		cmp	r3, #0
 3003 10d0 01D1     		bne	.L192
 3004              		.loc 1 1077 0
 3005 10d2 0023     		movs	r3, #0
 3006 10d4 1CE0     		b	.L195
 3007              	.L192:
 3008              		.loc 1 1079 0
 3009 10d6 9DF80F30 		ldrb	r3, [sp, #15]	@ zero_extendqisi2
 3010 10da 23F00403 		bic	r3, r3, #4
 3011 10de DBB2     		uxtb	r3, r3
 3012 10e0 8DF80F30 		strb	r3, [sp, #15]
 3013              		.loc 1 1080 0
 3014 10e4 9DF80F20 		ldrb	r2, [sp, #15]	@ zero_extendqisi2
 3015 10e8 9DF80330 		ldrb	r3, [sp, #3]
 3016 10ec 1343     		orrs	r3, r3, r2
 3017 10ee DBB2     		uxtb	r3, r3
 3018 10f0 8DF80F30 		strb	r3, [sp, #15]
 3019              		.loc 1 1082 0
 3020 10f4 0DF10F03 		add	r3, sp, #15
 3021 10f8 0198     		ldr	r0, [sp, #4]
 3022 10fa 2221     		movs	r1, #34
 3023 10fc 1A46     		mov	r2, r3
 3024 10fe 0123     		movs	r3, #1
 3025 1100 FFF7FEFF 		bl	LSM303AGR_ACC_WriteReg
 3026 1104 0346     		mov	r3, r0
 3027 1106 002B     		cmp	r3, #0
 3028 1108 01D1     		bne	.L194
 3029              		.loc 1 1083 0
 3030 110a 0023     		movs	r3, #0
 3031 110c 00E0     		b	.L195
 3032              	.L194:
 3033              		.loc 1 1085 0
 3034 110e 0123     		movs	r3, #1
 3035              	.L195:
ARM GAS  /tmp/ccRrg1qB.s 			page 55


 3036              		.loc 1 1086 0
 3037 1110 1846     		mov	r0, r3
 3038 1112 05B0     		add	sp, sp, #20
 3039              		@ sp needed
 3040 1114 5DF804FB 		ldr	pc, [sp], #4
 3041              		.cfi_endproc
 3042              	.LFE315:
 3043              		.size	LSM303AGR_ACC_W_FIFO_Watermark_on_INT1, .-LSM303AGR_ACC_W_FIFO_Watermark_on_INT1
 3044              		.align	2
 3045 1118 AFF30080 		.p2align 4,,15
 3045      AFF30080 
 3046              		.global	LSM303AGR_ACC_R_FIFO_Watermark_on_INT1
 3047              		.thumb
 3048              		.thumb_func
 3049              		.type	LSM303AGR_ACC_R_FIFO_Watermark_on_INT1, %function
 3050              	LSM303AGR_ACC_R_FIFO_Watermark_on_INT1:
 3051              	.LFB316:
 3052              		.loc 1 1096 0
 3053              		.cfi_startproc
 3054              		@ args = 0, pretend = 0, frame = 8
 3055              		@ frame_needed = 0, uses_anonymous_args = 0
 3056 1120 00B5     		push	{lr}
 3057              		.cfi_def_cfa_offset 4
 3058              		.cfi_offset 14, -4
 3059 1122 83B0     		sub	sp, sp, #12
 3060              		.cfi_def_cfa_offset 16
 3061 1124 0190     		str	r0, [sp, #4]
 3062 1126 0091     		str	r1, [sp]
 3063              		.loc 1 1097 0
 3064 1128 0198     		ldr	r0, [sp, #4]
 3065 112a 2221     		movs	r1, #34
 3066 112c 009A     		ldr	r2, [sp]
 3067 112e 0123     		movs	r3, #1
 3068 1130 FFF7FEFF 		bl	LSM303AGR_ACC_ReadReg
 3069 1134 0346     		mov	r3, r0
 3070 1136 002B     		cmp	r3, #0
 3071 1138 01D1     		bne	.L197
 3072              		.loc 1 1098 0
 3073 113a 0023     		movs	r3, #0
 3074 113c 07E0     		b	.L198
 3075              	.L197:
 3076              		.loc 1 1100 0
 3077 113e 009B     		ldr	r3, [sp]
 3078 1140 1B78     		ldrb	r3, [r3]	@ zero_extendqisi2
 3079 1142 03F00403 		and	r3, r3, #4
 3080 1146 DAB2     		uxtb	r2, r3
 3081 1148 009B     		ldr	r3, [sp]
 3082 114a 1A70     		strb	r2, [r3]
 3083              		.loc 1 1102 0
 3084 114c 0123     		movs	r3, #1
 3085              	.L198:
 3086              		.loc 1 1103 0
 3087 114e 1846     		mov	r0, r3
 3088 1150 03B0     		add	sp, sp, #12
 3089              		@ sp needed
 3090 1152 5DF804FB 		ldr	pc, [sp], #4
 3091              		.cfi_endproc
ARM GAS  /tmp/ccRrg1qB.s 			page 56


 3092              	.LFE316:
 3093              		.size	LSM303AGR_ACC_R_FIFO_Watermark_on_INT1, .-LSM303AGR_ACC_R_FIFO_Watermark_on_INT1
 3094 1156 00BF     		.align	2
 3095 1158 AFF30080 		.p2align 4,,15
 3095      AFF30080 
 3096              		.global	LSM303AGR_ACC_W_FIFO_DRDY2_on_INT1
 3097              		.thumb
 3098              		.thumb_func
 3099              		.type	LSM303AGR_ACC_W_FIFO_DRDY2_on_INT1, %function
 3100              	LSM303AGR_ACC_W_FIFO_DRDY2_on_INT1:
 3101              	.LFB317:
 3102              		.loc 1 1113 0
 3103              		.cfi_startproc
 3104              		@ args = 0, pretend = 0, frame = 16
 3105              		@ frame_needed = 0, uses_anonymous_args = 0
 3106 1160 00B5     		push	{lr}
 3107              		.cfi_def_cfa_offset 4
 3108              		.cfi_offset 14, -4
 3109 1162 85B0     		sub	sp, sp, #20
 3110              		.cfi_def_cfa_offset 24
 3111 1164 0190     		str	r0, [sp, #4]
 3112 1166 0B46     		mov	r3, r1
 3113 1168 8DF80330 		strb	r3, [sp, #3]
 3114              		.loc 1 1116 0
 3115 116c 0DF10F03 		add	r3, sp, #15
 3116 1170 0198     		ldr	r0, [sp, #4]
 3117 1172 2221     		movs	r1, #34
 3118 1174 1A46     		mov	r2, r3
 3119 1176 0123     		movs	r3, #1
 3120 1178 FFF7FEFF 		bl	LSM303AGR_ACC_ReadReg
 3121 117c 0346     		mov	r3, r0
 3122 117e 002B     		cmp	r3, #0
 3123 1180 01D1     		bne	.L200
 3124              		.loc 1 1117 0
 3125 1182 0023     		movs	r3, #0
 3126 1184 1CE0     		b	.L203
 3127              	.L200:
 3128              		.loc 1 1119 0
 3129 1186 9DF80F30 		ldrb	r3, [sp, #15]	@ zero_extendqisi2
 3130 118a 23F00803 		bic	r3, r3, #8
 3131 118e DBB2     		uxtb	r3, r3
 3132 1190 8DF80F30 		strb	r3, [sp, #15]
 3133              		.loc 1 1120 0
 3134 1194 9DF80F20 		ldrb	r2, [sp, #15]	@ zero_extendqisi2
 3135 1198 9DF80330 		ldrb	r3, [sp, #3]
 3136 119c 1343     		orrs	r3, r3, r2
 3137 119e DBB2     		uxtb	r3, r3
 3138 11a0 8DF80F30 		strb	r3, [sp, #15]
 3139              		.loc 1 1122 0
 3140 11a4 0DF10F03 		add	r3, sp, #15
 3141 11a8 0198     		ldr	r0, [sp, #4]
 3142 11aa 2221     		movs	r1, #34
 3143 11ac 1A46     		mov	r2, r3
 3144 11ae 0123     		movs	r3, #1
 3145 11b0 FFF7FEFF 		bl	LSM303AGR_ACC_WriteReg
 3146 11b4 0346     		mov	r3, r0
 3147 11b6 002B     		cmp	r3, #0
ARM GAS  /tmp/ccRrg1qB.s 			page 57


 3148 11b8 01D1     		bne	.L202
 3149              		.loc 1 1123 0
 3150 11ba 0023     		movs	r3, #0
 3151 11bc 00E0     		b	.L203
 3152              	.L202:
 3153              		.loc 1 1125 0
 3154 11be 0123     		movs	r3, #1
 3155              	.L203:
 3156              		.loc 1 1126 0
 3157 11c0 1846     		mov	r0, r3
 3158 11c2 05B0     		add	sp, sp, #20
 3159              		@ sp needed
 3160 11c4 5DF804FB 		ldr	pc, [sp], #4
 3161              		.cfi_endproc
 3162              	.LFE317:
 3163              		.size	LSM303AGR_ACC_W_FIFO_DRDY2_on_INT1, .-LSM303AGR_ACC_W_FIFO_DRDY2_on_INT1
 3164              		.align	2
 3165 11c8 AFF30080 		.p2align 4,,15
 3165      AFF30080 
 3166              		.global	LSM303AGR_ACC_R_FIFO_DRDY2_on_INT1
 3167              		.thumb
 3168              		.thumb_func
 3169              		.type	LSM303AGR_ACC_R_FIFO_DRDY2_on_INT1, %function
 3170              	LSM303AGR_ACC_R_FIFO_DRDY2_on_INT1:
 3171              	.LFB318:
 3172              		.loc 1 1136 0
 3173              		.cfi_startproc
 3174              		@ args = 0, pretend = 0, frame = 8
 3175              		@ frame_needed = 0, uses_anonymous_args = 0
 3176 11d0 00B5     		push	{lr}
 3177              		.cfi_def_cfa_offset 4
 3178              		.cfi_offset 14, -4
 3179 11d2 83B0     		sub	sp, sp, #12
 3180              		.cfi_def_cfa_offset 16
 3181 11d4 0190     		str	r0, [sp, #4]
 3182 11d6 0091     		str	r1, [sp]
 3183              		.loc 1 1137 0
 3184 11d8 0198     		ldr	r0, [sp, #4]
 3185 11da 2221     		movs	r1, #34
 3186 11dc 009A     		ldr	r2, [sp]
 3187 11de 0123     		movs	r3, #1
 3188 11e0 FFF7FEFF 		bl	LSM303AGR_ACC_ReadReg
 3189 11e4 0346     		mov	r3, r0
 3190 11e6 002B     		cmp	r3, #0
 3191 11e8 01D1     		bne	.L205
 3192              		.loc 1 1138 0
 3193 11ea 0023     		movs	r3, #0
 3194 11ec 07E0     		b	.L206
 3195              	.L205:
 3196              		.loc 1 1140 0
 3197 11ee 009B     		ldr	r3, [sp]
 3198 11f0 1B78     		ldrb	r3, [r3]	@ zero_extendqisi2
 3199 11f2 03F00803 		and	r3, r3, #8
 3200 11f6 DAB2     		uxtb	r2, r3
 3201 11f8 009B     		ldr	r3, [sp]
 3202 11fa 1A70     		strb	r2, [r3]
 3203              		.loc 1 1142 0
ARM GAS  /tmp/ccRrg1qB.s 			page 58


 3204 11fc 0123     		movs	r3, #1
 3205              	.L206:
 3206              		.loc 1 1143 0
 3207 11fe 1846     		mov	r0, r3
 3208 1200 03B0     		add	sp, sp, #12
 3209              		@ sp needed
 3210 1202 5DF804FB 		ldr	pc, [sp], #4
 3211              		.cfi_endproc
 3212              	.LFE318:
 3213              		.size	LSM303AGR_ACC_R_FIFO_DRDY2_on_INT1, .-LSM303AGR_ACC_R_FIFO_DRDY2_on_INT1
 3214 1206 00BF     		.align	2
 3215 1208 AFF30080 		.p2align 4,,15
 3215      AFF30080 
 3216              		.global	LSM303AGR_ACC_W_FIFO_DRDY1_on_INT1
 3217              		.thumb
 3218              		.thumb_func
 3219              		.type	LSM303AGR_ACC_W_FIFO_DRDY1_on_INT1, %function
 3220              	LSM303AGR_ACC_W_FIFO_DRDY1_on_INT1:
 3221              	.LFB319:
 3222              		.loc 1 1153 0
 3223              		.cfi_startproc
 3224              		@ args = 0, pretend = 0, frame = 16
 3225              		@ frame_needed = 0, uses_anonymous_args = 0
 3226 1210 00B5     		push	{lr}
 3227              		.cfi_def_cfa_offset 4
 3228              		.cfi_offset 14, -4
 3229 1212 85B0     		sub	sp, sp, #20
 3230              		.cfi_def_cfa_offset 24
 3231 1214 0190     		str	r0, [sp, #4]
 3232 1216 0B46     		mov	r3, r1
 3233 1218 8DF80330 		strb	r3, [sp, #3]
 3234              		.loc 1 1156 0
 3235 121c 0DF10F03 		add	r3, sp, #15
 3236 1220 0198     		ldr	r0, [sp, #4]
 3237 1222 2221     		movs	r1, #34
 3238 1224 1A46     		mov	r2, r3
 3239 1226 0123     		movs	r3, #1
 3240 1228 FFF7FEFF 		bl	LSM303AGR_ACC_ReadReg
 3241 122c 0346     		mov	r3, r0
 3242 122e 002B     		cmp	r3, #0
 3243 1230 01D1     		bne	.L208
 3244              		.loc 1 1157 0
 3245 1232 0023     		movs	r3, #0
 3246 1234 1CE0     		b	.L211
 3247              	.L208:
 3248              		.loc 1 1159 0
 3249 1236 9DF80F30 		ldrb	r3, [sp, #15]	@ zero_extendqisi2
 3250 123a 23F01003 		bic	r3, r3, #16
 3251 123e DBB2     		uxtb	r3, r3
 3252 1240 8DF80F30 		strb	r3, [sp, #15]
 3253              		.loc 1 1160 0
 3254 1244 9DF80F20 		ldrb	r2, [sp, #15]	@ zero_extendqisi2
 3255 1248 9DF80330 		ldrb	r3, [sp, #3]
 3256 124c 1343     		orrs	r3, r3, r2
 3257 124e DBB2     		uxtb	r3, r3
 3258 1250 8DF80F30 		strb	r3, [sp, #15]
 3259              		.loc 1 1162 0
ARM GAS  /tmp/ccRrg1qB.s 			page 59


 3260 1254 0DF10F03 		add	r3, sp, #15
 3261 1258 0198     		ldr	r0, [sp, #4]
 3262 125a 2221     		movs	r1, #34
 3263 125c 1A46     		mov	r2, r3
 3264 125e 0123     		movs	r3, #1
 3265 1260 FFF7FEFF 		bl	LSM303AGR_ACC_WriteReg
 3266 1264 0346     		mov	r3, r0
 3267 1266 002B     		cmp	r3, #0
 3268 1268 01D1     		bne	.L210
 3269              		.loc 1 1163 0
 3270 126a 0023     		movs	r3, #0
 3271 126c 00E0     		b	.L211
 3272              	.L210:
 3273              		.loc 1 1165 0
 3274 126e 0123     		movs	r3, #1
 3275              	.L211:
 3276              		.loc 1 1166 0
 3277 1270 1846     		mov	r0, r3
 3278 1272 05B0     		add	sp, sp, #20
 3279              		@ sp needed
 3280 1274 5DF804FB 		ldr	pc, [sp], #4
 3281              		.cfi_endproc
 3282              	.LFE319:
 3283              		.size	LSM303AGR_ACC_W_FIFO_DRDY1_on_INT1, .-LSM303AGR_ACC_W_FIFO_DRDY1_on_INT1
 3284              		.align	2
 3285 1278 AFF30080 		.p2align 4,,15
 3285      AFF30080 
 3286              		.global	LSM303AGR_ACC_R_FIFO_DRDY1_on_INT1
 3287              		.thumb
 3288              		.thumb_func
 3289              		.type	LSM303AGR_ACC_R_FIFO_DRDY1_on_INT1, %function
 3290              	LSM303AGR_ACC_R_FIFO_DRDY1_on_INT1:
 3291              	.LFB320:
 3292              		.loc 1 1176 0
 3293              		.cfi_startproc
 3294              		@ args = 0, pretend = 0, frame = 8
 3295              		@ frame_needed = 0, uses_anonymous_args = 0
 3296 1280 00B5     		push	{lr}
 3297              		.cfi_def_cfa_offset 4
 3298              		.cfi_offset 14, -4
 3299 1282 83B0     		sub	sp, sp, #12
 3300              		.cfi_def_cfa_offset 16
 3301 1284 0190     		str	r0, [sp, #4]
 3302 1286 0091     		str	r1, [sp]
 3303              		.loc 1 1177 0
 3304 1288 0198     		ldr	r0, [sp, #4]
 3305 128a 2221     		movs	r1, #34
 3306 128c 009A     		ldr	r2, [sp]
 3307 128e 0123     		movs	r3, #1
 3308 1290 FFF7FEFF 		bl	LSM303AGR_ACC_ReadReg
 3309 1294 0346     		mov	r3, r0
 3310 1296 002B     		cmp	r3, #0
 3311 1298 01D1     		bne	.L213
 3312              		.loc 1 1178 0
 3313 129a 0023     		movs	r3, #0
 3314 129c 07E0     		b	.L214
 3315              	.L213:
ARM GAS  /tmp/ccRrg1qB.s 			page 60


 3316              		.loc 1 1180 0
 3317 129e 009B     		ldr	r3, [sp]
 3318 12a0 1B78     		ldrb	r3, [r3]	@ zero_extendqisi2
 3319 12a2 03F01003 		and	r3, r3, #16
 3320 12a6 DAB2     		uxtb	r2, r3
 3321 12a8 009B     		ldr	r3, [sp]
 3322 12aa 1A70     		strb	r2, [r3]
 3323              		.loc 1 1182 0
 3324 12ac 0123     		movs	r3, #1
 3325              	.L214:
 3326              		.loc 1 1183 0
 3327 12ae 1846     		mov	r0, r3
 3328 12b0 03B0     		add	sp, sp, #12
 3329              		@ sp needed
 3330 12b2 5DF804FB 		ldr	pc, [sp], #4
 3331              		.cfi_endproc
 3332              	.LFE320:
 3333              		.size	LSM303AGR_ACC_R_FIFO_DRDY1_on_INT1, .-LSM303AGR_ACC_R_FIFO_DRDY1_on_INT1
 3334 12b6 00BF     		.align	2
 3335 12b8 AFF30080 		.p2align 4,,15
 3335      AFF30080 
 3336              		.global	LSM303AGR_ACC_W_FIFO_AOL2_on_INT1
 3337              		.thumb
 3338              		.thumb_func
 3339              		.type	LSM303AGR_ACC_W_FIFO_AOL2_on_INT1, %function
 3340              	LSM303AGR_ACC_W_FIFO_AOL2_on_INT1:
 3341              	.LFB321:
 3342              		.loc 1 1193 0
 3343              		.cfi_startproc
 3344              		@ args = 0, pretend = 0, frame = 16
 3345              		@ frame_needed = 0, uses_anonymous_args = 0
 3346 12c0 00B5     		push	{lr}
 3347              		.cfi_def_cfa_offset 4
 3348              		.cfi_offset 14, -4
 3349 12c2 85B0     		sub	sp, sp, #20
 3350              		.cfi_def_cfa_offset 24
 3351 12c4 0190     		str	r0, [sp, #4]
 3352 12c6 0B46     		mov	r3, r1
 3353 12c8 8DF80330 		strb	r3, [sp, #3]
 3354              		.loc 1 1196 0
 3355 12cc 0DF10F03 		add	r3, sp, #15
 3356 12d0 0198     		ldr	r0, [sp, #4]
 3357 12d2 2221     		movs	r1, #34
 3358 12d4 1A46     		mov	r2, r3
 3359 12d6 0123     		movs	r3, #1
 3360 12d8 FFF7FEFF 		bl	LSM303AGR_ACC_ReadReg
 3361 12dc 0346     		mov	r3, r0
 3362 12de 002B     		cmp	r3, #0
 3363 12e0 01D1     		bne	.L216
 3364              		.loc 1 1197 0
 3365 12e2 0023     		movs	r3, #0
 3366 12e4 1CE0     		b	.L219
 3367              	.L216:
 3368              		.loc 1 1199 0
 3369 12e6 9DF80F30 		ldrb	r3, [sp, #15]	@ zero_extendqisi2
 3370 12ea 23F02003 		bic	r3, r3, #32
 3371 12ee DBB2     		uxtb	r3, r3
ARM GAS  /tmp/ccRrg1qB.s 			page 61


 3372 12f0 8DF80F30 		strb	r3, [sp, #15]
 3373              		.loc 1 1200 0
 3374 12f4 9DF80F20 		ldrb	r2, [sp, #15]	@ zero_extendqisi2
 3375 12f8 9DF80330 		ldrb	r3, [sp, #3]
 3376 12fc 1343     		orrs	r3, r3, r2
 3377 12fe DBB2     		uxtb	r3, r3
 3378 1300 8DF80F30 		strb	r3, [sp, #15]
 3379              		.loc 1 1202 0
 3380 1304 0DF10F03 		add	r3, sp, #15
 3381 1308 0198     		ldr	r0, [sp, #4]
 3382 130a 2221     		movs	r1, #34
 3383 130c 1A46     		mov	r2, r3
 3384 130e 0123     		movs	r3, #1
 3385 1310 FFF7FEFF 		bl	LSM303AGR_ACC_WriteReg
 3386 1314 0346     		mov	r3, r0
 3387 1316 002B     		cmp	r3, #0
 3388 1318 01D1     		bne	.L218
 3389              		.loc 1 1203 0
 3390 131a 0023     		movs	r3, #0
 3391 131c 00E0     		b	.L219
 3392              	.L218:
 3393              		.loc 1 1205 0
 3394 131e 0123     		movs	r3, #1
 3395              	.L219:
 3396              		.loc 1 1206 0
 3397 1320 1846     		mov	r0, r3
 3398 1322 05B0     		add	sp, sp, #20
 3399              		@ sp needed
 3400 1324 5DF804FB 		ldr	pc, [sp], #4
 3401              		.cfi_endproc
 3402              	.LFE321:
 3403              		.size	LSM303AGR_ACC_W_FIFO_AOL2_on_INT1, .-LSM303AGR_ACC_W_FIFO_AOL2_on_INT1
 3404              		.align	2
 3405 1328 AFF30080 		.p2align 4,,15
 3405      AFF30080 
 3406              		.global	LSM303AGR_ACC_R_FIFO_AOL2_on_INT1
 3407              		.thumb
 3408              		.thumb_func
 3409              		.type	LSM303AGR_ACC_R_FIFO_AOL2_on_INT1, %function
 3410              	LSM303AGR_ACC_R_FIFO_AOL2_on_INT1:
 3411              	.LFB322:
 3412              		.loc 1 1216 0
 3413              		.cfi_startproc
 3414              		@ args = 0, pretend = 0, frame = 8
 3415              		@ frame_needed = 0, uses_anonymous_args = 0
 3416 1330 00B5     		push	{lr}
 3417              		.cfi_def_cfa_offset 4
 3418              		.cfi_offset 14, -4
 3419 1332 83B0     		sub	sp, sp, #12
 3420              		.cfi_def_cfa_offset 16
 3421 1334 0190     		str	r0, [sp, #4]
 3422 1336 0091     		str	r1, [sp]
 3423              		.loc 1 1217 0
 3424 1338 0198     		ldr	r0, [sp, #4]
 3425 133a 2221     		movs	r1, #34
 3426 133c 009A     		ldr	r2, [sp]
 3427 133e 0123     		movs	r3, #1
ARM GAS  /tmp/ccRrg1qB.s 			page 62


 3428 1340 FFF7FEFF 		bl	LSM303AGR_ACC_ReadReg
 3429 1344 0346     		mov	r3, r0
 3430 1346 002B     		cmp	r3, #0
 3431 1348 01D1     		bne	.L221
 3432              		.loc 1 1218 0
 3433 134a 0023     		movs	r3, #0
 3434 134c 07E0     		b	.L222
 3435              	.L221:
 3436              		.loc 1 1220 0
 3437 134e 009B     		ldr	r3, [sp]
 3438 1350 1B78     		ldrb	r3, [r3]	@ zero_extendqisi2
 3439 1352 03F02003 		and	r3, r3, #32
 3440 1356 DAB2     		uxtb	r2, r3
 3441 1358 009B     		ldr	r3, [sp]
 3442 135a 1A70     		strb	r2, [r3]
 3443              		.loc 1 1222 0
 3444 135c 0123     		movs	r3, #1
 3445              	.L222:
 3446              		.loc 1 1223 0
 3447 135e 1846     		mov	r0, r3
 3448 1360 03B0     		add	sp, sp, #12
 3449              		@ sp needed
 3450 1362 5DF804FB 		ldr	pc, [sp], #4
 3451              		.cfi_endproc
 3452              	.LFE322:
 3453              		.size	LSM303AGR_ACC_R_FIFO_AOL2_on_INT1, .-LSM303AGR_ACC_R_FIFO_AOL2_on_INT1
 3454 1366 00BF     		.align	2
 3455 1368 AFF30080 		.p2align 4,,15
 3455      AFF30080 
 3456              		.global	LSM303AGR_ACC_W_FIFO_AOL1_on_INT1
 3457              		.thumb
 3458              		.thumb_func
 3459              		.type	LSM303AGR_ACC_W_FIFO_AOL1_on_INT1, %function
 3460              	LSM303AGR_ACC_W_FIFO_AOL1_on_INT1:
 3461              	.LFB323:
 3462              		.loc 1 1233 0
 3463              		.cfi_startproc
 3464              		@ args = 0, pretend = 0, frame = 16
 3465              		@ frame_needed = 0, uses_anonymous_args = 0
 3466 1370 00B5     		push	{lr}
 3467              		.cfi_def_cfa_offset 4
 3468              		.cfi_offset 14, -4
 3469 1372 85B0     		sub	sp, sp, #20
 3470              		.cfi_def_cfa_offset 24
 3471 1374 0190     		str	r0, [sp, #4]
 3472 1376 0B46     		mov	r3, r1
 3473 1378 8DF80330 		strb	r3, [sp, #3]
 3474              		.loc 1 1236 0
 3475 137c 0DF10F03 		add	r3, sp, #15
 3476 1380 0198     		ldr	r0, [sp, #4]
 3477 1382 2221     		movs	r1, #34
 3478 1384 1A46     		mov	r2, r3
 3479 1386 0123     		movs	r3, #1
 3480 1388 FFF7FEFF 		bl	LSM303AGR_ACC_ReadReg
 3481 138c 0346     		mov	r3, r0
 3482 138e 002B     		cmp	r3, #0
 3483 1390 01D1     		bne	.L224
ARM GAS  /tmp/ccRrg1qB.s 			page 63


 3484              		.loc 1 1237 0
 3485 1392 0023     		movs	r3, #0
 3486 1394 1CE0     		b	.L227
 3487              	.L224:
 3488              		.loc 1 1239 0
 3489 1396 9DF80F30 		ldrb	r3, [sp, #15]	@ zero_extendqisi2
 3490 139a 23F04003 		bic	r3, r3, #64
 3491 139e DBB2     		uxtb	r3, r3
 3492 13a0 8DF80F30 		strb	r3, [sp, #15]
 3493              		.loc 1 1240 0
 3494 13a4 9DF80F20 		ldrb	r2, [sp, #15]	@ zero_extendqisi2
 3495 13a8 9DF80330 		ldrb	r3, [sp, #3]
 3496 13ac 1343     		orrs	r3, r3, r2
 3497 13ae DBB2     		uxtb	r3, r3
 3498 13b0 8DF80F30 		strb	r3, [sp, #15]
 3499              		.loc 1 1242 0
 3500 13b4 0DF10F03 		add	r3, sp, #15
 3501 13b8 0198     		ldr	r0, [sp, #4]
 3502 13ba 2221     		movs	r1, #34
 3503 13bc 1A46     		mov	r2, r3
 3504 13be 0123     		movs	r3, #1
 3505 13c0 FFF7FEFF 		bl	LSM303AGR_ACC_WriteReg
 3506 13c4 0346     		mov	r3, r0
 3507 13c6 002B     		cmp	r3, #0
 3508 13c8 01D1     		bne	.L226
 3509              		.loc 1 1243 0
 3510 13ca 0023     		movs	r3, #0
 3511 13cc 00E0     		b	.L227
 3512              	.L226:
 3513              		.loc 1 1245 0
 3514 13ce 0123     		movs	r3, #1
 3515              	.L227:
 3516              		.loc 1 1246 0
 3517 13d0 1846     		mov	r0, r3
 3518 13d2 05B0     		add	sp, sp, #20
 3519              		@ sp needed
 3520 13d4 5DF804FB 		ldr	pc, [sp], #4
 3521              		.cfi_endproc
 3522              	.LFE323:
 3523              		.size	LSM303AGR_ACC_W_FIFO_AOL1_on_INT1, .-LSM303AGR_ACC_W_FIFO_AOL1_on_INT1
 3524              		.align	2
 3525 13d8 AFF30080 		.p2align 4,,15
 3525      AFF30080 
 3526              		.global	LSM303AGR_ACC_R_FIFO_AOL1_on_INT1
 3527              		.thumb
 3528              		.thumb_func
 3529              		.type	LSM303AGR_ACC_R_FIFO_AOL1_on_INT1, %function
 3530              	LSM303AGR_ACC_R_FIFO_AOL1_on_INT1:
 3531              	.LFB324:
 3532              		.loc 1 1256 0
 3533              		.cfi_startproc
 3534              		@ args = 0, pretend = 0, frame = 8
 3535              		@ frame_needed = 0, uses_anonymous_args = 0
 3536 13e0 00B5     		push	{lr}
 3537              		.cfi_def_cfa_offset 4
 3538              		.cfi_offset 14, -4
 3539 13e2 83B0     		sub	sp, sp, #12
ARM GAS  /tmp/ccRrg1qB.s 			page 64


 3540              		.cfi_def_cfa_offset 16
 3541 13e4 0190     		str	r0, [sp, #4]
 3542 13e6 0091     		str	r1, [sp]
 3543              		.loc 1 1257 0
 3544 13e8 0198     		ldr	r0, [sp, #4]
 3545 13ea 2221     		movs	r1, #34
 3546 13ec 009A     		ldr	r2, [sp]
 3547 13ee 0123     		movs	r3, #1
 3548 13f0 FFF7FEFF 		bl	LSM303AGR_ACC_ReadReg
 3549 13f4 0346     		mov	r3, r0
 3550 13f6 002B     		cmp	r3, #0
 3551 13f8 01D1     		bne	.L229
 3552              		.loc 1 1258 0
 3553 13fa 0023     		movs	r3, #0
 3554 13fc 07E0     		b	.L230
 3555              	.L229:
 3556              		.loc 1 1260 0
 3557 13fe 009B     		ldr	r3, [sp]
 3558 1400 1B78     		ldrb	r3, [r3]	@ zero_extendqisi2
 3559 1402 03F04003 		and	r3, r3, #64
 3560 1406 DAB2     		uxtb	r2, r3
 3561 1408 009B     		ldr	r3, [sp]
 3562 140a 1A70     		strb	r2, [r3]
 3563              		.loc 1 1262 0
 3564 140c 0123     		movs	r3, #1
 3565              	.L230:
 3566              		.loc 1 1263 0
 3567 140e 1846     		mov	r0, r3
 3568 1410 03B0     		add	sp, sp, #12
 3569              		@ sp needed
 3570 1412 5DF804FB 		ldr	pc, [sp], #4
 3571              		.cfi_endproc
 3572              	.LFE324:
 3573              		.size	LSM303AGR_ACC_R_FIFO_AOL1_on_INT1, .-LSM303AGR_ACC_R_FIFO_AOL1_on_INT1
 3574 1416 00BF     		.align	2
 3575 1418 AFF30080 		.p2align 4,,15
 3575      AFF30080 
 3576              		.global	LSM303AGR_ACC_W_FIFO_Click_on_INT1
 3577              		.thumb
 3578              		.thumb_func
 3579              		.type	LSM303AGR_ACC_W_FIFO_Click_on_INT1, %function
 3580              	LSM303AGR_ACC_W_FIFO_Click_on_INT1:
 3581              	.LFB325:
 3582              		.loc 1 1273 0
 3583              		.cfi_startproc
 3584              		@ args = 0, pretend = 0, frame = 16
 3585              		@ frame_needed = 0, uses_anonymous_args = 0
 3586 1420 00B5     		push	{lr}
 3587              		.cfi_def_cfa_offset 4
 3588              		.cfi_offset 14, -4
 3589 1422 85B0     		sub	sp, sp, #20
 3590              		.cfi_def_cfa_offset 24
 3591 1424 0190     		str	r0, [sp, #4]
 3592 1426 0B46     		mov	r3, r1
 3593 1428 8DF80330 		strb	r3, [sp, #3]
 3594              		.loc 1 1276 0
 3595 142c 0DF10F03 		add	r3, sp, #15
ARM GAS  /tmp/ccRrg1qB.s 			page 65


 3596 1430 0198     		ldr	r0, [sp, #4]
 3597 1432 2221     		movs	r1, #34
 3598 1434 1A46     		mov	r2, r3
 3599 1436 0123     		movs	r3, #1
 3600 1438 FFF7FEFF 		bl	LSM303AGR_ACC_ReadReg
 3601 143c 0346     		mov	r3, r0
 3602 143e 002B     		cmp	r3, #0
 3603 1440 01D1     		bne	.L232
 3604              		.loc 1 1277 0
 3605 1442 0023     		movs	r3, #0
 3606 1444 1CE0     		b	.L235
 3607              	.L232:
 3608              		.loc 1 1279 0
 3609 1446 9DF80F30 		ldrb	r3, [sp, #15]	@ zero_extendqisi2
 3610 144a 03F07F03 		and	r3, r3, #127
 3611 144e DBB2     		uxtb	r3, r3
 3612 1450 8DF80F30 		strb	r3, [sp, #15]
 3613              		.loc 1 1280 0
 3614 1454 9DF80F20 		ldrb	r2, [sp, #15]	@ zero_extendqisi2
 3615 1458 9DF80330 		ldrb	r3, [sp, #3]
 3616 145c 1343     		orrs	r3, r3, r2
 3617 145e DBB2     		uxtb	r3, r3
 3618 1460 8DF80F30 		strb	r3, [sp, #15]
 3619              		.loc 1 1282 0
 3620 1464 0DF10F03 		add	r3, sp, #15
 3621 1468 0198     		ldr	r0, [sp, #4]
 3622 146a 2221     		movs	r1, #34
 3623 146c 1A46     		mov	r2, r3
 3624 146e 0123     		movs	r3, #1
 3625 1470 FFF7FEFF 		bl	LSM303AGR_ACC_WriteReg
 3626 1474 0346     		mov	r3, r0
 3627 1476 002B     		cmp	r3, #0
 3628 1478 01D1     		bne	.L234
 3629              		.loc 1 1283 0
 3630 147a 0023     		movs	r3, #0
 3631 147c 00E0     		b	.L235
 3632              	.L234:
 3633              		.loc 1 1285 0
 3634 147e 0123     		movs	r3, #1
 3635              	.L235:
 3636              		.loc 1 1286 0
 3637 1480 1846     		mov	r0, r3
 3638 1482 05B0     		add	sp, sp, #20
 3639              		@ sp needed
 3640 1484 5DF804FB 		ldr	pc, [sp], #4
 3641              		.cfi_endproc
 3642              	.LFE325:
 3643              		.size	LSM303AGR_ACC_W_FIFO_Click_on_INT1, .-LSM303AGR_ACC_W_FIFO_Click_on_INT1
 3644              		.align	2
 3645 1488 AFF30080 		.p2align 4,,15
 3645      AFF30080 
 3646              		.global	LSM303AGR_ACC_R_FIFO_Click_on_INT1
 3647              		.thumb
 3648              		.thumb_func
 3649              		.type	LSM303AGR_ACC_R_FIFO_Click_on_INT1, %function
 3650              	LSM303AGR_ACC_R_FIFO_Click_on_INT1:
 3651              	.LFB326:
ARM GAS  /tmp/ccRrg1qB.s 			page 66


 3652              		.loc 1 1296 0
 3653              		.cfi_startproc
 3654              		@ args = 0, pretend = 0, frame = 8
 3655              		@ frame_needed = 0, uses_anonymous_args = 0
 3656 1490 00B5     		push	{lr}
 3657              		.cfi_def_cfa_offset 4
 3658              		.cfi_offset 14, -4
 3659 1492 83B0     		sub	sp, sp, #12
 3660              		.cfi_def_cfa_offset 16
 3661 1494 0190     		str	r0, [sp, #4]
 3662 1496 0091     		str	r1, [sp]
 3663              		.loc 1 1297 0
 3664 1498 0198     		ldr	r0, [sp, #4]
 3665 149a 2221     		movs	r1, #34
 3666 149c 009A     		ldr	r2, [sp]
 3667 149e 0123     		movs	r3, #1
 3668 14a0 FFF7FEFF 		bl	LSM303AGR_ACC_ReadReg
 3669 14a4 0346     		mov	r3, r0
 3670 14a6 002B     		cmp	r3, #0
 3671 14a8 01D1     		bne	.L237
 3672              		.loc 1 1298 0
 3673 14aa 0023     		movs	r3, #0
 3674 14ac 07E0     		b	.L238
 3675              	.L237:
 3676              		.loc 1 1300 0
 3677 14ae 009B     		ldr	r3, [sp]
 3678 14b0 1B78     		ldrb	r3, [r3]	@ zero_extendqisi2
 3679 14b2 23F07F03 		bic	r3, r3, #127
 3680 14b6 DAB2     		uxtb	r2, r3
 3681 14b8 009B     		ldr	r3, [sp]
 3682 14ba 1A70     		strb	r2, [r3]
 3683              		.loc 1 1302 0
 3684 14bc 0123     		movs	r3, #1
 3685              	.L238:
 3686              		.loc 1 1303 0
 3687 14be 1846     		mov	r0, r3
 3688 14c0 03B0     		add	sp, sp, #12
 3689              		@ sp needed
 3690 14c2 5DF804FB 		ldr	pc, [sp], #4
 3691              		.cfi_endproc
 3692              	.LFE326:
 3693              		.size	LSM303AGR_ACC_R_FIFO_Click_on_INT1, .-LSM303AGR_ACC_R_FIFO_Click_on_INT1
 3694 14c6 00BF     		.align	2
 3695 14c8 AFF30080 		.p2align 4,,15
 3695      AFF30080 
 3696              		.global	LSM303AGR_ACC_W_SPI_mode
 3697              		.thumb
 3698              		.thumb_func
 3699              		.type	LSM303AGR_ACC_W_SPI_mode, %function
 3700              	LSM303AGR_ACC_W_SPI_mode:
 3701              	.LFB327:
 3702              		.loc 1 1313 0
 3703              		.cfi_startproc
 3704              		@ args = 0, pretend = 0, frame = 16
 3705              		@ frame_needed = 0, uses_anonymous_args = 0
 3706 14d0 00B5     		push	{lr}
 3707              		.cfi_def_cfa_offset 4
ARM GAS  /tmp/ccRrg1qB.s 			page 67


 3708              		.cfi_offset 14, -4
 3709 14d2 85B0     		sub	sp, sp, #20
 3710              		.cfi_def_cfa_offset 24
 3711 14d4 0190     		str	r0, [sp, #4]
 3712 14d6 0B46     		mov	r3, r1
 3713 14d8 8DF80330 		strb	r3, [sp, #3]
 3714              		.loc 1 1316 0
 3715 14dc 0DF10F03 		add	r3, sp, #15
 3716 14e0 0198     		ldr	r0, [sp, #4]
 3717 14e2 2321     		movs	r1, #35
 3718 14e4 1A46     		mov	r2, r3
 3719 14e6 0123     		movs	r3, #1
 3720 14e8 FFF7FEFF 		bl	LSM303AGR_ACC_ReadReg
 3721 14ec 0346     		mov	r3, r0
 3722 14ee 002B     		cmp	r3, #0
 3723 14f0 01D1     		bne	.L240
 3724              		.loc 1 1317 0
 3725 14f2 0023     		movs	r3, #0
 3726 14f4 1CE0     		b	.L243
 3727              	.L240:
 3728              		.loc 1 1319 0
 3729 14f6 9DF80F30 		ldrb	r3, [sp, #15]	@ zero_extendqisi2
 3730 14fa 23F00103 		bic	r3, r3, #1
 3731 14fe DBB2     		uxtb	r3, r3
 3732 1500 8DF80F30 		strb	r3, [sp, #15]
 3733              		.loc 1 1320 0
 3734 1504 9DF80F20 		ldrb	r2, [sp, #15]	@ zero_extendqisi2
 3735 1508 9DF80330 		ldrb	r3, [sp, #3]
 3736 150c 1343     		orrs	r3, r3, r2
 3737 150e DBB2     		uxtb	r3, r3
 3738 1510 8DF80F30 		strb	r3, [sp, #15]
 3739              		.loc 1 1322 0
 3740 1514 0DF10F03 		add	r3, sp, #15
 3741 1518 0198     		ldr	r0, [sp, #4]
 3742 151a 2321     		movs	r1, #35
 3743 151c 1A46     		mov	r2, r3
 3744 151e 0123     		movs	r3, #1
 3745 1520 FFF7FEFF 		bl	LSM303AGR_ACC_WriteReg
 3746 1524 0346     		mov	r3, r0
 3747 1526 002B     		cmp	r3, #0
 3748 1528 01D1     		bne	.L242
 3749              		.loc 1 1323 0
 3750 152a 0023     		movs	r3, #0
 3751 152c 00E0     		b	.L243
 3752              	.L242:
 3753              		.loc 1 1325 0
 3754 152e 0123     		movs	r3, #1
 3755              	.L243:
 3756              		.loc 1 1326 0
 3757 1530 1846     		mov	r0, r3
 3758 1532 05B0     		add	sp, sp, #20
 3759              		@ sp needed
 3760 1534 5DF804FB 		ldr	pc, [sp], #4
 3761              		.cfi_endproc
 3762              	.LFE327:
 3763              		.size	LSM303AGR_ACC_W_SPI_mode, .-LSM303AGR_ACC_W_SPI_mode
 3764              		.align	2
ARM GAS  /tmp/ccRrg1qB.s 			page 68


 3765 1538 AFF30080 		.p2align 4,,15
 3765      AFF30080 
 3766              		.global	LSM303AGR_ACC_R_SPI_mode
 3767              		.thumb
 3768              		.thumb_func
 3769              		.type	LSM303AGR_ACC_R_SPI_mode, %function
 3770              	LSM303AGR_ACC_R_SPI_mode:
 3771              	.LFB328:
 3772              		.loc 1 1336 0
 3773              		.cfi_startproc
 3774              		@ args = 0, pretend = 0, frame = 8
 3775              		@ frame_needed = 0, uses_anonymous_args = 0
 3776 1540 00B5     		push	{lr}
 3777              		.cfi_def_cfa_offset 4
 3778              		.cfi_offset 14, -4
 3779 1542 83B0     		sub	sp, sp, #12
 3780              		.cfi_def_cfa_offset 16
 3781 1544 0190     		str	r0, [sp, #4]
 3782 1546 0091     		str	r1, [sp]
 3783              		.loc 1 1337 0
 3784 1548 0198     		ldr	r0, [sp, #4]
 3785 154a 2321     		movs	r1, #35
 3786 154c 009A     		ldr	r2, [sp]
 3787 154e 0123     		movs	r3, #1
 3788 1550 FFF7FEFF 		bl	LSM303AGR_ACC_ReadReg
 3789 1554 0346     		mov	r3, r0
 3790 1556 002B     		cmp	r3, #0
 3791 1558 01D1     		bne	.L245
 3792              		.loc 1 1338 0
 3793 155a 0023     		movs	r3, #0
 3794 155c 07E0     		b	.L246
 3795              	.L245:
 3796              		.loc 1 1340 0
 3797 155e 009B     		ldr	r3, [sp]
 3798 1560 1B78     		ldrb	r3, [r3]	@ zero_extendqisi2
 3799 1562 03F00103 		and	r3, r3, #1
 3800 1566 DAB2     		uxtb	r2, r3
 3801 1568 009B     		ldr	r3, [sp]
 3802 156a 1A70     		strb	r2, [r3]
 3803              		.loc 1 1342 0
 3804 156c 0123     		movs	r3, #1
 3805              	.L246:
 3806              		.loc 1 1343 0
 3807 156e 1846     		mov	r0, r3
 3808 1570 03B0     		add	sp, sp, #12
 3809              		@ sp needed
 3810 1572 5DF804FB 		ldr	pc, [sp], #4
 3811              		.cfi_endproc
 3812              	.LFE328:
 3813              		.size	LSM303AGR_ACC_R_SPI_mode, .-LSM303AGR_ACC_R_SPI_mode
 3814 1576 00BF     		.align	2
 3815 1578 AFF30080 		.p2align 4,,15
 3815      AFF30080 
 3816              		.global	LSM303AGR_ACC_W_SelfTest
 3817              		.thumb
 3818              		.thumb_func
 3819              		.type	LSM303AGR_ACC_W_SelfTest, %function
ARM GAS  /tmp/ccRrg1qB.s 			page 69


 3820              	LSM303AGR_ACC_W_SelfTest:
 3821              	.LFB329:
 3822              		.loc 1 1353 0
 3823              		.cfi_startproc
 3824              		@ args = 0, pretend = 0, frame = 16
 3825              		@ frame_needed = 0, uses_anonymous_args = 0
 3826 1580 00B5     		push	{lr}
 3827              		.cfi_def_cfa_offset 4
 3828              		.cfi_offset 14, -4
 3829 1582 85B0     		sub	sp, sp, #20
 3830              		.cfi_def_cfa_offset 24
 3831 1584 0190     		str	r0, [sp, #4]
 3832 1586 0B46     		mov	r3, r1
 3833 1588 8DF80330 		strb	r3, [sp, #3]
 3834              		.loc 1 1356 0
 3835 158c 0DF10F03 		add	r3, sp, #15
 3836 1590 0198     		ldr	r0, [sp, #4]
 3837 1592 2321     		movs	r1, #35
 3838 1594 1A46     		mov	r2, r3
 3839 1596 0123     		movs	r3, #1
 3840 1598 FFF7FEFF 		bl	LSM303AGR_ACC_ReadReg
 3841 159c 0346     		mov	r3, r0
 3842 159e 002B     		cmp	r3, #0
 3843 15a0 01D1     		bne	.L248
 3844              		.loc 1 1357 0
 3845 15a2 0023     		movs	r3, #0
 3846 15a4 1CE0     		b	.L251
 3847              	.L248:
 3848              		.loc 1 1359 0
 3849 15a6 9DF80F30 		ldrb	r3, [sp, #15]	@ zero_extendqisi2
 3850 15aa 23F00603 		bic	r3, r3, #6
 3851 15ae DBB2     		uxtb	r3, r3
 3852 15b0 8DF80F30 		strb	r3, [sp, #15]
 3853              		.loc 1 1360 0
 3854 15b4 9DF80F20 		ldrb	r2, [sp, #15]	@ zero_extendqisi2
 3855 15b8 9DF80330 		ldrb	r3, [sp, #3]
 3856 15bc 1343     		orrs	r3, r3, r2
 3857 15be DBB2     		uxtb	r3, r3
 3858 15c0 8DF80F30 		strb	r3, [sp, #15]
 3859              		.loc 1 1362 0
 3860 15c4 0DF10F03 		add	r3, sp, #15
 3861 15c8 0198     		ldr	r0, [sp, #4]
 3862 15ca 2321     		movs	r1, #35
 3863 15cc 1A46     		mov	r2, r3
 3864 15ce 0123     		movs	r3, #1
 3865 15d0 FFF7FEFF 		bl	LSM303AGR_ACC_WriteReg
 3866 15d4 0346     		mov	r3, r0
 3867 15d6 002B     		cmp	r3, #0
 3868 15d8 01D1     		bne	.L250
 3869              		.loc 1 1363 0
 3870 15da 0023     		movs	r3, #0
 3871 15dc 00E0     		b	.L251
 3872              	.L250:
 3873              		.loc 1 1365 0
 3874 15de 0123     		movs	r3, #1
 3875              	.L251:
 3876              		.loc 1 1366 0
ARM GAS  /tmp/ccRrg1qB.s 			page 70


 3877 15e0 1846     		mov	r0, r3
 3878 15e2 05B0     		add	sp, sp, #20
 3879              		@ sp needed
 3880 15e4 5DF804FB 		ldr	pc, [sp], #4
 3881              		.cfi_endproc
 3882              	.LFE329:
 3883              		.size	LSM303AGR_ACC_W_SelfTest, .-LSM303AGR_ACC_W_SelfTest
 3884              		.align	2
 3885 15e8 AFF30080 		.p2align 4,,15
 3885      AFF30080 
 3886              		.global	LSM303AGR_ACC_R_SelfTest
 3887              		.thumb
 3888              		.thumb_func
 3889              		.type	LSM303AGR_ACC_R_SelfTest, %function
 3890              	LSM303AGR_ACC_R_SelfTest:
 3891              	.LFB330:
 3892              		.loc 1 1376 0
 3893              		.cfi_startproc
 3894              		@ args = 0, pretend = 0, frame = 8
 3895              		@ frame_needed = 0, uses_anonymous_args = 0
 3896 15f0 00B5     		push	{lr}
 3897              		.cfi_def_cfa_offset 4
 3898              		.cfi_offset 14, -4
 3899 15f2 83B0     		sub	sp, sp, #12
 3900              		.cfi_def_cfa_offset 16
 3901 15f4 0190     		str	r0, [sp, #4]
 3902 15f6 0091     		str	r1, [sp]
 3903              		.loc 1 1377 0
 3904 15f8 0198     		ldr	r0, [sp, #4]
 3905 15fa 2321     		movs	r1, #35
 3906 15fc 009A     		ldr	r2, [sp]
 3907 15fe 0123     		movs	r3, #1
 3908 1600 FFF7FEFF 		bl	LSM303AGR_ACC_ReadReg
 3909 1604 0346     		mov	r3, r0
 3910 1606 002B     		cmp	r3, #0
 3911 1608 01D1     		bne	.L253
 3912              		.loc 1 1378 0
 3913 160a 0023     		movs	r3, #0
 3914 160c 07E0     		b	.L254
 3915              	.L253:
 3916              		.loc 1 1380 0
 3917 160e 009B     		ldr	r3, [sp]
 3918 1610 1B78     		ldrb	r3, [r3]	@ zero_extendqisi2
 3919 1612 03F00603 		and	r3, r3, #6
 3920 1616 DAB2     		uxtb	r2, r3
 3921 1618 009B     		ldr	r3, [sp]
 3922 161a 1A70     		strb	r2, [r3]
 3923              		.loc 1 1382 0
 3924 161c 0123     		movs	r3, #1
 3925              	.L254:
 3926              		.loc 1 1383 0
 3927 161e 1846     		mov	r0, r3
 3928 1620 03B0     		add	sp, sp, #12
 3929              		@ sp needed
 3930 1622 5DF804FB 		ldr	pc, [sp], #4
 3931              		.cfi_endproc
 3932              	.LFE330:
ARM GAS  /tmp/ccRrg1qB.s 			page 71


 3933              		.size	LSM303AGR_ACC_R_SelfTest, .-LSM303AGR_ACC_R_SelfTest
 3934 1626 00BF     		.align	2
 3935 1628 AFF30080 		.p2align 4,,15
 3935      AFF30080 
 3936              		.global	LSM303AGR_ACC_W_HiRes
 3937              		.thumb
 3938              		.thumb_func
 3939              		.type	LSM303AGR_ACC_W_HiRes, %function
 3940              	LSM303AGR_ACC_W_HiRes:
 3941              	.LFB331:
 3942              		.loc 1 1393 0
 3943              		.cfi_startproc
 3944              		@ args = 0, pretend = 0, frame = 16
 3945              		@ frame_needed = 0, uses_anonymous_args = 0
 3946 1630 00B5     		push	{lr}
 3947              		.cfi_def_cfa_offset 4
 3948              		.cfi_offset 14, -4
 3949 1632 85B0     		sub	sp, sp, #20
 3950              		.cfi_def_cfa_offset 24
 3951 1634 0190     		str	r0, [sp, #4]
 3952 1636 0B46     		mov	r3, r1
 3953 1638 8DF80330 		strb	r3, [sp, #3]
 3954              		.loc 1 1396 0
 3955 163c 0DF10F03 		add	r3, sp, #15
 3956 1640 0198     		ldr	r0, [sp, #4]
 3957 1642 2321     		movs	r1, #35
 3958 1644 1A46     		mov	r2, r3
 3959 1646 0123     		movs	r3, #1
 3960 1648 FFF7FEFF 		bl	LSM303AGR_ACC_ReadReg
 3961 164c 0346     		mov	r3, r0
 3962 164e 002B     		cmp	r3, #0
 3963 1650 01D1     		bne	.L256
 3964              		.loc 1 1397 0
 3965 1652 0023     		movs	r3, #0
 3966 1654 1CE0     		b	.L259
 3967              	.L256:
 3968              		.loc 1 1399 0
 3969 1656 9DF80F30 		ldrb	r3, [sp, #15]	@ zero_extendqisi2
 3970 165a 23F00803 		bic	r3, r3, #8
 3971 165e DBB2     		uxtb	r3, r3
 3972 1660 8DF80F30 		strb	r3, [sp, #15]
 3973              		.loc 1 1400 0
 3974 1664 9DF80F20 		ldrb	r2, [sp, #15]	@ zero_extendqisi2
 3975 1668 9DF80330 		ldrb	r3, [sp, #3]
 3976 166c 1343     		orrs	r3, r3, r2
 3977 166e DBB2     		uxtb	r3, r3
 3978 1670 8DF80F30 		strb	r3, [sp, #15]
 3979              		.loc 1 1402 0
 3980 1674 0DF10F03 		add	r3, sp, #15
 3981 1678 0198     		ldr	r0, [sp, #4]
 3982 167a 2321     		movs	r1, #35
 3983 167c 1A46     		mov	r2, r3
 3984 167e 0123     		movs	r3, #1
 3985 1680 FFF7FEFF 		bl	LSM303AGR_ACC_WriteReg
 3986 1684 0346     		mov	r3, r0
 3987 1686 002B     		cmp	r3, #0
 3988 1688 01D1     		bne	.L258
ARM GAS  /tmp/ccRrg1qB.s 			page 72


 3989              		.loc 1 1403 0
 3990 168a 0023     		movs	r3, #0
 3991 168c 00E0     		b	.L259
 3992              	.L258:
 3993              		.loc 1 1405 0
 3994 168e 0123     		movs	r3, #1
 3995              	.L259:
 3996              		.loc 1 1406 0
 3997 1690 1846     		mov	r0, r3
 3998 1692 05B0     		add	sp, sp, #20
 3999              		@ sp needed
 4000 1694 5DF804FB 		ldr	pc, [sp], #4
 4001              		.cfi_endproc
 4002              	.LFE331:
 4003              		.size	LSM303AGR_ACC_W_HiRes, .-LSM303AGR_ACC_W_HiRes
 4004              		.align	2
 4005 1698 AFF30080 		.p2align 4,,15
 4005      AFF30080 
 4006              		.global	LSM303AGR_ACC_R_HiRes
 4007              		.thumb
 4008              		.thumb_func
 4009              		.type	LSM303AGR_ACC_R_HiRes, %function
 4010              	LSM303AGR_ACC_R_HiRes:
 4011              	.LFB332:
 4012              		.loc 1 1416 0
 4013              		.cfi_startproc
 4014              		@ args = 0, pretend = 0, frame = 8
 4015              		@ frame_needed = 0, uses_anonymous_args = 0
 4016 16a0 00B5     		push	{lr}
 4017              		.cfi_def_cfa_offset 4
 4018              		.cfi_offset 14, -4
 4019 16a2 83B0     		sub	sp, sp, #12
 4020              		.cfi_def_cfa_offset 16
 4021 16a4 0190     		str	r0, [sp, #4]
 4022 16a6 0091     		str	r1, [sp]
 4023              		.loc 1 1417 0
 4024 16a8 0198     		ldr	r0, [sp, #4]
 4025 16aa 2321     		movs	r1, #35
 4026 16ac 009A     		ldr	r2, [sp]
 4027 16ae 0123     		movs	r3, #1
 4028 16b0 FFF7FEFF 		bl	LSM303AGR_ACC_ReadReg
 4029 16b4 0346     		mov	r3, r0
 4030 16b6 002B     		cmp	r3, #0
 4031 16b8 01D1     		bne	.L261
 4032              		.loc 1 1418 0
 4033 16ba 0023     		movs	r3, #0
 4034 16bc 07E0     		b	.L262
 4035              	.L261:
 4036              		.loc 1 1420 0
 4037 16be 009B     		ldr	r3, [sp]
 4038 16c0 1B78     		ldrb	r3, [r3]	@ zero_extendqisi2
 4039 16c2 03F00803 		and	r3, r3, #8
 4040 16c6 DAB2     		uxtb	r2, r3
 4041 16c8 009B     		ldr	r3, [sp]
 4042 16ca 1A70     		strb	r2, [r3]
 4043              		.loc 1 1422 0
 4044 16cc 0123     		movs	r3, #1
ARM GAS  /tmp/ccRrg1qB.s 			page 73


 4045              	.L262:
 4046              		.loc 1 1423 0
 4047 16ce 1846     		mov	r0, r3
 4048 16d0 03B0     		add	sp, sp, #12
 4049              		@ sp needed
 4050 16d2 5DF804FB 		ldr	pc, [sp], #4
 4051              		.cfi_endproc
 4052              	.LFE332:
 4053              		.size	LSM303AGR_ACC_R_HiRes, .-LSM303AGR_ACC_R_HiRes
 4054 16d6 00BF     		.align	2
 4055 16d8 AFF30080 		.p2align 4,,15
 4055      AFF30080 
 4056              		.global	LSM303AGR_ACC_W_LittleBigEndian
 4057              		.thumb
 4058              		.thumb_func
 4059              		.type	LSM303AGR_ACC_W_LittleBigEndian, %function
 4060              	LSM303AGR_ACC_W_LittleBigEndian:
 4061              	.LFB333:
 4062              		.loc 1 1433 0
 4063              		.cfi_startproc
 4064              		@ args = 0, pretend = 0, frame = 16
 4065              		@ frame_needed = 0, uses_anonymous_args = 0
 4066 16e0 00B5     		push	{lr}
 4067              		.cfi_def_cfa_offset 4
 4068              		.cfi_offset 14, -4
 4069 16e2 85B0     		sub	sp, sp, #20
 4070              		.cfi_def_cfa_offset 24
 4071 16e4 0190     		str	r0, [sp, #4]
 4072 16e6 0B46     		mov	r3, r1
 4073 16e8 8DF80330 		strb	r3, [sp, #3]
 4074              		.loc 1 1436 0
 4075 16ec 0DF10F03 		add	r3, sp, #15
 4076 16f0 0198     		ldr	r0, [sp, #4]
 4077 16f2 2321     		movs	r1, #35
 4078 16f4 1A46     		mov	r2, r3
 4079 16f6 0123     		movs	r3, #1
 4080 16f8 FFF7FEFF 		bl	LSM303AGR_ACC_ReadReg
 4081 16fc 0346     		mov	r3, r0
 4082 16fe 002B     		cmp	r3, #0
 4083 1700 01D1     		bne	.L264
 4084              		.loc 1 1437 0
 4085 1702 0023     		movs	r3, #0
 4086 1704 1CE0     		b	.L267
 4087              	.L264:
 4088              		.loc 1 1439 0
 4089 1706 9DF80F30 		ldrb	r3, [sp, #15]	@ zero_extendqisi2
 4090 170a 23F04003 		bic	r3, r3, #64
 4091 170e DBB2     		uxtb	r3, r3
 4092 1710 8DF80F30 		strb	r3, [sp, #15]
 4093              		.loc 1 1440 0
 4094 1714 9DF80F20 		ldrb	r2, [sp, #15]	@ zero_extendqisi2
 4095 1718 9DF80330 		ldrb	r3, [sp, #3]
 4096 171c 1343     		orrs	r3, r3, r2
 4097 171e DBB2     		uxtb	r3, r3
 4098 1720 8DF80F30 		strb	r3, [sp, #15]
 4099              		.loc 1 1442 0
 4100 1724 0DF10F03 		add	r3, sp, #15
ARM GAS  /tmp/ccRrg1qB.s 			page 74


 4101 1728 0198     		ldr	r0, [sp, #4]
 4102 172a 2321     		movs	r1, #35
 4103 172c 1A46     		mov	r2, r3
 4104 172e 0123     		movs	r3, #1
 4105 1730 FFF7FEFF 		bl	LSM303AGR_ACC_WriteReg
 4106 1734 0346     		mov	r3, r0
 4107 1736 002B     		cmp	r3, #0
 4108 1738 01D1     		bne	.L266
 4109              		.loc 1 1443 0
 4110 173a 0023     		movs	r3, #0
 4111 173c 00E0     		b	.L267
 4112              	.L266:
 4113              		.loc 1 1445 0
 4114 173e 0123     		movs	r3, #1
 4115              	.L267:
 4116              		.loc 1 1446 0
 4117 1740 1846     		mov	r0, r3
 4118 1742 05B0     		add	sp, sp, #20
 4119              		@ sp needed
 4120 1744 5DF804FB 		ldr	pc, [sp], #4
 4121              		.cfi_endproc
 4122              	.LFE333:
 4123              		.size	LSM303AGR_ACC_W_LittleBigEndian, .-LSM303AGR_ACC_W_LittleBigEndian
 4124              		.align	2
 4125 1748 AFF30080 		.p2align 4,,15
 4125      AFF30080 
 4126              		.global	LSM303AGR_ACC_R_LittleBigEndian
 4127              		.thumb
 4128              		.thumb_func
 4129              		.type	LSM303AGR_ACC_R_LittleBigEndian, %function
 4130              	LSM303AGR_ACC_R_LittleBigEndian:
 4131              	.LFB334:
 4132              		.loc 1 1456 0
 4133              		.cfi_startproc
 4134              		@ args = 0, pretend = 0, frame = 8
 4135              		@ frame_needed = 0, uses_anonymous_args = 0
 4136 1750 00B5     		push	{lr}
 4137              		.cfi_def_cfa_offset 4
 4138              		.cfi_offset 14, -4
 4139 1752 83B0     		sub	sp, sp, #12
 4140              		.cfi_def_cfa_offset 16
 4141 1754 0190     		str	r0, [sp, #4]
 4142 1756 0091     		str	r1, [sp]
 4143              		.loc 1 1457 0
 4144 1758 0198     		ldr	r0, [sp, #4]
 4145 175a 2321     		movs	r1, #35
 4146 175c 009A     		ldr	r2, [sp]
 4147 175e 0123     		movs	r3, #1
 4148 1760 FFF7FEFF 		bl	LSM303AGR_ACC_ReadReg
 4149 1764 0346     		mov	r3, r0
 4150 1766 002B     		cmp	r3, #0
 4151 1768 01D1     		bne	.L269
 4152              		.loc 1 1458 0
 4153 176a 0023     		movs	r3, #0
 4154 176c 07E0     		b	.L270
 4155              	.L269:
 4156              		.loc 1 1460 0
ARM GAS  /tmp/ccRrg1qB.s 			page 75


 4157 176e 009B     		ldr	r3, [sp]
 4158 1770 1B78     		ldrb	r3, [r3]	@ zero_extendqisi2
 4159 1772 03F04003 		and	r3, r3, #64
 4160 1776 DAB2     		uxtb	r2, r3
 4161 1778 009B     		ldr	r3, [sp]
 4162 177a 1A70     		strb	r2, [r3]
 4163              		.loc 1 1462 0
 4164 177c 0123     		movs	r3, #1
 4165              	.L270:
 4166              		.loc 1 1463 0
 4167 177e 1846     		mov	r0, r3
 4168 1780 03B0     		add	sp, sp, #12
 4169              		@ sp needed
 4170 1782 5DF804FB 		ldr	pc, [sp], #4
 4171              		.cfi_endproc
 4172              	.LFE334:
 4173              		.size	LSM303AGR_ACC_R_LittleBigEndian, .-LSM303AGR_ACC_R_LittleBigEndian
 4174 1786 00BF     		.align	2
 4175 1788 AFF30080 		.p2align 4,,15
 4175      AFF30080 
 4176              		.global	LSM303AGR_ACC_W_4D_on_INT2
 4177              		.thumb
 4178              		.thumb_func
 4179              		.type	LSM303AGR_ACC_W_4D_on_INT2, %function
 4180              	LSM303AGR_ACC_W_4D_on_INT2:
 4181              	.LFB335:
 4182              		.loc 1 1473 0
 4183              		.cfi_startproc
 4184              		@ args = 0, pretend = 0, frame = 16
 4185              		@ frame_needed = 0, uses_anonymous_args = 0
 4186 1790 00B5     		push	{lr}
 4187              		.cfi_def_cfa_offset 4
 4188              		.cfi_offset 14, -4
 4189 1792 85B0     		sub	sp, sp, #20
 4190              		.cfi_def_cfa_offset 24
 4191 1794 0190     		str	r0, [sp, #4]
 4192 1796 0B46     		mov	r3, r1
 4193 1798 8DF80330 		strb	r3, [sp, #3]
 4194              		.loc 1 1476 0
 4195 179c 0DF10F03 		add	r3, sp, #15
 4196 17a0 0198     		ldr	r0, [sp, #4]
 4197 17a2 2421     		movs	r1, #36
 4198 17a4 1A46     		mov	r2, r3
 4199 17a6 0123     		movs	r3, #1
 4200 17a8 FFF7FEFF 		bl	LSM303AGR_ACC_ReadReg
 4201 17ac 0346     		mov	r3, r0
 4202 17ae 002B     		cmp	r3, #0
 4203 17b0 01D1     		bne	.L272
 4204              		.loc 1 1477 0
 4205 17b2 0023     		movs	r3, #0
 4206 17b4 1CE0     		b	.L275
 4207              	.L272:
 4208              		.loc 1 1479 0
 4209 17b6 9DF80F30 		ldrb	r3, [sp, #15]	@ zero_extendqisi2
 4210 17ba 23F00103 		bic	r3, r3, #1
 4211 17be DBB2     		uxtb	r3, r3
 4212 17c0 8DF80F30 		strb	r3, [sp, #15]
ARM GAS  /tmp/ccRrg1qB.s 			page 76


 4213              		.loc 1 1480 0
 4214 17c4 9DF80F20 		ldrb	r2, [sp, #15]	@ zero_extendqisi2
 4215 17c8 9DF80330 		ldrb	r3, [sp, #3]
 4216 17cc 1343     		orrs	r3, r3, r2
 4217 17ce DBB2     		uxtb	r3, r3
 4218 17d0 8DF80F30 		strb	r3, [sp, #15]
 4219              		.loc 1 1482 0
 4220 17d4 0DF10F03 		add	r3, sp, #15
 4221 17d8 0198     		ldr	r0, [sp, #4]
 4222 17da 2421     		movs	r1, #36
 4223 17dc 1A46     		mov	r2, r3
 4224 17de 0123     		movs	r3, #1
 4225 17e0 FFF7FEFF 		bl	LSM303AGR_ACC_WriteReg
 4226 17e4 0346     		mov	r3, r0
 4227 17e6 002B     		cmp	r3, #0
 4228 17e8 01D1     		bne	.L274
 4229              		.loc 1 1483 0
 4230 17ea 0023     		movs	r3, #0
 4231 17ec 00E0     		b	.L275
 4232              	.L274:
 4233              		.loc 1 1485 0
 4234 17ee 0123     		movs	r3, #1
 4235              	.L275:
 4236              		.loc 1 1486 0
 4237 17f0 1846     		mov	r0, r3
 4238 17f2 05B0     		add	sp, sp, #20
 4239              		@ sp needed
 4240 17f4 5DF804FB 		ldr	pc, [sp], #4
 4241              		.cfi_endproc
 4242              	.LFE335:
 4243              		.size	LSM303AGR_ACC_W_4D_on_INT2, .-LSM303AGR_ACC_W_4D_on_INT2
 4244              		.align	2
 4245 17f8 AFF30080 		.p2align 4,,15
 4245      AFF30080 
 4246              		.global	LSM303AGR_ACC_R_4D_on_INT2
 4247              		.thumb
 4248              		.thumb_func
 4249              		.type	LSM303AGR_ACC_R_4D_on_INT2, %function
 4250              	LSM303AGR_ACC_R_4D_on_INT2:
 4251              	.LFB336:
 4252              		.loc 1 1496 0
 4253              		.cfi_startproc
 4254              		@ args = 0, pretend = 0, frame = 8
 4255              		@ frame_needed = 0, uses_anonymous_args = 0
 4256 1800 00B5     		push	{lr}
 4257              		.cfi_def_cfa_offset 4
 4258              		.cfi_offset 14, -4
 4259 1802 83B0     		sub	sp, sp, #12
 4260              		.cfi_def_cfa_offset 16
 4261 1804 0190     		str	r0, [sp, #4]
 4262 1806 0091     		str	r1, [sp]
 4263              		.loc 1 1497 0
 4264 1808 0198     		ldr	r0, [sp, #4]
 4265 180a 2421     		movs	r1, #36
 4266 180c 009A     		ldr	r2, [sp]
 4267 180e 0123     		movs	r3, #1
 4268 1810 FFF7FEFF 		bl	LSM303AGR_ACC_ReadReg
ARM GAS  /tmp/ccRrg1qB.s 			page 77


 4269 1814 0346     		mov	r3, r0
 4270 1816 002B     		cmp	r3, #0
 4271 1818 01D1     		bne	.L277
 4272              		.loc 1 1498 0
 4273 181a 0023     		movs	r3, #0
 4274 181c 07E0     		b	.L278
 4275              	.L277:
 4276              		.loc 1 1500 0
 4277 181e 009B     		ldr	r3, [sp]
 4278 1820 1B78     		ldrb	r3, [r3]	@ zero_extendqisi2
 4279 1822 03F00103 		and	r3, r3, #1
 4280 1826 DAB2     		uxtb	r2, r3
 4281 1828 009B     		ldr	r3, [sp]
 4282 182a 1A70     		strb	r2, [r3]
 4283              		.loc 1 1502 0
 4284 182c 0123     		movs	r3, #1
 4285              	.L278:
 4286              		.loc 1 1503 0
 4287 182e 1846     		mov	r0, r3
 4288 1830 03B0     		add	sp, sp, #12
 4289              		@ sp needed
 4290 1832 5DF804FB 		ldr	pc, [sp], #4
 4291              		.cfi_endproc
 4292              	.LFE336:
 4293              		.size	LSM303AGR_ACC_R_4D_on_INT2, .-LSM303AGR_ACC_R_4D_on_INT2
 4294 1836 00BF     		.align	2
 4295 1838 AFF30080 		.p2align 4,,15
 4295      AFF30080 
 4296              		.global	LSM303AGR_ACC_W_LatchInterrupt_on_INT2
 4297              		.thumb
 4298              		.thumb_func
 4299              		.type	LSM303AGR_ACC_W_LatchInterrupt_on_INT2, %function
 4300              	LSM303AGR_ACC_W_LatchInterrupt_on_INT2:
 4301              	.LFB337:
 4302              		.loc 1 1513 0
 4303              		.cfi_startproc
 4304              		@ args = 0, pretend = 0, frame = 16
 4305              		@ frame_needed = 0, uses_anonymous_args = 0
 4306 1840 00B5     		push	{lr}
 4307              		.cfi_def_cfa_offset 4
 4308              		.cfi_offset 14, -4
 4309 1842 85B0     		sub	sp, sp, #20
 4310              		.cfi_def_cfa_offset 24
 4311 1844 0190     		str	r0, [sp, #4]
 4312 1846 0B46     		mov	r3, r1
 4313 1848 8DF80330 		strb	r3, [sp, #3]
 4314              		.loc 1 1516 0
 4315 184c 0DF10F03 		add	r3, sp, #15
 4316 1850 0198     		ldr	r0, [sp, #4]
 4317 1852 2421     		movs	r1, #36
 4318 1854 1A46     		mov	r2, r3
 4319 1856 0123     		movs	r3, #1
 4320 1858 FFF7FEFF 		bl	LSM303AGR_ACC_ReadReg
 4321 185c 0346     		mov	r3, r0
 4322 185e 002B     		cmp	r3, #0
 4323 1860 01D1     		bne	.L280
 4324              		.loc 1 1517 0
ARM GAS  /tmp/ccRrg1qB.s 			page 78


 4325 1862 0023     		movs	r3, #0
 4326 1864 1CE0     		b	.L283
 4327              	.L280:
 4328              		.loc 1 1519 0
 4329 1866 9DF80F30 		ldrb	r3, [sp, #15]	@ zero_extendqisi2
 4330 186a 23F00203 		bic	r3, r3, #2
 4331 186e DBB2     		uxtb	r3, r3
 4332 1870 8DF80F30 		strb	r3, [sp, #15]
 4333              		.loc 1 1520 0
 4334 1874 9DF80F20 		ldrb	r2, [sp, #15]	@ zero_extendqisi2
 4335 1878 9DF80330 		ldrb	r3, [sp, #3]
 4336 187c 1343     		orrs	r3, r3, r2
 4337 187e DBB2     		uxtb	r3, r3
 4338 1880 8DF80F30 		strb	r3, [sp, #15]
 4339              		.loc 1 1522 0
 4340 1884 0DF10F03 		add	r3, sp, #15
 4341 1888 0198     		ldr	r0, [sp, #4]
 4342 188a 2421     		movs	r1, #36
 4343 188c 1A46     		mov	r2, r3
 4344 188e 0123     		movs	r3, #1
 4345 1890 FFF7FEFF 		bl	LSM303AGR_ACC_WriteReg
 4346 1894 0346     		mov	r3, r0
 4347 1896 002B     		cmp	r3, #0
 4348 1898 01D1     		bne	.L282
 4349              		.loc 1 1523 0
 4350 189a 0023     		movs	r3, #0
 4351 189c 00E0     		b	.L283
 4352              	.L282:
 4353              		.loc 1 1525 0
 4354 189e 0123     		movs	r3, #1
 4355              	.L283:
 4356              		.loc 1 1526 0
 4357 18a0 1846     		mov	r0, r3
 4358 18a2 05B0     		add	sp, sp, #20
 4359              		@ sp needed
 4360 18a4 5DF804FB 		ldr	pc, [sp], #4
 4361              		.cfi_endproc
 4362              	.LFE337:
 4363              		.size	LSM303AGR_ACC_W_LatchInterrupt_on_INT2, .-LSM303AGR_ACC_W_LatchInterrupt_on_INT2
 4364              		.align	2
 4365 18a8 AFF30080 		.p2align 4,,15
 4365      AFF30080 
 4366              		.global	LSM303AGR_ACC_R_LatchInterrupt_on_INT2
 4367              		.thumb
 4368              		.thumb_func
 4369              		.type	LSM303AGR_ACC_R_LatchInterrupt_on_INT2, %function
 4370              	LSM303AGR_ACC_R_LatchInterrupt_on_INT2:
 4371              	.LFB338:
 4372              		.loc 1 1536 0
 4373              		.cfi_startproc
 4374              		@ args = 0, pretend = 0, frame = 8
 4375              		@ frame_needed = 0, uses_anonymous_args = 0
 4376 18b0 00B5     		push	{lr}
 4377              		.cfi_def_cfa_offset 4
 4378              		.cfi_offset 14, -4
 4379 18b2 83B0     		sub	sp, sp, #12
 4380              		.cfi_def_cfa_offset 16
ARM GAS  /tmp/ccRrg1qB.s 			page 79


 4381 18b4 0190     		str	r0, [sp, #4]
 4382 18b6 0091     		str	r1, [sp]
 4383              		.loc 1 1537 0
 4384 18b8 0198     		ldr	r0, [sp, #4]
 4385 18ba 2421     		movs	r1, #36
 4386 18bc 009A     		ldr	r2, [sp]
 4387 18be 0123     		movs	r3, #1
 4388 18c0 FFF7FEFF 		bl	LSM303AGR_ACC_ReadReg
 4389 18c4 0346     		mov	r3, r0
 4390 18c6 002B     		cmp	r3, #0
 4391 18c8 01D1     		bne	.L285
 4392              		.loc 1 1538 0
 4393 18ca 0023     		movs	r3, #0
 4394 18cc 07E0     		b	.L286
 4395              	.L285:
 4396              		.loc 1 1540 0
 4397 18ce 009B     		ldr	r3, [sp]
 4398 18d0 1B78     		ldrb	r3, [r3]	@ zero_extendqisi2
 4399 18d2 03F00203 		and	r3, r3, #2
 4400 18d6 DAB2     		uxtb	r2, r3
 4401 18d8 009B     		ldr	r3, [sp]
 4402 18da 1A70     		strb	r2, [r3]
 4403              		.loc 1 1542 0
 4404 18dc 0123     		movs	r3, #1
 4405              	.L286:
 4406              		.loc 1 1543 0
 4407 18de 1846     		mov	r0, r3
 4408 18e0 03B0     		add	sp, sp, #12
 4409              		@ sp needed
 4410 18e2 5DF804FB 		ldr	pc, [sp], #4
 4411              		.cfi_endproc
 4412              	.LFE338:
 4413              		.size	LSM303AGR_ACC_R_LatchInterrupt_on_INT2, .-LSM303AGR_ACC_R_LatchInterrupt_on_INT2
 4414 18e6 00BF     		.align	2
 4415 18e8 AFF30080 		.p2align 4,,15
 4415      AFF30080 
 4416              		.global	LSM303AGR_ACC_W_4D_on_INT1
 4417              		.thumb
 4418              		.thumb_func
 4419              		.type	LSM303AGR_ACC_W_4D_on_INT1, %function
 4420              	LSM303AGR_ACC_W_4D_on_INT1:
 4421              	.LFB339:
 4422              		.loc 1 1553 0
 4423              		.cfi_startproc
 4424              		@ args = 0, pretend = 0, frame = 16
 4425              		@ frame_needed = 0, uses_anonymous_args = 0
 4426 18f0 00B5     		push	{lr}
 4427              		.cfi_def_cfa_offset 4
 4428              		.cfi_offset 14, -4
 4429 18f2 85B0     		sub	sp, sp, #20
 4430              		.cfi_def_cfa_offset 24
 4431 18f4 0190     		str	r0, [sp, #4]
 4432 18f6 0B46     		mov	r3, r1
 4433 18f8 8DF80330 		strb	r3, [sp, #3]
 4434              		.loc 1 1556 0
 4435 18fc 0DF10F03 		add	r3, sp, #15
 4436 1900 0198     		ldr	r0, [sp, #4]
ARM GAS  /tmp/ccRrg1qB.s 			page 80


 4437 1902 2421     		movs	r1, #36
 4438 1904 1A46     		mov	r2, r3
 4439 1906 0123     		movs	r3, #1
 4440 1908 FFF7FEFF 		bl	LSM303AGR_ACC_ReadReg
 4441 190c 0346     		mov	r3, r0
 4442 190e 002B     		cmp	r3, #0
 4443 1910 01D1     		bne	.L288
 4444              		.loc 1 1557 0
 4445 1912 0023     		movs	r3, #0
 4446 1914 1CE0     		b	.L291
 4447              	.L288:
 4448              		.loc 1 1559 0
 4449 1916 9DF80F30 		ldrb	r3, [sp, #15]	@ zero_extendqisi2
 4450 191a 23F00403 		bic	r3, r3, #4
 4451 191e DBB2     		uxtb	r3, r3
 4452 1920 8DF80F30 		strb	r3, [sp, #15]
 4453              		.loc 1 1560 0
 4454 1924 9DF80F20 		ldrb	r2, [sp, #15]	@ zero_extendqisi2
 4455 1928 9DF80330 		ldrb	r3, [sp, #3]
 4456 192c 1343     		orrs	r3, r3, r2
 4457 192e DBB2     		uxtb	r3, r3
 4458 1930 8DF80F30 		strb	r3, [sp, #15]
 4459              		.loc 1 1562 0
 4460 1934 0DF10F03 		add	r3, sp, #15
 4461 1938 0198     		ldr	r0, [sp, #4]
 4462 193a 2421     		movs	r1, #36
 4463 193c 1A46     		mov	r2, r3
 4464 193e 0123     		movs	r3, #1
 4465 1940 FFF7FEFF 		bl	LSM303AGR_ACC_WriteReg
 4466 1944 0346     		mov	r3, r0
 4467 1946 002B     		cmp	r3, #0
 4468 1948 01D1     		bne	.L290
 4469              		.loc 1 1563 0
 4470 194a 0023     		movs	r3, #0
 4471 194c 00E0     		b	.L291
 4472              	.L290:
 4473              		.loc 1 1565 0
 4474 194e 0123     		movs	r3, #1
 4475              	.L291:
 4476              		.loc 1 1566 0
 4477 1950 1846     		mov	r0, r3
 4478 1952 05B0     		add	sp, sp, #20
 4479              		@ sp needed
 4480 1954 5DF804FB 		ldr	pc, [sp], #4
 4481              		.cfi_endproc
 4482              	.LFE339:
 4483              		.size	LSM303AGR_ACC_W_4D_on_INT1, .-LSM303AGR_ACC_W_4D_on_INT1
 4484              		.align	2
 4485 1958 AFF30080 		.p2align 4,,15
 4485      AFF30080 
 4486              		.global	LSM303AGR_ACC_R_4D_on_INT1
 4487              		.thumb
 4488              		.thumb_func
 4489              		.type	LSM303AGR_ACC_R_4D_on_INT1, %function
 4490              	LSM303AGR_ACC_R_4D_on_INT1:
 4491              	.LFB340:
 4492              		.loc 1 1576 0
ARM GAS  /tmp/ccRrg1qB.s 			page 81


 4493              		.cfi_startproc
 4494              		@ args = 0, pretend = 0, frame = 8
 4495              		@ frame_needed = 0, uses_anonymous_args = 0
 4496 1960 00B5     		push	{lr}
 4497              		.cfi_def_cfa_offset 4
 4498              		.cfi_offset 14, -4
 4499 1962 83B0     		sub	sp, sp, #12
 4500              		.cfi_def_cfa_offset 16
 4501 1964 0190     		str	r0, [sp, #4]
 4502 1966 0091     		str	r1, [sp]
 4503              		.loc 1 1577 0
 4504 1968 0198     		ldr	r0, [sp, #4]
 4505 196a 2421     		movs	r1, #36
 4506 196c 009A     		ldr	r2, [sp]
 4507 196e 0123     		movs	r3, #1
 4508 1970 FFF7FEFF 		bl	LSM303AGR_ACC_ReadReg
 4509 1974 0346     		mov	r3, r0
 4510 1976 002B     		cmp	r3, #0
 4511 1978 01D1     		bne	.L293
 4512              		.loc 1 1578 0
 4513 197a 0023     		movs	r3, #0
 4514 197c 07E0     		b	.L294
 4515              	.L293:
 4516              		.loc 1 1580 0
 4517 197e 009B     		ldr	r3, [sp]
 4518 1980 1B78     		ldrb	r3, [r3]	@ zero_extendqisi2
 4519 1982 03F00403 		and	r3, r3, #4
 4520 1986 DAB2     		uxtb	r2, r3
 4521 1988 009B     		ldr	r3, [sp]
 4522 198a 1A70     		strb	r2, [r3]
 4523              		.loc 1 1582 0
 4524 198c 0123     		movs	r3, #1
 4525              	.L294:
 4526              		.loc 1 1583 0
 4527 198e 1846     		mov	r0, r3
 4528 1990 03B0     		add	sp, sp, #12
 4529              		@ sp needed
 4530 1992 5DF804FB 		ldr	pc, [sp], #4
 4531              		.cfi_endproc
 4532              	.LFE340:
 4533              		.size	LSM303AGR_ACC_R_4D_on_INT1, .-LSM303AGR_ACC_R_4D_on_INT1
 4534 1996 00BF     		.align	2
 4535 1998 AFF30080 		.p2align 4,,15
 4535      AFF30080 
 4536              		.global	LSM303AGR_ACC_W_LatchInterrupt_on_INT1
 4537              		.thumb
 4538              		.thumb_func
 4539              		.type	LSM303AGR_ACC_W_LatchInterrupt_on_INT1, %function
 4540              	LSM303AGR_ACC_W_LatchInterrupt_on_INT1:
 4541              	.LFB341:
 4542              		.loc 1 1593 0
 4543              		.cfi_startproc
 4544              		@ args = 0, pretend = 0, frame = 16
 4545              		@ frame_needed = 0, uses_anonymous_args = 0
 4546 19a0 00B5     		push	{lr}
 4547              		.cfi_def_cfa_offset 4
 4548              		.cfi_offset 14, -4
ARM GAS  /tmp/ccRrg1qB.s 			page 82


 4549 19a2 85B0     		sub	sp, sp, #20
 4550              		.cfi_def_cfa_offset 24
 4551 19a4 0190     		str	r0, [sp, #4]
 4552 19a6 0B46     		mov	r3, r1
 4553 19a8 8DF80330 		strb	r3, [sp, #3]
 4554              		.loc 1 1596 0
 4555 19ac 0DF10F03 		add	r3, sp, #15
 4556 19b0 0198     		ldr	r0, [sp, #4]
 4557 19b2 2421     		movs	r1, #36
 4558 19b4 1A46     		mov	r2, r3
 4559 19b6 0123     		movs	r3, #1
 4560 19b8 FFF7FEFF 		bl	LSM303AGR_ACC_ReadReg
 4561 19bc 0346     		mov	r3, r0
 4562 19be 002B     		cmp	r3, #0
 4563 19c0 01D1     		bne	.L296
 4564              		.loc 1 1597 0
 4565 19c2 0023     		movs	r3, #0
 4566 19c4 1CE0     		b	.L299
 4567              	.L296:
 4568              		.loc 1 1599 0
 4569 19c6 9DF80F30 		ldrb	r3, [sp, #15]	@ zero_extendqisi2
 4570 19ca 23F00803 		bic	r3, r3, #8
 4571 19ce DBB2     		uxtb	r3, r3
 4572 19d0 8DF80F30 		strb	r3, [sp, #15]
 4573              		.loc 1 1600 0
 4574 19d4 9DF80F20 		ldrb	r2, [sp, #15]	@ zero_extendqisi2
 4575 19d8 9DF80330 		ldrb	r3, [sp, #3]
 4576 19dc 1343     		orrs	r3, r3, r2
 4577 19de DBB2     		uxtb	r3, r3
 4578 19e0 8DF80F30 		strb	r3, [sp, #15]
 4579              		.loc 1 1602 0
 4580 19e4 0DF10F03 		add	r3, sp, #15
 4581 19e8 0198     		ldr	r0, [sp, #4]
 4582 19ea 2421     		movs	r1, #36
 4583 19ec 1A46     		mov	r2, r3
 4584 19ee 0123     		movs	r3, #1
 4585 19f0 FFF7FEFF 		bl	LSM303AGR_ACC_WriteReg
 4586 19f4 0346     		mov	r3, r0
 4587 19f6 002B     		cmp	r3, #0
 4588 19f8 01D1     		bne	.L298
 4589              		.loc 1 1603 0
 4590 19fa 0023     		movs	r3, #0
 4591 19fc 00E0     		b	.L299
 4592              	.L298:
 4593              		.loc 1 1605 0
 4594 19fe 0123     		movs	r3, #1
 4595              	.L299:
 4596              		.loc 1 1606 0
 4597 1a00 1846     		mov	r0, r3
 4598 1a02 05B0     		add	sp, sp, #20
 4599              		@ sp needed
 4600 1a04 5DF804FB 		ldr	pc, [sp], #4
 4601              		.cfi_endproc
 4602              	.LFE341:
 4603              		.size	LSM303AGR_ACC_W_LatchInterrupt_on_INT1, .-LSM303AGR_ACC_W_LatchInterrupt_on_INT1
 4604              		.align	2
 4605 1a08 AFF30080 		.p2align 4,,15
ARM GAS  /tmp/ccRrg1qB.s 			page 83


 4605      AFF30080 
 4606              		.global	LSM303AGR_ACC_R_LatchInterrupt_on_INT1
 4607              		.thumb
 4608              		.thumb_func
 4609              		.type	LSM303AGR_ACC_R_LatchInterrupt_on_INT1, %function
 4610              	LSM303AGR_ACC_R_LatchInterrupt_on_INT1:
 4611              	.LFB342:
 4612              		.loc 1 1616 0
 4613              		.cfi_startproc
 4614              		@ args = 0, pretend = 0, frame = 8
 4615              		@ frame_needed = 0, uses_anonymous_args = 0
 4616 1a10 00B5     		push	{lr}
 4617              		.cfi_def_cfa_offset 4
 4618              		.cfi_offset 14, -4
 4619 1a12 83B0     		sub	sp, sp, #12
 4620              		.cfi_def_cfa_offset 16
 4621 1a14 0190     		str	r0, [sp, #4]
 4622 1a16 0091     		str	r1, [sp]
 4623              		.loc 1 1617 0
 4624 1a18 0198     		ldr	r0, [sp, #4]
 4625 1a1a 2421     		movs	r1, #36
 4626 1a1c 009A     		ldr	r2, [sp]
 4627 1a1e 0123     		movs	r3, #1
 4628 1a20 FFF7FEFF 		bl	LSM303AGR_ACC_ReadReg
 4629 1a24 0346     		mov	r3, r0
 4630 1a26 002B     		cmp	r3, #0
 4631 1a28 01D1     		bne	.L301
 4632              		.loc 1 1618 0
 4633 1a2a 0023     		movs	r3, #0
 4634 1a2c 07E0     		b	.L302
 4635              	.L301:
 4636              		.loc 1 1620 0
 4637 1a2e 009B     		ldr	r3, [sp]
 4638 1a30 1B78     		ldrb	r3, [r3]	@ zero_extendqisi2
 4639 1a32 03F00803 		and	r3, r3, #8
 4640 1a36 DAB2     		uxtb	r2, r3
 4641 1a38 009B     		ldr	r3, [sp]
 4642 1a3a 1A70     		strb	r2, [r3]
 4643              		.loc 1 1622 0
 4644 1a3c 0123     		movs	r3, #1
 4645              	.L302:
 4646              		.loc 1 1623 0
 4647 1a3e 1846     		mov	r0, r3
 4648 1a40 03B0     		add	sp, sp, #12
 4649              		@ sp needed
 4650 1a42 5DF804FB 		ldr	pc, [sp], #4
 4651              		.cfi_endproc
 4652              	.LFE342:
 4653              		.size	LSM303AGR_ACC_R_LatchInterrupt_on_INT1, .-LSM303AGR_ACC_R_LatchInterrupt_on_INT1
 4654 1a46 00BF     		.align	2
 4655 1a48 AFF30080 		.p2align 4,,15
 4655      AFF30080 
 4656              		.global	LSM303AGR_ACC_W_FIFO_EN
 4657              		.thumb
 4658              		.thumb_func
 4659              		.type	LSM303AGR_ACC_W_FIFO_EN, %function
 4660              	LSM303AGR_ACC_W_FIFO_EN:
ARM GAS  /tmp/ccRrg1qB.s 			page 84


 4661              	.LFB343:
 4662              		.loc 1 1633 0
 4663              		.cfi_startproc
 4664              		@ args = 0, pretend = 0, frame = 16
 4665              		@ frame_needed = 0, uses_anonymous_args = 0
 4666 1a50 00B5     		push	{lr}
 4667              		.cfi_def_cfa_offset 4
 4668              		.cfi_offset 14, -4
 4669 1a52 85B0     		sub	sp, sp, #20
 4670              		.cfi_def_cfa_offset 24
 4671 1a54 0190     		str	r0, [sp, #4]
 4672 1a56 0B46     		mov	r3, r1
 4673 1a58 8DF80330 		strb	r3, [sp, #3]
 4674              		.loc 1 1636 0
 4675 1a5c 0DF10F03 		add	r3, sp, #15
 4676 1a60 0198     		ldr	r0, [sp, #4]
 4677 1a62 2421     		movs	r1, #36
 4678 1a64 1A46     		mov	r2, r3
 4679 1a66 0123     		movs	r3, #1
 4680 1a68 FFF7FEFF 		bl	LSM303AGR_ACC_ReadReg
 4681 1a6c 0346     		mov	r3, r0
 4682 1a6e 002B     		cmp	r3, #0
 4683 1a70 01D1     		bne	.L304
 4684              		.loc 1 1637 0
 4685 1a72 0023     		movs	r3, #0
 4686 1a74 1CE0     		b	.L307
 4687              	.L304:
 4688              		.loc 1 1639 0
 4689 1a76 9DF80F30 		ldrb	r3, [sp, #15]	@ zero_extendqisi2
 4690 1a7a 23F04003 		bic	r3, r3, #64
 4691 1a7e DBB2     		uxtb	r3, r3
 4692 1a80 8DF80F30 		strb	r3, [sp, #15]
 4693              		.loc 1 1640 0
 4694 1a84 9DF80F20 		ldrb	r2, [sp, #15]	@ zero_extendqisi2
 4695 1a88 9DF80330 		ldrb	r3, [sp, #3]
 4696 1a8c 1343     		orrs	r3, r3, r2
 4697 1a8e DBB2     		uxtb	r3, r3
 4698 1a90 8DF80F30 		strb	r3, [sp, #15]
 4699              		.loc 1 1642 0
 4700 1a94 0DF10F03 		add	r3, sp, #15
 4701 1a98 0198     		ldr	r0, [sp, #4]
 4702 1a9a 2421     		movs	r1, #36
 4703 1a9c 1A46     		mov	r2, r3
 4704 1a9e 0123     		movs	r3, #1
 4705 1aa0 FFF7FEFF 		bl	LSM303AGR_ACC_WriteReg
 4706 1aa4 0346     		mov	r3, r0
 4707 1aa6 002B     		cmp	r3, #0
 4708 1aa8 01D1     		bne	.L306
 4709              		.loc 1 1643 0
 4710 1aaa 0023     		movs	r3, #0
 4711 1aac 00E0     		b	.L307
 4712              	.L306:
 4713              		.loc 1 1645 0
 4714 1aae 0123     		movs	r3, #1
 4715              	.L307:
 4716              		.loc 1 1646 0
 4717 1ab0 1846     		mov	r0, r3
ARM GAS  /tmp/ccRrg1qB.s 			page 85


 4718 1ab2 05B0     		add	sp, sp, #20
 4719              		@ sp needed
 4720 1ab4 5DF804FB 		ldr	pc, [sp], #4
 4721              		.cfi_endproc
 4722              	.LFE343:
 4723              		.size	LSM303AGR_ACC_W_FIFO_EN, .-LSM303AGR_ACC_W_FIFO_EN
 4724              		.align	2
 4725 1ab8 AFF30080 		.p2align 4,,15
 4725      AFF30080 
 4726              		.global	LSM303AGR_ACC_R_FIFO_EN
 4727              		.thumb
 4728              		.thumb_func
 4729              		.type	LSM303AGR_ACC_R_FIFO_EN, %function
 4730              	LSM303AGR_ACC_R_FIFO_EN:
 4731              	.LFB344:
 4732              		.loc 1 1656 0
 4733              		.cfi_startproc
 4734              		@ args = 0, pretend = 0, frame = 8
 4735              		@ frame_needed = 0, uses_anonymous_args = 0
 4736 1ac0 00B5     		push	{lr}
 4737              		.cfi_def_cfa_offset 4
 4738              		.cfi_offset 14, -4
 4739 1ac2 83B0     		sub	sp, sp, #12
 4740              		.cfi_def_cfa_offset 16
 4741 1ac4 0190     		str	r0, [sp, #4]
 4742 1ac6 0091     		str	r1, [sp]
 4743              		.loc 1 1657 0
 4744 1ac8 0198     		ldr	r0, [sp, #4]
 4745 1aca 2421     		movs	r1, #36
 4746 1acc 009A     		ldr	r2, [sp]
 4747 1ace 0123     		movs	r3, #1
 4748 1ad0 FFF7FEFF 		bl	LSM303AGR_ACC_ReadReg
 4749 1ad4 0346     		mov	r3, r0
 4750 1ad6 002B     		cmp	r3, #0
 4751 1ad8 01D1     		bne	.L309
 4752              		.loc 1 1658 0
 4753 1ada 0023     		movs	r3, #0
 4754 1adc 07E0     		b	.L310
 4755              	.L309:
 4756              		.loc 1 1660 0
 4757 1ade 009B     		ldr	r3, [sp]
 4758 1ae0 1B78     		ldrb	r3, [r3]	@ zero_extendqisi2
 4759 1ae2 03F04003 		and	r3, r3, #64
 4760 1ae6 DAB2     		uxtb	r2, r3
 4761 1ae8 009B     		ldr	r3, [sp]
 4762 1aea 1A70     		strb	r2, [r3]
 4763              		.loc 1 1662 0
 4764 1aec 0123     		movs	r3, #1
 4765              	.L310:
 4766              		.loc 1 1663 0
 4767 1aee 1846     		mov	r0, r3
 4768 1af0 03B0     		add	sp, sp, #12
 4769              		@ sp needed
 4770 1af2 5DF804FB 		ldr	pc, [sp], #4
 4771              		.cfi_endproc
 4772              	.LFE344:
 4773              		.size	LSM303AGR_ACC_R_FIFO_EN, .-LSM303AGR_ACC_R_FIFO_EN
ARM GAS  /tmp/ccRrg1qB.s 			page 86


 4774 1af6 00BF     		.align	2
 4775 1af8 AFF30080 		.p2align 4,,15
 4775      AFF30080 
 4776              		.global	LSM303AGR_ACC_W_RebootMemory
 4777              		.thumb
 4778              		.thumb_func
 4779              		.type	LSM303AGR_ACC_W_RebootMemory, %function
 4780              	LSM303AGR_ACC_W_RebootMemory:
 4781              	.LFB345:
 4782              		.loc 1 1673 0
 4783              		.cfi_startproc
 4784              		@ args = 0, pretend = 0, frame = 16
 4785              		@ frame_needed = 0, uses_anonymous_args = 0
 4786 1b00 00B5     		push	{lr}
 4787              		.cfi_def_cfa_offset 4
 4788              		.cfi_offset 14, -4
 4789 1b02 85B0     		sub	sp, sp, #20
 4790              		.cfi_def_cfa_offset 24
 4791 1b04 0190     		str	r0, [sp, #4]
 4792 1b06 0B46     		mov	r3, r1
 4793 1b08 8DF80330 		strb	r3, [sp, #3]
 4794              		.loc 1 1676 0
 4795 1b0c 0DF10F03 		add	r3, sp, #15
 4796 1b10 0198     		ldr	r0, [sp, #4]
 4797 1b12 2421     		movs	r1, #36
 4798 1b14 1A46     		mov	r2, r3
 4799 1b16 0123     		movs	r3, #1
 4800 1b18 FFF7FEFF 		bl	LSM303AGR_ACC_ReadReg
 4801 1b1c 0346     		mov	r3, r0
 4802 1b1e 002B     		cmp	r3, #0
 4803 1b20 01D1     		bne	.L312
 4804              		.loc 1 1677 0
 4805 1b22 0023     		movs	r3, #0
 4806 1b24 1CE0     		b	.L315
 4807              	.L312:
 4808              		.loc 1 1679 0
 4809 1b26 9DF80F30 		ldrb	r3, [sp, #15]	@ zero_extendqisi2
 4810 1b2a 03F07F03 		and	r3, r3, #127
 4811 1b2e DBB2     		uxtb	r3, r3
 4812 1b30 8DF80F30 		strb	r3, [sp, #15]
 4813              		.loc 1 1680 0
 4814 1b34 9DF80F20 		ldrb	r2, [sp, #15]	@ zero_extendqisi2
 4815 1b38 9DF80330 		ldrb	r3, [sp, #3]
 4816 1b3c 1343     		orrs	r3, r3, r2
 4817 1b3e DBB2     		uxtb	r3, r3
 4818 1b40 8DF80F30 		strb	r3, [sp, #15]
 4819              		.loc 1 1682 0
 4820 1b44 0DF10F03 		add	r3, sp, #15
 4821 1b48 0198     		ldr	r0, [sp, #4]
 4822 1b4a 2421     		movs	r1, #36
 4823 1b4c 1A46     		mov	r2, r3
 4824 1b4e 0123     		movs	r3, #1
 4825 1b50 FFF7FEFF 		bl	LSM303AGR_ACC_WriteReg
 4826 1b54 0346     		mov	r3, r0
 4827 1b56 002B     		cmp	r3, #0
 4828 1b58 01D1     		bne	.L314
 4829              		.loc 1 1683 0
ARM GAS  /tmp/ccRrg1qB.s 			page 87


 4830 1b5a 0023     		movs	r3, #0
 4831 1b5c 00E0     		b	.L315
 4832              	.L314:
 4833              		.loc 1 1685 0
 4834 1b5e 0123     		movs	r3, #1
 4835              	.L315:
 4836              		.loc 1 1686 0
 4837 1b60 1846     		mov	r0, r3
 4838 1b62 05B0     		add	sp, sp, #20
 4839              		@ sp needed
 4840 1b64 5DF804FB 		ldr	pc, [sp], #4
 4841              		.cfi_endproc
 4842              	.LFE345:
 4843              		.size	LSM303AGR_ACC_W_RebootMemory, .-LSM303AGR_ACC_W_RebootMemory
 4844              		.align	2
 4845 1b68 AFF30080 		.p2align 4,,15
 4845      AFF30080 
 4846              		.global	LSM303AGR_ACC_R_RebootMemory
 4847              		.thumb
 4848              		.thumb_func
 4849              		.type	LSM303AGR_ACC_R_RebootMemory, %function
 4850              	LSM303AGR_ACC_R_RebootMemory:
 4851              	.LFB346:
 4852              		.loc 1 1696 0
 4853              		.cfi_startproc
 4854              		@ args = 0, pretend = 0, frame = 8
 4855              		@ frame_needed = 0, uses_anonymous_args = 0
 4856 1b70 00B5     		push	{lr}
 4857              		.cfi_def_cfa_offset 4
 4858              		.cfi_offset 14, -4
 4859 1b72 83B0     		sub	sp, sp, #12
 4860              		.cfi_def_cfa_offset 16
 4861 1b74 0190     		str	r0, [sp, #4]
 4862 1b76 0091     		str	r1, [sp]
 4863              		.loc 1 1697 0
 4864 1b78 0198     		ldr	r0, [sp, #4]
 4865 1b7a 2421     		movs	r1, #36
 4866 1b7c 009A     		ldr	r2, [sp]
 4867 1b7e 0123     		movs	r3, #1
 4868 1b80 FFF7FEFF 		bl	LSM303AGR_ACC_ReadReg
 4869 1b84 0346     		mov	r3, r0
 4870 1b86 002B     		cmp	r3, #0
 4871 1b88 01D1     		bne	.L317
 4872              		.loc 1 1698 0
 4873 1b8a 0023     		movs	r3, #0
 4874 1b8c 07E0     		b	.L318
 4875              	.L317:
 4876              		.loc 1 1700 0
 4877 1b8e 009B     		ldr	r3, [sp]
 4878 1b90 1B78     		ldrb	r3, [r3]	@ zero_extendqisi2
 4879 1b92 23F07F03 		bic	r3, r3, #127
 4880 1b96 DAB2     		uxtb	r2, r3
 4881 1b98 009B     		ldr	r3, [sp]
 4882 1b9a 1A70     		strb	r2, [r3]
 4883              		.loc 1 1702 0
 4884 1b9c 0123     		movs	r3, #1
 4885              	.L318:
ARM GAS  /tmp/ccRrg1qB.s 			page 88


 4886              		.loc 1 1703 0
 4887 1b9e 1846     		mov	r0, r3
 4888 1ba0 03B0     		add	sp, sp, #12
 4889              		@ sp needed
 4890 1ba2 5DF804FB 		ldr	pc, [sp], #4
 4891              		.cfi_endproc
 4892              	.LFE346:
 4893              		.size	LSM303AGR_ACC_R_RebootMemory, .-LSM303AGR_ACC_R_RebootMemory
 4894 1ba6 00BF     		.align	2
 4895 1ba8 AFF30080 		.p2align 4,,15
 4895      AFF30080 
 4896              		.global	LSM303AGR_ACC_W_IntActive
 4897              		.thumb
 4898              		.thumb_func
 4899              		.type	LSM303AGR_ACC_W_IntActive, %function
 4900              	LSM303AGR_ACC_W_IntActive:
 4901              	.LFB347:
 4902              		.loc 1 1713 0
 4903              		.cfi_startproc
 4904              		@ args = 0, pretend = 0, frame = 16
 4905              		@ frame_needed = 0, uses_anonymous_args = 0
 4906 1bb0 00B5     		push	{lr}
 4907              		.cfi_def_cfa_offset 4
 4908              		.cfi_offset 14, -4
 4909 1bb2 85B0     		sub	sp, sp, #20
 4910              		.cfi_def_cfa_offset 24
 4911 1bb4 0190     		str	r0, [sp, #4]
 4912 1bb6 0B46     		mov	r3, r1
 4913 1bb8 8DF80330 		strb	r3, [sp, #3]
 4914              		.loc 1 1716 0
 4915 1bbc 0DF10F03 		add	r3, sp, #15
 4916 1bc0 0198     		ldr	r0, [sp, #4]
 4917 1bc2 2521     		movs	r1, #37
 4918 1bc4 1A46     		mov	r2, r3
 4919 1bc6 0123     		movs	r3, #1
 4920 1bc8 FFF7FEFF 		bl	LSM303AGR_ACC_ReadReg
 4921 1bcc 0346     		mov	r3, r0
 4922 1bce 002B     		cmp	r3, #0
 4923 1bd0 01D1     		bne	.L320
 4924              		.loc 1 1717 0
 4925 1bd2 0023     		movs	r3, #0
 4926 1bd4 1CE0     		b	.L323
 4927              	.L320:
 4928              		.loc 1 1719 0
 4929 1bd6 9DF80F30 		ldrb	r3, [sp, #15]	@ zero_extendqisi2
 4930 1bda 23F00203 		bic	r3, r3, #2
 4931 1bde DBB2     		uxtb	r3, r3
 4932 1be0 8DF80F30 		strb	r3, [sp, #15]
 4933              		.loc 1 1720 0
 4934 1be4 9DF80F20 		ldrb	r2, [sp, #15]	@ zero_extendqisi2
 4935 1be8 9DF80330 		ldrb	r3, [sp, #3]
 4936 1bec 1343     		orrs	r3, r3, r2
 4937 1bee DBB2     		uxtb	r3, r3
 4938 1bf0 8DF80F30 		strb	r3, [sp, #15]
 4939              		.loc 1 1722 0
 4940 1bf4 0DF10F03 		add	r3, sp, #15
 4941 1bf8 0198     		ldr	r0, [sp, #4]
ARM GAS  /tmp/ccRrg1qB.s 			page 89


 4942 1bfa 2521     		movs	r1, #37
 4943 1bfc 1A46     		mov	r2, r3
 4944 1bfe 0123     		movs	r3, #1
 4945 1c00 FFF7FEFF 		bl	LSM303AGR_ACC_WriteReg
 4946 1c04 0346     		mov	r3, r0
 4947 1c06 002B     		cmp	r3, #0
 4948 1c08 01D1     		bne	.L322
 4949              		.loc 1 1723 0
 4950 1c0a 0023     		movs	r3, #0
 4951 1c0c 00E0     		b	.L323
 4952              	.L322:
 4953              		.loc 1 1725 0
 4954 1c0e 0123     		movs	r3, #1
 4955              	.L323:
 4956              		.loc 1 1726 0
 4957 1c10 1846     		mov	r0, r3
 4958 1c12 05B0     		add	sp, sp, #20
 4959              		@ sp needed
 4960 1c14 5DF804FB 		ldr	pc, [sp], #4
 4961              		.cfi_endproc
 4962              	.LFE347:
 4963              		.size	LSM303AGR_ACC_W_IntActive, .-LSM303AGR_ACC_W_IntActive
 4964              		.align	2
 4965 1c18 AFF30080 		.p2align 4,,15
 4965      AFF30080 
 4966              		.global	LSM303AGR_ACC_R_IntActive
 4967              		.thumb
 4968              		.thumb_func
 4969              		.type	LSM303AGR_ACC_R_IntActive, %function
 4970              	LSM303AGR_ACC_R_IntActive:
 4971              	.LFB348:
 4972              		.loc 1 1736 0
 4973              		.cfi_startproc
 4974              		@ args = 0, pretend = 0, frame = 8
 4975              		@ frame_needed = 0, uses_anonymous_args = 0
 4976 1c20 00B5     		push	{lr}
 4977              		.cfi_def_cfa_offset 4
 4978              		.cfi_offset 14, -4
 4979 1c22 83B0     		sub	sp, sp, #12
 4980              		.cfi_def_cfa_offset 16
 4981 1c24 0190     		str	r0, [sp, #4]
 4982 1c26 0091     		str	r1, [sp]
 4983              		.loc 1 1737 0
 4984 1c28 0198     		ldr	r0, [sp, #4]
 4985 1c2a 2521     		movs	r1, #37
 4986 1c2c 009A     		ldr	r2, [sp]
 4987 1c2e 0123     		movs	r3, #1
 4988 1c30 FFF7FEFF 		bl	LSM303AGR_ACC_ReadReg
 4989 1c34 0346     		mov	r3, r0
 4990 1c36 002B     		cmp	r3, #0
 4991 1c38 01D1     		bne	.L325
 4992              		.loc 1 1738 0
 4993 1c3a 0023     		movs	r3, #0
 4994 1c3c 07E0     		b	.L326
 4995              	.L325:
 4996              		.loc 1 1740 0
 4997 1c3e 009B     		ldr	r3, [sp]
ARM GAS  /tmp/ccRrg1qB.s 			page 90


 4998 1c40 1B78     		ldrb	r3, [r3]	@ zero_extendqisi2
 4999 1c42 03F00203 		and	r3, r3, #2
 5000 1c46 DAB2     		uxtb	r2, r3
 5001 1c48 009B     		ldr	r3, [sp]
 5002 1c4a 1A70     		strb	r2, [r3]
 5003              		.loc 1 1742 0
 5004 1c4c 0123     		movs	r3, #1
 5005              	.L326:
 5006              		.loc 1 1743 0
 5007 1c4e 1846     		mov	r0, r3
 5008 1c50 03B0     		add	sp, sp, #12
 5009              		@ sp needed
 5010 1c52 5DF804FB 		ldr	pc, [sp], #4
 5011              		.cfi_endproc
 5012              	.LFE348:
 5013              		.size	LSM303AGR_ACC_R_IntActive, .-LSM303AGR_ACC_R_IntActive
 5014 1c56 00BF     		.align	2
 5015 1c58 AFF30080 		.p2align 4,,15
 5015      AFF30080 
 5016              		.global	LSM303AGR_ACC_W_P2_ACT
 5017              		.thumb
 5018              		.thumb_func
 5019              		.type	LSM303AGR_ACC_W_P2_ACT, %function
 5020              	LSM303AGR_ACC_W_P2_ACT:
 5021              	.LFB349:
 5022              		.loc 1 1753 0
 5023              		.cfi_startproc
 5024              		@ args = 0, pretend = 0, frame = 16
 5025              		@ frame_needed = 0, uses_anonymous_args = 0
 5026 1c60 00B5     		push	{lr}
 5027              		.cfi_def_cfa_offset 4
 5028              		.cfi_offset 14, -4
 5029 1c62 85B0     		sub	sp, sp, #20
 5030              		.cfi_def_cfa_offset 24
 5031 1c64 0190     		str	r0, [sp, #4]
 5032 1c66 0B46     		mov	r3, r1
 5033 1c68 8DF80330 		strb	r3, [sp, #3]
 5034              		.loc 1 1756 0
 5035 1c6c 0DF10F03 		add	r3, sp, #15
 5036 1c70 0198     		ldr	r0, [sp, #4]
 5037 1c72 2521     		movs	r1, #37
 5038 1c74 1A46     		mov	r2, r3
 5039 1c76 0123     		movs	r3, #1
 5040 1c78 FFF7FEFF 		bl	LSM303AGR_ACC_ReadReg
 5041 1c7c 0346     		mov	r3, r0
 5042 1c7e 002B     		cmp	r3, #0
 5043 1c80 01D1     		bne	.L328
 5044              		.loc 1 1757 0
 5045 1c82 0023     		movs	r3, #0
 5046 1c84 1CE0     		b	.L331
 5047              	.L328:
 5048              		.loc 1 1759 0
 5049 1c86 9DF80F30 		ldrb	r3, [sp, #15]	@ zero_extendqisi2
 5050 1c8a 23F00803 		bic	r3, r3, #8
 5051 1c8e DBB2     		uxtb	r3, r3
 5052 1c90 8DF80F30 		strb	r3, [sp, #15]
 5053              		.loc 1 1760 0
ARM GAS  /tmp/ccRrg1qB.s 			page 91


 5054 1c94 9DF80F20 		ldrb	r2, [sp, #15]	@ zero_extendqisi2
 5055 1c98 9DF80330 		ldrb	r3, [sp, #3]
 5056 1c9c 1343     		orrs	r3, r3, r2
 5057 1c9e DBB2     		uxtb	r3, r3
 5058 1ca0 8DF80F30 		strb	r3, [sp, #15]
 5059              		.loc 1 1762 0
 5060 1ca4 0DF10F03 		add	r3, sp, #15
 5061 1ca8 0198     		ldr	r0, [sp, #4]
 5062 1caa 2521     		movs	r1, #37
 5063 1cac 1A46     		mov	r2, r3
 5064 1cae 0123     		movs	r3, #1
 5065 1cb0 FFF7FEFF 		bl	LSM303AGR_ACC_WriteReg
 5066 1cb4 0346     		mov	r3, r0
 5067 1cb6 002B     		cmp	r3, #0
 5068 1cb8 01D1     		bne	.L330
 5069              		.loc 1 1763 0
 5070 1cba 0023     		movs	r3, #0
 5071 1cbc 00E0     		b	.L331
 5072              	.L330:
 5073              		.loc 1 1765 0
 5074 1cbe 0123     		movs	r3, #1
 5075              	.L331:
 5076              		.loc 1 1766 0
 5077 1cc0 1846     		mov	r0, r3
 5078 1cc2 05B0     		add	sp, sp, #20
 5079              		@ sp needed
 5080 1cc4 5DF804FB 		ldr	pc, [sp], #4
 5081              		.cfi_endproc
 5082              	.LFE349:
 5083              		.size	LSM303AGR_ACC_W_P2_ACT, .-LSM303AGR_ACC_W_P2_ACT
 5084              		.align	2
 5085 1cc8 AFF30080 		.p2align 4,,15
 5085      AFF30080 
 5086              		.global	LSM303AGR_ACC_R_P2_ACT
 5087              		.thumb
 5088              		.thumb_func
 5089              		.type	LSM303AGR_ACC_R_P2_ACT, %function
 5090              	LSM303AGR_ACC_R_P2_ACT:
 5091              	.LFB350:
 5092              		.loc 1 1776 0
 5093              		.cfi_startproc
 5094              		@ args = 0, pretend = 0, frame = 8
 5095              		@ frame_needed = 0, uses_anonymous_args = 0
 5096 1cd0 00B5     		push	{lr}
 5097              		.cfi_def_cfa_offset 4
 5098              		.cfi_offset 14, -4
 5099 1cd2 83B0     		sub	sp, sp, #12
 5100              		.cfi_def_cfa_offset 16
 5101 1cd4 0190     		str	r0, [sp, #4]
 5102 1cd6 0091     		str	r1, [sp]
 5103              		.loc 1 1777 0
 5104 1cd8 0198     		ldr	r0, [sp, #4]
 5105 1cda 2521     		movs	r1, #37
 5106 1cdc 009A     		ldr	r2, [sp]
 5107 1cde 0123     		movs	r3, #1
 5108 1ce0 FFF7FEFF 		bl	LSM303AGR_ACC_ReadReg
 5109 1ce4 0346     		mov	r3, r0
ARM GAS  /tmp/ccRrg1qB.s 			page 92


 5110 1ce6 002B     		cmp	r3, #0
 5111 1ce8 01D1     		bne	.L333
 5112              		.loc 1 1778 0
 5113 1cea 0023     		movs	r3, #0
 5114 1cec 07E0     		b	.L334
 5115              	.L333:
 5116              		.loc 1 1780 0
 5117 1cee 009B     		ldr	r3, [sp]
 5118 1cf0 1B78     		ldrb	r3, [r3]	@ zero_extendqisi2
 5119 1cf2 03F00803 		and	r3, r3, #8
 5120 1cf6 DAB2     		uxtb	r2, r3
 5121 1cf8 009B     		ldr	r3, [sp]
 5122 1cfa 1A70     		strb	r2, [r3]
 5123              		.loc 1 1782 0
 5124 1cfc 0123     		movs	r3, #1
 5125              	.L334:
 5126              		.loc 1 1783 0
 5127 1cfe 1846     		mov	r0, r3
 5128 1d00 03B0     		add	sp, sp, #12
 5129              		@ sp needed
 5130 1d02 5DF804FB 		ldr	pc, [sp], #4
 5131              		.cfi_endproc
 5132              	.LFE350:
 5133              		.size	LSM303AGR_ACC_R_P2_ACT, .-LSM303AGR_ACC_R_P2_ACT
 5134 1d06 00BF     		.align	2
 5135 1d08 AFF30080 		.p2align 4,,15
 5135      AFF30080 
 5136              		.global	LSM303AGR_ACC_W_Boot_on_INT2
 5137              		.thumb
 5138              		.thumb_func
 5139              		.type	LSM303AGR_ACC_W_Boot_on_INT2, %function
 5140              	LSM303AGR_ACC_W_Boot_on_INT2:
 5141              	.LFB351:
 5142              		.loc 1 1793 0
 5143              		.cfi_startproc
 5144              		@ args = 0, pretend = 0, frame = 16
 5145              		@ frame_needed = 0, uses_anonymous_args = 0
 5146 1d10 00B5     		push	{lr}
 5147              		.cfi_def_cfa_offset 4
 5148              		.cfi_offset 14, -4
 5149 1d12 85B0     		sub	sp, sp, #20
 5150              		.cfi_def_cfa_offset 24
 5151 1d14 0190     		str	r0, [sp, #4]
 5152 1d16 0B46     		mov	r3, r1
 5153 1d18 8DF80330 		strb	r3, [sp, #3]
 5154              		.loc 1 1796 0
 5155 1d1c 0DF10F03 		add	r3, sp, #15
 5156 1d20 0198     		ldr	r0, [sp, #4]
 5157 1d22 2521     		movs	r1, #37
 5158 1d24 1A46     		mov	r2, r3
 5159 1d26 0123     		movs	r3, #1
 5160 1d28 FFF7FEFF 		bl	LSM303AGR_ACC_ReadReg
 5161 1d2c 0346     		mov	r3, r0
 5162 1d2e 002B     		cmp	r3, #0
 5163 1d30 01D1     		bne	.L336
 5164              		.loc 1 1797 0
 5165 1d32 0023     		movs	r3, #0
ARM GAS  /tmp/ccRrg1qB.s 			page 93


 5166 1d34 1CE0     		b	.L339
 5167              	.L336:
 5168              		.loc 1 1799 0
 5169 1d36 9DF80F30 		ldrb	r3, [sp, #15]	@ zero_extendqisi2
 5170 1d3a 23F01003 		bic	r3, r3, #16
 5171 1d3e DBB2     		uxtb	r3, r3
 5172 1d40 8DF80F30 		strb	r3, [sp, #15]
 5173              		.loc 1 1800 0
 5174 1d44 9DF80F20 		ldrb	r2, [sp, #15]	@ zero_extendqisi2
 5175 1d48 9DF80330 		ldrb	r3, [sp, #3]
 5176 1d4c 1343     		orrs	r3, r3, r2
 5177 1d4e DBB2     		uxtb	r3, r3
 5178 1d50 8DF80F30 		strb	r3, [sp, #15]
 5179              		.loc 1 1802 0
 5180 1d54 0DF10F03 		add	r3, sp, #15
 5181 1d58 0198     		ldr	r0, [sp, #4]
 5182 1d5a 2521     		movs	r1, #37
 5183 1d5c 1A46     		mov	r2, r3
 5184 1d5e 0123     		movs	r3, #1
 5185 1d60 FFF7FEFF 		bl	LSM303AGR_ACC_WriteReg
 5186 1d64 0346     		mov	r3, r0
 5187 1d66 002B     		cmp	r3, #0
 5188 1d68 01D1     		bne	.L338
 5189              		.loc 1 1803 0
 5190 1d6a 0023     		movs	r3, #0
 5191 1d6c 00E0     		b	.L339
 5192              	.L338:
 5193              		.loc 1 1805 0
 5194 1d6e 0123     		movs	r3, #1
 5195              	.L339:
 5196              		.loc 1 1806 0
 5197 1d70 1846     		mov	r0, r3
 5198 1d72 05B0     		add	sp, sp, #20
 5199              		@ sp needed
 5200 1d74 5DF804FB 		ldr	pc, [sp], #4
 5201              		.cfi_endproc
 5202              	.LFE351:
 5203              		.size	LSM303AGR_ACC_W_Boot_on_INT2, .-LSM303AGR_ACC_W_Boot_on_INT2
 5204              		.align	2
 5205 1d78 AFF30080 		.p2align 4,,15
 5205      AFF30080 
 5206              		.global	LSM303AGR_ACC_R_Boot_on_INT2
 5207              		.thumb
 5208              		.thumb_func
 5209              		.type	LSM303AGR_ACC_R_Boot_on_INT2, %function
 5210              	LSM303AGR_ACC_R_Boot_on_INT2:
 5211              	.LFB352:
 5212              		.loc 1 1816 0
 5213              		.cfi_startproc
 5214              		@ args = 0, pretend = 0, frame = 8
 5215              		@ frame_needed = 0, uses_anonymous_args = 0
 5216 1d80 00B5     		push	{lr}
 5217              		.cfi_def_cfa_offset 4
 5218              		.cfi_offset 14, -4
 5219 1d82 83B0     		sub	sp, sp, #12
 5220              		.cfi_def_cfa_offset 16
 5221 1d84 0190     		str	r0, [sp, #4]
ARM GAS  /tmp/ccRrg1qB.s 			page 94


 5222 1d86 0091     		str	r1, [sp]
 5223              		.loc 1 1817 0
 5224 1d88 0198     		ldr	r0, [sp, #4]
 5225 1d8a 2521     		movs	r1, #37
 5226 1d8c 009A     		ldr	r2, [sp]
 5227 1d8e 0123     		movs	r3, #1
 5228 1d90 FFF7FEFF 		bl	LSM303AGR_ACC_ReadReg
 5229 1d94 0346     		mov	r3, r0
 5230 1d96 002B     		cmp	r3, #0
 5231 1d98 01D1     		bne	.L341
 5232              		.loc 1 1818 0
 5233 1d9a 0023     		movs	r3, #0
 5234 1d9c 07E0     		b	.L342
 5235              	.L341:
 5236              		.loc 1 1820 0
 5237 1d9e 009B     		ldr	r3, [sp]
 5238 1da0 1B78     		ldrb	r3, [r3]	@ zero_extendqisi2
 5239 1da2 03F01003 		and	r3, r3, #16
 5240 1da6 DAB2     		uxtb	r2, r3
 5241 1da8 009B     		ldr	r3, [sp]
 5242 1daa 1A70     		strb	r2, [r3]
 5243              		.loc 1 1822 0
 5244 1dac 0123     		movs	r3, #1
 5245              	.L342:
 5246              		.loc 1 1823 0
 5247 1dae 1846     		mov	r0, r3
 5248 1db0 03B0     		add	sp, sp, #12
 5249              		@ sp needed
 5250 1db2 5DF804FB 		ldr	pc, [sp], #4
 5251              		.cfi_endproc
 5252              	.LFE352:
 5253              		.size	LSM303AGR_ACC_R_Boot_on_INT2, .-LSM303AGR_ACC_R_Boot_on_INT2
 5254 1db6 00BF     		.align	2
 5255 1db8 AFF30080 		.p2align 4,,15
 5255      AFF30080 
 5256              		.global	LSM303AGR_ACC_W_I2_on_INT2
 5257              		.thumb
 5258              		.thumb_func
 5259              		.type	LSM303AGR_ACC_W_I2_on_INT2, %function
 5260              	LSM303AGR_ACC_W_I2_on_INT2:
 5261              	.LFB353:
 5262              		.loc 1 1833 0
 5263              		.cfi_startproc
 5264              		@ args = 0, pretend = 0, frame = 16
 5265              		@ frame_needed = 0, uses_anonymous_args = 0
 5266 1dc0 00B5     		push	{lr}
 5267              		.cfi_def_cfa_offset 4
 5268              		.cfi_offset 14, -4
 5269 1dc2 85B0     		sub	sp, sp, #20
 5270              		.cfi_def_cfa_offset 24
 5271 1dc4 0190     		str	r0, [sp, #4]
 5272 1dc6 0B46     		mov	r3, r1
 5273 1dc8 8DF80330 		strb	r3, [sp, #3]
 5274              		.loc 1 1836 0
 5275 1dcc 0DF10F03 		add	r3, sp, #15
 5276 1dd0 0198     		ldr	r0, [sp, #4]
 5277 1dd2 2521     		movs	r1, #37
ARM GAS  /tmp/ccRrg1qB.s 			page 95


 5278 1dd4 1A46     		mov	r2, r3
 5279 1dd6 0123     		movs	r3, #1
 5280 1dd8 FFF7FEFF 		bl	LSM303AGR_ACC_ReadReg
 5281 1ddc 0346     		mov	r3, r0
 5282 1dde 002B     		cmp	r3, #0
 5283 1de0 01D1     		bne	.L344
 5284              		.loc 1 1837 0
 5285 1de2 0023     		movs	r3, #0
 5286 1de4 1CE0     		b	.L347
 5287              	.L344:
 5288              		.loc 1 1839 0
 5289 1de6 9DF80F30 		ldrb	r3, [sp, #15]	@ zero_extendqisi2
 5290 1dea 23F02003 		bic	r3, r3, #32
 5291 1dee DBB2     		uxtb	r3, r3
 5292 1df0 8DF80F30 		strb	r3, [sp, #15]
 5293              		.loc 1 1840 0
 5294 1df4 9DF80F20 		ldrb	r2, [sp, #15]	@ zero_extendqisi2
 5295 1df8 9DF80330 		ldrb	r3, [sp, #3]
 5296 1dfc 1343     		orrs	r3, r3, r2
 5297 1dfe DBB2     		uxtb	r3, r3
 5298 1e00 8DF80F30 		strb	r3, [sp, #15]
 5299              		.loc 1 1842 0
 5300 1e04 0DF10F03 		add	r3, sp, #15
 5301 1e08 0198     		ldr	r0, [sp, #4]
 5302 1e0a 2521     		movs	r1, #37
 5303 1e0c 1A46     		mov	r2, r3
 5304 1e0e 0123     		movs	r3, #1
 5305 1e10 FFF7FEFF 		bl	LSM303AGR_ACC_WriteReg
 5306 1e14 0346     		mov	r3, r0
 5307 1e16 002B     		cmp	r3, #0
 5308 1e18 01D1     		bne	.L346
 5309              		.loc 1 1843 0
 5310 1e1a 0023     		movs	r3, #0
 5311 1e1c 00E0     		b	.L347
 5312              	.L346:
 5313              		.loc 1 1845 0
 5314 1e1e 0123     		movs	r3, #1
 5315              	.L347:
 5316              		.loc 1 1846 0
 5317 1e20 1846     		mov	r0, r3
 5318 1e22 05B0     		add	sp, sp, #20
 5319              		@ sp needed
 5320 1e24 5DF804FB 		ldr	pc, [sp], #4
 5321              		.cfi_endproc
 5322              	.LFE353:
 5323              		.size	LSM303AGR_ACC_W_I2_on_INT2, .-LSM303AGR_ACC_W_I2_on_INT2
 5324              		.align	2
 5325 1e28 AFF30080 		.p2align 4,,15
 5325      AFF30080 
 5326              		.global	LSM303AGR_ACC_R_I2_on_INT2
 5327              		.thumb
 5328              		.thumb_func
 5329              		.type	LSM303AGR_ACC_R_I2_on_INT2, %function
 5330              	LSM303AGR_ACC_R_I2_on_INT2:
 5331              	.LFB354:
 5332              		.loc 1 1856 0
 5333              		.cfi_startproc
ARM GAS  /tmp/ccRrg1qB.s 			page 96


 5334              		@ args = 0, pretend = 0, frame = 8
 5335              		@ frame_needed = 0, uses_anonymous_args = 0
 5336 1e30 00B5     		push	{lr}
 5337              		.cfi_def_cfa_offset 4
 5338              		.cfi_offset 14, -4
 5339 1e32 83B0     		sub	sp, sp, #12
 5340              		.cfi_def_cfa_offset 16
 5341 1e34 0190     		str	r0, [sp, #4]
 5342 1e36 0091     		str	r1, [sp]
 5343              		.loc 1 1857 0
 5344 1e38 0198     		ldr	r0, [sp, #4]
 5345 1e3a 2521     		movs	r1, #37
 5346 1e3c 009A     		ldr	r2, [sp]
 5347 1e3e 0123     		movs	r3, #1
 5348 1e40 FFF7FEFF 		bl	LSM303AGR_ACC_ReadReg
 5349 1e44 0346     		mov	r3, r0
 5350 1e46 002B     		cmp	r3, #0
 5351 1e48 01D1     		bne	.L349
 5352              		.loc 1 1858 0
 5353 1e4a 0023     		movs	r3, #0
 5354 1e4c 07E0     		b	.L350
 5355              	.L349:
 5356              		.loc 1 1860 0
 5357 1e4e 009B     		ldr	r3, [sp]
 5358 1e50 1B78     		ldrb	r3, [r3]	@ zero_extendqisi2
 5359 1e52 03F02003 		and	r3, r3, #32
 5360 1e56 DAB2     		uxtb	r2, r3
 5361 1e58 009B     		ldr	r3, [sp]
 5362 1e5a 1A70     		strb	r2, [r3]
 5363              		.loc 1 1862 0
 5364 1e5c 0123     		movs	r3, #1
 5365              	.L350:
 5366              		.loc 1 1863 0
 5367 1e5e 1846     		mov	r0, r3
 5368 1e60 03B0     		add	sp, sp, #12
 5369              		@ sp needed
 5370 1e62 5DF804FB 		ldr	pc, [sp], #4
 5371              		.cfi_endproc
 5372              	.LFE354:
 5373              		.size	LSM303AGR_ACC_R_I2_on_INT2, .-LSM303AGR_ACC_R_I2_on_INT2
 5374 1e66 00BF     		.align	2
 5375 1e68 AFF30080 		.p2align 4,,15
 5375      AFF30080 
 5376              		.global	LSM303AGR_ACC_W_I2_on_INT1
 5377              		.thumb
 5378              		.thumb_func
 5379              		.type	LSM303AGR_ACC_W_I2_on_INT1, %function
 5380              	LSM303AGR_ACC_W_I2_on_INT1:
 5381              	.LFB355:
 5382              		.loc 1 1873 0
 5383              		.cfi_startproc
 5384              		@ args = 0, pretend = 0, frame = 16
 5385              		@ frame_needed = 0, uses_anonymous_args = 0
 5386 1e70 00B5     		push	{lr}
 5387              		.cfi_def_cfa_offset 4
 5388              		.cfi_offset 14, -4
 5389 1e72 85B0     		sub	sp, sp, #20
ARM GAS  /tmp/ccRrg1qB.s 			page 97


 5390              		.cfi_def_cfa_offset 24
 5391 1e74 0190     		str	r0, [sp, #4]
 5392 1e76 0B46     		mov	r3, r1
 5393 1e78 8DF80330 		strb	r3, [sp, #3]
 5394              		.loc 1 1876 0
 5395 1e7c 0DF10F03 		add	r3, sp, #15
 5396 1e80 0198     		ldr	r0, [sp, #4]
 5397 1e82 2521     		movs	r1, #37
 5398 1e84 1A46     		mov	r2, r3
 5399 1e86 0123     		movs	r3, #1
 5400 1e88 FFF7FEFF 		bl	LSM303AGR_ACC_ReadReg
 5401 1e8c 0346     		mov	r3, r0
 5402 1e8e 002B     		cmp	r3, #0
 5403 1e90 01D1     		bne	.L352
 5404              		.loc 1 1877 0
 5405 1e92 0023     		movs	r3, #0
 5406 1e94 1CE0     		b	.L355
 5407              	.L352:
 5408              		.loc 1 1879 0
 5409 1e96 9DF80F30 		ldrb	r3, [sp, #15]	@ zero_extendqisi2
 5410 1e9a 23F04003 		bic	r3, r3, #64
 5411 1e9e DBB2     		uxtb	r3, r3
 5412 1ea0 8DF80F30 		strb	r3, [sp, #15]
 5413              		.loc 1 1880 0
 5414 1ea4 9DF80F20 		ldrb	r2, [sp, #15]	@ zero_extendqisi2
 5415 1ea8 9DF80330 		ldrb	r3, [sp, #3]
 5416 1eac 1343     		orrs	r3, r3, r2
 5417 1eae DBB2     		uxtb	r3, r3
 5418 1eb0 8DF80F30 		strb	r3, [sp, #15]
 5419              		.loc 1 1882 0
 5420 1eb4 0DF10F03 		add	r3, sp, #15
 5421 1eb8 0198     		ldr	r0, [sp, #4]
 5422 1eba 2521     		movs	r1, #37
 5423 1ebc 1A46     		mov	r2, r3
 5424 1ebe 0123     		movs	r3, #1
 5425 1ec0 FFF7FEFF 		bl	LSM303AGR_ACC_WriteReg
 5426 1ec4 0346     		mov	r3, r0
 5427 1ec6 002B     		cmp	r3, #0
 5428 1ec8 01D1     		bne	.L354
 5429              		.loc 1 1883 0
 5430 1eca 0023     		movs	r3, #0
 5431 1ecc 00E0     		b	.L355
 5432              	.L354:
 5433              		.loc 1 1885 0
 5434 1ece 0123     		movs	r3, #1
 5435              	.L355:
 5436              		.loc 1 1886 0
 5437 1ed0 1846     		mov	r0, r3
 5438 1ed2 05B0     		add	sp, sp, #20
 5439              		@ sp needed
 5440 1ed4 5DF804FB 		ldr	pc, [sp], #4
 5441              		.cfi_endproc
 5442              	.LFE355:
 5443              		.size	LSM303AGR_ACC_W_I2_on_INT1, .-LSM303AGR_ACC_W_I2_on_INT1
 5444              		.align	2
 5445 1ed8 AFF30080 		.p2align 4,,15
 5445      AFF30080 
ARM GAS  /tmp/ccRrg1qB.s 			page 98


 5446              		.global	LSM303AGR_ACC_R_I2_on_INT1
 5447              		.thumb
 5448              		.thumb_func
 5449              		.type	LSM303AGR_ACC_R_I2_on_INT1, %function
 5450              	LSM303AGR_ACC_R_I2_on_INT1:
 5451              	.LFB356:
 5452              		.loc 1 1896 0
 5453              		.cfi_startproc
 5454              		@ args = 0, pretend = 0, frame = 8
 5455              		@ frame_needed = 0, uses_anonymous_args = 0
 5456 1ee0 00B5     		push	{lr}
 5457              		.cfi_def_cfa_offset 4
 5458              		.cfi_offset 14, -4
 5459 1ee2 83B0     		sub	sp, sp, #12
 5460              		.cfi_def_cfa_offset 16
 5461 1ee4 0190     		str	r0, [sp, #4]
 5462 1ee6 0091     		str	r1, [sp]
 5463              		.loc 1 1897 0
 5464 1ee8 0198     		ldr	r0, [sp, #4]
 5465 1eea 2521     		movs	r1, #37
 5466 1eec 009A     		ldr	r2, [sp]
 5467 1eee 0123     		movs	r3, #1
 5468 1ef0 FFF7FEFF 		bl	LSM303AGR_ACC_ReadReg
 5469 1ef4 0346     		mov	r3, r0
 5470 1ef6 002B     		cmp	r3, #0
 5471 1ef8 01D1     		bne	.L357
 5472              		.loc 1 1898 0
 5473 1efa 0023     		movs	r3, #0
 5474 1efc 07E0     		b	.L358
 5475              	.L357:
 5476              		.loc 1 1900 0
 5477 1efe 009B     		ldr	r3, [sp]
 5478 1f00 1B78     		ldrb	r3, [r3]	@ zero_extendqisi2
 5479 1f02 03F04003 		and	r3, r3, #64
 5480 1f06 DAB2     		uxtb	r2, r3
 5481 1f08 009B     		ldr	r3, [sp]
 5482 1f0a 1A70     		strb	r2, [r3]
 5483              		.loc 1 1902 0
 5484 1f0c 0123     		movs	r3, #1
 5485              	.L358:
 5486              		.loc 1 1903 0
 5487 1f0e 1846     		mov	r0, r3
 5488 1f10 03B0     		add	sp, sp, #12
 5489              		@ sp needed
 5490 1f12 5DF804FB 		ldr	pc, [sp], #4
 5491              		.cfi_endproc
 5492              	.LFE356:
 5493              		.size	LSM303AGR_ACC_R_I2_on_INT1, .-LSM303AGR_ACC_R_I2_on_INT1
 5494 1f16 00BF     		.align	2
 5495 1f18 AFF30080 		.p2align 4,,15
 5495      AFF30080 
 5496              		.global	LSM303AGR_ACC_W_Click_on_INT2
 5497              		.thumb
 5498              		.thumb_func
 5499              		.type	LSM303AGR_ACC_W_Click_on_INT2, %function
 5500              	LSM303AGR_ACC_W_Click_on_INT2:
 5501              	.LFB357:
ARM GAS  /tmp/ccRrg1qB.s 			page 99


 5502              		.loc 1 1913 0
 5503              		.cfi_startproc
 5504              		@ args = 0, pretend = 0, frame = 16
 5505              		@ frame_needed = 0, uses_anonymous_args = 0
 5506 1f20 00B5     		push	{lr}
 5507              		.cfi_def_cfa_offset 4
 5508              		.cfi_offset 14, -4
 5509 1f22 85B0     		sub	sp, sp, #20
 5510              		.cfi_def_cfa_offset 24
 5511 1f24 0190     		str	r0, [sp, #4]
 5512 1f26 0B46     		mov	r3, r1
 5513 1f28 8DF80330 		strb	r3, [sp, #3]
 5514              		.loc 1 1916 0
 5515 1f2c 0DF10F03 		add	r3, sp, #15
 5516 1f30 0198     		ldr	r0, [sp, #4]
 5517 1f32 2521     		movs	r1, #37
 5518 1f34 1A46     		mov	r2, r3
 5519 1f36 0123     		movs	r3, #1
 5520 1f38 FFF7FEFF 		bl	LSM303AGR_ACC_ReadReg
 5521 1f3c 0346     		mov	r3, r0
 5522 1f3e 002B     		cmp	r3, #0
 5523 1f40 01D1     		bne	.L360
 5524              		.loc 1 1917 0
 5525 1f42 0023     		movs	r3, #0
 5526 1f44 1CE0     		b	.L363
 5527              	.L360:
 5528              		.loc 1 1919 0
 5529 1f46 9DF80F30 		ldrb	r3, [sp, #15]	@ zero_extendqisi2
 5530 1f4a 03F07F03 		and	r3, r3, #127
 5531 1f4e DBB2     		uxtb	r3, r3
 5532 1f50 8DF80F30 		strb	r3, [sp, #15]
 5533              		.loc 1 1920 0
 5534 1f54 9DF80F20 		ldrb	r2, [sp, #15]	@ zero_extendqisi2
 5535 1f58 9DF80330 		ldrb	r3, [sp, #3]
 5536 1f5c 1343     		orrs	r3, r3, r2
 5537 1f5e DBB2     		uxtb	r3, r3
 5538 1f60 8DF80F30 		strb	r3, [sp, #15]
 5539              		.loc 1 1922 0
 5540 1f64 0DF10F03 		add	r3, sp, #15
 5541 1f68 0198     		ldr	r0, [sp, #4]
 5542 1f6a 2521     		movs	r1, #37
 5543 1f6c 1A46     		mov	r2, r3
 5544 1f6e 0123     		movs	r3, #1
 5545 1f70 FFF7FEFF 		bl	LSM303AGR_ACC_WriteReg
 5546 1f74 0346     		mov	r3, r0
 5547 1f76 002B     		cmp	r3, #0
 5548 1f78 01D1     		bne	.L362
 5549              		.loc 1 1923 0
 5550 1f7a 0023     		movs	r3, #0
 5551 1f7c 00E0     		b	.L363
 5552              	.L362:
 5553              		.loc 1 1925 0
 5554 1f7e 0123     		movs	r3, #1
 5555              	.L363:
 5556              		.loc 1 1926 0
 5557 1f80 1846     		mov	r0, r3
 5558 1f82 05B0     		add	sp, sp, #20
ARM GAS  /tmp/ccRrg1qB.s 			page 100


 5559              		@ sp needed
 5560 1f84 5DF804FB 		ldr	pc, [sp], #4
 5561              		.cfi_endproc
 5562              	.LFE357:
 5563              		.size	LSM303AGR_ACC_W_Click_on_INT2, .-LSM303AGR_ACC_W_Click_on_INT2
 5564              		.align	2
 5565 1f88 AFF30080 		.p2align 4,,15
 5565      AFF30080 
 5566              		.global	LSM303AGR_ACC_R_Click_on_INT2
 5567              		.thumb
 5568              		.thumb_func
 5569              		.type	LSM303AGR_ACC_R_Click_on_INT2, %function
 5570              	LSM303AGR_ACC_R_Click_on_INT2:
 5571              	.LFB358:
 5572              		.loc 1 1936 0
 5573              		.cfi_startproc
 5574              		@ args = 0, pretend = 0, frame = 8
 5575              		@ frame_needed = 0, uses_anonymous_args = 0
 5576 1f90 00B5     		push	{lr}
 5577              		.cfi_def_cfa_offset 4
 5578              		.cfi_offset 14, -4
 5579 1f92 83B0     		sub	sp, sp, #12
 5580              		.cfi_def_cfa_offset 16
 5581 1f94 0190     		str	r0, [sp, #4]
 5582 1f96 0091     		str	r1, [sp]
 5583              		.loc 1 1937 0
 5584 1f98 0198     		ldr	r0, [sp, #4]
 5585 1f9a 2521     		movs	r1, #37
 5586 1f9c 009A     		ldr	r2, [sp]
 5587 1f9e 0123     		movs	r3, #1
 5588 1fa0 FFF7FEFF 		bl	LSM303AGR_ACC_ReadReg
 5589 1fa4 0346     		mov	r3, r0
 5590 1fa6 002B     		cmp	r3, #0
 5591 1fa8 01D1     		bne	.L365
 5592              		.loc 1 1938 0
 5593 1faa 0023     		movs	r3, #0
 5594 1fac 07E0     		b	.L366
 5595              	.L365:
 5596              		.loc 1 1940 0
 5597 1fae 009B     		ldr	r3, [sp]
 5598 1fb0 1B78     		ldrb	r3, [r3]	@ zero_extendqisi2
 5599 1fb2 23F07F03 		bic	r3, r3, #127
 5600 1fb6 DAB2     		uxtb	r2, r3
 5601 1fb8 009B     		ldr	r3, [sp]
 5602 1fba 1A70     		strb	r2, [r3]
 5603              		.loc 1 1942 0
 5604 1fbc 0123     		movs	r3, #1
 5605              	.L366:
 5606              		.loc 1 1943 0
 5607 1fbe 1846     		mov	r0, r3
 5608 1fc0 03B0     		add	sp, sp, #12
 5609              		@ sp needed
 5610 1fc2 5DF804FB 		ldr	pc, [sp], #4
 5611              		.cfi_endproc
 5612              	.LFE358:
 5613              		.size	LSM303AGR_ACC_R_Click_on_INT2, .-LSM303AGR_ACC_R_Click_on_INT2
 5614 1fc6 00BF     		.align	2
ARM GAS  /tmp/ccRrg1qB.s 			page 101


 5615 1fc8 AFF30080 		.p2align 4,,15
 5615      AFF30080 
 5616              		.global	LSM303AGR_ACC_W_ReferenceVal
 5617              		.thumb
 5618              		.thumb_func
 5619              		.type	LSM303AGR_ACC_W_ReferenceVal, %function
 5620              	LSM303AGR_ACC_W_ReferenceVal:
 5621              	.LFB359:
 5622              		.loc 1 1953 0
 5623              		.cfi_startproc
 5624              		@ args = 0, pretend = 0, frame = 16
 5625              		@ frame_needed = 0, uses_anonymous_args = 0
 5626 1fd0 00B5     		push	{lr}
 5627              		.cfi_def_cfa_offset 4
 5628              		.cfi_offset 14, -4
 5629 1fd2 85B0     		sub	sp, sp, #20
 5630              		.cfi_def_cfa_offset 24
 5631 1fd4 0190     		str	r0, [sp, #4]
 5632 1fd6 0B46     		mov	r3, r1
 5633 1fd8 8DF80330 		strb	r3, [sp, #3]
 5634              		.loc 1 1959 0
 5635 1fdc 0DF10F03 		add	r3, sp, #15
 5636 1fe0 0198     		ldr	r0, [sp, #4]
 5637 1fe2 2621     		movs	r1, #38
 5638 1fe4 1A46     		mov	r2, r3
 5639 1fe6 0123     		movs	r3, #1
 5640 1fe8 FFF7FEFF 		bl	LSM303AGR_ACC_ReadReg
 5641 1fec 0346     		mov	r3, r0
 5642 1fee 002B     		cmp	r3, #0
 5643 1ff0 01D1     		bne	.L368
 5644              		.loc 1 1960 0
 5645 1ff2 0023     		movs	r3, #0
 5646 1ff4 18E0     		b	.L371
 5647              	.L368:
 5648              		.loc 1 1962 0
 5649 1ff6 0023     		movs	r3, #0
 5650 1ff8 8DF80F30 		strb	r3, [sp, #15]
 5651              		.loc 1 1963 0
 5652 1ffc 9DF80F20 		ldrb	r2, [sp, #15]	@ zero_extendqisi2
 5653 2000 9DF80330 		ldrb	r3, [sp, #3]
 5654 2004 1343     		orrs	r3, r3, r2
 5655 2006 DBB2     		uxtb	r3, r3
 5656 2008 8DF80F30 		strb	r3, [sp, #15]
 5657              		.loc 1 1965 0
 5658 200c 0DF10F03 		add	r3, sp, #15
 5659 2010 0198     		ldr	r0, [sp, #4]
 5660 2012 2621     		movs	r1, #38
 5661 2014 1A46     		mov	r2, r3
 5662 2016 0123     		movs	r3, #1
 5663 2018 FFF7FEFF 		bl	LSM303AGR_ACC_WriteReg
 5664 201c 0346     		mov	r3, r0
 5665 201e 002B     		cmp	r3, #0
 5666 2020 01D1     		bne	.L370
 5667              		.loc 1 1966 0
 5668 2022 0023     		movs	r3, #0
 5669 2024 00E0     		b	.L371
 5670              	.L370:
ARM GAS  /tmp/ccRrg1qB.s 			page 102


 5671              		.loc 1 1968 0
 5672 2026 0123     		movs	r3, #1
 5673              	.L371:
 5674              		.loc 1 1969 0
 5675 2028 1846     		mov	r0, r3
 5676 202a 05B0     		add	sp, sp, #20
 5677              		@ sp needed
 5678 202c 5DF804FB 		ldr	pc, [sp], #4
 5679              		.cfi_endproc
 5680              	.LFE359:
 5681              		.size	LSM303AGR_ACC_W_ReferenceVal, .-LSM303AGR_ACC_W_ReferenceVal
 5682              		.align	2
 5683              		.p2align 4,,15
 5684              		.global	LSM303AGR_ACC_R_ReferenceVal
 5685              		.thumb
 5686              		.thumb_func
 5687              		.type	LSM303AGR_ACC_R_ReferenceVal, %function
 5688              	LSM303AGR_ACC_R_ReferenceVal:
 5689              	.LFB360:
 5690              		.loc 1 1979 0
 5691              		.cfi_startproc
 5692              		@ args = 0, pretend = 0, frame = 8
 5693              		@ frame_needed = 0, uses_anonymous_args = 0
 5694 2030 00B5     		push	{lr}
 5695              		.cfi_def_cfa_offset 4
 5696              		.cfi_offset 14, -4
 5697 2032 83B0     		sub	sp, sp, #12
 5698              		.cfi_def_cfa_offset 16
 5699 2034 0190     		str	r0, [sp, #4]
 5700 2036 0091     		str	r1, [sp]
 5701              		.loc 1 1980 0
 5702 2038 0198     		ldr	r0, [sp, #4]
 5703 203a 2621     		movs	r1, #38
 5704 203c 009A     		ldr	r2, [sp]
 5705 203e 0123     		movs	r3, #1
 5706 2040 FFF7FEFF 		bl	LSM303AGR_ACC_ReadReg
 5707 2044 0346     		mov	r3, r0
 5708 2046 002B     		cmp	r3, #0
 5709 2048 01D1     		bne	.L373
 5710              		.loc 1 1981 0
 5711 204a 0023     		movs	r3, #0
 5712 204c 08E0     		b	.L374
 5713              	.L373:
 5714              		.loc 1 1983 0
 5715 204e 009B     		ldr	r3, [sp]
 5716 2050 1A78     		ldrb	r2, [r3]	@ zero_extendqisi2
 5717 2052 009B     		ldr	r3, [sp]
 5718 2054 1A70     		strb	r2, [r3]
 5719              		.loc 1 1984 0
 5720 2056 009B     		ldr	r3, [sp]
 5721 2058 1A78     		ldrb	r2, [r3]	@ zero_extendqisi2
 5722 205a 009B     		ldr	r3, [sp]
 5723 205c 1A70     		strb	r2, [r3]
 5724              		.loc 1 1986 0
 5725 205e 0123     		movs	r3, #1
 5726              	.L374:
 5727              		.loc 1 1987 0
ARM GAS  /tmp/ccRrg1qB.s 			page 103


 5728 2060 1846     		mov	r0, r3
 5729 2062 03B0     		add	sp, sp, #12
 5730              		@ sp needed
 5731 2064 5DF804FB 		ldr	pc, [sp], #4
 5732              		.cfi_endproc
 5733              	.LFE360:
 5734              		.size	LSM303AGR_ACC_R_ReferenceVal, .-LSM303AGR_ACC_R_ReferenceVal
 5735              		.align	2
 5736 2068 AFF30080 		.p2align 4,,15
 5736      AFF30080 
 5737              		.global	LSM303AGR_ACC_R_XDataAvail
 5738              		.thumb
 5739              		.thumb_func
 5740              		.type	LSM303AGR_ACC_R_XDataAvail, %function
 5741              	LSM303AGR_ACC_R_XDataAvail:
 5742              	.LFB361:
 5743              		.loc 1 1997 0
 5744              		.cfi_startproc
 5745              		@ args = 0, pretend = 0, frame = 8
 5746              		@ frame_needed = 0, uses_anonymous_args = 0
 5747 2070 00B5     		push	{lr}
 5748              		.cfi_def_cfa_offset 4
 5749              		.cfi_offset 14, -4
 5750 2072 83B0     		sub	sp, sp, #12
 5751              		.cfi_def_cfa_offset 16
 5752 2074 0190     		str	r0, [sp, #4]
 5753 2076 0091     		str	r1, [sp]
 5754              		.loc 1 1998 0
 5755 2078 0198     		ldr	r0, [sp, #4]
 5756 207a 2721     		movs	r1, #39
 5757 207c 009A     		ldr	r2, [sp]
 5758 207e 0123     		movs	r3, #1
 5759 2080 FFF7FEFF 		bl	LSM303AGR_ACC_ReadReg
 5760 2084 0346     		mov	r3, r0
 5761 2086 002B     		cmp	r3, #0
 5762 2088 01D1     		bne	.L376
 5763              		.loc 1 1999 0
 5764 208a 0023     		movs	r3, #0
 5765 208c 07E0     		b	.L377
 5766              	.L376:
 5767              		.loc 1 2001 0
 5768 208e 009B     		ldr	r3, [sp]
 5769 2090 1B78     		ldrb	r3, [r3]	@ zero_extendqisi2
 5770 2092 03F00103 		and	r3, r3, #1
 5771 2096 DAB2     		uxtb	r2, r3
 5772 2098 009B     		ldr	r3, [sp]
 5773 209a 1A70     		strb	r2, [r3]
 5774              		.loc 1 2003 0
 5775 209c 0123     		movs	r3, #1
 5776              	.L377:
 5777              		.loc 1 2004 0
 5778 209e 1846     		mov	r0, r3
 5779 20a0 03B0     		add	sp, sp, #12
 5780              		@ sp needed
 5781 20a2 5DF804FB 		ldr	pc, [sp], #4
 5782              		.cfi_endproc
 5783              	.LFE361:
ARM GAS  /tmp/ccRrg1qB.s 			page 104


 5784              		.size	LSM303AGR_ACC_R_XDataAvail, .-LSM303AGR_ACC_R_XDataAvail
 5785 20a6 00BF     		.align	2
 5786 20a8 AFF30080 		.p2align 4,,15
 5786      AFF30080 
 5787              		.global	LSM303AGR_ACC_R_YDataAvail
 5788              		.thumb
 5789              		.thumb_func
 5790              		.type	LSM303AGR_ACC_R_YDataAvail, %function
 5791              	LSM303AGR_ACC_R_YDataAvail:
 5792              	.LFB362:
 5793              		.loc 1 2014 0
 5794              		.cfi_startproc
 5795              		@ args = 0, pretend = 0, frame = 8
 5796              		@ frame_needed = 0, uses_anonymous_args = 0
 5797 20b0 00B5     		push	{lr}
 5798              		.cfi_def_cfa_offset 4
 5799              		.cfi_offset 14, -4
 5800 20b2 83B0     		sub	sp, sp, #12
 5801              		.cfi_def_cfa_offset 16
 5802 20b4 0190     		str	r0, [sp, #4]
 5803 20b6 0091     		str	r1, [sp]
 5804              		.loc 1 2015 0
 5805 20b8 0198     		ldr	r0, [sp, #4]
 5806 20ba 2721     		movs	r1, #39
 5807 20bc 009A     		ldr	r2, [sp]
 5808 20be 0123     		movs	r3, #1
 5809 20c0 FFF7FEFF 		bl	LSM303AGR_ACC_ReadReg
 5810 20c4 0346     		mov	r3, r0
 5811 20c6 002B     		cmp	r3, #0
 5812 20c8 01D1     		bne	.L379
 5813              		.loc 1 2016 0
 5814 20ca 0023     		movs	r3, #0
 5815 20cc 07E0     		b	.L380
 5816              	.L379:
 5817              		.loc 1 2018 0
 5818 20ce 009B     		ldr	r3, [sp]
 5819 20d0 1B78     		ldrb	r3, [r3]	@ zero_extendqisi2
 5820 20d2 03F00203 		and	r3, r3, #2
 5821 20d6 DAB2     		uxtb	r2, r3
 5822 20d8 009B     		ldr	r3, [sp]
 5823 20da 1A70     		strb	r2, [r3]
 5824              		.loc 1 2020 0
 5825 20dc 0123     		movs	r3, #1
 5826              	.L380:
 5827              		.loc 1 2021 0
 5828 20de 1846     		mov	r0, r3
 5829 20e0 03B0     		add	sp, sp, #12
 5830              		@ sp needed
 5831 20e2 5DF804FB 		ldr	pc, [sp], #4
 5832              		.cfi_endproc
 5833              	.LFE362:
 5834              		.size	LSM303AGR_ACC_R_YDataAvail, .-LSM303AGR_ACC_R_YDataAvail
 5835 20e6 00BF     		.align	2
 5836 20e8 AFF30080 		.p2align 4,,15
 5836      AFF30080 
 5837              		.global	LSM303AGR_ACC_R_ZDataAvail
 5838              		.thumb
ARM GAS  /tmp/ccRrg1qB.s 			page 105


 5839              		.thumb_func
 5840              		.type	LSM303AGR_ACC_R_ZDataAvail, %function
 5841              	LSM303AGR_ACC_R_ZDataAvail:
 5842              	.LFB363:
 5843              		.loc 1 2031 0
 5844              		.cfi_startproc
 5845              		@ args = 0, pretend = 0, frame = 8
 5846              		@ frame_needed = 0, uses_anonymous_args = 0
 5847 20f0 00B5     		push	{lr}
 5848              		.cfi_def_cfa_offset 4
 5849              		.cfi_offset 14, -4
 5850 20f2 83B0     		sub	sp, sp, #12
 5851              		.cfi_def_cfa_offset 16
 5852 20f4 0190     		str	r0, [sp, #4]
 5853 20f6 0091     		str	r1, [sp]
 5854              		.loc 1 2032 0
 5855 20f8 0198     		ldr	r0, [sp, #4]
 5856 20fa 2721     		movs	r1, #39
 5857 20fc 009A     		ldr	r2, [sp]
 5858 20fe 0123     		movs	r3, #1
 5859 2100 FFF7FEFF 		bl	LSM303AGR_ACC_ReadReg
 5860 2104 0346     		mov	r3, r0
 5861 2106 002B     		cmp	r3, #0
 5862 2108 01D1     		bne	.L382
 5863              		.loc 1 2033 0
 5864 210a 0023     		movs	r3, #0
 5865 210c 07E0     		b	.L383
 5866              	.L382:
 5867              		.loc 1 2035 0
 5868 210e 009B     		ldr	r3, [sp]
 5869 2110 1B78     		ldrb	r3, [r3]	@ zero_extendqisi2
 5870 2112 03F00403 		and	r3, r3, #4
 5871 2116 DAB2     		uxtb	r2, r3
 5872 2118 009B     		ldr	r3, [sp]
 5873 211a 1A70     		strb	r2, [r3]
 5874              		.loc 1 2037 0
 5875 211c 0123     		movs	r3, #1
 5876              	.L383:
 5877              		.loc 1 2038 0
 5878 211e 1846     		mov	r0, r3
 5879 2120 03B0     		add	sp, sp, #12
 5880              		@ sp needed
 5881 2122 5DF804FB 		ldr	pc, [sp], #4
 5882              		.cfi_endproc
 5883              	.LFE363:
 5884              		.size	LSM303AGR_ACC_R_ZDataAvail, .-LSM303AGR_ACC_R_ZDataAvail
 5885 2126 00BF     		.align	2
 5886 2128 AFF30080 		.p2align 4,,15
 5886      AFF30080 
 5887              		.global	LSM303AGR_ACC_R_XYZDataAvail
 5888              		.thumb
 5889              		.thumb_func
 5890              		.type	LSM303AGR_ACC_R_XYZDataAvail, %function
 5891              	LSM303AGR_ACC_R_XYZDataAvail:
 5892              	.LFB364:
 5893              		.loc 1 2048 0
 5894              		.cfi_startproc
ARM GAS  /tmp/ccRrg1qB.s 			page 106


 5895              		@ args = 0, pretend = 0, frame = 8
 5896              		@ frame_needed = 0, uses_anonymous_args = 0
 5897 2130 00B5     		push	{lr}
 5898              		.cfi_def_cfa_offset 4
 5899              		.cfi_offset 14, -4
 5900 2132 83B0     		sub	sp, sp, #12
 5901              		.cfi_def_cfa_offset 16
 5902 2134 0190     		str	r0, [sp, #4]
 5903 2136 0091     		str	r1, [sp]
 5904              		.loc 1 2049 0
 5905 2138 0198     		ldr	r0, [sp, #4]
 5906 213a 2721     		movs	r1, #39
 5907 213c 009A     		ldr	r2, [sp]
 5908 213e 0123     		movs	r3, #1
 5909 2140 FFF7FEFF 		bl	LSM303AGR_ACC_ReadReg
 5910 2144 0346     		mov	r3, r0
 5911 2146 002B     		cmp	r3, #0
 5912 2148 01D1     		bne	.L385
 5913              		.loc 1 2050 0
 5914 214a 0023     		movs	r3, #0
 5915 214c 07E0     		b	.L386
 5916              	.L385:
 5917              		.loc 1 2052 0
 5918 214e 009B     		ldr	r3, [sp]
 5919 2150 1B78     		ldrb	r3, [r3]	@ zero_extendqisi2
 5920 2152 03F00803 		and	r3, r3, #8
 5921 2156 DAB2     		uxtb	r2, r3
 5922 2158 009B     		ldr	r3, [sp]
 5923 215a 1A70     		strb	r2, [r3]
 5924              		.loc 1 2054 0
 5925 215c 0123     		movs	r3, #1
 5926              	.L386:
 5927              		.loc 1 2055 0
 5928 215e 1846     		mov	r0, r3
 5929 2160 03B0     		add	sp, sp, #12
 5930              		@ sp needed
 5931 2162 5DF804FB 		ldr	pc, [sp], #4
 5932              		.cfi_endproc
 5933              	.LFE364:
 5934              		.size	LSM303AGR_ACC_R_XYZDataAvail, .-LSM303AGR_ACC_R_XYZDataAvail
 5935 2166 00BF     		.align	2
 5936 2168 AFF30080 		.p2align 4,,15
 5936      AFF30080 
 5937              		.global	LSM303AGR_ACC_R_XDataOverrun
 5938              		.thumb
 5939              		.thumb_func
 5940              		.type	LSM303AGR_ACC_R_XDataOverrun, %function
 5941              	LSM303AGR_ACC_R_XDataOverrun:
 5942              	.LFB365:
 5943              		.loc 1 2065 0
 5944              		.cfi_startproc
 5945              		@ args = 0, pretend = 0, frame = 8
 5946              		@ frame_needed = 0, uses_anonymous_args = 0
 5947 2170 00B5     		push	{lr}
 5948              		.cfi_def_cfa_offset 4
 5949              		.cfi_offset 14, -4
 5950 2172 83B0     		sub	sp, sp, #12
ARM GAS  /tmp/ccRrg1qB.s 			page 107


 5951              		.cfi_def_cfa_offset 16
 5952 2174 0190     		str	r0, [sp, #4]
 5953 2176 0091     		str	r1, [sp]
 5954              		.loc 1 2066 0
 5955 2178 0198     		ldr	r0, [sp, #4]
 5956 217a 2721     		movs	r1, #39
 5957 217c 009A     		ldr	r2, [sp]
 5958 217e 0123     		movs	r3, #1
 5959 2180 FFF7FEFF 		bl	LSM303AGR_ACC_ReadReg
 5960 2184 0346     		mov	r3, r0
 5961 2186 002B     		cmp	r3, #0
 5962 2188 01D1     		bne	.L388
 5963              		.loc 1 2067 0
 5964 218a 0023     		movs	r3, #0
 5965 218c 07E0     		b	.L389
 5966              	.L388:
 5967              		.loc 1 2069 0
 5968 218e 009B     		ldr	r3, [sp]
 5969 2190 1B78     		ldrb	r3, [r3]	@ zero_extendqisi2
 5970 2192 03F01003 		and	r3, r3, #16
 5971 2196 DAB2     		uxtb	r2, r3
 5972 2198 009B     		ldr	r3, [sp]
 5973 219a 1A70     		strb	r2, [r3]
 5974              		.loc 1 2071 0
 5975 219c 0123     		movs	r3, #1
 5976              	.L389:
 5977              		.loc 1 2072 0
 5978 219e 1846     		mov	r0, r3
 5979 21a0 03B0     		add	sp, sp, #12
 5980              		@ sp needed
 5981 21a2 5DF804FB 		ldr	pc, [sp], #4
 5982              		.cfi_endproc
 5983              	.LFE365:
 5984              		.size	LSM303AGR_ACC_R_XDataOverrun, .-LSM303AGR_ACC_R_XDataOverrun
 5985 21a6 00BF     		.align	2
 5986 21a8 AFF30080 		.p2align 4,,15
 5986      AFF30080 
 5987              		.global	LSM303AGR_ACC_R_YDataOverrun
 5988              		.thumb
 5989              		.thumb_func
 5990              		.type	LSM303AGR_ACC_R_YDataOverrun, %function
 5991              	LSM303AGR_ACC_R_YDataOverrun:
 5992              	.LFB366:
 5993              		.loc 1 2082 0
 5994              		.cfi_startproc
 5995              		@ args = 0, pretend = 0, frame = 8
 5996              		@ frame_needed = 0, uses_anonymous_args = 0
 5997 21b0 00B5     		push	{lr}
 5998              		.cfi_def_cfa_offset 4
 5999              		.cfi_offset 14, -4
 6000 21b2 83B0     		sub	sp, sp, #12
 6001              		.cfi_def_cfa_offset 16
 6002 21b4 0190     		str	r0, [sp, #4]
 6003 21b6 0091     		str	r1, [sp]
 6004              		.loc 1 2083 0
 6005 21b8 0198     		ldr	r0, [sp, #4]
 6006 21ba 2721     		movs	r1, #39
ARM GAS  /tmp/ccRrg1qB.s 			page 108


 6007 21bc 009A     		ldr	r2, [sp]
 6008 21be 0123     		movs	r3, #1
 6009 21c0 FFF7FEFF 		bl	LSM303AGR_ACC_ReadReg
 6010 21c4 0346     		mov	r3, r0
 6011 21c6 002B     		cmp	r3, #0
 6012 21c8 01D1     		bne	.L391
 6013              		.loc 1 2084 0
 6014 21ca 0023     		movs	r3, #0
 6015 21cc 07E0     		b	.L392
 6016              	.L391:
 6017              		.loc 1 2086 0
 6018 21ce 009B     		ldr	r3, [sp]
 6019 21d0 1B78     		ldrb	r3, [r3]	@ zero_extendqisi2
 6020 21d2 03F02003 		and	r3, r3, #32
 6021 21d6 DAB2     		uxtb	r2, r3
 6022 21d8 009B     		ldr	r3, [sp]
 6023 21da 1A70     		strb	r2, [r3]
 6024              		.loc 1 2088 0
 6025 21dc 0123     		movs	r3, #1
 6026              	.L392:
 6027              		.loc 1 2089 0
 6028 21de 1846     		mov	r0, r3
 6029 21e0 03B0     		add	sp, sp, #12
 6030              		@ sp needed
 6031 21e2 5DF804FB 		ldr	pc, [sp], #4
 6032              		.cfi_endproc
 6033              	.LFE366:
 6034              		.size	LSM303AGR_ACC_R_YDataOverrun, .-LSM303AGR_ACC_R_YDataOverrun
 6035 21e6 00BF     		.align	2
 6036 21e8 AFF30080 		.p2align 4,,15
 6036      AFF30080 
 6037              		.global	LSM303AGR_ACC_R_ZDataOverrun
 6038              		.thumb
 6039              		.thumb_func
 6040              		.type	LSM303AGR_ACC_R_ZDataOverrun, %function
 6041              	LSM303AGR_ACC_R_ZDataOverrun:
 6042              	.LFB367:
 6043              		.loc 1 2099 0
 6044              		.cfi_startproc
 6045              		@ args = 0, pretend = 0, frame = 8
 6046              		@ frame_needed = 0, uses_anonymous_args = 0
 6047 21f0 00B5     		push	{lr}
 6048              		.cfi_def_cfa_offset 4
 6049              		.cfi_offset 14, -4
 6050 21f2 83B0     		sub	sp, sp, #12
 6051              		.cfi_def_cfa_offset 16
 6052 21f4 0190     		str	r0, [sp, #4]
 6053 21f6 0091     		str	r1, [sp]
 6054              		.loc 1 2100 0
 6055 21f8 0198     		ldr	r0, [sp, #4]
 6056 21fa 2721     		movs	r1, #39
 6057 21fc 009A     		ldr	r2, [sp]
 6058 21fe 0123     		movs	r3, #1
 6059 2200 FFF7FEFF 		bl	LSM303AGR_ACC_ReadReg
 6060 2204 0346     		mov	r3, r0
 6061 2206 002B     		cmp	r3, #0
 6062 2208 01D1     		bne	.L394
ARM GAS  /tmp/ccRrg1qB.s 			page 109


 6063              		.loc 1 2101 0
 6064 220a 0023     		movs	r3, #0
 6065 220c 07E0     		b	.L395
 6066              	.L394:
 6067              		.loc 1 2103 0
 6068 220e 009B     		ldr	r3, [sp]
 6069 2210 1B78     		ldrb	r3, [r3]	@ zero_extendqisi2
 6070 2212 03F04003 		and	r3, r3, #64
 6071 2216 DAB2     		uxtb	r2, r3
 6072 2218 009B     		ldr	r3, [sp]
 6073 221a 1A70     		strb	r2, [r3]
 6074              		.loc 1 2105 0
 6075 221c 0123     		movs	r3, #1
 6076              	.L395:
 6077              		.loc 1 2106 0
 6078 221e 1846     		mov	r0, r3
 6079 2220 03B0     		add	sp, sp, #12
 6080              		@ sp needed
 6081 2222 5DF804FB 		ldr	pc, [sp], #4
 6082              		.cfi_endproc
 6083              	.LFE367:
 6084              		.size	LSM303AGR_ACC_R_ZDataOverrun, .-LSM303AGR_ACC_R_ZDataOverrun
 6085 2226 00BF     		.align	2
 6086 2228 AFF30080 		.p2align 4,,15
 6086      AFF30080 
 6087              		.global	LSM303AGR_ACC_R_XYZDataOverrun
 6088              		.thumb
 6089              		.thumb_func
 6090              		.type	LSM303AGR_ACC_R_XYZDataOverrun, %function
 6091              	LSM303AGR_ACC_R_XYZDataOverrun:
 6092              	.LFB368:
 6093              		.loc 1 2116 0
 6094              		.cfi_startproc
 6095              		@ args = 0, pretend = 0, frame = 8
 6096              		@ frame_needed = 0, uses_anonymous_args = 0
 6097 2230 00B5     		push	{lr}
 6098              		.cfi_def_cfa_offset 4
 6099              		.cfi_offset 14, -4
 6100 2232 83B0     		sub	sp, sp, #12
 6101              		.cfi_def_cfa_offset 16
 6102 2234 0190     		str	r0, [sp, #4]
 6103 2236 0091     		str	r1, [sp]
 6104              		.loc 1 2117 0
 6105 2238 0198     		ldr	r0, [sp, #4]
 6106 223a 2721     		movs	r1, #39
 6107 223c 009A     		ldr	r2, [sp]
 6108 223e 0123     		movs	r3, #1
 6109 2240 FFF7FEFF 		bl	LSM303AGR_ACC_ReadReg
 6110 2244 0346     		mov	r3, r0
 6111 2246 002B     		cmp	r3, #0
 6112 2248 01D1     		bne	.L397
 6113              		.loc 1 2118 0
 6114 224a 0023     		movs	r3, #0
 6115 224c 07E0     		b	.L398
 6116              	.L397:
 6117              		.loc 1 2120 0
 6118 224e 009B     		ldr	r3, [sp]
ARM GAS  /tmp/ccRrg1qB.s 			page 110


 6119 2250 1B78     		ldrb	r3, [r3]	@ zero_extendqisi2
 6120 2252 23F07F03 		bic	r3, r3, #127
 6121 2256 DAB2     		uxtb	r2, r3
 6122 2258 009B     		ldr	r3, [sp]
 6123 225a 1A70     		strb	r2, [r3]
 6124              		.loc 1 2122 0
 6125 225c 0123     		movs	r3, #1
 6126              	.L398:
 6127              		.loc 1 2123 0
 6128 225e 1846     		mov	r0, r3
 6129 2260 03B0     		add	sp, sp, #12
 6130              		@ sp needed
 6131 2262 5DF804FB 		ldr	pc, [sp], #4
 6132              		.cfi_endproc
 6133              	.LFE368:
 6134              		.size	LSM303AGR_ACC_R_XYZDataOverrun, .-LSM303AGR_ACC_R_XYZDataOverrun
 6135 2266 00BF     		.align	2
 6136 2268 AFF30080 		.p2align 4,,15
 6136      AFF30080 
 6137              		.global	LSM303AGR_ACC_W_FifoThreshold
 6138              		.thumb
 6139              		.thumb_func
 6140              		.type	LSM303AGR_ACC_W_FifoThreshold, %function
 6141              	LSM303AGR_ACC_W_FifoThreshold:
 6142              	.LFB369:
 6143              		.loc 1 2133 0
 6144              		.cfi_startproc
 6145              		@ args = 0, pretend = 0, frame = 16
 6146              		@ frame_needed = 0, uses_anonymous_args = 0
 6147 2270 00B5     		push	{lr}
 6148              		.cfi_def_cfa_offset 4
 6149              		.cfi_offset 14, -4
 6150 2272 85B0     		sub	sp, sp, #20
 6151              		.cfi_def_cfa_offset 24
 6152 2274 0190     		str	r0, [sp, #4]
 6153 2276 0B46     		mov	r3, r1
 6154 2278 8DF80330 		strb	r3, [sp, #3]
 6155              		.loc 1 2137 0
 6156 227c 9DF80330 		ldrb	r3, [sp, #3]
 6157 2280 03F01F03 		and	r3, r3, #31
 6158 2284 8DF80330 		strb	r3, [sp, #3]
 6159              		.loc 1 2139 0
 6160 2288 0DF10F03 		add	r3, sp, #15
 6161 228c 0198     		ldr	r0, [sp, #4]
 6162 228e 2E21     		movs	r1, #46
 6163 2290 1A46     		mov	r2, r3
 6164 2292 0123     		movs	r3, #1
 6165 2294 FFF7FEFF 		bl	LSM303AGR_ACC_ReadReg
 6166 2298 0346     		mov	r3, r0
 6167 229a 002B     		cmp	r3, #0
 6168 229c 01D1     		bne	.L400
 6169              		.loc 1 2140 0
 6170 229e 0023     		movs	r3, #0
 6171 22a0 1CE0     		b	.L403
 6172              	.L400:
 6173              		.loc 1 2142 0
 6174 22a2 9DF80F30 		ldrb	r3, [sp, #15]	@ zero_extendqisi2
ARM GAS  /tmp/ccRrg1qB.s 			page 111


 6175 22a6 23F01F03 		bic	r3, r3, #31
 6176 22aa DBB2     		uxtb	r3, r3
 6177 22ac 8DF80F30 		strb	r3, [sp, #15]
 6178              		.loc 1 2143 0
 6179 22b0 9DF80F20 		ldrb	r2, [sp, #15]	@ zero_extendqisi2
 6180 22b4 9DF80330 		ldrb	r3, [sp, #3]
 6181 22b8 1343     		orrs	r3, r3, r2
 6182 22ba DBB2     		uxtb	r3, r3
 6183 22bc 8DF80F30 		strb	r3, [sp, #15]
 6184              		.loc 1 2145 0
 6185 22c0 0DF10F03 		add	r3, sp, #15
 6186 22c4 0198     		ldr	r0, [sp, #4]
 6187 22c6 2E21     		movs	r1, #46
 6188 22c8 1A46     		mov	r2, r3
 6189 22ca 0123     		movs	r3, #1
 6190 22cc FFF7FEFF 		bl	LSM303AGR_ACC_WriteReg
 6191 22d0 0346     		mov	r3, r0
 6192 22d2 002B     		cmp	r3, #0
 6193 22d4 01D1     		bne	.L402
 6194              		.loc 1 2146 0
 6195 22d6 0023     		movs	r3, #0
 6196 22d8 00E0     		b	.L403
 6197              	.L402:
 6198              		.loc 1 2148 0
 6199 22da 0123     		movs	r3, #1
 6200              	.L403:
 6201              		.loc 1 2149 0
 6202 22dc 1846     		mov	r0, r3
 6203 22de 05B0     		add	sp, sp, #20
 6204              		@ sp needed
 6205 22e0 5DF804FB 		ldr	pc, [sp], #4
 6206              		.cfi_endproc
 6207              	.LFE369:
 6208              		.size	LSM303AGR_ACC_W_FifoThreshold, .-LSM303AGR_ACC_W_FifoThreshold
 6209              		.align	2
 6210 22e4 AFF30080 		.p2align 4,,15
 6210      AFF30080 
 6210      AFF30080 
 6211              		.global	LSM303AGR_ACC_R_FifoThreshold
 6212              		.thumb
 6213              		.thumb_func
 6214              		.type	LSM303AGR_ACC_R_FifoThreshold, %function
 6215              	LSM303AGR_ACC_R_FifoThreshold:
 6216              	.LFB370:
 6217              		.loc 1 2159 0
 6218              		.cfi_startproc
 6219              		@ args = 0, pretend = 0, frame = 8
 6220              		@ frame_needed = 0, uses_anonymous_args = 0
 6221 22f0 00B5     		push	{lr}
 6222              		.cfi_def_cfa_offset 4
 6223              		.cfi_offset 14, -4
 6224 22f2 83B0     		sub	sp, sp, #12
 6225              		.cfi_def_cfa_offset 16
 6226 22f4 0190     		str	r0, [sp, #4]
 6227 22f6 0091     		str	r1, [sp]
 6228              		.loc 1 2160 0
 6229 22f8 0198     		ldr	r0, [sp, #4]
ARM GAS  /tmp/ccRrg1qB.s 			page 112


 6230 22fa 2E21     		movs	r1, #46
 6231 22fc 009A     		ldr	r2, [sp]
 6232 22fe 0123     		movs	r3, #1
 6233 2300 FFF7FEFF 		bl	LSM303AGR_ACC_ReadReg
 6234 2304 0346     		mov	r3, r0
 6235 2306 002B     		cmp	r3, #0
 6236 2308 01D1     		bne	.L405
 6237              		.loc 1 2161 0
 6238 230a 0023     		movs	r3, #0
 6239 230c 0BE0     		b	.L406
 6240              	.L405:
 6241              		.loc 1 2163 0
 6242 230e 009B     		ldr	r3, [sp]
 6243 2310 1B78     		ldrb	r3, [r3]	@ zero_extendqisi2
 6244 2312 03F01F03 		and	r3, r3, #31
 6245 2316 DAB2     		uxtb	r2, r3
 6246 2318 009B     		ldr	r3, [sp]
 6247 231a 1A70     		strb	r2, [r3]
 6248              		.loc 1 2164 0
 6249 231c 009B     		ldr	r3, [sp]
 6250 231e 1A78     		ldrb	r2, [r3]	@ zero_extendqisi2
 6251 2320 009B     		ldr	r3, [sp]
 6252 2322 1A70     		strb	r2, [r3]
 6253              		.loc 1 2166 0
 6254 2324 0123     		movs	r3, #1
 6255              	.L406:
 6256              		.loc 1 2167 0
 6257 2326 1846     		mov	r0, r3
 6258 2328 03B0     		add	sp, sp, #12
 6259              		@ sp needed
 6260 232a 5DF804FB 		ldr	pc, [sp], #4
 6261              		.cfi_endproc
 6262              	.LFE370:
 6263              		.size	LSM303AGR_ACC_R_FifoThreshold, .-LSM303AGR_ACC_R_FifoThreshold
 6264 232e 00BF     		.align	2
 6265              		.p2align 4,,15
 6266              		.global	LSM303AGR_ACC_W_TriggerSel
 6267              		.thumb
 6268              		.thumb_func
 6269              		.type	LSM303AGR_ACC_W_TriggerSel, %function
 6270              	LSM303AGR_ACC_W_TriggerSel:
 6271              	.LFB371:
 6272              		.loc 1 2177 0
 6273              		.cfi_startproc
 6274              		@ args = 0, pretend = 0, frame = 16
 6275              		@ frame_needed = 0, uses_anonymous_args = 0
 6276 2330 00B5     		push	{lr}
 6277              		.cfi_def_cfa_offset 4
 6278              		.cfi_offset 14, -4
 6279 2332 85B0     		sub	sp, sp, #20
 6280              		.cfi_def_cfa_offset 24
 6281 2334 0190     		str	r0, [sp, #4]
 6282 2336 0B46     		mov	r3, r1
 6283 2338 8DF80330 		strb	r3, [sp, #3]
 6284              		.loc 1 2180 0
 6285 233c 0DF10F03 		add	r3, sp, #15
 6286 2340 0198     		ldr	r0, [sp, #4]
ARM GAS  /tmp/ccRrg1qB.s 			page 113


 6287 2342 2E21     		movs	r1, #46
 6288 2344 1A46     		mov	r2, r3
 6289 2346 0123     		movs	r3, #1
 6290 2348 FFF7FEFF 		bl	LSM303AGR_ACC_ReadReg
 6291 234c 0346     		mov	r3, r0
 6292 234e 002B     		cmp	r3, #0
 6293 2350 01D1     		bne	.L408
 6294              		.loc 1 2181 0
 6295 2352 0023     		movs	r3, #0
 6296 2354 1CE0     		b	.L411
 6297              	.L408:
 6298              		.loc 1 2183 0
 6299 2356 9DF80F30 		ldrb	r3, [sp, #15]	@ zero_extendqisi2
 6300 235a 23F02003 		bic	r3, r3, #32
 6301 235e DBB2     		uxtb	r3, r3
 6302 2360 8DF80F30 		strb	r3, [sp, #15]
 6303              		.loc 1 2184 0
 6304 2364 9DF80F20 		ldrb	r2, [sp, #15]	@ zero_extendqisi2
 6305 2368 9DF80330 		ldrb	r3, [sp, #3]
 6306 236c 1343     		orrs	r3, r3, r2
 6307 236e DBB2     		uxtb	r3, r3
 6308 2370 8DF80F30 		strb	r3, [sp, #15]
 6309              		.loc 1 2186 0
 6310 2374 0DF10F03 		add	r3, sp, #15
 6311 2378 0198     		ldr	r0, [sp, #4]
 6312 237a 2E21     		movs	r1, #46
 6313 237c 1A46     		mov	r2, r3
 6314 237e 0123     		movs	r3, #1
 6315 2380 FFF7FEFF 		bl	LSM303AGR_ACC_WriteReg
 6316 2384 0346     		mov	r3, r0
 6317 2386 002B     		cmp	r3, #0
 6318 2388 01D1     		bne	.L410
 6319              		.loc 1 2187 0
 6320 238a 0023     		movs	r3, #0
 6321 238c 00E0     		b	.L411
 6322              	.L410:
 6323              		.loc 1 2189 0
 6324 238e 0123     		movs	r3, #1
 6325              	.L411:
 6326              		.loc 1 2190 0
 6327 2390 1846     		mov	r0, r3
 6328 2392 05B0     		add	sp, sp, #20
 6329              		@ sp needed
 6330 2394 5DF804FB 		ldr	pc, [sp], #4
 6331              		.cfi_endproc
 6332              	.LFE371:
 6333              		.size	LSM303AGR_ACC_W_TriggerSel, .-LSM303AGR_ACC_W_TriggerSel
 6334              		.align	2
 6335 2398 AFF30080 		.p2align 4,,15
 6335      AFF30080 
 6336              		.global	LSM303AGR_ACC_R_TriggerSel
 6337              		.thumb
 6338              		.thumb_func
 6339              		.type	LSM303AGR_ACC_R_TriggerSel, %function
 6340              	LSM303AGR_ACC_R_TriggerSel:
 6341              	.LFB372:
 6342              		.loc 1 2200 0
ARM GAS  /tmp/ccRrg1qB.s 			page 114


 6343              		.cfi_startproc
 6344              		@ args = 0, pretend = 0, frame = 8
 6345              		@ frame_needed = 0, uses_anonymous_args = 0
 6346 23a0 00B5     		push	{lr}
 6347              		.cfi_def_cfa_offset 4
 6348              		.cfi_offset 14, -4
 6349 23a2 83B0     		sub	sp, sp, #12
 6350              		.cfi_def_cfa_offset 16
 6351 23a4 0190     		str	r0, [sp, #4]
 6352 23a6 0091     		str	r1, [sp]
 6353              		.loc 1 2201 0
 6354 23a8 0198     		ldr	r0, [sp, #4]
 6355 23aa 2E21     		movs	r1, #46
 6356 23ac 009A     		ldr	r2, [sp]
 6357 23ae 0123     		movs	r3, #1
 6358 23b0 FFF7FEFF 		bl	LSM303AGR_ACC_ReadReg
 6359 23b4 0346     		mov	r3, r0
 6360 23b6 002B     		cmp	r3, #0
 6361 23b8 01D1     		bne	.L413
 6362              		.loc 1 2202 0
 6363 23ba 0023     		movs	r3, #0
 6364 23bc 07E0     		b	.L414
 6365              	.L413:
 6366              		.loc 1 2204 0
 6367 23be 009B     		ldr	r3, [sp]
 6368 23c0 1B78     		ldrb	r3, [r3]	@ zero_extendqisi2
 6369 23c2 03F02003 		and	r3, r3, #32
 6370 23c6 DAB2     		uxtb	r2, r3
 6371 23c8 009B     		ldr	r3, [sp]
 6372 23ca 1A70     		strb	r2, [r3]
 6373              		.loc 1 2206 0
 6374 23cc 0123     		movs	r3, #1
 6375              	.L414:
 6376              		.loc 1 2207 0
 6377 23ce 1846     		mov	r0, r3
 6378 23d0 03B0     		add	sp, sp, #12
 6379              		@ sp needed
 6380 23d2 5DF804FB 		ldr	pc, [sp], #4
 6381              		.cfi_endproc
 6382              	.LFE372:
 6383              		.size	LSM303AGR_ACC_R_TriggerSel, .-LSM303AGR_ACC_R_TriggerSel
 6384 23d6 00BF     		.align	2
 6385 23d8 AFF30080 		.p2align 4,,15
 6385      AFF30080 
 6386              		.global	LSM303AGR_ACC_W_FifoMode
 6387              		.thumb
 6388              		.thumb_func
 6389              		.type	LSM303AGR_ACC_W_FifoMode, %function
 6390              	LSM303AGR_ACC_W_FifoMode:
 6391              	.LFB373:
 6392              		.loc 1 2217 0
 6393              		.cfi_startproc
 6394              		@ args = 0, pretend = 0, frame = 16
 6395              		@ frame_needed = 0, uses_anonymous_args = 0
 6396 23e0 00B5     		push	{lr}
 6397              		.cfi_def_cfa_offset 4
 6398              		.cfi_offset 14, -4
ARM GAS  /tmp/ccRrg1qB.s 			page 115


 6399 23e2 85B0     		sub	sp, sp, #20
 6400              		.cfi_def_cfa_offset 24
 6401 23e4 0190     		str	r0, [sp, #4]
 6402 23e6 0B46     		mov	r3, r1
 6403 23e8 8DF80330 		strb	r3, [sp, #3]
 6404              		.loc 1 2220 0
 6405 23ec 0DF10F03 		add	r3, sp, #15
 6406 23f0 0198     		ldr	r0, [sp, #4]
 6407 23f2 2E21     		movs	r1, #46
 6408 23f4 1A46     		mov	r2, r3
 6409 23f6 0123     		movs	r3, #1
 6410 23f8 FFF7FEFF 		bl	LSM303AGR_ACC_ReadReg
 6411 23fc 0346     		mov	r3, r0
 6412 23fe 002B     		cmp	r3, #0
 6413 2400 01D1     		bne	.L416
 6414              		.loc 1 2221 0
 6415 2402 0023     		movs	r3, #0
 6416 2404 1CE0     		b	.L419
 6417              	.L416:
 6418              		.loc 1 2223 0
 6419 2406 9DF80F30 		ldrb	r3, [sp, #15]	@ zero_extendqisi2
 6420 240a 03F03F03 		and	r3, r3, #63
 6421 240e DBB2     		uxtb	r3, r3
 6422 2410 8DF80F30 		strb	r3, [sp, #15]
 6423              		.loc 1 2224 0
 6424 2414 9DF80F20 		ldrb	r2, [sp, #15]	@ zero_extendqisi2
 6425 2418 9DF80330 		ldrb	r3, [sp, #3]
 6426 241c 1343     		orrs	r3, r3, r2
 6427 241e DBB2     		uxtb	r3, r3
 6428 2420 8DF80F30 		strb	r3, [sp, #15]
 6429              		.loc 1 2226 0
 6430 2424 0DF10F03 		add	r3, sp, #15
 6431 2428 0198     		ldr	r0, [sp, #4]
 6432 242a 2E21     		movs	r1, #46
 6433 242c 1A46     		mov	r2, r3
 6434 242e 0123     		movs	r3, #1
 6435 2430 FFF7FEFF 		bl	LSM303AGR_ACC_WriteReg
 6436 2434 0346     		mov	r3, r0
 6437 2436 002B     		cmp	r3, #0
 6438 2438 01D1     		bne	.L418
 6439              		.loc 1 2227 0
 6440 243a 0023     		movs	r3, #0
 6441 243c 00E0     		b	.L419
 6442              	.L418:
 6443              		.loc 1 2229 0
 6444 243e 0123     		movs	r3, #1
 6445              	.L419:
 6446              		.loc 1 2230 0
 6447 2440 1846     		mov	r0, r3
 6448 2442 05B0     		add	sp, sp, #20
 6449              		@ sp needed
 6450 2444 5DF804FB 		ldr	pc, [sp], #4
 6451              		.cfi_endproc
 6452              	.LFE373:
 6453              		.size	LSM303AGR_ACC_W_FifoMode, .-LSM303AGR_ACC_W_FifoMode
 6454              		.align	2
 6455 2448 AFF30080 		.p2align 4,,15
ARM GAS  /tmp/ccRrg1qB.s 			page 116


 6455      AFF30080 
 6456              		.global	LSM303AGR_ACC_R_FifoMode
 6457              		.thumb
 6458              		.thumb_func
 6459              		.type	LSM303AGR_ACC_R_FifoMode, %function
 6460              	LSM303AGR_ACC_R_FifoMode:
 6461              	.LFB374:
 6462              		.loc 1 2240 0
 6463              		.cfi_startproc
 6464              		@ args = 0, pretend = 0, frame = 8
 6465              		@ frame_needed = 0, uses_anonymous_args = 0
 6466 2450 00B5     		push	{lr}
 6467              		.cfi_def_cfa_offset 4
 6468              		.cfi_offset 14, -4
 6469 2452 83B0     		sub	sp, sp, #12
 6470              		.cfi_def_cfa_offset 16
 6471 2454 0190     		str	r0, [sp, #4]
 6472 2456 0091     		str	r1, [sp]
 6473              		.loc 1 2241 0
 6474 2458 0198     		ldr	r0, [sp, #4]
 6475 245a 2E21     		movs	r1, #46
 6476 245c 009A     		ldr	r2, [sp]
 6477 245e 0123     		movs	r3, #1
 6478 2460 FFF7FEFF 		bl	LSM303AGR_ACC_ReadReg
 6479 2464 0346     		mov	r3, r0
 6480 2466 002B     		cmp	r3, #0
 6481 2468 01D1     		bne	.L421
 6482              		.loc 1 2242 0
 6483 246a 0023     		movs	r3, #0
 6484 246c 07E0     		b	.L422
 6485              	.L421:
 6486              		.loc 1 2244 0
 6487 246e 009B     		ldr	r3, [sp]
 6488 2470 1B78     		ldrb	r3, [r3]	@ zero_extendqisi2
 6489 2472 23F03F03 		bic	r3, r3, #63
 6490 2476 DAB2     		uxtb	r2, r3
 6491 2478 009B     		ldr	r3, [sp]
 6492 247a 1A70     		strb	r2, [r3]
 6493              		.loc 1 2246 0
 6494 247c 0123     		movs	r3, #1
 6495              	.L422:
 6496              		.loc 1 2247 0
 6497 247e 1846     		mov	r0, r3
 6498 2480 03B0     		add	sp, sp, #12
 6499              		@ sp needed
 6500 2482 5DF804FB 		ldr	pc, [sp], #4
 6501              		.cfi_endproc
 6502              	.LFE374:
 6503              		.size	LSM303AGR_ACC_R_FifoMode, .-LSM303AGR_ACC_R_FifoMode
 6504 2486 00BF     		.align	2
 6505 2488 AFF30080 		.p2align 4,,15
 6505      AFF30080 
 6506              		.global	LSM303AGR_ACC_R_FifoSamplesAvail
 6507              		.thumb
 6508              		.thumb_func
 6509              		.type	LSM303AGR_ACC_R_FifoSamplesAvail, %function
 6510              	LSM303AGR_ACC_R_FifoSamplesAvail:
ARM GAS  /tmp/ccRrg1qB.s 			page 117


 6511              	.LFB375:
 6512              		.loc 1 2257 0
 6513              		.cfi_startproc
 6514              		@ args = 0, pretend = 0, frame = 8
 6515              		@ frame_needed = 0, uses_anonymous_args = 0
 6516 2490 00B5     		push	{lr}
 6517              		.cfi_def_cfa_offset 4
 6518              		.cfi_offset 14, -4
 6519 2492 83B0     		sub	sp, sp, #12
 6520              		.cfi_def_cfa_offset 16
 6521 2494 0190     		str	r0, [sp, #4]
 6522 2496 0091     		str	r1, [sp]
 6523              		.loc 1 2258 0
 6524 2498 0198     		ldr	r0, [sp, #4]
 6525 249a 2F21     		movs	r1, #47
 6526 249c 009A     		ldr	r2, [sp]
 6527 249e 0123     		movs	r3, #1
 6528 24a0 FFF7FEFF 		bl	LSM303AGR_ACC_ReadReg
 6529 24a4 0346     		mov	r3, r0
 6530 24a6 002B     		cmp	r3, #0
 6531 24a8 01D1     		bne	.L424
 6532              		.loc 1 2259 0
 6533 24aa 0023     		movs	r3, #0
 6534 24ac 0BE0     		b	.L425
 6535              	.L424:
 6536              		.loc 1 2261 0
 6537 24ae 009B     		ldr	r3, [sp]
 6538 24b0 1B78     		ldrb	r3, [r3]	@ zero_extendqisi2
 6539 24b2 03F01F03 		and	r3, r3, #31
 6540 24b6 DAB2     		uxtb	r2, r3
 6541 24b8 009B     		ldr	r3, [sp]
 6542 24ba 1A70     		strb	r2, [r3]
 6543              		.loc 1 2262 0
 6544 24bc 009B     		ldr	r3, [sp]
 6545 24be 1A78     		ldrb	r2, [r3]	@ zero_extendqisi2
 6546 24c0 009B     		ldr	r3, [sp]
 6547 24c2 1A70     		strb	r2, [r3]
 6548              		.loc 1 2264 0
 6549 24c4 0123     		movs	r3, #1
 6550              	.L425:
 6551              		.loc 1 2265 0
 6552 24c6 1846     		mov	r0, r3
 6553 24c8 03B0     		add	sp, sp, #12
 6554              		@ sp needed
 6555 24ca 5DF804FB 		ldr	pc, [sp], #4
 6556              		.cfi_endproc
 6557              	.LFE375:
 6558              		.size	LSM303AGR_ACC_R_FifoSamplesAvail, .-LSM303AGR_ACC_R_FifoSamplesAvail
 6559 24ce 00BF     		.align	2
 6560              		.p2align 4,,15
 6561              		.global	LSM303AGR_ACC_R_FifoEmpty
 6562              		.thumb
 6563              		.thumb_func
 6564              		.type	LSM303AGR_ACC_R_FifoEmpty, %function
 6565              	LSM303AGR_ACC_R_FifoEmpty:
 6566              	.LFB376:
 6567              		.loc 1 2275 0
ARM GAS  /tmp/ccRrg1qB.s 			page 118


 6568              		.cfi_startproc
 6569              		@ args = 0, pretend = 0, frame = 8
 6570              		@ frame_needed = 0, uses_anonymous_args = 0
 6571 24d0 00B5     		push	{lr}
 6572              		.cfi_def_cfa_offset 4
 6573              		.cfi_offset 14, -4
 6574 24d2 83B0     		sub	sp, sp, #12
 6575              		.cfi_def_cfa_offset 16
 6576 24d4 0190     		str	r0, [sp, #4]
 6577 24d6 0091     		str	r1, [sp]
 6578              		.loc 1 2276 0
 6579 24d8 0198     		ldr	r0, [sp, #4]
 6580 24da 2F21     		movs	r1, #47
 6581 24dc 009A     		ldr	r2, [sp]
 6582 24de 0123     		movs	r3, #1
 6583 24e0 FFF7FEFF 		bl	LSM303AGR_ACC_ReadReg
 6584 24e4 0346     		mov	r3, r0
 6585 24e6 002B     		cmp	r3, #0
 6586 24e8 01D1     		bne	.L427
 6587              		.loc 1 2277 0
 6588 24ea 0023     		movs	r3, #0
 6589 24ec 07E0     		b	.L428
 6590              	.L427:
 6591              		.loc 1 2279 0
 6592 24ee 009B     		ldr	r3, [sp]
 6593 24f0 1B78     		ldrb	r3, [r3]	@ zero_extendqisi2
 6594 24f2 03F02003 		and	r3, r3, #32
 6595 24f6 DAB2     		uxtb	r2, r3
 6596 24f8 009B     		ldr	r3, [sp]
 6597 24fa 1A70     		strb	r2, [r3]
 6598              		.loc 1 2281 0
 6599 24fc 0123     		movs	r3, #1
 6600              	.L428:
 6601              		.loc 1 2282 0
 6602 24fe 1846     		mov	r0, r3
 6603 2500 03B0     		add	sp, sp, #12
 6604              		@ sp needed
 6605 2502 5DF804FB 		ldr	pc, [sp], #4
 6606              		.cfi_endproc
 6607              	.LFE376:
 6608              		.size	LSM303AGR_ACC_R_FifoEmpty, .-LSM303AGR_ACC_R_FifoEmpty
 6609 2506 00BF     		.align	2
 6610 2508 AFF30080 		.p2align 4,,15
 6610      AFF30080 
 6611              		.global	LSM303AGR_ACC_R_FifoOverrun
 6612              		.thumb
 6613              		.thumb_func
 6614              		.type	LSM303AGR_ACC_R_FifoOverrun, %function
 6615              	LSM303AGR_ACC_R_FifoOverrun:
 6616              	.LFB377:
 6617              		.loc 1 2292 0
 6618              		.cfi_startproc
 6619              		@ args = 0, pretend = 0, frame = 8
 6620              		@ frame_needed = 0, uses_anonymous_args = 0
 6621 2510 00B5     		push	{lr}
 6622              		.cfi_def_cfa_offset 4
 6623              		.cfi_offset 14, -4
ARM GAS  /tmp/ccRrg1qB.s 			page 119


 6624 2512 83B0     		sub	sp, sp, #12
 6625              		.cfi_def_cfa_offset 16
 6626 2514 0190     		str	r0, [sp, #4]
 6627 2516 0091     		str	r1, [sp]
 6628              		.loc 1 2293 0
 6629 2518 0198     		ldr	r0, [sp, #4]
 6630 251a 2F21     		movs	r1, #47
 6631 251c 009A     		ldr	r2, [sp]
 6632 251e 0123     		movs	r3, #1
 6633 2520 FFF7FEFF 		bl	LSM303AGR_ACC_ReadReg
 6634 2524 0346     		mov	r3, r0
 6635 2526 002B     		cmp	r3, #0
 6636 2528 01D1     		bne	.L430
 6637              		.loc 1 2294 0
 6638 252a 0023     		movs	r3, #0
 6639 252c 07E0     		b	.L431
 6640              	.L430:
 6641              		.loc 1 2296 0
 6642 252e 009B     		ldr	r3, [sp]
 6643 2530 1B78     		ldrb	r3, [r3]	@ zero_extendqisi2
 6644 2532 03F04003 		and	r3, r3, #64
 6645 2536 DAB2     		uxtb	r2, r3
 6646 2538 009B     		ldr	r3, [sp]
 6647 253a 1A70     		strb	r2, [r3]
 6648              		.loc 1 2298 0
 6649 253c 0123     		movs	r3, #1
 6650              	.L431:
 6651              		.loc 1 2299 0
 6652 253e 1846     		mov	r0, r3
 6653 2540 03B0     		add	sp, sp, #12
 6654              		@ sp needed
 6655 2542 5DF804FB 		ldr	pc, [sp], #4
 6656              		.cfi_endproc
 6657              	.LFE377:
 6658              		.size	LSM303AGR_ACC_R_FifoOverrun, .-LSM303AGR_ACC_R_FifoOverrun
 6659 2546 00BF     		.align	2
 6660 2548 AFF30080 		.p2align 4,,15
 6660      AFF30080 
 6661              		.global	LSM303AGR_ACC_R_WatermarkLevel
 6662              		.thumb
 6663              		.thumb_func
 6664              		.type	LSM303AGR_ACC_R_WatermarkLevel, %function
 6665              	LSM303AGR_ACC_R_WatermarkLevel:
 6666              	.LFB378:
 6667              		.loc 1 2309 0
 6668              		.cfi_startproc
 6669              		@ args = 0, pretend = 0, frame = 8
 6670              		@ frame_needed = 0, uses_anonymous_args = 0
 6671 2550 00B5     		push	{lr}
 6672              		.cfi_def_cfa_offset 4
 6673              		.cfi_offset 14, -4
 6674 2552 83B0     		sub	sp, sp, #12
 6675              		.cfi_def_cfa_offset 16
 6676 2554 0190     		str	r0, [sp, #4]
 6677 2556 0091     		str	r1, [sp]
 6678              		.loc 1 2310 0
 6679 2558 0198     		ldr	r0, [sp, #4]
ARM GAS  /tmp/ccRrg1qB.s 			page 120


 6680 255a 2F21     		movs	r1, #47
 6681 255c 009A     		ldr	r2, [sp]
 6682 255e 0123     		movs	r3, #1
 6683 2560 FFF7FEFF 		bl	LSM303AGR_ACC_ReadReg
 6684 2564 0346     		mov	r3, r0
 6685 2566 002B     		cmp	r3, #0
 6686 2568 01D1     		bne	.L433
 6687              		.loc 1 2311 0
 6688 256a 0023     		movs	r3, #0
 6689 256c 07E0     		b	.L434
 6690              	.L433:
 6691              		.loc 1 2313 0
 6692 256e 009B     		ldr	r3, [sp]
 6693 2570 1B78     		ldrb	r3, [r3]	@ zero_extendqisi2
 6694 2572 23F07F03 		bic	r3, r3, #127
 6695 2576 DAB2     		uxtb	r2, r3
 6696 2578 009B     		ldr	r3, [sp]
 6697 257a 1A70     		strb	r2, [r3]
 6698              		.loc 1 2315 0
 6699 257c 0123     		movs	r3, #1
 6700              	.L434:
 6701              		.loc 1 2316 0
 6702 257e 1846     		mov	r0, r3
 6703 2580 03B0     		add	sp, sp, #12
 6704              		@ sp needed
 6705 2582 5DF804FB 		ldr	pc, [sp], #4
 6706              		.cfi_endproc
 6707              	.LFE378:
 6708              		.size	LSM303AGR_ACC_R_WatermarkLevel, .-LSM303AGR_ACC_R_WatermarkLevel
 6709 2586 00BF     		.align	2
 6710 2588 AFF30080 		.p2align 4,,15
 6710      AFF30080 
 6711              		.global	LSM303AGR_ACC_W_Int1EnXLo
 6712              		.thumb
 6713              		.thumb_func
 6714              		.type	LSM303AGR_ACC_W_Int1EnXLo, %function
 6715              	LSM303AGR_ACC_W_Int1EnXLo:
 6716              	.LFB379:
 6717              		.loc 1 2326 0
 6718              		.cfi_startproc
 6719              		@ args = 0, pretend = 0, frame = 16
 6720              		@ frame_needed = 0, uses_anonymous_args = 0
 6721 2590 00B5     		push	{lr}
 6722              		.cfi_def_cfa_offset 4
 6723              		.cfi_offset 14, -4
 6724 2592 85B0     		sub	sp, sp, #20
 6725              		.cfi_def_cfa_offset 24
 6726 2594 0190     		str	r0, [sp, #4]
 6727 2596 0B46     		mov	r3, r1
 6728 2598 8DF80330 		strb	r3, [sp, #3]
 6729              		.loc 1 2329 0
 6730 259c 0DF10F03 		add	r3, sp, #15
 6731 25a0 0198     		ldr	r0, [sp, #4]
 6732 25a2 3021     		movs	r1, #48
 6733 25a4 1A46     		mov	r2, r3
 6734 25a6 0123     		movs	r3, #1
 6735 25a8 FFF7FEFF 		bl	LSM303AGR_ACC_ReadReg
ARM GAS  /tmp/ccRrg1qB.s 			page 121


 6736 25ac 0346     		mov	r3, r0
 6737 25ae 002B     		cmp	r3, #0
 6738 25b0 01D1     		bne	.L436
 6739              		.loc 1 2330 0
 6740 25b2 0023     		movs	r3, #0
 6741 25b4 1CE0     		b	.L439
 6742              	.L436:
 6743              		.loc 1 2332 0
 6744 25b6 9DF80F30 		ldrb	r3, [sp, #15]	@ zero_extendqisi2
 6745 25ba 23F00103 		bic	r3, r3, #1
 6746 25be DBB2     		uxtb	r3, r3
 6747 25c0 8DF80F30 		strb	r3, [sp, #15]
 6748              		.loc 1 2333 0
 6749 25c4 9DF80F20 		ldrb	r2, [sp, #15]	@ zero_extendqisi2
 6750 25c8 9DF80330 		ldrb	r3, [sp, #3]
 6751 25cc 1343     		orrs	r3, r3, r2
 6752 25ce DBB2     		uxtb	r3, r3
 6753 25d0 8DF80F30 		strb	r3, [sp, #15]
 6754              		.loc 1 2335 0
 6755 25d4 0DF10F03 		add	r3, sp, #15
 6756 25d8 0198     		ldr	r0, [sp, #4]
 6757 25da 3021     		movs	r1, #48
 6758 25dc 1A46     		mov	r2, r3
 6759 25de 0123     		movs	r3, #1
 6760 25e0 FFF7FEFF 		bl	LSM303AGR_ACC_WriteReg
 6761 25e4 0346     		mov	r3, r0
 6762 25e6 002B     		cmp	r3, #0
 6763 25e8 01D1     		bne	.L438
 6764              		.loc 1 2336 0
 6765 25ea 0023     		movs	r3, #0
 6766 25ec 00E0     		b	.L439
 6767              	.L438:
 6768              		.loc 1 2338 0
 6769 25ee 0123     		movs	r3, #1
 6770              	.L439:
 6771              		.loc 1 2339 0
 6772 25f0 1846     		mov	r0, r3
 6773 25f2 05B0     		add	sp, sp, #20
 6774              		@ sp needed
 6775 25f4 5DF804FB 		ldr	pc, [sp], #4
 6776              		.cfi_endproc
 6777              	.LFE379:
 6778              		.size	LSM303AGR_ACC_W_Int1EnXLo, .-LSM303AGR_ACC_W_Int1EnXLo
 6779              		.align	2
 6780 25f8 AFF30080 		.p2align 4,,15
 6780      AFF30080 
 6781              		.global	LSM303AGR_ACC_R_Int1EnXLo
 6782              		.thumb
 6783              		.thumb_func
 6784              		.type	LSM303AGR_ACC_R_Int1EnXLo, %function
 6785              	LSM303AGR_ACC_R_Int1EnXLo:
 6786              	.LFB380:
 6787              		.loc 1 2349 0
 6788              		.cfi_startproc
 6789              		@ args = 0, pretend = 0, frame = 8
 6790              		@ frame_needed = 0, uses_anonymous_args = 0
 6791 2600 00B5     		push	{lr}
ARM GAS  /tmp/ccRrg1qB.s 			page 122


 6792              		.cfi_def_cfa_offset 4
 6793              		.cfi_offset 14, -4
 6794 2602 83B0     		sub	sp, sp, #12
 6795              		.cfi_def_cfa_offset 16
 6796 2604 0190     		str	r0, [sp, #4]
 6797 2606 0091     		str	r1, [sp]
 6798              		.loc 1 2350 0
 6799 2608 0198     		ldr	r0, [sp, #4]
 6800 260a 3021     		movs	r1, #48
 6801 260c 009A     		ldr	r2, [sp]
 6802 260e 0123     		movs	r3, #1
 6803 2610 FFF7FEFF 		bl	LSM303AGR_ACC_ReadReg
 6804 2614 0346     		mov	r3, r0
 6805 2616 002B     		cmp	r3, #0
 6806 2618 01D1     		bne	.L441
 6807              		.loc 1 2351 0
 6808 261a 0023     		movs	r3, #0
 6809 261c 07E0     		b	.L442
 6810              	.L441:
 6811              		.loc 1 2353 0
 6812 261e 009B     		ldr	r3, [sp]
 6813 2620 1B78     		ldrb	r3, [r3]	@ zero_extendqisi2
 6814 2622 03F00103 		and	r3, r3, #1
 6815 2626 DAB2     		uxtb	r2, r3
 6816 2628 009B     		ldr	r3, [sp]
 6817 262a 1A70     		strb	r2, [r3]
 6818              		.loc 1 2355 0
 6819 262c 0123     		movs	r3, #1
 6820              	.L442:
 6821              		.loc 1 2356 0
 6822 262e 1846     		mov	r0, r3
 6823 2630 03B0     		add	sp, sp, #12
 6824              		@ sp needed
 6825 2632 5DF804FB 		ldr	pc, [sp], #4
 6826              		.cfi_endproc
 6827              	.LFE380:
 6828              		.size	LSM303AGR_ACC_R_Int1EnXLo, .-LSM303AGR_ACC_R_Int1EnXLo
 6829 2636 00BF     		.align	2
 6830 2638 AFF30080 		.p2align 4,,15
 6830      AFF30080 
 6831              		.global	LSM303AGR_ACC_W_Int1EnXHi
 6832              		.thumb
 6833              		.thumb_func
 6834              		.type	LSM303AGR_ACC_W_Int1EnXHi, %function
 6835              	LSM303AGR_ACC_W_Int1EnXHi:
 6836              	.LFB381:
 6837              		.loc 1 2366 0
 6838              		.cfi_startproc
 6839              		@ args = 0, pretend = 0, frame = 16
 6840              		@ frame_needed = 0, uses_anonymous_args = 0
 6841 2640 00B5     		push	{lr}
 6842              		.cfi_def_cfa_offset 4
 6843              		.cfi_offset 14, -4
 6844 2642 85B0     		sub	sp, sp, #20
 6845              		.cfi_def_cfa_offset 24
 6846 2644 0190     		str	r0, [sp, #4]
 6847 2646 0B46     		mov	r3, r1
ARM GAS  /tmp/ccRrg1qB.s 			page 123


 6848 2648 8DF80330 		strb	r3, [sp, #3]
 6849              		.loc 1 2369 0
 6850 264c 0DF10F03 		add	r3, sp, #15
 6851 2650 0198     		ldr	r0, [sp, #4]
 6852 2652 3021     		movs	r1, #48
 6853 2654 1A46     		mov	r2, r3
 6854 2656 0123     		movs	r3, #1
 6855 2658 FFF7FEFF 		bl	LSM303AGR_ACC_ReadReg
 6856 265c 0346     		mov	r3, r0
 6857 265e 002B     		cmp	r3, #0
 6858 2660 01D1     		bne	.L444
 6859              		.loc 1 2370 0
 6860 2662 0023     		movs	r3, #0
 6861 2664 1CE0     		b	.L447
 6862              	.L444:
 6863              		.loc 1 2372 0
 6864 2666 9DF80F30 		ldrb	r3, [sp, #15]	@ zero_extendqisi2
 6865 266a 23F00203 		bic	r3, r3, #2
 6866 266e DBB2     		uxtb	r3, r3
 6867 2670 8DF80F30 		strb	r3, [sp, #15]
 6868              		.loc 1 2373 0
 6869 2674 9DF80F20 		ldrb	r2, [sp, #15]	@ zero_extendqisi2
 6870 2678 9DF80330 		ldrb	r3, [sp, #3]
 6871 267c 1343     		orrs	r3, r3, r2
 6872 267e DBB2     		uxtb	r3, r3
 6873 2680 8DF80F30 		strb	r3, [sp, #15]
 6874              		.loc 1 2375 0
 6875 2684 0DF10F03 		add	r3, sp, #15
 6876 2688 0198     		ldr	r0, [sp, #4]
 6877 268a 3021     		movs	r1, #48
 6878 268c 1A46     		mov	r2, r3
 6879 268e 0123     		movs	r3, #1
 6880 2690 FFF7FEFF 		bl	LSM303AGR_ACC_WriteReg
 6881 2694 0346     		mov	r3, r0
 6882 2696 002B     		cmp	r3, #0
 6883 2698 01D1     		bne	.L446
 6884              		.loc 1 2376 0
 6885 269a 0023     		movs	r3, #0
 6886 269c 00E0     		b	.L447
 6887              	.L446:
 6888              		.loc 1 2378 0
 6889 269e 0123     		movs	r3, #1
 6890              	.L447:
 6891              		.loc 1 2379 0
 6892 26a0 1846     		mov	r0, r3
 6893 26a2 05B0     		add	sp, sp, #20
 6894              		@ sp needed
 6895 26a4 5DF804FB 		ldr	pc, [sp], #4
 6896              		.cfi_endproc
 6897              	.LFE381:
 6898              		.size	LSM303AGR_ACC_W_Int1EnXHi, .-LSM303AGR_ACC_W_Int1EnXHi
 6899              		.align	2
 6900 26a8 AFF30080 		.p2align 4,,15
 6900      AFF30080 
 6901              		.global	LSM303AGR_ACC_R_Int1EnXHi
 6902              		.thumb
 6903              		.thumb_func
ARM GAS  /tmp/ccRrg1qB.s 			page 124


 6904              		.type	LSM303AGR_ACC_R_Int1EnXHi, %function
 6905              	LSM303AGR_ACC_R_Int1EnXHi:
 6906              	.LFB382:
 6907              		.loc 1 2389 0
 6908              		.cfi_startproc
 6909              		@ args = 0, pretend = 0, frame = 8
 6910              		@ frame_needed = 0, uses_anonymous_args = 0
 6911 26b0 00B5     		push	{lr}
 6912              		.cfi_def_cfa_offset 4
 6913              		.cfi_offset 14, -4
 6914 26b2 83B0     		sub	sp, sp, #12
 6915              		.cfi_def_cfa_offset 16
 6916 26b4 0190     		str	r0, [sp, #4]
 6917 26b6 0091     		str	r1, [sp]
 6918              		.loc 1 2390 0
 6919 26b8 0198     		ldr	r0, [sp, #4]
 6920 26ba 3021     		movs	r1, #48
 6921 26bc 009A     		ldr	r2, [sp]
 6922 26be 0123     		movs	r3, #1
 6923 26c0 FFF7FEFF 		bl	LSM303AGR_ACC_ReadReg
 6924 26c4 0346     		mov	r3, r0
 6925 26c6 002B     		cmp	r3, #0
 6926 26c8 01D1     		bne	.L449
 6927              		.loc 1 2391 0
 6928 26ca 0023     		movs	r3, #0
 6929 26cc 07E0     		b	.L450
 6930              	.L449:
 6931              		.loc 1 2393 0
 6932 26ce 009B     		ldr	r3, [sp]
 6933 26d0 1B78     		ldrb	r3, [r3]	@ zero_extendqisi2
 6934 26d2 03F00203 		and	r3, r3, #2
 6935 26d6 DAB2     		uxtb	r2, r3
 6936 26d8 009B     		ldr	r3, [sp]
 6937 26da 1A70     		strb	r2, [r3]
 6938              		.loc 1 2395 0
 6939 26dc 0123     		movs	r3, #1
 6940              	.L450:
 6941              		.loc 1 2396 0
 6942 26de 1846     		mov	r0, r3
 6943 26e0 03B0     		add	sp, sp, #12
 6944              		@ sp needed
 6945 26e2 5DF804FB 		ldr	pc, [sp], #4
 6946              		.cfi_endproc
 6947              	.LFE382:
 6948              		.size	LSM303AGR_ACC_R_Int1EnXHi, .-LSM303AGR_ACC_R_Int1EnXHi
 6949 26e6 00BF     		.align	2
 6950 26e8 AFF30080 		.p2align 4,,15
 6950      AFF30080 
 6951              		.global	LSM303AGR_ACC_W_Int1EnYLo
 6952              		.thumb
 6953              		.thumb_func
 6954              		.type	LSM303AGR_ACC_W_Int1EnYLo, %function
 6955              	LSM303AGR_ACC_W_Int1EnYLo:
 6956              	.LFB383:
 6957              		.loc 1 2406 0
 6958              		.cfi_startproc
 6959              		@ args = 0, pretend = 0, frame = 16
ARM GAS  /tmp/ccRrg1qB.s 			page 125


 6960              		@ frame_needed = 0, uses_anonymous_args = 0
 6961 26f0 00B5     		push	{lr}
 6962              		.cfi_def_cfa_offset 4
 6963              		.cfi_offset 14, -4
 6964 26f2 85B0     		sub	sp, sp, #20
 6965              		.cfi_def_cfa_offset 24
 6966 26f4 0190     		str	r0, [sp, #4]
 6967 26f6 0B46     		mov	r3, r1
 6968 26f8 8DF80330 		strb	r3, [sp, #3]
 6969              		.loc 1 2409 0
 6970 26fc 0DF10F03 		add	r3, sp, #15
 6971 2700 0198     		ldr	r0, [sp, #4]
 6972 2702 3021     		movs	r1, #48
 6973 2704 1A46     		mov	r2, r3
 6974 2706 0123     		movs	r3, #1
 6975 2708 FFF7FEFF 		bl	LSM303AGR_ACC_ReadReg
 6976 270c 0346     		mov	r3, r0
 6977 270e 002B     		cmp	r3, #0
 6978 2710 01D1     		bne	.L452
 6979              		.loc 1 2410 0
 6980 2712 0023     		movs	r3, #0
 6981 2714 1CE0     		b	.L455
 6982              	.L452:
 6983              		.loc 1 2412 0
 6984 2716 9DF80F30 		ldrb	r3, [sp, #15]	@ zero_extendqisi2
 6985 271a 23F00403 		bic	r3, r3, #4
 6986 271e DBB2     		uxtb	r3, r3
 6987 2720 8DF80F30 		strb	r3, [sp, #15]
 6988              		.loc 1 2413 0
 6989 2724 9DF80F20 		ldrb	r2, [sp, #15]	@ zero_extendqisi2
 6990 2728 9DF80330 		ldrb	r3, [sp, #3]
 6991 272c 1343     		orrs	r3, r3, r2
 6992 272e DBB2     		uxtb	r3, r3
 6993 2730 8DF80F30 		strb	r3, [sp, #15]
 6994              		.loc 1 2415 0
 6995 2734 0DF10F03 		add	r3, sp, #15
 6996 2738 0198     		ldr	r0, [sp, #4]
 6997 273a 3021     		movs	r1, #48
 6998 273c 1A46     		mov	r2, r3
 6999 273e 0123     		movs	r3, #1
 7000 2740 FFF7FEFF 		bl	LSM303AGR_ACC_WriteReg
 7001 2744 0346     		mov	r3, r0
 7002 2746 002B     		cmp	r3, #0
 7003 2748 01D1     		bne	.L454
 7004              		.loc 1 2416 0
 7005 274a 0023     		movs	r3, #0
 7006 274c 00E0     		b	.L455
 7007              	.L454:
 7008              		.loc 1 2418 0
 7009 274e 0123     		movs	r3, #1
 7010              	.L455:
 7011              		.loc 1 2419 0
 7012 2750 1846     		mov	r0, r3
 7013 2752 05B0     		add	sp, sp, #20
 7014              		@ sp needed
 7015 2754 5DF804FB 		ldr	pc, [sp], #4
 7016              		.cfi_endproc
ARM GAS  /tmp/ccRrg1qB.s 			page 126


 7017              	.LFE383:
 7018              		.size	LSM303AGR_ACC_W_Int1EnYLo, .-LSM303AGR_ACC_W_Int1EnYLo
 7019              		.align	2
 7020 2758 AFF30080 		.p2align 4,,15
 7020      AFF30080 
 7021              		.global	LSM303AGR_ACC_R_Int1EnYLo
 7022              		.thumb
 7023              		.thumb_func
 7024              		.type	LSM303AGR_ACC_R_Int1EnYLo, %function
 7025              	LSM303AGR_ACC_R_Int1EnYLo:
 7026              	.LFB384:
 7027              		.loc 1 2429 0
 7028              		.cfi_startproc
 7029              		@ args = 0, pretend = 0, frame = 8
 7030              		@ frame_needed = 0, uses_anonymous_args = 0
 7031 2760 00B5     		push	{lr}
 7032              		.cfi_def_cfa_offset 4
 7033              		.cfi_offset 14, -4
 7034 2762 83B0     		sub	sp, sp, #12
 7035              		.cfi_def_cfa_offset 16
 7036 2764 0190     		str	r0, [sp, #4]
 7037 2766 0091     		str	r1, [sp]
 7038              		.loc 1 2430 0
 7039 2768 0198     		ldr	r0, [sp, #4]
 7040 276a 3021     		movs	r1, #48
 7041 276c 009A     		ldr	r2, [sp]
 7042 276e 0123     		movs	r3, #1
 7043 2770 FFF7FEFF 		bl	LSM303AGR_ACC_ReadReg
 7044 2774 0346     		mov	r3, r0
 7045 2776 002B     		cmp	r3, #0
 7046 2778 01D1     		bne	.L457
 7047              		.loc 1 2431 0
 7048 277a 0023     		movs	r3, #0
 7049 277c 07E0     		b	.L458
 7050              	.L457:
 7051              		.loc 1 2433 0
 7052 277e 009B     		ldr	r3, [sp]
 7053 2780 1B78     		ldrb	r3, [r3]	@ zero_extendqisi2
 7054 2782 03F00403 		and	r3, r3, #4
 7055 2786 DAB2     		uxtb	r2, r3
 7056 2788 009B     		ldr	r3, [sp]
 7057 278a 1A70     		strb	r2, [r3]
 7058              		.loc 1 2435 0
 7059 278c 0123     		movs	r3, #1
 7060              	.L458:
 7061              		.loc 1 2436 0
 7062 278e 1846     		mov	r0, r3
 7063 2790 03B0     		add	sp, sp, #12
 7064              		@ sp needed
 7065 2792 5DF804FB 		ldr	pc, [sp], #4
 7066              		.cfi_endproc
 7067              	.LFE384:
 7068              		.size	LSM303AGR_ACC_R_Int1EnYLo, .-LSM303AGR_ACC_R_Int1EnYLo
 7069 2796 00BF     		.align	2
 7070 2798 AFF30080 		.p2align 4,,15
 7070      AFF30080 
 7071              		.global	LSM303AGR_ACC_W_Int1EnYHi
ARM GAS  /tmp/ccRrg1qB.s 			page 127


 7072              		.thumb
 7073              		.thumb_func
 7074              		.type	LSM303AGR_ACC_W_Int1EnYHi, %function
 7075              	LSM303AGR_ACC_W_Int1EnYHi:
 7076              	.LFB385:
 7077              		.loc 1 2446 0
 7078              		.cfi_startproc
 7079              		@ args = 0, pretend = 0, frame = 16
 7080              		@ frame_needed = 0, uses_anonymous_args = 0
 7081 27a0 00B5     		push	{lr}
 7082              		.cfi_def_cfa_offset 4
 7083              		.cfi_offset 14, -4
 7084 27a2 85B0     		sub	sp, sp, #20
 7085              		.cfi_def_cfa_offset 24
 7086 27a4 0190     		str	r0, [sp, #4]
 7087 27a6 0B46     		mov	r3, r1
 7088 27a8 8DF80330 		strb	r3, [sp, #3]
 7089              		.loc 1 2449 0
 7090 27ac 0DF10F03 		add	r3, sp, #15
 7091 27b0 0198     		ldr	r0, [sp, #4]
 7092 27b2 3021     		movs	r1, #48
 7093 27b4 1A46     		mov	r2, r3
 7094 27b6 0123     		movs	r3, #1
 7095 27b8 FFF7FEFF 		bl	LSM303AGR_ACC_ReadReg
 7096 27bc 0346     		mov	r3, r0
 7097 27be 002B     		cmp	r3, #0
 7098 27c0 01D1     		bne	.L460
 7099              		.loc 1 2450 0
 7100 27c2 0023     		movs	r3, #0
 7101 27c4 1CE0     		b	.L463
 7102              	.L460:
 7103              		.loc 1 2452 0
 7104 27c6 9DF80F30 		ldrb	r3, [sp, #15]	@ zero_extendqisi2
 7105 27ca 23F00803 		bic	r3, r3, #8
 7106 27ce DBB2     		uxtb	r3, r3
 7107 27d0 8DF80F30 		strb	r3, [sp, #15]
 7108              		.loc 1 2453 0
 7109 27d4 9DF80F20 		ldrb	r2, [sp, #15]	@ zero_extendqisi2
 7110 27d8 9DF80330 		ldrb	r3, [sp, #3]
 7111 27dc 1343     		orrs	r3, r3, r2
 7112 27de DBB2     		uxtb	r3, r3
 7113 27e0 8DF80F30 		strb	r3, [sp, #15]
 7114              		.loc 1 2455 0
 7115 27e4 0DF10F03 		add	r3, sp, #15
 7116 27e8 0198     		ldr	r0, [sp, #4]
 7117 27ea 3021     		movs	r1, #48
 7118 27ec 1A46     		mov	r2, r3
 7119 27ee 0123     		movs	r3, #1
 7120 27f0 FFF7FEFF 		bl	LSM303AGR_ACC_WriteReg
 7121 27f4 0346     		mov	r3, r0
 7122 27f6 002B     		cmp	r3, #0
 7123 27f8 01D1     		bne	.L462
 7124              		.loc 1 2456 0
 7125 27fa 0023     		movs	r3, #0
 7126 27fc 00E0     		b	.L463
 7127              	.L462:
 7128              		.loc 1 2458 0
ARM GAS  /tmp/ccRrg1qB.s 			page 128


 7129 27fe 0123     		movs	r3, #1
 7130              	.L463:
 7131              		.loc 1 2459 0
 7132 2800 1846     		mov	r0, r3
 7133 2802 05B0     		add	sp, sp, #20
 7134              		@ sp needed
 7135 2804 5DF804FB 		ldr	pc, [sp], #4
 7136              		.cfi_endproc
 7137              	.LFE385:
 7138              		.size	LSM303AGR_ACC_W_Int1EnYHi, .-LSM303AGR_ACC_W_Int1EnYHi
 7139              		.align	2
 7140 2808 AFF30080 		.p2align 4,,15
 7140      AFF30080 
 7141              		.global	LSM303AGR_ACC_R_Int1EnYHi
 7142              		.thumb
 7143              		.thumb_func
 7144              		.type	LSM303AGR_ACC_R_Int1EnYHi, %function
 7145              	LSM303AGR_ACC_R_Int1EnYHi:
 7146              	.LFB386:
 7147              		.loc 1 2469 0
 7148              		.cfi_startproc
 7149              		@ args = 0, pretend = 0, frame = 8
 7150              		@ frame_needed = 0, uses_anonymous_args = 0
 7151 2810 00B5     		push	{lr}
 7152              		.cfi_def_cfa_offset 4
 7153              		.cfi_offset 14, -4
 7154 2812 83B0     		sub	sp, sp, #12
 7155              		.cfi_def_cfa_offset 16
 7156 2814 0190     		str	r0, [sp, #4]
 7157 2816 0091     		str	r1, [sp]
 7158              		.loc 1 2470 0
 7159 2818 0198     		ldr	r0, [sp, #4]
 7160 281a 3021     		movs	r1, #48
 7161 281c 009A     		ldr	r2, [sp]
 7162 281e 0123     		movs	r3, #1
 7163 2820 FFF7FEFF 		bl	LSM303AGR_ACC_ReadReg
 7164 2824 0346     		mov	r3, r0
 7165 2826 002B     		cmp	r3, #0
 7166 2828 01D1     		bne	.L465
 7167              		.loc 1 2471 0
 7168 282a 0023     		movs	r3, #0
 7169 282c 07E0     		b	.L466
 7170              	.L465:
 7171              		.loc 1 2473 0
 7172 282e 009B     		ldr	r3, [sp]
 7173 2830 1B78     		ldrb	r3, [r3]	@ zero_extendqisi2
 7174 2832 03F00803 		and	r3, r3, #8
 7175 2836 DAB2     		uxtb	r2, r3
 7176 2838 009B     		ldr	r3, [sp]
 7177 283a 1A70     		strb	r2, [r3]
 7178              		.loc 1 2475 0
 7179 283c 0123     		movs	r3, #1
 7180              	.L466:
 7181              		.loc 1 2476 0
 7182 283e 1846     		mov	r0, r3
 7183 2840 03B0     		add	sp, sp, #12
 7184              		@ sp needed
ARM GAS  /tmp/ccRrg1qB.s 			page 129


 7185 2842 5DF804FB 		ldr	pc, [sp], #4
 7186              		.cfi_endproc
 7187              	.LFE386:
 7188              		.size	LSM303AGR_ACC_R_Int1EnYHi, .-LSM303AGR_ACC_R_Int1EnYHi
 7189 2846 00BF     		.align	2
 7190 2848 AFF30080 		.p2align 4,,15
 7190      AFF30080 
 7191              		.global	LSM303AGR_ACC_W_Int1EnZLo
 7192              		.thumb
 7193              		.thumb_func
 7194              		.type	LSM303AGR_ACC_W_Int1EnZLo, %function
 7195              	LSM303AGR_ACC_W_Int1EnZLo:
 7196              	.LFB387:
 7197              		.loc 1 2486 0
 7198              		.cfi_startproc
 7199              		@ args = 0, pretend = 0, frame = 16
 7200              		@ frame_needed = 0, uses_anonymous_args = 0
 7201 2850 00B5     		push	{lr}
 7202              		.cfi_def_cfa_offset 4
 7203              		.cfi_offset 14, -4
 7204 2852 85B0     		sub	sp, sp, #20
 7205              		.cfi_def_cfa_offset 24
 7206 2854 0190     		str	r0, [sp, #4]
 7207 2856 0B46     		mov	r3, r1
 7208 2858 8DF80330 		strb	r3, [sp, #3]
 7209              		.loc 1 2489 0
 7210 285c 0DF10F03 		add	r3, sp, #15
 7211 2860 0198     		ldr	r0, [sp, #4]
 7212 2862 3021     		movs	r1, #48
 7213 2864 1A46     		mov	r2, r3
 7214 2866 0123     		movs	r3, #1
 7215 2868 FFF7FEFF 		bl	LSM303AGR_ACC_ReadReg
 7216 286c 0346     		mov	r3, r0
 7217 286e 002B     		cmp	r3, #0
 7218 2870 01D1     		bne	.L468
 7219              		.loc 1 2490 0
 7220 2872 0023     		movs	r3, #0
 7221 2874 1CE0     		b	.L471
 7222              	.L468:
 7223              		.loc 1 2492 0
 7224 2876 9DF80F30 		ldrb	r3, [sp, #15]	@ zero_extendqisi2
 7225 287a 23F01003 		bic	r3, r3, #16
 7226 287e DBB2     		uxtb	r3, r3
 7227 2880 8DF80F30 		strb	r3, [sp, #15]
 7228              		.loc 1 2493 0
 7229 2884 9DF80F20 		ldrb	r2, [sp, #15]	@ zero_extendqisi2
 7230 2888 9DF80330 		ldrb	r3, [sp, #3]
 7231 288c 1343     		orrs	r3, r3, r2
 7232 288e DBB2     		uxtb	r3, r3
 7233 2890 8DF80F30 		strb	r3, [sp, #15]
 7234              		.loc 1 2495 0
 7235 2894 0DF10F03 		add	r3, sp, #15
 7236 2898 0198     		ldr	r0, [sp, #4]
 7237 289a 3021     		movs	r1, #48
 7238 289c 1A46     		mov	r2, r3
 7239 289e 0123     		movs	r3, #1
 7240 28a0 FFF7FEFF 		bl	LSM303AGR_ACC_WriteReg
ARM GAS  /tmp/ccRrg1qB.s 			page 130


 7241 28a4 0346     		mov	r3, r0
 7242 28a6 002B     		cmp	r3, #0
 7243 28a8 01D1     		bne	.L470
 7244              		.loc 1 2496 0
 7245 28aa 0023     		movs	r3, #0
 7246 28ac 00E0     		b	.L471
 7247              	.L470:
 7248              		.loc 1 2498 0
 7249 28ae 0123     		movs	r3, #1
 7250              	.L471:
 7251              		.loc 1 2499 0
 7252 28b0 1846     		mov	r0, r3
 7253 28b2 05B0     		add	sp, sp, #20
 7254              		@ sp needed
 7255 28b4 5DF804FB 		ldr	pc, [sp], #4
 7256              		.cfi_endproc
 7257              	.LFE387:
 7258              		.size	LSM303AGR_ACC_W_Int1EnZLo, .-LSM303AGR_ACC_W_Int1EnZLo
 7259              		.align	2
 7260 28b8 AFF30080 		.p2align 4,,15
 7260      AFF30080 
 7261              		.global	LSM303AGR_ACC_R_Int1EnZLo
 7262              		.thumb
 7263              		.thumb_func
 7264              		.type	LSM303AGR_ACC_R_Int1EnZLo, %function
 7265              	LSM303AGR_ACC_R_Int1EnZLo:
 7266              	.LFB388:
 7267              		.loc 1 2509 0
 7268              		.cfi_startproc
 7269              		@ args = 0, pretend = 0, frame = 8
 7270              		@ frame_needed = 0, uses_anonymous_args = 0
 7271 28c0 00B5     		push	{lr}
 7272              		.cfi_def_cfa_offset 4
 7273              		.cfi_offset 14, -4
 7274 28c2 83B0     		sub	sp, sp, #12
 7275              		.cfi_def_cfa_offset 16
 7276 28c4 0190     		str	r0, [sp, #4]
 7277 28c6 0091     		str	r1, [sp]
 7278              		.loc 1 2510 0
 7279 28c8 0198     		ldr	r0, [sp, #4]
 7280 28ca 3021     		movs	r1, #48
 7281 28cc 009A     		ldr	r2, [sp]
 7282 28ce 0123     		movs	r3, #1
 7283 28d0 FFF7FEFF 		bl	LSM303AGR_ACC_ReadReg
 7284 28d4 0346     		mov	r3, r0
 7285 28d6 002B     		cmp	r3, #0
 7286 28d8 01D1     		bne	.L473
 7287              		.loc 1 2511 0
 7288 28da 0023     		movs	r3, #0
 7289 28dc 07E0     		b	.L474
 7290              	.L473:
 7291              		.loc 1 2513 0
 7292 28de 009B     		ldr	r3, [sp]
 7293 28e0 1B78     		ldrb	r3, [r3]	@ zero_extendqisi2
 7294 28e2 03F01003 		and	r3, r3, #16
 7295 28e6 DAB2     		uxtb	r2, r3
 7296 28e8 009B     		ldr	r3, [sp]
ARM GAS  /tmp/ccRrg1qB.s 			page 131


 7297 28ea 1A70     		strb	r2, [r3]
 7298              		.loc 1 2515 0
 7299 28ec 0123     		movs	r3, #1
 7300              	.L474:
 7301              		.loc 1 2516 0
 7302 28ee 1846     		mov	r0, r3
 7303 28f0 03B0     		add	sp, sp, #12
 7304              		@ sp needed
 7305 28f2 5DF804FB 		ldr	pc, [sp], #4
 7306              		.cfi_endproc
 7307              	.LFE388:
 7308              		.size	LSM303AGR_ACC_R_Int1EnZLo, .-LSM303AGR_ACC_R_Int1EnZLo
 7309 28f6 00BF     		.align	2
 7310 28f8 AFF30080 		.p2align 4,,15
 7310      AFF30080 
 7311              		.global	LSM303AGR_ACC_W_Int1EnZHi
 7312              		.thumb
 7313              		.thumb_func
 7314              		.type	LSM303AGR_ACC_W_Int1EnZHi, %function
 7315              	LSM303AGR_ACC_W_Int1EnZHi:
 7316              	.LFB389:
 7317              		.loc 1 2526 0
 7318              		.cfi_startproc
 7319              		@ args = 0, pretend = 0, frame = 16
 7320              		@ frame_needed = 0, uses_anonymous_args = 0
 7321 2900 00B5     		push	{lr}
 7322              		.cfi_def_cfa_offset 4
 7323              		.cfi_offset 14, -4
 7324 2902 85B0     		sub	sp, sp, #20
 7325              		.cfi_def_cfa_offset 24
 7326 2904 0190     		str	r0, [sp, #4]
 7327 2906 0B46     		mov	r3, r1
 7328 2908 8DF80330 		strb	r3, [sp, #3]
 7329              		.loc 1 2529 0
 7330 290c 0DF10F03 		add	r3, sp, #15
 7331 2910 0198     		ldr	r0, [sp, #4]
 7332 2912 3021     		movs	r1, #48
 7333 2914 1A46     		mov	r2, r3
 7334 2916 0123     		movs	r3, #1
 7335 2918 FFF7FEFF 		bl	LSM303AGR_ACC_ReadReg
 7336 291c 0346     		mov	r3, r0
 7337 291e 002B     		cmp	r3, #0
 7338 2920 01D1     		bne	.L476
 7339              		.loc 1 2530 0
 7340 2922 0023     		movs	r3, #0
 7341 2924 1CE0     		b	.L479
 7342              	.L476:
 7343              		.loc 1 2532 0
 7344 2926 9DF80F30 		ldrb	r3, [sp, #15]	@ zero_extendqisi2
 7345 292a 23F02003 		bic	r3, r3, #32
 7346 292e DBB2     		uxtb	r3, r3
 7347 2930 8DF80F30 		strb	r3, [sp, #15]
 7348              		.loc 1 2533 0
 7349 2934 9DF80F20 		ldrb	r2, [sp, #15]	@ zero_extendqisi2
 7350 2938 9DF80330 		ldrb	r3, [sp, #3]
 7351 293c 1343     		orrs	r3, r3, r2
 7352 293e DBB2     		uxtb	r3, r3
ARM GAS  /tmp/ccRrg1qB.s 			page 132


 7353 2940 8DF80F30 		strb	r3, [sp, #15]
 7354              		.loc 1 2535 0
 7355 2944 0DF10F03 		add	r3, sp, #15
 7356 2948 0198     		ldr	r0, [sp, #4]
 7357 294a 3021     		movs	r1, #48
 7358 294c 1A46     		mov	r2, r3
 7359 294e 0123     		movs	r3, #1
 7360 2950 FFF7FEFF 		bl	LSM303AGR_ACC_WriteReg
 7361 2954 0346     		mov	r3, r0
 7362 2956 002B     		cmp	r3, #0
 7363 2958 01D1     		bne	.L478
 7364              		.loc 1 2536 0
 7365 295a 0023     		movs	r3, #0
 7366 295c 00E0     		b	.L479
 7367              	.L478:
 7368              		.loc 1 2538 0
 7369 295e 0123     		movs	r3, #1
 7370              	.L479:
 7371              		.loc 1 2539 0
 7372 2960 1846     		mov	r0, r3
 7373 2962 05B0     		add	sp, sp, #20
 7374              		@ sp needed
 7375 2964 5DF804FB 		ldr	pc, [sp], #4
 7376              		.cfi_endproc
 7377              	.LFE389:
 7378              		.size	LSM303AGR_ACC_W_Int1EnZHi, .-LSM303AGR_ACC_W_Int1EnZHi
 7379              		.align	2
 7380 2968 AFF30080 		.p2align 4,,15
 7380      AFF30080 
 7381              		.global	LSM303AGR_ACC_R_Int1EnZHi
 7382              		.thumb
 7383              		.thumb_func
 7384              		.type	LSM303AGR_ACC_R_Int1EnZHi, %function
 7385              	LSM303AGR_ACC_R_Int1EnZHi:
 7386              	.LFB390:
 7387              		.loc 1 2549 0
 7388              		.cfi_startproc
 7389              		@ args = 0, pretend = 0, frame = 8
 7390              		@ frame_needed = 0, uses_anonymous_args = 0
 7391 2970 00B5     		push	{lr}
 7392              		.cfi_def_cfa_offset 4
 7393              		.cfi_offset 14, -4
 7394 2972 83B0     		sub	sp, sp, #12
 7395              		.cfi_def_cfa_offset 16
 7396 2974 0190     		str	r0, [sp, #4]
 7397 2976 0091     		str	r1, [sp]
 7398              		.loc 1 2550 0
 7399 2978 0198     		ldr	r0, [sp, #4]
 7400 297a 3021     		movs	r1, #48
 7401 297c 009A     		ldr	r2, [sp]
 7402 297e 0123     		movs	r3, #1
 7403 2980 FFF7FEFF 		bl	LSM303AGR_ACC_ReadReg
 7404 2984 0346     		mov	r3, r0
 7405 2986 002B     		cmp	r3, #0
 7406 2988 01D1     		bne	.L481
 7407              		.loc 1 2551 0
 7408 298a 0023     		movs	r3, #0
ARM GAS  /tmp/ccRrg1qB.s 			page 133


 7409 298c 07E0     		b	.L482
 7410              	.L481:
 7411              		.loc 1 2553 0
 7412 298e 009B     		ldr	r3, [sp]
 7413 2990 1B78     		ldrb	r3, [r3]	@ zero_extendqisi2
 7414 2992 03F02003 		and	r3, r3, #32
 7415 2996 DAB2     		uxtb	r2, r3
 7416 2998 009B     		ldr	r3, [sp]
 7417 299a 1A70     		strb	r2, [r3]
 7418              		.loc 1 2555 0
 7419 299c 0123     		movs	r3, #1
 7420              	.L482:
 7421              		.loc 1 2556 0
 7422 299e 1846     		mov	r0, r3
 7423 29a0 03B0     		add	sp, sp, #12
 7424              		@ sp needed
 7425 29a2 5DF804FB 		ldr	pc, [sp], #4
 7426              		.cfi_endproc
 7427              	.LFE390:
 7428              		.size	LSM303AGR_ACC_R_Int1EnZHi, .-LSM303AGR_ACC_R_Int1EnZHi
 7429 29a6 00BF     		.align	2
 7430 29a8 AFF30080 		.p2align 4,,15
 7430      AFF30080 
 7431              		.global	LSM303AGR_ACC_W_Int1_6D
 7432              		.thumb
 7433              		.thumb_func
 7434              		.type	LSM303AGR_ACC_W_Int1_6D, %function
 7435              	LSM303AGR_ACC_W_Int1_6D:
 7436              	.LFB391:
 7437              		.loc 1 2566 0
 7438              		.cfi_startproc
 7439              		@ args = 0, pretend = 0, frame = 16
 7440              		@ frame_needed = 0, uses_anonymous_args = 0
 7441 29b0 00B5     		push	{lr}
 7442              		.cfi_def_cfa_offset 4
 7443              		.cfi_offset 14, -4
 7444 29b2 85B0     		sub	sp, sp, #20
 7445              		.cfi_def_cfa_offset 24
 7446 29b4 0190     		str	r0, [sp, #4]
 7447 29b6 0B46     		mov	r3, r1
 7448 29b8 8DF80330 		strb	r3, [sp, #3]
 7449              		.loc 1 2569 0
 7450 29bc 0DF10F03 		add	r3, sp, #15
 7451 29c0 0198     		ldr	r0, [sp, #4]
 7452 29c2 3021     		movs	r1, #48
 7453 29c4 1A46     		mov	r2, r3
 7454 29c6 0123     		movs	r3, #1
 7455 29c8 FFF7FEFF 		bl	LSM303AGR_ACC_ReadReg
 7456 29cc 0346     		mov	r3, r0
 7457 29ce 002B     		cmp	r3, #0
 7458 29d0 01D1     		bne	.L484
 7459              		.loc 1 2570 0
 7460 29d2 0023     		movs	r3, #0
 7461 29d4 1CE0     		b	.L487
 7462              	.L484:
 7463              		.loc 1 2572 0
 7464 29d6 9DF80F30 		ldrb	r3, [sp, #15]	@ zero_extendqisi2
ARM GAS  /tmp/ccRrg1qB.s 			page 134


 7465 29da 23F04003 		bic	r3, r3, #64
 7466 29de DBB2     		uxtb	r3, r3
 7467 29e0 8DF80F30 		strb	r3, [sp, #15]
 7468              		.loc 1 2573 0
 7469 29e4 9DF80F20 		ldrb	r2, [sp, #15]	@ zero_extendqisi2
 7470 29e8 9DF80330 		ldrb	r3, [sp, #3]
 7471 29ec 1343     		orrs	r3, r3, r2
 7472 29ee DBB2     		uxtb	r3, r3
 7473 29f0 8DF80F30 		strb	r3, [sp, #15]
 7474              		.loc 1 2575 0
 7475 29f4 0DF10F03 		add	r3, sp, #15
 7476 29f8 0198     		ldr	r0, [sp, #4]
 7477 29fa 3021     		movs	r1, #48
 7478 29fc 1A46     		mov	r2, r3
 7479 29fe 0123     		movs	r3, #1
 7480 2a00 FFF7FEFF 		bl	LSM303AGR_ACC_WriteReg
 7481 2a04 0346     		mov	r3, r0
 7482 2a06 002B     		cmp	r3, #0
 7483 2a08 01D1     		bne	.L486
 7484              		.loc 1 2576 0
 7485 2a0a 0023     		movs	r3, #0
 7486 2a0c 00E0     		b	.L487
 7487              	.L486:
 7488              		.loc 1 2578 0
 7489 2a0e 0123     		movs	r3, #1
 7490              	.L487:
 7491              		.loc 1 2579 0
 7492 2a10 1846     		mov	r0, r3
 7493 2a12 05B0     		add	sp, sp, #20
 7494              		@ sp needed
 7495 2a14 5DF804FB 		ldr	pc, [sp], #4
 7496              		.cfi_endproc
 7497              	.LFE391:
 7498              		.size	LSM303AGR_ACC_W_Int1_6D, .-LSM303AGR_ACC_W_Int1_6D
 7499              		.align	2
 7500 2a18 AFF30080 		.p2align 4,,15
 7500      AFF30080 
 7501              		.global	LSM303AGR_ACC_R_Int1_6D
 7502              		.thumb
 7503              		.thumb_func
 7504              		.type	LSM303AGR_ACC_R_Int1_6D, %function
 7505              	LSM303AGR_ACC_R_Int1_6D:
 7506              	.LFB392:
 7507              		.loc 1 2589 0
 7508              		.cfi_startproc
 7509              		@ args = 0, pretend = 0, frame = 8
 7510              		@ frame_needed = 0, uses_anonymous_args = 0
 7511 2a20 00B5     		push	{lr}
 7512              		.cfi_def_cfa_offset 4
 7513              		.cfi_offset 14, -4
 7514 2a22 83B0     		sub	sp, sp, #12
 7515              		.cfi_def_cfa_offset 16
 7516 2a24 0190     		str	r0, [sp, #4]
 7517 2a26 0091     		str	r1, [sp]
 7518              		.loc 1 2590 0
 7519 2a28 0198     		ldr	r0, [sp, #4]
 7520 2a2a 3021     		movs	r1, #48
ARM GAS  /tmp/ccRrg1qB.s 			page 135


 7521 2a2c 009A     		ldr	r2, [sp]
 7522 2a2e 0123     		movs	r3, #1
 7523 2a30 FFF7FEFF 		bl	LSM303AGR_ACC_ReadReg
 7524 2a34 0346     		mov	r3, r0
 7525 2a36 002B     		cmp	r3, #0
 7526 2a38 01D1     		bne	.L489
 7527              		.loc 1 2591 0
 7528 2a3a 0023     		movs	r3, #0
 7529 2a3c 07E0     		b	.L490
 7530              	.L489:
 7531              		.loc 1 2593 0
 7532 2a3e 009B     		ldr	r3, [sp]
 7533 2a40 1B78     		ldrb	r3, [r3]	@ zero_extendqisi2
 7534 2a42 03F04003 		and	r3, r3, #64
 7535 2a46 DAB2     		uxtb	r2, r3
 7536 2a48 009B     		ldr	r3, [sp]
 7537 2a4a 1A70     		strb	r2, [r3]
 7538              		.loc 1 2595 0
 7539 2a4c 0123     		movs	r3, #1
 7540              	.L490:
 7541              		.loc 1 2596 0
 7542 2a4e 1846     		mov	r0, r3
 7543 2a50 03B0     		add	sp, sp, #12
 7544              		@ sp needed
 7545 2a52 5DF804FB 		ldr	pc, [sp], #4
 7546              		.cfi_endproc
 7547              	.LFE392:
 7548              		.size	LSM303AGR_ACC_R_Int1_6D, .-LSM303AGR_ACC_R_Int1_6D
 7549 2a56 00BF     		.align	2
 7550 2a58 AFF30080 		.p2align 4,,15
 7550      AFF30080 
 7551              		.global	LSM303AGR_ACC_W_Int1_AOI
 7552              		.thumb
 7553              		.thumb_func
 7554              		.type	LSM303AGR_ACC_W_Int1_AOI, %function
 7555              	LSM303AGR_ACC_W_Int1_AOI:
 7556              	.LFB393:
 7557              		.loc 1 2606 0
 7558              		.cfi_startproc
 7559              		@ args = 0, pretend = 0, frame = 16
 7560              		@ frame_needed = 0, uses_anonymous_args = 0
 7561 2a60 00B5     		push	{lr}
 7562              		.cfi_def_cfa_offset 4
 7563              		.cfi_offset 14, -4
 7564 2a62 85B0     		sub	sp, sp, #20
 7565              		.cfi_def_cfa_offset 24
 7566 2a64 0190     		str	r0, [sp, #4]
 7567 2a66 0B46     		mov	r3, r1
 7568 2a68 8DF80330 		strb	r3, [sp, #3]
 7569              		.loc 1 2609 0
 7570 2a6c 0DF10F03 		add	r3, sp, #15
 7571 2a70 0198     		ldr	r0, [sp, #4]
 7572 2a72 3021     		movs	r1, #48
 7573 2a74 1A46     		mov	r2, r3
 7574 2a76 0123     		movs	r3, #1
 7575 2a78 FFF7FEFF 		bl	LSM303AGR_ACC_ReadReg
 7576 2a7c 0346     		mov	r3, r0
ARM GAS  /tmp/ccRrg1qB.s 			page 136


 7577 2a7e 002B     		cmp	r3, #0
 7578 2a80 01D1     		bne	.L492
 7579              		.loc 1 2610 0
 7580 2a82 0023     		movs	r3, #0
 7581 2a84 1CE0     		b	.L495
 7582              	.L492:
 7583              		.loc 1 2612 0
 7584 2a86 9DF80F30 		ldrb	r3, [sp, #15]	@ zero_extendqisi2
 7585 2a8a 03F07F03 		and	r3, r3, #127
 7586 2a8e DBB2     		uxtb	r3, r3
 7587 2a90 8DF80F30 		strb	r3, [sp, #15]
 7588              		.loc 1 2613 0
 7589 2a94 9DF80F20 		ldrb	r2, [sp, #15]	@ zero_extendqisi2
 7590 2a98 9DF80330 		ldrb	r3, [sp, #3]
 7591 2a9c 1343     		orrs	r3, r3, r2
 7592 2a9e DBB2     		uxtb	r3, r3
 7593 2aa0 8DF80F30 		strb	r3, [sp, #15]
 7594              		.loc 1 2615 0
 7595 2aa4 0DF10F03 		add	r3, sp, #15
 7596 2aa8 0198     		ldr	r0, [sp, #4]
 7597 2aaa 3021     		movs	r1, #48
 7598 2aac 1A46     		mov	r2, r3
 7599 2aae 0123     		movs	r3, #1
 7600 2ab0 FFF7FEFF 		bl	LSM303AGR_ACC_WriteReg
 7601 2ab4 0346     		mov	r3, r0
 7602 2ab6 002B     		cmp	r3, #0
 7603 2ab8 01D1     		bne	.L494
 7604              		.loc 1 2616 0
 7605 2aba 0023     		movs	r3, #0
 7606 2abc 00E0     		b	.L495
 7607              	.L494:
 7608              		.loc 1 2618 0
 7609 2abe 0123     		movs	r3, #1
 7610              	.L495:
 7611              		.loc 1 2619 0
 7612 2ac0 1846     		mov	r0, r3
 7613 2ac2 05B0     		add	sp, sp, #20
 7614              		@ sp needed
 7615 2ac4 5DF804FB 		ldr	pc, [sp], #4
 7616              		.cfi_endproc
 7617              	.LFE393:
 7618              		.size	LSM303AGR_ACC_W_Int1_AOI, .-LSM303AGR_ACC_W_Int1_AOI
 7619              		.align	2
 7620 2ac8 AFF30080 		.p2align 4,,15
 7620      AFF30080 
 7621              		.global	LSM303AGR_ACC_R_Int1_AOI
 7622              		.thumb
 7623              		.thumb_func
 7624              		.type	LSM303AGR_ACC_R_Int1_AOI, %function
 7625              	LSM303AGR_ACC_R_Int1_AOI:
 7626              	.LFB394:
 7627              		.loc 1 2629 0
 7628              		.cfi_startproc
 7629              		@ args = 0, pretend = 0, frame = 8
 7630              		@ frame_needed = 0, uses_anonymous_args = 0
 7631 2ad0 00B5     		push	{lr}
 7632              		.cfi_def_cfa_offset 4
ARM GAS  /tmp/ccRrg1qB.s 			page 137


 7633              		.cfi_offset 14, -4
 7634 2ad2 83B0     		sub	sp, sp, #12
 7635              		.cfi_def_cfa_offset 16
 7636 2ad4 0190     		str	r0, [sp, #4]
 7637 2ad6 0091     		str	r1, [sp]
 7638              		.loc 1 2630 0
 7639 2ad8 0198     		ldr	r0, [sp, #4]
 7640 2ada 3021     		movs	r1, #48
 7641 2adc 009A     		ldr	r2, [sp]
 7642 2ade 0123     		movs	r3, #1
 7643 2ae0 FFF7FEFF 		bl	LSM303AGR_ACC_ReadReg
 7644 2ae4 0346     		mov	r3, r0
 7645 2ae6 002B     		cmp	r3, #0
 7646 2ae8 01D1     		bne	.L497
 7647              		.loc 1 2631 0
 7648 2aea 0023     		movs	r3, #0
 7649 2aec 07E0     		b	.L498
 7650              	.L497:
 7651              		.loc 1 2633 0
 7652 2aee 009B     		ldr	r3, [sp]
 7653 2af0 1B78     		ldrb	r3, [r3]	@ zero_extendqisi2
 7654 2af2 23F07F03 		bic	r3, r3, #127
 7655 2af6 DAB2     		uxtb	r2, r3
 7656 2af8 009B     		ldr	r3, [sp]
 7657 2afa 1A70     		strb	r2, [r3]
 7658              		.loc 1 2635 0
 7659 2afc 0123     		movs	r3, #1
 7660              	.L498:
 7661              		.loc 1 2636 0
 7662 2afe 1846     		mov	r0, r3
 7663 2b00 03B0     		add	sp, sp, #12
 7664              		@ sp needed
 7665 2b02 5DF804FB 		ldr	pc, [sp], #4
 7666              		.cfi_endproc
 7667              	.LFE394:
 7668              		.size	LSM303AGR_ACC_R_Int1_AOI, .-LSM303AGR_ACC_R_Int1_AOI
 7669 2b06 00BF     		.align	2
 7670 2b08 AFF30080 		.p2align 4,,15
 7670      AFF30080 
 7671              		.global	LSM303AGR_ACC_W_Int2EnXLo
 7672              		.thumb
 7673              		.thumb_func
 7674              		.type	LSM303AGR_ACC_W_Int2EnXLo, %function
 7675              	LSM303AGR_ACC_W_Int2EnXLo:
 7676              	.LFB395:
 7677              		.loc 1 2646 0
 7678              		.cfi_startproc
 7679              		@ args = 0, pretend = 0, frame = 16
 7680              		@ frame_needed = 0, uses_anonymous_args = 0
 7681 2b10 00B5     		push	{lr}
 7682              		.cfi_def_cfa_offset 4
 7683              		.cfi_offset 14, -4
 7684 2b12 85B0     		sub	sp, sp, #20
 7685              		.cfi_def_cfa_offset 24
 7686 2b14 0190     		str	r0, [sp, #4]
 7687 2b16 0B46     		mov	r3, r1
 7688 2b18 8DF80330 		strb	r3, [sp, #3]
ARM GAS  /tmp/ccRrg1qB.s 			page 138


 7689              		.loc 1 2649 0
 7690 2b1c 0DF10F03 		add	r3, sp, #15
 7691 2b20 0198     		ldr	r0, [sp, #4]
 7692 2b22 3421     		movs	r1, #52
 7693 2b24 1A46     		mov	r2, r3
 7694 2b26 0123     		movs	r3, #1
 7695 2b28 FFF7FEFF 		bl	LSM303AGR_ACC_ReadReg
 7696 2b2c 0346     		mov	r3, r0
 7697 2b2e 002B     		cmp	r3, #0
 7698 2b30 01D1     		bne	.L500
 7699              		.loc 1 2650 0
 7700 2b32 0023     		movs	r3, #0
 7701 2b34 1CE0     		b	.L503
 7702              	.L500:
 7703              		.loc 1 2652 0
 7704 2b36 9DF80F30 		ldrb	r3, [sp, #15]	@ zero_extendqisi2
 7705 2b3a 23F00103 		bic	r3, r3, #1
 7706 2b3e DBB2     		uxtb	r3, r3
 7707 2b40 8DF80F30 		strb	r3, [sp, #15]
 7708              		.loc 1 2653 0
 7709 2b44 9DF80F20 		ldrb	r2, [sp, #15]	@ zero_extendqisi2
 7710 2b48 9DF80330 		ldrb	r3, [sp, #3]
 7711 2b4c 1343     		orrs	r3, r3, r2
 7712 2b4e DBB2     		uxtb	r3, r3
 7713 2b50 8DF80F30 		strb	r3, [sp, #15]
 7714              		.loc 1 2655 0
 7715 2b54 0DF10F03 		add	r3, sp, #15
 7716 2b58 0198     		ldr	r0, [sp, #4]
 7717 2b5a 3421     		movs	r1, #52
 7718 2b5c 1A46     		mov	r2, r3
 7719 2b5e 0123     		movs	r3, #1
 7720 2b60 FFF7FEFF 		bl	LSM303AGR_ACC_WriteReg
 7721 2b64 0346     		mov	r3, r0
 7722 2b66 002B     		cmp	r3, #0
 7723 2b68 01D1     		bne	.L502
 7724              		.loc 1 2656 0
 7725 2b6a 0023     		movs	r3, #0
 7726 2b6c 00E0     		b	.L503
 7727              	.L502:
 7728              		.loc 1 2658 0
 7729 2b6e 0123     		movs	r3, #1
 7730              	.L503:
 7731              		.loc 1 2659 0
 7732 2b70 1846     		mov	r0, r3
 7733 2b72 05B0     		add	sp, sp, #20
 7734              		@ sp needed
 7735 2b74 5DF804FB 		ldr	pc, [sp], #4
 7736              		.cfi_endproc
 7737              	.LFE395:
 7738              		.size	LSM303AGR_ACC_W_Int2EnXLo, .-LSM303AGR_ACC_W_Int2EnXLo
 7739              		.align	2
 7740 2b78 AFF30080 		.p2align 4,,15
 7740      AFF30080 
 7741              		.global	LSM303AGR_ACC_R_Int2EnXLo
 7742              		.thumb
 7743              		.thumb_func
 7744              		.type	LSM303AGR_ACC_R_Int2EnXLo, %function
ARM GAS  /tmp/ccRrg1qB.s 			page 139


 7745              	LSM303AGR_ACC_R_Int2EnXLo:
 7746              	.LFB396:
 7747              		.loc 1 2669 0
 7748              		.cfi_startproc
 7749              		@ args = 0, pretend = 0, frame = 8
 7750              		@ frame_needed = 0, uses_anonymous_args = 0
 7751 2b80 00B5     		push	{lr}
 7752              		.cfi_def_cfa_offset 4
 7753              		.cfi_offset 14, -4
 7754 2b82 83B0     		sub	sp, sp, #12
 7755              		.cfi_def_cfa_offset 16
 7756 2b84 0190     		str	r0, [sp, #4]
 7757 2b86 0091     		str	r1, [sp]
 7758              		.loc 1 2670 0
 7759 2b88 0198     		ldr	r0, [sp, #4]
 7760 2b8a 3421     		movs	r1, #52
 7761 2b8c 009A     		ldr	r2, [sp]
 7762 2b8e 0123     		movs	r3, #1
 7763 2b90 FFF7FEFF 		bl	LSM303AGR_ACC_ReadReg
 7764 2b94 0346     		mov	r3, r0
 7765 2b96 002B     		cmp	r3, #0
 7766 2b98 01D1     		bne	.L505
 7767              		.loc 1 2671 0
 7768 2b9a 0023     		movs	r3, #0
 7769 2b9c 07E0     		b	.L506
 7770              	.L505:
 7771              		.loc 1 2673 0
 7772 2b9e 009B     		ldr	r3, [sp]
 7773 2ba0 1B78     		ldrb	r3, [r3]	@ zero_extendqisi2
 7774 2ba2 03F00103 		and	r3, r3, #1
 7775 2ba6 DAB2     		uxtb	r2, r3
 7776 2ba8 009B     		ldr	r3, [sp]
 7777 2baa 1A70     		strb	r2, [r3]
 7778              		.loc 1 2675 0
 7779 2bac 0123     		movs	r3, #1
 7780              	.L506:
 7781              		.loc 1 2676 0
 7782 2bae 1846     		mov	r0, r3
 7783 2bb0 03B0     		add	sp, sp, #12
 7784              		@ sp needed
 7785 2bb2 5DF804FB 		ldr	pc, [sp], #4
 7786              		.cfi_endproc
 7787              	.LFE396:
 7788              		.size	LSM303AGR_ACC_R_Int2EnXLo, .-LSM303AGR_ACC_R_Int2EnXLo
 7789 2bb6 00BF     		.align	2
 7790 2bb8 AFF30080 		.p2align 4,,15
 7790      AFF30080 
 7791              		.global	LSM303AGR_ACC_W_Int2EnXHi
 7792              		.thumb
 7793              		.thumb_func
 7794              		.type	LSM303AGR_ACC_W_Int2EnXHi, %function
 7795              	LSM303AGR_ACC_W_Int2EnXHi:
 7796              	.LFB397:
 7797              		.loc 1 2686 0
 7798              		.cfi_startproc
 7799              		@ args = 0, pretend = 0, frame = 16
 7800              		@ frame_needed = 0, uses_anonymous_args = 0
ARM GAS  /tmp/ccRrg1qB.s 			page 140


 7801 2bc0 00B5     		push	{lr}
 7802              		.cfi_def_cfa_offset 4
 7803              		.cfi_offset 14, -4
 7804 2bc2 85B0     		sub	sp, sp, #20
 7805              		.cfi_def_cfa_offset 24
 7806 2bc4 0190     		str	r0, [sp, #4]
 7807 2bc6 0B46     		mov	r3, r1
 7808 2bc8 8DF80330 		strb	r3, [sp, #3]
 7809              		.loc 1 2689 0
 7810 2bcc 0DF10F03 		add	r3, sp, #15
 7811 2bd0 0198     		ldr	r0, [sp, #4]
 7812 2bd2 3421     		movs	r1, #52
 7813 2bd4 1A46     		mov	r2, r3
 7814 2bd6 0123     		movs	r3, #1
 7815 2bd8 FFF7FEFF 		bl	LSM303AGR_ACC_ReadReg
 7816 2bdc 0346     		mov	r3, r0
 7817 2bde 002B     		cmp	r3, #0
 7818 2be0 01D1     		bne	.L508
 7819              		.loc 1 2690 0
 7820 2be2 0023     		movs	r3, #0
 7821 2be4 1CE0     		b	.L511
 7822              	.L508:
 7823              		.loc 1 2692 0
 7824 2be6 9DF80F30 		ldrb	r3, [sp, #15]	@ zero_extendqisi2
 7825 2bea 23F00203 		bic	r3, r3, #2
 7826 2bee DBB2     		uxtb	r3, r3
 7827 2bf0 8DF80F30 		strb	r3, [sp, #15]
 7828              		.loc 1 2693 0
 7829 2bf4 9DF80F20 		ldrb	r2, [sp, #15]	@ zero_extendqisi2
 7830 2bf8 9DF80330 		ldrb	r3, [sp, #3]
 7831 2bfc 1343     		orrs	r3, r3, r2
 7832 2bfe DBB2     		uxtb	r3, r3
 7833 2c00 8DF80F30 		strb	r3, [sp, #15]
 7834              		.loc 1 2695 0
 7835 2c04 0DF10F03 		add	r3, sp, #15
 7836 2c08 0198     		ldr	r0, [sp, #4]
 7837 2c0a 3421     		movs	r1, #52
 7838 2c0c 1A46     		mov	r2, r3
 7839 2c0e 0123     		movs	r3, #1
 7840 2c10 FFF7FEFF 		bl	LSM303AGR_ACC_WriteReg
 7841 2c14 0346     		mov	r3, r0
 7842 2c16 002B     		cmp	r3, #0
 7843 2c18 01D1     		bne	.L510
 7844              		.loc 1 2696 0
 7845 2c1a 0023     		movs	r3, #0
 7846 2c1c 00E0     		b	.L511
 7847              	.L510:
 7848              		.loc 1 2698 0
 7849 2c1e 0123     		movs	r3, #1
 7850              	.L511:
 7851              		.loc 1 2699 0
 7852 2c20 1846     		mov	r0, r3
 7853 2c22 05B0     		add	sp, sp, #20
 7854              		@ sp needed
 7855 2c24 5DF804FB 		ldr	pc, [sp], #4
 7856              		.cfi_endproc
 7857              	.LFE397:
ARM GAS  /tmp/ccRrg1qB.s 			page 141


 7858              		.size	LSM303AGR_ACC_W_Int2EnXHi, .-LSM303AGR_ACC_W_Int2EnXHi
 7859              		.align	2
 7860 2c28 AFF30080 		.p2align 4,,15
 7860      AFF30080 
 7861              		.global	LSM303AGR_ACC_R_Int2EnXHi
 7862              		.thumb
 7863              		.thumb_func
 7864              		.type	LSM303AGR_ACC_R_Int2EnXHi, %function
 7865              	LSM303AGR_ACC_R_Int2EnXHi:
 7866              	.LFB398:
 7867              		.loc 1 2709 0
 7868              		.cfi_startproc
 7869              		@ args = 0, pretend = 0, frame = 8
 7870              		@ frame_needed = 0, uses_anonymous_args = 0
 7871 2c30 00B5     		push	{lr}
 7872              		.cfi_def_cfa_offset 4
 7873              		.cfi_offset 14, -4
 7874 2c32 83B0     		sub	sp, sp, #12
 7875              		.cfi_def_cfa_offset 16
 7876 2c34 0190     		str	r0, [sp, #4]
 7877 2c36 0091     		str	r1, [sp]
 7878              		.loc 1 2710 0
 7879 2c38 0198     		ldr	r0, [sp, #4]
 7880 2c3a 3421     		movs	r1, #52
 7881 2c3c 009A     		ldr	r2, [sp]
 7882 2c3e 0123     		movs	r3, #1
 7883 2c40 FFF7FEFF 		bl	LSM303AGR_ACC_ReadReg
 7884 2c44 0346     		mov	r3, r0
 7885 2c46 002B     		cmp	r3, #0
 7886 2c48 01D1     		bne	.L513
 7887              		.loc 1 2711 0
 7888 2c4a 0023     		movs	r3, #0
 7889 2c4c 07E0     		b	.L514
 7890              	.L513:
 7891              		.loc 1 2713 0
 7892 2c4e 009B     		ldr	r3, [sp]
 7893 2c50 1B78     		ldrb	r3, [r3]	@ zero_extendqisi2
 7894 2c52 03F00203 		and	r3, r3, #2
 7895 2c56 DAB2     		uxtb	r2, r3
 7896 2c58 009B     		ldr	r3, [sp]
 7897 2c5a 1A70     		strb	r2, [r3]
 7898              		.loc 1 2715 0
 7899 2c5c 0123     		movs	r3, #1
 7900              	.L514:
 7901              		.loc 1 2716 0
 7902 2c5e 1846     		mov	r0, r3
 7903 2c60 03B0     		add	sp, sp, #12
 7904              		@ sp needed
 7905 2c62 5DF804FB 		ldr	pc, [sp], #4
 7906              		.cfi_endproc
 7907              	.LFE398:
 7908              		.size	LSM303AGR_ACC_R_Int2EnXHi, .-LSM303AGR_ACC_R_Int2EnXHi
 7909 2c66 00BF     		.align	2
 7910 2c68 AFF30080 		.p2align 4,,15
 7910      AFF30080 
 7911              		.global	LSM303AGR_ACC_W_Int2EnYLo
 7912              		.thumb
ARM GAS  /tmp/ccRrg1qB.s 			page 142


 7913              		.thumb_func
 7914              		.type	LSM303AGR_ACC_W_Int2EnYLo, %function
 7915              	LSM303AGR_ACC_W_Int2EnYLo:
 7916              	.LFB399:
 7917              		.loc 1 2726 0
 7918              		.cfi_startproc
 7919              		@ args = 0, pretend = 0, frame = 16
 7920              		@ frame_needed = 0, uses_anonymous_args = 0
 7921 2c70 00B5     		push	{lr}
 7922              		.cfi_def_cfa_offset 4
 7923              		.cfi_offset 14, -4
 7924 2c72 85B0     		sub	sp, sp, #20
 7925              		.cfi_def_cfa_offset 24
 7926 2c74 0190     		str	r0, [sp, #4]
 7927 2c76 0B46     		mov	r3, r1
 7928 2c78 8DF80330 		strb	r3, [sp, #3]
 7929              		.loc 1 2729 0
 7930 2c7c 0DF10F03 		add	r3, sp, #15
 7931 2c80 0198     		ldr	r0, [sp, #4]
 7932 2c82 3421     		movs	r1, #52
 7933 2c84 1A46     		mov	r2, r3
 7934 2c86 0123     		movs	r3, #1
 7935 2c88 FFF7FEFF 		bl	LSM303AGR_ACC_ReadReg
 7936 2c8c 0346     		mov	r3, r0
 7937 2c8e 002B     		cmp	r3, #0
 7938 2c90 01D1     		bne	.L516
 7939              		.loc 1 2730 0
 7940 2c92 0023     		movs	r3, #0
 7941 2c94 1CE0     		b	.L519
 7942              	.L516:
 7943              		.loc 1 2732 0
 7944 2c96 9DF80F30 		ldrb	r3, [sp, #15]	@ zero_extendqisi2
 7945 2c9a 23F00403 		bic	r3, r3, #4
 7946 2c9e DBB2     		uxtb	r3, r3
 7947 2ca0 8DF80F30 		strb	r3, [sp, #15]
 7948              		.loc 1 2733 0
 7949 2ca4 9DF80F20 		ldrb	r2, [sp, #15]	@ zero_extendqisi2
 7950 2ca8 9DF80330 		ldrb	r3, [sp, #3]
 7951 2cac 1343     		orrs	r3, r3, r2
 7952 2cae DBB2     		uxtb	r3, r3
 7953 2cb0 8DF80F30 		strb	r3, [sp, #15]
 7954              		.loc 1 2735 0
 7955 2cb4 0DF10F03 		add	r3, sp, #15
 7956 2cb8 0198     		ldr	r0, [sp, #4]
 7957 2cba 3421     		movs	r1, #52
 7958 2cbc 1A46     		mov	r2, r3
 7959 2cbe 0123     		movs	r3, #1
 7960 2cc0 FFF7FEFF 		bl	LSM303AGR_ACC_WriteReg
 7961 2cc4 0346     		mov	r3, r0
 7962 2cc6 002B     		cmp	r3, #0
 7963 2cc8 01D1     		bne	.L518
 7964              		.loc 1 2736 0
 7965 2cca 0023     		movs	r3, #0
 7966 2ccc 00E0     		b	.L519
 7967              	.L518:
 7968              		.loc 1 2738 0
 7969 2cce 0123     		movs	r3, #1
ARM GAS  /tmp/ccRrg1qB.s 			page 143


 7970              	.L519:
 7971              		.loc 1 2739 0
 7972 2cd0 1846     		mov	r0, r3
 7973 2cd2 05B0     		add	sp, sp, #20
 7974              		@ sp needed
 7975 2cd4 5DF804FB 		ldr	pc, [sp], #4
 7976              		.cfi_endproc
 7977              	.LFE399:
 7978              		.size	LSM303AGR_ACC_W_Int2EnYLo, .-LSM303AGR_ACC_W_Int2EnYLo
 7979              		.align	2
 7980 2cd8 AFF30080 		.p2align 4,,15
 7980      AFF30080 
 7981              		.global	LSM303AGR_ACC_R_Int2EnYLo
 7982              		.thumb
 7983              		.thumb_func
 7984              		.type	LSM303AGR_ACC_R_Int2EnYLo, %function
 7985              	LSM303AGR_ACC_R_Int2EnYLo:
 7986              	.LFB400:
 7987              		.loc 1 2749 0
 7988              		.cfi_startproc
 7989              		@ args = 0, pretend = 0, frame = 8
 7990              		@ frame_needed = 0, uses_anonymous_args = 0
 7991 2ce0 00B5     		push	{lr}
 7992              		.cfi_def_cfa_offset 4
 7993              		.cfi_offset 14, -4
 7994 2ce2 83B0     		sub	sp, sp, #12
 7995              		.cfi_def_cfa_offset 16
 7996 2ce4 0190     		str	r0, [sp, #4]
 7997 2ce6 0091     		str	r1, [sp]
 7998              		.loc 1 2750 0
 7999 2ce8 0198     		ldr	r0, [sp, #4]
 8000 2cea 3421     		movs	r1, #52
 8001 2cec 009A     		ldr	r2, [sp]
 8002 2cee 0123     		movs	r3, #1
 8003 2cf0 FFF7FEFF 		bl	LSM303AGR_ACC_ReadReg
 8004 2cf4 0346     		mov	r3, r0
 8005 2cf6 002B     		cmp	r3, #0
 8006 2cf8 01D1     		bne	.L521
 8007              		.loc 1 2751 0
 8008 2cfa 0023     		movs	r3, #0
 8009 2cfc 07E0     		b	.L522
 8010              	.L521:
 8011              		.loc 1 2753 0
 8012 2cfe 009B     		ldr	r3, [sp]
 8013 2d00 1B78     		ldrb	r3, [r3]	@ zero_extendqisi2
 8014 2d02 03F00403 		and	r3, r3, #4
 8015 2d06 DAB2     		uxtb	r2, r3
 8016 2d08 009B     		ldr	r3, [sp]
 8017 2d0a 1A70     		strb	r2, [r3]
 8018              		.loc 1 2755 0
 8019 2d0c 0123     		movs	r3, #1
 8020              	.L522:
 8021              		.loc 1 2756 0
 8022 2d0e 1846     		mov	r0, r3
 8023 2d10 03B0     		add	sp, sp, #12
 8024              		@ sp needed
 8025 2d12 5DF804FB 		ldr	pc, [sp], #4
ARM GAS  /tmp/ccRrg1qB.s 			page 144


 8026              		.cfi_endproc
 8027              	.LFE400:
 8028              		.size	LSM303AGR_ACC_R_Int2EnYLo, .-LSM303AGR_ACC_R_Int2EnYLo
 8029 2d16 00BF     		.align	2
 8030 2d18 AFF30080 		.p2align 4,,15
 8030      AFF30080 
 8031              		.global	LSM303AGR_ACC_W_Int2EnYHi
 8032              		.thumb
 8033              		.thumb_func
 8034              		.type	LSM303AGR_ACC_W_Int2EnYHi, %function
 8035              	LSM303AGR_ACC_W_Int2EnYHi:
 8036              	.LFB401:
 8037              		.loc 1 2766 0
 8038              		.cfi_startproc
 8039              		@ args = 0, pretend = 0, frame = 16
 8040              		@ frame_needed = 0, uses_anonymous_args = 0
 8041 2d20 00B5     		push	{lr}
 8042              		.cfi_def_cfa_offset 4
 8043              		.cfi_offset 14, -4
 8044 2d22 85B0     		sub	sp, sp, #20
 8045              		.cfi_def_cfa_offset 24
 8046 2d24 0190     		str	r0, [sp, #4]
 8047 2d26 0B46     		mov	r3, r1
 8048 2d28 8DF80330 		strb	r3, [sp, #3]
 8049              		.loc 1 2769 0
 8050 2d2c 0DF10F03 		add	r3, sp, #15
 8051 2d30 0198     		ldr	r0, [sp, #4]
 8052 2d32 3421     		movs	r1, #52
 8053 2d34 1A46     		mov	r2, r3
 8054 2d36 0123     		movs	r3, #1
 8055 2d38 FFF7FEFF 		bl	LSM303AGR_ACC_ReadReg
 8056 2d3c 0346     		mov	r3, r0
 8057 2d3e 002B     		cmp	r3, #0
 8058 2d40 01D1     		bne	.L524
 8059              		.loc 1 2770 0
 8060 2d42 0023     		movs	r3, #0
 8061 2d44 1CE0     		b	.L527
 8062              	.L524:
 8063              		.loc 1 2772 0
 8064 2d46 9DF80F30 		ldrb	r3, [sp, #15]	@ zero_extendqisi2
 8065 2d4a 23F00803 		bic	r3, r3, #8
 8066 2d4e DBB2     		uxtb	r3, r3
 8067 2d50 8DF80F30 		strb	r3, [sp, #15]
 8068              		.loc 1 2773 0
 8069 2d54 9DF80F20 		ldrb	r2, [sp, #15]	@ zero_extendqisi2
 8070 2d58 9DF80330 		ldrb	r3, [sp, #3]
 8071 2d5c 1343     		orrs	r3, r3, r2
 8072 2d5e DBB2     		uxtb	r3, r3
 8073 2d60 8DF80F30 		strb	r3, [sp, #15]
 8074              		.loc 1 2775 0
 8075 2d64 0DF10F03 		add	r3, sp, #15
 8076 2d68 0198     		ldr	r0, [sp, #4]
 8077 2d6a 3421     		movs	r1, #52
 8078 2d6c 1A46     		mov	r2, r3
 8079 2d6e 0123     		movs	r3, #1
 8080 2d70 FFF7FEFF 		bl	LSM303AGR_ACC_WriteReg
 8081 2d74 0346     		mov	r3, r0
ARM GAS  /tmp/ccRrg1qB.s 			page 145


 8082 2d76 002B     		cmp	r3, #0
 8083 2d78 01D1     		bne	.L526
 8084              		.loc 1 2776 0
 8085 2d7a 0023     		movs	r3, #0
 8086 2d7c 00E0     		b	.L527
 8087              	.L526:
 8088              		.loc 1 2778 0
 8089 2d7e 0123     		movs	r3, #1
 8090              	.L527:
 8091              		.loc 1 2779 0
 8092 2d80 1846     		mov	r0, r3
 8093 2d82 05B0     		add	sp, sp, #20
 8094              		@ sp needed
 8095 2d84 5DF804FB 		ldr	pc, [sp], #4
 8096              		.cfi_endproc
 8097              	.LFE401:
 8098              		.size	LSM303AGR_ACC_W_Int2EnYHi, .-LSM303AGR_ACC_W_Int2EnYHi
 8099              		.align	2
 8100 2d88 AFF30080 		.p2align 4,,15
 8100      AFF30080 
 8101              		.global	LSM303AGR_ACC_R_Int2EnYHi
 8102              		.thumb
 8103              		.thumb_func
 8104              		.type	LSM303AGR_ACC_R_Int2EnYHi, %function
 8105              	LSM303AGR_ACC_R_Int2EnYHi:
 8106              	.LFB402:
 8107              		.loc 1 2789 0
 8108              		.cfi_startproc
 8109              		@ args = 0, pretend = 0, frame = 8
 8110              		@ frame_needed = 0, uses_anonymous_args = 0
 8111 2d90 00B5     		push	{lr}
 8112              		.cfi_def_cfa_offset 4
 8113              		.cfi_offset 14, -4
 8114 2d92 83B0     		sub	sp, sp, #12
 8115              		.cfi_def_cfa_offset 16
 8116 2d94 0190     		str	r0, [sp, #4]
 8117 2d96 0091     		str	r1, [sp]
 8118              		.loc 1 2790 0
 8119 2d98 0198     		ldr	r0, [sp, #4]
 8120 2d9a 3421     		movs	r1, #52
 8121 2d9c 009A     		ldr	r2, [sp]
 8122 2d9e 0123     		movs	r3, #1
 8123 2da0 FFF7FEFF 		bl	LSM303AGR_ACC_ReadReg
 8124 2da4 0346     		mov	r3, r0
 8125 2da6 002B     		cmp	r3, #0
 8126 2da8 01D1     		bne	.L529
 8127              		.loc 1 2791 0
 8128 2daa 0023     		movs	r3, #0
 8129 2dac 07E0     		b	.L530
 8130              	.L529:
 8131              		.loc 1 2793 0
 8132 2dae 009B     		ldr	r3, [sp]
 8133 2db0 1B78     		ldrb	r3, [r3]	@ zero_extendqisi2
 8134 2db2 03F00803 		and	r3, r3, #8
 8135 2db6 DAB2     		uxtb	r2, r3
 8136 2db8 009B     		ldr	r3, [sp]
 8137 2dba 1A70     		strb	r2, [r3]
ARM GAS  /tmp/ccRrg1qB.s 			page 146


 8138              		.loc 1 2795 0
 8139 2dbc 0123     		movs	r3, #1
 8140              	.L530:
 8141              		.loc 1 2796 0
 8142 2dbe 1846     		mov	r0, r3
 8143 2dc0 03B0     		add	sp, sp, #12
 8144              		@ sp needed
 8145 2dc2 5DF804FB 		ldr	pc, [sp], #4
 8146              		.cfi_endproc
 8147              	.LFE402:
 8148              		.size	LSM303AGR_ACC_R_Int2EnYHi, .-LSM303AGR_ACC_R_Int2EnYHi
 8149 2dc6 00BF     		.align	2
 8150 2dc8 AFF30080 		.p2align 4,,15
 8150      AFF30080 
 8151              		.global	LSM303AGR_ACC_W_Int2EnZLo
 8152              		.thumb
 8153              		.thumb_func
 8154              		.type	LSM303AGR_ACC_W_Int2EnZLo, %function
 8155              	LSM303AGR_ACC_W_Int2EnZLo:
 8156              	.LFB403:
 8157              		.loc 1 2806 0
 8158              		.cfi_startproc
 8159              		@ args = 0, pretend = 0, frame = 16
 8160              		@ frame_needed = 0, uses_anonymous_args = 0
 8161 2dd0 00B5     		push	{lr}
 8162              		.cfi_def_cfa_offset 4
 8163              		.cfi_offset 14, -4
 8164 2dd2 85B0     		sub	sp, sp, #20
 8165              		.cfi_def_cfa_offset 24
 8166 2dd4 0190     		str	r0, [sp, #4]
 8167 2dd6 0B46     		mov	r3, r1
 8168 2dd8 8DF80330 		strb	r3, [sp, #3]
 8169              		.loc 1 2809 0
 8170 2ddc 0DF10F03 		add	r3, sp, #15
 8171 2de0 0198     		ldr	r0, [sp, #4]
 8172 2de2 3421     		movs	r1, #52
 8173 2de4 1A46     		mov	r2, r3
 8174 2de6 0123     		movs	r3, #1
 8175 2de8 FFF7FEFF 		bl	LSM303AGR_ACC_ReadReg
 8176 2dec 0346     		mov	r3, r0
 8177 2dee 002B     		cmp	r3, #0
 8178 2df0 01D1     		bne	.L532
 8179              		.loc 1 2810 0
 8180 2df2 0023     		movs	r3, #0
 8181 2df4 1CE0     		b	.L535
 8182              	.L532:
 8183              		.loc 1 2812 0
 8184 2df6 9DF80F30 		ldrb	r3, [sp, #15]	@ zero_extendqisi2
 8185 2dfa 23F01003 		bic	r3, r3, #16
 8186 2dfe DBB2     		uxtb	r3, r3
 8187 2e00 8DF80F30 		strb	r3, [sp, #15]
 8188              		.loc 1 2813 0
 8189 2e04 9DF80F20 		ldrb	r2, [sp, #15]	@ zero_extendqisi2
 8190 2e08 9DF80330 		ldrb	r3, [sp, #3]
 8191 2e0c 1343     		orrs	r3, r3, r2
 8192 2e0e DBB2     		uxtb	r3, r3
 8193 2e10 8DF80F30 		strb	r3, [sp, #15]
ARM GAS  /tmp/ccRrg1qB.s 			page 147


 8194              		.loc 1 2815 0
 8195 2e14 0DF10F03 		add	r3, sp, #15
 8196 2e18 0198     		ldr	r0, [sp, #4]
 8197 2e1a 3421     		movs	r1, #52
 8198 2e1c 1A46     		mov	r2, r3
 8199 2e1e 0123     		movs	r3, #1
 8200 2e20 FFF7FEFF 		bl	LSM303AGR_ACC_WriteReg
 8201 2e24 0346     		mov	r3, r0
 8202 2e26 002B     		cmp	r3, #0
 8203 2e28 01D1     		bne	.L534
 8204              		.loc 1 2816 0
 8205 2e2a 0023     		movs	r3, #0
 8206 2e2c 00E0     		b	.L535
 8207              	.L534:
 8208              		.loc 1 2818 0
 8209 2e2e 0123     		movs	r3, #1
 8210              	.L535:
 8211              		.loc 1 2819 0
 8212 2e30 1846     		mov	r0, r3
 8213 2e32 05B0     		add	sp, sp, #20
 8214              		@ sp needed
 8215 2e34 5DF804FB 		ldr	pc, [sp], #4
 8216              		.cfi_endproc
 8217              	.LFE403:
 8218              		.size	LSM303AGR_ACC_W_Int2EnZLo, .-LSM303AGR_ACC_W_Int2EnZLo
 8219              		.align	2
 8220 2e38 AFF30080 		.p2align 4,,15
 8220      AFF30080 
 8221              		.global	LSM303AGR_ACC_R_Int2EnZLo
 8222              		.thumb
 8223              		.thumb_func
 8224              		.type	LSM303AGR_ACC_R_Int2EnZLo, %function
 8225              	LSM303AGR_ACC_R_Int2EnZLo:
 8226              	.LFB404:
 8227              		.loc 1 2829 0
 8228              		.cfi_startproc
 8229              		@ args = 0, pretend = 0, frame = 8
 8230              		@ frame_needed = 0, uses_anonymous_args = 0
 8231 2e40 00B5     		push	{lr}
 8232              		.cfi_def_cfa_offset 4
 8233              		.cfi_offset 14, -4
 8234 2e42 83B0     		sub	sp, sp, #12
 8235              		.cfi_def_cfa_offset 16
 8236 2e44 0190     		str	r0, [sp, #4]
 8237 2e46 0091     		str	r1, [sp]
 8238              		.loc 1 2830 0
 8239 2e48 0198     		ldr	r0, [sp, #4]
 8240 2e4a 3421     		movs	r1, #52
 8241 2e4c 009A     		ldr	r2, [sp]
 8242 2e4e 0123     		movs	r3, #1
 8243 2e50 FFF7FEFF 		bl	LSM303AGR_ACC_ReadReg
 8244 2e54 0346     		mov	r3, r0
 8245 2e56 002B     		cmp	r3, #0
 8246 2e58 01D1     		bne	.L537
 8247              		.loc 1 2831 0
 8248 2e5a 0023     		movs	r3, #0
 8249 2e5c 07E0     		b	.L538
ARM GAS  /tmp/ccRrg1qB.s 			page 148


 8250              	.L537:
 8251              		.loc 1 2833 0
 8252 2e5e 009B     		ldr	r3, [sp]
 8253 2e60 1B78     		ldrb	r3, [r3]	@ zero_extendqisi2
 8254 2e62 03F01003 		and	r3, r3, #16
 8255 2e66 DAB2     		uxtb	r2, r3
 8256 2e68 009B     		ldr	r3, [sp]
 8257 2e6a 1A70     		strb	r2, [r3]
 8258              		.loc 1 2835 0
 8259 2e6c 0123     		movs	r3, #1
 8260              	.L538:
 8261              		.loc 1 2836 0
 8262 2e6e 1846     		mov	r0, r3
 8263 2e70 03B0     		add	sp, sp, #12
 8264              		@ sp needed
 8265 2e72 5DF804FB 		ldr	pc, [sp], #4
 8266              		.cfi_endproc
 8267              	.LFE404:
 8268              		.size	LSM303AGR_ACC_R_Int2EnZLo, .-LSM303AGR_ACC_R_Int2EnZLo
 8269 2e76 00BF     		.align	2
 8270 2e78 AFF30080 		.p2align 4,,15
 8270      AFF30080 
 8271              		.global	LSM303AGR_ACC_W_Int2EnZHi
 8272              		.thumb
 8273              		.thumb_func
 8274              		.type	LSM303AGR_ACC_W_Int2EnZHi, %function
 8275              	LSM303AGR_ACC_W_Int2EnZHi:
 8276              	.LFB405:
 8277              		.loc 1 2846 0
 8278              		.cfi_startproc
 8279              		@ args = 0, pretend = 0, frame = 16
 8280              		@ frame_needed = 0, uses_anonymous_args = 0
 8281 2e80 00B5     		push	{lr}
 8282              		.cfi_def_cfa_offset 4
 8283              		.cfi_offset 14, -4
 8284 2e82 85B0     		sub	sp, sp, #20
 8285              		.cfi_def_cfa_offset 24
 8286 2e84 0190     		str	r0, [sp, #4]
 8287 2e86 0B46     		mov	r3, r1
 8288 2e88 8DF80330 		strb	r3, [sp, #3]
 8289              		.loc 1 2849 0
 8290 2e8c 0DF10F03 		add	r3, sp, #15
 8291 2e90 0198     		ldr	r0, [sp, #4]
 8292 2e92 3421     		movs	r1, #52
 8293 2e94 1A46     		mov	r2, r3
 8294 2e96 0123     		movs	r3, #1
 8295 2e98 FFF7FEFF 		bl	LSM303AGR_ACC_ReadReg
 8296 2e9c 0346     		mov	r3, r0
 8297 2e9e 002B     		cmp	r3, #0
 8298 2ea0 01D1     		bne	.L540
 8299              		.loc 1 2850 0
 8300 2ea2 0023     		movs	r3, #0
 8301 2ea4 1CE0     		b	.L543
 8302              	.L540:
 8303              		.loc 1 2852 0
 8304 2ea6 9DF80F30 		ldrb	r3, [sp, #15]	@ zero_extendqisi2
 8305 2eaa 23F02003 		bic	r3, r3, #32
ARM GAS  /tmp/ccRrg1qB.s 			page 149


 8306 2eae DBB2     		uxtb	r3, r3
 8307 2eb0 8DF80F30 		strb	r3, [sp, #15]
 8308              		.loc 1 2853 0
 8309 2eb4 9DF80F20 		ldrb	r2, [sp, #15]	@ zero_extendqisi2
 8310 2eb8 9DF80330 		ldrb	r3, [sp, #3]
 8311 2ebc 1343     		orrs	r3, r3, r2
 8312 2ebe DBB2     		uxtb	r3, r3
 8313 2ec0 8DF80F30 		strb	r3, [sp, #15]
 8314              		.loc 1 2855 0
 8315 2ec4 0DF10F03 		add	r3, sp, #15
 8316 2ec8 0198     		ldr	r0, [sp, #4]
 8317 2eca 3421     		movs	r1, #52
 8318 2ecc 1A46     		mov	r2, r3
 8319 2ece 0123     		movs	r3, #1
 8320 2ed0 FFF7FEFF 		bl	LSM303AGR_ACC_WriteReg
 8321 2ed4 0346     		mov	r3, r0
 8322 2ed6 002B     		cmp	r3, #0
 8323 2ed8 01D1     		bne	.L542
 8324              		.loc 1 2856 0
 8325 2eda 0023     		movs	r3, #0
 8326 2edc 00E0     		b	.L543
 8327              	.L542:
 8328              		.loc 1 2858 0
 8329 2ede 0123     		movs	r3, #1
 8330              	.L543:
 8331              		.loc 1 2859 0
 8332 2ee0 1846     		mov	r0, r3
 8333 2ee2 05B0     		add	sp, sp, #20
 8334              		@ sp needed
 8335 2ee4 5DF804FB 		ldr	pc, [sp], #4
 8336              		.cfi_endproc
 8337              	.LFE405:
 8338              		.size	LSM303AGR_ACC_W_Int2EnZHi, .-LSM303AGR_ACC_W_Int2EnZHi
 8339              		.align	2
 8340 2ee8 AFF30080 		.p2align 4,,15
 8340      AFF30080 
 8341              		.global	LSM303AGR_ACC_R_Int2EnZHi
 8342              		.thumb
 8343              		.thumb_func
 8344              		.type	LSM303AGR_ACC_R_Int2EnZHi, %function
 8345              	LSM303AGR_ACC_R_Int2EnZHi:
 8346              	.LFB406:
 8347              		.loc 1 2869 0
 8348              		.cfi_startproc
 8349              		@ args = 0, pretend = 0, frame = 8
 8350              		@ frame_needed = 0, uses_anonymous_args = 0
 8351 2ef0 00B5     		push	{lr}
 8352              		.cfi_def_cfa_offset 4
 8353              		.cfi_offset 14, -4
 8354 2ef2 83B0     		sub	sp, sp, #12
 8355              		.cfi_def_cfa_offset 16
 8356 2ef4 0190     		str	r0, [sp, #4]
 8357 2ef6 0091     		str	r1, [sp]
 8358              		.loc 1 2870 0
 8359 2ef8 0198     		ldr	r0, [sp, #4]
 8360 2efa 3421     		movs	r1, #52
 8361 2efc 009A     		ldr	r2, [sp]
ARM GAS  /tmp/ccRrg1qB.s 			page 150


 8362 2efe 0123     		movs	r3, #1
 8363 2f00 FFF7FEFF 		bl	LSM303AGR_ACC_ReadReg
 8364 2f04 0346     		mov	r3, r0
 8365 2f06 002B     		cmp	r3, #0
 8366 2f08 01D1     		bne	.L545
 8367              		.loc 1 2871 0
 8368 2f0a 0023     		movs	r3, #0
 8369 2f0c 07E0     		b	.L546
 8370              	.L545:
 8371              		.loc 1 2873 0
 8372 2f0e 009B     		ldr	r3, [sp]
 8373 2f10 1B78     		ldrb	r3, [r3]	@ zero_extendqisi2
 8374 2f12 03F02003 		and	r3, r3, #32
 8375 2f16 DAB2     		uxtb	r2, r3
 8376 2f18 009B     		ldr	r3, [sp]
 8377 2f1a 1A70     		strb	r2, [r3]
 8378              		.loc 1 2875 0
 8379 2f1c 0123     		movs	r3, #1
 8380              	.L546:
 8381              		.loc 1 2876 0
 8382 2f1e 1846     		mov	r0, r3
 8383 2f20 03B0     		add	sp, sp, #12
 8384              		@ sp needed
 8385 2f22 5DF804FB 		ldr	pc, [sp], #4
 8386              		.cfi_endproc
 8387              	.LFE406:
 8388              		.size	LSM303AGR_ACC_R_Int2EnZHi, .-LSM303AGR_ACC_R_Int2EnZHi
 8389 2f26 00BF     		.align	2
 8390 2f28 AFF30080 		.p2align 4,,15
 8390      AFF30080 
 8391              		.global	LSM303AGR_ACC_W_Int2_6D
 8392              		.thumb
 8393              		.thumb_func
 8394              		.type	LSM303AGR_ACC_W_Int2_6D, %function
 8395              	LSM303AGR_ACC_W_Int2_6D:
 8396              	.LFB407:
 8397              		.loc 1 2886 0
 8398              		.cfi_startproc
 8399              		@ args = 0, pretend = 0, frame = 16
 8400              		@ frame_needed = 0, uses_anonymous_args = 0
 8401 2f30 00B5     		push	{lr}
 8402              		.cfi_def_cfa_offset 4
 8403              		.cfi_offset 14, -4
 8404 2f32 85B0     		sub	sp, sp, #20
 8405              		.cfi_def_cfa_offset 24
 8406 2f34 0190     		str	r0, [sp, #4]
 8407 2f36 0B46     		mov	r3, r1
 8408 2f38 8DF80330 		strb	r3, [sp, #3]
 8409              		.loc 1 2889 0
 8410 2f3c 0DF10F03 		add	r3, sp, #15
 8411 2f40 0198     		ldr	r0, [sp, #4]
 8412 2f42 3421     		movs	r1, #52
 8413 2f44 1A46     		mov	r2, r3
 8414 2f46 0123     		movs	r3, #1
 8415 2f48 FFF7FEFF 		bl	LSM303AGR_ACC_ReadReg
 8416 2f4c 0346     		mov	r3, r0
 8417 2f4e 002B     		cmp	r3, #0
ARM GAS  /tmp/ccRrg1qB.s 			page 151


 8418 2f50 01D1     		bne	.L548
 8419              		.loc 1 2890 0
 8420 2f52 0023     		movs	r3, #0
 8421 2f54 1CE0     		b	.L551
 8422              	.L548:
 8423              		.loc 1 2892 0
 8424 2f56 9DF80F30 		ldrb	r3, [sp, #15]	@ zero_extendqisi2
 8425 2f5a 23F04003 		bic	r3, r3, #64
 8426 2f5e DBB2     		uxtb	r3, r3
 8427 2f60 8DF80F30 		strb	r3, [sp, #15]
 8428              		.loc 1 2893 0
 8429 2f64 9DF80F20 		ldrb	r2, [sp, #15]	@ zero_extendqisi2
 8430 2f68 9DF80330 		ldrb	r3, [sp, #3]
 8431 2f6c 1343     		orrs	r3, r3, r2
 8432 2f6e DBB2     		uxtb	r3, r3
 8433 2f70 8DF80F30 		strb	r3, [sp, #15]
 8434              		.loc 1 2895 0
 8435 2f74 0DF10F03 		add	r3, sp, #15
 8436 2f78 0198     		ldr	r0, [sp, #4]
 8437 2f7a 3421     		movs	r1, #52
 8438 2f7c 1A46     		mov	r2, r3
 8439 2f7e 0123     		movs	r3, #1
 8440 2f80 FFF7FEFF 		bl	LSM303AGR_ACC_WriteReg
 8441 2f84 0346     		mov	r3, r0
 8442 2f86 002B     		cmp	r3, #0
 8443 2f88 01D1     		bne	.L550
 8444              		.loc 1 2896 0
 8445 2f8a 0023     		movs	r3, #0
 8446 2f8c 00E0     		b	.L551
 8447              	.L550:
 8448              		.loc 1 2898 0
 8449 2f8e 0123     		movs	r3, #1
 8450              	.L551:
 8451              		.loc 1 2899 0
 8452 2f90 1846     		mov	r0, r3
 8453 2f92 05B0     		add	sp, sp, #20
 8454              		@ sp needed
 8455 2f94 5DF804FB 		ldr	pc, [sp], #4
 8456              		.cfi_endproc
 8457              	.LFE407:
 8458              		.size	LSM303AGR_ACC_W_Int2_6D, .-LSM303AGR_ACC_W_Int2_6D
 8459              		.align	2
 8460 2f98 AFF30080 		.p2align 4,,15
 8460      AFF30080 
 8461              		.global	LSM303AGR_ACC_R_Int2_6D
 8462              		.thumb
 8463              		.thumb_func
 8464              		.type	LSM303AGR_ACC_R_Int2_6D, %function
 8465              	LSM303AGR_ACC_R_Int2_6D:
 8466              	.LFB408:
 8467              		.loc 1 2909 0
 8468              		.cfi_startproc
 8469              		@ args = 0, pretend = 0, frame = 8
 8470              		@ frame_needed = 0, uses_anonymous_args = 0
 8471 2fa0 00B5     		push	{lr}
 8472              		.cfi_def_cfa_offset 4
 8473              		.cfi_offset 14, -4
ARM GAS  /tmp/ccRrg1qB.s 			page 152


 8474 2fa2 83B0     		sub	sp, sp, #12
 8475              		.cfi_def_cfa_offset 16
 8476 2fa4 0190     		str	r0, [sp, #4]
 8477 2fa6 0091     		str	r1, [sp]
 8478              		.loc 1 2910 0
 8479 2fa8 0198     		ldr	r0, [sp, #4]
 8480 2faa 3421     		movs	r1, #52
 8481 2fac 009A     		ldr	r2, [sp]
 8482 2fae 0123     		movs	r3, #1
 8483 2fb0 FFF7FEFF 		bl	LSM303AGR_ACC_ReadReg
 8484 2fb4 0346     		mov	r3, r0
 8485 2fb6 002B     		cmp	r3, #0
 8486 2fb8 01D1     		bne	.L553
 8487              		.loc 1 2911 0
 8488 2fba 0023     		movs	r3, #0
 8489 2fbc 07E0     		b	.L554
 8490              	.L553:
 8491              		.loc 1 2913 0
 8492 2fbe 009B     		ldr	r3, [sp]
 8493 2fc0 1B78     		ldrb	r3, [r3]	@ zero_extendqisi2
 8494 2fc2 03F04003 		and	r3, r3, #64
 8495 2fc6 DAB2     		uxtb	r2, r3
 8496 2fc8 009B     		ldr	r3, [sp]
 8497 2fca 1A70     		strb	r2, [r3]
 8498              		.loc 1 2915 0
 8499 2fcc 0123     		movs	r3, #1
 8500              	.L554:
 8501              		.loc 1 2916 0
 8502 2fce 1846     		mov	r0, r3
 8503 2fd0 03B0     		add	sp, sp, #12
 8504              		@ sp needed
 8505 2fd2 5DF804FB 		ldr	pc, [sp], #4
 8506              		.cfi_endproc
 8507              	.LFE408:
 8508              		.size	LSM303AGR_ACC_R_Int2_6D, .-LSM303AGR_ACC_R_Int2_6D
 8509 2fd6 00BF     		.align	2
 8510 2fd8 AFF30080 		.p2align 4,,15
 8510      AFF30080 
 8511              		.global	LSM303AGR_ACC_W_Int2_AOI
 8512              		.thumb
 8513              		.thumb_func
 8514              		.type	LSM303AGR_ACC_W_Int2_AOI, %function
 8515              	LSM303AGR_ACC_W_Int2_AOI:
 8516              	.LFB409:
 8517              		.loc 1 2926 0
 8518              		.cfi_startproc
 8519              		@ args = 0, pretend = 0, frame = 16
 8520              		@ frame_needed = 0, uses_anonymous_args = 0
 8521 2fe0 00B5     		push	{lr}
 8522              		.cfi_def_cfa_offset 4
 8523              		.cfi_offset 14, -4
 8524 2fe2 85B0     		sub	sp, sp, #20
 8525              		.cfi_def_cfa_offset 24
 8526 2fe4 0190     		str	r0, [sp, #4]
 8527 2fe6 0B46     		mov	r3, r1
 8528 2fe8 8DF80330 		strb	r3, [sp, #3]
 8529              		.loc 1 2929 0
ARM GAS  /tmp/ccRrg1qB.s 			page 153


 8530 2fec 0DF10F03 		add	r3, sp, #15
 8531 2ff0 0198     		ldr	r0, [sp, #4]
 8532 2ff2 3421     		movs	r1, #52
 8533 2ff4 1A46     		mov	r2, r3
 8534 2ff6 0123     		movs	r3, #1
 8535 2ff8 FFF7FEFF 		bl	LSM303AGR_ACC_ReadReg
 8536 2ffc 0346     		mov	r3, r0
 8537 2ffe 002B     		cmp	r3, #0
 8538 3000 01D1     		bne	.L556
 8539              		.loc 1 2930 0
 8540 3002 0023     		movs	r3, #0
 8541 3004 1CE0     		b	.L559
 8542              	.L556:
 8543              		.loc 1 2932 0
 8544 3006 9DF80F30 		ldrb	r3, [sp, #15]	@ zero_extendqisi2
 8545 300a 03F07F03 		and	r3, r3, #127
 8546 300e DBB2     		uxtb	r3, r3
 8547 3010 8DF80F30 		strb	r3, [sp, #15]
 8548              		.loc 1 2933 0
 8549 3014 9DF80F20 		ldrb	r2, [sp, #15]	@ zero_extendqisi2
 8550 3018 9DF80330 		ldrb	r3, [sp, #3]
 8551 301c 1343     		orrs	r3, r3, r2
 8552 301e DBB2     		uxtb	r3, r3
 8553 3020 8DF80F30 		strb	r3, [sp, #15]
 8554              		.loc 1 2935 0
 8555 3024 0DF10F03 		add	r3, sp, #15
 8556 3028 0198     		ldr	r0, [sp, #4]
 8557 302a 3421     		movs	r1, #52
 8558 302c 1A46     		mov	r2, r3
 8559 302e 0123     		movs	r3, #1
 8560 3030 FFF7FEFF 		bl	LSM303AGR_ACC_WriteReg
 8561 3034 0346     		mov	r3, r0
 8562 3036 002B     		cmp	r3, #0
 8563 3038 01D1     		bne	.L558
 8564              		.loc 1 2936 0
 8565 303a 0023     		movs	r3, #0
 8566 303c 00E0     		b	.L559
 8567              	.L558:
 8568              		.loc 1 2938 0
 8569 303e 0123     		movs	r3, #1
 8570              	.L559:
 8571              		.loc 1 2939 0
 8572 3040 1846     		mov	r0, r3
 8573 3042 05B0     		add	sp, sp, #20
 8574              		@ sp needed
 8575 3044 5DF804FB 		ldr	pc, [sp], #4
 8576              		.cfi_endproc
 8577              	.LFE409:
 8578              		.size	LSM303AGR_ACC_W_Int2_AOI, .-LSM303AGR_ACC_W_Int2_AOI
 8579              		.align	2
 8580 3048 AFF30080 		.p2align 4,,15
 8580      AFF30080 
 8581              		.global	LSM303AGR_ACC_R_Int2_AOI
 8582              		.thumb
 8583              		.thumb_func
 8584              		.type	LSM303AGR_ACC_R_Int2_AOI, %function
 8585              	LSM303AGR_ACC_R_Int2_AOI:
ARM GAS  /tmp/ccRrg1qB.s 			page 154


 8586              	.LFB410:
 8587              		.loc 1 2949 0
 8588              		.cfi_startproc
 8589              		@ args = 0, pretend = 0, frame = 8
 8590              		@ frame_needed = 0, uses_anonymous_args = 0
 8591 3050 00B5     		push	{lr}
 8592              		.cfi_def_cfa_offset 4
 8593              		.cfi_offset 14, -4
 8594 3052 83B0     		sub	sp, sp, #12
 8595              		.cfi_def_cfa_offset 16
 8596 3054 0190     		str	r0, [sp, #4]
 8597 3056 0091     		str	r1, [sp]
 8598              		.loc 1 2950 0
 8599 3058 0198     		ldr	r0, [sp, #4]
 8600 305a 3421     		movs	r1, #52
 8601 305c 009A     		ldr	r2, [sp]
 8602 305e 0123     		movs	r3, #1
 8603 3060 FFF7FEFF 		bl	LSM303AGR_ACC_ReadReg
 8604 3064 0346     		mov	r3, r0
 8605 3066 002B     		cmp	r3, #0
 8606 3068 01D1     		bne	.L561
 8607              		.loc 1 2951 0
 8608 306a 0023     		movs	r3, #0
 8609 306c 07E0     		b	.L562
 8610              	.L561:
 8611              		.loc 1 2953 0
 8612 306e 009B     		ldr	r3, [sp]
 8613 3070 1B78     		ldrb	r3, [r3]	@ zero_extendqisi2
 8614 3072 23F07F03 		bic	r3, r3, #127
 8615 3076 DAB2     		uxtb	r2, r3
 8616 3078 009B     		ldr	r3, [sp]
 8617 307a 1A70     		strb	r2, [r3]
 8618              		.loc 1 2955 0
 8619 307c 0123     		movs	r3, #1
 8620              	.L562:
 8621              		.loc 1 2956 0
 8622 307e 1846     		mov	r0, r3
 8623 3080 03B0     		add	sp, sp, #12
 8624              		@ sp needed
 8625 3082 5DF804FB 		ldr	pc, [sp], #4
 8626              		.cfi_endproc
 8627              	.LFE410:
 8628              		.size	LSM303AGR_ACC_R_Int2_AOI, .-LSM303AGR_ACC_R_Int2_AOI
 8629 3086 00BF     		.align	2
 8630 3088 AFF30080 		.p2align 4,,15
 8630      AFF30080 
 8631              		.global	LSM303AGR_ACC_R_Int1_Xlo
 8632              		.thumb
 8633              		.thumb_func
 8634              		.type	LSM303AGR_ACC_R_Int1_Xlo, %function
 8635              	LSM303AGR_ACC_R_Int1_Xlo:
 8636              	.LFB411:
 8637              		.loc 1 2966 0
 8638              		.cfi_startproc
 8639              		@ args = 0, pretend = 0, frame = 8
 8640              		@ frame_needed = 0, uses_anonymous_args = 0
 8641 3090 00B5     		push	{lr}
ARM GAS  /tmp/ccRrg1qB.s 			page 155


 8642              		.cfi_def_cfa_offset 4
 8643              		.cfi_offset 14, -4
 8644 3092 83B0     		sub	sp, sp, #12
 8645              		.cfi_def_cfa_offset 16
 8646 3094 0190     		str	r0, [sp, #4]
 8647 3096 0091     		str	r1, [sp]
 8648              		.loc 1 2967 0
 8649 3098 0198     		ldr	r0, [sp, #4]
 8650 309a 3121     		movs	r1, #49
 8651 309c 009A     		ldr	r2, [sp]
 8652 309e 0123     		movs	r3, #1
 8653 30a0 FFF7FEFF 		bl	LSM303AGR_ACC_ReadReg
 8654 30a4 0346     		mov	r3, r0
 8655 30a6 002B     		cmp	r3, #0
 8656 30a8 01D1     		bne	.L564
 8657              		.loc 1 2968 0
 8658 30aa 0023     		movs	r3, #0
 8659 30ac 07E0     		b	.L565
 8660              	.L564:
 8661              		.loc 1 2970 0
 8662 30ae 009B     		ldr	r3, [sp]
 8663 30b0 1B78     		ldrb	r3, [r3]	@ zero_extendqisi2
 8664 30b2 03F00103 		and	r3, r3, #1
 8665 30b6 DAB2     		uxtb	r2, r3
 8666 30b8 009B     		ldr	r3, [sp]
 8667 30ba 1A70     		strb	r2, [r3]
 8668              		.loc 1 2972 0
 8669 30bc 0123     		movs	r3, #1
 8670              	.L565:
 8671              		.loc 1 2973 0
 8672 30be 1846     		mov	r0, r3
 8673 30c0 03B0     		add	sp, sp, #12
 8674              		@ sp needed
 8675 30c2 5DF804FB 		ldr	pc, [sp], #4
 8676              		.cfi_endproc
 8677              	.LFE411:
 8678              		.size	LSM303AGR_ACC_R_Int1_Xlo, .-LSM303AGR_ACC_R_Int1_Xlo
 8679 30c6 00BF     		.align	2
 8680 30c8 AFF30080 		.p2align 4,,15
 8680      AFF30080 
 8681              		.global	LSM303AGR_ACC_R_Int1_XHi
 8682              		.thumb
 8683              		.thumb_func
 8684              		.type	LSM303AGR_ACC_R_Int1_XHi, %function
 8685              	LSM303AGR_ACC_R_Int1_XHi:
 8686              	.LFB412:
 8687              		.loc 1 2983 0
 8688              		.cfi_startproc
 8689              		@ args = 0, pretend = 0, frame = 8
 8690              		@ frame_needed = 0, uses_anonymous_args = 0
 8691 30d0 00B5     		push	{lr}
 8692              		.cfi_def_cfa_offset 4
 8693              		.cfi_offset 14, -4
 8694 30d2 83B0     		sub	sp, sp, #12
 8695              		.cfi_def_cfa_offset 16
 8696 30d4 0190     		str	r0, [sp, #4]
 8697 30d6 0091     		str	r1, [sp]
ARM GAS  /tmp/ccRrg1qB.s 			page 156


 8698              		.loc 1 2984 0
 8699 30d8 0198     		ldr	r0, [sp, #4]
 8700 30da 3121     		movs	r1, #49
 8701 30dc 009A     		ldr	r2, [sp]
 8702 30de 0123     		movs	r3, #1
 8703 30e0 FFF7FEFF 		bl	LSM303AGR_ACC_ReadReg
 8704 30e4 0346     		mov	r3, r0
 8705 30e6 002B     		cmp	r3, #0
 8706 30e8 01D1     		bne	.L567
 8707              		.loc 1 2985 0
 8708 30ea 0023     		movs	r3, #0
 8709 30ec 07E0     		b	.L568
 8710              	.L567:
 8711              		.loc 1 2987 0
 8712 30ee 009B     		ldr	r3, [sp]
 8713 30f0 1B78     		ldrb	r3, [r3]	@ zero_extendqisi2
 8714 30f2 03F00203 		and	r3, r3, #2
 8715 30f6 DAB2     		uxtb	r2, r3
 8716 30f8 009B     		ldr	r3, [sp]
 8717 30fa 1A70     		strb	r2, [r3]
 8718              		.loc 1 2989 0
 8719 30fc 0123     		movs	r3, #1
 8720              	.L568:
 8721              		.loc 1 2990 0
 8722 30fe 1846     		mov	r0, r3
 8723 3100 03B0     		add	sp, sp, #12
 8724              		@ sp needed
 8725 3102 5DF804FB 		ldr	pc, [sp], #4
 8726              		.cfi_endproc
 8727              	.LFE412:
 8728              		.size	LSM303AGR_ACC_R_Int1_XHi, .-LSM303AGR_ACC_R_Int1_XHi
 8729 3106 00BF     		.align	2
 8730 3108 AFF30080 		.p2align 4,,15
 8730      AFF30080 
 8731              		.global	LSM303AGR_ACC_R_Int1_YLo
 8732              		.thumb
 8733              		.thumb_func
 8734              		.type	LSM303AGR_ACC_R_Int1_YLo, %function
 8735              	LSM303AGR_ACC_R_Int1_YLo:
 8736              	.LFB413:
 8737              		.loc 1 3000 0
 8738              		.cfi_startproc
 8739              		@ args = 0, pretend = 0, frame = 8
 8740              		@ frame_needed = 0, uses_anonymous_args = 0
 8741 3110 00B5     		push	{lr}
 8742              		.cfi_def_cfa_offset 4
 8743              		.cfi_offset 14, -4
 8744 3112 83B0     		sub	sp, sp, #12
 8745              		.cfi_def_cfa_offset 16
 8746 3114 0190     		str	r0, [sp, #4]
 8747 3116 0091     		str	r1, [sp]
 8748              		.loc 1 3001 0
 8749 3118 0198     		ldr	r0, [sp, #4]
 8750 311a 3121     		movs	r1, #49
 8751 311c 009A     		ldr	r2, [sp]
 8752 311e 0123     		movs	r3, #1
 8753 3120 FFF7FEFF 		bl	LSM303AGR_ACC_ReadReg
ARM GAS  /tmp/ccRrg1qB.s 			page 157


 8754 3124 0346     		mov	r3, r0
 8755 3126 002B     		cmp	r3, #0
 8756 3128 01D1     		bne	.L570
 8757              		.loc 1 3002 0
 8758 312a 0023     		movs	r3, #0
 8759 312c 07E0     		b	.L571
 8760              	.L570:
 8761              		.loc 1 3004 0
 8762 312e 009B     		ldr	r3, [sp]
 8763 3130 1B78     		ldrb	r3, [r3]	@ zero_extendqisi2
 8764 3132 03F00403 		and	r3, r3, #4
 8765 3136 DAB2     		uxtb	r2, r3
 8766 3138 009B     		ldr	r3, [sp]
 8767 313a 1A70     		strb	r2, [r3]
 8768              		.loc 1 3006 0
 8769 313c 0123     		movs	r3, #1
 8770              	.L571:
 8771              		.loc 1 3007 0
 8772 313e 1846     		mov	r0, r3
 8773 3140 03B0     		add	sp, sp, #12
 8774              		@ sp needed
 8775 3142 5DF804FB 		ldr	pc, [sp], #4
 8776              		.cfi_endproc
 8777              	.LFE413:
 8778              		.size	LSM303AGR_ACC_R_Int1_YLo, .-LSM303AGR_ACC_R_Int1_YLo
 8779 3146 00BF     		.align	2
 8780 3148 AFF30080 		.p2align 4,,15
 8780      AFF30080 
 8781              		.global	LSM303AGR_ACC_R_Int1_YHi
 8782              		.thumb
 8783              		.thumb_func
 8784              		.type	LSM303AGR_ACC_R_Int1_YHi, %function
 8785              	LSM303AGR_ACC_R_Int1_YHi:
 8786              	.LFB414:
 8787              		.loc 1 3017 0
 8788              		.cfi_startproc
 8789              		@ args = 0, pretend = 0, frame = 8
 8790              		@ frame_needed = 0, uses_anonymous_args = 0
 8791 3150 00B5     		push	{lr}
 8792              		.cfi_def_cfa_offset 4
 8793              		.cfi_offset 14, -4
 8794 3152 83B0     		sub	sp, sp, #12
 8795              		.cfi_def_cfa_offset 16
 8796 3154 0190     		str	r0, [sp, #4]
 8797 3156 0091     		str	r1, [sp]
 8798              		.loc 1 3018 0
 8799 3158 0198     		ldr	r0, [sp, #4]
 8800 315a 3121     		movs	r1, #49
 8801 315c 009A     		ldr	r2, [sp]
 8802 315e 0123     		movs	r3, #1
 8803 3160 FFF7FEFF 		bl	LSM303AGR_ACC_ReadReg
 8804 3164 0346     		mov	r3, r0
 8805 3166 002B     		cmp	r3, #0
 8806 3168 01D1     		bne	.L573
 8807              		.loc 1 3019 0
 8808 316a 0023     		movs	r3, #0
 8809 316c 07E0     		b	.L574
ARM GAS  /tmp/ccRrg1qB.s 			page 158


 8810              	.L573:
 8811              		.loc 1 3021 0
 8812 316e 009B     		ldr	r3, [sp]
 8813 3170 1B78     		ldrb	r3, [r3]	@ zero_extendqisi2
 8814 3172 03F00803 		and	r3, r3, #8
 8815 3176 DAB2     		uxtb	r2, r3
 8816 3178 009B     		ldr	r3, [sp]
 8817 317a 1A70     		strb	r2, [r3]
 8818              		.loc 1 3023 0
 8819 317c 0123     		movs	r3, #1
 8820              	.L574:
 8821              		.loc 1 3024 0
 8822 317e 1846     		mov	r0, r3
 8823 3180 03B0     		add	sp, sp, #12
 8824              		@ sp needed
 8825 3182 5DF804FB 		ldr	pc, [sp], #4
 8826              		.cfi_endproc
 8827              	.LFE414:
 8828              		.size	LSM303AGR_ACC_R_Int1_YHi, .-LSM303AGR_ACC_R_Int1_YHi
 8829 3186 00BF     		.align	2
 8830 3188 AFF30080 		.p2align 4,,15
 8830      AFF30080 
 8831              		.global	LSM303AGR_ACC_R_Int1_Zlo
 8832              		.thumb
 8833              		.thumb_func
 8834              		.type	LSM303AGR_ACC_R_Int1_Zlo, %function
 8835              	LSM303AGR_ACC_R_Int1_Zlo:
 8836              	.LFB415:
 8837              		.loc 1 3034 0
 8838              		.cfi_startproc
 8839              		@ args = 0, pretend = 0, frame = 8
 8840              		@ frame_needed = 0, uses_anonymous_args = 0
 8841 3190 00B5     		push	{lr}
 8842              		.cfi_def_cfa_offset 4
 8843              		.cfi_offset 14, -4
 8844 3192 83B0     		sub	sp, sp, #12
 8845              		.cfi_def_cfa_offset 16
 8846 3194 0190     		str	r0, [sp, #4]
 8847 3196 0091     		str	r1, [sp]
 8848              		.loc 1 3035 0
 8849 3198 0198     		ldr	r0, [sp, #4]
 8850 319a 3121     		movs	r1, #49
 8851 319c 009A     		ldr	r2, [sp]
 8852 319e 0123     		movs	r3, #1
 8853 31a0 FFF7FEFF 		bl	LSM303AGR_ACC_ReadReg
 8854 31a4 0346     		mov	r3, r0
 8855 31a6 002B     		cmp	r3, #0
 8856 31a8 01D1     		bne	.L576
 8857              		.loc 1 3036 0
 8858 31aa 0023     		movs	r3, #0
 8859 31ac 07E0     		b	.L577
 8860              	.L576:
 8861              		.loc 1 3038 0
 8862 31ae 009B     		ldr	r3, [sp]
 8863 31b0 1B78     		ldrb	r3, [r3]	@ zero_extendqisi2
 8864 31b2 03F01003 		and	r3, r3, #16
 8865 31b6 DAB2     		uxtb	r2, r3
ARM GAS  /tmp/ccRrg1qB.s 			page 159


 8866 31b8 009B     		ldr	r3, [sp]
 8867 31ba 1A70     		strb	r2, [r3]
 8868              		.loc 1 3040 0
 8869 31bc 0123     		movs	r3, #1
 8870              	.L577:
 8871              		.loc 1 3041 0
 8872 31be 1846     		mov	r0, r3
 8873 31c0 03B0     		add	sp, sp, #12
 8874              		@ sp needed
 8875 31c2 5DF804FB 		ldr	pc, [sp], #4
 8876              		.cfi_endproc
 8877              	.LFE415:
 8878              		.size	LSM303AGR_ACC_R_Int1_Zlo, .-LSM303AGR_ACC_R_Int1_Zlo
 8879 31c6 00BF     		.align	2
 8880 31c8 AFF30080 		.p2align 4,,15
 8880      AFF30080 
 8881              		.global	LSM303AGR_ACC_R_Int1_ZHi
 8882              		.thumb
 8883              		.thumb_func
 8884              		.type	LSM303AGR_ACC_R_Int1_ZHi, %function
 8885              	LSM303AGR_ACC_R_Int1_ZHi:
 8886              	.LFB416:
 8887              		.loc 1 3051 0
 8888              		.cfi_startproc
 8889              		@ args = 0, pretend = 0, frame = 8
 8890              		@ frame_needed = 0, uses_anonymous_args = 0
 8891 31d0 00B5     		push	{lr}
 8892              		.cfi_def_cfa_offset 4
 8893              		.cfi_offset 14, -4
 8894 31d2 83B0     		sub	sp, sp, #12
 8895              		.cfi_def_cfa_offset 16
 8896 31d4 0190     		str	r0, [sp, #4]
 8897 31d6 0091     		str	r1, [sp]
 8898              		.loc 1 3052 0
 8899 31d8 0198     		ldr	r0, [sp, #4]
 8900 31da 3121     		movs	r1, #49
 8901 31dc 009A     		ldr	r2, [sp]
 8902 31de 0123     		movs	r3, #1
 8903 31e0 FFF7FEFF 		bl	LSM303AGR_ACC_ReadReg
 8904 31e4 0346     		mov	r3, r0
 8905 31e6 002B     		cmp	r3, #0
 8906 31e8 01D1     		bne	.L579
 8907              		.loc 1 3053 0
 8908 31ea 0023     		movs	r3, #0
 8909 31ec 07E0     		b	.L580
 8910              	.L579:
 8911              		.loc 1 3055 0
 8912 31ee 009B     		ldr	r3, [sp]
 8913 31f0 1B78     		ldrb	r3, [r3]	@ zero_extendqisi2
 8914 31f2 03F02003 		and	r3, r3, #32
 8915 31f6 DAB2     		uxtb	r2, r3
 8916 31f8 009B     		ldr	r3, [sp]
 8917 31fa 1A70     		strb	r2, [r3]
 8918              		.loc 1 3057 0
 8919 31fc 0123     		movs	r3, #1
 8920              	.L580:
 8921              		.loc 1 3058 0
ARM GAS  /tmp/ccRrg1qB.s 			page 160


 8922 31fe 1846     		mov	r0, r3
 8923 3200 03B0     		add	sp, sp, #12
 8924              		@ sp needed
 8925 3202 5DF804FB 		ldr	pc, [sp], #4
 8926              		.cfi_endproc
 8927              	.LFE416:
 8928              		.size	LSM303AGR_ACC_R_Int1_ZHi, .-LSM303AGR_ACC_R_Int1_ZHi
 8929 3206 00BF     		.align	2
 8930 3208 AFF30080 		.p2align 4,,15
 8930      AFF30080 
 8931              		.global	LSM303AGR_ACC_R_Int1_IA
 8932              		.thumb
 8933              		.thumb_func
 8934              		.type	LSM303AGR_ACC_R_Int1_IA, %function
 8935              	LSM303AGR_ACC_R_Int1_IA:
 8936              	.LFB417:
 8937              		.loc 1 3068 0
 8938              		.cfi_startproc
 8939              		@ args = 0, pretend = 0, frame = 8
 8940              		@ frame_needed = 0, uses_anonymous_args = 0
 8941 3210 00B5     		push	{lr}
 8942              		.cfi_def_cfa_offset 4
 8943              		.cfi_offset 14, -4
 8944 3212 83B0     		sub	sp, sp, #12
 8945              		.cfi_def_cfa_offset 16
 8946 3214 0190     		str	r0, [sp, #4]
 8947 3216 0091     		str	r1, [sp]
 8948              		.loc 1 3069 0
 8949 3218 0198     		ldr	r0, [sp, #4]
 8950 321a 3121     		movs	r1, #49
 8951 321c 009A     		ldr	r2, [sp]
 8952 321e 0123     		movs	r3, #1
 8953 3220 FFF7FEFF 		bl	LSM303AGR_ACC_ReadReg
 8954 3224 0346     		mov	r3, r0
 8955 3226 002B     		cmp	r3, #0
 8956 3228 01D1     		bne	.L582
 8957              		.loc 1 3070 0
 8958 322a 0023     		movs	r3, #0
 8959 322c 07E0     		b	.L583
 8960              	.L582:
 8961              		.loc 1 3072 0
 8962 322e 009B     		ldr	r3, [sp]
 8963 3230 1B78     		ldrb	r3, [r3]	@ zero_extendqisi2
 8964 3232 03F04003 		and	r3, r3, #64
 8965 3236 DAB2     		uxtb	r2, r3
 8966 3238 009B     		ldr	r3, [sp]
 8967 323a 1A70     		strb	r2, [r3]
 8968              		.loc 1 3074 0
 8969 323c 0123     		movs	r3, #1
 8970              	.L583:
 8971              		.loc 1 3075 0
 8972 323e 1846     		mov	r0, r3
 8973 3240 03B0     		add	sp, sp, #12
 8974              		@ sp needed
 8975 3242 5DF804FB 		ldr	pc, [sp], #4
 8976              		.cfi_endproc
 8977              	.LFE417:
ARM GAS  /tmp/ccRrg1qB.s 			page 161


 8978              		.size	LSM303AGR_ACC_R_Int1_IA, .-LSM303AGR_ACC_R_Int1_IA
 8979 3246 00BF     		.align	2
 8980 3248 AFF30080 		.p2align 4,,15
 8980      AFF30080 
 8981              		.global	LSM303AGR_ACC_R_Int2_Xlo
 8982              		.thumb
 8983              		.thumb_func
 8984              		.type	LSM303AGR_ACC_R_Int2_Xlo, %function
 8985              	LSM303AGR_ACC_R_Int2_Xlo:
 8986              	.LFB418:
 8987              		.loc 1 3085 0
 8988              		.cfi_startproc
 8989              		@ args = 0, pretend = 0, frame = 8
 8990              		@ frame_needed = 0, uses_anonymous_args = 0
 8991 3250 00B5     		push	{lr}
 8992              		.cfi_def_cfa_offset 4
 8993              		.cfi_offset 14, -4
 8994 3252 83B0     		sub	sp, sp, #12
 8995              		.cfi_def_cfa_offset 16
 8996 3254 0190     		str	r0, [sp, #4]
 8997 3256 0091     		str	r1, [sp]
 8998              		.loc 1 3086 0
 8999 3258 0198     		ldr	r0, [sp, #4]
 9000 325a 3521     		movs	r1, #53
 9001 325c 009A     		ldr	r2, [sp]
 9002 325e 0123     		movs	r3, #1
 9003 3260 FFF7FEFF 		bl	LSM303AGR_ACC_ReadReg
 9004 3264 0346     		mov	r3, r0
 9005 3266 002B     		cmp	r3, #0
 9006 3268 01D1     		bne	.L585
 9007              		.loc 1 3087 0
 9008 326a 0023     		movs	r3, #0
 9009 326c 07E0     		b	.L586
 9010              	.L585:
 9011              		.loc 1 3089 0
 9012 326e 009B     		ldr	r3, [sp]
 9013 3270 1B78     		ldrb	r3, [r3]	@ zero_extendqisi2
 9014 3272 03F00103 		and	r3, r3, #1
 9015 3276 DAB2     		uxtb	r2, r3
 9016 3278 009B     		ldr	r3, [sp]
 9017 327a 1A70     		strb	r2, [r3]
 9018              		.loc 1 3091 0
 9019 327c 0123     		movs	r3, #1
 9020              	.L586:
 9021              		.loc 1 3092 0
 9022 327e 1846     		mov	r0, r3
 9023 3280 03B0     		add	sp, sp, #12
 9024              		@ sp needed
 9025 3282 5DF804FB 		ldr	pc, [sp], #4
 9026              		.cfi_endproc
 9027              	.LFE418:
 9028              		.size	LSM303AGR_ACC_R_Int2_Xlo, .-LSM303AGR_ACC_R_Int2_Xlo
 9029 3286 00BF     		.align	2
 9030 3288 AFF30080 		.p2align 4,,15
 9030      AFF30080 
 9031              		.global	LSM303AGR_ACC_R_Int2_XHi
 9032              		.thumb
ARM GAS  /tmp/ccRrg1qB.s 			page 162


 9033              		.thumb_func
 9034              		.type	LSM303AGR_ACC_R_Int2_XHi, %function
 9035              	LSM303AGR_ACC_R_Int2_XHi:
 9036              	.LFB419:
 9037              		.loc 1 3102 0
 9038              		.cfi_startproc
 9039              		@ args = 0, pretend = 0, frame = 8
 9040              		@ frame_needed = 0, uses_anonymous_args = 0
 9041 3290 00B5     		push	{lr}
 9042              		.cfi_def_cfa_offset 4
 9043              		.cfi_offset 14, -4
 9044 3292 83B0     		sub	sp, sp, #12
 9045              		.cfi_def_cfa_offset 16
 9046 3294 0190     		str	r0, [sp, #4]
 9047 3296 0091     		str	r1, [sp]
 9048              		.loc 1 3103 0
 9049 3298 0198     		ldr	r0, [sp, #4]
 9050 329a 3521     		movs	r1, #53
 9051 329c 009A     		ldr	r2, [sp]
 9052 329e 0123     		movs	r3, #1
 9053 32a0 FFF7FEFF 		bl	LSM303AGR_ACC_ReadReg
 9054 32a4 0346     		mov	r3, r0
 9055 32a6 002B     		cmp	r3, #0
 9056 32a8 01D1     		bne	.L588
 9057              		.loc 1 3104 0
 9058 32aa 0023     		movs	r3, #0
 9059 32ac 07E0     		b	.L589
 9060              	.L588:
 9061              		.loc 1 3106 0
 9062 32ae 009B     		ldr	r3, [sp]
 9063 32b0 1B78     		ldrb	r3, [r3]	@ zero_extendqisi2
 9064 32b2 03F00203 		and	r3, r3, #2
 9065 32b6 DAB2     		uxtb	r2, r3
 9066 32b8 009B     		ldr	r3, [sp]
 9067 32ba 1A70     		strb	r2, [r3]
 9068              		.loc 1 3108 0
 9069 32bc 0123     		movs	r3, #1
 9070              	.L589:
 9071              		.loc 1 3109 0
 9072 32be 1846     		mov	r0, r3
 9073 32c0 03B0     		add	sp, sp, #12
 9074              		@ sp needed
 9075 32c2 5DF804FB 		ldr	pc, [sp], #4
 9076              		.cfi_endproc
 9077              	.LFE419:
 9078              		.size	LSM303AGR_ACC_R_Int2_XHi, .-LSM303AGR_ACC_R_Int2_XHi
 9079 32c6 00BF     		.align	2
 9080 32c8 AFF30080 		.p2align 4,,15
 9080      AFF30080 
 9081              		.global	LSM303AGR_ACC_R_Int2_YLo
 9082              		.thumb
 9083              		.thumb_func
 9084              		.type	LSM303AGR_ACC_R_Int2_YLo, %function
 9085              	LSM303AGR_ACC_R_Int2_YLo:
 9086              	.LFB420:
 9087              		.loc 1 3119 0
 9088              		.cfi_startproc
ARM GAS  /tmp/ccRrg1qB.s 			page 163


 9089              		@ args = 0, pretend = 0, frame = 8
 9090              		@ frame_needed = 0, uses_anonymous_args = 0
 9091 32d0 00B5     		push	{lr}
 9092              		.cfi_def_cfa_offset 4
 9093              		.cfi_offset 14, -4
 9094 32d2 83B0     		sub	sp, sp, #12
 9095              		.cfi_def_cfa_offset 16
 9096 32d4 0190     		str	r0, [sp, #4]
 9097 32d6 0091     		str	r1, [sp]
 9098              		.loc 1 3120 0
 9099 32d8 0198     		ldr	r0, [sp, #4]
 9100 32da 3521     		movs	r1, #53
 9101 32dc 009A     		ldr	r2, [sp]
 9102 32de 0123     		movs	r3, #1
 9103 32e0 FFF7FEFF 		bl	LSM303AGR_ACC_ReadReg
 9104 32e4 0346     		mov	r3, r0
 9105 32e6 002B     		cmp	r3, #0
 9106 32e8 01D1     		bne	.L591
 9107              		.loc 1 3121 0
 9108 32ea 0023     		movs	r3, #0
 9109 32ec 07E0     		b	.L592
 9110              	.L591:
 9111              		.loc 1 3123 0
 9112 32ee 009B     		ldr	r3, [sp]
 9113 32f0 1B78     		ldrb	r3, [r3]	@ zero_extendqisi2
 9114 32f2 03F00403 		and	r3, r3, #4
 9115 32f6 DAB2     		uxtb	r2, r3
 9116 32f8 009B     		ldr	r3, [sp]
 9117 32fa 1A70     		strb	r2, [r3]
 9118              		.loc 1 3125 0
 9119 32fc 0123     		movs	r3, #1
 9120              	.L592:
 9121              		.loc 1 3126 0
 9122 32fe 1846     		mov	r0, r3
 9123 3300 03B0     		add	sp, sp, #12
 9124              		@ sp needed
 9125 3302 5DF804FB 		ldr	pc, [sp], #4
 9126              		.cfi_endproc
 9127              	.LFE420:
 9128              		.size	LSM303AGR_ACC_R_Int2_YLo, .-LSM303AGR_ACC_R_Int2_YLo
 9129 3306 00BF     		.align	2
 9130 3308 AFF30080 		.p2align 4,,15
 9130      AFF30080 
 9131              		.global	LSM303AGR_ACC_R_Int2_YHi
 9132              		.thumb
 9133              		.thumb_func
 9134              		.type	LSM303AGR_ACC_R_Int2_YHi, %function
 9135              	LSM303AGR_ACC_R_Int2_YHi:
 9136              	.LFB421:
 9137              		.loc 1 3136 0
 9138              		.cfi_startproc
 9139              		@ args = 0, pretend = 0, frame = 8
 9140              		@ frame_needed = 0, uses_anonymous_args = 0
 9141 3310 00B5     		push	{lr}
 9142              		.cfi_def_cfa_offset 4
 9143              		.cfi_offset 14, -4
 9144 3312 83B0     		sub	sp, sp, #12
ARM GAS  /tmp/ccRrg1qB.s 			page 164


 9145              		.cfi_def_cfa_offset 16
 9146 3314 0190     		str	r0, [sp, #4]
 9147 3316 0091     		str	r1, [sp]
 9148              		.loc 1 3137 0
 9149 3318 0198     		ldr	r0, [sp, #4]
 9150 331a 3521     		movs	r1, #53
 9151 331c 009A     		ldr	r2, [sp]
 9152 331e 0123     		movs	r3, #1
 9153 3320 FFF7FEFF 		bl	LSM303AGR_ACC_ReadReg
 9154 3324 0346     		mov	r3, r0
 9155 3326 002B     		cmp	r3, #0
 9156 3328 01D1     		bne	.L594
 9157              		.loc 1 3138 0
 9158 332a 0023     		movs	r3, #0
 9159 332c 07E0     		b	.L595
 9160              	.L594:
 9161              		.loc 1 3140 0
 9162 332e 009B     		ldr	r3, [sp]
 9163 3330 1B78     		ldrb	r3, [r3]	@ zero_extendqisi2
 9164 3332 03F00803 		and	r3, r3, #8
 9165 3336 DAB2     		uxtb	r2, r3
 9166 3338 009B     		ldr	r3, [sp]
 9167 333a 1A70     		strb	r2, [r3]
 9168              		.loc 1 3142 0
 9169 333c 0123     		movs	r3, #1
 9170              	.L595:
 9171              		.loc 1 3143 0
 9172 333e 1846     		mov	r0, r3
 9173 3340 03B0     		add	sp, sp, #12
 9174              		@ sp needed
 9175 3342 5DF804FB 		ldr	pc, [sp], #4
 9176              		.cfi_endproc
 9177              	.LFE421:
 9178              		.size	LSM303AGR_ACC_R_Int2_YHi, .-LSM303AGR_ACC_R_Int2_YHi
 9179 3346 00BF     		.align	2
 9180 3348 AFF30080 		.p2align 4,,15
 9180      AFF30080 
 9181              		.global	LSM303AGR_ACC_R_Int2_Zlo
 9182              		.thumb
 9183              		.thumb_func
 9184              		.type	LSM303AGR_ACC_R_Int2_Zlo, %function
 9185              	LSM303AGR_ACC_R_Int2_Zlo:
 9186              	.LFB422:
 9187              		.loc 1 3153 0
 9188              		.cfi_startproc
 9189              		@ args = 0, pretend = 0, frame = 8
 9190              		@ frame_needed = 0, uses_anonymous_args = 0
 9191 3350 00B5     		push	{lr}
 9192              		.cfi_def_cfa_offset 4
 9193              		.cfi_offset 14, -4
 9194 3352 83B0     		sub	sp, sp, #12
 9195              		.cfi_def_cfa_offset 16
 9196 3354 0190     		str	r0, [sp, #4]
 9197 3356 0091     		str	r1, [sp]
 9198              		.loc 1 3154 0
 9199 3358 0198     		ldr	r0, [sp, #4]
 9200 335a 3521     		movs	r1, #53
ARM GAS  /tmp/ccRrg1qB.s 			page 165


 9201 335c 009A     		ldr	r2, [sp]
 9202 335e 0123     		movs	r3, #1
 9203 3360 FFF7FEFF 		bl	LSM303AGR_ACC_ReadReg
 9204 3364 0346     		mov	r3, r0
 9205 3366 002B     		cmp	r3, #0
 9206 3368 01D1     		bne	.L597
 9207              		.loc 1 3155 0
 9208 336a 0023     		movs	r3, #0
 9209 336c 07E0     		b	.L598
 9210              	.L597:
 9211              		.loc 1 3157 0
 9212 336e 009B     		ldr	r3, [sp]
 9213 3370 1B78     		ldrb	r3, [r3]	@ zero_extendqisi2
 9214 3372 03F01003 		and	r3, r3, #16
 9215 3376 DAB2     		uxtb	r2, r3
 9216 3378 009B     		ldr	r3, [sp]
 9217 337a 1A70     		strb	r2, [r3]
 9218              		.loc 1 3159 0
 9219 337c 0123     		movs	r3, #1
 9220              	.L598:
 9221              		.loc 1 3160 0
 9222 337e 1846     		mov	r0, r3
 9223 3380 03B0     		add	sp, sp, #12
 9224              		@ sp needed
 9225 3382 5DF804FB 		ldr	pc, [sp], #4
 9226              		.cfi_endproc
 9227              	.LFE422:
 9228              		.size	LSM303AGR_ACC_R_Int2_Zlo, .-LSM303AGR_ACC_R_Int2_Zlo
 9229 3386 00BF     		.align	2
 9230 3388 AFF30080 		.p2align 4,,15
 9230      AFF30080 
 9231              		.global	LSM303AGR_ACC_R_Int2_ZHi
 9232              		.thumb
 9233              		.thumb_func
 9234              		.type	LSM303AGR_ACC_R_Int2_ZHi, %function
 9235              	LSM303AGR_ACC_R_Int2_ZHi:
 9236              	.LFB423:
 9237              		.loc 1 3170 0
 9238              		.cfi_startproc
 9239              		@ args = 0, pretend = 0, frame = 8
 9240              		@ frame_needed = 0, uses_anonymous_args = 0
 9241 3390 00B5     		push	{lr}
 9242              		.cfi_def_cfa_offset 4
 9243              		.cfi_offset 14, -4
 9244 3392 83B0     		sub	sp, sp, #12
 9245              		.cfi_def_cfa_offset 16
 9246 3394 0190     		str	r0, [sp, #4]
 9247 3396 0091     		str	r1, [sp]
 9248              		.loc 1 3171 0
 9249 3398 0198     		ldr	r0, [sp, #4]
 9250 339a 3521     		movs	r1, #53
 9251 339c 009A     		ldr	r2, [sp]
 9252 339e 0123     		movs	r3, #1
 9253 33a0 FFF7FEFF 		bl	LSM303AGR_ACC_ReadReg
 9254 33a4 0346     		mov	r3, r0
 9255 33a6 002B     		cmp	r3, #0
 9256 33a8 01D1     		bne	.L600
ARM GAS  /tmp/ccRrg1qB.s 			page 166


 9257              		.loc 1 3172 0
 9258 33aa 0023     		movs	r3, #0
 9259 33ac 07E0     		b	.L601
 9260              	.L600:
 9261              		.loc 1 3174 0
 9262 33ae 009B     		ldr	r3, [sp]
 9263 33b0 1B78     		ldrb	r3, [r3]	@ zero_extendqisi2
 9264 33b2 03F02003 		and	r3, r3, #32
 9265 33b6 DAB2     		uxtb	r2, r3
 9266 33b8 009B     		ldr	r3, [sp]
 9267 33ba 1A70     		strb	r2, [r3]
 9268              		.loc 1 3176 0
 9269 33bc 0123     		movs	r3, #1
 9270              	.L601:
 9271              		.loc 1 3177 0
 9272 33be 1846     		mov	r0, r3
 9273 33c0 03B0     		add	sp, sp, #12
 9274              		@ sp needed
 9275 33c2 5DF804FB 		ldr	pc, [sp], #4
 9276              		.cfi_endproc
 9277              	.LFE423:
 9278              		.size	LSM303AGR_ACC_R_Int2_ZHi, .-LSM303AGR_ACC_R_Int2_ZHi
 9279 33c6 00BF     		.align	2
 9280 33c8 AFF30080 		.p2align 4,,15
 9280      AFF30080 
 9281              		.global	LSM303AGR_ACC_R_Int2_IA
 9282              		.thumb
 9283              		.thumb_func
 9284              		.type	LSM303AGR_ACC_R_Int2_IA, %function
 9285              	LSM303AGR_ACC_R_Int2_IA:
 9286              	.LFB424:
 9287              		.loc 1 3187 0
 9288              		.cfi_startproc
 9289              		@ args = 0, pretend = 0, frame = 8
 9290              		@ frame_needed = 0, uses_anonymous_args = 0
 9291 33d0 00B5     		push	{lr}
 9292              		.cfi_def_cfa_offset 4
 9293              		.cfi_offset 14, -4
 9294 33d2 83B0     		sub	sp, sp, #12
 9295              		.cfi_def_cfa_offset 16
 9296 33d4 0190     		str	r0, [sp, #4]
 9297 33d6 0091     		str	r1, [sp]
 9298              		.loc 1 3188 0
 9299 33d8 0198     		ldr	r0, [sp, #4]
 9300 33da 3521     		movs	r1, #53
 9301 33dc 009A     		ldr	r2, [sp]
 9302 33de 0123     		movs	r3, #1
 9303 33e0 FFF7FEFF 		bl	LSM303AGR_ACC_ReadReg
 9304 33e4 0346     		mov	r3, r0
 9305 33e6 002B     		cmp	r3, #0
 9306 33e8 01D1     		bne	.L603
 9307              		.loc 1 3189 0
 9308 33ea 0023     		movs	r3, #0
 9309 33ec 07E0     		b	.L604
 9310              	.L603:
 9311              		.loc 1 3191 0
 9312 33ee 009B     		ldr	r3, [sp]
ARM GAS  /tmp/ccRrg1qB.s 			page 167


 9313 33f0 1B78     		ldrb	r3, [r3]	@ zero_extendqisi2
 9314 33f2 03F04003 		and	r3, r3, #64
 9315 33f6 DAB2     		uxtb	r2, r3
 9316 33f8 009B     		ldr	r3, [sp]
 9317 33fa 1A70     		strb	r2, [r3]
 9318              		.loc 1 3193 0
 9319 33fc 0123     		movs	r3, #1
 9320              	.L604:
 9321              		.loc 1 3194 0
 9322 33fe 1846     		mov	r0, r3
 9323 3400 03B0     		add	sp, sp, #12
 9324              		@ sp needed
 9325 3402 5DF804FB 		ldr	pc, [sp], #4
 9326              		.cfi_endproc
 9327              	.LFE424:
 9328              		.size	LSM303AGR_ACC_R_Int2_IA, .-LSM303AGR_ACC_R_Int2_IA
 9329 3406 00BF     		.align	2
 9330 3408 AFF30080 		.p2align 4,,15
 9330      AFF30080 
 9331              		.global	LSM303AGR_ACC_W_Int1_Threshold
 9332              		.thumb
 9333              		.thumb_func
 9334              		.type	LSM303AGR_ACC_W_Int1_Threshold, %function
 9335              	LSM303AGR_ACC_W_Int1_Threshold:
 9336              	.LFB425:
 9337              		.loc 1 3204 0
 9338              		.cfi_startproc
 9339              		@ args = 0, pretend = 0, frame = 16
 9340              		@ frame_needed = 0, uses_anonymous_args = 0
 9341 3410 00B5     		push	{lr}
 9342              		.cfi_def_cfa_offset 4
 9343              		.cfi_offset 14, -4
 9344 3412 85B0     		sub	sp, sp, #20
 9345              		.cfi_def_cfa_offset 24
 9346 3414 0190     		str	r0, [sp, #4]
 9347 3416 0B46     		mov	r3, r1
 9348 3418 8DF80330 		strb	r3, [sp, #3]
 9349              		.loc 1 3208 0
 9350 341c 9DF80330 		ldrb	r3, [sp, #3]
 9351 3420 03F07F03 		and	r3, r3, #127
 9352 3424 8DF80330 		strb	r3, [sp, #3]
 9353              		.loc 1 3210 0
 9354 3428 0DF10F03 		add	r3, sp, #15
 9355 342c 0198     		ldr	r0, [sp, #4]
 9356 342e 3221     		movs	r1, #50
 9357 3430 1A46     		mov	r2, r3
 9358 3432 0123     		movs	r3, #1
 9359 3434 FFF7FEFF 		bl	LSM303AGR_ACC_ReadReg
 9360 3438 0346     		mov	r3, r0
 9361 343a 002B     		cmp	r3, #0
 9362 343c 01D1     		bne	.L606
 9363              		.loc 1 3211 0
 9364 343e 0023     		movs	r3, #0
 9365 3440 1CE0     		b	.L609
 9366              	.L606:
 9367              		.loc 1 3213 0
 9368 3442 9DF80F30 		ldrb	r3, [sp, #15]	@ zero_extendqisi2
ARM GAS  /tmp/ccRrg1qB.s 			page 168


 9369 3446 23F07F03 		bic	r3, r3, #127
 9370 344a DBB2     		uxtb	r3, r3
 9371 344c 8DF80F30 		strb	r3, [sp, #15]
 9372              		.loc 1 3214 0
 9373 3450 9DF80F20 		ldrb	r2, [sp, #15]	@ zero_extendqisi2
 9374 3454 9DF80330 		ldrb	r3, [sp, #3]
 9375 3458 1343     		orrs	r3, r3, r2
 9376 345a DBB2     		uxtb	r3, r3
 9377 345c 8DF80F30 		strb	r3, [sp, #15]
 9378              		.loc 1 3216 0
 9379 3460 0DF10F03 		add	r3, sp, #15
 9380 3464 0198     		ldr	r0, [sp, #4]
 9381 3466 3221     		movs	r1, #50
 9382 3468 1A46     		mov	r2, r3
 9383 346a 0123     		movs	r3, #1
 9384 346c FFF7FEFF 		bl	LSM303AGR_ACC_WriteReg
 9385 3470 0346     		mov	r3, r0
 9386 3472 002B     		cmp	r3, #0
 9387 3474 01D1     		bne	.L608
 9388              		.loc 1 3217 0
 9389 3476 0023     		movs	r3, #0
 9390 3478 00E0     		b	.L609
 9391              	.L608:
 9392              		.loc 1 3219 0
 9393 347a 0123     		movs	r3, #1
 9394              	.L609:
 9395              		.loc 1 3220 0
 9396 347c 1846     		mov	r0, r3
 9397 347e 05B0     		add	sp, sp, #20
 9398              		@ sp needed
 9399 3480 5DF804FB 		ldr	pc, [sp], #4
 9400              		.cfi_endproc
 9401              	.LFE425:
 9402              		.size	LSM303AGR_ACC_W_Int1_Threshold, .-LSM303AGR_ACC_W_Int1_Threshold
 9403              		.align	2
 9404 3484 AFF30080 		.p2align 4,,15
 9404      AFF30080 
 9404      AFF30080 
 9405              		.global	LSM303AGR_ACC_R_Int1_Threshold
 9406              		.thumb
 9407              		.thumb_func
 9408              		.type	LSM303AGR_ACC_R_Int1_Threshold, %function
 9409              	LSM303AGR_ACC_R_Int1_Threshold:
 9410              	.LFB426:
 9411              		.loc 1 3230 0
 9412              		.cfi_startproc
 9413              		@ args = 0, pretend = 0, frame = 8
 9414              		@ frame_needed = 0, uses_anonymous_args = 0
 9415 3490 00B5     		push	{lr}
 9416              		.cfi_def_cfa_offset 4
 9417              		.cfi_offset 14, -4
 9418 3492 83B0     		sub	sp, sp, #12
 9419              		.cfi_def_cfa_offset 16
 9420 3494 0190     		str	r0, [sp, #4]
 9421 3496 0091     		str	r1, [sp]
 9422              		.loc 1 3231 0
 9423 3498 0198     		ldr	r0, [sp, #4]
ARM GAS  /tmp/ccRrg1qB.s 			page 169


 9424 349a 3221     		movs	r1, #50
 9425 349c 009A     		ldr	r2, [sp]
 9426 349e 0123     		movs	r3, #1
 9427 34a0 FFF7FEFF 		bl	LSM303AGR_ACC_ReadReg
 9428 34a4 0346     		mov	r3, r0
 9429 34a6 002B     		cmp	r3, #0
 9430 34a8 01D1     		bne	.L611
 9431              		.loc 1 3232 0
 9432 34aa 0023     		movs	r3, #0
 9433 34ac 0BE0     		b	.L612
 9434              	.L611:
 9435              		.loc 1 3234 0
 9436 34ae 009B     		ldr	r3, [sp]
 9437 34b0 1B78     		ldrb	r3, [r3]	@ zero_extendqisi2
 9438 34b2 03F07F03 		and	r3, r3, #127
 9439 34b6 DAB2     		uxtb	r2, r3
 9440 34b8 009B     		ldr	r3, [sp]
 9441 34ba 1A70     		strb	r2, [r3]
 9442              		.loc 1 3235 0
 9443 34bc 009B     		ldr	r3, [sp]
 9444 34be 1A78     		ldrb	r2, [r3]	@ zero_extendqisi2
 9445 34c0 009B     		ldr	r3, [sp]
 9446 34c2 1A70     		strb	r2, [r3]
 9447              		.loc 1 3237 0
 9448 34c4 0123     		movs	r3, #1
 9449              	.L612:
 9450              		.loc 1 3238 0
 9451 34c6 1846     		mov	r0, r3
 9452 34c8 03B0     		add	sp, sp, #12
 9453              		@ sp needed
 9454 34ca 5DF804FB 		ldr	pc, [sp], #4
 9455              		.cfi_endproc
 9456              	.LFE426:
 9457              		.size	LSM303AGR_ACC_R_Int1_Threshold, .-LSM303AGR_ACC_R_Int1_Threshold
 9458 34ce 00BF     		.align	2
 9459              		.p2align 4,,15
 9460              		.global	LSM303AGR_ACC_W_Int2_Threshold
 9461              		.thumb
 9462              		.thumb_func
 9463              		.type	LSM303AGR_ACC_W_Int2_Threshold, %function
 9464              	LSM303AGR_ACC_W_Int2_Threshold:
 9465              	.LFB427:
 9466              		.loc 1 3248 0
 9467              		.cfi_startproc
 9468              		@ args = 0, pretend = 0, frame = 16
 9469              		@ frame_needed = 0, uses_anonymous_args = 0
 9470 34d0 00B5     		push	{lr}
 9471              		.cfi_def_cfa_offset 4
 9472              		.cfi_offset 14, -4
 9473 34d2 85B0     		sub	sp, sp, #20
 9474              		.cfi_def_cfa_offset 24
 9475 34d4 0190     		str	r0, [sp, #4]
 9476 34d6 0B46     		mov	r3, r1
 9477 34d8 8DF80330 		strb	r3, [sp, #3]
 9478              		.loc 1 3252 0
 9479 34dc 9DF80330 		ldrb	r3, [sp, #3]
 9480 34e0 03F07F03 		and	r3, r3, #127
ARM GAS  /tmp/ccRrg1qB.s 			page 170


 9481 34e4 8DF80330 		strb	r3, [sp, #3]
 9482              		.loc 1 3254 0
 9483 34e8 0DF10F03 		add	r3, sp, #15
 9484 34ec 0198     		ldr	r0, [sp, #4]
 9485 34ee 3621     		movs	r1, #54
 9486 34f0 1A46     		mov	r2, r3
 9487 34f2 0123     		movs	r3, #1
 9488 34f4 FFF7FEFF 		bl	LSM303AGR_ACC_ReadReg
 9489 34f8 0346     		mov	r3, r0
 9490 34fa 002B     		cmp	r3, #0
 9491 34fc 01D1     		bne	.L614
 9492              		.loc 1 3255 0
 9493 34fe 0023     		movs	r3, #0
 9494 3500 1CE0     		b	.L617
 9495              	.L614:
 9496              		.loc 1 3257 0
 9497 3502 9DF80F30 		ldrb	r3, [sp, #15]	@ zero_extendqisi2
 9498 3506 23F07F03 		bic	r3, r3, #127
 9499 350a DBB2     		uxtb	r3, r3
 9500 350c 8DF80F30 		strb	r3, [sp, #15]
 9501              		.loc 1 3258 0
 9502 3510 9DF80F20 		ldrb	r2, [sp, #15]	@ zero_extendqisi2
 9503 3514 9DF80330 		ldrb	r3, [sp, #3]
 9504 3518 1343     		orrs	r3, r3, r2
 9505 351a DBB2     		uxtb	r3, r3
 9506 351c 8DF80F30 		strb	r3, [sp, #15]
 9507              		.loc 1 3260 0
 9508 3520 0DF10F03 		add	r3, sp, #15
 9509 3524 0198     		ldr	r0, [sp, #4]
 9510 3526 3621     		movs	r1, #54
 9511 3528 1A46     		mov	r2, r3
 9512 352a 0123     		movs	r3, #1
 9513 352c FFF7FEFF 		bl	LSM303AGR_ACC_WriteReg
 9514 3530 0346     		mov	r3, r0
 9515 3532 002B     		cmp	r3, #0
 9516 3534 01D1     		bne	.L616
 9517              		.loc 1 3261 0
 9518 3536 0023     		movs	r3, #0
 9519 3538 00E0     		b	.L617
 9520              	.L616:
 9521              		.loc 1 3263 0
 9522 353a 0123     		movs	r3, #1
 9523              	.L617:
 9524              		.loc 1 3264 0
 9525 353c 1846     		mov	r0, r3
 9526 353e 05B0     		add	sp, sp, #20
 9527              		@ sp needed
 9528 3540 5DF804FB 		ldr	pc, [sp], #4
 9529              		.cfi_endproc
 9530              	.LFE427:
 9531              		.size	LSM303AGR_ACC_W_Int2_Threshold, .-LSM303AGR_ACC_W_Int2_Threshold
 9532              		.align	2
 9533 3544 AFF30080 		.p2align 4,,15
 9533      AFF30080 
 9533      AFF30080 
 9534              		.global	LSM303AGR_ACC_R_Int2_Threshold
 9535              		.thumb
ARM GAS  /tmp/ccRrg1qB.s 			page 171


 9536              		.thumb_func
 9537              		.type	LSM303AGR_ACC_R_Int2_Threshold, %function
 9538              	LSM303AGR_ACC_R_Int2_Threshold:
 9539              	.LFB428:
 9540              		.loc 1 3274 0
 9541              		.cfi_startproc
 9542              		@ args = 0, pretend = 0, frame = 8
 9543              		@ frame_needed = 0, uses_anonymous_args = 0
 9544 3550 00B5     		push	{lr}
 9545              		.cfi_def_cfa_offset 4
 9546              		.cfi_offset 14, -4
 9547 3552 83B0     		sub	sp, sp, #12
 9548              		.cfi_def_cfa_offset 16
 9549 3554 0190     		str	r0, [sp, #4]
 9550 3556 0091     		str	r1, [sp]
 9551              		.loc 1 3275 0
 9552 3558 0198     		ldr	r0, [sp, #4]
 9553 355a 3621     		movs	r1, #54
 9554 355c 009A     		ldr	r2, [sp]
 9555 355e 0123     		movs	r3, #1
 9556 3560 FFF7FEFF 		bl	LSM303AGR_ACC_ReadReg
 9557 3564 0346     		mov	r3, r0
 9558 3566 002B     		cmp	r3, #0
 9559 3568 01D1     		bne	.L619
 9560              		.loc 1 3276 0
 9561 356a 0023     		movs	r3, #0
 9562 356c 0BE0     		b	.L620
 9563              	.L619:
 9564              		.loc 1 3278 0
 9565 356e 009B     		ldr	r3, [sp]
 9566 3570 1B78     		ldrb	r3, [r3]	@ zero_extendqisi2
 9567 3572 03F07F03 		and	r3, r3, #127
 9568 3576 DAB2     		uxtb	r2, r3
 9569 3578 009B     		ldr	r3, [sp]
 9570 357a 1A70     		strb	r2, [r3]
 9571              		.loc 1 3279 0
 9572 357c 009B     		ldr	r3, [sp]
 9573 357e 1A78     		ldrb	r2, [r3]	@ zero_extendqisi2
 9574 3580 009B     		ldr	r3, [sp]
 9575 3582 1A70     		strb	r2, [r3]
 9576              		.loc 1 3281 0
 9577 3584 0123     		movs	r3, #1
 9578              	.L620:
 9579              		.loc 1 3282 0
 9580 3586 1846     		mov	r0, r3
 9581 3588 03B0     		add	sp, sp, #12
 9582              		@ sp needed
 9583 358a 5DF804FB 		ldr	pc, [sp], #4
 9584              		.cfi_endproc
 9585              	.LFE428:
 9586              		.size	LSM303AGR_ACC_R_Int2_Threshold, .-LSM303AGR_ACC_R_Int2_Threshold
 9587 358e 00BF     		.align	2
 9588              		.p2align 4,,15
 9589              		.global	LSM303AGR_ACC_W_Int1_Duration
 9590              		.thumb
 9591              		.thumb_func
 9592              		.type	LSM303AGR_ACC_W_Int1_Duration, %function
ARM GAS  /tmp/ccRrg1qB.s 			page 172


 9593              	LSM303AGR_ACC_W_Int1_Duration:
 9594              	.LFB429:
 9595              		.loc 1 3292 0
 9596              		.cfi_startproc
 9597              		@ args = 0, pretend = 0, frame = 16
 9598              		@ frame_needed = 0, uses_anonymous_args = 0
 9599 3590 00B5     		push	{lr}
 9600              		.cfi_def_cfa_offset 4
 9601              		.cfi_offset 14, -4
 9602 3592 85B0     		sub	sp, sp, #20
 9603              		.cfi_def_cfa_offset 24
 9604 3594 0190     		str	r0, [sp, #4]
 9605 3596 0B46     		mov	r3, r1
 9606 3598 8DF80330 		strb	r3, [sp, #3]
 9607              		.loc 1 3296 0
 9608 359c 9DF80330 		ldrb	r3, [sp, #3]
 9609 35a0 03F07F03 		and	r3, r3, #127
 9610 35a4 8DF80330 		strb	r3, [sp, #3]
 9611              		.loc 1 3298 0
 9612 35a8 0DF10F03 		add	r3, sp, #15
 9613 35ac 0198     		ldr	r0, [sp, #4]
 9614 35ae 3321     		movs	r1, #51
 9615 35b0 1A46     		mov	r2, r3
 9616 35b2 0123     		movs	r3, #1
 9617 35b4 FFF7FEFF 		bl	LSM303AGR_ACC_ReadReg
 9618 35b8 0346     		mov	r3, r0
 9619 35ba 002B     		cmp	r3, #0
 9620 35bc 01D1     		bne	.L622
 9621              		.loc 1 3299 0
 9622 35be 0023     		movs	r3, #0
 9623 35c0 1CE0     		b	.L625
 9624              	.L622:
 9625              		.loc 1 3301 0
 9626 35c2 9DF80F30 		ldrb	r3, [sp, #15]	@ zero_extendqisi2
 9627 35c6 23F07F03 		bic	r3, r3, #127
 9628 35ca DBB2     		uxtb	r3, r3
 9629 35cc 8DF80F30 		strb	r3, [sp, #15]
 9630              		.loc 1 3302 0
 9631 35d0 9DF80F20 		ldrb	r2, [sp, #15]	@ zero_extendqisi2
 9632 35d4 9DF80330 		ldrb	r3, [sp, #3]
 9633 35d8 1343     		orrs	r3, r3, r2
 9634 35da DBB2     		uxtb	r3, r3
 9635 35dc 8DF80F30 		strb	r3, [sp, #15]
 9636              		.loc 1 3304 0
 9637 35e0 0DF10F03 		add	r3, sp, #15
 9638 35e4 0198     		ldr	r0, [sp, #4]
 9639 35e6 3321     		movs	r1, #51
 9640 35e8 1A46     		mov	r2, r3
 9641 35ea 0123     		movs	r3, #1
 9642 35ec FFF7FEFF 		bl	LSM303AGR_ACC_WriteReg
 9643 35f0 0346     		mov	r3, r0
 9644 35f2 002B     		cmp	r3, #0
 9645 35f4 01D1     		bne	.L624
 9646              		.loc 1 3305 0
 9647 35f6 0023     		movs	r3, #0
 9648 35f8 00E0     		b	.L625
 9649              	.L624:
ARM GAS  /tmp/ccRrg1qB.s 			page 173


 9650              		.loc 1 3307 0
 9651 35fa 0123     		movs	r3, #1
 9652              	.L625:
 9653              		.loc 1 3308 0
 9654 35fc 1846     		mov	r0, r3
 9655 35fe 05B0     		add	sp, sp, #20
 9656              		@ sp needed
 9657 3600 5DF804FB 		ldr	pc, [sp], #4
 9658              		.cfi_endproc
 9659              	.LFE429:
 9660              		.size	LSM303AGR_ACC_W_Int1_Duration, .-LSM303AGR_ACC_W_Int1_Duration
 9661              		.align	2
 9662 3604 AFF30080 		.p2align 4,,15
 9662      AFF30080 
 9662      AFF30080 
 9663              		.global	LSM303AGR_ACC_R_Int1_Duration
 9664              		.thumb
 9665              		.thumb_func
 9666              		.type	LSM303AGR_ACC_R_Int1_Duration, %function
 9667              	LSM303AGR_ACC_R_Int1_Duration:
 9668              	.LFB430:
 9669              		.loc 1 3318 0
 9670              		.cfi_startproc
 9671              		@ args = 0, pretend = 0, frame = 8
 9672              		@ frame_needed = 0, uses_anonymous_args = 0
 9673 3610 00B5     		push	{lr}
 9674              		.cfi_def_cfa_offset 4
 9675              		.cfi_offset 14, -4
 9676 3612 83B0     		sub	sp, sp, #12
 9677              		.cfi_def_cfa_offset 16
 9678 3614 0190     		str	r0, [sp, #4]
 9679 3616 0091     		str	r1, [sp]
 9680              		.loc 1 3319 0
 9681 3618 0198     		ldr	r0, [sp, #4]
 9682 361a 3321     		movs	r1, #51
 9683 361c 009A     		ldr	r2, [sp]
 9684 361e 0123     		movs	r3, #1
 9685 3620 FFF7FEFF 		bl	LSM303AGR_ACC_ReadReg
 9686 3624 0346     		mov	r3, r0
 9687 3626 002B     		cmp	r3, #0
 9688 3628 01D1     		bne	.L627
 9689              		.loc 1 3320 0
 9690 362a 0023     		movs	r3, #0
 9691 362c 0BE0     		b	.L628
 9692              	.L627:
 9693              		.loc 1 3322 0
 9694 362e 009B     		ldr	r3, [sp]
 9695 3630 1B78     		ldrb	r3, [r3]	@ zero_extendqisi2
 9696 3632 03F07F03 		and	r3, r3, #127
 9697 3636 DAB2     		uxtb	r2, r3
 9698 3638 009B     		ldr	r3, [sp]
 9699 363a 1A70     		strb	r2, [r3]
 9700              		.loc 1 3323 0
 9701 363c 009B     		ldr	r3, [sp]
 9702 363e 1A78     		ldrb	r2, [r3]	@ zero_extendqisi2
 9703 3640 009B     		ldr	r3, [sp]
 9704 3642 1A70     		strb	r2, [r3]
ARM GAS  /tmp/ccRrg1qB.s 			page 174


 9705              		.loc 1 3325 0
 9706 3644 0123     		movs	r3, #1
 9707              	.L628:
 9708              		.loc 1 3326 0
 9709 3646 1846     		mov	r0, r3
 9710 3648 03B0     		add	sp, sp, #12
 9711              		@ sp needed
 9712 364a 5DF804FB 		ldr	pc, [sp], #4
 9713              		.cfi_endproc
 9714              	.LFE430:
 9715              		.size	LSM303AGR_ACC_R_Int1_Duration, .-LSM303AGR_ACC_R_Int1_Duration
 9716 364e 00BF     		.align	2
 9717              		.p2align 4,,15
 9718              		.global	LSM303AGR_ACC_W_Int2_Duration
 9719              		.thumb
 9720              		.thumb_func
 9721              		.type	LSM303AGR_ACC_W_Int2_Duration, %function
 9722              	LSM303AGR_ACC_W_Int2_Duration:
 9723              	.LFB431:
 9724              		.loc 1 3336 0
 9725              		.cfi_startproc
 9726              		@ args = 0, pretend = 0, frame = 16
 9727              		@ frame_needed = 0, uses_anonymous_args = 0
 9728 3650 00B5     		push	{lr}
 9729              		.cfi_def_cfa_offset 4
 9730              		.cfi_offset 14, -4
 9731 3652 85B0     		sub	sp, sp, #20
 9732              		.cfi_def_cfa_offset 24
 9733 3654 0190     		str	r0, [sp, #4]
 9734 3656 0B46     		mov	r3, r1
 9735 3658 8DF80330 		strb	r3, [sp, #3]
 9736              		.loc 1 3340 0
 9737 365c 9DF80330 		ldrb	r3, [sp, #3]
 9738 3660 03F07F03 		and	r3, r3, #127
 9739 3664 8DF80330 		strb	r3, [sp, #3]
 9740              		.loc 1 3342 0
 9741 3668 0DF10F03 		add	r3, sp, #15
 9742 366c 0198     		ldr	r0, [sp, #4]
 9743 366e 3721     		movs	r1, #55
 9744 3670 1A46     		mov	r2, r3
 9745 3672 0123     		movs	r3, #1
 9746 3674 FFF7FEFF 		bl	LSM303AGR_ACC_ReadReg
 9747 3678 0346     		mov	r3, r0
 9748 367a 002B     		cmp	r3, #0
 9749 367c 01D1     		bne	.L630
 9750              		.loc 1 3343 0
 9751 367e 0023     		movs	r3, #0
 9752 3680 1CE0     		b	.L633
 9753              	.L630:
 9754              		.loc 1 3345 0
 9755 3682 9DF80F30 		ldrb	r3, [sp, #15]	@ zero_extendqisi2
 9756 3686 23F07F03 		bic	r3, r3, #127
 9757 368a DBB2     		uxtb	r3, r3
 9758 368c 8DF80F30 		strb	r3, [sp, #15]
 9759              		.loc 1 3346 0
 9760 3690 9DF80F20 		ldrb	r2, [sp, #15]	@ zero_extendqisi2
 9761 3694 9DF80330 		ldrb	r3, [sp, #3]
ARM GAS  /tmp/ccRrg1qB.s 			page 175


 9762 3698 1343     		orrs	r3, r3, r2
 9763 369a DBB2     		uxtb	r3, r3
 9764 369c 8DF80F30 		strb	r3, [sp, #15]
 9765              		.loc 1 3348 0
 9766 36a0 0DF10F03 		add	r3, sp, #15
 9767 36a4 0198     		ldr	r0, [sp, #4]
 9768 36a6 3721     		movs	r1, #55
 9769 36a8 1A46     		mov	r2, r3
 9770 36aa 0123     		movs	r3, #1
 9771 36ac FFF7FEFF 		bl	LSM303AGR_ACC_WriteReg
 9772 36b0 0346     		mov	r3, r0
 9773 36b2 002B     		cmp	r3, #0
 9774 36b4 01D1     		bne	.L632
 9775              		.loc 1 3349 0
 9776 36b6 0023     		movs	r3, #0
 9777 36b8 00E0     		b	.L633
 9778              	.L632:
 9779              		.loc 1 3351 0
 9780 36ba 0123     		movs	r3, #1
 9781              	.L633:
 9782              		.loc 1 3352 0
 9783 36bc 1846     		mov	r0, r3
 9784 36be 05B0     		add	sp, sp, #20
 9785              		@ sp needed
 9786 36c0 5DF804FB 		ldr	pc, [sp], #4
 9787              		.cfi_endproc
 9788              	.LFE431:
 9789              		.size	LSM303AGR_ACC_W_Int2_Duration, .-LSM303AGR_ACC_W_Int2_Duration
 9790              		.align	2
 9791 36c4 AFF30080 		.p2align 4,,15
 9791      AFF30080 
 9791      AFF30080 
 9792              		.global	LSM303AGR_ACC_R_Int2_Duration
 9793              		.thumb
 9794              		.thumb_func
 9795              		.type	LSM303AGR_ACC_R_Int2_Duration, %function
 9796              	LSM303AGR_ACC_R_Int2_Duration:
 9797              	.LFB432:
 9798              		.loc 1 3362 0
 9799              		.cfi_startproc
 9800              		@ args = 0, pretend = 0, frame = 8
 9801              		@ frame_needed = 0, uses_anonymous_args = 0
 9802 36d0 00B5     		push	{lr}
 9803              		.cfi_def_cfa_offset 4
 9804              		.cfi_offset 14, -4
 9805 36d2 83B0     		sub	sp, sp, #12
 9806              		.cfi_def_cfa_offset 16
 9807 36d4 0190     		str	r0, [sp, #4]
 9808 36d6 0091     		str	r1, [sp]
 9809              		.loc 1 3363 0
 9810 36d8 0198     		ldr	r0, [sp, #4]
 9811 36da 3721     		movs	r1, #55
 9812 36dc 009A     		ldr	r2, [sp]
 9813 36de 0123     		movs	r3, #1
 9814 36e0 FFF7FEFF 		bl	LSM303AGR_ACC_ReadReg
 9815 36e4 0346     		mov	r3, r0
 9816 36e6 002B     		cmp	r3, #0
ARM GAS  /tmp/ccRrg1qB.s 			page 176


 9817 36e8 01D1     		bne	.L635
 9818              		.loc 1 3364 0
 9819 36ea 0023     		movs	r3, #0
 9820 36ec 0BE0     		b	.L636
 9821              	.L635:
 9822              		.loc 1 3366 0
 9823 36ee 009B     		ldr	r3, [sp]
 9824 36f0 1B78     		ldrb	r3, [r3]	@ zero_extendqisi2
 9825 36f2 03F07F03 		and	r3, r3, #127
 9826 36f6 DAB2     		uxtb	r2, r3
 9827 36f8 009B     		ldr	r3, [sp]
 9828 36fa 1A70     		strb	r2, [r3]
 9829              		.loc 1 3367 0
 9830 36fc 009B     		ldr	r3, [sp]
 9831 36fe 1A78     		ldrb	r2, [r3]	@ zero_extendqisi2
 9832 3700 009B     		ldr	r3, [sp]
 9833 3702 1A70     		strb	r2, [r3]
 9834              		.loc 1 3369 0
 9835 3704 0123     		movs	r3, #1
 9836              	.L636:
 9837              		.loc 1 3370 0
 9838 3706 1846     		mov	r0, r3
 9839 3708 03B0     		add	sp, sp, #12
 9840              		@ sp needed
 9841 370a 5DF804FB 		ldr	pc, [sp], #4
 9842              		.cfi_endproc
 9843              	.LFE432:
 9844              		.size	LSM303AGR_ACC_R_Int2_Duration, .-LSM303AGR_ACC_R_Int2_Duration
 9845 370e 00BF     		.align	2
 9846              		.p2align 4,,15
 9847              		.global	LSM303AGR_ACC_W_XSingle
 9848              		.thumb
 9849              		.thumb_func
 9850              		.type	LSM303AGR_ACC_W_XSingle, %function
 9851              	LSM303AGR_ACC_W_XSingle:
 9852              	.LFB433:
 9853              		.loc 1 3380 0
 9854              		.cfi_startproc
 9855              		@ args = 0, pretend = 0, frame = 16
 9856              		@ frame_needed = 0, uses_anonymous_args = 0
 9857 3710 00B5     		push	{lr}
 9858              		.cfi_def_cfa_offset 4
 9859              		.cfi_offset 14, -4
 9860 3712 85B0     		sub	sp, sp, #20
 9861              		.cfi_def_cfa_offset 24
 9862 3714 0190     		str	r0, [sp, #4]
 9863 3716 0B46     		mov	r3, r1
 9864 3718 8DF80330 		strb	r3, [sp, #3]
 9865              		.loc 1 3383 0
 9866 371c 0DF10F03 		add	r3, sp, #15
 9867 3720 0198     		ldr	r0, [sp, #4]
 9868 3722 3821     		movs	r1, #56
 9869 3724 1A46     		mov	r2, r3
 9870 3726 0123     		movs	r3, #1
 9871 3728 FFF7FEFF 		bl	LSM303AGR_ACC_ReadReg
 9872 372c 0346     		mov	r3, r0
 9873 372e 002B     		cmp	r3, #0
ARM GAS  /tmp/ccRrg1qB.s 			page 177


 9874 3730 01D1     		bne	.L638
 9875              		.loc 1 3384 0
 9876 3732 0023     		movs	r3, #0
 9877 3734 1CE0     		b	.L641
 9878              	.L638:
 9879              		.loc 1 3386 0
 9880 3736 9DF80F30 		ldrb	r3, [sp, #15]	@ zero_extendqisi2
 9881 373a 23F00103 		bic	r3, r3, #1
 9882 373e DBB2     		uxtb	r3, r3
 9883 3740 8DF80F30 		strb	r3, [sp, #15]
 9884              		.loc 1 3387 0
 9885 3744 9DF80F20 		ldrb	r2, [sp, #15]	@ zero_extendqisi2
 9886 3748 9DF80330 		ldrb	r3, [sp, #3]
 9887 374c 1343     		orrs	r3, r3, r2
 9888 374e DBB2     		uxtb	r3, r3
 9889 3750 8DF80F30 		strb	r3, [sp, #15]
 9890              		.loc 1 3389 0
 9891 3754 0DF10F03 		add	r3, sp, #15
 9892 3758 0198     		ldr	r0, [sp, #4]
 9893 375a 3821     		movs	r1, #56
 9894 375c 1A46     		mov	r2, r3
 9895 375e 0123     		movs	r3, #1
 9896 3760 FFF7FEFF 		bl	LSM303AGR_ACC_WriteReg
 9897 3764 0346     		mov	r3, r0
 9898 3766 002B     		cmp	r3, #0
 9899 3768 01D1     		bne	.L640
 9900              		.loc 1 3390 0
 9901 376a 0023     		movs	r3, #0
 9902 376c 00E0     		b	.L641
 9903              	.L640:
 9904              		.loc 1 3392 0
 9905 376e 0123     		movs	r3, #1
 9906              	.L641:
 9907              		.loc 1 3393 0
 9908 3770 1846     		mov	r0, r3
 9909 3772 05B0     		add	sp, sp, #20
 9910              		@ sp needed
 9911 3774 5DF804FB 		ldr	pc, [sp], #4
 9912              		.cfi_endproc
 9913              	.LFE433:
 9914              		.size	LSM303AGR_ACC_W_XSingle, .-LSM303AGR_ACC_W_XSingle
 9915              		.align	2
 9916 3778 AFF30080 		.p2align 4,,15
 9916      AFF30080 
 9917              		.global	LSM303AGR_ACC_R_XSingle
 9918              		.thumb
 9919              		.thumb_func
 9920              		.type	LSM303AGR_ACC_R_XSingle, %function
 9921              	LSM303AGR_ACC_R_XSingle:
 9922              	.LFB434:
 9923              		.loc 1 3403 0
 9924              		.cfi_startproc
 9925              		@ args = 0, pretend = 0, frame = 8
 9926              		@ frame_needed = 0, uses_anonymous_args = 0
 9927 3780 00B5     		push	{lr}
 9928              		.cfi_def_cfa_offset 4
 9929              		.cfi_offset 14, -4
ARM GAS  /tmp/ccRrg1qB.s 			page 178


 9930 3782 83B0     		sub	sp, sp, #12
 9931              		.cfi_def_cfa_offset 16
 9932 3784 0190     		str	r0, [sp, #4]
 9933 3786 0091     		str	r1, [sp]
 9934              		.loc 1 3404 0
 9935 3788 0198     		ldr	r0, [sp, #4]
 9936 378a 3821     		movs	r1, #56
 9937 378c 009A     		ldr	r2, [sp]
 9938 378e 0123     		movs	r3, #1
 9939 3790 FFF7FEFF 		bl	LSM303AGR_ACC_ReadReg
 9940 3794 0346     		mov	r3, r0
 9941 3796 002B     		cmp	r3, #0
 9942 3798 01D1     		bne	.L643
 9943              		.loc 1 3405 0
 9944 379a 0023     		movs	r3, #0
 9945 379c 07E0     		b	.L644
 9946              	.L643:
 9947              		.loc 1 3407 0
 9948 379e 009B     		ldr	r3, [sp]
 9949 37a0 1B78     		ldrb	r3, [r3]	@ zero_extendqisi2
 9950 37a2 03F00103 		and	r3, r3, #1
 9951 37a6 DAB2     		uxtb	r2, r3
 9952 37a8 009B     		ldr	r3, [sp]
 9953 37aa 1A70     		strb	r2, [r3]
 9954              		.loc 1 3409 0
 9955 37ac 0123     		movs	r3, #1
 9956              	.L644:
 9957              		.loc 1 3410 0
 9958 37ae 1846     		mov	r0, r3
 9959 37b0 03B0     		add	sp, sp, #12
 9960              		@ sp needed
 9961 37b2 5DF804FB 		ldr	pc, [sp], #4
 9962              		.cfi_endproc
 9963              	.LFE434:
 9964              		.size	LSM303AGR_ACC_R_XSingle, .-LSM303AGR_ACC_R_XSingle
 9965 37b6 00BF     		.align	2
 9966 37b8 AFF30080 		.p2align 4,,15
 9966      AFF30080 
 9967              		.global	LSM303AGR_ACC_W_XDouble
 9968              		.thumb
 9969              		.thumb_func
 9970              		.type	LSM303AGR_ACC_W_XDouble, %function
 9971              	LSM303AGR_ACC_W_XDouble:
 9972              	.LFB435:
 9973              		.loc 1 3420 0
 9974              		.cfi_startproc
 9975              		@ args = 0, pretend = 0, frame = 16
 9976              		@ frame_needed = 0, uses_anonymous_args = 0
 9977 37c0 00B5     		push	{lr}
 9978              		.cfi_def_cfa_offset 4
 9979              		.cfi_offset 14, -4
 9980 37c2 85B0     		sub	sp, sp, #20
 9981              		.cfi_def_cfa_offset 24
 9982 37c4 0190     		str	r0, [sp, #4]
 9983 37c6 0B46     		mov	r3, r1
 9984 37c8 8DF80330 		strb	r3, [sp, #3]
 9985              		.loc 1 3423 0
ARM GAS  /tmp/ccRrg1qB.s 			page 179


 9986 37cc 0DF10F03 		add	r3, sp, #15
 9987 37d0 0198     		ldr	r0, [sp, #4]
 9988 37d2 3821     		movs	r1, #56
 9989 37d4 1A46     		mov	r2, r3
 9990 37d6 0123     		movs	r3, #1
 9991 37d8 FFF7FEFF 		bl	LSM303AGR_ACC_ReadReg
 9992 37dc 0346     		mov	r3, r0
 9993 37de 002B     		cmp	r3, #0
 9994 37e0 01D1     		bne	.L646
 9995              		.loc 1 3424 0
 9996 37e2 0023     		movs	r3, #0
 9997 37e4 1CE0     		b	.L649
 9998              	.L646:
 9999              		.loc 1 3426 0
 10000 37e6 9DF80F30 		ldrb	r3, [sp, #15]	@ zero_extendqisi2
 10001 37ea 23F00203 		bic	r3, r3, #2
 10002 37ee DBB2     		uxtb	r3, r3
 10003 37f0 8DF80F30 		strb	r3, [sp, #15]
 10004              		.loc 1 3427 0
 10005 37f4 9DF80F20 		ldrb	r2, [sp, #15]	@ zero_extendqisi2
 10006 37f8 9DF80330 		ldrb	r3, [sp, #3]
 10007 37fc 1343     		orrs	r3, r3, r2
 10008 37fe DBB2     		uxtb	r3, r3
 10009 3800 8DF80F30 		strb	r3, [sp, #15]
 10010              		.loc 1 3429 0
 10011 3804 0DF10F03 		add	r3, sp, #15
 10012 3808 0198     		ldr	r0, [sp, #4]
 10013 380a 3821     		movs	r1, #56
 10014 380c 1A46     		mov	r2, r3
 10015 380e 0123     		movs	r3, #1
 10016 3810 FFF7FEFF 		bl	LSM303AGR_ACC_WriteReg
 10017 3814 0346     		mov	r3, r0
 10018 3816 002B     		cmp	r3, #0
 10019 3818 01D1     		bne	.L648
 10020              		.loc 1 3430 0
 10021 381a 0023     		movs	r3, #0
 10022 381c 00E0     		b	.L649
 10023              	.L648:
 10024              		.loc 1 3432 0
 10025 381e 0123     		movs	r3, #1
 10026              	.L649:
 10027              		.loc 1 3433 0
 10028 3820 1846     		mov	r0, r3
 10029 3822 05B0     		add	sp, sp, #20
 10030              		@ sp needed
 10031 3824 5DF804FB 		ldr	pc, [sp], #4
 10032              		.cfi_endproc
 10033              	.LFE435:
 10034              		.size	LSM303AGR_ACC_W_XDouble, .-LSM303AGR_ACC_W_XDouble
 10035              		.align	2
 10036 3828 AFF30080 		.p2align 4,,15
 10036      AFF30080 
 10037              		.global	LSM303AGR_ACC_R_XDouble
 10038              		.thumb
 10039              		.thumb_func
 10040              		.type	LSM303AGR_ACC_R_XDouble, %function
 10041              	LSM303AGR_ACC_R_XDouble:
ARM GAS  /tmp/ccRrg1qB.s 			page 180


 10042              	.LFB436:
 10043              		.loc 1 3443 0
 10044              		.cfi_startproc
 10045              		@ args = 0, pretend = 0, frame = 8
 10046              		@ frame_needed = 0, uses_anonymous_args = 0
 10047 3830 00B5     		push	{lr}
 10048              		.cfi_def_cfa_offset 4
 10049              		.cfi_offset 14, -4
 10050 3832 83B0     		sub	sp, sp, #12
 10051              		.cfi_def_cfa_offset 16
 10052 3834 0190     		str	r0, [sp, #4]
 10053 3836 0091     		str	r1, [sp]
 10054              		.loc 1 3444 0
 10055 3838 0198     		ldr	r0, [sp, #4]
 10056 383a 3821     		movs	r1, #56
 10057 383c 009A     		ldr	r2, [sp]
 10058 383e 0123     		movs	r3, #1
 10059 3840 FFF7FEFF 		bl	LSM303AGR_ACC_ReadReg
 10060 3844 0346     		mov	r3, r0
 10061 3846 002B     		cmp	r3, #0
 10062 3848 01D1     		bne	.L651
 10063              		.loc 1 3445 0
 10064 384a 0023     		movs	r3, #0
 10065 384c 07E0     		b	.L652
 10066              	.L651:
 10067              		.loc 1 3447 0
 10068 384e 009B     		ldr	r3, [sp]
 10069 3850 1B78     		ldrb	r3, [r3]	@ zero_extendqisi2
 10070 3852 03F00203 		and	r3, r3, #2
 10071 3856 DAB2     		uxtb	r2, r3
 10072 3858 009B     		ldr	r3, [sp]
 10073 385a 1A70     		strb	r2, [r3]
 10074              		.loc 1 3449 0
 10075 385c 0123     		movs	r3, #1
 10076              	.L652:
 10077              		.loc 1 3450 0
 10078 385e 1846     		mov	r0, r3
 10079 3860 03B0     		add	sp, sp, #12
 10080              		@ sp needed
 10081 3862 5DF804FB 		ldr	pc, [sp], #4
 10082              		.cfi_endproc
 10083              	.LFE436:
 10084              		.size	LSM303AGR_ACC_R_XDouble, .-LSM303AGR_ACC_R_XDouble
 10085 3866 00BF     		.align	2
 10086 3868 AFF30080 		.p2align 4,,15
 10086      AFF30080 
 10087              		.global	LSM303AGR_ACC_W_YSingle
 10088              		.thumb
 10089              		.thumb_func
 10090              		.type	LSM303AGR_ACC_W_YSingle, %function
 10091              	LSM303AGR_ACC_W_YSingle:
 10092              	.LFB437:
 10093              		.loc 1 3460 0
 10094              		.cfi_startproc
 10095              		@ args = 0, pretend = 0, frame = 16
 10096              		@ frame_needed = 0, uses_anonymous_args = 0
 10097 3870 00B5     		push	{lr}
ARM GAS  /tmp/ccRrg1qB.s 			page 181


 10098              		.cfi_def_cfa_offset 4
 10099              		.cfi_offset 14, -4
 10100 3872 85B0     		sub	sp, sp, #20
 10101              		.cfi_def_cfa_offset 24
 10102 3874 0190     		str	r0, [sp, #4]
 10103 3876 0B46     		mov	r3, r1
 10104 3878 8DF80330 		strb	r3, [sp, #3]
 10105              		.loc 1 3463 0
 10106 387c 0DF10F03 		add	r3, sp, #15
 10107 3880 0198     		ldr	r0, [sp, #4]
 10108 3882 3821     		movs	r1, #56
 10109 3884 1A46     		mov	r2, r3
 10110 3886 0123     		movs	r3, #1
 10111 3888 FFF7FEFF 		bl	LSM303AGR_ACC_ReadReg
 10112 388c 0346     		mov	r3, r0
 10113 388e 002B     		cmp	r3, #0
 10114 3890 01D1     		bne	.L654
 10115              		.loc 1 3464 0
 10116 3892 0023     		movs	r3, #0
 10117 3894 1CE0     		b	.L657
 10118              	.L654:
 10119              		.loc 1 3466 0
 10120 3896 9DF80F30 		ldrb	r3, [sp, #15]	@ zero_extendqisi2
 10121 389a 23F00403 		bic	r3, r3, #4
 10122 389e DBB2     		uxtb	r3, r3
 10123 38a0 8DF80F30 		strb	r3, [sp, #15]
 10124              		.loc 1 3467 0
 10125 38a4 9DF80F20 		ldrb	r2, [sp, #15]	@ zero_extendqisi2
 10126 38a8 9DF80330 		ldrb	r3, [sp, #3]
 10127 38ac 1343     		orrs	r3, r3, r2
 10128 38ae DBB2     		uxtb	r3, r3
 10129 38b0 8DF80F30 		strb	r3, [sp, #15]
 10130              		.loc 1 3469 0
 10131 38b4 0DF10F03 		add	r3, sp, #15
 10132 38b8 0198     		ldr	r0, [sp, #4]
 10133 38ba 3821     		movs	r1, #56
 10134 38bc 1A46     		mov	r2, r3
 10135 38be 0123     		movs	r3, #1
 10136 38c0 FFF7FEFF 		bl	LSM303AGR_ACC_WriteReg
 10137 38c4 0346     		mov	r3, r0
 10138 38c6 002B     		cmp	r3, #0
 10139 38c8 01D1     		bne	.L656
 10140              		.loc 1 3470 0
 10141 38ca 0023     		movs	r3, #0
 10142 38cc 00E0     		b	.L657
 10143              	.L656:
 10144              		.loc 1 3472 0
 10145 38ce 0123     		movs	r3, #1
 10146              	.L657:
 10147              		.loc 1 3473 0
 10148 38d0 1846     		mov	r0, r3
 10149 38d2 05B0     		add	sp, sp, #20
 10150              		@ sp needed
 10151 38d4 5DF804FB 		ldr	pc, [sp], #4
 10152              		.cfi_endproc
 10153              	.LFE437:
 10154              		.size	LSM303AGR_ACC_W_YSingle, .-LSM303AGR_ACC_W_YSingle
ARM GAS  /tmp/ccRrg1qB.s 			page 182


 10155              		.align	2
 10156 38d8 AFF30080 		.p2align 4,,15
 10156      AFF30080 
 10157              		.global	LSM303AGR_ACC_R_YSingle
 10158              		.thumb
 10159              		.thumb_func
 10160              		.type	LSM303AGR_ACC_R_YSingle, %function
 10161              	LSM303AGR_ACC_R_YSingle:
 10162              	.LFB438:
 10163              		.loc 1 3483 0
 10164              		.cfi_startproc
 10165              		@ args = 0, pretend = 0, frame = 8
 10166              		@ frame_needed = 0, uses_anonymous_args = 0
 10167 38e0 00B5     		push	{lr}
 10168              		.cfi_def_cfa_offset 4
 10169              		.cfi_offset 14, -4
 10170 38e2 83B0     		sub	sp, sp, #12
 10171              		.cfi_def_cfa_offset 16
 10172 38e4 0190     		str	r0, [sp, #4]
 10173 38e6 0091     		str	r1, [sp]
 10174              		.loc 1 3484 0
 10175 38e8 0198     		ldr	r0, [sp, #4]
 10176 38ea 3821     		movs	r1, #56
 10177 38ec 009A     		ldr	r2, [sp]
 10178 38ee 0123     		movs	r3, #1
 10179 38f0 FFF7FEFF 		bl	LSM303AGR_ACC_ReadReg
 10180 38f4 0346     		mov	r3, r0
 10181 38f6 002B     		cmp	r3, #0
 10182 38f8 01D1     		bne	.L659
 10183              		.loc 1 3485 0
 10184 38fa 0023     		movs	r3, #0
 10185 38fc 07E0     		b	.L660
 10186              	.L659:
 10187              		.loc 1 3487 0
 10188 38fe 009B     		ldr	r3, [sp]
 10189 3900 1B78     		ldrb	r3, [r3]	@ zero_extendqisi2
 10190 3902 03F00403 		and	r3, r3, #4
 10191 3906 DAB2     		uxtb	r2, r3
 10192 3908 009B     		ldr	r3, [sp]
 10193 390a 1A70     		strb	r2, [r3]
 10194              		.loc 1 3489 0
 10195 390c 0123     		movs	r3, #1
 10196              	.L660:
 10197              		.loc 1 3490 0
 10198 390e 1846     		mov	r0, r3
 10199 3910 03B0     		add	sp, sp, #12
 10200              		@ sp needed
 10201 3912 5DF804FB 		ldr	pc, [sp], #4
 10202              		.cfi_endproc
 10203              	.LFE438:
 10204              		.size	LSM303AGR_ACC_R_YSingle, .-LSM303AGR_ACC_R_YSingle
 10205 3916 00BF     		.align	2
 10206 3918 AFF30080 		.p2align 4,,15
 10206      AFF30080 
 10207              		.global	LSM303AGR_ACC_W_YDouble
 10208              		.thumb
 10209              		.thumb_func
ARM GAS  /tmp/ccRrg1qB.s 			page 183


 10210              		.type	LSM303AGR_ACC_W_YDouble, %function
 10211              	LSM303AGR_ACC_W_YDouble:
 10212              	.LFB439:
 10213              		.loc 1 3500 0
 10214              		.cfi_startproc
 10215              		@ args = 0, pretend = 0, frame = 16
 10216              		@ frame_needed = 0, uses_anonymous_args = 0
 10217 3920 00B5     		push	{lr}
 10218              		.cfi_def_cfa_offset 4
 10219              		.cfi_offset 14, -4
 10220 3922 85B0     		sub	sp, sp, #20
 10221              		.cfi_def_cfa_offset 24
 10222 3924 0190     		str	r0, [sp, #4]
 10223 3926 0B46     		mov	r3, r1
 10224 3928 8DF80330 		strb	r3, [sp, #3]
 10225              		.loc 1 3503 0
 10226 392c 0DF10F03 		add	r3, sp, #15
 10227 3930 0198     		ldr	r0, [sp, #4]
 10228 3932 3821     		movs	r1, #56
 10229 3934 1A46     		mov	r2, r3
 10230 3936 0123     		movs	r3, #1
 10231 3938 FFF7FEFF 		bl	LSM303AGR_ACC_ReadReg
 10232 393c 0346     		mov	r3, r0
 10233 393e 002B     		cmp	r3, #0
 10234 3940 01D1     		bne	.L662
 10235              		.loc 1 3504 0
 10236 3942 0023     		movs	r3, #0
 10237 3944 1CE0     		b	.L665
 10238              	.L662:
 10239              		.loc 1 3506 0
 10240 3946 9DF80F30 		ldrb	r3, [sp, #15]	@ zero_extendqisi2
 10241 394a 23F00803 		bic	r3, r3, #8
 10242 394e DBB2     		uxtb	r3, r3
 10243 3950 8DF80F30 		strb	r3, [sp, #15]
 10244              		.loc 1 3507 0
 10245 3954 9DF80F20 		ldrb	r2, [sp, #15]	@ zero_extendqisi2
 10246 3958 9DF80330 		ldrb	r3, [sp, #3]
 10247 395c 1343     		orrs	r3, r3, r2
 10248 395e DBB2     		uxtb	r3, r3
 10249 3960 8DF80F30 		strb	r3, [sp, #15]
 10250              		.loc 1 3509 0
 10251 3964 0DF10F03 		add	r3, sp, #15
 10252 3968 0198     		ldr	r0, [sp, #4]
 10253 396a 3821     		movs	r1, #56
 10254 396c 1A46     		mov	r2, r3
 10255 396e 0123     		movs	r3, #1
 10256 3970 FFF7FEFF 		bl	LSM303AGR_ACC_WriteReg
 10257 3974 0346     		mov	r3, r0
 10258 3976 002B     		cmp	r3, #0
 10259 3978 01D1     		bne	.L664
 10260              		.loc 1 3510 0
 10261 397a 0023     		movs	r3, #0
 10262 397c 00E0     		b	.L665
 10263              	.L664:
 10264              		.loc 1 3512 0
 10265 397e 0123     		movs	r3, #1
 10266              	.L665:
ARM GAS  /tmp/ccRrg1qB.s 			page 184


 10267              		.loc 1 3513 0
 10268 3980 1846     		mov	r0, r3
 10269 3982 05B0     		add	sp, sp, #20
 10270              		@ sp needed
 10271 3984 5DF804FB 		ldr	pc, [sp], #4
 10272              		.cfi_endproc
 10273              	.LFE439:
 10274              		.size	LSM303AGR_ACC_W_YDouble, .-LSM303AGR_ACC_W_YDouble
 10275              		.align	2
 10276 3988 AFF30080 		.p2align 4,,15
 10276      AFF30080 
 10277              		.global	LSM303AGR_ACC_R_YDouble
 10278              		.thumb
 10279              		.thumb_func
 10280              		.type	LSM303AGR_ACC_R_YDouble, %function
 10281              	LSM303AGR_ACC_R_YDouble:
 10282              	.LFB440:
 10283              		.loc 1 3523 0
 10284              		.cfi_startproc
 10285              		@ args = 0, pretend = 0, frame = 8
 10286              		@ frame_needed = 0, uses_anonymous_args = 0
 10287 3990 00B5     		push	{lr}
 10288              		.cfi_def_cfa_offset 4
 10289              		.cfi_offset 14, -4
 10290 3992 83B0     		sub	sp, sp, #12
 10291              		.cfi_def_cfa_offset 16
 10292 3994 0190     		str	r0, [sp, #4]
 10293 3996 0091     		str	r1, [sp]
 10294              		.loc 1 3524 0
 10295 3998 0198     		ldr	r0, [sp, #4]
 10296 399a 3821     		movs	r1, #56
 10297 399c 009A     		ldr	r2, [sp]
 10298 399e 0123     		movs	r3, #1
 10299 39a0 FFF7FEFF 		bl	LSM303AGR_ACC_ReadReg
 10300 39a4 0346     		mov	r3, r0
 10301 39a6 002B     		cmp	r3, #0
 10302 39a8 01D1     		bne	.L667
 10303              		.loc 1 3525 0
 10304 39aa 0023     		movs	r3, #0
 10305 39ac 07E0     		b	.L668
 10306              	.L667:
 10307              		.loc 1 3527 0
 10308 39ae 009B     		ldr	r3, [sp]
 10309 39b0 1B78     		ldrb	r3, [r3]	@ zero_extendqisi2
 10310 39b2 03F00803 		and	r3, r3, #8
 10311 39b6 DAB2     		uxtb	r2, r3
 10312 39b8 009B     		ldr	r3, [sp]
 10313 39ba 1A70     		strb	r2, [r3]
 10314              		.loc 1 3529 0
 10315 39bc 0123     		movs	r3, #1
 10316              	.L668:
 10317              		.loc 1 3530 0
 10318 39be 1846     		mov	r0, r3
 10319 39c0 03B0     		add	sp, sp, #12
 10320              		@ sp needed
 10321 39c2 5DF804FB 		ldr	pc, [sp], #4
 10322              		.cfi_endproc
ARM GAS  /tmp/ccRrg1qB.s 			page 185


 10323              	.LFE440:
 10324              		.size	LSM303AGR_ACC_R_YDouble, .-LSM303AGR_ACC_R_YDouble
 10325 39c6 00BF     		.align	2
 10326 39c8 AFF30080 		.p2align 4,,15
 10326      AFF30080 
 10327              		.global	LSM303AGR_ACC_W_ZSingle
 10328              		.thumb
 10329              		.thumb_func
 10330              		.type	LSM303AGR_ACC_W_ZSingle, %function
 10331              	LSM303AGR_ACC_W_ZSingle:
 10332              	.LFB441:
 10333              		.loc 1 3540 0
 10334              		.cfi_startproc
 10335              		@ args = 0, pretend = 0, frame = 16
 10336              		@ frame_needed = 0, uses_anonymous_args = 0
 10337 39d0 00B5     		push	{lr}
 10338              		.cfi_def_cfa_offset 4
 10339              		.cfi_offset 14, -4
 10340 39d2 85B0     		sub	sp, sp, #20
 10341              		.cfi_def_cfa_offset 24
 10342 39d4 0190     		str	r0, [sp, #4]
 10343 39d6 0B46     		mov	r3, r1
 10344 39d8 8DF80330 		strb	r3, [sp, #3]
 10345              		.loc 1 3543 0
 10346 39dc 0DF10F03 		add	r3, sp, #15
 10347 39e0 0198     		ldr	r0, [sp, #4]
 10348 39e2 3821     		movs	r1, #56
 10349 39e4 1A46     		mov	r2, r3
 10350 39e6 0123     		movs	r3, #1
 10351 39e8 FFF7FEFF 		bl	LSM303AGR_ACC_ReadReg
 10352 39ec 0346     		mov	r3, r0
 10353 39ee 002B     		cmp	r3, #0
 10354 39f0 01D1     		bne	.L670
 10355              		.loc 1 3544 0
 10356 39f2 0023     		movs	r3, #0
 10357 39f4 1CE0     		b	.L673
 10358              	.L670:
 10359              		.loc 1 3546 0
 10360 39f6 9DF80F30 		ldrb	r3, [sp, #15]	@ zero_extendqisi2
 10361 39fa 23F01003 		bic	r3, r3, #16
 10362 39fe DBB2     		uxtb	r3, r3
 10363 3a00 8DF80F30 		strb	r3, [sp, #15]
 10364              		.loc 1 3547 0
 10365 3a04 9DF80F20 		ldrb	r2, [sp, #15]	@ zero_extendqisi2
 10366 3a08 9DF80330 		ldrb	r3, [sp, #3]
 10367 3a0c 1343     		orrs	r3, r3, r2
 10368 3a0e DBB2     		uxtb	r3, r3
 10369 3a10 8DF80F30 		strb	r3, [sp, #15]
 10370              		.loc 1 3549 0
 10371 3a14 0DF10F03 		add	r3, sp, #15
 10372 3a18 0198     		ldr	r0, [sp, #4]
 10373 3a1a 3821     		movs	r1, #56
 10374 3a1c 1A46     		mov	r2, r3
 10375 3a1e 0123     		movs	r3, #1
 10376 3a20 FFF7FEFF 		bl	LSM303AGR_ACC_WriteReg
 10377 3a24 0346     		mov	r3, r0
 10378 3a26 002B     		cmp	r3, #0
ARM GAS  /tmp/ccRrg1qB.s 			page 186


 10379 3a28 01D1     		bne	.L672
 10380              		.loc 1 3550 0
 10381 3a2a 0023     		movs	r3, #0
 10382 3a2c 00E0     		b	.L673
 10383              	.L672:
 10384              		.loc 1 3552 0
 10385 3a2e 0123     		movs	r3, #1
 10386              	.L673:
 10387              		.loc 1 3553 0
 10388 3a30 1846     		mov	r0, r3
 10389 3a32 05B0     		add	sp, sp, #20
 10390              		@ sp needed
 10391 3a34 5DF804FB 		ldr	pc, [sp], #4
 10392              		.cfi_endproc
 10393              	.LFE441:
 10394              		.size	LSM303AGR_ACC_W_ZSingle, .-LSM303AGR_ACC_W_ZSingle
 10395              		.align	2
 10396 3a38 AFF30080 		.p2align 4,,15
 10396      AFF30080 
 10397              		.global	LSM303AGR_ACC_R_ZSingle
 10398              		.thumb
 10399              		.thumb_func
 10400              		.type	LSM303AGR_ACC_R_ZSingle, %function
 10401              	LSM303AGR_ACC_R_ZSingle:
 10402              	.LFB442:
 10403              		.loc 1 3563 0
 10404              		.cfi_startproc
 10405              		@ args = 0, pretend = 0, frame = 8
 10406              		@ frame_needed = 0, uses_anonymous_args = 0
 10407 3a40 00B5     		push	{lr}
 10408              		.cfi_def_cfa_offset 4
 10409              		.cfi_offset 14, -4
 10410 3a42 83B0     		sub	sp, sp, #12
 10411              		.cfi_def_cfa_offset 16
 10412 3a44 0190     		str	r0, [sp, #4]
 10413 3a46 0091     		str	r1, [sp]
 10414              		.loc 1 3564 0
 10415 3a48 0198     		ldr	r0, [sp, #4]
 10416 3a4a 3821     		movs	r1, #56
 10417 3a4c 009A     		ldr	r2, [sp]
 10418 3a4e 0123     		movs	r3, #1
 10419 3a50 FFF7FEFF 		bl	LSM303AGR_ACC_ReadReg
 10420 3a54 0346     		mov	r3, r0
 10421 3a56 002B     		cmp	r3, #0
 10422 3a58 01D1     		bne	.L675
 10423              		.loc 1 3565 0
 10424 3a5a 0023     		movs	r3, #0
 10425 3a5c 07E0     		b	.L676
 10426              	.L675:
 10427              		.loc 1 3567 0
 10428 3a5e 009B     		ldr	r3, [sp]
 10429 3a60 1B78     		ldrb	r3, [r3]	@ zero_extendqisi2
 10430 3a62 03F01003 		and	r3, r3, #16
 10431 3a66 DAB2     		uxtb	r2, r3
 10432 3a68 009B     		ldr	r3, [sp]
 10433 3a6a 1A70     		strb	r2, [r3]
 10434              		.loc 1 3569 0
ARM GAS  /tmp/ccRrg1qB.s 			page 187


 10435 3a6c 0123     		movs	r3, #1
 10436              	.L676:
 10437              		.loc 1 3570 0
 10438 3a6e 1846     		mov	r0, r3
 10439 3a70 03B0     		add	sp, sp, #12
 10440              		@ sp needed
 10441 3a72 5DF804FB 		ldr	pc, [sp], #4
 10442              		.cfi_endproc
 10443              	.LFE442:
 10444              		.size	LSM303AGR_ACC_R_ZSingle, .-LSM303AGR_ACC_R_ZSingle
 10445 3a76 00BF     		.align	2
 10446 3a78 AFF30080 		.p2align 4,,15
 10446      AFF30080 
 10447              		.global	LSM303AGR_ACC_W_ZDouble
 10448              		.thumb
 10449              		.thumb_func
 10450              		.type	LSM303AGR_ACC_W_ZDouble, %function
 10451              	LSM303AGR_ACC_W_ZDouble:
 10452              	.LFB443:
 10453              		.loc 1 3580 0
 10454              		.cfi_startproc
 10455              		@ args = 0, pretend = 0, frame = 16
 10456              		@ frame_needed = 0, uses_anonymous_args = 0
 10457 3a80 00B5     		push	{lr}
 10458              		.cfi_def_cfa_offset 4
 10459              		.cfi_offset 14, -4
 10460 3a82 85B0     		sub	sp, sp, #20
 10461              		.cfi_def_cfa_offset 24
 10462 3a84 0190     		str	r0, [sp, #4]
 10463 3a86 0B46     		mov	r3, r1
 10464 3a88 8DF80330 		strb	r3, [sp, #3]
 10465              		.loc 1 3583 0
 10466 3a8c 0DF10F03 		add	r3, sp, #15
 10467 3a90 0198     		ldr	r0, [sp, #4]
 10468 3a92 3821     		movs	r1, #56
 10469 3a94 1A46     		mov	r2, r3
 10470 3a96 0123     		movs	r3, #1
 10471 3a98 FFF7FEFF 		bl	LSM303AGR_ACC_ReadReg
 10472 3a9c 0346     		mov	r3, r0
 10473 3a9e 002B     		cmp	r3, #0
 10474 3aa0 01D1     		bne	.L678
 10475              		.loc 1 3584 0
 10476 3aa2 0023     		movs	r3, #0
 10477 3aa4 1CE0     		b	.L681
 10478              	.L678:
 10479              		.loc 1 3586 0
 10480 3aa6 9DF80F30 		ldrb	r3, [sp, #15]	@ zero_extendqisi2
 10481 3aaa 23F02003 		bic	r3, r3, #32
 10482 3aae DBB2     		uxtb	r3, r3
 10483 3ab0 8DF80F30 		strb	r3, [sp, #15]
 10484              		.loc 1 3587 0
 10485 3ab4 9DF80F20 		ldrb	r2, [sp, #15]	@ zero_extendqisi2
 10486 3ab8 9DF80330 		ldrb	r3, [sp, #3]
 10487 3abc 1343     		orrs	r3, r3, r2
 10488 3abe DBB2     		uxtb	r3, r3
 10489 3ac0 8DF80F30 		strb	r3, [sp, #15]
 10490              		.loc 1 3589 0
ARM GAS  /tmp/ccRrg1qB.s 			page 188


 10491 3ac4 0DF10F03 		add	r3, sp, #15
 10492 3ac8 0198     		ldr	r0, [sp, #4]
 10493 3aca 3821     		movs	r1, #56
 10494 3acc 1A46     		mov	r2, r3
 10495 3ace 0123     		movs	r3, #1
 10496 3ad0 FFF7FEFF 		bl	LSM303AGR_ACC_WriteReg
 10497 3ad4 0346     		mov	r3, r0
 10498 3ad6 002B     		cmp	r3, #0
 10499 3ad8 01D1     		bne	.L680
 10500              		.loc 1 3590 0
 10501 3ada 0023     		movs	r3, #0
 10502 3adc 00E0     		b	.L681
 10503              	.L680:
 10504              		.loc 1 3592 0
 10505 3ade 0123     		movs	r3, #1
 10506              	.L681:
 10507              		.loc 1 3593 0
 10508 3ae0 1846     		mov	r0, r3
 10509 3ae2 05B0     		add	sp, sp, #20
 10510              		@ sp needed
 10511 3ae4 5DF804FB 		ldr	pc, [sp], #4
 10512              		.cfi_endproc
 10513              	.LFE443:
 10514              		.size	LSM303AGR_ACC_W_ZDouble, .-LSM303AGR_ACC_W_ZDouble
 10515              		.align	2
 10516 3ae8 AFF30080 		.p2align 4,,15
 10516      AFF30080 
 10517              		.global	LSM303AGR_ACC_R_ZDouble
 10518              		.thumb
 10519              		.thumb_func
 10520              		.type	LSM303AGR_ACC_R_ZDouble, %function
 10521              	LSM303AGR_ACC_R_ZDouble:
 10522              	.LFB444:
 10523              		.loc 1 3603 0
 10524              		.cfi_startproc
 10525              		@ args = 0, pretend = 0, frame = 8
 10526              		@ frame_needed = 0, uses_anonymous_args = 0
 10527 3af0 00B5     		push	{lr}
 10528              		.cfi_def_cfa_offset 4
 10529              		.cfi_offset 14, -4
 10530 3af2 83B0     		sub	sp, sp, #12
 10531              		.cfi_def_cfa_offset 16
 10532 3af4 0190     		str	r0, [sp, #4]
 10533 3af6 0091     		str	r1, [sp]
 10534              		.loc 1 3604 0
 10535 3af8 0198     		ldr	r0, [sp, #4]
 10536 3afa 3821     		movs	r1, #56
 10537 3afc 009A     		ldr	r2, [sp]
 10538 3afe 0123     		movs	r3, #1
 10539 3b00 FFF7FEFF 		bl	LSM303AGR_ACC_ReadReg
 10540 3b04 0346     		mov	r3, r0
 10541 3b06 002B     		cmp	r3, #0
 10542 3b08 01D1     		bne	.L683
 10543              		.loc 1 3605 0
 10544 3b0a 0023     		movs	r3, #0
 10545 3b0c 07E0     		b	.L684
 10546              	.L683:
ARM GAS  /tmp/ccRrg1qB.s 			page 189


 10547              		.loc 1 3607 0
 10548 3b0e 009B     		ldr	r3, [sp]
 10549 3b10 1B78     		ldrb	r3, [r3]	@ zero_extendqisi2
 10550 3b12 03F02003 		and	r3, r3, #32
 10551 3b16 DAB2     		uxtb	r2, r3
 10552 3b18 009B     		ldr	r3, [sp]
 10553 3b1a 1A70     		strb	r2, [r3]
 10554              		.loc 1 3609 0
 10555 3b1c 0123     		movs	r3, #1
 10556              	.L684:
 10557              		.loc 1 3610 0
 10558 3b1e 1846     		mov	r0, r3
 10559 3b20 03B0     		add	sp, sp, #12
 10560              		@ sp needed
 10561 3b22 5DF804FB 		ldr	pc, [sp], #4
 10562              		.cfi_endproc
 10563              	.LFE444:
 10564              		.size	LSM303AGR_ACC_R_ZDouble, .-LSM303AGR_ACC_R_ZDouble
 10565 3b26 00BF     		.align	2
 10566 3b28 AFF30080 		.p2align 4,,15
 10566      AFF30080 
 10567              		.global	LSM303AGR_ACC_R_ClickX
 10568              		.thumb
 10569              		.thumb_func
 10570              		.type	LSM303AGR_ACC_R_ClickX, %function
 10571              	LSM303AGR_ACC_R_ClickX:
 10572              	.LFB445:
 10573              		.loc 1 3620 0
 10574              		.cfi_startproc
 10575              		@ args = 0, pretend = 0, frame = 8
 10576              		@ frame_needed = 0, uses_anonymous_args = 0
 10577 3b30 00B5     		push	{lr}
 10578              		.cfi_def_cfa_offset 4
 10579              		.cfi_offset 14, -4
 10580 3b32 83B0     		sub	sp, sp, #12
 10581              		.cfi_def_cfa_offset 16
 10582 3b34 0190     		str	r0, [sp, #4]
 10583 3b36 0091     		str	r1, [sp]
 10584              		.loc 1 3621 0
 10585 3b38 0198     		ldr	r0, [sp, #4]
 10586 3b3a 3921     		movs	r1, #57
 10587 3b3c 009A     		ldr	r2, [sp]
 10588 3b3e 0123     		movs	r3, #1
 10589 3b40 FFF7FEFF 		bl	LSM303AGR_ACC_ReadReg
 10590 3b44 0346     		mov	r3, r0
 10591 3b46 002B     		cmp	r3, #0
 10592 3b48 01D1     		bne	.L686
 10593              		.loc 1 3622 0
 10594 3b4a 0023     		movs	r3, #0
 10595 3b4c 07E0     		b	.L687
 10596              	.L686:
 10597              		.loc 1 3624 0
 10598 3b4e 009B     		ldr	r3, [sp]
 10599 3b50 1B78     		ldrb	r3, [r3]	@ zero_extendqisi2
 10600 3b52 03F00103 		and	r3, r3, #1
 10601 3b56 DAB2     		uxtb	r2, r3
 10602 3b58 009B     		ldr	r3, [sp]
ARM GAS  /tmp/ccRrg1qB.s 			page 190


 10603 3b5a 1A70     		strb	r2, [r3]
 10604              		.loc 1 3626 0
 10605 3b5c 0123     		movs	r3, #1
 10606              	.L687:
 10607              		.loc 1 3627 0
 10608 3b5e 1846     		mov	r0, r3
 10609 3b60 03B0     		add	sp, sp, #12
 10610              		@ sp needed
 10611 3b62 5DF804FB 		ldr	pc, [sp], #4
 10612              		.cfi_endproc
 10613              	.LFE445:
 10614              		.size	LSM303AGR_ACC_R_ClickX, .-LSM303AGR_ACC_R_ClickX
 10615 3b66 00BF     		.align	2
 10616 3b68 AFF30080 		.p2align 4,,15
 10616      AFF30080 
 10617              		.global	LSM303AGR_ACC_R_ClickY
 10618              		.thumb
 10619              		.thumb_func
 10620              		.type	LSM303AGR_ACC_R_ClickY, %function
 10621              	LSM303AGR_ACC_R_ClickY:
 10622              	.LFB446:
 10623              		.loc 1 3637 0
 10624              		.cfi_startproc
 10625              		@ args = 0, pretend = 0, frame = 8
 10626              		@ frame_needed = 0, uses_anonymous_args = 0
 10627 3b70 00B5     		push	{lr}
 10628              		.cfi_def_cfa_offset 4
 10629              		.cfi_offset 14, -4
 10630 3b72 83B0     		sub	sp, sp, #12
 10631              		.cfi_def_cfa_offset 16
 10632 3b74 0190     		str	r0, [sp, #4]
 10633 3b76 0091     		str	r1, [sp]
 10634              		.loc 1 3638 0
 10635 3b78 0198     		ldr	r0, [sp, #4]
 10636 3b7a 3921     		movs	r1, #57
 10637 3b7c 009A     		ldr	r2, [sp]
 10638 3b7e 0123     		movs	r3, #1
 10639 3b80 FFF7FEFF 		bl	LSM303AGR_ACC_ReadReg
 10640 3b84 0346     		mov	r3, r0
 10641 3b86 002B     		cmp	r3, #0
 10642 3b88 01D1     		bne	.L689
 10643              		.loc 1 3639 0
 10644 3b8a 0023     		movs	r3, #0
 10645 3b8c 07E0     		b	.L690
 10646              	.L689:
 10647              		.loc 1 3641 0
 10648 3b8e 009B     		ldr	r3, [sp]
 10649 3b90 1B78     		ldrb	r3, [r3]	@ zero_extendqisi2
 10650 3b92 03F00203 		and	r3, r3, #2
 10651 3b96 DAB2     		uxtb	r2, r3
 10652 3b98 009B     		ldr	r3, [sp]
 10653 3b9a 1A70     		strb	r2, [r3]
 10654              		.loc 1 3643 0
 10655 3b9c 0123     		movs	r3, #1
 10656              	.L690:
 10657              		.loc 1 3644 0
 10658 3b9e 1846     		mov	r0, r3
ARM GAS  /tmp/ccRrg1qB.s 			page 191


 10659 3ba0 03B0     		add	sp, sp, #12
 10660              		@ sp needed
 10661 3ba2 5DF804FB 		ldr	pc, [sp], #4
 10662              		.cfi_endproc
 10663              	.LFE446:
 10664              		.size	LSM303AGR_ACC_R_ClickY, .-LSM303AGR_ACC_R_ClickY
 10665 3ba6 00BF     		.align	2
 10666 3ba8 AFF30080 		.p2align 4,,15
 10666      AFF30080 
 10667              		.global	LSM303AGR_ACC_R_ClickZ
 10668              		.thumb
 10669              		.thumb_func
 10670              		.type	LSM303AGR_ACC_R_ClickZ, %function
 10671              	LSM303AGR_ACC_R_ClickZ:
 10672              	.LFB447:
 10673              		.loc 1 3654 0
 10674              		.cfi_startproc
 10675              		@ args = 0, pretend = 0, frame = 8
 10676              		@ frame_needed = 0, uses_anonymous_args = 0
 10677 3bb0 00B5     		push	{lr}
 10678              		.cfi_def_cfa_offset 4
 10679              		.cfi_offset 14, -4
 10680 3bb2 83B0     		sub	sp, sp, #12
 10681              		.cfi_def_cfa_offset 16
 10682 3bb4 0190     		str	r0, [sp, #4]
 10683 3bb6 0091     		str	r1, [sp]
 10684              		.loc 1 3655 0
 10685 3bb8 0198     		ldr	r0, [sp, #4]
 10686 3bba 3921     		movs	r1, #57
 10687 3bbc 009A     		ldr	r2, [sp]
 10688 3bbe 0123     		movs	r3, #1
 10689 3bc0 FFF7FEFF 		bl	LSM303AGR_ACC_ReadReg
 10690 3bc4 0346     		mov	r3, r0
 10691 3bc6 002B     		cmp	r3, #0
 10692 3bc8 01D1     		bne	.L692
 10693              		.loc 1 3656 0
 10694 3bca 0023     		movs	r3, #0
 10695 3bcc 07E0     		b	.L693
 10696              	.L692:
 10697              		.loc 1 3658 0
 10698 3bce 009B     		ldr	r3, [sp]
 10699 3bd0 1B78     		ldrb	r3, [r3]	@ zero_extendqisi2
 10700 3bd2 03F00403 		and	r3, r3, #4
 10701 3bd6 DAB2     		uxtb	r2, r3
 10702 3bd8 009B     		ldr	r3, [sp]
 10703 3bda 1A70     		strb	r2, [r3]
 10704              		.loc 1 3660 0
 10705 3bdc 0123     		movs	r3, #1
 10706              	.L693:
 10707              		.loc 1 3661 0
 10708 3bde 1846     		mov	r0, r3
 10709 3be0 03B0     		add	sp, sp, #12
 10710              		@ sp needed
 10711 3be2 5DF804FB 		ldr	pc, [sp], #4
 10712              		.cfi_endproc
 10713              	.LFE447:
 10714              		.size	LSM303AGR_ACC_R_ClickZ, .-LSM303AGR_ACC_R_ClickZ
ARM GAS  /tmp/ccRrg1qB.s 			page 192


 10715 3be6 00BF     		.align	2
 10716 3be8 AFF30080 		.p2align 4,,15
 10716      AFF30080 
 10717              		.global	LSM303AGR_ACC_R_ClickSign
 10718              		.thumb
 10719              		.thumb_func
 10720              		.type	LSM303AGR_ACC_R_ClickSign, %function
 10721              	LSM303AGR_ACC_R_ClickSign:
 10722              	.LFB448:
 10723              		.loc 1 3671 0
 10724              		.cfi_startproc
 10725              		@ args = 0, pretend = 0, frame = 8
 10726              		@ frame_needed = 0, uses_anonymous_args = 0
 10727 3bf0 00B5     		push	{lr}
 10728              		.cfi_def_cfa_offset 4
 10729              		.cfi_offset 14, -4
 10730 3bf2 83B0     		sub	sp, sp, #12
 10731              		.cfi_def_cfa_offset 16
 10732 3bf4 0190     		str	r0, [sp, #4]
 10733 3bf6 0091     		str	r1, [sp]
 10734              		.loc 1 3672 0
 10735 3bf8 0198     		ldr	r0, [sp, #4]
 10736 3bfa 3921     		movs	r1, #57
 10737 3bfc 009A     		ldr	r2, [sp]
 10738 3bfe 0123     		movs	r3, #1
 10739 3c00 FFF7FEFF 		bl	LSM303AGR_ACC_ReadReg
 10740 3c04 0346     		mov	r3, r0
 10741 3c06 002B     		cmp	r3, #0
 10742 3c08 01D1     		bne	.L695
 10743              		.loc 1 3673 0
 10744 3c0a 0023     		movs	r3, #0
 10745 3c0c 07E0     		b	.L696
 10746              	.L695:
 10747              		.loc 1 3675 0
 10748 3c0e 009B     		ldr	r3, [sp]
 10749 3c10 1B78     		ldrb	r3, [r3]	@ zero_extendqisi2
 10750 3c12 03F00803 		and	r3, r3, #8
 10751 3c16 DAB2     		uxtb	r2, r3
 10752 3c18 009B     		ldr	r3, [sp]
 10753 3c1a 1A70     		strb	r2, [r3]
 10754              		.loc 1 3677 0
 10755 3c1c 0123     		movs	r3, #1
 10756              	.L696:
 10757              		.loc 1 3678 0
 10758 3c1e 1846     		mov	r0, r3
 10759 3c20 03B0     		add	sp, sp, #12
 10760              		@ sp needed
 10761 3c22 5DF804FB 		ldr	pc, [sp], #4
 10762              		.cfi_endproc
 10763              	.LFE448:
 10764              		.size	LSM303AGR_ACC_R_ClickSign, .-LSM303AGR_ACC_R_ClickSign
 10765 3c26 00BF     		.align	2
 10766 3c28 AFF30080 		.p2align 4,,15
 10766      AFF30080 
 10767              		.global	LSM303AGR_ACC_R_SingleCLICK
 10768              		.thumb
 10769              		.thumb_func
ARM GAS  /tmp/ccRrg1qB.s 			page 193


 10770              		.type	LSM303AGR_ACC_R_SingleCLICK, %function
 10771              	LSM303AGR_ACC_R_SingleCLICK:
 10772              	.LFB449:
 10773              		.loc 1 3688 0
 10774              		.cfi_startproc
 10775              		@ args = 0, pretend = 0, frame = 8
 10776              		@ frame_needed = 0, uses_anonymous_args = 0
 10777 3c30 00B5     		push	{lr}
 10778              		.cfi_def_cfa_offset 4
 10779              		.cfi_offset 14, -4
 10780 3c32 83B0     		sub	sp, sp, #12
 10781              		.cfi_def_cfa_offset 16
 10782 3c34 0190     		str	r0, [sp, #4]
 10783 3c36 0091     		str	r1, [sp]
 10784              		.loc 1 3689 0
 10785 3c38 0198     		ldr	r0, [sp, #4]
 10786 3c3a 3921     		movs	r1, #57
 10787 3c3c 009A     		ldr	r2, [sp]
 10788 3c3e 0123     		movs	r3, #1
 10789 3c40 FFF7FEFF 		bl	LSM303AGR_ACC_ReadReg
 10790 3c44 0346     		mov	r3, r0
 10791 3c46 002B     		cmp	r3, #0
 10792 3c48 01D1     		bne	.L698
 10793              		.loc 1 3690 0
 10794 3c4a 0023     		movs	r3, #0
 10795 3c4c 07E0     		b	.L699
 10796              	.L698:
 10797              		.loc 1 3692 0
 10798 3c4e 009B     		ldr	r3, [sp]
 10799 3c50 1B78     		ldrb	r3, [r3]	@ zero_extendqisi2
 10800 3c52 03F01003 		and	r3, r3, #16
 10801 3c56 DAB2     		uxtb	r2, r3
 10802 3c58 009B     		ldr	r3, [sp]
 10803 3c5a 1A70     		strb	r2, [r3]
 10804              		.loc 1 3694 0
 10805 3c5c 0123     		movs	r3, #1
 10806              	.L699:
 10807              		.loc 1 3695 0
 10808 3c5e 1846     		mov	r0, r3
 10809 3c60 03B0     		add	sp, sp, #12
 10810              		@ sp needed
 10811 3c62 5DF804FB 		ldr	pc, [sp], #4
 10812              		.cfi_endproc
 10813              	.LFE449:
 10814              		.size	LSM303AGR_ACC_R_SingleCLICK, .-LSM303AGR_ACC_R_SingleCLICK
 10815 3c66 00BF     		.align	2
 10816 3c68 AFF30080 		.p2align 4,,15
 10816      AFF30080 
 10817              		.global	LSM303AGR_ACC_R_DoubleCLICK
 10818              		.thumb
 10819              		.thumb_func
 10820              		.type	LSM303AGR_ACC_R_DoubleCLICK, %function
 10821              	LSM303AGR_ACC_R_DoubleCLICK:
 10822              	.LFB450:
 10823              		.loc 1 3705 0
 10824              		.cfi_startproc
 10825              		@ args = 0, pretend = 0, frame = 8
ARM GAS  /tmp/ccRrg1qB.s 			page 194


 10826              		@ frame_needed = 0, uses_anonymous_args = 0
 10827 3c70 00B5     		push	{lr}
 10828              		.cfi_def_cfa_offset 4
 10829              		.cfi_offset 14, -4
 10830 3c72 83B0     		sub	sp, sp, #12
 10831              		.cfi_def_cfa_offset 16
 10832 3c74 0190     		str	r0, [sp, #4]
 10833 3c76 0091     		str	r1, [sp]
 10834              		.loc 1 3706 0
 10835 3c78 0198     		ldr	r0, [sp, #4]
 10836 3c7a 3921     		movs	r1, #57
 10837 3c7c 009A     		ldr	r2, [sp]
 10838 3c7e 0123     		movs	r3, #1
 10839 3c80 FFF7FEFF 		bl	LSM303AGR_ACC_ReadReg
 10840 3c84 0346     		mov	r3, r0
 10841 3c86 002B     		cmp	r3, #0
 10842 3c88 01D1     		bne	.L701
 10843              		.loc 1 3707 0
 10844 3c8a 0023     		movs	r3, #0
 10845 3c8c 07E0     		b	.L702
 10846              	.L701:
 10847              		.loc 1 3709 0
 10848 3c8e 009B     		ldr	r3, [sp]
 10849 3c90 1B78     		ldrb	r3, [r3]	@ zero_extendqisi2
 10850 3c92 03F02003 		and	r3, r3, #32
 10851 3c96 DAB2     		uxtb	r2, r3
 10852 3c98 009B     		ldr	r3, [sp]
 10853 3c9a 1A70     		strb	r2, [r3]
 10854              		.loc 1 3711 0
 10855 3c9c 0123     		movs	r3, #1
 10856              	.L702:
 10857              		.loc 1 3712 0
 10858 3c9e 1846     		mov	r0, r3
 10859 3ca0 03B0     		add	sp, sp, #12
 10860              		@ sp needed
 10861 3ca2 5DF804FB 		ldr	pc, [sp], #4
 10862              		.cfi_endproc
 10863              	.LFE450:
 10864              		.size	LSM303AGR_ACC_R_DoubleCLICK, .-LSM303AGR_ACC_R_DoubleCLICK
 10865 3ca6 00BF     		.align	2
 10866 3ca8 AFF30080 		.p2align 4,,15
 10866      AFF30080 
 10867              		.global	LSM303AGR_ACC_R_CLICK_IA
 10868              		.thumb
 10869              		.thumb_func
 10870              		.type	LSM303AGR_ACC_R_CLICK_IA, %function
 10871              	LSM303AGR_ACC_R_CLICK_IA:
 10872              	.LFB451:
 10873              		.loc 1 3722 0
 10874              		.cfi_startproc
 10875              		@ args = 0, pretend = 0, frame = 8
 10876              		@ frame_needed = 0, uses_anonymous_args = 0
 10877 3cb0 00B5     		push	{lr}
 10878              		.cfi_def_cfa_offset 4
 10879              		.cfi_offset 14, -4
 10880 3cb2 83B0     		sub	sp, sp, #12
 10881              		.cfi_def_cfa_offset 16
ARM GAS  /tmp/ccRrg1qB.s 			page 195


 10882 3cb4 0190     		str	r0, [sp, #4]
 10883 3cb6 0091     		str	r1, [sp]
 10884              		.loc 1 3723 0
 10885 3cb8 0198     		ldr	r0, [sp, #4]
 10886 3cba 3921     		movs	r1, #57
 10887 3cbc 009A     		ldr	r2, [sp]
 10888 3cbe 0123     		movs	r3, #1
 10889 3cc0 FFF7FEFF 		bl	LSM303AGR_ACC_ReadReg
 10890 3cc4 0346     		mov	r3, r0
 10891 3cc6 002B     		cmp	r3, #0
 10892 3cc8 01D1     		bne	.L704
 10893              		.loc 1 3724 0
 10894 3cca 0023     		movs	r3, #0
 10895 3ccc 07E0     		b	.L705
 10896              	.L704:
 10897              		.loc 1 3726 0
 10898 3cce 009B     		ldr	r3, [sp]
 10899 3cd0 1B78     		ldrb	r3, [r3]	@ zero_extendqisi2
 10900 3cd2 03F04003 		and	r3, r3, #64
 10901 3cd6 DAB2     		uxtb	r2, r3
 10902 3cd8 009B     		ldr	r3, [sp]
 10903 3cda 1A70     		strb	r2, [r3]
 10904              		.loc 1 3728 0
 10905 3cdc 0123     		movs	r3, #1
 10906              	.L705:
 10907              		.loc 1 3729 0
 10908 3cde 1846     		mov	r0, r3
 10909 3ce0 03B0     		add	sp, sp, #12
 10910              		@ sp needed
 10911 3ce2 5DF804FB 		ldr	pc, [sp], #4
 10912              		.cfi_endproc
 10913              	.LFE451:
 10914              		.size	LSM303AGR_ACC_R_CLICK_IA, .-LSM303AGR_ACC_R_CLICK_IA
 10915 3ce6 00BF     		.align	2
 10916 3ce8 AFF30080 		.p2align 4,,15
 10916      AFF30080 
 10917              		.global	LSM303AGR_ACC_W_ClickThreshold
 10918              		.thumb
 10919              		.thumb_func
 10920              		.type	LSM303AGR_ACC_W_ClickThreshold, %function
 10921              	LSM303AGR_ACC_W_ClickThreshold:
 10922              	.LFB452:
 10923              		.loc 1 3739 0
 10924              		.cfi_startproc
 10925              		@ args = 0, pretend = 0, frame = 16
 10926              		@ frame_needed = 0, uses_anonymous_args = 0
 10927 3cf0 00B5     		push	{lr}
 10928              		.cfi_def_cfa_offset 4
 10929              		.cfi_offset 14, -4
 10930 3cf2 85B0     		sub	sp, sp, #20
 10931              		.cfi_def_cfa_offset 24
 10932 3cf4 0190     		str	r0, [sp, #4]
 10933 3cf6 0B46     		mov	r3, r1
 10934 3cf8 8DF80330 		strb	r3, [sp, #3]
 10935              		.loc 1 3743 0
 10936 3cfc 9DF80330 		ldrb	r3, [sp, #3]
 10937 3d00 03F07F03 		and	r3, r3, #127
ARM GAS  /tmp/ccRrg1qB.s 			page 196


 10938 3d04 8DF80330 		strb	r3, [sp, #3]
 10939              		.loc 1 3745 0
 10940 3d08 0DF10F03 		add	r3, sp, #15
 10941 3d0c 0198     		ldr	r0, [sp, #4]
 10942 3d0e 3A21     		movs	r1, #58
 10943 3d10 1A46     		mov	r2, r3
 10944 3d12 0123     		movs	r3, #1
 10945 3d14 FFF7FEFF 		bl	LSM303AGR_ACC_ReadReg
 10946 3d18 0346     		mov	r3, r0
 10947 3d1a 002B     		cmp	r3, #0
 10948 3d1c 01D1     		bne	.L707
 10949              		.loc 1 3746 0
 10950 3d1e 0023     		movs	r3, #0
 10951 3d20 1CE0     		b	.L710
 10952              	.L707:
 10953              		.loc 1 3748 0
 10954 3d22 9DF80F30 		ldrb	r3, [sp, #15]	@ zero_extendqisi2
 10955 3d26 23F07F03 		bic	r3, r3, #127
 10956 3d2a DBB2     		uxtb	r3, r3
 10957 3d2c 8DF80F30 		strb	r3, [sp, #15]
 10958              		.loc 1 3749 0
 10959 3d30 9DF80F20 		ldrb	r2, [sp, #15]	@ zero_extendqisi2
 10960 3d34 9DF80330 		ldrb	r3, [sp, #3]
 10961 3d38 1343     		orrs	r3, r3, r2
 10962 3d3a DBB2     		uxtb	r3, r3
 10963 3d3c 8DF80F30 		strb	r3, [sp, #15]
 10964              		.loc 1 3751 0
 10965 3d40 0DF10F03 		add	r3, sp, #15
 10966 3d44 0198     		ldr	r0, [sp, #4]
 10967 3d46 3A21     		movs	r1, #58
 10968 3d48 1A46     		mov	r2, r3
 10969 3d4a 0123     		movs	r3, #1
 10970 3d4c FFF7FEFF 		bl	LSM303AGR_ACC_WriteReg
 10971 3d50 0346     		mov	r3, r0
 10972 3d52 002B     		cmp	r3, #0
 10973 3d54 01D1     		bne	.L709
 10974              		.loc 1 3752 0
 10975 3d56 0023     		movs	r3, #0
 10976 3d58 00E0     		b	.L710
 10977              	.L709:
 10978              		.loc 1 3754 0
 10979 3d5a 0123     		movs	r3, #1
 10980              	.L710:
 10981              		.loc 1 3755 0
 10982 3d5c 1846     		mov	r0, r3
 10983 3d5e 05B0     		add	sp, sp, #20
 10984              		@ sp needed
 10985 3d60 5DF804FB 		ldr	pc, [sp], #4
 10986              		.cfi_endproc
 10987              	.LFE452:
 10988              		.size	LSM303AGR_ACC_W_ClickThreshold, .-LSM303AGR_ACC_W_ClickThreshold
 10989              		.align	2
 10990 3d64 AFF30080 		.p2align 4,,15
 10990      AFF30080 
 10990      AFF30080 
 10991              		.global	LSM303AGR_ACC_R_ClickThreshold
 10992              		.thumb
ARM GAS  /tmp/ccRrg1qB.s 			page 197


 10993              		.thumb_func
 10994              		.type	LSM303AGR_ACC_R_ClickThreshold, %function
 10995              	LSM303AGR_ACC_R_ClickThreshold:
 10996              	.LFB453:
 10997              		.loc 1 3765 0
 10998              		.cfi_startproc
 10999              		@ args = 0, pretend = 0, frame = 8
 11000              		@ frame_needed = 0, uses_anonymous_args = 0
 11001 3d70 00B5     		push	{lr}
 11002              		.cfi_def_cfa_offset 4
 11003              		.cfi_offset 14, -4
 11004 3d72 83B0     		sub	sp, sp, #12
 11005              		.cfi_def_cfa_offset 16
 11006 3d74 0190     		str	r0, [sp, #4]
 11007 3d76 0091     		str	r1, [sp]
 11008              		.loc 1 3766 0
 11009 3d78 0198     		ldr	r0, [sp, #4]
 11010 3d7a 3A21     		movs	r1, #58
 11011 3d7c 009A     		ldr	r2, [sp]
 11012 3d7e 0123     		movs	r3, #1
 11013 3d80 FFF7FEFF 		bl	LSM303AGR_ACC_ReadReg
 11014 3d84 0346     		mov	r3, r0
 11015 3d86 002B     		cmp	r3, #0
 11016 3d88 01D1     		bne	.L712
 11017              		.loc 1 3767 0
 11018 3d8a 0023     		movs	r3, #0
 11019 3d8c 0BE0     		b	.L713
 11020              	.L712:
 11021              		.loc 1 3769 0
 11022 3d8e 009B     		ldr	r3, [sp]
 11023 3d90 1B78     		ldrb	r3, [r3]	@ zero_extendqisi2
 11024 3d92 03F07F03 		and	r3, r3, #127
 11025 3d96 DAB2     		uxtb	r2, r3
 11026 3d98 009B     		ldr	r3, [sp]
 11027 3d9a 1A70     		strb	r2, [r3]
 11028              		.loc 1 3770 0
 11029 3d9c 009B     		ldr	r3, [sp]
 11030 3d9e 1A78     		ldrb	r2, [r3]	@ zero_extendqisi2
 11031 3da0 009B     		ldr	r3, [sp]
 11032 3da2 1A70     		strb	r2, [r3]
 11033              		.loc 1 3772 0
 11034 3da4 0123     		movs	r3, #1
 11035              	.L713:
 11036              		.loc 1 3773 0
 11037 3da6 1846     		mov	r0, r3
 11038 3da8 03B0     		add	sp, sp, #12
 11039              		@ sp needed
 11040 3daa 5DF804FB 		ldr	pc, [sp], #4
 11041              		.cfi_endproc
 11042              	.LFE453:
 11043              		.size	LSM303AGR_ACC_R_ClickThreshold, .-LSM303AGR_ACC_R_ClickThreshold
 11044 3dae 00BF     		.align	2
 11045              		.p2align 4,,15
 11046              		.global	LSM303AGR_ACC_W_ClickTimeLimit
 11047              		.thumb
 11048              		.thumb_func
 11049              		.type	LSM303AGR_ACC_W_ClickTimeLimit, %function
ARM GAS  /tmp/ccRrg1qB.s 			page 198


 11050              	LSM303AGR_ACC_W_ClickTimeLimit:
 11051              	.LFB454:
 11052              		.loc 1 3783 0
 11053              		.cfi_startproc
 11054              		@ args = 0, pretend = 0, frame = 16
 11055              		@ frame_needed = 0, uses_anonymous_args = 0
 11056 3db0 00B5     		push	{lr}
 11057              		.cfi_def_cfa_offset 4
 11058              		.cfi_offset 14, -4
 11059 3db2 85B0     		sub	sp, sp, #20
 11060              		.cfi_def_cfa_offset 24
 11061 3db4 0190     		str	r0, [sp, #4]
 11062 3db6 0B46     		mov	r3, r1
 11063 3db8 8DF80330 		strb	r3, [sp, #3]
 11064              		.loc 1 3787 0
 11065 3dbc 9DF80330 		ldrb	r3, [sp, #3]
 11066 3dc0 03F07F03 		and	r3, r3, #127
 11067 3dc4 8DF80330 		strb	r3, [sp, #3]
 11068              		.loc 1 3789 0
 11069 3dc8 0DF10F03 		add	r3, sp, #15
 11070 3dcc 0198     		ldr	r0, [sp, #4]
 11071 3dce 3B21     		movs	r1, #59
 11072 3dd0 1A46     		mov	r2, r3
 11073 3dd2 0123     		movs	r3, #1
 11074 3dd4 FFF7FEFF 		bl	LSM303AGR_ACC_ReadReg
 11075 3dd8 0346     		mov	r3, r0
 11076 3dda 002B     		cmp	r3, #0
 11077 3ddc 01D1     		bne	.L715
 11078              		.loc 1 3790 0
 11079 3dde 0023     		movs	r3, #0
 11080 3de0 1CE0     		b	.L718
 11081              	.L715:
 11082              		.loc 1 3792 0
 11083 3de2 9DF80F30 		ldrb	r3, [sp, #15]	@ zero_extendqisi2
 11084 3de6 23F07F03 		bic	r3, r3, #127
 11085 3dea DBB2     		uxtb	r3, r3
 11086 3dec 8DF80F30 		strb	r3, [sp, #15]
 11087              		.loc 1 3793 0
 11088 3df0 9DF80F20 		ldrb	r2, [sp, #15]	@ zero_extendqisi2
 11089 3df4 9DF80330 		ldrb	r3, [sp, #3]
 11090 3df8 1343     		orrs	r3, r3, r2
 11091 3dfa DBB2     		uxtb	r3, r3
 11092 3dfc 8DF80F30 		strb	r3, [sp, #15]
 11093              		.loc 1 3795 0
 11094 3e00 0DF10F03 		add	r3, sp, #15
 11095 3e04 0198     		ldr	r0, [sp, #4]
 11096 3e06 3B21     		movs	r1, #59
 11097 3e08 1A46     		mov	r2, r3
 11098 3e0a 0123     		movs	r3, #1
 11099 3e0c FFF7FEFF 		bl	LSM303AGR_ACC_WriteReg
 11100 3e10 0346     		mov	r3, r0
 11101 3e12 002B     		cmp	r3, #0
 11102 3e14 01D1     		bne	.L717
 11103              		.loc 1 3796 0
 11104 3e16 0023     		movs	r3, #0
 11105 3e18 00E0     		b	.L718
 11106              	.L717:
ARM GAS  /tmp/ccRrg1qB.s 			page 199


 11107              		.loc 1 3798 0
 11108 3e1a 0123     		movs	r3, #1
 11109              	.L718:
 11110              		.loc 1 3799 0
 11111 3e1c 1846     		mov	r0, r3
 11112 3e1e 05B0     		add	sp, sp, #20
 11113              		@ sp needed
 11114 3e20 5DF804FB 		ldr	pc, [sp], #4
 11115              		.cfi_endproc
 11116              	.LFE454:
 11117              		.size	LSM303AGR_ACC_W_ClickTimeLimit, .-LSM303AGR_ACC_W_ClickTimeLimit
 11118              		.align	2
 11119 3e24 AFF30080 		.p2align 4,,15
 11119      AFF30080 
 11119      AFF30080 
 11120              		.global	LSM303AGR_ACC_R_ClickTimeLimit
 11121              		.thumb
 11122              		.thumb_func
 11123              		.type	LSM303AGR_ACC_R_ClickTimeLimit, %function
 11124              	LSM303AGR_ACC_R_ClickTimeLimit:
 11125              	.LFB455:
 11126              		.loc 1 3809 0
 11127              		.cfi_startproc
 11128              		@ args = 0, pretend = 0, frame = 8
 11129              		@ frame_needed = 0, uses_anonymous_args = 0
 11130 3e30 00B5     		push	{lr}
 11131              		.cfi_def_cfa_offset 4
 11132              		.cfi_offset 14, -4
 11133 3e32 83B0     		sub	sp, sp, #12
 11134              		.cfi_def_cfa_offset 16
 11135 3e34 0190     		str	r0, [sp, #4]
 11136 3e36 0091     		str	r1, [sp]
 11137              		.loc 1 3810 0
 11138 3e38 0198     		ldr	r0, [sp, #4]
 11139 3e3a 3B21     		movs	r1, #59
 11140 3e3c 009A     		ldr	r2, [sp]
 11141 3e3e 0123     		movs	r3, #1
 11142 3e40 FFF7FEFF 		bl	LSM303AGR_ACC_ReadReg
 11143 3e44 0346     		mov	r3, r0
 11144 3e46 002B     		cmp	r3, #0
 11145 3e48 01D1     		bne	.L720
 11146              		.loc 1 3811 0
 11147 3e4a 0023     		movs	r3, #0
 11148 3e4c 0BE0     		b	.L721
 11149              	.L720:
 11150              		.loc 1 3813 0
 11151 3e4e 009B     		ldr	r3, [sp]
 11152 3e50 1B78     		ldrb	r3, [r3]	@ zero_extendqisi2
 11153 3e52 03F07F03 		and	r3, r3, #127
 11154 3e56 DAB2     		uxtb	r2, r3
 11155 3e58 009B     		ldr	r3, [sp]
 11156 3e5a 1A70     		strb	r2, [r3]
 11157              		.loc 1 3814 0
 11158 3e5c 009B     		ldr	r3, [sp]
 11159 3e5e 1A78     		ldrb	r2, [r3]	@ zero_extendqisi2
 11160 3e60 009B     		ldr	r3, [sp]
 11161 3e62 1A70     		strb	r2, [r3]
ARM GAS  /tmp/ccRrg1qB.s 			page 200


 11162              		.loc 1 3816 0
 11163 3e64 0123     		movs	r3, #1
 11164              	.L721:
 11165              		.loc 1 3817 0
 11166 3e66 1846     		mov	r0, r3
 11167 3e68 03B0     		add	sp, sp, #12
 11168              		@ sp needed
 11169 3e6a 5DF804FB 		ldr	pc, [sp], #4
 11170              		.cfi_endproc
 11171              	.LFE455:
 11172              		.size	LSM303AGR_ACC_R_ClickTimeLimit, .-LSM303AGR_ACC_R_ClickTimeLimit
 11173 3e6e 00BF     		.align	2
 11174              		.p2align 4,,15
 11175              		.global	LSM303AGR_ACC_W_ClickTimeLatency
 11176              		.thumb
 11177              		.thumb_func
 11178              		.type	LSM303AGR_ACC_W_ClickTimeLatency, %function
 11179              	LSM303AGR_ACC_W_ClickTimeLatency:
 11180              	.LFB456:
 11181              		.loc 1 3827 0
 11182              		.cfi_startproc
 11183              		@ args = 0, pretend = 0, frame = 16
 11184              		@ frame_needed = 0, uses_anonymous_args = 0
 11185 3e70 00B5     		push	{lr}
 11186              		.cfi_def_cfa_offset 4
 11187              		.cfi_offset 14, -4
 11188 3e72 85B0     		sub	sp, sp, #20
 11189              		.cfi_def_cfa_offset 24
 11190 3e74 0190     		str	r0, [sp, #4]
 11191 3e76 0B46     		mov	r3, r1
 11192 3e78 8DF80330 		strb	r3, [sp, #3]
 11193              		.loc 1 3833 0
 11194 3e7c 0DF10F03 		add	r3, sp, #15
 11195 3e80 0198     		ldr	r0, [sp, #4]
 11196 3e82 3C21     		movs	r1, #60
 11197 3e84 1A46     		mov	r2, r3
 11198 3e86 0123     		movs	r3, #1
 11199 3e88 FFF7FEFF 		bl	LSM303AGR_ACC_ReadReg
 11200 3e8c 0346     		mov	r3, r0
 11201 3e8e 002B     		cmp	r3, #0
 11202 3e90 01D1     		bne	.L723
 11203              		.loc 1 3834 0
 11204 3e92 0023     		movs	r3, #0
 11205 3e94 18E0     		b	.L726
 11206              	.L723:
 11207              		.loc 1 3836 0
 11208 3e96 0023     		movs	r3, #0
 11209 3e98 8DF80F30 		strb	r3, [sp, #15]
 11210              		.loc 1 3837 0
 11211 3e9c 9DF80F20 		ldrb	r2, [sp, #15]	@ zero_extendqisi2
 11212 3ea0 9DF80330 		ldrb	r3, [sp, #3]
 11213 3ea4 1343     		orrs	r3, r3, r2
 11214 3ea6 DBB2     		uxtb	r3, r3
 11215 3ea8 8DF80F30 		strb	r3, [sp, #15]
 11216              		.loc 1 3839 0
 11217 3eac 0DF10F03 		add	r3, sp, #15
 11218 3eb0 0198     		ldr	r0, [sp, #4]
ARM GAS  /tmp/ccRrg1qB.s 			page 201


 11219 3eb2 3C21     		movs	r1, #60
 11220 3eb4 1A46     		mov	r2, r3
 11221 3eb6 0123     		movs	r3, #1
 11222 3eb8 FFF7FEFF 		bl	LSM303AGR_ACC_WriteReg
 11223 3ebc 0346     		mov	r3, r0
 11224 3ebe 002B     		cmp	r3, #0
 11225 3ec0 01D1     		bne	.L725
 11226              		.loc 1 3840 0
 11227 3ec2 0023     		movs	r3, #0
 11228 3ec4 00E0     		b	.L726
 11229              	.L725:
 11230              		.loc 1 3842 0
 11231 3ec6 0123     		movs	r3, #1
 11232              	.L726:
 11233              		.loc 1 3843 0
 11234 3ec8 1846     		mov	r0, r3
 11235 3eca 05B0     		add	sp, sp, #20
 11236              		@ sp needed
 11237 3ecc 5DF804FB 		ldr	pc, [sp], #4
 11238              		.cfi_endproc
 11239              	.LFE456:
 11240              		.size	LSM303AGR_ACC_W_ClickTimeLatency, .-LSM303AGR_ACC_W_ClickTimeLatency
 11241              		.align	2
 11242              		.p2align 4,,15
 11243              		.global	LSM303AGR_ACC_R_ClickTimeLatency
 11244              		.thumb
 11245              		.thumb_func
 11246              		.type	LSM303AGR_ACC_R_ClickTimeLatency, %function
 11247              	LSM303AGR_ACC_R_ClickTimeLatency:
 11248              	.LFB457:
 11249              		.loc 1 3853 0
 11250              		.cfi_startproc
 11251              		@ args = 0, pretend = 0, frame = 8
 11252              		@ frame_needed = 0, uses_anonymous_args = 0
 11253 3ed0 00B5     		push	{lr}
 11254              		.cfi_def_cfa_offset 4
 11255              		.cfi_offset 14, -4
 11256 3ed2 83B0     		sub	sp, sp, #12
 11257              		.cfi_def_cfa_offset 16
 11258 3ed4 0190     		str	r0, [sp, #4]
 11259 3ed6 0091     		str	r1, [sp]
 11260              		.loc 1 3854 0
 11261 3ed8 0198     		ldr	r0, [sp, #4]
 11262 3eda 3C21     		movs	r1, #60
 11263 3edc 009A     		ldr	r2, [sp]
 11264 3ede 0123     		movs	r3, #1
 11265 3ee0 FFF7FEFF 		bl	LSM303AGR_ACC_ReadReg
 11266 3ee4 0346     		mov	r3, r0
 11267 3ee6 002B     		cmp	r3, #0
 11268 3ee8 01D1     		bne	.L728
 11269              		.loc 1 3855 0
 11270 3eea 0023     		movs	r3, #0
 11271 3eec 08E0     		b	.L729
 11272              	.L728:
 11273              		.loc 1 3857 0
 11274 3eee 009B     		ldr	r3, [sp]
 11275 3ef0 1A78     		ldrb	r2, [r3]	@ zero_extendqisi2
ARM GAS  /tmp/ccRrg1qB.s 			page 202


 11276 3ef2 009B     		ldr	r3, [sp]
 11277 3ef4 1A70     		strb	r2, [r3]
 11278              		.loc 1 3858 0
 11279 3ef6 009B     		ldr	r3, [sp]
 11280 3ef8 1A78     		ldrb	r2, [r3]	@ zero_extendqisi2
 11281 3efa 009B     		ldr	r3, [sp]
 11282 3efc 1A70     		strb	r2, [r3]
 11283              		.loc 1 3860 0
 11284 3efe 0123     		movs	r3, #1
 11285              	.L729:
 11286              		.loc 1 3861 0
 11287 3f00 1846     		mov	r0, r3
 11288 3f02 03B0     		add	sp, sp, #12
 11289              		@ sp needed
 11290 3f04 5DF804FB 		ldr	pc, [sp], #4
 11291              		.cfi_endproc
 11292              	.LFE457:
 11293              		.size	LSM303AGR_ACC_R_ClickTimeLatency, .-LSM303AGR_ACC_R_ClickTimeLatency
 11294              		.align	2
 11295 3f08 AFF30080 		.p2align 4,,15
 11295      AFF30080 
 11296              		.global	LSM303AGR_ACC_W_ClickTimeWindow
 11297              		.thumb
 11298              		.thumb_func
 11299              		.type	LSM303AGR_ACC_W_ClickTimeWindow, %function
 11300              	LSM303AGR_ACC_W_ClickTimeWindow:
 11301              	.LFB458:
 11302              		.loc 1 3871 0
 11303              		.cfi_startproc
 11304              		@ args = 0, pretend = 0, frame = 16
 11305              		@ frame_needed = 0, uses_anonymous_args = 0
 11306 3f10 00B5     		push	{lr}
 11307              		.cfi_def_cfa_offset 4
 11308              		.cfi_offset 14, -4
 11309 3f12 85B0     		sub	sp, sp, #20
 11310              		.cfi_def_cfa_offset 24
 11311 3f14 0190     		str	r0, [sp, #4]
 11312 3f16 0B46     		mov	r3, r1
 11313 3f18 8DF80330 		strb	r3, [sp, #3]
 11314              		.loc 1 3877 0
 11315 3f1c 0DF10F03 		add	r3, sp, #15
 11316 3f20 0198     		ldr	r0, [sp, #4]
 11317 3f22 3D21     		movs	r1, #61
 11318 3f24 1A46     		mov	r2, r3
 11319 3f26 0123     		movs	r3, #1
 11320 3f28 FFF7FEFF 		bl	LSM303AGR_ACC_ReadReg
 11321 3f2c 0346     		mov	r3, r0
 11322 3f2e 002B     		cmp	r3, #0
 11323 3f30 01D1     		bne	.L731
 11324              		.loc 1 3878 0
 11325 3f32 0023     		movs	r3, #0
 11326 3f34 18E0     		b	.L734
 11327              	.L731:
 11328              		.loc 1 3880 0
 11329 3f36 0023     		movs	r3, #0
 11330 3f38 8DF80F30 		strb	r3, [sp, #15]
 11331              		.loc 1 3881 0
ARM GAS  /tmp/ccRrg1qB.s 			page 203


 11332 3f3c 9DF80F20 		ldrb	r2, [sp, #15]	@ zero_extendqisi2
 11333 3f40 9DF80330 		ldrb	r3, [sp, #3]
 11334 3f44 1343     		orrs	r3, r3, r2
 11335 3f46 DBB2     		uxtb	r3, r3
 11336 3f48 8DF80F30 		strb	r3, [sp, #15]
 11337              		.loc 1 3883 0
 11338 3f4c 0DF10F03 		add	r3, sp, #15
 11339 3f50 0198     		ldr	r0, [sp, #4]
 11340 3f52 3D21     		movs	r1, #61
 11341 3f54 1A46     		mov	r2, r3
 11342 3f56 0123     		movs	r3, #1
 11343 3f58 FFF7FEFF 		bl	LSM303AGR_ACC_WriteReg
 11344 3f5c 0346     		mov	r3, r0
 11345 3f5e 002B     		cmp	r3, #0
 11346 3f60 01D1     		bne	.L733
 11347              		.loc 1 3884 0
 11348 3f62 0023     		movs	r3, #0
 11349 3f64 00E0     		b	.L734
 11350              	.L733:
 11351              		.loc 1 3886 0
 11352 3f66 0123     		movs	r3, #1
 11353              	.L734:
 11354              		.loc 1 3887 0
 11355 3f68 1846     		mov	r0, r3
 11356 3f6a 05B0     		add	sp, sp, #20
 11357              		@ sp needed
 11358 3f6c 5DF804FB 		ldr	pc, [sp], #4
 11359              		.cfi_endproc
 11360              	.LFE458:
 11361              		.size	LSM303AGR_ACC_W_ClickTimeWindow, .-LSM303AGR_ACC_W_ClickTimeWindow
 11362              		.align	2
 11363              		.p2align 4,,15
 11364              		.global	LSM303AGR_ACC_R_ClickTimeWindow
 11365              		.thumb
 11366              		.thumb_func
 11367              		.type	LSM303AGR_ACC_R_ClickTimeWindow, %function
 11368              	LSM303AGR_ACC_R_ClickTimeWindow:
 11369              	.LFB459:
 11370              		.loc 1 3897 0
 11371              		.cfi_startproc
 11372              		@ args = 0, pretend = 0, frame = 8
 11373              		@ frame_needed = 0, uses_anonymous_args = 0
 11374 3f70 00B5     		push	{lr}
 11375              		.cfi_def_cfa_offset 4
 11376              		.cfi_offset 14, -4
 11377 3f72 83B0     		sub	sp, sp, #12
 11378              		.cfi_def_cfa_offset 16
 11379 3f74 0190     		str	r0, [sp, #4]
 11380 3f76 0091     		str	r1, [sp]
 11381              		.loc 1 3898 0
 11382 3f78 0198     		ldr	r0, [sp, #4]
 11383 3f7a 3D21     		movs	r1, #61
 11384 3f7c 009A     		ldr	r2, [sp]
 11385 3f7e 0123     		movs	r3, #1
 11386 3f80 FFF7FEFF 		bl	LSM303AGR_ACC_ReadReg
 11387 3f84 0346     		mov	r3, r0
 11388 3f86 002B     		cmp	r3, #0
ARM GAS  /tmp/ccRrg1qB.s 			page 204


 11389 3f88 01D1     		bne	.L736
 11390              		.loc 1 3899 0
 11391 3f8a 0023     		movs	r3, #0
 11392 3f8c 08E0     		b	.L737
 11393              	.L736:
 11394              		.loc 1 3901 0
 11395 3f8e 009B     		ldr	r3, [sp]
 11396 3f90 1A78     		ldrb	r2, [r3]	@ zero_extendqisi2
 11397 3f92 009B     		ldr	r3, [sp]
 11398 3f94 1A70     		strb	r2, [r3]
 11399              		.loc 1 3902 0
 11400 3f96 009B     		ldr	r3, [sp]
 11401 3f98 1A78     		ldrb	r2, [r3]	@ zero_extendqisi2
 11402 3f9a 009B     		ldr	r3, [sp]
 11403 3f9c 1A70     		strb	r2, [r3]
 11404              		.loc 1 3904 0
 11405 3f9e 0123     		movs	r3, #1
 11406              	.L737:
 11407              		.loc 1 3905 0
 11408 3fa0 1846     		mov	r0, r3
 11409 3fa2 03B0     		add	sp, sp, #12
 11410              		@ sp needed
 11411 3fa4 5DF804FB 		ldr	pc, [sp], #4
 11412              		.cfi_endproc
 11413              	.LFE459:
 11414              		.size	LSM303AGR_ACC_R_ClickTimeWindow, .-LSM303AGR_ACC_R_ClickTimeWindow
 11415              		.align	2
 11416 3fa8 AFF30080 		.p2align 4,,15
 11416      AFF30080 
 11417              		.global	LSM303AGR_ACC_Get_Voltage_ADC
 11418              		.thumb
 11419              		.thumb_func
 11420              		.type	LSM303AGR_ACC_Get_Voltage_ADC, %function
 11421              	LSM303AGR_ACC_Get_Voltage_ADC:
 11422              	.LFB460:
 11423              		.loc 1 3915 0
 11424              		.cfi_startproc
 11425              		@ args = 0, pretend = 0, frame = 16
 11426              		@ frame_needed = 0, uses_anonymous_args = 0
 11427 3fb0 00B5     		push	{lr}
 11428              		.cfi_def_cfa_offset 4
 11429              		.cfi_offset 14, -4
 11430 3fb2 85B0     		sub	sp, sp, #20
 11431              		.cfi_def_cfa_offset 24
 11432 3fb4 0190     		str	r0, [sp, #4]
 11433 3fb6 0091     		str	r1, [sp]
 11434              		.loc 1 3919 0
 11435 3fb8 0223     		movs	r3, #2
 11436 3fba 8DF80C30 		strb	r3, [sp, #12]
 11437              		.loc 1 3921 0
 11438 3fbe 0023     		movs	r3, #0
 11439 3fc0 8DF80D30 		strb	r3, [sp, #13]
 11440              		.loc 1 3922 0
 11441 3fc4 0023     		movs	r3, #0
 11442 3fc6 8DF80F30 		strb	r3, [sp, #15]
 11443 3fca 2BE0     		b	.L739
 11444              	.L744:
ARM GAS  /tmp/ccRrg1qB.s 			page 205


 11445              		.loc 1 3924 0
 11446 3fcc 0023     		movs	r3, #0
 11447 3fce 8DF80E30 		strb	r3, [sp, #14]
 11448 3fd2 1CE0     		b	.L740
 11449              	.L743:
 11450              		.loc 1 3926 0
 11451 3fd4 9DF80D30 		ldrb	r3, [sp, #13]
 11452 3fd8 0833     		adds	r3, r3, #8
 11453 3fda DAB2     		uxtb	r2, r3
 11454 3fdc 9DF80D30 		ldrb	r3, [sp, #13]	@ zero_extendqisi2
 11455 3fe0 0099     		ldr	r1, [sp]
 11456 3fe2 0B44     		add	r3, r3, r1
 11457 3fe4 0198     		ldr	r0, [sp, #4]
 11458 3fe6 1146     		mov	r1, r2
 11459 3fe8 1A46     		mov	r2, r3
 11460 3fea 0123     		movs	r3, #1
 11461 3fec FFF7FEFF 		bl	LSM303AGR_ACC_ReadReg
 11462 3ff0 0346     		mov	r3, r0
 11463 3ff2 002B     		cmp	r3, #0
 11464 3ff4 01D1     		bne	.L741
 11465              		.loc 1 3927 0
 11466 3ff6 0023     		movs	r3, #0
 11467 3ff8 19E0     		b	.L742
 11468              	.L741:
 11469              		.loc 1 3928 0
 11470 3ffa 9DF80D30 		ldrb	r3, [sp, #13]	@ zero_extendqisi2
 11471 3ffe 0133     		adds	r3, r3, #1
 11472 4000 8DF80D30 		strb	r3, [sp, #13]
 11473              		.loc 1 3924 0
 11474 4004 9DF80E30 		ldrb	r3, [sp, #14]	@ zero_extendqisi2
 11475 4008 0133     		adds	r3, r3, #1
 11476 400a 8DF80E30 		strb	r3, [sp, #14]
 11477              	.L740:
 11478              		.loc 1 3924 0 is_stmt 0 discriminator 1
 11479 400e 9DF80E20 		ldrb	r2, [sp, #14]	@ zero_extendqisi2
 11480 4012 9DF80C30 		ldrb	r3, [sp, #12]	@ zero_extendqisi2
 11481 4016 9A42     		cmp	r2, r3
 11482 4018 DCD3     		bcc	.L743
 11483              		.loc 1 3922 0 is_stmt 1
 11484 401a 9DF80F30 		ldrb	r3, [sp, #15]	@ zero_extendqisi2
 11485 401e 0133     		adds	r3, r3, #1
 11486 4020 8DF80F30 		strb	r3, [sp, #15]
 11487              	.L739:
 11488              		.loc 1 3922 0 is_stmt 0 discriminator 1
 11489 4024 9DF80F30 		ldrb	r3, [sp, #15]	@ zero_extendqisi2
 11490 4028 022B     		cmp	r3, #2
 11491 402a CFD9     		bls	.L744
 11492              		.loc 1 3932 0 is_stmt 1
 11493 402c 0123     		movs	r3, #1
 11494              	.L742:
 11495              		.loc 1 3933 0
 11496 402e 1846     		mov	r0, r3
 11497 4030 05B0     		add	sp, sp, #20
 11498              		@ sp needed
 11499 4032 5DF804FB 		ldr	pc, [sp], #4
 11500              		.cfi_endproc
 11501              	.LFE460:
ARM GAS  /tmp/ccRrg1qB.s 			page 206


 11502              		.size	LSM303AGR_ACC_Get_Voltage_ADC, .-LSM303AGR_ACC_Get_Voltage_ADC
 11503              	.Letext0:
 11504              		.file 2 "/nfs/nfs5/home/research/hardware/arm2/gcc-arm-embedded/gcc-arm-none-eabi-4_8-2014q2/lib/g
 11505              		.file 3 "/nfs/nfs5/home/research/hardware/arm2/gcc-arm-embedded/gcc-arm-none-eabi-4_8-2014q2/arm-n
 11506              		.file 4 "/nfs/nfs5/home/research/hardware/arm2/gcc-arm-embedded/gcc-arm-none-eabi-4_8-2014q2/arm-n
 11507              		.file 5 "../ChibiOS/os/rt/ports/ARMCMx/compilers/GCC/chtypes.h"
 11508              		.file 6 "../ChibiOS/os/rt/include/chsystypes.h"
 11509              		.file 7 "../ChibiOS/os/rt/include/chschd.h"
 11510              		.file 8 "../ChibiOS/os/ext/CMSIS/ST/STM32L4xx/stm32l476xx.h"
 11511              		.file 9 "../ChibiOS/os/rt/ports/ARMCMx/chcore.h"
 11512              		.file 10 "../ChibiOS/os/rt/ports/ARMCMx/chcore_v7m.h"
 11513              		.file 11 "../ChibiOS/os/rt/include/chtm.h"
 11514              		.file 12 "../ChibiOS/os/rt/include/chsem.h"
 11515              		.file 13 "../ChibiOS/os/rt/include/chmtx.h"
 11516              		.file 14 "../ChibiOS/os/hal/ports/STM32/LLD/DMAv1/stm32_dma.h"
 11517              		.file 15 "../ChibiOS/os/hal/ports/STM32/LLD/GPIOv3/pal_lld.h"
 11518              		.file 16 "../ChibiOS/os/hal/include/spi.h"
 11519              		.file 17 "../ChibiOS/os/hal/ports/STM32/LLD/SPIv2/spi_lld.h"
 11520              		.file 18 "./driver/LSM303AGR_ACC_driver.h"
 11521              		.file 19 "../ChibiOS/os/ext/CMSIS/include/core_cm4.h"
 11522 4036 00BFAFF3 		.section	.debug_info,"",%progbits
 11522      0080AFF3 
 11522      0080
 11523              	.Ldebug_info0:
 11524 0000 5A490000 		.4byte	0x495a
 11525 0004 0400     		.2byte	0x4
 11526 0006 00000000 		.4byte	.Ldebug_abbrev0
 11527 000a 04       		.byte	0x4
 11528 000b 01       		.uleb128 0x1
 11529 000c EE0E0000 		.4byte	.LASF654
 11530 0010 01       		.byte	0x1
 11531 0011 590E0000 		.4byte	.LASF655
 11532 0015 51360000 		.4byte	.LASF656
 11533 0019 00000000 		.4byte	.Ltext0
 11534 001d 36400000 		.4byte	.Letext0-.Ltext0
 11535 0021 00000000 		.4byte	.Ldebug_line0
 11536 0025 02       		.uleb128 0x2
 11537 0026 04       		.byte	0x4
 11538 0027 05       		.byte	0x5
 11539 0028 696E7400 		.ascii	"int\000"
 11540 002c 03       		.uleb128 0x3
 11541 002d B9150000 		.4byte	.LASF2
 11542 0031 02       		.byte	0x2
 11543 0032 D4       		.byte	0xd4
 11544 0033 37000000 		.4byte	0x37
 11545 0037 04       		.uleb128 0x4
 11546 0038 04       		.byte	0x4
 11547 0039 07       		.byte	0x7
 11548 003a 30370000 		.4byte	.LASF0
 11549 003e 04       		.uleb128 0x4
 11550 003f 01       		.byte	0x1
 11551 0040 06       		.byte	0x6
 11552 0041 C11F0000 		.4byte	.LASF1
 11553 0045 03       		.uleb128 0x3
 11554 0046 70010000 		.4byte	.LASF3
 11555 004a 03       		.byte	0x3
 11556 004b 1C       		.byte	0x1c
ARM GAS  /tmp/ccRrg1qB.s 			page 207


 11557 004c 50000000 		.4byte	0x50
 11558 0050 04       		.uleb128 0x4
 11559 0051 01       		.byte	0x1
 11560 0052 08       		.byte	0x8
 11561 0053 230E0000 		.4byte	.LASF4
 11562 0057 04       		.uleb128 0x4
 11563 0058 02       		.byte	0x2
 11564 0059 05       		.byte	0x5
 11565 005a EC370000 		.4byte	.LASF5
 11566 005e 03       		.uleb128 0x3
 11567 005f 320B0000 		.4byte	.LASF6
 11568 0063 03       		.byte	0x3
 11569 0064 26       		.byte	0x26
 11570 0065 69000000 		.4byte	0x69
 11571 0069 04       		.uleb128 0x4
 11572 006a 02       		.byte	0x2
 11573 006b 07       		.byte	0x7
 11574 006c 741F0000 		.4byte	.LASF7
 11575 0070 03       		.uleb128 0x3
 11576 0071 8D2D0000 		.4byte	.LASF8
 11577 0075 03       		.byte	0x3
 11578 0076 37       		.byte	0x37
 11579 0077 7B000000 		.4byte	0x7b
 11580 007b 04       		.uleb128 0x4
 11581 007c 04       		.byte	0x4
 11582 007d 05       		.byte	0x5
 11583 007e C9230000 		.4byte	.LASF9
 11584 0082 03       		.uleb128 0x3
 11585 0083 AF2D0000 		.4byte	.LASF10
 11586 0087 03       		.byte	0x3
 11587 0088 38       		.byte	0x38
 11588 0089 8D000000 		.4byte	0x8d
 11589 008d 04       		.uleb128 0x4
 11590 008e 04       		.byte	0x4
 11591 008f 07       		.byte	0x7
 11592 0090 48260000 		.4byte	.LASF11
 11593 0094 04       		.uleb128 0x4
 11594 0095 08       		.byte	0x8
 11595 0096 05       		.byte	0x5
 11596 0097 23340000 		.4byte	.LASF12
 11597 009b 03       		.uleb128 0x3
 11598 009c DA180000 		.4byte	.LASF13
 11599 00a0 03       		.byte	0x3
 11600 00a1 4E       		.byte	0x4e
 11601 00a2 A6000000 		.4byte	0xa6
 11602 00a6 04       		.uleb128 0x4
 11603 00a7 08       		.byte	0x8
 11604 00a8 07       		.byte	0x7
 11605 00a9 B8300000 		.4byte	.LASF14
 11606 00ad 03       		.uleb128 0x3
 11607 00ae C0150000 		.4byte	.LASF15
 11608 00b2 04       		.byte	0x4
 11609 00b3 2A       		.byte	0x2a
 11610 00b4 45000000 		.4byte	0x45
 11611 00b8 03       		.uleb128 0x3
 11612 00b9 A0030000 		.4byte	.LASF16
 11613 00bd 04       		.byte	0x4
ARM GAS  /tmp/ccRrg1qB.s 			page 208


 11614 00be 36       		.byte	0x36
 11615 00bf 5E000000 		.4byte	0x5e
 11616 00c3 03       		.uleb128 0x3
 11617 00c4 ED050000 		.4byte	.LASF17
 11618 00c8 04       		.byte	0x4
 11619 00c9 41       		.byte	0x41
 11620 00ca 70000000 		.4byte	0x70
 11621 00ce 03       		.uleb128 0x3
 11622 00cf 6B250000 		.4byte	.LASF18
 11623 00d3 04       		.byte	0x4
 11624 00d4 42       		.byte	0x42
 11625 00d5 82000000 		.4byte	0x82
 11626 00d9 03       		.uleb128 0x3
 11627 00da 2C110000 		.4byte	.LASF19
 11628 00de 04       		.byte	0x4
 11629 00df 4E       		.byte	0x4e
 11630 00e0 9B000000 		.4byte	0x9b
 11631 00e4 03       		.uleb128 0x3
 11632 00e5 CA140000 		.4byte	.LASF20
 11633 00e9 05       		.byte	0x5
 11634 00ea 39       		.byte	0x39
 11635 00eb CE000000 		.4byte	0xce
 11636 00ef 03       		.uleb128 0x3
 11637 00f0 501B0000 		.4byte	.LASF21
 11638 00f4 05       		.byte	0x5
 11639 00f5 3C       		.byte	0x3c
 11640 00f6 AD000000 		.4byte	0xad
 11641 00fa 03       		.uleb128 0x3
 11642 00fb 44320000 		.4byte	.LASF22
 11643 00ff 05       		.byte	0x5
 11644 0100 3D       		.byte	0x3d
 11645 0101 AD000000 		.4byte	0xad
 11646 0105 03       		.uleb128 0x3
 11647 0106 381A0000 		.4byte	.LASF23
 11648 010a 05       		.byte	0x5
 11649 010b 3E       		.byte	0x3e
 11650 010c AD000000 		.4byte	0xad
 11651 0110 03       		.uleb128 0x3
 11652 0111 C61E0000 		.4byte	.LASF24
 11653 0115 05       		.byte	0x5
 11654 0116 3F       		.byte	0x3f
 11655 0117 AD000000 		.4byte	0xad
 11656 011b 03       		.uleb128 0x3
 11657 011c DE090000 		.4byte	.LASF25
 11658 0120 05       		.byte	0x5
 11659 0121 40       		.byte	0x40
 11660 0122 CE000000 		.4byte	0xce
 11661 0126 03       		.uleb128 0x3
 11662 0127 71000000 		.4byte	.LASF26
 11663 012b 05       		.byte	0x5
 11664 012c 41       		.byte	0x41
 11665 012d C3000000 		.4byte	0xc3
 11666 0131 03       		.uleb128 0x3
 11667 0132 DD250000 		.4byte	.LASF27
 11668 0136 05       		.byte	0x5
 11669 0137 43       		.byte	0x43
 11670 0138 CE000000 		.4byte	0xce
ARM GAS  /tmp/ccRrg1qB.s 			page 209


 11671 013c 03       		.uleb128 0x3
 11672 013d 592A0000 		.4byte	.LASF28
 11673 0141 05       		.byte	0x5
 11674 0142 45       		.byte	0x45
 11675 0143 C3000000 		.4byte	0xc3
 11676 0147 03       		.uleb128 0x3
 11677 0148 2F060000 		.4byte	.LASF29
 11678 014c 06       		.byte	0x6
 11679 014d 33       		.byte	0x33
 11680 014e CE000000 		.4byte	0xce
 11681 0152 03       		.uleb128 0x3
 11682 0153 89050000 		.4byte	.LASF30
 11683 0157 06       		.byte	0x6
 11684 0158 3F       		.byte	0x3f
 11685 0159 5D010000 		.4byte	0x15d
 11686 015d 05       		.uleb128 0x5
 11687 015e 8C0E0000 		.4byte	.LASF51
 11688 0162 44       		.byte	0x44
 11689 0163 07       		.byte	0x7
 11690 0164 C2       		.byte	0xc2
 11691 0165 56020000 		.4byte	0x256
 11692 0169 06       		.uleb128 0x6
 11693 016a E1190000 		.4byte	.LASF31
 11694 016e 07       		.byte	0x7
 11695 016f C3       		.byte	0xc3
 11696 0170 61020000 		.4byte	0x261
 11697 0174 00       		.byte	0
 11698 0175 06       		.uleb128 0x6
 11699 0176 EE150000 		.4byte	.LASF32
 11700 017a 07       		.byte	0x7
 11701 017b C5       		.byte	0xc5
 11702 017c 61020000 		.4byte	0x261
 11703 0180 04       		.byte	0x4
 11704 0181 06       		.uleb128 0x6
 11705 0182 D3180000 		.4byte	.LASF33
 11706 0186 07       		.byte	0x7
 11707 0187 C7       		.byte	0xc7
 11708 0188 1B010000 		.4byte	0x11b
 11709 018c 08       		.byte	0x8
 11710 018d 06       		.uleb128 0x6
 11711 018e 6C100000 		.4byte	.LASF34
 11712 0192 07       		.byte	0x7
 11713 0193 C8       		.byte	0xc8
 11714 0194 99050000 		.4byte	0x599
 11715 0198 0C       		.byte	0xc
 11716 0199 06       		.uleb128 0x6
 11717 019a 45040000 		.4byte	.LASF35
 11718 019e 07       		.byte	0x7
 11719 019f CA       		.byte	0xca
 11720 01a0 61020000 		.4byte	0x261
 11721 01a4 10       		.byte	0x10
 11722 01a5 06       		.uleb128 0x6
 11723 01a6 BB350000 		.4byte	.LASF36
 11724 01aa 07       		.byte	0x7
 11725 01ab CB       		.byte	0xcb
 11726 01ac 61020000 		.4byte	0x261
 11727 01b0 14       		.byte	0x14
ARM GAS  /tmp/ccRrg1qB.s 			page 210


 11728 01b1 06       		.uleb128 0x6
 11729 01b2 BF320000 		.4byte	.LASF37
 11730 01b6 07       		.byte	0x7
 11731 01b7 D2       		.byte	0xd2
 11732 01b8 18070000 		.4byte	0x718
 11733 01bc 18       		.byte	0x18
 11734 01bd 06       		.uleb128 0x6
 11735 01be 7E380000 		.4byte	.LASF38
 11736 01c2 07       		.byte	0x7
 11737 01c3 DD       		.byte	0xdd
 11738 01c4 FA000000 		.4byte	0xfa
 11739 01c8 1C       		.byte	0x1c
 11740 01c9 06       		.uleb128 0x6
 11741 01ca D0310000 		.4byte	.LASF39
 11742 01ce 07       		.byte	0x7
 11743 01cf E1       		.byte	0xe1
 11744 01d0 EF000000 		.4byte	0xef
 11745 01d4 1D       		.byte	0x1d
 11746 01d5 06       		.uleb128 0x6
 11747 01d6 A9230000 		.4byte	.LASF40
 11748 01da 07       		.byte	0x7
 11749 01db E6       		.byte	0xe6
 11750 01dc 05010000 		.4byte	0x105
 11751 01e0 1E       		.byte	0x1e
 11752 01e1 06       		.uleb128 0x6
 11753 01e2 5C200000 		.4byte	.LASF41
 11754 01e6 07       		.byte	0x7
 11755 01e7 EC       		.byte	0xec
 11756 01e8 10010000 		.4byte	0x110
 11757 01ec 1F       		.byte	0x1f
 11758 01ed 07       		.uleb128 0x7
 11759 01ee 705F7500 		.ascii	"p_u\000"
 11760 01f2 07       		.byte	0x7
 11761 01f3 3101     		.2byte	0x131
 11762 01f5 53060000 		.4byte	0x653
 11763 01f9 20       		.byte	0x20
 11764 01fa 08       		.uleb128 0x8
 11765 01fb 86080000 		.4byte	.LASF42
 11766 01ff 07       		.byte	0x7
 11767 0200 3601     		.2byte	0x136
 11768 0202 67020000 		.4byte	0x267
 11769 0206 24       		.byte	0x24
 11770 0207 08       		.uleb128 0x8
 11771 0208 52210000 		.4byte	.LASF43
 11772 020c 07       		.byte	0x7
 11773 020d 3C01     		.2byte	0x13c
 11774 020f 8B020000 		.4byte	0x28b
 11775 0213 28       		.byte	0x28
 11776 0214 08       		.uleb128 0x8
 11777 0215 3D0B0000 		.4byte	.LASF44
 11778 0219 07       		.byte	0x7
 11779 021a 4001     		.2byte	0x140
 11780 021c 26010000 		.4byte	0x126
 11781 0220 30       		.byte	0x30
 11782 0221 08       		.uleb128 0x8
 11783 0222 B72E0000 		.4byte	.LASF45
 11784 0226 07       		.byte	0x7
ARM GAS  /tmp/ccRrg1qB.s 			page 211


 11785 0227 4601     		.2byte	0x146
 11786 0229 31010000 		.4byte	0x131
 11787 022d 34       		.byte	0x34
 11788 022e 08       		.uleb128 0x8
 11789 022f 3A320000 		.4byte	.LASF46
 11790 0233 07       		.byte	0x7
 11791 0234 4D01     		.2byte	0x14d
 11792 0236 12070000 		.4byte	0x712
 11793 023a 38       		.byte	0x38
 11794 023b 08       		.uleb128 0x8
 11795 023c 6D2C0000 		.4byte	.LASF47
 11796 0240 07       		.byte	0x7
 11797 0241 5101     		.2byte	0x151
 11798 0243 1B010000 		.4byte	0x11b
 11799 0247 3C       		.byte	0x3c
 11800 0248 08       		.uleb128 0x8
 11801 0249 5C1A0000 		.4byte	.LASF48
 11802 024d 07       		.byte	0x7
 11803 024e 5801     		.2byte	0x158
 11804 0250 3E030000 		.4byte	0x33e
 11805 0254 40       		.byte	0x40
 11806 0255 00       		.byte	0
 11807 0256 03       		.uleb128 0x3
 11808 0257 FE350000 		.4byte	.LASF49
 11809 025b 06       		.byte	0x6
 11810 025c 44       		.byte	0x44
 11811 025d 61020000 		.4byte	0x261
 11812 0261 09       		.uleb128 0x9
 11813 0262 04       		.byte	0x4
 11814 0263 52010000 		.4byte	0x152
 11815 0267 03       		.uleb128 0x3
 11816 0268 E3080000 		.4byte	.LASF50
 11817 026c 06       		.byte	0x6
 11818 026d 49       		.byte	0x49
 11819 026e 72020000 		.4byte	0x272
 11820 0272 05       		.uleb128 0x5
 11821 0273 A1380000 		.4byte	.LASF52
 11822 0277 04       		.byte	0x4
 11823 0278 07       		.byte	0x7
 11824 0279 B0       		.byte	0xb0
 11825 027a 8B020000 		.4byte	0x28b
 11826 027e 06       		.uleb128 0x6
 11827 027f E1190000 		.4byte	.LASF31
 11828 0283 07       		.byte	0x7
 11829 0284 B1       		.byte	0xb1
 11830 0285 61020000 		.4byte	0x261
 11831 0289 00       		.byte	0
 11832 028a 00       		.byte	0
 11833 028b 03       		.uleb128 0x3
 11834 028c 99230000 		.4byte	.LASF53
 11835 0290 06       		.byte	0x6
 11836 0291 50       		.byte	0x50
 11837 0292 96020000 		.4byte	0x296
 11838 0296 05       		.uleb128 0x5
 11839 0297 16040000 		.4byte	.LASF54
 11840 029b 08       		.byte	0x8
 11841 029c 07       		.byte	0x7
ARM GAS  /tmp/ccRrg1qB.s 			page 212


 11842 029d B7       		.byte	0xb7
 11843 029e BB020000 		.4byte	0x2bb
 11844 02a2 06       		.uleb128 0x6
 11845 02a3 E1190000 		.4byte	.LASF31
 11846 02a7 07       		.byte	0x7
 11847 02a8 B8       		.byte	0xb8
 11848 02a9 61020000 		.4byte	0x261
 11849 02ad 00       		.byte	0
 11850 02ae 06       		.uleb128 0x6
 11851 02af EE150000 		.4byte	.LASF32
 11852 02b3 07       		.byte	0x7
 11853 02b4 B9       		.byte	0xb9
 11854 02b5 61020000 		.4byte	0x261
 11855 02b9 04       		.byte	0x4
 11856 02ba 00       		.byte	0
 11857 02bb 03       		.uleb128 0x3
 11858 02bc 7F0E0000 		.4byte	.LASF55
 11859 02c0 06       		.byte	0x6
 11860 02c1 57       		.byte	0x57
 11861 02c2 C6020000 		.4byte	0x2c6
 11862 02c6 0A       		.uleb128 0xa
 11863 02c7 792D0000 		.4byte	.LASF56
 11864 02cb 1C       		.byte	0x1c
 11865 02cc 07       		.byte	0x7
 11866 02cd 9001     		.2byte	0x190
 11867 02cf 22030000 		.4byte	0x322
 11868 02d3 08       		.uleb128 0x8
 11869 02d4 AF270000 		.4byte	.LASF57
 11870 02d8 07       		.byte	0x7
 11871 02d9 9101     		.2byte	0x191
 11872 02db 8B020000 		.4byte	0x28b
 11873 02df 00       		.byte	0
 11874 02e0 08       		.uleb128 0x8
 11875 02e1 FE2F0000 		.4byte	.LASF58
 11876 02e5 07       		.byte	0x7
 11877 02e6 9201     		.2byte	0x192
 11878 02e8 1B010000 		.4byte	0x11b
 11879 02ec 08       		.byte	0x8
 11880 02ed 08       		.uleb128 0x8
 11881 02ee 52140000 		.4byte	.LASF59
 11882 02f2 07       		.byte	0x7
 11883 02f3 9401     		.2byte	0x194
 11884 02f5 99050000 		.4byte	0x599
 11885 02f9 0C       		.byte	0xc
 11886 02fa 08       		.uleb128 0x8
 11887 02fb 341E0000 		.4byte	.LASF60
 11888 02ff 07       		.byte	0x7
 11889 0300 9701     		.2byte	0x197
 11890 0302 61020000 		.4byte	0x261
 11891 0306 10       		.byte	0x10
 11892 0307 08       		.uleb128 0x8
 11893 0308 E6150000 		.4byte	.LASF61
 11894 030c 07       		.byte	0x7
 11895 030d 9801     		.2byte	0x198
 11896 030f 61020000 		.4byte	0x261
 11897 0313 14       		.byte	0x14
 11898 0314 08       		.uleb128 0x8
ARM GAS  /tmp/ccRrg1qB.s 			page 213


 11899 0315 95100000 		.4byte	.LASF62
 11900 0319 07       		.byte	0x7
 11901 031a 9B01     		.2byte	0x19b
 11902 031c 61020000 		.4byte	0x261
 11903 0320 18       		.byte	0x18
 11904 0321 00       		.byte	0
 11905 0322 03       		.uleb128 0x3
 11906 0323 042C0000 		.4byte	.LASF63
 11907 0327 06       		.byte	0x6
 11908 0328 5C       		.byte	0x5c
 11909 0329 2D030000 		.4byte	0x32d
 11910 032d 09       		.uleb128 0x9
 11911 032e 04       		.byte	0x4
 11912 032f 33030000 		.4byte	0x333
 11913 0333 0B       		.uleb128 0xb
 11914 0334 3E030000 		.4byte	0x33e
 11915 0338 0C       		.uleb128 0xc
 11916 0339 3E030000 		.4byte	0x33e
 11917 033d 00       		.byte	0
 11918 033e 0D       		.uleb128 0xd
 11919 033f 04       		.byte	0x4
 11920 0340 03       		.uleb128 0x3
 11921 0341 14140000 		.4byte	.LASF64
 11922 0345 06       		.byte	0x6
 11923 0346 61       		.byte	0x61
 11924 0347 4B030000 		.4byte	0x34b
 11925 034b 0A       		.uleb128 0xa
 11926 034c BF310000 		.4byte	.LASF65
 11927 0350 14       		.byte	0x14
 11928 0351 07       		.byte	0x7
 11929 0352 6B01     		.2byte	0x16b
 11930 0354 9A030000 		.4byte	0x39a
 11931 0358 08       		.uleb128 0x8
 11932 0359 58140000 		.4byte	.LASF66
 11933 035d 07       		.byte	0x7
 11934 035e 6C01     		.2byte	0x16c
 11935 0360 2A070000 		.4byte	0x72a
 11936 0364 00       		.byte	0
 11937 0365 08       		.uleb128 0x8
 11938 0366 140E0000 		.4byte	.LASF67
 11939 036a 07       		.byte	0x7
 11940 036b 6D01     		.2byte	0x16d
 11941 036d 2A070000 		.4byte	0x72a
 11942 0371 04       		.byte	0x4
 11943 0372 08       		.uleb128 0x8
 11944 0373 001F0000 		.4byte	.LASF68
 11945 0377 07       		.byte	0x7
 11946 0378 6E01     		.2byte	0x16e
 11947 037a 47010000 		.4byte	0x147
 11948 037e 08       		.byte	0x8
 11949 037f 08       		.uleb128 0x8
 11950 0380 82310000 		.4byte	.LASF69
 11951 0384 07       		.byte	0x7
 11952 0385 6F01     		.2byte	0x16f
 11953 0387 22030000 		.4byte	0x322
 11954 038b 0C       		.byte	0xc
 11955 038c 08       		.uleb128 0x8
ARM GAS  /tmp/ccRrg1qB.s 			page 214


 11956 038d 72100000 		.4byte	.LASF70
 11957 0391 07       		.byte	0x7
 11958 0392 7101     		.2byte	0x171
 11959 0394 3E030000 		.4byte	0x33e
 11960 0398 10       		.byte	0x10
 11961 0399 00       		.byte	0
 11962 039a 03       		.uleb128 0x3
 11963 039b 17330000 		.4byte	.LASF71
 11964 039f 06       		.byte	0x6
 11965 03a0 66       		.byte	0x66
 11966 03a1 A5030000 		.4byte	0x3a5
 11967 03a5 0A       		.uleb128 0xa
 11968 03a6 CF050000 		.4byte	.LASF72
 11969 03aa 10       		.byte	0x10
 11970 03ab 07       		.byte	0x7
 11971 03ac 7B01     		.2byte	0x17b
 11972 03ae E7030000 		.4byte	0x3e7
 11973 03b2 08       		.uleb128 0x8
 11974 03b3 58140000 		.4byte	.LASF66
 11975 03b7 07       		.byte	0x7
 11976 03b8 7C01     		.2byte	0x17c
 11977 03ba 2A070000 		.4byte	0x72a
 11978 03be 00       		.byte	0
 11979 03bf 08       		.uleb128 0x8
 11980 03c0 140E0000 		.4byte	.LASF67
 11981 03c4 07       		.byte	0x7
 11982 03c5 7E01     		.2byte	0x17e
 11983 03c7 2A070000 		.4byte	0x72a
 11984 03cb 04       		.byte	0x4
 11985 03cc 08       		.uleb128 0x8
 11986 03cd 001F0000 		.4byte	.LASF68
 11987 03d1 07       		.byte	0x7
 11988 03d2 8001     		.2byte	0x180
 11989 03d4 47010000 		.4byte	0x147
 11990 03d8 08       		.byte	0x8
 11991 03d9 08       		.uleb128 0x8
 11992 03da C4020000 		.4byte	.LASF73
 11993 03de 07       		.byte	0x7
 11994 03df 8201     		.2byte	0x182
 11995 03e1 30070000 		.4byte	0x730
 11996 03e5 0C       		.byte	0xc
 11997 03e6 00       		.byte	0
 11998 03e7 03       		.uleb128 0x3
 11999 03e8 3A100000 		.4byte	.LASF74
 12000 03ec 06       		.byte	0x6
 12001 03ed 6B       		.byte	0x6b
 12002 03ee F2030000 		.4byte	0x3f2
 12003 03f2 0A       		.uleb128 0xa
 12004 03f3 BA2D0000 		.4byte	.LASF75
 12005 03f7 04       		.byte	0x4
 12006 03f8 07       		.byte	0x7
 12007 03f9 A201     		.2byte	0x1a2
 12008 03fb 0D040000 		.4byte	0x40d
 12009 03ff 08       		.uleb128 0x8
 12010 0400 EC1D0000 		.4byte	.LASF76
 12011 0404 07       		.byte	0x7
 12012 0405 AA01     		.2byte	0x1aa
ARM GAS  /tmp/ccRrg1qB.s 			page 215


 12013 0407 35070000 		.4byte	0x735
 12014 040b 00       		.byte	0
 12015 040c 00       		.byte	0
 12016 040d 03       		.uleb128 0x3
 12017 040e 64010000 		.4byte	.LASF77
 12018 0412 06       		.byte	0x6
 12019 0413 70       		.byte	0x70
 12020 0414 18040000 		.4byte	0x418
 12021 0418 0E       		.uleb128 0xe
 12022 0419 B9220000 		.4byte	.LASF78
 12023 041d 5001     		.2byte	0x150
 12024 041f 07       		.byte	0x7
 12025 0420 C201     		.2byte	0x1c2
 12026 0422 74040000 		.4byte	0x474
 12027 0426 08       		.uleb128 0x8
 12028 0427 DD080000 		.4byte	.LASF79
 12029 042b 07       		.byte	0x7
 12030 042c C601     		.2byte	0x1c6
 12031 042e BB020000 		.4byte	0x2bb
 12032 0432 00       		.byte	0
 12033 0433 08       		.uleb128 0x8
 12034 0434 2B080000 		.4byte	.LASF80
 12035 0438 07       		.byte	0x7
 12036 0439 CA01     		.2byte	0x1ca
 12037 043b 9A030000 		.4byte	0x39a
 12038 043f 1C       		.byte	0x1c
 12039 0440 07       		.uleb128 0x7
 12040 0441 64626700 		.ascii	"dbg\000"
 12041 0445 07       		.byte	0x7
 12042 0446 CE01     		.2byte	0x1ce
 12043 0448 E7030000 		.4byte	0x3e7
 12044 044c 2C       		.byte	0x2c
 12045 044d 08       		.uleb128 0x8
 12046 044e D2230000 		.4byte	.LASF81
 12047 0452 07       		.byte	0x7
 12048 0453 D201     		.2byte	0x1d2
 12049 0455 52010000 		.4byte	0x152
 12050 0459 30       		.byte	0x30
 12051 045a 07       		.uleb128 0x7
 12052 045b 746D00   		.ascii	"tm\000"
 12053 045e 07       		.byte	0x7
 12054 045f D701     		.2byte	0x1d7
 12055 0461 48060000 		.4byte	0x648
 12056 0465 74       		.byte	0x74
 12057 0466 08       		.uleb128 0x8
 12058 0467 67310000 		.4byte	.LASF82
 12059 046b 07       		.byte	0x7
 12060 046c E301     		.2byte	0x1e3
 12061 046e 3A070000 		.4byte	0x73a
 12062 0472 78       		.byte	0x78
 12063 0473 00       		.byte	0
 12064 0474 04       		.uleb128 0x4
 12065 0475 04       		.byte	0x4
 12066 0476 07       		.byte	0x7
 12067 0477 091F0000 		.4byte	.LASF83
 12068 047b 0F       		.uleb128 0xf
 12069 047c CE000000 		.4byte	0xce
ARM GAS  /tmp/ccRrg1qB.s 			page 216


 12070 0480 10       		.uleb128 0x10
 12071 0481 10       		.byte	0x10
 12072 0482 08       		.byte	0x8
 12073 0483 A701     		.2byte	0x1a7
 12074 0485 BE040000 		.4byte	0x4be
 12075 0489 07       		.uleb128 0x7
 12076 048a 43435200 		.ascii	"CCR\000"
 12077 048e 08       		.byte	0x8
 12078 048f A901     		.2byte	0x1a9
 12079 0491 7B040000 		.4byte	0x47b
 12080 0495 00       		.byte	0
 12081 0496 08       		.uleb128 0x8
 12082 0497 56190000 		.4byte	.LASF84
 12083 049b 08       		.byte	0x8
 12084 049c AA01     		.2byte	0x1aa
 12085 049e 7B040000 		.4byte	0x47b
 12086 04a2 04       		.byte	0x4
 12087 04a3 08       		.uleb128 0x8
 12088 04a4 7B170000 		.4byte	.LASF85
 12089 04a8 08       		.byte	0x8
 12090 04a9 AB01     		.2byte	0x1ab
 12091 04ab 7B040000 		.4byte	0x47b
 12092 04af 08       		.byte	0x8
 12093 04b0 08       		.uleb128 0x8
 12094 04b1 3B050000 		.4byte	.LASF86
 12095 04b5 08       		.byte	0x8
 12096 04b6 AC01     		.2byte	0x1ac
 12097 04b8 7B040000 		.4byte	0x47b
 12098 04bc 0C       		.byte	0xc
 12099 04bd 00       		.byte	0
 12100 04be 11       		.uleb128 0x11
 12101 04bf 3A310000 		.4byte	.LASF87
 12102 04c3 08       		.byte	0x8
 12103 04c4 AD01     		.2byte	0x1ad
 12104 04c6 80040000 		.4byte	0x480
 12105 04ca 10       		.uleb128 0x10
 12106 04cb 08       		.byte	0x8
 12107 04cc 08       		.byte	0x8
 12108 04cd AF01     		.2byte	0x1af
 12109 04cf EE040000 		.4byte	0x4ee
 12110 04d3 07       		.uleb128 0x7
 12111 04d4 49535200 		.ascii	"ISR\000"
 12112 04d8 08       		.byte	0x8
 12113 04d9 B101     		.2byte	0x1b1
 12114 04db 7B040000 		.4byte	0x47b
 12115 04df 00       		.byte	0
 12116 04e0 08       		.uleb128 0x8
 12117 04e1 B4150000 		.4byte	.LASF88
 12118 04e5 08       		.byte	0x8
 12119 04e6 B201     		.2byte	0x1b2
 12120 04e8 7B040000 		.4byte	0x47b
 12121 04ec 04       		.byte	0x4
 12122 04ed 00       		.byte	0
 12123 04ee 11       		.uleb128 0x11
 12124 04ef A01B0000 		.4byte	.LASF89
 12125 04f3 08       		.byte	0x8
 12126 04f4 B301     		.2byte	0x1b3
ARM GAS  /tmp/ccRrg1qB.s 			page 217


 12127 04f6 CA040000 		.4byte	0x4ca
 12128 04fa 10       		.uleb128 0x10
 12129 04fb 24       		.byte	0x24
 12130 04fc 08       		.byte	0x8
 12131 04fd 5E03     		.2byte	0x35e
 12132 04ff 77050000 		.4byte	0x577
 12133 0503 07       		.uleb128 0x7
 12134 0504 43523100 		.ascii	"CR1\000"
 12135 0508 08       		.byte	0x8
 12136 0509 6003     		.2byte	0x360
 12137 050b 7B040000 		.4byte	0x47b
 12138 050f 00       		.byte	0
 12139 0510 07       		.uleb128 0x7
 12140 0511 43523200 		.ascii	"CR2\000"
 12141 0515 08       		.byte	0x8
 12142 0516 6103     		.2byte	0x361
 12143 0518 7B040000 		.4byte	0x47b
 12144 051c 04       		.byte	0x4
 12145 051d 07       		.uleb128 0x7
 12146 051e 535200   		.ascii	"SR\000"
 12147 0521 08       		.byte	0x8
 12148 0522 6203     		.2byte	0x362
 12149 0524 7B040000 		.4byte	0x47b
 12150 0528 08       		.byte	0x8
 12151 0529 07       		.uleb128 0x7
 12152 052a 445200   		.ascii	"DR\000"
 12153 052d 08       		.byte	0x8
 12154 052e 6303     		.2byte	0x363
 12155 0530 7B040000 		.4byte	0x47b
 12156 0534 0C       		.byte	0xc
 12157 0535 08       		.uleb128 0x8
 12158 0536 E20A0000 		.4byte	.LASF90
 12159 053a 08       		.byte	0x8
 12160 053b 6403     		.2byte	0x364
 12161 053d 7B040000 		.4byte	0x47b
 12162 0541 10       		.byte	0x10
 12163 0542 08       		.uleb128 0x8
 12164 0543 3D120000 		.4byte	.LASF91
 12165 0547 08       		.byte	0x8
 12166 0548 6503     		.2byte	0x365
 12167 054a 7B040000 		.4byte	0x47b
 12168 054e 14       		.byte	0x14
 12169 054f 08       		.uleb128 0x8
 12170 0550 B4100000 		.4byte	.LASF92
 12171 0554 08       		.byte	0x8
 12172 0555 6603     		.2byte	0x366
 12173 0557 7B040000 		.4byte	0x47b
 12174 055b 18       		.byte	0x18
 12175 055c 08       		.uleb128 0x8
 12176 055d 2B2F0000 		.4byte	.LASF93
 12177 0561 08       		.byte	0x8
 12178 0562 6703     		.2byte	0x367
 12179 0564 CE000000 		.4byte	0xce
 12180 0568 1C       		.byte	0x1c
 12181 0569 08       		.uleb128 0x8
 12182 056a 352F0000 		.4byte	.LASF94
 12183 056e 08       		.byte	0x8
ARM GAS  /tmp/ccRrg1qB.s 			page 218


 12184 056f 6803     		.2byte	0x368
 12185 0571 CE000000 		.4byte	0xce
 12186 0575 20       		.byte	0x20
 12187 0576 00       		.byte	0
 12188 0577 11       		.uleb128 0x11
 12189 0578 76310000 		.4byte	.LASF95
 12190 057c 08       		.byte	0x8
 12191 057d 6903     		.2byte	0x369
 12192 057f FA040000 		.4byte	0x4fa
 12193 0583 03       		.uleb128 0x3
 12194 0584 D4250000 		.4byte	.LASF96
 12195 0588 09       		.byte	0x9
 12196 0589 65       		.byte	0x65
 12197 058a 3E030000 		.4byte	0x33e
 12198 058e 03       		.uleb128 0x3
 12199 058f 5F0D0000 		.4byte	.LASF97
 12200 0593 09       		.byte	0x9
 12201 0594 6D       		.byte	0x6d
 12202 0595 D9000000 		.4byte	0xd9
 12203 0599 05       		.uleb128 0x5
 12204 059a C5240000 		.4byte	.LASF98
 12205 059e 04       		.byte	0x4
 12206 059f 09       		.byte	0x9
 12207 05a0 89       		.byte	0x89
 12208 05a1 B2050000 		.4byte	0x5b2
 12209 05a5 12       		.uleb128 0x12
 12210 05a6 72313300 		.ascii	"r13\000"
 12211 05aa 09       		.byte	0x9
 12212 05ab 8A       		.byte	0x8a
 12213 05ac 2D060000 		.4byte	0x62d
 12214 05b0 00       		.byte	0
 12215 05b1 00       		.byte	0
 12216 05b2 05       		.uleb128 0x5
 12217 05b3 00000000 		.4byte	.LASF99
 12218 05b7 24       		.byte	0x24
 12219 05b8 0A       		.byte	0xa
 12220 05b9 FD       		.byte	0xfd
 12221 05ba 2D060000 		.4byte	0x62d
 12222 05be 07       		.uleb128 0x7
 12223 05bf 723400   		.ascii	"r4\000"
 12224 05c2 0A       		.byte	0xa
 12225 05c3 1001     		.2byte	0x110
 12226 05c5 83050000 		.4byte	0x583
 12227 05c9 00       		.byte	0
 12228 05ca 07       		.uleb128 0x7
 12229 05cb 723500   		.ascii	"r5\000"
 12230 05ce 0A       		.byte	0xa
 12231 05cf 1101     		.2byte	0x111
 12232 05d1 83050000 		.4byte	0x583
 12233 05d5 04       		.byte	0x4
 12234 05d6 07       		.uleb128 0x7
 12235 05d7 723600   		.ascii	"r6\000"
 12236 05da 0A       		.byte	0xa
 12237 05db 1201     		.2byte	0x112
 12238 05dd 83050000 		.4byte	0x583
 12239 05e1 08       		.byte	0x8
 12240 05e2 07       		.uleb128 0x7
ARM GAS  /tmp/ccRrg1qB.s 			page 219


 12241 05e3 723700   		.ascii	"r7\000"
 12242 05e6 0A       		.byte	0xa
 12243 05e7 1301     		.2byte	0x113
 12244 05e9 83050000 		.4byte	0x583
 12245 05ed 0C       		.byte	0xc
 12246 05ee 07       		.uleb128 0x7
 12247 05ef 723800   		.ascii	"r8\000"
 12248 05f2 0A       		.byte	0xa
 12249 05f3 1401     		.2byte	0x114
 12250 05f5 83050000 		.4byte	0x583
 12251 05f9 10       		.byte	0x10
 12252 05fa 07       		.uleb128 0x7
 12253 05fb 723900   		.ascii	"r9\000"
 12254 05fe 0A       		.byte	0xa
 12255 05ff 1501     		.2byte	0x115
 12256 0601 83050000 		.4byte	0x583
 12257 0605 14       		.byte	0x14
 12258 0606 07       		.uleb128 0x7
 12259 0607 72313000 		.ascii	"r10\000"
 12260 060b 0A       		.byte	0xa
 12261 060c 1601     		.2byte	0x116
 12262 060e 83050000 		.4byte	0x583
 12263 0612 18       		.byte	0x18
 12264 0613 07       		.uleb128 0x7
 12265 0614 72313100 		.ascii	"r11\000"
 12266 0618 0A       		.byte	0xa
 12267 0619 1701     		.2byte	0x117
 12268 061b 83050000 		.4byte	0x583
 12269 061f 1C       		.byte	0x1c
 12270 0620 07       		.uleb128 0x7
 12271 0621 6C7200   		.ascii	"lr\000"
 12272 0624 0A       		.byte	0xa
 12273 0625 1801     		.2byte	0x118
 12274 0627 83050000 		.4byte	0x583
 12275 062b 20       		.byte	0x20
 12276 062c 00       		.byte	0
 12277 062d 09       		.uleb128 0x9
 12278 062e 04       		.byte	0x4
 12279 062f B2050000 		.4byte	0x5b2
 12280 0633 13       		.uleb128 0x13
 12281 0634 04       		.byte	0x4
 12282 0635 0B       		.byte	0xb
 12283 0636 38       		.byte	0x38
 12284 0637 48060000 		.4byte	0x648
 12285 063b 06       		.uleb128 0x6
 12286 063c CF300000 		.4byte	.LASF100
 12287 0640 0B       		.byte	0xb
 12288 0641 3C       		.byte	0x3c
 12289 0642 E4000000 		.4byte	0xe4
 12290 0646 00       		.byte	0
 12291 0647 00       		.byte	0
 12292 0648 03       		.uleb128 0x3
 12293 0649 79360000 		.4byte	.LASF101
 12294 064d 0B       		.byte	0xb
 12295 064e 3D       		.byte	0x3d
 12296 064f 33060000 		.4byte	0x633
 12297 0653 14       		.uleb128 0x14
ARM GAS  /tmp/ccRrg1qB.s 			page 220


 12298 0654 04       		.byte	0x4
 12299 0655 07       		.byte	0x7
 12300 0656 FA       		.byte	0xfa
 12301 0657 B0060000 		.4byte	0x6b0
 12302 065b 15       		.uleb128 0x15
 12303 065c 96180000 		.4byte	.LASF102
 12304 0660 07       		.byte	0x7
 12305 0661 0101     		.2byte	0x101
 12306 0663 26010000 		.4byte	0x126
 12307 0667 15       		.uleb128 0x15
 12308 0668 22160000 		.4byte	.LASF103
 12309 066c 07       		.byte	0x7
 12310 066d 0801     		.2byte	0x108
 12311 066f 26010000 		.4byte	0x126
 12312 0673 15       		.uleb128 0x15
 12313 0674 662C0000 		.4byte	.LASF104
 12314 0678 07       		.byte	0x7
 12315 0679 0F01     		.2byte	0x10f
 12316 067b 3E030000 		.4byte	0x33e
 12317 067f 15       		.uleb128 0x15
 12318 0680 BF240000 		.4byte	.LASF105
 12319 0684 07       		.byte	0x7
 12320 0685 1601     		.2byte	0x116
 12321 0687 B0060000 		.4byte	0x6b0
 12322 068b 15       		.uleb128 0x15
 12323 068c 7A010000 		.4byte	.LASF106
 12324 0690 07       		.byte	0x7
 12325 0691 1E01     		.2byte	0x11e
 12326 0693 DB060000 		.4byte	0x6db
 12327 0697 15       		.uleb128 0x15
 12328 0698 A62C0000 		.4byte	.LASF107
 12329 069c 07       		.byte	0x7
 12330 069d 2701     		.2byte	0x127
 12331 069f 12070000 		.4byte	0x712
 12332 06a3 15       		.uleb128 0x15
 12333 06a4 ED310000 		.4byte	.LASF108
 12334 06a8 07       		.byte	0x7
 12335 06a9 2F01     		.2byte	0x12f
 12336 06ab 31010000 		.4byte	0x131
 12337 06af 00       		.byte	0
 12338 06b0 09       		.uleb128 0x9
 12339 06b1 04       		.byte	0x4
 12340 06b2 56020000 		.4byte	0x256
 12341 06b6 05       		.uleb128 0x5
 12342 06b7 49230000 		.4byte	.LASF109
 12343 06bb 0C       		.byte	0xc
 12344 06bc 0C       		.byte	0xc
 12345 06bd 34       		.byte	0x34
 12346 06be DB060000 		.4byte	0x6db
 12347 06c2 06       		.uleb128 0x6
 12348 06c3 75330000 		.4byte	.LASF110
 12349 06c7 0C       		.byte	0xc
 12350 06c8 35       		.byte	0x35
 12351 06c9 8B020000 		.4byte	0x28b
 12352 06cd 00       		.byte	0
 12353 06ce 06       		.uleb128 0x6
 12354 06cf 790E0000 		.4byte	.LASF111
ARM GAS  /tmp/ccRrg1qB.s 			page 221


 12355 06d3 0C       		.byte	0xc
 12356 06d4 37       		.byte	0x37
 12357 06d5 3C010000 		.4byte	0x13c
 12358 06d9 08       		.byte	0x8
 12359 06da 00       		.byte	0
 12360 06db 09       		.uleb128 0x9
 12361 06dc 04       		.byte	0x4
 12362 06dd B6060000 		.4byte	0x6b6
 12363 06e1 05       		.uleb128 0x5
 12364 06e2 7D120000 		.4byte	.LASF112
 12365 06e6 10       		.byte	0x10
 12366 06e7 0D       		.byte	0xd
 12367 06e8 39       		.byte	0x39
 12368 06e9 12070000 		.4byte	0x712
 12369 06ed 06       		.uleb128 0x6
 12370 06ee DD230000 		.4byte	.LASF113
 12371 06f2 0D       		.byte	0xd
 12372 06f3 3A       		.byte	0x3a
 12373 06f4 8B020000 		.4byte	0x28b
 12374 06f8 00       		.byte	0
 12375 06f9 06       		.uleb128 0x6
 12376 06fa 5D210000 		.4byte	.LASF114
 12377 06fe 0D       		.byte	0xd
 12378 06ff 3C       		.byte	0x3c
 12379 0700 61020000 		.4byte	0x261
 12380 0704 08       		.byte	0x8
 12381 0705 06       		.uleb128 0x6
 12382 0706 19030000 		.4byte	.LASF115
 12383 070a 0D       		.byte	0xd
 12384 070b 3E       		.byte	0x3e
 12385 070c 55070000 		.4byte	0x755
 12386 0710 0C       		.byte	0xc
 12387 0711 00       		.byte	0
 12388 0712 09       		.uleb128 0x9
 12389 0713 04       		.byte	0x4
 12390 0714 E1060000 		.4byte	0x6e1
 12391 0718 09       		.uleb128 0x9
 12392 0719 04       		.byte	0x4
 12393 071a 1E070000 		.4byte	0x71e
 12394 071e 16       		.uleb128 0x16
 12395 071f 23070000 		.4byte	0x723
 12396 0723 04       		.uleb128 0x4
 12397 0724 01       		.byte	0x1
 12398 0725 08       		.byte	0x8
 12399 0726 AA270000 		.4byte	.LASF116
 12400 072a 09       		.uleb128 0x9
 12401 072b 04       		.byte	0x4
 12402 072c 40030000 		.4byte	0x340
 12403 0730 0F       		.uleb128 0xf
 12404 0731 47010000 		.4byte	0x147
 12405 0735 0F       		.uleb128 0xf
 12406 0736 18070000 		.4byte	0x718
 12407 073a 17       		.uleb128 0x17
 12408 073b 8E050000 		.4byte	0x58e
 12409 073f 4A070000 		.4byte	0x74a
 12410 0743 18       		.uleb128 0x18
 12411 0744 74040000 		.4byte	0x474
ARM GAS  /tmp/ccRrg1qB.s 			page 222


 12412 0748 1A       		.byte	0x1a
 12413 0749 00       		.byte	0
 12414 074a 03       		.uleb128 0x3
 12415 074b AF2E0000 		.4byte	.LASF117
 12416 074f 0D       		.byte	0xd
 12417 0750 34       		.byte	0x34
 12418 0751 E1060000 		.4byte	0x6e1
 12419 0755 09       		.uleb128 0x9
 12420 0756 04       		.byte	0x4
 12421 0757 4A070000 		.4byte	0x74a
 12422 075b 13       		.uleb128 0x13
 12423 075c 14       		.byte	0x14
 12424 075d 0E       		.byte	0xe
 12425 075e E4       		.byte	0xe4
 12426 075f B8070000 		.4byte	0x7b8
 12427 0763 12       		.uleb128 0x12
 12428 0764 646D6100 		.ascii	"dma\000"
 12429 0768 0E       		.byte	0xe
 12430 0769 E5       		.byte	0xe5
 12431 076a B8070000 		.4byte	0x7b8
 12432 076e 00       		.byte	0
 12433 076f 06       		.uleb128 0x6
 12434 0770 021A0000 		.4byte	.LASF118
 12435 0774 0E       		.byte	0xe
 12436 0775 E6       		.byte	0xe6
 12437 0776 BE070000 		.4byte	0x7be
 12438 077a 04       		.byte	0x4
 12439 077b 06       		.uleb128 0x6
 12440 077c AE2A0000 		.4byte	.LASF119
 12441 0780 0E       		.byte	0xe
 12442 0781 E7       		.byte	0xe7
 12443 0782 CE000000 		.4byte	0xce
 12444 0786 08       		.byte	0x8
 12445 0787 06       		.uleb128 0x6
 12446 0788 CA330000 		.4byte	.LASF120
 12447 078c 0E       		.byte	0xe
 12448 078d E9       		.byte	0xe9
 12449 078e C4070000 		.4byte	0x7c4
 12450 0792 0C       		.byte	0xc
 12451 0793 06       		.uleb128 0x6
 12452 0794 B0140000 		.4byte	.LASF121
 12453 0798 0E       		.byte	0xe
 12454 0799 EA       		.byte	0xea
 12455 079a AD000000 		.4byte	0xad
 12456 079e 10       		.byte	0x10
 12457 079f 06       		.uleb128 0x6
 12458 07a0 922E0000 		.4byte	.LASF122
 12459 07a4 0E       		.byte	0xe
 12460 07a5 EC       		.byte	0xec
 12461 07a6 AD000000 		.4byte	0xad
 12462 07aa 11       		.byte	0x11
 12463 07ab 06       		.uleb128 0x6
 12464 07ac E6050000 		.4byte	.LASF123
 12465 07b0 0E       		.byte	0xe
 12466 07b1 ED       		.byte	0xed
 12467 07b2 AD000000 		.4byte	0xad
 12468 07b6 12       		.byte	0x12
ARM GAS  /tmp/ccRrg1qB.s 			page 223


 12469 07b7 00       		.byte	0
 12470 07b8 09       		.uleb128 0x9
 12471 07b9 04       		.byte	0x4
 12472 07ba EE040000 		.4byte	0x4ee
 12473 07be 09       		.uleb128 0x9
 12474 07bf 04       		.byte	0x4
 12475 07c0 BE040000 		.4byte	0x4be
 12476 07c4 09       		.uleb128 0x9
 12477 07c5 04       		.byte	0x4
 12478 07c6 7B040000 		.4byte	0x47b
 12479 07ca 03       		.uleb128 0x3
 12480 07cb FD1B0000 		.4byte	.LASF124
 12481 07cf 0E       		.byte	0xe
 12482 07d0 EE       		.byte	0xee
 12483 07d1 5B070000 		.4byte	0x75b
 12484 07d5 04       		.uleb128 0x4
 12485 07d6 01       		.byte	0x1
 12486 07d7 02       		.byte	0x2
 12487 07d8 9F010000 		.4byte	.LASF125
 12488 07dc 13       		.uleb128 0x13
 12489 07dd 04       		.byte	0x4
 12490 07de 0F       		.byte	0xf
 12491 07df EE       		.byte	0xee
 12492 07e0 FD070000 		.4byte	0x7fd
 12493 07e4 12       		.uleb128 0x12
 12494 07e5 73657400 		.ascii	"set\000"
 12495 07e9 0F       		.byte	0xf
 12496 07ea EF       		.byte	0xef
 12497 07eb B8000000 		.4byte	0xb8
 12498 07ef 00       		.byte	0
 12499 07f0 06       		.uleb128 0x6
 12500 07f1 49150000 		.4byte	.LASF126
 12501 07f5 0F       		.byte	0xf
 12502 07f6 F0       		.byte	0xf0
 12503 07f7 B8000000 		.4byte	0xb8
 12504 07fb 02       		.byte	0x2
 12505 07fc 00       		.byte	0
 12506 07fd 14       		.uleb128 0x14
 12507 07fe 04       		.byte	0x4
 12508 07ff 0F       		.byte	0xf
 12509 0800 EC       		.byte	0xec
 12510 0801 18080000 		.4byte	0x818
 12511 0805 19       		.uleb128 0x19
 12512 0806 5700     		.ascii	"W\000"
 12513 0808 0F       		.byte	0xf
 12514 0809 ED       		.byte	0xed
 12515 080a CE000000 		.4byte	0xce
 12516 080e 19       		.uleb128 0x19
 12517 080f 4800     		.ascii	"H\000"
 12518 0811 0F       		.byte	0xf
 12519 0812 F1       		.byte	0xf1
 12520 0813 DC070000 		.4byte	0x7dc
 12521 0817 00       		.byte	0
 12522 0818 13       		.uleb128 0x13
 12523 0819 30       		.byte	0x30
 12524 081a 0F       		.byte	0xf
 12525 081b E4       		.byte	0xe4
ARM GAS  /tmp/ccRrg1qB.s 			page 224


 12526 081c B1080000 		.4byte	0x8b1
 12527 0820 06       		.uleb128 0x6
 12528 0821 DC2E0000 		.4byte	.LASF127
 12529 0825 0F       		.byte	0xf
 12530 0826 E6       		.byte	0xe6
 12531 0827 7B040000 		.4byte	0x47b
 12532 082b 00       		.byte	0
 12533 082c 06       		.uleb128 0x6
 12534 082d 45050000 		.4byte	.LASF128
 12535 0831 0F       		.byte	0xf
 12536 0832 E7       		.byte	0xe7
 12537 0833 7B040000 		.4byte	0x47b
 12538 0837 04       		.byte	0x4
 12539 0838 06       		.uleb128 0x6
 12540 0839 10170000 		.4byte	.LASF129
 12541 083d 0F       		.byte	0xf
 12542 083e E8       		.byte	0xe8
 12543 083f 7B040000 		.4byte	0x47b
 12544 0843 08       		.byte	0x8
 12545 0844 06       		.uleb128 0x6
 12546 0845 872D0000 		.4byte	.LASF130
 12547 0849 0F       		.byte	0xf
 12548 084a E9       		.byte	0xe9
 12549 084b 7B040000 		.4byte	0x47b
 12550 084f 0C       		.byte	0xc
 12551 0850 12       		.uleb128 0x12
 12552 0851 49445200 		.ascii	"IDR\000"
 12553 0855 0F       		.byte	0xf
 12554 0856 EA       		.byte	0xea
 12555 0857 7B040000 		.4byte	0x47b
 12556 085b 10       		.byte	0x10
 12557 085c 12       		.uleb128 0x12
 12558 085d 4F445200 		.ascii	"ODR\000"
 12559 0861 0F       		.byte	0xf
 12560 0862 EB       		.byte	0xeb
 12561 0863 7B040000 		.4byte	0x47b
 12562 0867 14       		.byte	0x14
 12563 0868 06       		.uleb128 0x6
 12564 0869 DE1B0000 		.4byte	.LASF131
 12565 086d 0F       		.byte	0xf
 12566 086e F2       		.byte	0xf2
 12567 086f B1080000 		.4byte	0x8b1
 12568 0873 18       		.byte	0x18
 12569 0874 06       		.uleb128 0x6
 12570 0875 421D0000 		.4byte	.LASF132
 12571 0879 0F       		.byte	0xf
 12572 087a F3       		.byte	0xf3
 12573 087b 7B040000 		.4byte	0x47b
 12574 087f 1C       		.byte	0x1c
 12575 0880 06       		.uleb128 0x6
 12576 0881 D32A0000 		.4byte	.LASF133
 12577 0885 0F       		.byte	0xf
 12578 0886 F4       		.byte	0xf4
 12579 0887 7B040000 		.4byte	0x47b
 12580 088b 20       		.byte	0x20
 12581 088c 06       		.uleb128 0x6
 12582 088d CE2A0000 		.4byte	.LASF134
ARM GAS  /tmp/ccRrg1qB.s 			page 225


 12583 0891 0F       		.byte	0xf
 12584 0892 F5       		.byte	0xf5
 12585 0893 7B040000 		.4byte	0x47b
 12586 0897 24       		.byte	0x24
 12587 0898 12       		.uleb128 0x12
 12588 0899 42525200 		.ascii	"BRR\000"
 12589 089d 0F       		.byte	0xf
 12590 089e F6       		.byte	0xf6
 12591 089f 7B040000 		.4byte	0x47b
 12592 08a3 28       		.byte	0x28
 12593 08a4 06       		.uleb128 0x6
 12594 08a5 D32B0000 		.4byte	.LASF135
 12595 08a9 0F       		.byte	0xf
 12596 08aa F7       		.byte	0xf7
 12597 08ab 7B040000 		.4byte	0x47b
 12598 08af 2C       		.byte	0x2c
 12599 08b0 00       		.byte	0
 12600 08b1 0F       		.uleb128 0xf
 12601 08b2 FD070000 		.4byte	0x7fd
 12602 08b6 03       		.uleb128 0x3
 12603 08b7 89180000 		.4byte	.LASF136
 12604 08bb 0F       		.byte	0xf
 12605 08bc F8       		.byte	0xf8
 12606 08bd 18080000 		.4byte	0x818
 12607 08c1 11       		.uleb128 0x11
 12608 08c2 04240000 		.4byte	.LASF137
 12609 08c6 0F       		.byte	0xf
 12610 08c7 5D01     		.2byte	0x15d
 12611 08c9 CD080000 		.4byte	0x8cd
 12612 08cd 09       		.uleb128 0x9
 12613 08ce 04       		.byte	0x4
 12614 08cf B6080000 		.4byte	0x8b6
 12615 08d3 09       		.uleb128 0x9
 12616 08d4 04       		.byte	0x4
 12617 08d5 D9080000 		.4byte	0x8d9
 12618 08d9 16       		.uleb128 0x16
 12619 08da CA070000 		.4byte	0x7ca
 12620 08de 1A       		.uleb128 0x1a
 12621 08df 01       		.byte	0x1
 12622 08e0 10       		.byte	0x10
 12623 08e1 46       		.byte	0x46
 12624 08e2 05090000 		.4byte	0x905
 12625 08e6 1B       		.uleb128 0x1b
 12626 08e7 900A0000 		.4byte	.LASF138
 12627 08eb 00       		.sleb128 0
 12628 08ec 1B       		.uleb128 0x1b
 12629 08ed 7E040000 		.4byte	.LASF139
 12630 08f1 01       		.sleb128 1
 12631 08f2 1B       		.uleb128 0x1b
 12632 08f3 C2340000 		.4byte	.LASF140
 12633 08f7 02       		.sleb128 2
 12634 08f8 1B       		.uleb128 0x1b
 12635 08f9 D6190000 		.4byte	.LASF141
 12636 08fd 03       		.sleb128 3
 12637 08fe 1B       		.uleb128 0x1b
 12638 08ff 091E0000 		.4byte	.LASF142
 12639 0903 04       		.sleb128 4
ARM GAS  /tmp/ccRrg1qB.s 			page 226


 12640 0904 00       		.byte	0
 12641 0905 03       		.uleb128 0x3
 12642 0906 4C050000 		.4byte	.LASF143
 12643 090a 10       		.byte	0x10
 12644 090b 4C       		.byte	0x4c
 12645 090c DE080000 		.4byte	0x8de
 12646 0910 11       		.uleb128 0x11
 12647 0911 4D320000 		.4byte	.LASF144
 12648 0915 11       		.byte	0x11
 12649 0916 9601     		.2byte	0x196
 12650 0918 1C090000 		.4byte	0x91c
 12651 091c 0A       		.uleb128 0xa
 12652 091d 4D320000 		.4byte	.LASF144
 12653 0921 30       		.byte	0x30
 12654 0922 11       		.byte	0x11
 12655 0923 BE01     		.2byte	0x1be
 12656 0925 9F090000 		.4byte	0x99f
 12657 0929 08       		.uleb128 0x8
 12658 092a CF210000 		.4byte	.LASF145
 12659 092e 11       		.byte	0x11
 12660 092f C201     		.2byte	0x1c2
 12661 0931 05090000 		.4byte	0x905
 12662 0935 00       		.byte	0
 12663 0936 08       		.uleb128 0x8
 12664 0937 962B0000 		.4byte	.LASF146
 12665 093b 11       		.byte	0x11
 12666 093c C601     		.2byte	0x1c6
 12667 093e 190A0000 		.4byte	0xa19
 12668 0942 04       		.byte	0x4
 12669 0943 08       		.uleb128 0x8
 12670 0944 890A0000 		.4byte	.LASF147
 12671 0948 11       		.byte	0x11
 12672 0949 CB01     		.2byte	0x1cb
 12673 094b 56020000 		.4byte	0x256
 12674 094f 08       		.byte	0x8
 12675 0950 08       		.uleb128 0x8
 12676 0951 F0140000 		.4byte	.LASF148
 12677 0955 11       		.byte	0x11
 12678 0956 D101     		.2byte	0x1d1
 12679 0958 4A070000 		.4byte	0x74a
 12680 095c 0C       		.byte	0xc
 12681 095d 07       		.uleb128 0x7
 12682 095e 73706900 		.ascii	"spi\000"
 12683 0962 11       		.byte	0x11
 12684 0963 DA01     		.2byte	0x1da
 12685 0965 240A0000 		.4byte	0xa24
 12686 0969 1C       		.byte	0x1c
 12687 096a 08       		.uleb128 0x8
 12688 096b BA010000 		.4byte	.LASF149
 12689 096f 11       		.byte	0x11
 12690 0970 DE01     		.2byte	0x1de
 12691 0972 D3080000 		.4byte	0x8d3
 12692 0976 20       		.byte	0x20
 12693 0977 08       		.uleb128 0x8
 12694 0978 C6030000 		.4byte	.LASF150
 12695 097c 11       		.byte	0x11
 12696 097d E201     		.2byte	0x1e2
ARM GAS  /tmp/ccRrg1qB.s 			page 227


 12697 097f D3080000 		.4byte	0x8d3
 12698 0983 24       		.byte	0x24
 12699 0984 08       		.uleb128 0x8
 12700 0985 5B0C0000 		.4byte	.LASF151
 12701 0989 11       		.byte	0x11
 12702 098a E601     		.2byte	0x1e6
 12703 098c CE000000 		.4byte	0xce
 12704 0990 28       		.byte	0x28
 12705 0991 08       		.uleb128 0x8
 12706 0992 070D0000 		.4byte	.LASF152
 12707 0996 11       		.byte	0x11
 12708 0997 EA01     		.2byte	0x1ea
 12709 0999 CE000000 		.4byte	0xce
 12710 099d 2C       		.byte	0x2c
 12711 099e 00       		.byte	0
 12712 099f 11       		.uleb128 0x11
 12713 09a0 B6020000 		.4byte	.LASF153
 12714 09a4 11       		.byte	0x11
 12715 09a5 9E01     		.2byte	0x19e
 12716 09a7 AB090000 		.4byte	0x9ab
 12717 09ab 09       		.uleb128 0x9
 12718 09ac 04       		.byte	0x4
 12719 09ad B1090000 		.4byte	0x9b1
 12720 09b1 0B       		.uleb128 0xb
 12721 09b2 BC090000 		.4byte	0x9bc
 12722 09b6 0C       		.uleb128 0xc
 12723 09b7 BC090000 		.4byte	0x9bc
 12724 09bb 00       		.byte	0
 12725 09bc 09       		.uleb128 0x9
 12726 09bd 04       		.byte	0x4
 12727 09be 10090000 		.4byte	0x910
 12728 09c2 10       		.uleb128 0x10
 12729 09c3 10       		.byte	0x10
 12730 09c4 11       		.byte	0x11
 12731 09c5 A301     		.2byte	0x1a3
 12732 09c7 0D0A0000 		.4byte	0xa0d
 12733 09cb 08       		.uleb128 0x8
 12734 09cc 1C0E0000 		.4byte	.LASF154
 12735 09d0 11       		.byte	0x11
 12736 09d1 A701     		.2byte	0x1a7
 12737 09d3 9F090000 		.4byte	0x99f
 12738 09d7 00       		.byte	0
 12739 09d8 08       		.uleb128 0x8
 12740 09d9 F7350000 		.4byte	.LASF155
 12741 09dd 11       		.byte	0x11
 12742 09de AC01     		.2byte	0x1ac
 12743 09e0 C1080000 		.4byte	0x8c1
 12744 09e4 04       		.byte	0x4
 12745 09e5 08       		.uleb128 0x8
 12746 09e6 010D0000 		.4byte	.LASF156
 12747 09ea 11       		.byte	0x11
 12748 09eb B001     		.2byte	0x1b0
 12749 09ed B8000000 		.4byte	0xb8
 12750 09f1 08       		.byte	0x8
 12751 09f2 07       		.uleb128 0x7
 12752 09f3 63723100 		.ascii	"cr1\000"
 12753 09f7 11       		.byte	0x11
ARM GAS  /tmp/ccRrg1qB.s 			page 228


 12754 09f8 B401     		.2byte	0x1b4
 12755 09fa B8000000 		.4byte	0xb8
 12756 09fe 0A       		.byte	0xa
 12757 09ff 07       		.uleb128 0x7
 12758 0a00 63723200 		.ascii	"cr2\000"
 12759 0a04 11       		.byte	0x11
 12760 0a05 B801     		.2byte	0x1b8
 12761 0a07 B8000000 		.4byte	0xb8
 12762 0a0b 0C       		.byte	0xc
 12763 0a0c 00       		.byte	0
 12764 0a0d 11       		.uleb128 0x11
 12765 0a0e 9C320000 		.4byte	.LASF157
 12766 0a12 11       		.byte	0x11
 12767 0a13 B901     		.2byte	0x1b9
 12768 0a15 C2090000 		.4byte	0x9c2
 12769 0a19 09       		.uleb128 0x9
 12770 0a1a 04       		.byte	0x4
 12771 0a1b 1F0A0000 		.4byte	0xa1f
 12772 0a1f 16       		.uleb128 0x16
 12773 0a20 0D0A0000 		.4byte	0xa0d
 12774 0a24 09       		.uleb128 0x9
 12775 0a25 04       		.byte	0x4
 12776 0a26 77050000 		.4byte	0x577
 12777 0a2a 03       		.uleb128 0x3
 12778 0a2b 66060000 		.4byte	.LASF158
 12779 0a2f 12       		.byte	0x12
 12780 0a30 38       		.byte	0x38
 12781 0a31 50000000 		.4byte	0x50
 12782 0a35 03       		.uleb128 0x3
 12783 0a36 0A170000 		.4byte	.LASF159
 12784 0a3a 12       		.byte	0x12
 12785 0a3b 39       		.byte	0x39
 12786 0a3c 69000000 		.4byte	0x69
 12787 0a40 03       		.uleb128 0x3
 12788 0a41 330A0000 		.4byte	.LASF160
 12789 0a45 12       		.byte	0x12
 12790 0a46 3C       		.byte	0x3c
 12791 0a47 57000000 		.4byte	0x57
 12792 0a4b 14       		.uleb128 0x14
 12793 0a4c 06       		.byte	0x6
 12794 0a4d 12       		.byte	0x12
 12795 0a4e 46       		.byte	0x46
 12796 0a4f 6A0A0000 		.4byte	0xa6a
 12797 0a53 1C       		.uleb128 0x1c
 12798 0a54 FA290000 		.4byte	.LASF161
 12799 0a58 12       		.byte	0x12
 12800 0a59 48       		.byte	0x48
 12801 0a5a 6A0A0000 		.4byte	0xa6a
 12802 0a5e 1C       		.uleb128 0x1c
 12803 0a5f 99090000 		.4byte	.LASF162
 12804 0a63 12       		.byte	0x12
 12805 0a64 49       		.byte	0x49
 12806 0a65 7A0A0000 		.4byte	0xa7a
 12807 0a69 00       		.byte	0
 12808 0a6a 17       		.uleb128 0x17
 12809 0a6b 400A0000 		.4byte	0xa40
 12810 0a6f 7A0A0000 		.4byte	0xa7a
ARM GAS  /tmp/ccRrg1qB.s 			page 229


 12811 0a73 18       		.uleb128 0x18
 12812 0a74 74040000 		.4byte	0x474
 12813 0a78 02       		.byte	0x2
 12814 0a79 00       		.byte	0
 12815 0a7a 17       		.uleb128 0x17
 12816 0a7b 2A0A0000 		.4byte	0xa2a
 12817 0a7f 8A0A0000 		.4byte	0xa8a
 12818 0a83 18       		.uleb128 0x18
 12819 0a84 74040000 		.4byte	0x474
 12820 0a88 05       		.byte	0x5
 12821 0a89 00       		.byte	0
 12822 0a8a 03       		.uleb128 0x3
 12823 0a8b 41140000 		.4byte	.LASF163
 12824 0a8f 12       		.byte	0x12
 12825 0a90 4A       		.byte	0x4a
 12826 0a91 4B0A0000 		.4byte	0xa4b
 12827 0a95 1A       		.uleb128 0x1a
 12828 0a96 01       		.byte	0x1
 12829 0a97 12       		.byte	0x12
 12830 0a98 59       		.byte	0x59
 12831 0a99 AA0A0000 		.4byte	0xaaa
 12832 0a9d 1B       		.uleb128 0x1b
 12833 0a9e 080C0000 		.4byte	.LASF164
 12834 0aa2 01       		.sleb128 1
 12835 0aa3 1B       		.uleb128 0x1b
 12836 0aa4 DB0C0000 		.4byte	.LASF165
 12837 0aa8 00       		.sleb128 0
 12838 0aa9 00       		.byte	0
 12839 0aaa 03       		.uleb128 0x3
 12840 0aab 671D0000 		.4byte	.LASF166
 12841 0aaf 12       		.byte	0x12
 12842 0ab0 5C       		.byte	0x5c
 12843 0ab1 950A0000 		.4byte	0xa95
 12844 0ab5 1A       		.uleb128 0x1a
 12845 0ab6 01       		.byte	0x1
 12846 0ab7 12       		.byte	0x12
 12847 0ab8 BB       		.byte	0xbb
 12848 0ab9 CB0A0000 		.4byte	0xacb
 12849 0abd 1B       		.uleb128 0x1b
 12850 0abe 7B2B0000 		.4byte	.LASF167
 12851 0ac2 00       		.sleb128 0
 12852 0ac3 1B       		.uleb128 0x1b
 12853 0ac4 711B0000 		.4byte	.LASF168
 12854 0ac8 8001     		.sleb128 128
 12855 0aca 00       		.byte	0
 12856 0acb 03       		.uleb128 0x3
 12857 0acc C41D0000 		.4byte	.LASF169
 12858 0ad0 12       		.byte	0x12
 12859 0ad1 BE       		.byte	0xbe
 12860 0ad2 B50A0000 		.4byte	0xab5
 12861 0ad6 1A       		.uleb128 0x1a
 12862 0ad7 01       		.byte	0x1
 12863 0ad8 12       		.byte	0x12
 12864 0ad9 CB       		.byte	0xcb
 12865 0ada F70A0000 		.4byte	0xaf7
 12866 0ade 1B       		.uleb128 0x1b
 12867 0adf F72C0000 		.4byte	.LASF170
ARM GAS  /tmp/ccRrg1qB.s 			page 230


 12868 0ae3 00       		.sleb128 0
 12869 0ae4 1B       		.uleb128 0x1b
 12870 0ae5 310E0000 		.4byte	.LASF171
 12871 0ae9 10       		.sleb128 16
 12872 0aea 1B       		.uleb128 0x1b
 12873 0aeb B0120000 		.4byte	.LASF172
 12874 0aef 20       		.sleb128 32
 12875 0af0 1B       		.uleb128 0x1b
 12876 0af1 F4120000 		.4byte	.LASF173
 12877 0af5 30       		.sleb128 48
 12878 0af6 00       		.byte	0
 12879 0af7 03       		.uleb128 0x3
 12880 0af8 42250000 		.4byte	.LASF174
 12881 0afc 12       		.byte	0x12
 12882 0afd D0       		.byte	0xd0
 12883 0afe D60A0000 		.4byte	0xad6
 12884 0b02 1A       		.uleb128 0x1a
 12885 0b03 01       		.byte	0x1
 12886 0b04 12       		.byte	0x12
 12887 0b05 E5       		.byte	0xe5
 12888 0b06 4D0B0000 		.4byte	0xb4d
 12889 0b0a 1B       		.uleb128 0x1b
 12890 0b0b 91000000 		.4byte	.LASF175
 12891 0b0f 00       		.sleb128 0
 12892 0b10 1B       		.uleb128 0x1b
 12893 0b11 DC0B0000 		.4byte	.LASF176
 12894 0b15 10       		.sleb128 16
 12895 0b16 1B       		.uleb128 0x1b
 12896 0b17 79290000 		.4byte	.LASF177
 12897 0b1b 20       		.sleb128 32
 12898 0b1c 1B       		.uleb128 0x1b
 12899 0b1d EA270000 		.4byte	.LASF178
 12900 0b21 30       		.sleb128 48
 12901 0b22 1B       		.uleb128 0x1b
 12902 0b23 A1250000 		.4byte	.LASF179
 12903 0b27 C000     		.sleb128 64
 12904 0b29 1B       		.uleb128 0x1b
 12905 0b2a A7340000 		.4byte	.LASF180
 12906 0b2e D000     		.sleb128 80
 12907 0b30 1B       		.uleb128 0x1b
 12908 0b31 E60C0000 		.4byte	.LASF181
 12909 0b35 E000     		.sleb128 96
 12910 0b37 1B       		.uleb128 0x1b
 12911 0b38 A4310000 		.4byte	.LASF182
 12912 0b3c F000     		.sleb128 112
 12913 0b3e 1B       		.uleb128 0x1b
 12914 0b3f 8F1D0000 		.4byte	.LASF183
 12915 0b43 8001     		.sleb128 128
 12916 0b45 1B       		.uleb128 0x1b
 12917 0b46 C3350000 		.4byte	.LASF184
 12918 0b4a 9001     		.sleb128 144
 12919 0b4c 00       		.byte	0
 12920 0b4d 03       		.uleb128 0x3
 12921 0b4e 6E110000 		.4byte	.LASF185
 12922 0b52 12       		.byte	0x12
 12923 0b53 F0       		.byte	0xf0
 12924 0b54 020B0000 		.4byte	0xb02
ARM GAS  /tmp/ccRrg1qB.s 			page 231


 12925 0b58 1A       		.uleb128 0x1a
 12926 0b59 01       		.byte	0x1
 12927 0b5a 12       		.byte	0x12
 12928 0b5b FF       		.byte	0xff
 12929 0b5c 6D0B0000 		.4byte	0xb6d
 12930 0b60 1B       		.uleb128 0x1b
 12931 0b61 34030000 		.4byte	.LASF186
 12932 0b65 00       		.sleb128 0
 12933 0b66 1B       		.uleb128 0x1b
 12934 0b67 06350000 		.4byte	.LASF187
 12935 0b6b 01       		.sleb128 1
 12936 0b6c 00       		.byte	0
 12937 0b6d 11       		.uleb128 0x11
 12938 0b6e 450E0000 		.4byte	.LASF188
 12939 0b72 12       		.byte	0x12
 12940 0b73 0201     		.2byte	0x102
 12941 0b75 580B0000 		.4byte	0xb58
 12942 0b79 1D       		.uleb128 0x1d
 12943 0b7a 01       		.byte	0x1
 12944 0b7b 12       		.byte	0x12
 12945 0b7c 0E01     		.2byte	0x10e
 12946 0b7e 8F0B0000 		.4byte	0xb8f
 12947 0b82 1B       		.uleb128 0x1b
 12948 0b83 D3000000 		.4byte	.LASF189
 12949 0b87 00       		.sleb128 0
 12950 0b88 1B       		.uleb128 0x1b
 12951 0b89 C3220000 		.4byte	.LASF190
 12952 0b8d 02       		.sleb128 2
 12953 0b8e 00       		.byte	0
 12954 0b8f 11       		.uleb128 0x11
 12955 0b90 27360000 		.4byte	.LASF191
 12956 0b94 12       		.byte	0x12
 12957 0b95 1101     		.2byte	0x111
 12958 0b97 790B0000 		.4byte	0xb79
 12959 0b9b 1D       		.uleb128 0x1d
 12960 0b9c 01       		.byte	0x1
 12961 0b9d 12       		.byte	0x12
 12962 0b9e 1D01     		.2byte	0x11d
 12963 0ba0 B10B0000 		.4byte	0xbb1
 12964 0ba4 1B       		.uleb128 0x1b
 12965 0ba5 4D110000 		.4byte	.LASF192
 12966 0ba9 00       		.sleb128 0
 12967 0baa 1B       		.uleb128 0x1b
 12968 0bab C6320000 		.4byte	.LASF193
 12969 0baf 04       		.sleb128 4
 12970 0bb0 00       		.byte	0
 12971 0bb1 11       		.uleb128 0x11
 12972 0bb2 73350000 		.4byte	.LASF194
 12973 0bb6 12       		.byte	0x12
 12974 0bb7 2001     		.2byte	0x120
 12975 0bb9 9B0B0000 		.4byte	0xb9b
 12976 0bbd 1D       		.uleb128 0x1d
 12977 0bbe 01       		.byte	0x1
 12978 0bbf 12       		.byte	0x12
 12979 0bc0 2C01     		.2byte	0x12c
 12980 0bc2 D30B0000 		.4byte	0xbd3
 12981 0bc6 1B       		.uleb128 0x1b
ARM GAS  /tmp/ccRrg1qB.s 			page 232


 12982 0bc7 7C130000 		.4byte	.LASF195
 12983 0bcb 00       		.sleb128 0
 12984 0bcc 1B       		.uleb128 0x1b
 12985 0bcd 292C0000 		.4byte	.LASF196
 12986 0bd1 08       		.sleb128 8
 12987 0bd2 00       		.byte	0
 12988 0bd3 11       		.uleb128 0x11
 12989 0bd4 88350000 		.4byte	.LASF197
 12990 0bd8 12       		.byte	0x12
 12991 0bd9 2F01     		.2byte	0x12f
 12992 0bdb BD0B0000 		.4byte	0xbbd
 12993 0bdf 1D       		.uleb128 0x1d
 12994 0be0 01       		.byte	0x1
 12995 0be1 12       		.byte	0x12
 12996 0be2 3B01     		.2byte	0x13b
 12997 0be4 F50B0000 		.4byte	0xbf5
 12998 0be8 1B       		.uleb128 0x1b
 12999 0be9 24250000 		.4byte	.LASF198
 13000 0bed 00       		.sleb128 0
 13001 0bee 1B       		.uleb128 0x1b
 13002 0bef 232E0000 		.4byte	.LASF199
 13003 0bf3 10       		.sleb128 16
 13004 0bf4 00       		.byte	0
 13005 0bf5 11       		.uleb128 0x11
 13006 0bf6 6D230000 		.4byte	.LASF200
 13007 0bfa 12       		.byte	0x12
 13008 0bfb 3E01     		.2byte	0x13e
 13009 0bfd DF0B0000 		.4byte	0xbdf
 13010 0c01 1D       		.uleb128 0x1d
 13011 0c02 01       		.byte	0x1
 13012 0c03 12       		.byte	0x12
 13013 0c04 4A01     		.2byte	0x14a
 13014 0c06 170C0000 		.4byte	0xc17
 13015 0c0a 1B       		.uleb128 0x1b
 13016 0c0b 89340000 		.4byte	.LASF201
 13017 0c0f 00       		.sleb128 0
 13018 0c10 1B       		.uleb128 0x1b
 13019 0c11 0C070000 		.4byte	.LASF202
 13020 0c15 20       		.sleb128 32
 13021 0c16 00       		.byte	0
 13022 0c17 11       		.uleb128 0x11
 13023 0c18 E0220000 		.4byte	.LASF203
 13024 0c1c 12       		.byte	0x12
 13025 0c1d 4D01     		.2byte	0x14d
 13026 0c1f 010C0000 		.4byte	0xc01
 13027 0c23 1D       		.uleb128 0x1d
 13028 0c24 01       		.byte	0x1
 13029 0c25 12       		.byte	0x12
 13030 0c26 5901     		.2byte	0x159
 13031 0c28 3A0C0000 		.4byte	0xc3a
 13032 0c2c 1B       		.uleb128 0x1b
 13033 0c2d 9A300000 		.4byte	.LASF204
 13034 0c31 00       		.sleb128 0
 13035 0c32 1B       		.uleb128 0x1b
 13036 0c33 4F340000 		.4byte	.LASF205
 13037 0c37 C000     		.sleb128 64
 13038 0c39 00       		.byte	0
ARM GAS  /tmp/ccRrg1qB.s 			page 233


 13039 0c3a 11       		.uleb128 0x11
 13040 0c3b 07220000 		.4byte	.LASF206
 13041 0c3f 12       		.byte	0x12
 13042 0c40 5C01     		.2byte	0x15c
 13043 0c42 230C0000 		.4byte	0xc23
 13044 0c46 1D       		.uleb128 0x1d
 13045 0c47 01       		.byte	0x1
 13046 0c48 12       		.byte	0x12
 13047 0c49 6801     		.2byte	0x168
 13048 0c4b 5D0C0000 		.4byte	0xc5d
 13049 0c4f 1B       		.uleb128 0x1b
 13050 0c50 EB010000 		.4byte	.LASF207
 13051 0c54 00       		.sleb128 0
 13052 0c55 1B       		.uleb128 0x1b
 13053 0c56 7F0D0000 		.4byte	.LASF208
 13054 0c5a 8001     		.sleb128 128
 13055 0c5c 00       		.byte	0
 13056 0c5d 11       		.uleb128 0x11
 13057 0c5e 54220000 		.4byte	.LASF209
 13058 0c62 12       		.byte	0x12
 13059 0c63 6B01     		.2byte	0x16b
 13060 0c65 460C0000 		.4byte	0xc46
 13061 0c69 1D       		.uleb128 0x1d
 13062 0c6a 01       		.byte	0x1
 13063 0c6b 12       		.byte	0x12
 13064 0c6c 8101     		.2byte	0x181
 13065 0c6e 800C0000 		.4byte	0xc80
 13066 0c72 1B       		.uleb128 0x1b
 13067 0c73 F9180000 		.4byte	.LASF210
 13068 0c77 00       		.sleb128 0
 13069 0c78 1B       		.uleb128 0x1b
 13070 0c79 F11A0000 		.4byte	.LASF211
 13071 0c7d C000     		.sleb128 64
 13072 0c7f 00       		.byte	0
 13073 0c80 11       		.uleb128 0x11
 13074 0c81 B0060000 		.4byte	.LASF212
 13075 0c85 12       		.byte	0x12
 13076 0c86 8401     		.2byte	0x184
 13077 0c88 690C0000 		.4byte	0xc69
 13078 0c8c 1D       		.uleb128 0x1d
 13079 0c8d 01       		.byte	0x1
 13080 0c8e 12       		.byte	0x12
 13081 0c8f 9101     		.2byte	0x191
 13082 0c91 A30C0000 		.4byte	0xca3
 13083 0c95 1B       		.uleb128 0x1b
 13084 0c96 5A270000 		.4byte	.LASF213
 13085 0c9a 00       		.sleb128 0
 13086 0c9b 1B       		.uleb128 0x1b
 13087 0c9c BF0B0000 		.4byte	.LASF214
 13088 0ca0 8001     		.sleb128 128
 13089 0ca2 00       		.byte	0
 13090 0ca3 11       		.uleb128 0x11
 13091 0ca4 32300000 		.4byte	.LASF215
 13092 0ca8 12       		.byte	0x12
 13093 0ca9 9401     		.2byte	0x194
 13094 0cab 8C0C0000 		.4byte	0xc8c
 13095 0caf 1D       		.uleb128 0x1d
ARM GAS  /tmp/ccRrg1qB.s 			page 234


 13096 0cb0 01       		.byte	0x1
 13097 0cb1 12       		.byte	0x12
 13098 0cb2 A101     		.2byte	0x1a1
 13099 0cb4 C50C0000 		.4byte	0xcc5
 13100 0cb8 1B       		.uleb128 0x1b
 13101 0cb9 150C0000 		.4byte	.LASF216
 13102 0cbd 00       		.sleb128 0
 13103 0cbe 1B       		.uleb128 0x1b
 13104 0cbf 59180000 		.4byte	.LASF217
 13105 0cc3 01       		.sleb128 1
 13106 0cc4 00       		.byte	0
 13107 0cc5 11       		.uleb128 0x11
 13108 0cc6 B40A0000 		.4byte	.LASF218
 13109 0cca 12       		.byte	0x12
 13110 0ccb A401     		.2byte	0x1a4
 13111 0ccd AF0C0000 		.4byte	0xcaf
 13112 0cd1 1D       		.uleb128 0x1d
 13113 0cd2 01       		.byte	0x1
 13114 0cd3 12       		.byte	0x12
 13115 0cd4 B101     		.2byte	0x1b1
 13116 0cd6 E70C0000 		.4byte	0xce7
 13117 0cda 1B       		.uleb128 0x1b
 13118 0cdb 86380000 		.4byte	.LASF219
 13119 0cdf 00       		.sleb128 0
 13120 0ce0 1B       		.uleb128 0x1b
 13121 0ce1 8A310000 		.4byte	.LASF220
 13122 0ce5 02       		.sleb128 2
 13123 0ce6 00       		.byte	0
 13124 0ce7 11       		.uleb128 0x11
 13125 0ce8 5E1E0000 		.4byte	.LASF221
 13126 0cec 12       		.byte	0x12
 13127 0ced B401     		.2byte	0x1b4
 13128 0cef D10C0000 		.4byte	0xcd1
 13129 0cf3 1D       		.uleb128 0x1d
 13130 0cf4 01       		.byte	0x1
 13131 0cf5 12       		.byte	0x12
 13132 0cf6 C101     		.2byte	0x1c1
 13133 0cf8 090D0000 		.4byte	0xd09
 13134 0cfc 1B       		.uleb128 0x1b
 13135 0cfd AD2C0000 		.4byte	.LASF222
 13136 0d01 00       		.sleb128 0
 13137 0d02 1B       		.uleb128 0x1b
 13138 0d03 B42A0000 		.4byte	.LASF223
 13139 0d07 04       		.sleb128 4
 13140 0d08 00       		.byte	0
 13141 0d09 11       		.uleb128 0x11
 13142 0d0a B02F0000 		.4byte	.LASF224
 13143 0d0e 12       		.byte	0x12
 13144 0d0f C401     		.2byte	0x1c4
 13145 0d11 F30C0000 		.4byte	0xcf3
 13146 0d15 1D       		.uleb128 0x1d
 13147 0d16 01       		.byte	0x1
 13148 0d17 12       		.byte	0x12
 13149 0d18 D101     		.2byte	0x1d1
 13150 0d1a 2B0D0000 		.4byte	0xd2b
 13151 0d1e 1B       		.uleb128 0x1b
 13152 0d1f A3070000 		.4byte	.LASF225
ARM GAS  /tmp/ccRrg1qB.s 			page 235


 13153 0d23 00       		.sleb128 0
 13154 0d24 1B       		.uleb128 0x1b
 13155 0d25 79190000 		.4byte	.LASF226
 13156 0d29 08       		.sleb128 8
 13157 0d2a 00       		.byte	0
 13158 0d2b 11       		.uleb128 0x11
 13159 0d2c 9F100000 		.4byte	.LASF227
 13160 0d30 12       		.byte	0x12
 13161 0d31 D401     		.2byte	0x1d4
 13162 0d33 150D0000 		.4byte	0xd15
 13163 0d37 1D       		.uleb128 0x1d
 13164 0d38 01       		.byte	0x1
 13165 0d39 12       		.byte	0x12
 13166 0d3a E101     		.2byte	0x1e1
 13167 0d3c 4D0D0000 		.4byte	0xd4d
 13168 0d40 1B       		.uleb128 0x1b
 13169 0d41 F6140000 		.4byte	.LASF228
 13170 0d45 00       		.sleb128 0
 13171 0d46 1B       		.uleb128 0x1b
 13172 0d47 5A2E0000 		.4byte	.LASF229
 13173 0d4b 01       		.sleb128 1
 13174 0d4c 00       		.byte	0
 13175 0d4d 11       		.uleb128 0x11
 13176 0d4e 450C0000 		.4byte	.LASF230
 13177 0d52 12       		.byte	0x12
 13178 0d53 E401     		.2byte	0x1e4
 13179 0d55 370D0000 		.4byte	0xd37
 13180 0d59 1D       		.uleb128 0x1d
 13181 0d5a 01       		.byte	0x1
 13182 0d5b 12       		.byte	0x12
 13183 0d5c F101     		.2byte	0x1f1
 13184 0d5e 6F0D0000 		.4byte	0xd6f
 13185 0d62 1B       		.uleb128 0x1b
 13186 0d63 721E0000 		.4byte	.LASF231
 13187 0d67 00       		.sleb128 0
 13188 0d68 1B       		.uleb128 0x1b
 13189 0d69 762E0000 		.4byte	.LASF232
 13190 0d6d 02       		.sleb128 2
 13191 0d6e 00       		.byte	0
 13192 0d6f 11       		.uleb128 0x11
 13193 0d70 B5130000 		.4byte	.LASF233
 13194 0d74 12       		.byte	0x12
 13195 0d75 F401     		.2byte	0x1f4
 13196 0d77 590D0000 		.4byte	0xd59
 13197 0d7b 1D       		.uleb128 0x1d
 13198 0d7c 01       		.byte	0x1
 13199 0d7d 12       		.byte	0x12
 13200 0d7e 0102     		.2byte	0x201
 13201 0d80 910D0000 		.4byte	0xd91
 13202 0d84 1B       		.uleb128 0x1b
 13203 0d85 2F2B0000 		.4byte	.LASF234
 13204 0d89 00       		.sleb128 0
 13205 0d8a 1B       		.uleb128 0x1b
 13206 0d8b 6B240000 		.4byte	.LASF235
 13207 0d8f 04       		.sleb128 4
 13208 0d90 00       		.byte	0
 13209 0d91 11       		.uleb128 0x11
ARM GAS  /tmp/ccRrg1qB.s 			page 236


 13210 0d92 6B060000 		.4byte	.LASF236
 13211 0d96 12       		.byte	0x12
 13212 0d97 0402     		.2byte	0x204
 13213 0d99 7B0D0000 		.4byte	0xd7b
 13214 0d9d 1D       		.uleb128 0x1d
 13215 0d9e 01       		.byte	0x1
 13216 0d9f 12       		.byte	0x12
 13217 0da0 1102     		.2byte	0x211
 13218 0da2 B30D0000 		.4byte	0xdb3
 13219 0da6 1B       		.uleb128 0x1b
 13220 0da7 60140000 		.4byte	.LASF237
 13221 0dab 00       		.sleb128 0
 13222 0dac 1B       		.uleb128 0x1b
 13223 0dad 92050000 		.4byte	.LASF238
 13224 0db1 08       		.sleb128 8
 13225 0db2 00       		.byte	0
 13226 0db3 11       		.uleb128 0x11
 13227 0db4 3E210000 		.4byte	.LASF239
 13228 0db8 12       		.byte	0x12
 13229 0db9 1402     		.2byte	0x214
 13230 0dbb 9D0D0000 		.4byte	0xd9d
 13231 0dbf 1D       		.uleb128 0x1d
 13232 0dc0 01       		.byte	0x1
 13233 0dc1 12       		.byte	0x12
 13234 0dc2 2102     		.2byte	0x221
 13235 0dc4 E10D0000 		.4byte	0xde1
 13236 0dc8 1B       		.uleb128 0x1b
 13237 0dc9 032B0000 		.4byte	.LASF240
 13238 0dcd 00       		.sleb128 0
 13239 0dce 1B       		.uleb128 0x1b
 13240 0dcf 192B0000 		.4byte	.LASF241
 13241 0dd3 10       		.sleb128 16
 13242 0dd4 1B       		.uleb128 0x1b
 13243 0dd5 D82B0000 		.4byte	.LASF242
 13244 0dd9 20       		.sleb128 32
 13245 0dda 1B       		.uleb128 0x1b
 13246 0ddb EE2B0000 		.4byte	.LASF243
 13247 0ddf 30       		.sleb128 48
 13248 0de0 00       		.byte	0
 13249 0de1 11       		.uleb128 0x11
 13250 0de2 37380000 		.4byte	.LASF244
 13251 0de6 12       		.byte	0x12
 13252 0de7 2602     		.2byte	0x226
 13253 0de9 BF0D0000 		.4byte	0xdbf
 13254 0ded 1D       		.uleb128 0x1d
 13255 0dee 01       		.byte	0x1
 13256 0def 12       		.byte	0x12
 13257 0df0 3302     		.2byte	0x233
 13258 0df2 120E0000 		.4byte	0xe12
 13259 0df6 1B       		.uleb128 0x1b
 13260 0df7 F5150000 		.4byte	.LASF245
 13261 0dfb 00       		.sleb128 0
 13262 0dfc 1B       		.uleb128 0x1b
 13263 0dfd AC050000 		.4byte	.LASF246
 13264 0e01 C000     		.sleb128 64
 13265 0e03 1B       		.uleb128 0x1b
 13266 0e04 8A0B0000 		.4byte	.LASF247
ARM GAS  /tmp/ccRrg1qB.s 			page 237


 13267 0e08 8001     		.sleb128 128
 13268 0e0a 1B       		.uleb128 0x1b
 13269 0e0b 24090000 		.4byte	.LASF248
 13270 0e0f C001     		.sleb128 192
 13271 0e11 00       		.byte	0
 13272 0e12 11       		.uleb128 0x11
 13273 0e13 98170000 		.4byte	.LASF249
 13274 0e17 12       		.byte	0x12
 13275 0e18 3802     		.2byte	0x238
 13276 0e1a ED0D0000 		.4byte	0xded
 13277 0e1e 1D       		.uleb128 0x1d
 13278 0e1f 01       		.byte	0x1
 13279 0e20 12       		.byte	0x12
 13280 0e21 4502     		.2byte	0x245
 13281 0e23 340E0000 		.4byte	0xe34
 13282 0e27 1B       		.uleb128 0x1b
 13283 0e28 18100000 		.4byte	.LASF250
 13284 0e2c 00       		.sleb128 0
 13285 0e2d 1B       		.uleb128 0x1b
 13286 0e2e EB060000 		.4byte	.LASF251
 13287 0e32 02       		.sleb128 2
 13288 0e33 00       		.byte	0
 13289 0e34 11       		.uleb128 0x11
 13290 0e35 90080000 		.4byte	.LASF252
 13291 0e39 12       		.byte	0x12
 13292 0e3a 4802     		.2byte	0x248
 13293 0e3c 1E0E0000 		.4byte	0xe1e
 13294 0e40 1D       		.uleb128 0x1d
 13295 0e41 01       		.byte	0x1
 13296 0e42 12       		.byte	0x12
 13297 0e43 5502     		.2byte	0x255
 13298 0e45 560E0000 		.4byte	0xe56
 13299 0e49 1B       		.uleb128 0x1b
 13300 0e4a FA0F0000 		.4byte	.LASF253
 13301 0e4e 00       		.sleb128 0
 13302 0e4f 1B       		.uleb128 0x1b
 13303 0e50 05050000 		.4byte	.LASF254
 13304 0e54 04       		.sleb128 4
 13305 0e55 00       		.byte	0
 13306 0e56 11       		.uleb128 0x11
 13307 0e57 CA2D0000 		.4byte	.LASF255
 13308 0e5b 12       		.byte	0x12
 13309 0e5c 5802     		.2byte	0x258
 13310 0e5e 400E0000 		.4byte	0xe40
 13311 0e62 1D       		.uleb128 0x1d
 13312 0e63 01       		.byte	0x1
 13313 0e64 12       		.byte	0x12
 13314 0e65 6502     		.2byte	0x265
 13315 0e67 780E0000 		.4byte	0xe78
 13316 0e6b 1B       		.uleb128 0x1b
 13317 0e6c B6190000 		.4byte	.LASF256
 13318 0e70 00       		.sleb128 0
 13319 0e71 1B       		.uleb128 0x1b
 13320 0e72 79260000 		.4byte	.LASF257
 13321 0e76 08       		.sleb128 8
 13322 0e77 00       		.byte	0
 13323 0e78 11       		.uleb128 0x11
ARM GAS  /tmp/ccRrg1qB.s 			page 238


 13324 0e79 622B0000 		.4byte	.LASF258
 13325 0e7d 12       		.byte	0x12
 13326 0e7e 6802     		.2byte	0x268
 13327 0e80 620E0000 		.4byte	0xe62
 13328 0e84 1D       		.uleb128 0x1d
 13329 0e85 01       		.byte	0x1
 13330 0e86 12       		.byte	0x12
 13331 0e87 7502     		.2byte	0x275
 13332 0e89 9A0E0000 		.4byte	0xe9a
 13333 0e8d 1B       		.uleb128 0x1b
 13334 0e8e 6B220000 		.4byte	.LASF259
 13335 0e92 00       		.sleb128 0
 13336 0e93 1B       		.uleb128 0x1b
 13337 0e94 5A260000 		.4byte	.LASF260
 13338 0e98 10       		.sleb128 16
 13339 0e99 00       		.byte	0
 13340 0e9a 11       		.uleb128 0x11
 13341 0e9b BB250000 		.4byte	.LASF261
 13342 0e9f 12       		.byte	0x12
 13343 0ea0 7802     		.2byte	0x278
 13344 0ea2 840E0000 		.4byte	0xe84
 13345 0ea6 1D       		.uleb128 0x1d
 13346 0ea7 01       		.byte	0x1
 13347 0ea8 12       		.byte	0x12
 13348 0ea9 8502     		.2byte	0x285
 13349 0eab BC0E0000 		.4byte	0xebc
 13350 0eaf 1B       		.uleb128 0x1b
 13351 0eb0 91140000 		.4byte	.LASF262
 13352 0eb4 00       		.sleb128 0
 13353 0eb5 1B       		.uleb128 0x1b
 13354 0eb6 7B090000 		.4byte	.LASF263
 13355 0eba 20       		.sleb128 32
 13356 0ebb 00       		.byte	0
 13357 0ebc 11       		.uleb128 0x11
 13358 0ebd 35110000 		.4byte	.LASF264
 13359 0ec1 12       		.byte	0x12
 13360 0ec2 8802     		.2byte	0x288
 13361 0ec4 A60E0000 		.4byte	0xea6
 13362 0ec8 1D       		.uleb128 0x1d
 13363 0ec9 01       		.byte	0x1
 13364 0eca 12       		.byte	0x12
 13365 0ecb 9502     		.2byte	0x295
 13366 0ecd DF0E0000 		.4byte	0xedf
 13367 0ed1 1B       		.uleb128 0x1b
 13368 0ed2 0F230000 		.4byte	.LASF265
 13369 0ed6 00       		.sleb128 0
 13370 0ed7 1B       		.uleb128 0x1b
 13371 0ed8 45090000 		.4byte	.LASF266
 13372 0edc C000     		.sleb128 64
 13373 0ede 00       		.byte	0
 13374 0edf 11       		.uleb128 0x11
 13375 0ee0 E6090000 		.4byte	.LASF267
 13376 0ee4 12       		.byte	0x12
 13377 0ee5 9802     		.2byte	0x298
 13378 0ee7 C80E0000 		.4byte	0xec8
 13379 0eeb 1D       		.uleb128 0x1d
 13380 0eec 01       		.byte	0x1
ARM GAS  /tmp/ccRrg1qB.s 			page 239


 13381 0eed 12       		.byte	0x12
 13382 0eee A502     		.2byte	0x2a5
 13383 0ef0 020F0000 		.4byte	0xf02
 13384 0ef4 1B       		.uleb128 0x1b
 13385 0ef5 DE2F0000 		.4byte	.LASF268
 13386 0ef9 00       		.sleb128 0
 13387 0efa 1B       		.uleb128 0x1b
 13388 0efb 0B120000 		.4byte	.LASF269
 13389 0eff 8001     		.sleb128 128
 13390 0f01 00       		.byte	0
 13391 0f02 11       		.uleb128 0x11
 13392 0f03 4D060000 		.4byte	.LASF270
 13393 0f07 12       		.byte	0x12
 13394 0f08 A802     		.2byte	0x2a8
 13395 0f0a EB0E0000 		.4byte	0xeeb
 13396 0f0e 1D       		.uleb128 0x1d
 13397 0f0f 01       		.byte	0x1
 13398 0f10 12       		.byte	0x12
 13399 0f11 B502     		.2byte	0x2b5
 13400 0f13 240F0000 		.4byte	0xf24
 13401 0f17 1B       		.uleb128 0x1b
 13402 0f18 A50B0000 		.4byte	.LASF271
 13403 0f1c 00       		.sleb128 0
 13404 0f1d 1B       		.uleb128 0x1b
 13405 0f1e 0C000000 		.4byte	.LASF272
 13406 0f22 01       		.sleb128 1
 13407 0f23 00       		.byte	0
 13408 0f24 11       		.uleb128 0x11
 13409 0f25 9D1A0000 		.4byte	.LASF273
 13410 0f29 12       		.byte	0x12
 13411 0f2a B802     		.2byte	0x2b8
 13412 0f2c 0E0F0000 		.4byte	0xf0e
 13413 0f30 1D       		.uleb128 0x1d
 13414 0f31 01       		.byte	0x1
 13415 0f32 12       		.byte	0x12
 13416 0f33 C502     		.2byte	0x2c5
 13417 0f35 520F0000 		.4byte	0xf52
 13418 0f39 1B       		.uleb128 0x1b
 13419 0f3a 7C160000 		.4byte	.LASF274
 13420 0f3e 00       		.sleb128 0
 13421 0f3f 1B       		.uleb128 0x1b
 13422 0f40 871F0000 		.4byte	.LASF275
 13423 0f44 02       		.sleb128 2
 13424 0f45 1B       		.uleb128 0x1b
 13425 0f46 A41F0000 		.4byte	.LASF276
 13426 0f4a 04       		.sleb128 4
 13427 0f4b 1B       		.uleb128 0x1b
 13428 0f4c 10370000 		.4byte	.LASF277
 13429 0f50 06       		.sleb128 6
 13430 0f51 00       		.byte	0
 13431 0f52 11       		.uleb128 0x11
 13432 0f53 26000000 		.4byte	.LASF278
 13433 0f57 12       		.byte	0x12
 13434 0f58 CA02     		.2byte	0x2ca
 13435 0f5a 300F0000 		.4byte	0xf30
 13436 0f5e 1D       		.uleb128 0x1d
 13437 0f5f 01       		.byte	0x1
ARM GAS  /tmp/ccRrg1qB.s 			page 240


 13438 0f60 12       		.byte	0x12
 13439 0f61 D702     		.2byte	0x2d7
 13440 0f63 740F0000 		.4byte	0xf74
 13441 0f67 1B       		.uleb128 0x1b
 13442 0f68 20310000 		.4byte	.LASF279
 13443 0f6c 00       		.sleb128 0
 13444 0f6d 1B       		.uleb128 0x1b
 13445 0f6e 2D1F0000 		.4byte	.LASF280
 13446 0f72 08       		.sleb128 8
 13447 0f73 00       		.byte	0
 13448 0f74 11       		.uleb128 0x11
 13449 0f75 F61D0000 		.4byte	.LASF281
 13450 0f79 12       		.byte	0x12
 13451 0f7a DA02     		.2byte	0x2da
 13452 0f7c 5E0F0000 		.4byte	0xf5e
 13453 0f80 1D       		.uleb128 0x1d
 13454 0f81 01       		.byte	0x1
 13455 0f82 12       		.byte	0x12
 13456 0f83 E702     		.2byte	0x2e7
 13457 0f85 970F0000 		.4byte	0xf97
 13458 0f89 1B       		.uleb128 0x1b
 13459 0f8a 8F1E0000 		.4byte	.LASF282
 13460 0f8e 00       		.sleb128 0
 13461 0f8f 1B       		.uleb128 0x1b
 13462 0f90 B50D0000 		.4byte	.LASF283
 13463 0f94 C000     		.sleb128 64
 13464 0f96 00       		.byte	0
 13465 0f97 11       		.uleb128 0x11
 13466 0f98 FC2E0000 		.4byte	.LASF284
 13467 0f9c 12       		.byte	0x12
 13468 0f9d EA02     		.2byte	0x2ea
 13469 0f9f 800F0000 		.4byte	0xf80
 13470 0fa3 1D       		.uleb128 0x1d
 13471 0fa4 01       		.byte	0x1
 13472 0fa5 12       		.byte	0x12
 13473 0fa6 F702     		.2byte	0x2f7
 13474 0fa8 B90F0000 		.4byte	0xfb9
 13475 0fac 1B       		.uleb128 0x1b
 13476 0fad 650C0000 		.4byte	.LASF285
 13477 0fb1 00       		.sleb128 0
 13478 0fb2 1B       		.uleb128 0x1b
 13479 0fb3 701D0000 		.4byte	.LASF286
 13480 0fb7 01       		.sleb128 1
 13481 0fb8 00       		.byte	0
 13482 0fb9 11       		.uleb128 0x11
 13483 0fba 22050000 		.4byte	.LASF287
 13484 0fbe 12       		.byte	0x12
 13485 0fbf FA02     		.2byte	0x2fa
 13486 0fc1 A30F0000 		.4byte	0xfa3
 13487 0fc5 1D       		.uleb128 0x1d
 13488 0fc6 01       		.byte	0x1
 13489 0fc7 12       		.byte	0x12
 13490 0fc8 0703     		.2byte	0x307
 13491 0fca DB0F0000 		.4byte	0xfdb
 13492 0fce 1B       		.uleb128 0x1b
 13493 0fcf 57320000 		.4byte	.LASF288
 13494 0fd3 00       		.sleb128 0
ARM GAS  /tmp/ccRrg1qB.s 			page 241


 13495 0fd4 1B       		.uleb128 0x1b
 13496 0fd5 67080000 		.4byte	.LASF289
 13497 0fd9 02       		.sleb128 2
 13498 0fda 00       		.byte	0
 13499 0fdb 11       		.uleb128 0x11
 13500 0fdc 72150000 		.4byte	.LASF290
 13501 0fe0 12       		.byte	0x12
 13502 0fe1 0A03     		.2byte	0x30a
 13503 0fe3 C50F0000 		.4byte	0xfc5
 13504 0fe7 1D       		.uleb128 0x1d
 13505 0fe8 01       		.byte	0x1
 13506 0fe9 12       		.byte	0x12
 13507 0fea 1703     		.2byte	0x317
 13508 0fec FD0F0000 		.4byte	0xffd
 13509 0ff0 1B       		.uleb128 0x1b
 13510 0ff1 96020000 		.4byte	.LASF291
 13511 0ff5 00       		.sleb128 0
 13512 0ff6 1B       		.uleb128 0x1b
 13513 0ff7 481D0000 		.4byte	.LASF292
 13514 0ffb 04       		.sleb128 4
 13515 0ffc 00       		.byte	0
 13516 0ffd 11       		.uleb128 0x11
 13517 0ffe 78270000 		.4byte	.LASF293
 13518 1002 12       		.byte	0x12
 13519 1003 1A03     		.2byte	0x31a
 13520 1005 E70F0000 		.4byte	0xfe7
 13521 1009 1D       		.uleb128 0x1d
 13522 100a 01       		.byte	0x1
 13523 100b 12       		.byte	0x12
 13524 100c 2703     		.2byte	0x327
 13525 100e 1F100000 		.4byte	0x101f
 13526 1012 1B       		.uleb128 0x1b
 13527 1013 23280000 		.4byte	.LASF294
 13528 1017 00       		.sleb128 0
 13529 1018 1B       		.uleb128 0x1b
 13530 1019 32080000 		.4byte	.LASF295
 13531 101d 08       		.sleb128 8
 13532 101e 00       		.byte	0
 13533 101f 11       		.uleb128 0x11
 13534 1020 CF0E0000 		.4byte	.LASF296
 13535 1024 12       		.byte	0x12
 13536 1025 2A03     		.2byte	0x32a
 13537 1027 09100000 		.4byte	0x1009
 13538 102b 1D       		.uleb128 0x1d
 13539 102c 01       		.byte	0x1
 13540 102d 12       		.byte	0x12
 13541 102e 3703     		.2byte	0x337
 13542 1030 42100000 		.4byte	0x1042
 13543 1034 1B       		.uleb128 0x1b
 13544 1035 4C240000 		.4byte	.LASF297
 13545 1039 00       		.sleb128 0
 13546 103a 1B       		.uleb128 0x1b
 13547 103b 85070000 		.4byte	.LASF298
 13548 103f C000     		.sleb128 64
 13549 1041 00       		.byte	0
 13550 1042 11       		.uleb128 0x11
 13551 1043 EC280000 		.4byte	.LASF299
ARM GAS  /tmp/ccRrg1qB.s 			page 242


 13552 1047 12       		.byte	0x12
 13553 1048 3A03     		.2byte	0x33a
 13554 104a 2B100000 		.4byte	0x102b
 13555 104e 1D       		.uleb128 0x1d
 13556 104f 01       		.byte	0x1
 13557 1050 12       		.byte	0x12
 13558 1051 4703     		.2byte	0x347
 13559 1053 65100000 		.4byte	0x1065
 13560 1057 1B       		.uleb128 0x1b
 13561 1058 3F2F0000 		.4byte	.LASF300
 13562 105c 00       		.sleb128 0
 13563 105d 1B       		.uleb128 0x1b
 13564 105e 5E2F0000 		.4byte	.LASF301
 13565 1062 8001     		.sleb128 128
 13566 1064 00       		.byte	0
 13567 1065 11       		.uleb128 0x11
 13568 1066 A5010000 		.4byte	.LASF302
 13569 106a 12       		.byte	0x12
 13570 106b 4A03     		.2byte	0x34a
 13571 106d 4E100000 		.4byte	0x104e
 13572 1071 1D       		.uleb128 0x1d
 13573 1072 01       		.byte	0x1
 13574 1073 12       		.byte	0x12
 13575 1074 5703     		.2byte	0x357
 13576 1076 87100000 		.4byte	0x1087
 13577 107a 1B       		.uleb128 0x1b
 13578 107b 94190000 		.4byte	.LASF303
 13579 107f 00       		.sleb128 0
 13580 1080 1B       		.uleb128 0x1b
 13581 1081 3C1E0000 		.4byte	.LASF304
 13582 1085 02       		.sleb128 2
 13583 1086 00       		.byte	0
 13584 1087 11       		.uleb128 0x11
 13585 1088 E22E0000 		.4byte	.LASF305
 13586 108c 12       		.byte	0x12
 13587 108d 5A03     		.2byte	0x35a
 13588 108f 71100000 		.4byte	0x1071
 13589 1093 1D       		.uleb128 0x1d
 13590 1094 01       		.byte	0x1
 13591 1095 12       		.byte	0x12
 13592 1096 6703     		.2byte	0x367
 13593 1098 A9100000 		.4byte	0x10a9
 13594 109c 1B       		.uleb128 0x1b
 13595 109d 19380000 		.4byte	.LASF306
 13596 10a1 00       		.sleb128 0
 13597 10a2 1B       		.uleb128 0x1b
 13598 10a3 0E080000 		.4byte	.LASF307
 13599 10a7 08       		.sleb128 8
 13600 10a8 00       		.byte	0
 13601 10a9 11       		.uleb128 0x11
 13602 10aa BC2B0000 		.4byte	.LASF308
 13603 10ae 12       		.byte	0x12
 13604 10af 6A03     		.2byte	0x36a
 13605 10b1 93100000 		.4byte	0x1093
 13606 10b5 1D       		.uleb128 0x1d
 13607 10b6 01       		.byte	0x1
 13608 10b7 12       		.byte	0x12
ARM GAS  /tmp/ccRrg1qB.s 			page 243


 13609 10b8 7703     		.2byte	0x377
 13610 10ba CB100000 		.4byte	0x10cb
 13611 10be 1B       		.uleb128 0x1b
 13612 10bf EA1F0000 		.4byte	.LASF309
 13613 10c3 00       		.sleb128 0
 13614 10c4 1B       		.uleb128 0x1b
 13615 10c5 482C0000 		.4byte	.LASF310
 13616 10c9 10       		.sleb128 16
 13617 10ca 00       		.byte	0
 13618 10cb 11       		.uleb128 0x11
 13619 10cc 57050000 		.4byte	.LASF311
 13620 10d0 12       		.byte	0x12
 13621 10d1 7A03     		.2byte	0x37a
 13622 10d3 B5100000 		.4byte	0x10b5
 13623 10d7 1D       		.uleb128 0x1d
 13624 10d8 01       		.byte	0x1
 13625 10d9 12       		.byte	0x12
 13626 10da 8703     		.2byte	0x387
 13627 10dc ED100000 		.4byte	0x10ed
 13628 10e0 1B       		.uleb128 0x1b
 13629 10e1 E5230000 		.4byte	.LASF312
 13630 10e5 00       		.sleb128 0
 13631 10e6 1B       		.uleb128 0x1b
 13632 10e7 EC330000 		.4byte	.LASF313
 13633 10eb 20       		.sleb128 32
 13634 10ec 00       		.byte	0
 13635 10ed 11       		.uleb128 0x11
 13636 10ee 2A1D0000 		.4byte	.LASF314
 13637 10f2 12       		.byte	0x12
 13638 10f3 8A03     		.2byte	0x38a
 13639 10f5 D7100000 		.4byte	0x10d7
 13640 10f9 1D       		.uleb128 0x1d
 13641 10fa 01       		.byte	0x1
 13642 10fb 12       		.byte	0x12
 13643 10fc 9703     		.2byte	0x397
 13644 10fe 10110000 		.4byte	0x1110
 13645 1102 1B       		.uleb128 0x1b
 13646 1103 37190000 		.4byte	.LASF315
 13647 1107 00       		.sleb128 0
 13648 1108 1B       		.uleb128 0x1b
 13649 1109 AC330000 		.4byte	.LASF316
 13650 110d C000     		.sleb128 64
 13651 110f 00       		.byte	0
 13652 1110 11       		.uleb128 0x11
 13653 1111 AC170000 		.4byte	.LASF317
 13654 1115 12       		.byte	0x12
 13655 1116 9A03     		.2byte	0x39a
 13656 1118 F9100000 		.4byte	0x10f9
 13657 111c 1D       		.uleb128 0x1d
 13658 111d 01       		.byte	0x1
 13659 111e 12       		.byte	0x12
 13660 111f A703     		.2byte	0x3a7
 13661 1121 33110000 		.4byte	0x1133
 13662 1125 1B       		.uleb128 0x1b
 13663 1126 192A0000 		.4byte	.LASF318
 13664 112a 00       		.sleb128 0
 13665 112b 1B       		.uleb128 0x1b
ARM GAS  /tmp/ccRrg1qB.s 			page 244


 13666 112c 2B240000 		.4byte	.LASF319
 13667 1130 8001     		.sleb128 128
 13668 1132 00       		.byte	0
 13669 1133 11       		.uleb128 0x11
 13670 1134 61130000 		.4byte	.LASF320
 13671 1138 12       		.byte	0x12
 13672 1139 AA03     		.2byte	0x3aa
 13673 113b 1C110000 		.4byte	0x111c
 13674 113f 1D       		.uleb128 0x1d
 13675 1140 01       		.byte	0x1
 13676 1141 12       		.byte	0x12
 13677 1142 C203     		.2byte	0x3c2
 13678 1144 55110000 		.4byte	0x1155
 13679 1148 1B       		.uleb128 0x1b
 13680 1149 A2360000 		.4byte	.LASF321
 13681 114d 00       		.sleb128 0
 13682 114e 1B       		.uleb128 0x1b
 13683 114f 3F2D0000 		.4byte	.LASF322
 13684 1153 01       		.sleb128 1
 13685 1154 00       		.byte	0
 13686 1155 11       		.uleb128 0x11
 13687 1156 241A0000 		.4byte	.LASF323
 13688 115a 12       		.byte	0x12
 13689 115b C503     		.2byte	0x3c5
 13690 115d 3F110000 		.4byte	0x113f
 13691 1161 1D       		.uleb128 0x1d
 13692 1162 01       		.byte	0x1
 13693 1163 12       		.byte	0x12
 13694 1164 D103     		.2byte	0x3d1
 13695 1166 77110000 		.4byte	0x1177
 13696 116a 1B       		.uleb128 0x1b
 13697 116b 36330000 		.4byte	.LASF324
 13698 116f 00       		.sleb128 0
 13699 1170 1B       		.uleb128 0x1b
 13700 1171 97210000 		.4byte	.LASF325
 13701 1175 02       		.sleb128 2
 13702 1176 00       		.byte	0
 13703 1177 11       		.uleb128 0x11
 13704 1178 C82C0000 		.4byte	.LASF326
 13705 117c 12       		.byte	0x12
 13706 117d D403     		.2byte	0x3d4
 13707 117f 61110000 		.4byte	0x1161
 13708 1183 1D       		.uleb128 0x1d
 13709 1184 01       		.byte	0x1
 13710 1185 12       		.byte	0x12
 13711 1186 E003     		.2byte	0x3e0
 13712 1188 99110000 		.4byte	0x1199
 13713 118c 1B       		.uleb128 0x1b
 13714 118d 2F170000 		.4byte	.LASF327
 13715 1191 00       		.sleb128 0
 13716 1192 1B       		.uleb128 0x1b
 13717 1193 3E2E0000 		.4byte	.LASF328
 13718 1197 04       		.sleb128 4
 13719 1198 00       		.byte	0
 13720 1199 11       		.uleb128 0x11
 13721 119a 4D040000 		.4byte	.LASF329
 13722 119e 12       		.byte	0x12
ARM GAS  /tmp/ccRrg1qB.s 			page 245


 13723 119f E303     		.2byte	0x3e3
 13724 11a1 83110000 		.4byte	0x1183
 13725 11a5 1D       		.uleb128 0x1d
 13726 11a6 01       		.byte	0x1
 13727 11a7 12       		.byte	0x12
 13728 11a8 EF03     		.2byte	0x3ef
 13729 11aa BB110000 		.4byte	0x11bb
 13730 11ae 1B       		.uleb128 0x1b
 13731 11af CE100000 		.4byte	.LASF330
 13732 11b3 00       		.sleb128 0
 13733 11b4 1B       		.uleb128 0x1b
 13734 11b5 C8150000 		.4byte	.LASF331
 13735 11b9 08       		.sleb128 8
 13736 11ba 00       		.byte	0
 13737 11bb 11       		.uleb128 0x11
 13738 11bc 43280000 		.4byte	.LASF332
 13739 11c0 12       		.byte	0x12
 13740 11c1 F203     		.2byte	0x3f2
 13741 11c3 A5110000 		.4byte	0x11a5
 13742 11c7 1D       		.uleb128 0x1d
 13743 11c8 01       		.byte	0x1
 13744 11c9 12       		.byte	0x12
 13745 11ca FE03     		.2byte	0x3fe
 13746 11cc DD110000 		.4byte	0x11dd
 13747 11d0 1B       		.uleb128 0x1b
 13748 11d1 B6180000 		.4byte	.LASF333
 13749 11d5 00       		.sleb128 0
 13750 11d6 1B       		.uleb128 0x1b
 13751 11d7 22350000 		.4byte	.LASF334
 13752 11db 10       		.sleb128 16
 13753 11dc 00       		.byte	0
 13754 11dd 11       		.uleb128 0x11
 13755 11de 2A180000 		.4byte	.LASF335
 13756 11e2 12       		.byte	0x12
 13757 11e3 0104     		.2byte	0x401
 13758 11e5 C7110000 		.4byte	0x11c7
 13759 11e9 1D       		.uleb128 0x1d
 13760 11ea 01       		.byte	0x1
 13761 11eb 12       		.byte	0x12
 13762 11ec 0D04     		.2byte	0x40d
 13763 11ee FF110000 		.4byte	0x11ff
 13764 11f2 1B       		.uleb128 0x1b
 13765 11f3 AF290000 		.4byte	.LASF336
 13766 11f7 00       		.sleb128 0
 13767 11f8 1B       		.uleb128 0x1b
 13768 11f9 C22E0000 		.4byte	.LASF337
 13769 11fd 20       		.sleb128 32
 13770 11fe 00       		.byte	0
 13771 11ff 11       		.uleb128 0x11
 13772 1200 E6290000 		.4byte	.LASF338
 13773 1204 12       		.byte	0x12
 13774 1205 1004     		.2byte	0x410
 13775 1207 E9110000 		.4byte	0x11e9
 13776 120b 1D       		.uleb128 0x1d
 13777 120c 01       		.byte	0x1
 13778 120d 12       		.byte	0x12
 13779 120e 1C04     		.2byte	0x41c
ARM GAS  /tmp/ccRrg1qB.s 			page 246


 13780 1210 22120000 		.4byte	0x1222
 13781 1214 1B       		.uleb128 0x1b
 13782 1215 AF000000 		.4byte	.LASF339
 13783 1219 00       		.sleb128 0
 13784 121a 1B       		.uleb128 0x1b
 13785 121b B50E0000 		.4byte	.LASF340
 13786 121f C000     		.sleb128 64
 13787 1221 00       		.byte	0
 13788 1222 11       		.uleb128 0x11
 13789 1223 D7010000 		.4byte	.LASF341
 13790 1227 12       		.byte	0x12
 13791 1228 1F04     		.2byte	0x41f
 13792 122a 0B120000 		.4byte	0x120b
 13793 122e 1D       		.uleb128 0x1d
 13794 122f 01       		.byte	0x1
 13795 1230 12       		.byte	0x12
 13796 1231 2B04     		.2byte	0x42b
 13797 1233 45120000 		.4byte	0x1245
 13798 1237 1B       		.uleb128 0x1b
 13799 1238 630B0000 		.4byte	.LASF342
 13800 123c 00       		.sleb128 0
 13801 123d 1B       		.uleb128 0x1b
 13802 123e 401A0000 		.4byte	.LASF343
 13803 1242 8001     		.sleb128 128
 13804 1244 00       		.byte	0
 13805 1245 11       		.uleb128 0x11
 13806 1246 55250000 		.4byte	.LASF344
 13807 124a 12       		.byte	0x12
 13808 124b 2E04     		.2byte	0x42e
 13809 124d 2E120000 		.4byte	0x122e
 13810 1251 1D       		.uleb128 0x1d
 13811 1252 01       		.byte	0x1
 13812 1253 12       		.byte	0x12
 13813 1254 4504     		.2byte	0x445
 13814 1256 67120000 		.4byte	0x1267
 13815 125a 1B       		.uleb128 0x1b
 13816 125b D20D0000 		.4byte	.LASF345
 13817 125f 00       		.sleb128 0
 13818 1260 1B       		.uleb128 0x1b
 13819 1261 F30D0000 		.4byte	.LASF346
 13820 1265 20       		.sleb128 32
 13821 1266 00       		.byte	0
 13822 1267 11       		.uleb128 0x11
 13823 1268 2A120000 		.4byte	.LASF347
 13824 126c 12       		.byte	0x12
 13825 126d 4804     		.2byte	0x448
 13826 126f 51120000 		.4byte	0x1251
 13827 1273 1D       		.uleb128 0x1d
 13828 1274 01       		.byte	0x1
 13829 1275 12       		.byte	0x12
 13830 1276 5504     		.2byte	0x455
 13831 1278 98120000 		.4byte	0x1298
 13832 127c 1B       		.uleb128 0x1b
 13833 127d 80170000 		.4byte	.LASF348
 13834 1281 00       		.sleb128 0
 13835 1282 1B       		.uleb128 0x1b
 13836 1283 3C350000 		.4byte	.LASF349
ARM GAS  /tmp/ccRrg1qB.s 			page 247


 13837 1287 C000     		.sleb128 64
 13838 1289 1B       		.uleb128 0x1b
 13839 128a 782F0000 		.4byte	.LASF350
 13840 128e 8001     		.sleb128 128
 13841 1290 1B       		.uleb128 0x1b
 13842 1291 B0230000 		.4byte	.LASF351
 13843 1295 C001     		.sleb128 192
 13844 1297 00       		.byte	0
 13845 1298 11       		.uleb128 0x11
 13846 1299 54030000 		.4byte	.LASF352
 13847 129d 12       		.byte	0x12
 13848 129e 5A04     		.2byte	0x45a
 13849 12a0 73120000 		.4byte	0x1273
 13850 12a4 1D       		.uleb128 0x1d
 13851 12a5 01       		.byte	0x1
 13852 12a6 12       		.byte	0x12
 13853 12a7 7104     		.2byte	0x471
 13854 12a9 BA120000 		.4byte	0x12ba
 13855 12ad 1B       		.uleb128 0x1b
 13856 12ae 161E0000 		.4byte	.LASF353
 13857 12b2 00       		.sleb128 0
 13858 12b3 1B       		.uleb128 0x1b
 13859 12b4 4C380000 		.4byte	.LASF354
 13860 12b8 20       		.sleb128 32
 13861 12b9 00       		.byte	0
 13862 12ba 11       		.uleb128 0x11
 13863 12bb 7B140000 		.4byte	.LASF355
 13864 12bf 12       		.byte	0x12
 13865 12c0 7404     		.2byte	0x474
 13866 12c2 A4120000 		.4byte	0x12a4
 13867 12c6 1D       		.uleb128 0x1d
 13868 12c7 01       		.byte	0x1
 13869 12c8 12       		.byte	0x12
 13870 12c9 8004     		.2byte	0x480
 13871 12cb DD120000 		.4byte	0x12dd
 13872 12cf 1B       		.uleb128 0x1b
 13873 12d0 DC170000 		.4byte	.LASF356
 13874 12d4 00       		.sleb128 0
 13875 12d5 1B       		.uleb128 0x1b
 13876 12d6 0F130000 		.4byte	.LASF357
 13877 12da C000     		.sleb128 64
 13878 12dc 00       		.byte	0
 13879 12dd 11       		.uleb128 0x11
 13880 12de E3320000 		.4byte	.LASF358
 13881 12e2 12       		.byte	0x12
 13882 12e3 8304     		.2byte	0x483
 13883 12e5 C6120000 		.4byte	0x12c6
 13884 12e9 1D       		.uleb128 0x1d
 13885 12ea 01       		.byte	0x1
 13886 12eb 12       		.byte	0x12
 13887 12ec 8F04     		.2byte	0x48f
 13888 12ee 00130000 		.4byte	0x1300
 13889 12f2 1B       		.uleb128 0x1b
 13890 12f3 CD240000 		.4byte	.LASF359
 13891 12f7 00       		.sleb128 0
 13892 12f8 1B       		.uleb128 0x1b
 13893 12f9 05310000 		.4byte	.LASF360
ARM GAS  /tmp/ccRrg1qB.s 			page 248


 13894 12fd 8001     		.sleb128 128
 13895 12ff 00       		.byte	0
 13896 1300 11       		.uleb128 0x11
 13897 1301 F4000000 		.4byte	.LASF361
 13898 1305 12       		.byte	0x12
 13899 1306 9204     		.2byte	0x492
 13900 1308 E9120000 		.4byte	0x12e9
 13901 130c 1D       		.uleb128 0x1d
 13902 130d 01       		.byte	0x1
 13903 130e 12       		.byte	0x12
 13904 130f 9E04     		.2byte	0x49e
 13905 1311 22130000 		.4byte	0x1322
 13906 1315 1B       		.uleb128 0x1b
 13907 1316 1D290000 		.4byte	.LASF362
 13908 131a 00       		.sleb128 0
 13909 131b 1B       		.uleb128 0x1b
 13910 131c CC340000 		.4byte	.LASF363
 13911 1320 01       		.sleb128 1
 13912 1321 00       		.byte	0
 13913 1322 11       		.uleb128 0x11
 13914 1323 C61C0000 		.4byte	.LASF364
 13915 1327 12       		.byte	0x12
 13916 1328 A104     		.2byte	0x4a1
 13917 132a 0C130000 		.4byte	0x130c
 13918 132e 1D       		.uleb128 0x1d
 13919 132f 01       		.byte	0x1
 13920 1330 12       		.byte	0x12
 13921 1331 B004     		.2byte	0x4b0
 13922 1333 44130000 		.4byte	0x1344
 13923 1337 1B       		.uleb128 0x1b
 13924 1338 7A020000 		.4byte	.LASF365
 13925 133c 00       		.sleb128 0
 13926 133d 1B       		.uleb128 0x1b
 13927 133e 5E290000 		.4byte	.LASF366
 13928 1342 02       		.sleb128 2
 13929 1343 00       		.byte	0
 13930 1344 11       		.uleb128 0x11
 13931 1345 6A0D0000 		.4byte	.LASF367
 13932 1349 12       		.byte	0x12
 13933 134a B304     		.2byte	0x4b3
 13934 134c 2E130000 		.4byte	0x132e
 13935 1350 1D       		.uleb128 0x1d
 13936 1351 01       		.byte	0x1
 13937 1352 12       		.byte	0x12
 13938 1353 C204     		.2byte	0x4c2
 13939 1355 66130000 		.4byte	0x1366
 13940 1359 1B       		.uleb128 0x1b
 13941 135a 9F350000 		.4byte	.LASF368
 13942 135e 00       		.sleb128 0
 13943 135f 1B       		.uleb128 0x1b
 13944 1360 A9280000 		.4byte	.LASF369
 13945 1364 04       		.sleb128 4
 13946 1365 00       		.byte	0
 13947 1366 11       		.uleb128 0x11
 13948 1367 8B1B0000 		.4byte	.LASF370
 13949 136b 12       		.byte	0x12
 13950 136c C504     		.2byte	0x4c5
ARM GAS  /tmp/ccRrg1qB.s 			page 249


 13951 136e 50130000 		.4byte	0x1350
 13952 1372 1D       		.uleb128 0x1d
 13953 1373 01       		.byte	0x1
 13954 1374 12       		.byte	0x12
 13955 1375 D404     		.2byte	0x4d4
 13956 1377 88130000 		.4byte	0x1388
 13957 137b 1B       		.uleb128 0x1b
 13958 137c 79100000 		.4byte	.LASF371
 13959 1380 00       		.sleb128 0
 13960 1381 1B       		.uleb128 0x1b
 13961 1382 AB1C0000 		.4byte	.LASF372
 13962 1386 08       		.sleb128 8
 13963 1387 00       		.byte	0
 13964 1388 11       		.uleb128 0x11
 13965 1389 300C0000 		.4byte	.LASF373
 13966 138d 12       		.byte	0x12
 13967 138e D704     		.2byte	0x4d7
 13968 1390 72130000 		.4byte	0x1372
 13969 1394 1D       		.uleb128 0x1d
 13970 1395 01       		.byte	0x1
 13971 1396 12       		.byte	0x12
 13972 1397 E604     		.2byte	0x4e6
 13973 1399 AA130000 		.4byte	0x13aa
 13974 139d 1B       		.uleb128 0x1b
 13975 139e 93290000 		.4byte	.LASF374
 13976 13a2 00       		.sleb128 0
 13977 13a3 1B       		.uleb128 0x1b
 13978 13a4 0F1B0000 		.4byte	.LASF375
 13979 13a8 10       		.sleb128 16
 13980 13a9 00       		.byte	0
 13981 13aa 11       		.uleb128 0x11
 13982 13ab 7D330000 		.4byte	.LASF376
 13983 13af 12       		.byte	0x12
 13984 13b0 E904     		.2byte	0x4e9
 13985 13b2 94130000 		.4byte	0x1394
 13986 13b6 1D       		.uleb128 0x1d
 13987 13b7 01       		.byte	0x1
 13988 13b8 12       		.byte	0x12
 13989 13b9 F804     		.2byte	0x4f8
 13990 13bb CC130000 		.4byte	0x13cc
 13991 13bf 1B       		.uleb128 0x1b
 13992 13c0 0D2C0000 		.4byte	.LASF377
 13993 13c4 00       		.sleb128 0
 13994 13c5 1B       		.uleb128 0x1b
 13995 13c6 49100000 		.4byte	.LASF378
 13996 13ca 20       		.sleb128 32
 13997 13cb 00       		.byte	0
 13998 13cc 11       		.uleb128 0x11
 13999 13cd 040B0000 		.4byte	.LASF379
 14000 13d1 12       		.byte	0x12
 14001 13d2 FB04     		.2byte	0x4fb
 14002 13d4 B6130000 		.4byte	0x13b6
 14003 13d8 1D       		.uleb128 0x1d
 14004 13d9 01       		.byte	0x1
 14005 13da 12       		.byte	0x12
 14006 13db 0A05     		.2byte	0x50a
 14007 13dd EF130000 		.4byte	0x13ef
ARM GAS  /tmp/ccRrg1qB.s 			page 250


 14008 13e1 1B       		.uleb128 0x1b
 14009 13e2 FE090000 		.4byte	.LASF380
 14010 13e6 00       		.sleb128 0
 14011 13e7 1B       		.uleb128 0x1b
 14012 13e8 59280000 		.4byte	.LASF381
 14013 13ec C000     		.sleb128 64
 14014 13ee 00       		.byte	0
 14015 13ef 11       		.uleb128 0x11
 14016 13f0 2A1B0000 		.4byte	.LASF382
 14017 13f4 12       		.byte	0x12
 14018 13f5 0D05     		.2byte	0x50d
 14019 13f7 D8130000 		.4byte	0x13d8
 14020 13fb 1D       		.uleb128 0x1d
 14021 13fc 01       		.byte	0x1
 14022 13fd 12       		.byte	0x12
 14023 13fe 1C05     		.2byte	0x51c
 14024 1400 12140000 		.4byte	0x1412
 14025 1404 1B       		.uleb128 0x1b
 14026 1405 3C360000 		.4byte	.LASF383
 14027 1409 00       		.sleb128 0
 14028 140a 1B       		.uleb128 0x1b
 14029 140b F42D0000 		.4byte	.LASF384
 14030 140f 8001     		.sleb128 128
 14031 1411 00       		.byte	0
 14032 1412 11       		.uleb128 0x11
 14033 1413 B6140000 		.4byte	.LASF385
 14034 1417 12       		.byte	0x12
 14035 1418 1F05     		.2byte	0x51f
 14036 141a FB130000 		.4byte	0x13fb
 14037 141e 1D       		.uleb128 0x1d
 14038 141f 01       		.byte	0x1
 14039 1420 12       		.byte	0x12
 14040 1421 2E05     		.2byte	0x52e
 14041 1423 34140000 		.4byte	0x1434
 14042 1427 1B       		.uleb128 0x1b
 14043 1428 9F130000 		.4byte	.LASF386
 14044 142c 00       		.sleb128 0
 14045 142d 1B       		.uleb128 0x1b
 14046 142e CF020000 		.4byte	.LASF387
 14047 1432 01       		.sleb128 1
 14048 1433 00       		.byte	0
 14049 1434 11       		.uleb128 0x11
 14050 1435 8E250000 		.4byte	.LASF388
 14051 1439 12       		.byte	0x12
 14052 143a 3105     		.2byte	0x531
 14053 143c 1E140000 		.4byte	0x141e
 14054 1440 1D       		.uleb128 0x1d
 14055 1441 01       		.byte	0x1
 14056 1442 12       		.byte	0x12
 14057 1443 3E05     		.2byte	0x53e
 14058 1445 56140000 		.4byte	0x1456
 14059 1449 1B       		.uleb128 0x1b
 14060 144a 792A0000 		.4byte	.LASF389
 14061 144e 00       		.sleb128 0
 14062 144f 1B       		.uleb128 0x1b
 14063 1450 39060000 		.4byte	.LASF390
 14064 1454 02       		.sleb128 2
ARM GAS  /tmp/ccRrg1qB.s 			page 251


 14065 1455 00       		.byte	0
 14066 1456 11       		.uleb128 0x11
 14067 1457 980F0000 		.4byte	.LASF391
 14068 145b 12       		.byte	0x12
 14069 145c 4105     		.2byte	0x541
 14070 145e 40140000 		.4byte	0x1440
 14071 1462 1D       		.uleb128 0x1d
 14072 1463 01       		.byte	0x1
 14073 1464 12       		.byte	0x12
 14074 1465 4E05     		.2byte	0x54e
 14075 1467 78140000 		.4byte	0x1478
 14076 146b 1B       		.uleb128 0x1b
 14077 146c CB130000 		.4byte	.LASF392
 14078 1470 00       		.sleb128 0
 14079 1471 1B       		.uleb128 0x1b
 14080 1472 0E160000 		.4byte	.LASF393
 14081 1476 04       		.sleb128 4
 14082 1477 00       		.byte	0
 14083 1478 11       		.uleb128 0x11
 14084 1479 9D060000 		.4byte	.LASF394
 14085 147d 12       		.byte	0x12
 14086 147e 5105     		.2byte	0x551
 14087 1480 62140000 		.4byte	0x1462
 14088 1484 1D       		.uleb128 0x1d
 14089 1485 01       		.byte	0x1
 14090 1486 12       		.byte	0x12
 14091 1487 5E05     		.2byte	0x55e
 14092 1489 9A140000 		.4byte	0x149a
 14093 148d 1B       		.uleb128 0x1b
 14094 148e 11360000 		.4byte	.LASF395
 14095 1492 00       		.sleb128 0
 14096 1493 1B       		.uleb128 0x1b
 14097 1494 E5180000 		.4byte	.LASF396
 14098 1498 08       		.sleb128 8
 14099 1499 00       		.byte	0
 14100 149a 11       		.uleb128 0x11
 14101 149b F02A0000 		.4byte	.LASF397
 14102 149f 12       		.byte	0x12
 14103 14a0 6105     		.2byte	0x561
 14104 14a2 84140000 		.4byte	0x1484
 14105 14a6 1D       		.uleb128 0x1d
 14106 14a7 01       		.byte	0x1
 14107 14a8 12       		.byte	0x12
 14108 14a9 6E05     		.2byte	0x56e
 14109 14ab BC140000 		.4byte	0x14bc
 14110 14af 1B       		.uleb128 0x1b
 14111 14b0 4B1F0000 		.4byte	.LASF398
 14112 14b4 00       		.sleb128 0
 14113 14b5 1B       		.uleb128 0x1b
 14114 14b6 46270000 		.4byte	.LASF399
 14115 14ba 10       		.sleb128 16
 14116 14bb 00       		.byte	0
 14117 14bc 11       		.uleb128 0x11
 14118 14bd 25010000 		.4byte	.LASF400
 14119 14c1 12       		.byte	0x12
 14120 14c2 7105     		.2byte	0x571
 14121 14c4 A6140000 		.4byte	0x14a6
ARM GAS  /tmp/ccRrg1qB.s 			page 252


 14122 14c8 1D       		.uleb128 0x1d
 14123 14c9 01       		.byte	0x1
 14124 14ca 12       		.byte	0x12
 14125 14cb 7E05     		.2byte	0x57e
 14126 14cd DE140000 		.4byte	0x14de
 14127 14d1 1B       		.uleb128 0x1b
 14128 14d2 51080000 		.4byte	.LASF401
 14129 14d6 00       		.sleb128 0
 14130 14d7 1B       		.uleb128 0x1b
 14131 14d8 4E2B0000 		.4byte	.LASF402
 14132 14dc 20       		.sleb128 32
 14133 14dd 00       		.byte	0
 14134 14de 11       		.uleb128 0x11
 14135 14df F50B0000 		.4byte	.LASF403
 14136 14e3 12       		.byte	0x12
 14137 14e4 8105     		.2byte	0x581
 14138 14e6 C8140000 		.4byte	0x14c8
 14139 14ea 1D       		.uleb128 0x1d
 14140 14eb 01       		.byte	0x1
 14141 14ec 12       		.byte	0x12
 14142 14ed 8E05     		.2byte	0x58e
 14143 14ef 01150000 		.4byte	0x1501
 14144 14f3 1B       		.uleb128 0x1b
 14145 14f4 FE130000 		.4byte	.LASF404
 14146 14f8 00       		.sleb128 0
 14147 14f9 1B       		.uleb128 0x1b
 14148 14fa 66020000 		.4byte	.LASF405
 14149 14fe C000     		.sleb128 64
 14150 1500 00       		.byte	0
 14151 1501 11       		.uleb128 0x11
 14152 1502 36150000 		.4byte	.LASF406
 14153 1506 12       		.byte	0x12
 14154 1507 9105     		.2byte	0x591
 14155 1509 EA140000 		.4byte	0x14ea
 14156 150d 1D       		.uleb128 0x1d
 14157 150e 01       		.byte	0x1
 14158 150f 12       		.byte	0x12
 14159 1510 B805     		.2byte	0x5b8
 14160 1512 23150000 		.4byte	0x1523
 14161 1516 1B       		.uleb128 0x1b
 14162 1517 D6300000 		.4byte	.LASF407
 14163 151b 00       		.sleb128 0
 14164 151c 1B       		.uleb128 0x1b
 14165 151d 43200000 		.4byte	.LASF408
 14166 1521 01       		.sleb128 1
 14167 1522 00       		.byte	0
 14168 1523 11       		.uleb128 0x11
 14169 1524 E4160000 		.4byte	.LASF409
 14170 1528 12       		.byte	0x12
 14171 1529 BB05     		.2byte	0x5bb
 14172 152b 0D150000 		.4byte	0x150d
 14173 152f 1D       		.uleb128 0x1d
 14174 1530 01       		.byte	0x1
 14175 1531 12       		.byte	0x12
 14176 1532 C805     		.2byte	0x5c8
 14177 1534 45150000 		.4byte	0x1545
 14178 1538 1B       		.uleb128 0x1b
ARM GAS  /tmp/ccRrg1qB.s 			page 253


 14179 1539 77000000 		.4byte	.LASF410
 14180 153d 00       		.sleb128 0
 14181 153e 1B       		.uleb128 0x1b
 14182 153f AB1D0000 		.4byte	.LASF411
 14183 1543 02       		.sleb128 2
 14184 1544 00       		.byte	0
 14185 1545 11       		.uleb128 0x11
 14186 1546 3D1B0000 		.4byte	.LASF412
 14187 154a 12       		.byte	0x12
 14188 154b CB05     		.2byte	0x5cb
 14189 154d 2F150000 		.4byte	0x152f
 14190 1551 1D       		.uleb128 0x1d
 14191 1552 01       		.byte	0x1
 14192 1553 12       		.byte	0x12
 14193 1554 D805     		.2byte	0x5d8
 14194 1556 67150000 		.4byte	0x1567
 14195 155a 1B       		.uleb128 0x1b
 14196 155b CC290000 		.4byte	.LASF413
 14197 155f 00       		.sleb128 0
 14198 1560 1B       		.uleb128 0x1b
 14199 1561 9B0A0000 		.4byte	.LASF414
 14200 1565 04       		.sleb128 4
 14201 1566 00       		.byte	0
 14202 1567 11       		.uleb128 0x11
 14203 1568 9C2E0000 		.4byte	.LASF415
 14204 156c 12       		.byte	0x12
 14205 156d DB05     		.2byte	0x5db
 14206 156f 51150000 		.4byte	0x1551
 14207 1573 1D       		.uleb128 0x1d
 14208 1574 01       		.byte	0x1
 14209 1575 12       		.byte	0x12
 14210 1576 E805     		.2byte	0x5e8
 14211 1578 89150000 		.4byte	0x1589
 14212 157c 1B       		.uleb128 0x1b
 14213 157d 0A1A0000 		.4byte	.LASF416
 14214 1581 00       		.sleb128 0
 14215 1582 1B       		.uleb128 0x1b
 14216 1583 B7270000 		.4byte	.LASF417
 14217 1587 08       		.sleb128 8
 14218 1588 00       		.byte	0
 14219 1589 11       		.uleb128 0x11
 14220 158a A1150000 		.4byte	.LASF418
 14221 158e 12       		.byte	0x12
 14222 158f EB05     		.2byte	0x5eb
 14223 1591 73150000 		.4byte	0x1573
 14224 1595 1D       		.uleb128 0x1d
 14225 1596 01       		.byte	0x1
 14226 1597 12       		.byte	0x12
 14227 1598 F805     		.2byte	0x5f8
 14228 159a AB150000 		.4byte	0x15ab
 14229 159e 1B       		.uleb128 0x1b
 14230 159f F2080000 		.4byte	.LASF419
 14231 15a3 00       		.sleb128 0
 14232 15a4 1B       		.uleb128 0x1b
 14233 15a5 0A340000 		.4byte	.LASF420
 14234 15a9 10       		.sleb128 16
 14235 15aa 00       		.byte	0
ARM GAS  /tmp/ccRrg1qB.s 			page 254


 14236 15ab 11       		.uleb128 0x11
 14237 15ac F7160000 		.4byte	.LASF421
 14238 15b0 12       		.byte	0x12
 14239 15b1 FB05     		.2byte	0x5fb
 14240 15b3 95150000 		.4byte	0x1595
 14241 15b7 1D       		.uleb128 0x1d
 14242 15b8 01       		.byte	0x1
 14243 15b9 12       		.byte	0x12
 14244 15ba 0806     		.2byte	0x608
 14245 15bc CD150000 		.4byte	0x15cd
 14246 15c0 1B       		.uleb128 0x1b
 14247 15c1 92330000 		.4byte	.LASF422
 14248 15c5 00       		.sleb128 0
 14249 15c6 1B       		.uleb128 0x1b
 14250 15c7 21320000 		.4byte	.LASF423
 14251 15cb 20       		.sleb128 32
 14252 15cc 00       		.byte	0
 14253 15cd 11       		.uleb128 0x11
 14254 15ce 05300000 		.4byte	.LASF424
 14255 15d2 12       		.byte	0x12
 14256 15d3 0B06     		.2byte	0x60b
 14257 15d5 B7150000 		.4byte	0x15b7
 14258 15d9 1D       		.uleb128 0x1d
 14259 15da 01       		.byte	0x1
 14260 15db 12       		.byte	0x12
 14261 15dc 1806     		.2byte	0x618
 14262 15de EF150000 		.4byte	0x15ef
 14263 15e2 1B       		.uleb128 0x1b
 14264 15e3 D8310000 		.4byte	.LASF425
 14265 15e7 00       		.sleb128 0
 14266 15e8 1B       		.uleb128 0x1b
 14267 15e9 C4120000 		.4byte	.LASF426
 14268 15ed 01       		.sleb128 1
 14269 15ee 00       		.byte	0
 14270 15ef 11       		.uleb128 0x11
 14271 15f0 38010000 		.4byte	.LASF427
 14272 15f4 12       		.byte	0x12
 14273 15f5 1B06     		.2byte	0x61b
 14274 15f7 D9150000 		.4byte	0x15d9
 14275 15fb 1D       		.uleb128 0x1d
 14276 15fc 01       		.byte	0x1
 14277 15fd 12       		.byte	0x12
 14278 15fe 2706     		.2byte	0x627
 14279 1600 11160000 		.4byte	0x1611
 14280 1604 1B       		.uleb128 0x1b
 14281 1605 F0300000 		.4byte	.LASF428
 14282 1609 00       		.sleb128 0
 14283 160a 1B       		.uleb128 0x1b
 14284 160b E12D0000 		.4byte	.LASF429
 14285 160f 02       		.sleb128 2
 14286 1610 00       		.byte	0
 14287 1611 11       		.uleb128 0x11
 14288 1612 9E120000 		.4byte	.LASF430
 14289 1616 12       		.byte	0x12
 14290 1617 2A06     		.2byte	0x62a
 14291 1619 FB150000 		.4byte	0x15fb
 14292 161d 1D       		.uleb128 0x1d
ARM GAS  /tmp/ccRrg1qB.s 			page 255


 14293 161e 01       		.byte	0x1
 14294 161f 12       		.byte	0x12
 14295 1620 3606     		.2byte	0x636
 14296 1622 33160000 		.4byte	0x1633
 14297 1626 1B       		.uleb128 0x1b
 14298 1627 4C130000 		.4byte	.LASF431
 14299 162b 00       		.sleb128 0
 14300 162c 1B       		.uleb128 0x1b
 14301 162d BB100000 		.4byte	.LASF432
 14302 1631 04       		.sleb128 4
 14303 1632 00       		.byte	0
 14304 1633 11       		.uleb128 0x11
 14305 1634 FF170000 		.4byte	.LASF433
 14306 1638 12       		.byte	0x12
 14307 1639 3906     		.2byte	0x639
 14308 163b 1D160000 		.4byte	0x161d
 14309 163f 1D       		.uleb128 0x1d
 14310 1640 01       		.byte	0x1
 14311 1641 12       		.byte	0x12
 14312 1642 4506     		.2byte	0x645
 14313 1644 55160000 		.4byte	0x1655
 14314 1648 1B       		.uleb128 0x1b
 14315 1649 D0330000 		.4byte	.LASF434
 14316 164d 00       		.sleb128 0
 14317 164e 1B       		.uleb128 0x1b
 14318 164f E80A0000 		.4byte	.LASF435
 14319 1653 08       		.sleb128 8
 14320 1654 00       		.byte	0
 14321 1655 11       		.uleb128 0x11
 14322 1656 02260000 		.4byte	.LASF436
 14323 165a 12       		.byte	0x12
 14324 165b 4806     		.2byte	0x648
 14325 165d 3F160000 		.4byte	0x163f
 14326 1661 1D       		.uleb128 0x1d
 14327 1662 01       		.byte	0x1
 14328 1663 12       		.byte	0x12
 14329 1664 5406     		.2byte	0x654
 14330 1666 77160000 		.4byte	0x1677
 14331 166a 1B       		.uleb128 0x1b
 14332 166b 5B2D0000 		.4byte	.LASF437
 14333 166f 00       		.sleb128 0
 14334 1670 1B       		.uleb128 0x1b
 14335 1671 B5200000 		.4byte	.LASF438
 14336 1675 10       		.sleb128 16
 14337 1676 00       		.byte	0
 14338 1677 11       		.uleb128 0x11
 14339 1678 56230000 		.4byte	.LASF439
 14340 167c 12       		.byte	0x12
 14341 167d 5706     		.2byte	0x657
 14342 167f 61160000 		.4byte	0x1661
 14343 1683 1D       		.uleb128 0x1d
 14344 1684 01       		.byte	0x1
 14345 1685 12       		.byte	0x12
 14346 1686 6306     		.2byte	0x663
 14347 1688 99160000 		.4byte	0x1699
 14348 168c 1B       		.uleb128 0x1b
 14349 168d E6240000 		.4byte	.LASF440
ARM GAS  /tmp/ccRrg1qB.s 			page 256


 14350 1691 00       		.sleb128 0
 14351 1692 1B       		.uleb128 0x1b
 14352 1693 E1130000 		.4byte	.LASF441
 14353 1697 20       		.sleb128 32
 14354 1698 00       		.byte	0
 14355 1699 11       		.uleb128 0x11
 14356 169a 18170000 		.4byte	.LASF442
 14357 169e 12       		.byte	0x12
 14358 169f 6606     		.2byte	0x666
 14359 16a1 83160000 		.4byte	0x1683
 14360 16a5 1D       		.uleb128 0x1d
 14361 16a6 01       		.byte	0x1
 14362 16a7 12       		.byte	0x12
 14363 16a8 7206     		.2byte	0x672
 14364 16aa BC160000 		.4byte	0x16bc
 14365 16ae 1B       		.uleb128 0x1b
 14366 16af 0F240000 		.4byte	.LASF443
 14367 16b3 00       		.sleb128 0
 14368 16b4 1B       		.uleb128 0x1b
 14369 16b5 5F2A0000 		.4byte	.LASF444
 14370 16b9 C000     		.sleb128 64
 14371 16bb 00       		.byte	0
 14372 16bc 11       		.uleb128 0x11
 14373 16bd D5210000 		.4byte	.LASF445
 14374 16c1 12       		.byte	0x12
 14375 16c2 7506     		.2byte	0x675
 14376 16c4 A5160000 		.4byte	0x16a5
 14377 16c8 04       		.uleb128 0x4
 14378 16c9 04       		.byte	0x4
 14379 16ca 04       		.byte	0x4
 14380 16cb E80E0000 		.4byte	.LASF446
 14381 16cf 1E       		.uleb128 0x1e
 14382 16d0 0E320000 		.4byte	.LASF449
 14383 16d4 01       		.byte	0x1
 14384 16d5 4A       		.byte	0x4a
 14385 16d6 AA0A0000 		.4byte	0xaaa
 14386 16da 00000000 		.4byte	.LFB267
 14387 16de 3A000000 		.4byte	.LFE267-.LFB267
 14388 16e2 01       		.uleb128 0x1
 14389 16e3 9C       		.byte	0x9c
 14390 16e4 05170000 		.4byte	0x1705
 14391 16e8 1F       		.uleb128 0x1f
 14392 16e9 09130000 		.4byte	.LASF447
 14393 16ed 01       		.byte	0x1
 14394 16ee 4B       		.byte	0x4b
 14395 16ef AD000000 		.4byte	0xad
 14396 16f3 02       		.uleb128 0x2
 14397 16f4 91       		.byte	0x91
 14398 16f5 77       		.sleb128 -9
 14399 16f6 1F       		.uleb128 0x1f
 14400 16f7 2D330000 		.4byte	.LASF448
 14401 16fb 01       		.byte	0x1
 14402 16fc 4C       		.byte	0x4c
 14403 16fd AD000000 		.4byte	0xad
 14404 1701 02       		.uleb128 0x2
 14405 1702 91       		.byte	0x91
 14406 1703 76       		.sleb128 -10
ARM GAS  /tmp/ccRrg1qB.s 			page 257


 14407 1704 00       		.byte	0
 14408 1705 1E       		.uleb128 0x1e
 14409 1706 902C0000 		.4byte	.LASF450
 14410 170a 01       		.byte	0x1
 14411 170b 52       		.byte	0x52
 14412 170c AA0A0000 		.4byte	0xaaa
 14413 1710 40000000 		.4byte	.LFB268
 14414 1714 3A000000 		.4byte	.LFE268-.LFB268
 14415 1718 01       		.uleb128 0x1
 14416 1719 9C       		.byte	0x9c
 14417 171a 3B170000 		.4byte	0x173b
 14418 171e 1F       		.uleb128 0x1f
 14419 171f 09130000 		.4byte	.LASF447
 14420 1723 01       		.byte	0x1
 14421 1724 53       		.byte	0x53
 14422 1725 AD000000 		.4byte	0xad
 14423 1729 02       		.uleb128 0x2
 14424 172a 91       		.byte	0x91
 14425 172b 77       		.sleb128 -9
 14426 172c 1F       		.uleb128 0x1f
 14427 172d 2D330000 		.4byte	.LASF448
 14428 1731 01       		.byte	0x1
 14429 1732 54       		.byte	0x54
 14430 1733 AD000000 		.4byte	0xad
 14431 1737 02       		.uleb128 0x2
 14432 1738 91       		.byte	0x91
 14433 1739 76       		.sleb128 -10
 14434 173a 00       		.byte	0
 14435 173b 1E       		.uleb128 0x1e
 14436 173c 82230000 		.4byte	.LASF451
 14437 1740 01       		.byte	0x1
 14438 1741 63       		.byte	0x63
 14439 1742 AA0A0000 		.4byte	0xaaa
 14440 1746 80000000 		.4byte	.LFB269
 14441 174a 3C000000 		.4byte	.LFE269-.LFB269
 14442 174e 01       		.uleb128 0x1
 14443 174f 9C       		.byte	0x9c
 14444 1750 8D170000 		.4byte	0x178d
 14445 1754 20       		.uleb128 0x20
 14446 1755 CC000000 		.4byte	.LASF452
 14447 1759 01       		.byte	0x1
 14448 175a 63       		.byte	0x63
 14449 175b 3E030000 		.4byte	0x33e
 14450 175f 02       		.uleb128 0x2
 14451 1760 91       		.byte	0x91
 14452 1761 74       		.sleb128 -12
 14453 1762 21       		.uleb128 0x21
 14454 1763 52656700 		.ascii	"Reg\000"
 14455 1767 01       		.byte	0x1
 14456 1768 63       		.byte	0x63
 14457 1769 2A0A0000 		.4byte	0xa2a
 14458 176d 02       		.uleb128 0x2
 14459 176e 91       		.byte	0x91
 14460 176f 73       		.sleb128 -13
 14461 1770 20       		.uleb128 0x20
 14462 1771 40050000 		.4byte	.LASF453
 14463 1775 01       		.byte	0x1
ARM GAS  /tmp/ccRrg1qB.s 			page 258


 14464 1776 63       		.byte	0x63
 14465 1777 8D170000 		.4byte	0x178d
 14466 177b 02       		.uleb128 0x2
 14467 177c 91       		.byte	0x91
 14468 177d 6C       		.sleb128 -20
 14469 177e 21       		.uleb128 0x21
 14470 177f 6C656E00 		.ascii	"len\000"
 14471 1783 01       		.byte	0x1
 14472 1784 63       		.byte	0x63
 14473 1785 350A0000 		.4byte	0xa35
 14474 1789 02       		.uleb128 0x2
 14475 178a 91       		.byte	0x91
 14476 178b 70       		.sleb128 -16
 14477 178c 00       		.byte	0
 14478 178d 09       		.uleb128 0x9
 14479 178e 04       		.byte	0x4
 14480 178f 2A0A0000 		.4byte	0xa2a
 14481 1793 1E       		.uleb128 0x1e
 14482 1794 D2200000 		.4byte	.LASF454
 14483 1798 01       		.byte	0x1
 14484 1799 78       		.byte	0x78
 14485 179a AA0A0000 		.4byte	0xaaa
 14486 179e C0000000 		.4byte	.LFB270
 14487 17a2 3C000000 		.4byte	.LFE270-.LFB270
 14488 17a6 01       		.uleb128 0x1
 14489 17a7 9C       		.byte	0x9c
 14490 17a8 E5170000 		.4byte	0x17e5
 14491 17ac 20       		.uleb128 0x20
 14492 17ad CC000000 		.4byte	.LASF452
 14493 17b1 01       		.byte	0x1
 14494 17b2 78       		.byte	0x78
 14495 17b3 3E030000 		.4byte	0x33e
 14496 17b7 02       		.uleb128 0x2
 14497 17b8 91       		.byte	0x91
 14498 17b9 74       		.sleb128 -12
 14499 17ba 21       		.uleb128 0x21
 14500 17bb 52656700 		.ascii	"Reg\000"
 14501 17bf 01       		.byte	0x1
 14502 17c0 78       		.byte	0x78
 14503 17c1 2A0A0000 		.4byte	0xa2a
 14504 17c5 02       		.uleb128 0x2
 14505 17c6 91       		.byte	0x91
 14506 17c7 73       		.sleb128 -13
 14507 17c8 20       		.uleb128 0x20
 14508 17c9 40050000 		.4byte	.LASF453
 14509 17cd 01       		.byte	0x1
 14510 17ce 78       		.byte	0x78
 14511 17cf 8D170000 		.4byte	0x178d
 14512 17d3 02       		.uleb128 0x2
 14513 17d4 91       		.byte	0x91
 14514 17d5 6C       		.sleb128 -20
 14515 17d6 21       		.uleb128 0x21
 14516 17d7 6C656E00 		.ascii	"len\000"
 14517 17db 01       		.byte	0x1
 14518 17dc 78       		.byte	0x78
 14519 17dd 350A0000 		.4byte	0xa35
 14520 17e1 02       		.uleb128 0x2
ARM GAS  /tmp/ccRrg1qB.s 			page 259


 14521 17e2 91       		.byte	0x91
 14522 17e3 70       		.sleb128 -16
 14523 17e4 00       		.byte	0
 14524 17e5 1E       		.uleb128 0x1e
 14525 17e6 96160000 		.4byte	.LASF455
 14526 17ea 01       		.byte	0x1
 14527 17eb 8D       		.byte	0x8d
 14528 17ec AA0A0000 		.4byte	0xaaa
 14529 17f0 00010000 		.4byte	.LFB271
 14530 17f4 28000000 		.4byte	.LFE271-.LFB271
 14531 17f8 01       		.uleb128 0x1
 14532 17f9 9C       		.byte	0x9c
 14533 17fa 1B180000 		.4byte	0x181b
 14534 17fe 20       		.uleb128 0x20
 14535 17ff CC000000 		.4byte	.LASF452
 14536 1803 01       		.byte	0x1
 14537 1804 8D       		.byte	0x8d
 14538 1805 3E030000 		.4byte	0x33e
 14539 1809 02       		.uleb128 0x2
 14540 180a 91       		.byte	0x91
 14541 180b 74       		.sleb128 -12
 14542 180c 20       		.uleb128 0x20
 14543 180d 09130000 		.4byte	.LASF447
 14544 1811 01       		.byte	0x1
 14545 1812 8D       		.byte	0x8d
 14546 1813 8D170000 		.4byte	0x178d
 14547 1817 02       		.uleb128 0x2
 14548 1818 91       		.byte	0x91
 14549 1819 70       		.sleb128 -16
 14550 181a 00       		.byte	0
 14551 181b 1E       		.uleb128 0x1e
 14552 181c BB0C0000 		.4byte	.LASF456
 14553 1820 01       		.byte	0x1
 14554 1821 9F       		.byte	0x9f
 14555 1822 AA0A0000 		.4byte	0xaaa
 14556 1826 30010000 		.4byte	.LFB272
 14557 182a 68000000 		.4byte	.LFE272-.LFB272
 14558 182e 01       		.uleb128 0x1
 14559 182f 9C       		.byte	0x9c
 14560 1830 5F180000 		.4byte	0x185f
 14561 1834 20       		.uleb128 0x20
 14562 1835 CC000000 		.4byte	.LASF452
 14563 1839 01       		.byte	0x1
 14564 183a 9F       		.byte	0x9f
 14565 183b 3E030000 		.4byte	0x33e
 14566 183f 02       		.uleb128 0x2
 14567 1840 91       		.byte	0x91
 14568 1841 6C       		.sleb128 -20
 14569 1842 20       		.uleb128 0x20
 14570 1843 E3280000 		.4byte	.LASF457
 14571 1847 01       		.byte	0x1
 14572 1848 9F       		.byte	0x9f
 14573 1849 CB0A0000 		.4byte	0xacb
 14574 184d 02       		.uleb128 0x2
 14575 184e 91       		.byte	0x91
 14576 184f 6B       		.sleb128 -21
 14577 1850 1F       		.uleb128 0x1f
ARM GAS  /tmp/ccRrg1qB.s 			page 260


 14578 1851 09130000 		.4byte	.LASF447
 14579 1855 01       		.byte	0x1
 14580 1856 A1       		.byte	0xa1
 14581 1857 2A0A0000 		.4byte	0xa2a
 14582 185b 02       		.uleb128 0x2
 14583 185c 91       		.byte	0x91
 14584 185d 77       		.sleb128 -9
 14585 185e 00       		.byte	0
 14586 185f 1E       		.uleb128 0x1e
 14587 1860 902F0000 		.4byte	.LASF458
 14588 1864 01       		.byte	0x1
 14589 1865 B6       		.byte	0xb6
 14590 1866 AA0A0000 		.4byte	0xaaa
 14591 186a A0010000 		.4byte	.LFB273
 14592 186e 36000000 		.4byte	.LFE273-.LFB273
 14593 1872 01       		.uleb128 0x1
 14594 1873 9C       		.byte	0x9c
 14595 1874 95180000 		.4byte	0x1895
 14596 1878 20       		.uleb128 0x20
 14597 1879 CC000000 		.4byte	.LASF452
 14598 187d 01       		.byte	0x1
 14599 187e B6       		.byte	0xb6
 14600 187f 3E030000 		.4byte	0x33e
 14601 1883 02       		.uleb128 0x2
 14602 1884 91       		.byte	0x91
 14603 1885 74       		.sleb128 -12
 14604 1886 20       		.uleb128 0x20
 14605 1887 09130000 		.4byte	.LASF447
 14606 188b 01       		.byte	0x1
 14607 188c B6       		.byte	0xb6
 14608 188d 95180000 		.4byte	0x1895
 14609 1891 02       		.uleb128 0x2
 14610 1892 91       		.byte	0x91
 14611 1893 70       		.sleb128 -16
 14612 1894 00       		.byte	0
 14613 1895 09       		.uleb128 0x9
 14614 1896 04       		.byte	0x4
 14615 1897 CB0A0000 		.4byte	0xacb
 14616 189b 1E       		.uleb128 0x1e
 14617 189c E31B0000 		.4byte	.LASF459
 14618 18a0 01       		.byte	0x1
 14619 18a1 C7       		.byte	0xc7
 14620 18a2 AA0A0000 		.4byte	0xaaa
 14621 18a6 E0010000 		.4byte	.LFB274
 14622 18aa 68000000 		.4byte	.LFE274-.LFB274
 14623 18ae 01       		.uleb128 0x1
 14624 18af 9C       		.byte	0x9c
 14625 18b0 DF180000 		.4byte	0x18df
 14626 18b4 20       		.uleb128 0x20
 14627 18b5 CC000000 		.4byte	.LASF452
 14628 18b9 01       		.byte	0x1
 14629 18ba C7       		.byte	0xc7
 14630 18bb 3E030000 		.4byte	0x33e
 14631 18bf 02       		.uleb128 0x2
 14632 18c0 91       		.byte	0x91
 14633 18c1 6C       		.sleb128 -20
 14634 18c2 20       		.uleb128 0x20
ARM GAS  /tmp/ccRrg1qB.s 			page 261


 14635 18c3 E3280000 		.4byte	.LASF457
 14636 18c7 01       		.byte	0x1
 14637 18c8 C7       		.byte	0xc7
 14638 18c9 F70A0000 		.4byte	0xaf7
 14639 18cd 02       		.uleb128 0x2
 14640 18ce 91       		.byte	0x91
 14641 18cf 6B       		.sleb128 -21
 14642 18d0 1F       		.uleb128 0x1f
 14643 18d1 09130000 		.4byte	.LASF447
 14644 18d5 01       		.byte	0x1
 14645 18d6 C9       		.byte	0xc9
 14646 18d7 2A0A0000 		.4byte	0xa2a
 14647 18db 02       		.uleb128 0x2
 14648 18dc 91       		.byte	0x91
 14649 18dd 77       		.sleb128 -9
 14650 18de 00       		.byte	0
 14651 18df 1E       		.uleb128 0x1e
 14652 18e0 18300000 		.4byte	.LASF460
 14653 18e4 01       		.byte	0x1
 14654 18e5 DE       		.byte	0xde
 14655 18e6 AA0A0000 		.4byte	0xaaa
 14656 18ea 50020000 		.4byte	.LFB275
 14657 18ee 36000000 		.4byte	.LFE275-.LFB275
 14658 18f2 01       		.uleb128 0x1
 14659 18f3 9C       		.byte	0x9c
 14660 18f4 15190000 		.4byte	0x1915
 14661 18f8 20       		.uleb128 0x20
 14662 18f9 CC000000 		.4byte	.LASF452
 14663 18fd 01       		.byte	0x1
 14664 18fe DE       		.byte	0xde
 14665 18ff 3E030000 		.4byte	0x33e
 14666 1903 02       		.uleb128 0x2
 14667 1904 91       		.byte	0x91
 14668 1905 74       		.sleb128 -12
 14669 1906 20       		.uleb128 0x20
 14670 1907 09130000 		.4byte	.LASF447
 14671 190b 01       		.byte	0x1
 14672 190c DE       		.byte	0xde
 14673 190d 15190000 		.4byte	0x1915
 14674 1911 02       		.uleb128 0x2
 14675 1912 91       		.byte	0x91
 14676 1913 70       		.sleb128 -16
 14677 1914 00       		.byte	0
 14678 1915 09       		.uleb128 0x9
 14679 1916 04       		.byte	0x4
 14680 1917 F70A0000 		.4byte	0xaf7
 14681 191b 1E       		.uleb128 0x1e
 14682 191c C8060000 		.4byte	.LASF461
 14683 1920 01       		.byte	0x1
 14684 1921 EF       		.byte	0xef
 14685 1922 AA0A0000 		.4byte	0xaaa
 14686 1926 90020000 		.4byte	.LFB276
 14687 192a 28000000 		.4byte	.LFE276-.LFB276
 14688 192e 01       		.uleb128 0x1
 14689 192f 9C       		.byte	0x9c
 14690 1930 51190000 		.4byte	0x1951
 14691 1934 20       		.uleb128 0x20
ARM GAS  /tmp/ccRrg1qB.s 			page 262


 14692 1935 CC000000 		.4byte	.LASF452
 14693 1939 01       		.byte	0x1
 14694 193a EF       		.byte	0xef
 14695 193b 3E030000 		.4byte	0x33e
 14696 193f 02       		.uleb128 0x2
 14697 1940 91       		.byte	0x91
 14698 1941 74       		.sleb128 -12
 14699 1942 20       		.uleb128 0x20
 14700 1943 461F0000 		.4byte	.LASF462
 14701 1947 01       		.byte	0x1
 14702 1948 EF       		.byte	0xef
 14703 1949 8D170000 		.4byte	0x178d
 14704 194d 02       		.uleb128 0x2
 14705 194e 91       		.byte	0x91
 14706 194f 70       		.sleb128 -16
 14707 1950 00       		.byte	0
 14708 1951 22       		.uleb128 0x22
 14709 1952 8F2A0000 		.4byte	.LASF463
 14710 1956 01       		.byte	0x1
 14711 1957 1C01     		.2byte	0x11c
 14712 1959 AA0A0000 		.4byte	0xaaa
 14713 195d C0020000 		.4byte	.LFB277
 14714 1961 0C020000 		.4byte	.LFE277-.LFB277
 14715 1965 01       		.uleb128 0x1
 14716 1966 9C       		.byte	0x9c
 14717 1967 F0190000 		.4byte	0x19f0
 14718 196b 23       		.uleb128 0x23
 14719 196c CC000000 		.4byte	.LASF452
 14720 1970 01       		.byte	0x1
 14721 1971 1C01     		.2byte	0x11c
 14722 1973 3E030000 		.4byte	0x33e
 14723 1977 02       		.uleb128 0x2
 14724 1978 91       		.byte	0x91
 14725 1979 5C       		.sleb128 -36
 14726 197a 23       		.uleb128 0x23
 14727 197b 461F0000 		.4byte	.LASF462
 14728 197f 01       		.byte	0x1
 14729 1980 1C01     		.2byte	0x11c
 14730 1982 F0190000 		.4byte	0x19f0
 14731 1986 02       		.uleb128 0x2
 14732 1987 91       		.byte	0x91
 14733 1988 58       		.sleb128 -40
 14734 1989 24       		.uleb128 0x24
 14735 198a C7370000 		.4byte	.LASF464
 14736 198e 01       		.byte	0x1
 14737 198f 1E01     		.2byte	0x11e
 14738 1991 8A0A0000 		.4byte	0xa8a
 14739 1995 02       		.uleb128 0x2
 14740 1996 91       		.byte	0x91
 14741 1997 64       		.sleb128 -28
 14742 1998 24       		.uleb128 0x24
 14743 1999 64100000 		.4byte	.LASF465
 14744 199d 01       		.byte	0x1
 14745 199e 1F01     		.2byte	0x11f
 14746 19a0 2A0A0000 		.4byte	0xa2a
 14747 19a4 02       		.uleb128 0x2
 14748 19a5 91       		.byte	0x91
ARM GAS  /tmp/ccRrg1qB.s 			page 263


 14749 19a6 6F       		.sleb128 -17
 14750 19a7 24       		.uleb128 0x24
 14751 19a8 820B0000 		.4byte	.LASF466
 14752 19ac 01       		.byte	0x1
 14753 19ad 1F01     		.2byte	0x11f
 14754 19af 2A0A0000 		.4byte	0xa2a
 14755 19b3 02       		.uleb128 0x2
 14756 19b4 91       		.byte	0x91
 14757 19b5 6E       		.sleb128 -18
 14758 19b6 24       		.uleb128 0x24
 14759 19b7 B0140000 		.4byte	.LASF121
 14760 19bb 01       		.byte	0x1
 14761 19bc 1F01     		.2byte	0x11f
 14762 19be 2A0A0000 		.4byte	0xa2a
 14763 19c2 02       		.uleb128 0x2
 14764 19c3 91       		.byte	0x91
 14765 19c4 6D       		.sleb128 -19
 14766 19c5 25       		.uleb128 0x25
 14767 19c6 6C7000   		.ascii	"lp\000"
 14768 19c9 01       		.byte	0x1
 14769 19ca 2001     		.2byte	0x120
 14770 19cc 2B0D0000 		.4byte	0xd2b
 14771 19d0 02       		.uleb128 0x2
 14772 19d1 91       		.byte	0x91
 14773 19d2 63       		.sleb128 -29
 14774 19d3 25       		.uleb128 0x25
 14775 19d4 687200   		.ascii	"hr\000"
 14776 19d7 01       		.byte	0x1
 14777 19d8 2101     		.2byte	0x121
 14778 19da 740F0000 		.4byte	0xf74
 14779 19de 02       		.uleb128 0x2
 14780 19df 91       		.byte	0x91
 14781 19e0 62       		.sleb128 -30
 14782 19e1 25       		.uleb128 0x25
 14783 19e2 667300   		.ascii	"fs\000"
 14784 19e5 01       		.byte	0x1
 14785 19e6 2201     		.2byte	0x122
 14786 19e8 F70A0000 		.4byte	0xaf7
 14787 19ec 02       		.uleb128 0x2
 14788 19ed 91       		.byte	0x91
 14789 19ee 61       		.sleb128 -31
 14790 19ef 00       		.byte	0
 14791 19f0 09       		.uleb128 0x9
 14792 19f1 04       		.byte	0x4
 14793 19f2 25000000 		.4byte	0x25
 14794 19f6 22       		.uleb128 0x22
 14795 19f7 02040000 		.4byte	.LASF467
 14796 19fb 01       		.byte	0x1
 14797 19fc 6401     		.2byte	0x164
 14798 19fe AA0A0000 		.4byte	0xaaa
 14799 1a02 D0040000 		.4byte	.LFB278
 14800 1a06 68000000 		.4byte	.LFE278-.LFB278
 14801 1a0a 01       		.uleb128 0x1
 14802 1a0b 9C       		.byte	0x9c
 14803 1a0c 3E1A0000 		.4byte	0x1a3e
 14804 1a10 23       		.uleb128 0x23
 14805 1a11 CC000000 		.4byte	.LASF452
ARM GAS  /tmp/ccRrg1qB.s 			page 264


 14806 1a15 01       		.byte	0x1
 14807 1a16 6401     		.2byte	0x164
 14808 1a18 3E030000 		.4byte	0x33e
 14809 1a1c 02       		.uleb128 0x2
 14810 1a1d 91       		.byte	0x91
 14811 1a1e 6C       		.sleb128 -20
 14812 1a1f 23       		.uleb128 0x23
 14813 1a20 E3280000 		.4byte	.LASF457
 14814 1a24 01       		.byte	0x1
 14815 1a25 6401     		.2byte	0x164
 14816 1a27 4D0B0000 		.4byte	0xb4d
 14817 1a2b 02       		.uleb128 0x2
 14818 1a2c 91       		.byte	0x91
 14819 1a2d 6B       		.sleb128 -21
 14820 1a2e 24       		.uleb128 0x24
 14821 1a2f 09130000 		.4byte	.LASF447
 14822 1a33 01       		.byte	0x1
 14823 1a34 6601     		.2byte	0x166
 14824 1a36 2A0A0000 		.4byte	0xa2a
 14825 1a3a 02       		.uleb128 0x2
 14826 1a3b 91       		.byte	0x91
 14827 1a3c 77       		.sleb128 -9
 14828 1a3d 00       		.byte	0
 14829 1a3e 22       		.uleb128 0x22
 14830 1a3f D81D0000 		.4byte	.LASF468
 14831 1a43 01       		.byte	0x1
 14832 1a44 7B01     		.2byte	0x17b
 14833 1a46 AA0A0000 		.4byte	0xaaa
 14834 1a4a 40050000 		.4byte	.LFB279
 14835 1a4e 36000000 		.4byte	.LFE279-.LFB279
 14836 1a52 01       		.uleb128 0x1
 14837 1a53 9C       		.byte	0x9c
 14838 1a54 771A0000 		.4byte	0x1a77
 14839 1a58 23       		.uleb128 0x23
 14840 1a59 CC000000 		.4byte	.LASF452
 14841 1a5d 01       		.byte	0x1
 14842 1a5e 7B01     		.2byte	0x17b
 14843 1a60 3E030000 		.4byte	0x33e
 14844 1a64 02       		.uleb128 0x2
 14845 1a65 91       		.byte	0x91
 14846 1a66 74       		.sleb128 -12
 14847 1a67 23       		.uleb128 0x23
 14848 1a68 09130000 		.4byte	.LASF447
 14849 1a6c 01       		.byte	0x1
 14850 1a6d 7B01     		.2byte	0x17b
 14851 1a6f 771A0000 		.4byte	0x1a77
 14852 1a73 02       		.uleb128 0x2
 14853 1a74 91       		.byte	0x91
 14854 1a75 70       		.sleb128 -16
 14855 1a76 00       		.byte	0
 14856 1a77 09       		.uleb128 0x9
 14857 1a78 04       		.byte	0x4
 14858 1a79 4D0B0000 		.4byte	0xb4d
 14859 1a7d 22       		.uleb128 0x22
 14860 1a7e CD1F0000 		.4byte	.LASF469
 14861 1a82 01       		.byte	0x1
 14862 1a83 8E01     		.2byte	0x18e
ARM GAS  /tmp/ccRrg1qB.s 			page 265


 14863 1a85 AA0A0000 		.4byte	0xaaa
 14864 1a89 80050000 		.4byte	.LFB280
 14865 1a8d 36000000 		.4byte	.LFE280-.LFB280
 14866 1a91 01       		.uleb128 0x1
 14867 1a92 9C       		.byte	0x9c
 14868 1a93 B61A0000 		.4byte	0x1ab6
 14869 1a97 23       		.uleb128 0x23
 14870 1a98 CC000000 		.4byte	.LASF452
 14871 1a9c 01       		.byte	0x1
 14872 1a9d 8E01     		.2byte	0x18e
 14873 1a9f 3E030000 		.4byte	0x33e
 14874 1aa3 02       		.uleb128 0x2
 14875 1aa4 91       		.byte	0x91
 14876 1aa5 74       		.sleb128 -12
 14877 1aa6 23       		.uleb128 0x23
 14878 1aa7 09130000 		.4byte	.LASF447
 14879 1aab 01       		.byte	0x1
 14880 1aac 8E01     		.2byte	0x18e
 14881 1aae B61A0000 		.4byte	0x1ab6
 14882 1ab2 02       		.uleb128 0x2
 14883 1ab3 91       		.byte	0x91
 14884 1ab4 70       		.sleb128 -16
 14885 1ab5 00       		.byte	0
 14886 1ab6 09       		.uleb128 0x9
 14887 1ab7 04       		.byte	0x4
 14888 1ab8 6D0B0000 		.4byte	0xb6d
 14889 1abc 22       		.uleb128 0x22
 14890 1abd 2F130000 		.4byte	.LASF470
 14891 1ac1 01       		.byte	0x1
 14892 1ac2 9F01     		.2byte	0x19f
 14893 1ac4 AA0A0000 		.4byte	0xaaa
 14894 1ac8 C0050000 		.4byte	.LFB281
 14895 1acc 36000000 		.4byte	.LFE281-.LFB281
 14896 1ad0 01       		.uleb128 0x1
 14897 1ad1 9C       		.byte	0x9c
 14898 1ad2 F51A0000 		.4byte	0x1af5
 14899 1ad6 23       		.uleb128 0x23
 14900 1ad7 CC000000 		.4byte	.LASF452
 14901 1adb 01       		.byte	0x1
 14902 1adc 9F01     		.2byte	0x19f
 14903 1ade 3E030000 		.4byte	0x33e
 14904 1ae2 02       		.uleb128 0x2
 14905 1ae3 91       		.byte	0x91
 14906 1ae4 74       		.sleb128 -12
 14907 1ae5 23       		.uleb128 0x23
 14908 1ae6 09130000 		.4byte	.LASF447
 14909 1aea 01       		.byte	0x1
 14910 1aeb 9F01     		.2byte	0x19f
 14911 1aed F51A0000 		.4byte	0x1af5
 14912 1af1 02       		.uleb128 0x2
 14913 1af2 91       		.byte	0x91
 14914 1af3 70       		.sleb128 -16
 14915 1af4 00       		.byte	0
 14916 1af5 09       		.uleb128 0x9
 14917 1af6 04       		.byte	0x4
 14918 1af7 8F0B0000 		.4byte	0xb8f
 14919 1afb 22       		.uleb128 0x22
ARM GAS  /tmp/ccRrg1qB.s 			page 266


 14920 1afc 61040000 		.4byte	.LASF471
 14921 1b00 01       		.byte	0x1
 14922 1b01 B001     		.2byte	0x1b0
 14923 1b03 AA0A0000 		.4byte	0xaaa
 14924 1b07 00060000 		.4byte	.LFB282
 14925 1b0b 36000000 		.4byte	.LFE282-.LFB282
 14926 1b0f 01       		.uleb128 0x1
 14927 1b10 9C       		.byte	0x9c
 14928 1b11 341B0000 		.4byte	0x1b34
 14929 1b15 23       		.uleb128 0x23
 14930 1b16 CC000000 		.4byte	.LASF452
 14931 1b1a 01       		.byte	0x1
 14932 1b1b B001     		.2byte	0x1b0
 14933 1b1d 3E030000 		.4byte	0x33e
 14934 1b21 02       		.uleb128 0x2
 14935 1b22 91       		.byte	0x91
 14936 1b23 74       		.sleb128 -12
 14937 1b24 23       		.uleb128 0x23
 14938 1b25 09130000 		.4byte	.LASF447
 14939 1b29 01       		.byte	0x1
 14940 1b2a B001     		.2byte	0x1b0
 14941 1b2c 341B0000 		.4byte	0x1b34
 14942 1b30 02       		.uleb128 0x2
 14943 1b31 91       		.byte	0x91
 14944 1b32 70       		.sleb128 -16
 14945 1b33 00       		.byte	0
 14946 1b34 09       		.uleb128 0x9
 14947 1b35 04       		.byte	0x4
 14948 1b36 B10B0000 		.4byte	0xbb1
 14949 1b3a 22       		.uleb128 0x22
 14950 1b3b 04280000 		.4byte	.LASF472
 14951 1b3f 01       		.byte	0x1
 14952 1b40 C101     		.2byte	0x1c1
 14953 1b42 AA0A0000 		.4byte	0xaaa
 14954 1b46 40060000 		.4byte	.LFB283
 14955 1b4a 36000000 		.4byte	.LFE283-.LFB283
 14956 1b4e 01       		.uleb128 0x1
 14957 1b4f 9C       		.byte	0x9c
 14958 1b50 731B0000 		.4byte	0x1b73
 14959 1b54 23       		.uleb128 0x23
 14960 1b55 CC000000 		.4byte	.LASF452
 14961 1b59 01       		.byte	0x1
 14962 1b5a C101     		.2byte	0x1c1
 14963 1b5c 3E030000 		.4byte	0x33e
 14964 1b60 02       		.uleb128 0x2
 14965 1b61 91       		.byte	0x91
 14966 1b62 74       		.sleb128 -12
 14967 1b63 23       		.uleb128 0x23
 14968 1b64 09130000 		.4byte	.LASF447
 14969 1b68 01       		.byte	0x1
 14970 1b69 C101     		.2byte	0x1c1
 14971 1b6b 731B0000 		.4byte	0x1b73
 14972 1b6f 02       		.uleb128 0x2
 14973 1b70 91       		.byte	0x91
 14974 1b71 70       		.sleb128 -16
 14975 1b72 00       		.byte	0
 14976 1b73 09       		.uleb128 0x9
ARM GAS  /tmp/ccRrg1qB.s 			page 267


 14977 1b74 04       		.byte	0x4
 14978 1b75 D30B0000 		.4byte	0xbd3
 14979 1b79 22       		.uleb128 0x22
 14980 1b7a E5030000 		.4byte	.LASF473
 14981 1b7e 01       		.byte	0x1
 14982 1b7f D201     		.2byte	0x1d2
 14983 1b81 AA0A0000 		.4byte	0xaaa
 14984 1b85 80060000 		.4byte	.LFB284
 14985 1b89 36000000 		.4byte	.LFE284-.LFB284
 14986 1b8d 01       		.uleb128 0x1
 14987 1b8e 9C       		.byte	0x9c
 14988 1b8f B21B0000 		.4byte	0x1bb2
 14989 1b93 23       		.uleb128 0x23
 14990 1b94 CC000000 		.4byte	.LASF452
 14991 1b98 01       		.byte	0x1
 14992 1b99 D201     		.2byte	0x1d2
 14993 1b9b 3E030000 		.4byte	0x33e
 14994 1b9f 02       		.uleb128 0x2
 14995 1ba0 91       		.byte	0x91
 14996 1ba1 74       		.sleb128 -12
 14997 1ba2 23       		.uleb128 0x23
 14998 1ba3 09130000 		.4byte	.LASF447
 14999 1ba7 01       		.byte	0x1
 15000 1ba8 D201     		.2byte	0x1d2
 15001 1baa B21B0000 		.4byte	0x1bb2
 15002 1bae 02       		.uleb128 0x2
 15003 1baf 91       		.byte	0x91
 15004 1bb0 70       		.sleb128 -16
 15005 1bb1 00       		.byte	0
 15006 1bb2 09       		.uleb128 0x9
 15007 1bb3 04       		.byte	0x4
 15008 1bb4 F50B0000 		.4byte	0xbf5
 15009 1bb8 22       		.uleb128 0x22
 15010 1bb9 AE040000 		.4byte	.LASF474
 15011 1bbd 01       		.byte	0x1
 15012 1bbe E301     		.2byte	0x1e3
 15013 1bc0 AA0A0000 		.4byte	0xaaa
 15014 1bc4 C0060000 		.4byte	.LFB285
 15015 1bc8 36000000 		.4byte	.LFE285-.LFB285
 15016 1bcc 01       		.uleb128 0x1
 15017 1bcd 9C       		.byte	0x9c
 15018 1bce F11B0000 		.4byte	0x1bf1
 15019 1bd2 23       		.uleb128 0x23
 15020 1bd3 CC000000 		.4byte	.LASF452
 15021 1bd7 01       		.byte	0x1
 15022 1bd8 E301     		.2byte	0x1e3
 15023 1bda 3E030000 		.4byte	0x33e
 15024 1bde 02       		.uleb128 0x2
 15025 1bdf 91       		.byte	0x91
 15026 1be0 74       		.sleb128 -12
 15027 1be1 23       		.uleb128 0x23
 15028 1be2 09130000 		.4byte	.LASF447
 15029 1be6 01       		.byte	0x1
 15030 1be7 E301     		.2byte	0x1e3
 15031 1be9 F11B0000 		.4byte	0x1bf1
 15032 1bed 02       		.uleb128 0x2
 15033 1bee 91       		.byte	0x91
ARM GAS  /tmp/ccRrg1qB.s 			page 268


 15034 1bef 70       		.sleb128 -16
 15035 1bf0 00       		.byte	0
 15036 1bf1 09       		.uleb128 0x9
 15037 1bf2 04       		.byte	0x4
 15038 1bf3 170C0000 		.4byte	0xc17
 15039 1bf7 22       		.uleb128 0x22
 15040 1bf8 F5050000 		.4byte	.LASF475
 15041 1bfc 01       		.byte	0x1
 15042 1bfd F401     		.2byte	0x1f4
 15043 1bff AA0A0000 		.4byte	0xaaa
 15044 1c03 00070000 		.4byte	.LFB286
 15045 1c07 36000000 		.4byte	.LFE286-.LFB286
 15046 1c0b 01       		.uleb128 0x1
 15047 1c0c 9C       		.byte	0x9c
 15048 1c0d 301C0000 		.4byte	0x1c30
 15049 1c11 23       		.uleb128 0x23
 15050 1c12 CC000000 		.4byte	.LASF452
 15051 1c16 01       		.byte	0x1
 15052 1c17 F401     		.2byte	0x1f4
 15053 1c19 3E030000 		.4byte	0x33e
 15054 1c1d 02       		.uleb128 0x2
 15055 1c1e 91       		.byte	0x91
 15056 1c1f 74       		.sleb128 -12
 15057 1c20 23       		.uleb128 0x23
 15058 1c21 09130000 		.4byte	.LASF447
 15059 1c25 01       		.byte	0x1
 15060 1c26 F401     		.2byte	0x1f4
 15061 1c28 301C0000 		.4byte	0x1c30
 15062 1c2c 02       		.uleb128 0x2
 15063 1c2d 91       		.byte	0x91
 15064 1c2e 70       		.sleb128 -16
 15065 1c2f 00       		.byte	0
 15066 1c30 09       		.uleb128 0x9
 15067 1c31 04       		.byte	0x4
 15068 1c32 3A0C0000 		.4byte	0xc3a
 15069 1c36 22       		.uleb128 0x22
 15070 1c37 18190000 		.4byte	.LASF476
 15071 1c3b 01       		.byte	0x1
 15072 1c3c 0502     		.2byte	0x205
 15073 1c3e AA0A0000 		.4byte	0xaaa
 15074 1c42 40070000 		.4byte	.LFB287
 15075 1c46 36000000 		.4byte	.LFE287-.LFB287
 15076 1c4a 01       		.uleb128 0x1
 15077 1c4b 9C       		.byte	0x9c
 15078 1c4c 6F1C0000 		.4byte	0x1c6f
 15079 1c50 23       		.uleb128 0x23
 15080 1c51 CC000000 		.4byte	.LASF452
 15081 1c55 01       		.byte	0x1
 15082 1c56 0502     		.2byte	0x205
 15083 1c58 3E030000 		.4byte	0x33e
 15084 1c5c 02       		.uleb128 0x2
 15085 1c5d 91       		.byte	0x91
 15086 1c5e 74       		.sleb128 -12
 15087 1c5f 23       		.uleb128 0x23
 15088 1c60 09130000 		.4byte	.LASF447
 15089 1c64 01       		.byte	0x1
 15090 1c65 0502     		.2byte	0x205
ARM GAS  /tmp/ccRrg1qB.s 			page 269


 15091 1c67 6F1C0000 		.4byte	0x1c6f
 15092 1c6b 02       		.uleb128 0x2
 15093 1c6c 91       		.byte	0x91
 15094 1c6d 70       		.sleb128 -16
 15095 1c6e 00       		.byte	0
 15096 1c6f 09       		.uleb128 0x9
 15097 1c70 04       		.byte	0x4
 15098 1c71 5D0C0000 		.4byte	0xc5d
 15099 1c75 22       		.uleb128 0x22
 15100 1c76 101C0000 		.4byte	.LASF477
 15101 1c7a 01       		.byte	0x1
 15102 1c7b 1602     		.2byte	0x216
 15103 1c7d AA0A0000 		.4byte	0xaaa
 15104 1c81 80070000 		.4byte	.LFB288
 15105 1c85 38000000 		.4byte	.LFE288-.LFB288
 15106 1c89 01       		.uleb128 0x1
 15107 1c8a 9C       		.byte	0x9c
 15108 1c8b AE1C0000 		.4byte	0x1cae
 15109 1c8f 23       		.uleb128 0x23
 15110 1c90 CC000000 		.4byte	.LASF452
 15111 1c94 01       		.byte	0x1
 15112 1c95 1602     		.2byte	0x216
 15113 1c97 3E030000 		.4byte	0x33e
 15114 1c9b 02       		.uleb128 0x2
 15115 1c9c 91       		.byte	0x91
 15116 1c9d 74       		.sleb128 -12
 15117 1c9e 23       		.uleb128 0x23
 15118 1c9f 09130000 		.4byte	.LASF447
 15119 1ca3 01       		.byte	0x1
 15120 1ca4 1602     		.2byte	0x216
 15121 1ca6 8D170000 		.4byte	0x178d
 15122 1caa 02       		.uleb128 0x2
 15123 1cab 91       		.byte	0x91
 15124 1cac 70       		.sleb128 -16
 15125 1cad 00       		.byte	0
 15126 1cae 22       		.uleb128 0x22
 15127 1caf 08010000 		.4byte	.LASF478
 15128 1cb3 01       		.byte	0x1
 15129 1cb4 2802     		.2byte	0x228
 15130 1cb6 AA0A0000 		.4byte	0xaaa
 15131 1cba C0070000 		.4byte	.LFB289
 15132 1cbe 68000000 		.4byte	.LFE289-.LFB289
 15133 1cc2 01       		.uleb128 0x1
 15134 1cc3 9C       		.byte	0x9c
 15135 1cc4 F61C0000 		.4byte	0x1cf6
 15136 1cc8 23       		.uleb128 0x23
 15137 1cc9 CC000000 		.4byte	.LASF452
 15138 1ccd 01       		.byte	0x1
 15139 1cce 2802     		.2byte	0x228
 15140 1cd0 3E030000 		.4byte	0x33e
 15141 1cd4 02       		.uleb128 0x2
 15142 1cd5 91       		.byte	0x91
 15143 1cd6 6C       		.sleb128 -20
 15144 1cd7 23       		.uleb128 0x23
 15145 1cd8 E3280000 		.4byte	.LASF457
 15146 1cdc 01       		.byte	0x1
 15147 1cdd 2802     		.2byte	0x228
ARM GAS  /tmp/ccRrg1qB.s 			page 270


 15148 1cdf 800C0000 		.4byte	0xc80
 15149 1ce3 02       		.uleb128 0x2
 15150 1ce4 91       		.byte	0x91
 15151 1ce5 6B       		.sleb128 -21
 15152 1ce6 24       		.uleb128 0x24
 15153 1ce7 09130000 		.4byte	.LASF447
 15154 1ceb 01       		.byte	0x1
 15155 1cec 2A02     		.2byte	0x22a
 15156 1cee 2A0A0000 		.4byte	0xa2a
 15157 1cf2 02       		.uleb128 0x2
 15158 1cf3 91       		.byte	0x91
 15159 1cf4 77       		.sleb128 -9
 15160 1cf5 00       		.byte	0
 15161 1cf6 22       		.uleb128 0x22
 15162 1cf7 8D370000 		.4byte	.LASF479
 15163 1cfb 01       		.byte	0x1
 15164 1cfc 3F02     		.2byte	0x23f
 15165 1cfe AA0A0000 		.4byte	0xaaa
 15166 1d02 30080000 		.4byte	.LFB290
 15167 1d06 36000000 		.4byte	.LFE290-.LFB290
 15168 1d0a 01       		.uleb128 0x1
 15169 1d0b 9C       		.byte	0x9c
 15170 1d0c 2F1D0000 		.4byte	0x1d2f
 15171 1d10 23       		.uleb128 0x23
 15172 1d11 CC000000 		.4byte	.LASF452
 15173 1d15 01       		.byte	0x1
 15174 1d16 3F02     		.2byte	0x23f
 15175 1d18 3E030000 		.4byte	0x33e
 15176 1d1c 02       		.uleb128 0x2
 15177 1d1d 91       		.byte	0x91
 15178 1d1e 74       		.sleb128 -12
 15179 1d1f 23       		.uleb128 0x23
 15180 1d20 09130000 		.4byte	.LASF447
 15181 1d24 01       		.byte	0x1
 15182 1d25 3F02     		.2byte	0x23f
 15183 1d27 2F1D0000 		.4byte	0x1d2f
 15184 1d2b 02       		.uleb128 0x2
 15185 1d2c 91       		.byte	0x91
 15186 1d2d 70       		.sleb128 -16
 15187 1d2e 00       		.byte	0
 15188 1d2f 09       		.uleb128 0x9
 15189 1d30 04       		.byte	0x4
 15190 1d31 800C0000 		.4byte	0xc80
 15191 1d35 22       		.uleb128 0x22
 15192 1d36 621C0000 		.4byte	.LASF480
 15193 1d3a 01       		.byte	0x1
 15194 1d3b 5002     		.2byte	0x250
 15195 1d3d AA0A0000 		.4byte	0xaaa
 15196 1d41 70080000 		.4byte	.LFB291
 15197 1d45 68000000 		.4byte	.LFE291-.LFB291
 15198 1d49 01       		.uleb128 0x1
 15199 1d4a 9C       		.byte	0x9c
 15200 1d4b 7D1D0000 		.4byte	0x1d7d
 15201 1d4f 23       		.uleb128 0x23
 15202 1d50 CC000000 		.4byte	.LASF452
 15203 1d54 01       		.byte	0x1
 15204 1d55 5002     		.2byte	0x250
ARM GAS  /tmp/ccRrg1qB.s 			page 271


 15205 1d57 3E030000 		.4byte	0x33e
 15206 1d5b 02       		.uleb128 0x2
 15207 1d5c 91       		.byte	0x91
 15208 1d5d 6C       		.sleb128 -20
 15209 1d5e 23       		.uleb128 0x23
 15210 1d5f E3280000 		.4byte	.LASF457
 15211 1d63 01       		.byte	0x1
 15212 1d64 5002     		.2byte	0x250
 15213 1d66 A30C0000 		.4byte	0xca3
 15214 1d6a 02       		.uleb128 0x2
 15215 1d6b 91       		.byte	0x91
 15216 1d6c 6B       		.sleb128 -21
 15217 1d6d 24       		.uleb128 0x24
 15218 1d6e 09130000 		.4byte	.LASF447
 15219 1d72 01       		.byte	0x1
 15220 1d73 5202     		.2byte	0x252
 15221 1d75 2A0A0000 		.4byte	0xa2a
 15222 1d79 02       		.uleb128 0x2
 15223 1d7a 91       		.byte	0x91
 15224 1d7b 77       		.sleb128 -9
 15225 1d7c 00       		.byte	0
 15226 1d7d 22       		.uleb128 0x22
 15227 1d7e E0350000 		.4byte	.LASF481
 15228 1d82 01       		.byte	0x1
 15229 1d83 6702     		.2byte	0x267
 15230 1d85 AA0A0000 		.4byte	0xaaa
 15231 1d89 E0080000 		.4byte	.LFB292
 15232 1d8d 36000000 		.4byte	.LFE292-.LFB292
 15233 1d91 01       		.uleb128 0x1
 15234 1d92 9C       		.byte	0x9c
 15235 1d93 B61D0000 		.4byte	0x1db6
 15236 1d97 23       		.uleb128 0x23
 15237 1d98 CC000000 		.4byte	.LASF452
 15238 1d9c 01       		.byte	0x1
 15239 1d9d 6702     		.2byte	0x267
 15240 1d9f 3E030000 		.4byte	0x33e
 15241 1da3 02       		.uleb128 0x2
 15242 1da4 91       		.byte	0x91
 15243 1da5 74       		.sleb128 -12
 15244 1da6 23       		.uleb128 0x23
 15245 1da7 09130000 		.4byte	.LASF447
 15246 1dab 01       		.byte	0x1
 15247 1dac 6702     		.2byte	0x267
 15248 1dae B61D0000 		.4byte	0x1db6
 15249 1db2 02       		.uleb128 0x2
 15250 1db3 91       		.byte	0x91
 15251 1db4 70       		.sleb128 -16
 15252 1db5 00       		.byte	0
 15253 1db6 09       		.uleb128 0x9
 15254 1db7 04       		.byte	0x4
 15255 1db8 A30C0000 		.4byte	0xca3
 15256 1dbc 22       		.uleb128 0x22
 15257 1dbd C2360000 		.4byte	.LASF482
 15258 1dc1 01       		.byte	0x1
 15259 1dc2 7802     		.2byte	0x278
 15260 1dc4 AA0A0000 		.4byte	0xaaa
 15261 1dc8 20090000 		.4byte	.LFB293
ARM GAS  /tmp/ccRrg1qB.s 			page 272


 15262 1dcc 68000000 		.4byte	.LFE293-.LFB293
 15263 1dd0 01       		.uleb128 0x1
 15264 1dd1 9C       		.byte	0x9c
 15265 1dd2 041E0000 		.4byte	0x1e04
 15266 1dd6 23       		.uleb128 0x23
 15267 1dd7 CC000000 		.4byte	.LASF452
 15268 1ddb 01       		.byte	0x1
 15269 1ddc 7802     		.2byte	0x278
 15270 1dde 3E030000 		.4byte	0x33e
 15271 1de2 02       		.uleb128 0x2
 15272 1de3 91       		.byte	0x91
 15273 1de4 6C       		.sleb128 -20
 15274 1de5 23       		.uleb128 0x23
 15275 1de6 E3280000 		.4byte	.LASF457
 15276 1dea 01       		.byte	0x1
 15277 1deb 7802     		.2byte	0x278
 15278 1ded C50C0000 		.4byte	0xcc5
 15279 1df1 02       		.uleb128 0x2
 15280 1df2 91       		.byte	0x91
 15281 1df3 6B       		.sleb128 -21
 15282 1df4 24       		.uleb128 0x24
 15283 1df5 09130000 		.4byte	.LASF447
 15284 1df9 01       		.byte	0x1
 15285 1dfa 7A02     		.2byte	0x27a
 15286 1dfc 2A0A0000 		.4byte	0xa2a
 15287 1e00 02       		.uleb128 0x2
 15288 1e01 91       		.byte	0x91
 15289 1e02 77       		.sleb128 -9
 15290 1e03 00       		.byte	0
 15291 1e04 22       		.uleb128 0x22
 15292 1e05 67170000 		.4byte	.LASF483
 15293 1e09 01       		.byte	0x1
 15294 1e0a 8F02     		.2byte	0x28f
 15295 1e0c AA0A0000 		.4byte	0xaaa
 15296 1e10 90090000 		.4byte	.LFB294
 15297 1e14 36000000 		.4byte	.LFE294-.LFB294
 15298 1e18 01       		.uleb128 0x1
 15299 1e19 9C       		.byte	0x9c
 15300 1e1a 3D1E0000 		.4byte	0x1e3d
 15301 1e1e 23       		.uleb128 0x23
 15302 1e1f CC000000 		.4byte	.LASF452
 15303 1e23 01       		.byte	0x1
 15304 1e24 8F02     		.2byte	0x28f
 15305 1e26 3E030000 		.4byte	0x33e
 15306 1e2a 02       		.uleb128 0x2
 15307 1e2b 91       		.byte	0x91
 15308 1e2c 74       		.sleb128 -12
 15309 1e2d 23       		.uleb128 0x23
 15310 1e2e 09130000 		.4byte	.LASF447
 15311 1e32 01       		.byte	0x1
 15312 1e33 8F02     		.2byte	0x28f
 15313 1e35 3D1E0000 		.4byte	0x1e3d
 15314 1e39 02       		.uleb128 0x2
 15315 1e3a 91       		.byte	0x91
 15316 1e3b 70       		.sleb128 -16
 15317 1e3c 00       		.byte	0
 15318 1e3d 09       		.uleb128 0x9
ARM GAS  /tmp/ccRrg1qB.s 			page 273


 15319 1e3e 04       		.byte	0x4
 15320 1e3f C50C0000 		.4byte	0xcc5
 15321 1e43 22       		.uleb128 0x22
 15322 1e44 20030000 		.4byte	.LASF484
 15323 1e48 01       		.byte	0x1
 15324 1e49 A002     		.2byte	0x2a0
 15325 1e4b AA0A0000 		.4byte	0xaaa
 15326 1e4f D0090000 		.4byte	.LFB295
 15327 1e53 68000000 		.4byte	.LFE295-.LFB295
 15328 1e57 01       		.uleb128 0x1
 15329 1e58 9C       		.byte	0x9c
 15330 1e59 8B1E0000 		.4byte	0x1e8b
 15331 1e5d 23       		.uleb128 0x23
 15332 1e5e CC000000 		.4byte	.LASF452
 15333 1e62 01       		.byte	0x1
 15334 1e63 A002     		.2byte	0x2a0
 15335 1e65 3E030000 		.4byte	0x33e
 15336 1e69 02       		.uleb128 0x2
 15337 1e6a 91       		.byte	0x91
 15338 1e6b 6C       		.sleb128 -20
 15339 1e6c 23       		.uleb128 0x23
 15340 1e6d E3280000 		.4byte	.LASF457
 15341 1e71 01       		.byte	0x1
 15342 1e72 A002     		.2byte	0x2a0
 15343 1e74 E70C0000 		.4byte	0xce7
 15344 1e78 02       		.uleb128 0x2
 15345 1e79 91       		.byte	0x91
 15346 1e7a 6B       		.sleb128 -21
 15347 1e7b 24       		.uleb128 0x24
 15348 1e7c 09130000 		.4byte	.LASF447
 15349 1e80 01       		.byte	0x1
 15350 1e81 A202     		.2byte	0x2a2
 15351 1e83 2A0A0000 		.4byte	0xa2a
 15352 1e87 02       		.uleb128 0x2
 15353 1e88 91       		.byte	0x91
 15354 1e89 77       		.sleb128 -9
 15355 1e8a 00       		.byte	0
 15356 1e8b 22       		.uleb128 0x22
 15357 1e8c 791C0000 		.4byte	.LASF485
 15358 1e90 01       		.byte	0x1
 15359 1e91 B702     		.2byte	0x2b7
 15360 1e93 AA0A0000 		.4byte	0xaaa
 15361 1e97 400A0000 		.4byte	.LFB296
 15362 1e9b 36000000 		.4byte	.LFE296-.LFB296
 15363 1e9f 01       		.uleb128 0x1
 15364 1ea0 9C       		.byte	0x9c
 15365 1ea1 C41E0000 		.4byte	0x1ec4
 15366 1ea5 23       		.uleb128 0x23
 15367 1ea6 CC000000 		.4byte	.LASF452
 15368 1eaa 01       		.byte	0x1
 15369 1eab B702     		.2byte	0x2b7
 15370 1ead 3E030000 		.4byte	0x33e
 15371 1eb1 02       		.uleb128 0x2
 15372 1eb2 91       		.byte	0x91
 15373 1eb3 74       		.sleb128 -12
 15374 1eb4 23       		.uleb128 0x23
 15375 1eb5 09130000 		.4byte	.LASF447
ARM GAS  /tmp/ccRrg1qB.s 			page 274


 15376 1eb9 01       		.byte	0x1
 15377 1eba B702     		.2byte	0x2b7
 15378 1ebc C41E0000 		.4byte	0x1ec4
 15379 1ec0 02       		.uleb128 0x2
 15380 1ec1 91       		.byte	0x91
 15381 1ec2 70       		.sleb128 -16
 15382 1ec3 00       		.byte	0
 15383 1ec4 09       		.uleb128 0x9
 15384 1ec5 04       		.byte	0x4
 15385 1ec6 E70C0000 		.4byte	0xce7
 15386 1eca 22       		.uleb128 0x22
 15387 1ecb FA070000 		.4byte	.LASF486
 15388 1ecf 01       		.byte	0x1
 15389 1ed0 C802     		.2byte	0x2c8
 15390 1ed2 AA0A0000 		.4byte	0xaaa
 15391 1ed6 800A0000 		.4byte	.LFB297
 15392 1eda 68000000 		.4byte	.LFE297-.LFB297
 15393 1ede 01       		.uleb128 0x1
 15394 1edf 9C       		.byte	0x9c
 15395 1ee0 121F0000 		.4byte	0x1f12
 15396 1ee4 23       		.uleb128 0x23
 15397 1ee5 CC000000 		.4byte	.LASF452
 15398 1ee9 01       		.byte	0x1
 15399 1eea C802     		.2byte	0x2c8
 15400 1eec 3E030000 		.4byte	0x33e
 15401 1ef0 02       		.uleb128 0x2
 15402 1ef1 91       		.byte	0x91
 15403 1ef2 6C       		.sleb128 -20
 15404 1ef3 23       		.uleb128 0x23
 15405 1ef4 E3280000 		.4byte	.LASF457
 15406 1ef8 01       		.byte	0x1
 15407 1ef9 C802     		.2byte	0x2c8
 15408 1efb 090D0000 		.4byte	0xd09
 15409 1eff 02       		.uleb128 0x2
 15410 1f00 91       		.byte	0x91
 15411 1f01 6B       		.sleb128 -21
 15412 1f02 24       		.uleb128 0x24
 15413 1f03 09130000 		.4byte	.LASF447
 15414 1f07 01       		.byte	0x1
 15415 1f08 CA02     		.2byte	0x2ca
 15416 1f0a 2A0A0000 		.4byte	0xa2a
 15417 1f0e 02       		.uleb128 0x2
 15418 1f0f 91       		.byte	0x91
 15419 1f10 77       		.sleb128 -9
 15420 1f11 00       		.byte	0
 15421 1f12 22       		.uleb128 0x22
 15422 1f13 8B220000 		.4byte	.LASF487
 15423 1f17 01       		.byte	0x1
 15424 1f18 DF02     		.2byte	0x2df
 15425 1f1a AA0A0000 		.4byte	0xaaa
 15426 1f1e F00A0000 		.4byte	.LFB298
 15427 1f22 36000000 		.4byte	.LFE298-.LFB298
 15428 1f26 01       		.uleb128 0x1
 15429 1f27 9C       		.byte	0x9c
 15430 1f28 4B1F0000 		.4byte	0x1f4b
 15431 1f2c 23       		.uleb128 0x23
 15432 1f2d CC000000 		.4byte	.LASF452
ARM GAS  /tmp/ccRrg1qB.s 			page 275


 15433 1f31 01       		.byte	0x1
 15434 1f32 DF02     		.2byte	0x2df
 15435 1f34 3E030000 		.4byte	0x33e
 15436 1f38 02       		.uleb128 0x2
 15437 1f39 91       		.byte	0x91
 15438 1f3a 74       		.sleb128 -12
 15439 1f3b 23       		.uleb128 0x23
 15440 1f3c 09130000 		.4byte	.LASF447
 15441 1f40 01       		.byte	0x1
 15442 1f41 DF02     		.2byte	0x2df
 15443 1f43 4B1F0000 		.4byte	0x1f4b
 15444 1f47 02       		.uleb128 0x2
 15445 1f48 91       		.byte	0x91
 15446 1f49 70       		.sleb128 -16
 15447 1f4a 00       		.byte	0
 15448 1f4b 09       		.uleb128 0x9
 15449 1f4c 04       		.byte	0x4
 15450 1f4d 090D0000 		.4byte	0xd09
 15451 1f51 22       		.uleb128 0x22
 15452 1f52 2B0D0000 		.4byte	.LASF488
 15453 1f56 01       		.byte	0x1
 15454 1f57 F002     		.2byte	0x2f0
 15455 1f59 AA0A0000 		.4byte	0xaaa
 15456 1f5d 300B0000 		.4byte	.LFB299
 15457 1f61 68000000 		.4byte	.LFE299-.LFB299
 15458 1f65 01       		.uleb128 0x1
 15459 1f66 9C       		.byte	0x9c
 15460 1f67 991F0000 		.4byte	0x1f99
 15461 1f6b 23       		.uleb128 0x23
 15462 1f6c CC000000 		.4byte	.LASF452
 15463 1f70 01       		.byte	0x1
 15464 1f71 F002     		.2byte	0x2f0
 15465 1f73 3E030000 		.4byte	0x33e
 15466 1f77 02       		.uleb128 0x2
 15467 1f78 91       		.byte	0x91
 15468 1f79 6C       		.sleb128 -20
 15469 1f7a 23       		.uleb128 0x23
 15470 1f7b E3280000 		.4byte	.LASF457
 15471 1f7f 01       		.byte	0x1
 15472 1f80 F002     		.2byte	0x2f0
 15473 1f82 2B0D0000 		.4byte	0xd2b
 15474 1f86 02       		.uleb128 0x2
 15475 1f87 91       		.byte	0x91
 15476 1f88 6B       		.sleb128 -21
 15477 1f89 24       		.uleb128 0x24
 15478 1f8a 09130000 		.4byte	.LASF447
 15479 1f8e 01       		.byte	0x1
 15480 1f8f F202     		.2byte	0x2f2
 15481 1f91 2A0A0000 		.4byte	0xa2a
 15482 1f95 02       		.uleb128 0x2
 15483 1f96 91       		.byte	0x91
 15484 1f97 77       		.sleb128 -9
 15485 1f98 00       		.byte	0
 15486 1f99 22       		.uleb128 0x22
 15487 1f9a 9F220000 		.4byte	.LASF489
 15488 1f9e 01       		.byte	0x1
 15489 1f9f 0703     		.2byte	0x307
ARM GAS  /tmp/ccRrg1qB.s 			page 276


 15490 1fa1 AA0A0000 		.4byte	0xaaa
 15491 1fa5 A00B0000 		.4byte	.LFB300
 15492 1fa9 36000000 		.4byte	.LFE300-.LFB300
 15493 1fad 01       		.uleb128 0x1
 15494 1fae 9C       		.byte	0x9c
 15495 1faf D21F0000 		.4byte	0x1fd2
 15496 1fb3 23       		.uleb128 0x23
 15497 1fb4 CC000000 		.4byte	.LASF452
 15498 1fb8 01       		.byte	0x1
 15499 1fb9 0703     		.2byte	0x307
 15500 1fbb 3E030000 		.4byte	0x33e
 15501 1fbf 02       		.uleb128 0x2
 15502 1fc0 91       		.byte	0x91
 15503 1fc1 74       		.sleb128 -12
 15504 1fc2 23       		.uleb128 0x23
 15505 1fc3 09130000 		.4byte	.LASF447
 15506 1fc7 01       		.byte	0x1
 15507 1fc8 0703     		.2byte	0x307
 15508 1fca D21F0000 		.4byte	0x1fd2
 15509 1fce 02       		.uleb128 0x2
 15510 1fcf 91       		.byte	0x91
 15511 1fd0 70       		.sleb128 -16
 15512 1fd1 00       		.byte	0
 15513 1fd2 09       		.uleb128 0x9
 15514 1fd3 04       		.byte	0x4
 15515 1fd4 2B0D0000 		.4byte	0xd2b
 15516 1fd8 22       		.uleb128 0x22
 15517 1fd9 B11A0000 		.4byte	.LASF490
 15518 1fdd 01       		.byte	0x1
 15519 1fde 1803     		.2byte	0x318
 15520 1fe0 AA0A0000 		.4byte	0xaaa
 15521 1fe4 E00B0000 		.4byte	.LFB301
 15522 1fe8 68000000 		.4byte	.LFE301-.LFB301
 15523 1fec 01       		.uleb128 0x1
 15524 1fed 9C       		.byte	0x9c
 15525 1fee 20200000 		.4byte	0x2020
 15526 1ff2 23       		.uleb128 0x23
 15527 1ff3 CC000000 		.4byte	.LASF452
 15528 1ff7 01       		.byte	0x1
 15529 1ff8 1803     		.2byte	0x318
 15530 1ffa 3E030000 		.4byte	0x33e
 15531 1ffe 02       		.uleb128 0x2
 15532 1fff 91       		.byte	0x91
 15533 2000 6C       		.sleb128 -20
 15534 2001 23       		.uleb128 0x23
 15535 2002 E3280000 		.4byte	.LASF457
 15536 2006 01       		.byte	0x1
 15537 2007 1803     		.2byte	0x318
 15538 2009 4D0D0000 		.4byte	0xd4d
 15539 200d 02       		.uleb128 0x2
 15540 200e 91       		.byte	0x91
 15541 200f 6B       		.sleb128 -21
 15542 2010 24       		.uleb128 0x24
 15543 2011 09130000 		.4byte	.LASF447
 15544 2015 01       		.byte	0x1
 15545 2016 1A03     		.2byte	0x31a
 15546 2018 2A0A0000 		.4byte	0xa2a
ARM GAS  /tmp/ccRrg1qB.s 			page 277


 15547 201c 02       		.uleb128 0x2
 15548 201d 91       		.byte	0x91
 15549 201e 77       		.sleb128 -9
 15550 201f 00       		.byte	0
 15551 2020 22       		.uleb128 0x22
 15552 2021 98260000 		.4byte	.LASF491
 15553 2025 01       		.byte	0x1
 15554 2026 2F03     		.2byte	0x32f
 15555 2028 AA0A0000 		.4byte	0xaaa
 15556 202c 500C0000 		.4byte	.LFB302
 15557 2030 36000000 		.4byte	.LFE302-.LFB302
 15558 2034 01       		.uleb128 0x1
 15559 2035 9C       		.byte	0x9c
 15560 2036 59200000 		.4byte	0x2059
 15561 203a 23       		.uleb128 0x23
 15562 203b CC000000 		.4byte	.LASF452
 15563 203f 01       		.byte	0x1
 15564 2040 2F03     		.2byte	0x32f
 15565 2042 3E030000 		.4byte	0x33e
 15566 2046 02       		.uleb128 0x2
 15567 2047 91       		.byte	0x91
 15568 2048 74       		.sleb128 -12
 15569 2049 23       		.uleb128 0x23
 15570 204a 09130000 		.4byte	.LASF447
 15571 204e 01       		.byte	0x1
 15572 204f 2F03     		.2byte	0x32f
 15573 2051 59200000 		.4byte	0x2059
 15574 2055 02       		.uleb128 0x2
 15575 2056 91       		.byte	0x91
 15576 2057 70       		.sleb128 -16
 15577 2058 00       		.byte	0
 15578 2059 09       		.uleb128 0x9
 15579 205a 04       		.byte	0x4
 15580 205b 4D0D0000 		.4byte	0xd4d
 15581 205f 22       		.uleb128 0x22
 15582 2060 D11A0000 		.4byte	.LASF492
 15583 2064 01       		.byte	0x1
 15584 2065 4003     		.2byte	0x340
 15585 2067 AA0A0000 		.4byte	0xaaa
 15586 206b 900C0000 		.4byte	.LFB303
 15587 206f 68000000 		.4byte	.LFE303-.LFB303
 15588 2073 01       		.uleb128 0x1
 15589 2074 9C       		.byte	0x9c
 15590 2075 A7200000 		.4byte	0x20a7
 15591 2079 23       		.uleb128 0x23
 15592 207a CC000000 		.4byte	.LASF452
 15593 207e 01       		.byte	0x1
 15594 207f 4003     		.2byte	0x340
 15595 2081 3E030000 		.4byte	0x33e
 15596 2085 02       		.uleb128 0x2
 15597 2086 91       		.byte	0x91
 15598 2087 6C       		.sleb128 -20
 15599 2088 23       		.uleb128 0x23
 15600 2089 E3280000 		.4byte	.LASF457
 15601 208d 01       		.byte	0x1
 15602 208e 4003     		.2byte	0x340
 15603 2090 6F0D0000 		.4byte	0xd6f
ARM GAS  /tmp/ccRrg1qB.s 			page 278


 15604 2094 02       		.uleb128 0x2
 15605 2095 91       		.byte	0x91
 15606 2096 6B       		.sleb128 -21
 15607 2097 24       		.uleb128 0x24
 15608 2098 09130000 		.4byte	.LASF447
 15609 209c 01       		.byte	0x1
 15610 209d 4203     		.2byte	0x342
 15611 209f 2A0A0000 		.4byte	0xa2a
 15612 20a3 02       		.uleb128 0x2
 15613 20a4 91       		.byte	0x91
 15614 20a5 77       		.sleb128 -9
 15615 20a6 00       		.byte	0
 15616 20a7 22       		.uleb128 0x22
 15617 20a8 B8260000 		.4byte	.LASF493
 15618 20ac 01       		.byte	0x1
 15619 20ad 5703     		.2byte	0x357
 15620 20af AA0A0000 		.4byte	0xaaa
 15621 20b3 000D0000 		.4byte	.LFB304
 15622 20b7 36000000 		.4byte	.LFE304-.LFB304
 15623 20bb 01       		.uleb128 0x1
 15624 20bc 9C       		.byte	0x9c
 15625 20bd E0200000 		.4byte	0x20e0
 15626 20c1 23       		.uleb128 0x23
 15627 20c2 CC000000 		.4byte	.LASF452
 15628 20c6 01       		.byte	0x1
 15629 20c7 5703     		.2byte	0x357
 15630 20c9 3E030000 		.4byte	0x33e
 15631 20cd 02       		.uleb128 0x2
 15632 20ce 91       		.byte	0x91
 15633 20cf 74       		.sleb128 -12
 15634 20d0 23       		.uleb128 0x23
 15635 20d1 09130000 		.4byte	.LASF447
 15636 20d5 01       		.byte	0x1
 15637 20d6 5703     		.2byte	0x357
 15638 20d8 E0200000 		.4byte	0x20e0
 15639 20dc 02       		.uleb128 0x2
 15640 20dd 91       		.byte	0x91
 15641 20de 70       		.sleb128 -16
 15642 20df 00       		.byte	0
 15643 20e0 09       		.uleb128 0x9
 15644 20e1 04       		.byte	0x4
 15645 20e2 6F0D0000 		.4byte	0xd6f
 15646 20e6 22       		.uleb128 0x22
 15647 20e7 D7120000 		.4byte	.LASF494
 15648 20eb 01       		.byte	0x1
 15649 20ec 6803     		.2byte	0x368
 15650 20ee AA0A0000 		.4byte	0xaaa
 15651 20f2 400D0000 		.4byte	.LFB305
 15652 20f6 68000000 		.4byte	.LFE305-.LFB305
 15653 20fa 01       		.uleb128 0x1
 15654 20fb 9C       		.byte	0x9c
 15655 20fc 2E210000 		.4byte	0x212e
 15656 2100 23       		.uleb128 0x23
 15657 2101 CC000000 		.4byte	.LASF452
 15658 2105 01       		.byte	0x1
 15659 2106 6803     		.2byte	0x368
 15660 2108 3E030000 		.4byte	0x33e
ARM GAS  /tmp/ccRrg1qB.s 			page 279


 15661 210c 02       		.uleb128 0x2
 15662 210d 91       		.byte	0x91
 15663 210e 6C       		.sleb128 -20
 15664 210f 23       		.uleb128 0x23
 15665 2110 E3280000 		.4byte	.LASF457
 15666 2114 01       		.byte	0x1
 15667 2115 6803     		.2byte	0x368
 15668 2117 910D0000 		.4byte	0xd91
 15669 211b 02       		.uleb128 0x2
 15670 211c 91       		.byte	0x91
 15671 211d 6B       		.sleb128 -21
 15672 211e 24       		.uleb128 0x24
 15673 211f 09130000 		.4byte	.LASF447
 15674 2123 01       		.byte	0x1
 15675 2124 6A03     		.2byte	0x36a
 15676 2126 2A0A0000 		.4byte	0xa2a
 15677 212a 02       		.uleb128 0x2
 15678 212b 91       		.byte	0x91
 15679 212c 77       		.sleb128 -9
 15680 212d 00       		.byte	0
 15681 212e 22       		.uleb128 0x22
 15682 212f DD0F0000 		.4byte	.LASF495
 15683 2133 01       		.byte	0x1
 15684 2134 7F03     		.2byte	0x37f
 15685 2136 AA0A0000 		.4byte	0xaaa
 15686 213a B00D0000 		.4byte	.LFB306
 15687 213e 36000000 		.4byte	.LFE306-.LFB306
 15688 2142 01       		.uleb128 0x1
 15689 2143 9C       		.byte	0x9c
 15690 2144 67210000 		.4byte	0x2167
 15691 2148 23       		.uleb128 0x23
 15692 2149 CC000000 		.4byte	.LASF452
 15693 214d 01       		.byte	0x1
 15694 214e 7F03     		.2byte	0x37f
 15695 2150 3E030000 		.4byte	0x33e
 15696 2154 02       		.uleb128 0x2
 15697 2155 91       		.byte	0x91
 15698 2156 74       		.sleb128 -12
 15699 2157 23       		.uleb128 0x23
 15700 2158 09130000 		.4byte	.LASF447
 15701 215c 01       		.byte	0x1
 15702 215d 7F03     		.2byte	0x37f
 15703 215f 67210000 		.4byte	0x2167
 15704 2163 02       		.uleb128 0x2
 15705 2164 91       		.byte	0x91
 15706 2165 70       		.sleb128 -16
 15707 2166 00       		.byte	0
 15708 2167 09       		.uleb128 0x9
 15709 2168 04       		.byte	0x4
 15710 2169 910D0000 		.4byte	0xd91
 15711 216d 22       		.uleb128 0x22
 15712 216e C2090000 		.4byte	.LASF496
 15713 2172 01       		.byte	0x1
 15714 2173 9003     		.2byte	0x390
 15715 2175 AA0A0000 		.4byte	0xaaa
 15716 2179 F00D0000 		.4byte	.LFB307
 15717 217d 68000000 		.4byte	.LFE307-.LFB307
ARM GAS  /tmp/ccRrg1qB.s 			page 280


 15718 2181 01       		.uleb128 0x1
 15719 2182 9C       		.byte	0x9c
 15720 2183 B5210000 		.4byte	0x21b5
 15721 2187 23       		.uleb128 0x23
 15722 2188 CC000000 		.4byte	.LASF452
 15723 218c 01       		.byte	0x1
 15724 218d 9003     		.2byte	0x390
 15725 218f 3E030000 		.4byte	0x33e
 15726 2193 02       		.uleb128 0x2
 15727 2194 91       		.byte	0x91
 15728 2195 6C       		.sleb128 -20
 15729 2196 23       		.uleb128 0x23
 15730 2197 E3280000 		.4byte	.LASF457
 15731 219b 01       		.byte	0x1
 15732 219c 9003     		.2byte	0x390
 15733 219e B30D0000 		.4byte	0xdb3
 15734 21a2 02       		.uleb128 0x2
 15735 21a3 91       		.byte	0x91
 15736 21a4 6B       		.sleb128 -21
 15737 21a5 24       		.uleb128 0x24
 15738 21a6 09130000 		.4byte	.LASF447
 15739 21aa 01       		.byte	0x1
 15740 21ab 9203     		.2byte	0x392
 15741 21ad 2A0A0000 		.4byte	0xa2a
 15742 21b1 02       		.uleb128 0x2
 15743 21b2 91       		.byte	0x91
 15744 21b3 77       		.sleb128 -9
 15745 21b4 00       		.byte	0
 15746 21b5 22       		.uleb128 0x22
 15747 21b6 2B160000 		.4byte	.LASF497
 15748 21ba 01       		.byte	0x1
 15749 21bb A703     		.2byte	0x3a7
 15750 21bd AA0A0000 		.4byte	0xaaa
 15751 21c1 600E0000 		.4byte	.LFB308
 15752 21c5 36000000 		.4byte	.LFE308-.LFB308
 15753 21c9 01       		.uleb128 0x1
 15754 21ca 9C       		.byte	0x9c
 15755 21cb EE210000 		.4byte	0x21ee
 15756 21cf 23       		.uleb128 0x23
 15757 21d0 CC000000 		.4byte	.LASF452
 15758 21d4 01       		.byte	0x1
 15759 21d5 A703     		.2byte	0x3a7
 15760 21d7 3E030000 		.4byte	0x33e
 15761 21db 02       		.uleb128 0x2
 15762 21dc 91       		.byte	0x91
 15763 21dd 74       		.sleb128 -12
 15764 21de 23       		.uleb128 0x23
 15765 21df 09130000 		.4byte	.LASF447
 15766 21e3 01       		.byte	0x1
 15767 21e4 A703     		.2byte	0x3a7
 15768 21e6 EE210000 		.4byte	0x21ee
 15769 21ea 02       		.uleb128 0x2
 15770 21eb 91       		.byte	0x91
 15771 21ec 70       		.sleb128 -16
 15772 21ed 00       		.byte	0
 15773 21ee 09       		.uleb128 0x9
 15774 21ef 04       		.byte	0x4
ARM GAS  /tmp/ccRrg1qB.s 			page 281


 15775 21f0 B30D0000 		.4byte	0xdb3
 15776 21f4 22       		.uleb128 0x22
 15777 21f5 E5040000 		.4byte	.LASF498
 15778 21f9 01       		.byte	0x1
 15779 21fa B803     		.2byte	0x3b8
 15780 21fc AA0A0000 		.4byte	0xaaa
 15781 2200 A00E0000 		.4byte	.LFB309
 15782 2204 68000000 		.4byte	.LFE309-.LFB309
 15783 2208 01       		.uleb128 0x1
 15784 2209 9C       		.byte	0x9c
 15785 220a 3C220000 		.4byte	0x223c
 15786 220e 23       		.uleb128 0x23
 15787 220f CC000000 		.4byte	.LASF452
 15788 2213 01       		.byte	0x1
 15789 2214 B803     		.2byte	0x3b8
 15790 2216 3E030000 		.4byte	0x33e
 15791 221a 02       		.uleb128 0x2
 15792 221b 91       		.byte	0x91
 15793 221c 6C       		.sleb128 -20
 15794 221d 23       		.uleb128 0x23
 15795 221e E3280000 		.4byte	.LASF457
 15796 2222 01       		.byte	0x1
 15797 2223 B803     		.2byte	0x3b8
 15798 2225 E10D0000 		.4byte	0xde1
 15799 2229 02       		.uleb128 0x2
 15800 222a 91       		.byte	0x91
 15801 222b 6B       		.sleb128 -21
 15802 222c 24       		.uleb128 0x24
 15803 222d 09130000 		.4byte	.LASF447
 15804 2231 01       		.byte	0x1
 15805 2232 BA03     		.2byte	0x3ba
 15806 2234 2A0A0000 		.4byte	0xa2a
 15807 2238 02       		.uleb128 0x2
 15808 2239 91       		.byte	0x91
 15809 223a 77       		.sleb128 -9
 15810 223b 00       		.byte	0
 15811 223c 22       		.uleb128 0x22
 15812 223d 67030000 		.4byte	.LASF499
 15813 2241 01       		.byte	0x1
 15814 2242 CF03     		.2byte	0x3cf
 15815 2244 AA0A0000 		.4byte	0xaaa
 15816 2248 100F0000 		.4byte	.LFB310
 15817 224c 36000000 		.4byte	.LFE310-.LFB310
 15818 2250 01       		.uleb128 0x1
 15819 2251 9C       		.byte	0x9c
 15820 2252 75220000 		.4byte	0x2275
 15821 2256 23       		.uleb128 0x23
 15822 2257 CC000000 		.4byte	.LASF452
 15823 225b 01       		.byte	0x1
 15824 225c CF03     		.2byte	0x3cf
 15825 225e 3E030000 		.4byte	0x33e
 15826 2262 02       		.uleb128 0x2
 15827 2263 91       		.byte	0x91
 15828 2264 74       		.sleb128 -12
 15829 2265 23       		.uleb128 0x23
 15830 2266 09130000 		.4byte	.LASF447
 15831 226a 01       		.byte	0x1
ARM GAS  /tmp/ccRrg1qB.s 			page 282


 15832 226b CF03     		.2byte	0x3cf
 15833 226d 75220000 		.4byte	0x2275
 15834 2271 02       		.uleb128 0x2
 15835 2272 91       		.byte	0x91
 15836 2273 70       		.sleb128 -16
 15837 2274 00       		.byte	0
 15838 2275 09       		.uleb128 0x9
 15839 2276 04       		.byte	0x4
 15840 2277 E10D0000 		.4byte	0xde1
 15841 227b 22       		.uleb128 0x22
 15842 227c 90280000 		.4byte	.LASF500
 15843 2280 01       		.byte	0x1
 15844 2281 E003     		.2byte	0x3e0
 15845 2283 AA0A0000 		.4byte	0xaaa
 15846 2287 500F0000 		.4byte	.LFB311
 15847 228b 68000000 		.4byte	.LFE311-.LFB311
 15848 228f 01       		.uleb128 0x1
 15849 2290 9C       		.byte	0x9c
 15850 2291 C3220000 		.4byte	0x22c3
 15851 2295 23       		.uleb128 0x23
 15852 2296 CC000000 		.4byte	.LASF452
 15853 229a 01       		.byte	0x1
 15854 229b E003     		.2byte	0x3e0
 15855 229d 3E030000 		.4byte	0x33e
 15856 22a1 02       		.uleb128 0x2
 15857 22a2 91       		.byte	0x91
 15858 22a3 6C       		.sleb128 -20
 15859 22a4 23       		.uleb128 0x23
 15860 22a5 E3280000 		.4byte	.LASF457
 15861 22a9 01       		.byte	0x1
 15862 22aa E003     		.2byte	0x3e0
 15863 22ac 120E0000 		.4byte	0xe12
 15864 22b0 02       		.uleb128 0x2
 15865 22b1 91       		.byte	0x91
 15866 22b2 6B       		.sleb128 -21
 15867 22b3 24       		.uleb128 0x24
 15868 22b4 09130000 		.4byte	.LASF447
 15869 22b8 01       		.byte	0x1
 15870 22b9 E203     		.2byte	0x3e2
 15871 22bb 2A0A0000 		.4byte	0xa2a
 15872 22bf 02       		.uleb128 0x2
 15873 22c0 91       		.byte	0x91
 15874 22c1 77       		.sleb128 -9
 15875 22c2 00       		.byte	0
 15876 22c3 22       		.uleb128 0x22
 15877 22c4 0A2E0000 		.4byte	.LASF501
 15878 22c8 01       		.byte	0x1
 15879 22c9 F703     		.2byte	0x3f7
 15880 22cb AA0A0000 		.4byte	0xaaa
 15881 22cf C00F0000 		.4byte	.LFB312
 15882 22d3 36000000 		.4byte	.LFE312-.LFB312
 15883 22d7 01       		.uleb128 0x1
 15884 22d8 9C       		.byte	0x9c
 15885 22d9 FC220000 		.4byte	0x22fc
 15886 22dd 23       		.uleb128 0x23
 15887 22de CC000000 		.4byte	.LASF452
 15888 22e2 01       		.byte	0x1
ARM GAS  /tmp/ccRrg1qB.s 			page 283


 15889 22e3 F703     		.2byte	0x3f7
 15890 22e5 3E030000 		.4byte	0x33e
 15891 22e9 02       		.uleb128 0x2
 15892 22ea 91       		.byte	0x91
 15893 22eb 74       		.sleb128 -12
 15894 22ec 23       		.uleb128 0x23
 15895 22ed 09130000 		.4byte	.LASF447
 15896 22f1 01       		.byte	0x1
 15897 22f2 F703     		.2byte	0x3f7
 15898 22f4 FC220000 		.4byte	0x22fc
 15899 22f8 02       		.uleb128 0x2
 15900 22f9 91       		.byte	0x91
 15901 22fa 70       		.sleb128 -16
 15902 22fb 00       		.byte	0
 15903 22fc 09       		.uleb128 0x9
 15904 22fd 04       		.byte	0x4
 15905 22fe 120E0000 		.4byte	0xe12
 15906 2302 22       		.uleb128 0x22
 15907 2303 77320000 		.4byte	.LASF502
 15908 2307 01       		.byte	0x1
 15909 2308 0804     		.2byte	0x408
 15910 230a AA0A0000 		.4byte	0xaaa
 15911 230e 00100000 		.4byte	.LFB313
 15912 2312 68000000 		.4byte	.LFE313-.LFB313
 15913 2316 01       		.uleb128 0x1
 15914 2317 9C       		.byte	0x9c
 15915 2318 4A230000 		.4byte	0x234a
 15916 231c 23       		.uleb128 0x23
 15917 231d CC000000 		.4byte	.LASF452
 15918 2321 01       		.byte	0x1
 15919 2322 0804     		.2byte	0x408
 15920 2324 3E030000 		.4byte	0x33e
 15921 2328 02       		.uleb128 0x2
 15922 2329 91       		.byte	0x91
 15923 232a 6C       		.sleb128 -20
 15924 232b 23       		.uleb128 0x23
 15925 232c E3280000 		.4byte	.LASF457
 15926 2330 01       		.byte	0x1
 15927 2331 0804     		.2byte	0x408
 15928 2333 340E0000 		.4byte	0xe34
 15929 2337 02       		.uleb128 0x2
 15930 2338 91       		.byte	0x91
 15931 2339 6B       		.sleb128 -21
 15932 233a 24       		.uleb128 0x24
 15933 233b 09130000 		.4byte	.LASF447
 15934 233f 01       		.byte	0x1
 15935 2340 0A04     		.2byte	0x40a
 15936 2342 2A0A0000 		.4byte	0xa2a
 15937 2346 02       		.uleb128 0x2
 15938 2347 91       		.byte	0x91
 15939 2348 77       		.sleb128 -9
 15940 2349 00       		.byte	0
 15941 234a 22       		.uleb128 0x22
 15942 234b 39290000 		.4byte	.LASF503
 15943 234f 01       		.byte	0x1
 15944 2350 1F04     		.2byte	0x41f
 15945 2352 AA0A0000 		.4byte	0xaaa
ARM GAS  /tmp/ccRrg1qB.s 			page 284


 15946 2356 70100000 		.4byte	.LFB314
 15947 235a 36000000 		.4byte	.LFE314-.LFB314
 15948 235e 01       		.uleb128 0x1
 15949 235f 9C       		.byte	0x9c
 15950 2360 83230000 		.4byte	0x2383
 15951 2364 23       		.uleb128 0x23
 15952 2365 CC000000 		.4byte	.LASF452
 15953 2369 01       		.byte	0x1
 15954 236a 1F04     		.2byte	0x41f
 15955 236c 3E030000 		.4byte	0x33e
 15956 2370 02       		.uleb128 0x2
 15957 2371 91       		.byte	0x91
 15958 2372 74       		.sleb128 -12
 15959 2373 23       		.uleb128 0x23
 15960 2374 09130000 		.4byte	.LASF447
 15961 2378 01       		.byte	0x1
 15962 2379 1F04     		.2byte	0x41f
 15963 237b 83230000 		.4byte	0x2383
 15964 237f 02       		.uleb128 0x2
 15965 2380 91       		.byte	0x91
 15966 2381 70       		.sleb128 -16
 15967 2382 00       		.byte	0
 15968 2383 09       		.uleb128 0x9
 15969 2384 04       		.byte	0x4
 15970 2385 340E0000 		.4byte	0xe34
 15971 2389 22       		.uleb128 0x22
 15972 238a 87040000 		.4byte	.LASF504
 15973 238e 01       		.byte	0x1
 15974 238f 3004     		.2byte	0x430
 15975 2391 AA0A0000 		.4byte	0xaaa
 15976 2395 B0100000 		.4byte	.LFB315
 15977 2399 68000000 		.4byte	.LFE315-.LFB315
 15978 239d 01       		.uleb128 0x1
 15979 239e 9C       		.byte	0x9c
 15980 239f D1230000 		.4byte	0x23d1
 15981 23a3 23       		.uleb128 0x23
 15982 23a4 CC000000 		.4byte	.LASF452
 15983 23a8 01       		.byte	0x1
 15984 23a9 3004     		.2byte	0x430
 15985 23ab 3E030000 		.4byte	0x33e
 15986 23af 02       		.uleb128 0x2
 15987 23b0 91       		.byte	0x91
 15988 23b1 6C       		.sleb128 -20
 15989 23b2 23       		.uleb128 0x23
 15990 23b3 E3280000 		.4byte	.LASF457
 15991 23b7 01       		.byte	0x1
 15992 23b8 3004     		.2byte	0x430
 15993 23ba 560E0000 		.4byte	0xe56
 15994 23be 02       		.uleb128 0x2
 15995 23bf 91       		.byte	0x91
 15996 23c0 6B       		.sleb128 -21
 15997 23c1 24       		.uleb128 0x24
 15998 23c2 09130000 		.4byte	.LASF447
 15999 23c6 01       		.byte	0x1
 16000 23c7 3204     		.2byte	0x432
 16001 23c9 2A0A0000 		.4byte	0xa2a
 16002 23cd 02       		.uleb128 0x2
ARM GAS  /tmp/ccRrg1qB.s 			page 285


 16003 23ce 91       		.byte	0x91
 16004 23cf 77       		.sleb128 -9
 16005 23d0 00       		.byte	0
 16006 23d1 22       		.uleb128 0x22
 16007 23d2 0B020000 		.4byte	.LASF505
 16008 23d6 01       		.byte	0x1
 16009 23d7 4704     		.2byte	0x447
 16010 23d9 AA0A0000 		.4byte	0xaaa
 16011 23dd 20110000 		.4byte	.LFB316
 16012 23e1 36000000 		.4byte	.LFE316-.LFB316
 16013 23e5 01       		.uleb128 0x1
 16014 23e6 9C       		.byte	0x9c
 16015 23e7 0A240000 		.4byte	0x240a
 16016 23eb 23       		.uleb128 0x23
 16017 23ec CC000000 		.4byte	.LASF452
 16018 23f0 01       		.byte	0x1
 16019 23f1 4704     		.2byte	0x447
 16020 23f3 3E030000 		.4byte	0x33e
 16021 23f7 02       		.uleb128 0x2
 16022 23f8 91       		.byte	0x91
 16023 23f9 74       		.sleb128 -12
 16024 23fa 23       		.uleb128 0x23
 16025 23fb 09130000 		.4byte	.LASF447
 16026 23ff 01       		.byte	0x1
 16027 2400 4704     		.2byte	0x447
 16028 2402 0A240000 		.4byte	0x240a
 16029 2406 02       		.uleb128 0x2
 16030 2407 91       		.byte	0x91
 16031 2408 70       		.sleb128 -16
 16032 2409 00       		.byte	0
 16033 240a 09       		.uleb128 0x9
 16034 240b 04       		.byte	0x4
 16035 240c 560E0000 		.4byte	0xe56
 16036 2410 22       		.uleb128 0x22
 16037 2411 BF070000 		.4byte	.LASF506
 16038 2415 01       		.byte	0x1
 16039 2416 5804     		.2byte	0x458
 16040 2418 AA0A0000 		.4byte	0xaaa
 16041 241c 60110000 		.4byte	.LFB317
 16042 2420 68000000 		.4byte	.LFE317-.LFB317
 16043 2424 01       		.uleb128 0x1
 16044 2425 9C       		.byte	0x9c
 16045 2426 58240000 		.4byte	0x2458
 16046 242a 23       		.uleb128 0x23
 16047 242b CC000000 		.4byte	.LASF452
 16048 242f 01       		.byte	0x1
 16049 2430 5804     		.2byte	0x458
 16050 2432 3E030000 		.4byte	0x33e
 16051 2436 02       		.uleb128 0x2
 16052 2437 91       		.byte	0x91
 16053 2438 6C       		.sleb128 -20
 16054 2439 23       		.uleb128 0x23
 16055 243a E3280000 		.4byte	.LASF457
 16056 243e 01       		.byte	0x1
 16057 243f 5804     		.2byte	0x458
 16058 2441 780E0000 		.4byte	0xe78
 16059 2445 02       		.uleb128 0x2
ARM GAS  /tmp/ccRrg1qB.s 			page 286


 16060 2446 91       		.byte	0x91
 16061 2447 6B       		.sleb128 -21
 16062 2448 24       		.uleb128 0x24
 16063 2449 09130000 		.4byte	.LASF447
 16064 244d 01       		.byte	0x1
 16065 244e 5A04     		.2byte	0x45a
 16066 2450 2A0A0000 		.4byte	0xa2a
 16067 2454 02       		.uleb128 0x2
 16068 2455 91       		.byte	0x91
 16069 2456 77       		.sleb128 -9
 16070 2457 00       		.byte	0
 16071 2458 22       		.uleb128 0x22
 16072 2459 4F150000 		.4byte	.LASF507
 16073 245d 01       		.byte	0x1
 16074 245e 6F04     		.2byte	0x46f
 16075 2460 AA0A0000 		.4byte	0xaaa
 16076 2464 D0110000 		.4byte	.LFB318
 16077 2468 36000000 		.4byte	.LFE318-.LFB318
 16078 246c 01       		.uleb128 0x1
 16079 246d 9C       		.byte	0x9c
 16080 246e 91240000 		.4byte	0x2491
 16081 2472 23       		.uleb128 0x23
 16082 2473 CC000000 		.4byte	.LASF452
 16083 2477 01       		.byte	0x1
 16084 2478 6F04     		.2byte	0x46f
 16085 247a 3E030000 		.4byte	0x33e
 16086 247e 02       		.uleb128 0x2
 16087 247f 91       		.byte	0x91
 16088 2480 74       		.sleb128 -12
 16089 2481 23       		.uleb128 0x23
 16090 2482 09130000 		.4byte	.LASF447
 16091 2486 01       		.byte	0x1
 16092 2487 6F04     		.2byte	0x46f
 16093 2489 91240000 		.4byte	0x2491
 16094 248d 02       		.uleb128 0x2
 16095 248e 91       		.byte	0x91
 16096 248f 70       		.sleb128 -16
 16097 2490 00       		.byte	0
 16098 2491 09       		.uleb128 0x9
 16099 2492 04       		.byte	0x4
 16100 2493 780E0000 		.4byte	0xe78
 16101 2497 22       		.uleb128 0x22
 16102 2498 62070000 		.4byte	.LASF508
 16103 249c 01       		.byte	0x1
 16104 249d 8004     		.2byte	0x480
 16105 249f AA0A0000 		.4byte	0xaaa
 16106 24a3 10120000 		.4byte	.LFB319
 16107 24a7 68000000 		.4byte	.LFE319-.LFB319
 16108 24ab 01       		.uleb128 0x1
 16109 24ac 9C       		.byte	0x9c
 16110 24ad DF240000 		.4byte	0x24df
 16111 24b1 23       		.uleb128 0x23
 16112 24b2 CC000000 		.4byte	.LASF452
 16113 24b6 01       		.byte	0x1
 16114 24b7 8004     		.2byte	0x480
 16115 24b9 3E030000 		.4byte	0x33e
 16116 24bd 02       		.uleb128 0x2
ARM GAS  /tmp/ccRrg1qB.s 			page 287


 16117 24be 91       		.byte	0x91
 16118 24bf 6C       		.sleb128 -20
 16119 24c0 23       		.uleb128 0x23
 16120 24c1 E3280000 		.4byte	.LASF457
 16121 24c5 01       		.byte	0x1
 16122 24c6 8004     		.2byte	0x480
 16123 24c8 9A0E0000 		.4byte	0xe9a
 16124 24cc 02       		.uleb128 0x2
 16125 24cd 91       		.byte	0x91
 16126 24ce 6B       		.sleb128 -21
 16127 24cf 24       		.uleb128 0x24
 16128 24d0 09130000 		.4byte	.LASF447
 16129 24d4 01       		.byte	0x1
 16130 24d5 8204     		.2byte	0x482
 16131 24d7 2A0A0000 		.4byte	0xa2a
 16132 24db 02       		.uleb128 0x2
 16133 24dc 91       		.byte	0x91
 16134 24dd 77       		.sleb128 -9
 16135 24de 00       		.byte	0
 16136 24df 22       		.uleb128 0x22
 16137 24e0 13150000 		.4byte	.LASF509
 16138 24e4 01       		.byte	0x1
 16139 24e5 9704     		.2byte	0x497
 16140 24e7 AA0A0000 		.4byte	0xaaa
 16141 24eb 80120000 		.4byte	.LFB320
 16142 24ef 36000000 		.4byte	.LFE320-.LFB320
 16143 24f3 01       		.uleb128 0x1
 16144 24f4 9C       		.byte	0x9c
 16145 24f5 18250000 		.4byte	0x2518
 16146 24f9 23       		.uleb128 0x23
 16147 24fa CC000000 		.4byte	.LASF452
 16148 24fe 01       		.byte	0x1
 16149 24ff 9704     		.2byte	0x497
 16150 2501 3E030000 		.4byte	0x33e
 16151 2505 02       		.uleb128 0x2
 16152 2506 91       		.byte	0x91
 16153 2507 74       		.sleb128 -12
 16154 2508 23       		.uleb128 0x23
 16155 2509 09130000 		.4byte	.LASF447
 16156 250d 01       		.byte	0x1
 16157 250e 9704     		.2byte	0x497
 16158 2510 18250000 		.4byte	0x2518
 16159 2514 02       		.uleb128 0x2
 16160 2515 91       		.byte	0x91
 16161 2516 70       		.sleb128 -16
 16162 2517 00       		.byte	0
 16163 2518 09       		.uleb128 0x9
 16164 2519 04       		.byte	0x4
 16165 251a 9A0E0000 		.4byte	0xe9a
 16166 251e 22       		.uleb128 0x22
 16167 251f 78300000 		.4byte	.LASF510
 16168 2523 01       		.byte	0x1
 16169 2524 A804     		.2byte	0x4a8
 16170 2526 AA0A0000 		.4byte	0xaaa
 16171 252a C0120000 		.4byte	.LFB321
 16172 252e 68000000 		.4byte	.LFE321-.LFB321
 16173 2532 01       		.uleb128 0x1
ARM GAS  /tmp/ccRrg1qB.s 			page 288


 16174 2533 9C       		.byte	0x9c
 16175 2534 66250000 		.4byte	0x2566
 16176 2538 23       		.uleb128 0x23
 16177 2539 CC000000 		.4byte	.LASF452
 16178 253d 01       		.byte	0x1
 16179 253e A804     		.2byte	0x4a8
 16180 2540 3E030000 		.4byte	0x33e
 16181 2544 02       		.uleb128 0x2
 16182 2545 91       		.byte	0x91
 16183 2546 6C       		.sleb128 -20
 16184 2547 23       		.uleb128 0x23
 16185 2548 E3280000 		.4byte	.LASF457
 16186 254c 01       		.byte	0x1
 16187 254d A804     		.2byte	0x4a8
 16188 254f BC0E0000 		.4byte	0xebc
 16189 2553 02       		.uleb128 0x2
 16190 2554 91       		.byte	0x91
 16191 2555 6B       		.sleb128 -21
 16192 2556 24       		.uleb128 0x24
 16193 2557 09130000 		.4byte	.LASF447
 16194 255b 01       		.byte	0x1
 16195 255c AA04     		.2byte	0x4aa
 16196 255e 2A0A0000 		.4byte	0xa2a
 16197 2562 02       		.uleb128 0x2
 16198 2563 91       		.byte	0x91
 16199 2564 77       		.sleb128 -9
 16200 2565 00       		.byte	0
 16201 2566 22       		.uleb128 0x22
 16202 2567 D6360000 		.4byte	.LASF511
 16203 256b 01       		.byte	0x1
 16204 256c BF04     		.2byte	0x4bf
 16205 256e AA0A0000 		.4byte	0xaaa
 16206 2572 30130000 		.4byte	.LFB322
 16207 2576 36000000 		.4byte	.LFE322-.LFB322
 16208 257a 01       		.uleb128 0x1
 16209 257b 9C       		.byte	0x9c
 16210 257c 9F250000 		.4byte	0x259f
 16211 2580 23       		.uleb128 0x23
 16212 2581 CC000000 		.4byte	.LASF452
 16213 2585 01       		.byte	0x1
 16214 2586 BF04     		.2byte	0x4bf
 16215 2588 3E030000 		.4byte	0x33e
 16216 258c 02       		.uleb128 0x2
 16217 258d 91       		.byte	0x91
 16218 258e 74       		.sleb128 -12
 16219 258f 23       		.uleb128 0x23
 16220 2590 09130000 		.4byte	.LASF447
 16221 2594 01       		.byte	0x1
 16222 2595 BF04     		.2byte	0x4bf
 16223 2597 9F250000 		.4byte	0x259f
 16224 259b 02       		.uleb128 0x2
 16225 259c 91       		.byte	0x91
 16226 259d 70       		.sleb128 -16
 16227 259e 00       		.byte	0
 16228 259f 09       		.uleb128 0x9
 16229 25a0 04       		.byte	0x4
 16230 25a1 BC0E0000 		.4byte	0xebc
ARM GAS  /tmp/ccRrg1qB.s 			page 289


 16231 25a5 22       		.uleb128 0x22
 16232 25a6 49300000 		.4byte	.LASF512
 16233 25aa 01       		.byte	0x1
 16234 25ab D004     		.2byte	0x4d0
 16235 25ad AA0A0000 		.4byte	0xaaa
 16236 25b1 70130000 		.4byte	.LFB323
 16237 25b5 68000000 		.4byte	.LFE323-.LFB323
 16238 25b9 01       		.uleb128 0x1
 16239 25ba 9C       		.byte	0x9c
 16240 25bb ED250000 		.4byte	0x25ed
 16241 25bf 23       		.uleb128 0x23
 16242 25c0 CC000000 		.4byte	.LASF452
 16243 25c4 01       		.byte	0x1
 16244 25c5 D004     		.2byte	0x4d0
 16245 25c7 3E030000 		.4byte	0x33e
 16246 25cb 02       		.uleb128 0x2
 16247 25cc 91       		.byte	0x91
 16248 25cd 6C       		.sleb128 -20
 16249 25ce 23       		.uleb128 0x23
 16250 25cf E3280000 		.4byte	.LASF457
 16251 25d3 01       		.byte	0x1
 16252 25d4 D004     		.2byte	0x4d0
 16253 25d6 DF0E0000 		.4byte	0xedf
 16254 25da 02       		.uleb128 0x2
 16255 25db 91       		.byte	0x91
 16256 25dc 6B       		.sleb128 -21
 16257 25dd 24       		.uleb128 0x24
 16258 25de 09130000 		.4byte	.LASF447
 16259 25e2 01       		.byte	0x1
 16260 25e3 D204     		.2byte	0x4d2
 16261 25e5 2A0A0000 		.4byte	0xa2a
 16262 25e9 02       		.uleb128 0x2
 16263 25ea 91       		.byte	0x91
 16264 25eb 77       		.sleb128 -9
 16265 25ec 00       		.byte	0
 16266 25ed 22       		.uleb128 0x22
 16267 25ee 09200000 		.4byte	.LASF513
 16268 25f2 01       		.byte	0x1
 16269 25f3 E704     		.2byte	0x4e7
 16270 25f5 AA0A0000 		.4byte	0xaaa
 16271 25f9 E0130000 		.4byte	.LFB324
 16272 25fd 36000000 		.4byte	.LFE324-.LFB324
 16273 2601 01       		.uleb128 0x1
 16274 2602 9C       		.byte	0x9c
 16275 2603 26260000 		.4byte	0x2626
 16276 2607 23       		.uleb128 0x23
 16277 2608 CC000000 		.4byte	.LASF452
 16278 260c 01       		.byte	0x1
 16279 260d E704     		.2byte	0x4e7
 16280 260f 3E030000 		.4byte	0x33e
 16281 2613 02       		.uleb128 0x2
 16282 2614 91       		.byte	0x91
 16283 2615 74       		.sleb128 -12
 16284 2616 23       		.uleb128 0x23
 16285 2617 09130000 		.4byte	.LASF447
 16286 261b 01       		.byte	0x1
 16287 261c E704     		.2byte	0x4e7
ARM GAS  /tmp/ccRrg1qB.s 			page 290


 16288 261e 26260000 		.4byte	0x2626
 16289 2622 02       		.uleb128 0x2
 16290 2623 91       		.byte	0x91
 16291 2624 70       		.sleb128 -16
 16292 2625 00       		.byte	0
 16293 2626 09       		.uleb128 0x9
 16294 2627 04       		.byte	0x4
 16295 2628 DF0E0000 		.4byte	0xedf
 16296 262c 22       		.uleb128 0x22
 16297 262d F6370000 		.4byte	.LASF514
 16298 2631 01       		.byte	0x1
 16299 2632 F804     		.2byte	0x4f8
 16300 2634 AA0A0000 		.4byte	0xaaa
 16301 2638 20140000 		.4byte	.LFB325
 16302 263c 68000000 		.4byte	.LFE325-.LFB325
 16303 2640 01       		.uleb128 0x1
 16304 2641 9C       		.byte	0x9c
 16305 2642 74260000 		.4byte	0x2674
 16306 2646 23       		.uleb128 0x23
 16307 2647 CC000000 		.4byte	.LASF452
 16308 264b 01       		.byte	0x1
 16309 264c F804     		.2byte	0x4f8
 16310 264e 3E030000 		.4byte	0x33e
 16311 2652 02       		.uleb128 0x2
 16312 2653 91       		.byte	0x91
 16313 2654 6C       		.sleb128 -20
 16314 2655 23       		.uleb128 0x23
 16315 2656 E3280000 		.4byte	.LASF457
 16316 265a 01       		.byte	0x1
 16317 265b F804     		.2byte	0x4f8
 16318 265d 020F0000 		.4byte	0xf02
 16319 2661 02       		.uleb128 0x2
 16320 2662 91       		.byte	0x91
 16321 2663 6B       		.sleb128 -21
 16322 2664 24       		.uleb128 0x24
 16323 2665 09130000 		.4byte	.LASF447
 16324 2669 01       		.byte	0x1
 16325 266a FA04     		.2byte	0x4fa
 16326 266c 2A0A0000 		.4byte	0xa2a
 16327 2670 02       		.uleb128 0x2
 16328 2671 91       		.byte	0x91
 16329 2672 77       		.sleb128 -9
 16330 2673 00       		.byte	0
 16331 2674 22       		.uleb128 0x22
 16332 2675 9F090000 		.4byte	.LASF515
 16333 2679 01       		.byte	0x1
 16334 267a 0F05     		.2byte	0x50f
 16335 267c AA0A0000 		.4byte	0xaaa
 16336 2680 90140000 		.4byte	.LFB326
 16337 2684 36000000 		.4byte	.LFE326-.LFB326
 16338 2688 01       		.uleb128 0x1
 16339 2689 9C       		.byte	0x9c
 16340 268a AD260000 		.4byte	0x26ad
 16341 268e 23       		.uleb128 0x23
 16342 268f CC000000 		.4byte	.LASF452
 16343 2693 01       		.byte	0x1
 16344 2694 0F05     		.2byte	0x50f
ARM GAS  /tmp/ccRrg1qB.s 			page 291


 16345 2696 3E030000 		.4byte	0x33e
 16346 269a 02       		.uleb128 0x2
 16347 269b 91       		.byte	0x91
 16348 269c 74       		.sleb128 -12
 16349 269d 23       		.uleb128 0x23
 16350 269e 09130000 		.4byte	.LASF447
 16351 26a2 01       		.byte	0x1
 16352 26a3 0F05     		.2byte	0x50f
 16353 26a5 AD260000 		.4byte	0x26ad
 16354 26a9 02       		.uleb128 0x2
 16355 26aa 91       		.byte	0x91
 16356 26ab 70       		.sleb128 -16
 16357 26ac 00       		.byte	0
 16358 26ad 09       		.uleb128 0x9
 16359 26ae 04       		.byte	0x4
 16360 26af 020F0000 		.4byte	0xf02
 16361 26b3 22       		.uleb128 0x22
 16362 26b4 04290000 		.4byte	.LASF516
 16363 26b8 01       		.byte	0x1
 16364 26b9 2005     		.2byte	0x520
 16365 26bb AA0A0000 		.4byte	0xaaa
 16366 26bf D0140000 		.4byte	.LFB327
 16367 26c3 68000000 		.4byte	.LFE327-.LFB327
 16368 26c7 01       		.uleb128 0x1
 16369 26c8 9C       		.byte	0x9c
 16370 26c9 FB260000 		.4byte	0x26fb
 16371 26cd 23       		.uleb128 0x23
 16372 26ce CC000000 		.4byte	.LASF452
 16373 26d2 01       		.byte	0x1
 16374 26d3 2005     		.2byte	0x520
 16375 26d5 3E030000 		.4byte	0x33e
 16376 26d9 02       		.uleb128 0x2
 16377 26da 91       		.byte	0x91
 16378 26db 6C       		.sleb128 -20
 16379 26dc 23       		.uleb128 0x23
 16380 26dd E3280000 		.4byte	.LASF457
 16381 26e1 01       		.byte	0x1
 16382 26e2 2005     		.2byte	0x520
 16383 26e4 240F0000 		.4byte	0xf24
 16384 26e8 02       		.uleb128 0x2
 16385 26e9 91       		.byte	0x91
 16386 26ea 6B       		.sleb128 -21
 16387 26eb 24       		.uleb128 0x24
 16388 26ec 09130000 		.4byte	.LASF447
 16389 26f0 01       		.byte	0x1
 16390 26f1 2205     		.2byte	0x522
 16391 26f3 2A0A0000 		.4byte	0xa2a
 16392 26f7 02       		.uleb128 0x2
 16393 26f8 91       		.byte	0x91
 16394 26f9 77       		.sleb128 -9
 16395 26fa 00       		.byte	0
 16396 26fb 22       		.uleb128 0x22
 16397 26fc 9C0D0000 		.4byte	.LASF517
 16398 2700 01       		.byte	0x1
 16399 2701 3705     		.2byte	0x537
 16400 2703 AA0A0000 		.4byte	0xaaa
 16401 2707 40150000 		.4byte	.LFB328
ARM GAS  /tmp/ccRrg1qB.s 			page 292


 16402 270b 36000000 		.4byte	.LFE328-.LFB328
 16403 270f 01       		.uleb128 0x1
 16404 2710 9C       		.byte	0x9c
 16405 2711 34270000 		.4byte	0x2734
 16406 2715 23       		.uleb128 0x23
 16407 2716 CC000000 		.4byte	.LASF452
 16408 271a 01       		.byte	0x1
 16409 271b 3705     		.2byte	0x537
 16410 271d 3E030000 		.4byte	0x33e
 16411 2721 02       		.uleb128 0x2
 16412 2722 91       		.byte	0x91
 16413 2723 74       		.sleb128 -12
 16414 2724 23       		.uleb128 0x23
 16415 2725 09130000 		.4byte	.LASF447
 16416 2729 01       		.byte	0x1
 16417 272a 3705     		.2byte	0x537
 16418 272c 34270000 		.4byte	0x2734
 16419 2730 02       		.uleb128 0x2
 16420 2731 91       		.byte	0x91
 16421 2732 70       		.sleb128 -16
 16422 2733 00       		.byte	0
 16423 2734 09       		.uleb128 0x9
 16424 2735 04       		.byte	0x4
 16425 2736 240F0000 		.4byte	0xf24
 16426 273a 22       		.uleb128 0x22
 16427 273b 65210000 		.4byte	.LASF518
 16428 273f 01       		.byte	0x1
 16429 2740 4805     		.2byte	0x548
 16430 2742 AA0A0000 		.4byte	0xaaa
 16431 2746 80150000 		.4byte	.LFB329
 16432 274a 68000000 		.4byte	.LFE329-.LFB329
 16433 274e 01       		.uleb128 0x1
 16434 274f 9C       		.byte	0x9c
 16435 2750 82270000 		.4byte	0x2782
 16436 2754 23       		.uleb128 0x23
 16437 2755 CC000000 		.4byte	.LASF452
 16438 2759 01       		.byte	0x1
 16439 275a 4805     		.2byte	0x548
 16440 275c 3E030000 		.4byte	0x33e
 16441 2760 02       		.uleb128 0x2
 16442 2761 91       		.byte	0x91
 16443 2762 6C       		.sleb128 -20
 16444 2763 23       		.uleb128 0x23
 16445 2764 E3280000 		.4byte	.LASF457
 16446 2768 01       		.byte	0x1
 16447 2769 4805     		.2byte	0x548
 16448 276b 520F0000 		.4byte	0xf52
 16449 276f 02       		.uleb128 0x2
 16450 2770 91       		.byte	0x91
 16451 2771 6B       		.sleb128 -21
 16452 2772 24       		.uleb128 0x24
 16453 2773 09130000 		.4byte	.LASF447
 16454 2777 01       		.byte	0x1
 16455 2778 4A05     		.2byte	0x54a
 16456 277a 2A0A0000 		.4byte	0xa2a
 16457 277e 02       		.uleb128 0x2
 16458 277f 91       		.byte	0x91
ARM GAS  /tmp/ccRrg1qB.s 			page 293


 16459 2780 77       		.sleb128 -9
 16460 2781 00       		.byte	0
 16461 2782 22       		.uleb128 0x22
 16462 2783 A6320000 		.4byte	.LASF519
 16463 2787 01       		.byte	0x1
 16464 2788 5F05     		.2byte	0x55f
 16465 278a AA0A0000 		.4byte	0xaaa
 16466 278e F0150000 		.4byte	.LFB330
 16467 2792 36000000 		.4byte	.LFE330-.LFB330
 16468 2796 01       		.uleb128 0x1
 16469 2797 9C       		.byte	0x9c
 16470 2798 BB270000 		.4byte	0x27bb
 16471 279c 23       		.uleb128 0x23
 16472 279d CC000000 		.4byte	.LASF452
 16473 27a1 01       		.byte	0x1
 16474 27a2 5F05     		.2byte	0x55f
 16475 27a4 3E030000 		.4byte	0x33e
 16476 27a8 02       		.uleb128 0x2
 16477 27a9 91       		.byte	0x91
 16478 27aa 74       		.sleb128 -12
 16479 27ab 23       		.uleb128 0x23
 16480 27ac 09130000 		.4byte	.LASF447
 16481 27b0 01       		.byte	0x1
 16482 27b1 5F05     		.2byte	0x55f
 16483 27b3 BB270000 		.4byte	0x27bb
 16484 27b7 02       		.uleb128 0x2
 16485 27b8 91       		.byte	0x91
 16486 27b9 70       		.sleb128 -16
 16487 27ba 00       		.byte	0
 16488 27bb 09       		.uleb128 0x9
 16489 27bc 04       		.byte	0x4
 16490 27bd 520F0000 		.4byte	0xf52
 16491 27c1 22       		.uleb128 0x22
 16492 27c2 73180000 		.4byte	.LASF520
 16493 27c6 01       		.byte	0x1
 16494 27c7 7005     		.2byte	0x570
 16495 27c9 AA0A0000 		.4byte	0xaaa
 16496 27cd 30160000 		.4byte	.LFB331
 16497 27d1 68000000 		.4byte	.LFE331-.LFB331
 16498 27d5 01       		.uleb128 0x1
 16499 27d6 9C       		.byte	0x9c
 16500 27d7 09280000 		.4byte	0x2809
 16501 27db 23       		.uleb128 0x23
 16502 27dc CC000000 		.4byte	.LASF452
 16503 27e0 01       		.byte	0x1
 16504 27e1 7005     		.2byte	0x570
 16505 27e3 3E030000 		.4byte	0x33e
 16506 27e7 02       		.uleb128 0x2
 16507 27e8 91       		.byte	0x91
 16508 27e9 6C       		.sleb128 -20
 16509 27ea 23       		.uleb128 0x23
 16510 27eb E3280000 		.4byte	.LASF457
 16511 27ef 01       		.byte	0x1
 16512 27f0 7005     		.2byte	0x570
 16513 27f2 740F0000 		.4byte	0xf74
 16514 27f6 02       		.uleb128 0x2
 16515 27f7 91       		.byte	0x91
ARM GAS  /tmp/ccRrg1qB.s 			page 294


 16516 27f8 6B       		.sleb128 -21
 16517 27f9 24       		.uleb128 0x24
 16518 27fa 09130000 		.4byte	.LASF447
 16519 27fe 01       		.byte	0x1
 16520 27ff 7205     		.2byte	0x572
 16521 2801 2A0A0000 		.4byte	0xa2a
 16522 2805 02       		.uleb128 0x2
 16523 2806 91       		.byte	0x91
 16524 2807 77       		.sleb128 -9
 16525 2808 00       		.byte	0
 16526 2809 22       		.uleb128 0x22
 16527 280a 8B150000 		.4byte	.LASF521
 16528 280e 01       		.byte	0x1
 16529 280f 8705     		.2byte	0x587
 16530 2811 AA0A0000 		.4byte	0xaaa
 16531 2815 A0160000 		.4byte	.LFB332
 16532 2819 36000000 		.4byte	.LFE332-.LFB332
 16533 281d 01       		.uleb128 0x1
 16534 281e 9C       		.byte	0x9c
 16535 281f 42280000 		.4byte	0x2842
 16536 2823 23       		.uleb128 0x23
 16537 2824 CC000000 		.4byte	.LASF452
 16538 2828 01       		.byte	0x1
 16539 2829 8705     		.2byte	0x587
 16540 282b 3E030000 		.4byte	0x33e
 16541 282f 02       		.uleb128 0x2
 16542 2830 91       		.byte	0x91
 16543 2831 74       		.sleb128 -12
 16544 2832 23       		.uleb128 0x23
 16545 2833 09130000 		.4byte	.LASF447
 16546 2837 01       		.byte	0x1
 16547 2838 8705     		.2byte	0x587
 16548 283a 42280000 		.4byte	0x2842
 16549 283e 02       		.uleb128 0x2
 16550 283f 91       		.byte	0x91
 16551 2840 70       		.sleb128 -16
 16552 2841 00       		.byte	0
 16553 2842 09       		.uleb128 0x9
 16554 2843 04       		.byte	0x4
 16555 2844 740F0000 		.4byte	0xf74
 16556 2848 22       		.uleb128 0x22
 16557 2849 51000000 		.4byte	.LASF522
 16558 284d 01       		.byte	0x1
 16559 284e 9805     		.2byte	0x598
 16560 2850 AA0A0000 		.4byte	0xaaa
 16561 2854 E0160000 		.4byte	.LFB333
 16562 2858 68000000 		.4byte	.LFE333-.LFB333
 16563 285c 01       		.uleb128 0x1
 16564 285d 9C       		.byte	0x9c
 16565 285e 90280000 		.4byte	0x2890
 16566 2862 23       		.uleb128 0x23
 16567 2863 CC000000 		.4byte	.LASF452
 16568 2867 01       		.byte	0x1
 16569 2868 9805     		.2byte	0x598
 16570 286a 3E030000 		.4byte	0x33e
 16571 286e 02       		.uleb128 0x2
 16572 286f 91       		.byte	0x91
ARM GAS  /tmp/ccRrg1qB.s 			page 295


 16573 2870 6C       		.sleb128 -20
 16574 2871 23       		.uleb128 0x23
 16575 2872 E3280000 		.4byte	.LASF457
 16576 2876 01       		.byte	0x1
 16577 2877 9805     		.2byte	0x598
 16578 2879 970F0000 		.4byte	0xf97
 16579 287d 02       		.uleb128 0x2
 16580 287e 91       		.byte	0x91
 16581 287f 6B       		.sleb128 -21
 16582 2880 24       		.uleb128 0x24
 16583 2881 09130000 		.4byte	.LASF447
 16584 2885 01       		.byte	0x1
 16585 2886 9A05     		.2byte	0x59a
 16586 2888 2A0A0000 		.4byte	0xa2a
 16587 288c 02       		.uleb128 0x2
 16588 288d 91       		.byte	0x91
 16589 288e 77       		.sleb128 -9
 16590 288f 00       		.byte	0
 16591 2890 22       		.uleb128 0x22
 16592 2891 430B0000 		.4byte	.LASF523
 16593 2895 01       		.byte	0x1
 16594 2896 AF05     		.2byte	0x5af
 16595 2898 AA0A0000 		.4byte	0xaaa
 16596 289c 50170000 		.4byte	.LFB334
 16597 28a0 36000000 		.4byte	.LFE334-.LFB334
 16598 28a4 01       		.uleb128 0x1
 16599 28a5 9C       		.byte	0x9c
 16600 28a6 C9280000 		.4byte	0x28c9
 16601 28aa 23       		.uleb128 0x23
 16602 28ab CC000000 		.4byte	.LASF452
 16603 28af 01       		.byte	0x1
 16604 28b0 AF05     		.2byte	0x5af
 16605 28b2 3E030000 		.4byte	0x33e
 16606 28b6 02       		.uleb128 0x2
 16607 28b7 91       		.byte	0x91
 16608 28b8 74       		.sleb128 -12
 16609 28b9 23       		.uleb128 0x23
 16610 28ba 09130000 		.4byte	.LASF447
 16611 28be 01       		.byte	0x1
 16612 28bf AF05     		.2byte	0x5af
 16613 28c1 C9280000 		.4byte	0x28c9
 16614 28c5 02       		.uleb128 0x2
 16615 28c6 91       		.byte	0x91
 16616 28c7 70       		.sleb128 -16
 16617 28c8 00       		.byte	0
 16618 28c9 09       		.uleb128 0x9
 16619 28ca 04       		.byte	0x4
 16620 28cb 970F0000 		.4byte	0xf97
 16621 28cf 22       		.uleb128 0x22
 16622 28d0 A4240000 		.4byte	.LASF524
 16623 28d4 01       		.byte	0x1
 16624 28d5 C005     		.2byte	0x5c0
 16625 28d7 AA0A0000 		.4byte	0xaaa
 16626 28db 90170000 		.4byte	.LFB335
 16627 28df 68000000 		.4byte	.LFE335-.LFB335
 16628 28e3 01       		.uleb128 0x1
 16629 28e4 9C       		.byte	0x9c
ARM GAS  /tmp/ccRrg1qB.s 			page 296


 16630 28e5 17290000 		.4byte	0x2917
 16631 28e9 23       		.uleb128 0x23
 16632 28ea CC000000 		.4byte	.LASF452
 16633 28ee 01       		.byte	0x1
 16634 28ef C005     		.2byte	0x5c0
 16635 28f1 3E030000 		.4byte	0x33e
 16636 28f5 02       		.uleb128 0x2
 16637 28f6 91       		.byte	0x91
 16638 28f7 6C       		.sleb128 -20
 16639 28f8 23       		.uleb128 0x23
 16640 28f9 E3280000 		.4byte	.LASF457
 16641 28fd 01       		.byte	0x1
 16642 28fe C005     		.2byte	0x5c0
 16643 2900 B90F0000 		.4byte	0xfb9
 16644 2904 02       		.uleb128 0x2
 16645 2905 91       		.byte	0x91
 16646 2906 6B       		.sleb128 -21
 16647 2907 24       		.uleb128 0x24
 16648 2908 09130000 		.4byte	.LASF447
 16649 290c 01       		.byte	0x1
 16650 290d C205     		.2byte	0x5c2
 16651 290f 2A0A0000 		.4byte	0xa2a
 16652 2913 02       		.uleb128 0x2
 16653 2914 91       		.byte	0x91
 16654 2915 77       		.sleb128 -9
 16655 2916 00       		.byte	0
 16656 2917 22       		.uleb128 0x22
 16657 2918 121F0000 		.4byte	.LASF525
 16658 291c 01       		.byte	0x1
 16659 291d D705     		.2byte	0x5d7
 16660 291f AA0A0000 		.4byte	0xaaa
 16661 2923 00180000 		.4byte	.LFB336
 16662 2927 36000000 		.4byte	.LFE336-.LFB336
 16663 292b 01       		.uleb128 0x1
 16664 292c 9C       		.byte	0x9c
 16665 292d 50290000 		.4byte	0x2950
 16666 2931 23       		.uleb128 0x23
 16667 2932 CC000000 		.4byte	.LASF452
 16668 2936 01       		.byte	0x1
 16669 2937 D705     		.2byte	0x5d7
 16670 2939 3E030000 		.4byte	0x33e
 16671 293d 02       		.uleb128 0x2
 16672 293e 91       		.byte	0x91
 16673 293f 74       		.sleb128 -12
 16674 2940 23       		.uleb128 0x23
 16675 2941 09130000 		.4byte	.LASF447
 16676 2945 01       		.byte	0x1
 16677 2946 D705     		.2byte	0x5d7
 16678 2948 50290000 		.4byte	0x2950
 16679 294c 02       		.uleb128 0x2
 16680 294d 91       		.byte	0x91
 16681 294e 70       		.sleb128 -16
 16682 294f 00       		.byte	0
 16683 2950 09       		.uleb128 0x9
 16684 2951 04       		.byte	0x4
 16685 2952 B90F0000 		.4byte	0xfb9
 16686 2956 22       		.uleb128 0x22
ARM GAS  /tmp/ccRrg1qB.s 			page 297


 16687 2957 C3110000 		.4byte	.LASF526
 16688 295b 01       		.byte	0x1
 16689 295c E805     		.2byte	0x5e8
 16690 295e AA0A0000 		.4byte	0xaaa
 16691 2962 40180000 		.4byte	.LFB337
 16692 2966 68000000 		.4byte	.LFE337-.LFB337
 16693 296a 01       		.uleb128 0x1
 16694 296b 9C       		.byte	0x9c
 16695 296c 9E290000 		.4byte	0x299e
 16696 2970 23       		.uleb128 0x23
 16697 2971 CC000000 		.4byte	.LASF452
 16698 2975 01       		.byte	0x1
 16699 2976 E805     		.2byte	0x5e8
 16700 2978 3E030000 		.4byte	0x33e
 16701 297c 02       		.uleb128 0x2
 16702 297d 91       		.byte	0x91
 16703 297e 6C       		.sleb128 -20
 16704 297f 23       		.uleb128 0x23
 16705 2980 E3280000 		.4byte	.LASF457
 16706 2984 01       		.byte	0x1
 16707 2985 E805     		.2byte	0x5e8
 16708 2987 DB0F0000 		.4byte	0xfdb
 16709 298b 02       		.uleb128 0x2
 16710 298c 91       		.byte	0x91
 16711 298d 6B       		.sleb128 -21
 16712 298e 24       		.uleb128 0x24
 16713 298f 09130000 		.4byte	.LASF447
 16714 2993 01       		.byte	0x1
 16715 2994 EA05     		.2byte	0x5ea
 16716 2996 2A0A0000 		.4byte	0xa2a
 16717 299a 02       		.uleb128 0x2
 16718 299b 91       		.byte	0x91
 16719 299c 77       		.sleb128 -9
 16720 299d 00       		.byte	0
 16721 299e 22       		.uleb128 0x22
 16722 299f FF260000 		.4byte	.LASF527
 16723 29a3 01       		.byte	0x1
 16724 29a4 FF05     		.2byte	0x5ff
 16725 29a6 AA0A0000 		.4byte	0xaaa
 16726 29aa B0180000 		.4byte	.LFB338
 16727 29ae 36000000 		.4byte	.LFE338-.LFB338
 16728 29b2 01       		.uleb128 0x1
 16729 29b3 9C       		.byte	0x9c
 16730 29b4 D7290000 		.4byte	0x29d7
 16731 29b8 23       		.uleb128 0x23
 16732 29b9 CC000000 		.4byte	.LASF452
 16733 29bd 01       		.byte	0x1
 16734 29be FF05     		.2byte	0x5ff
 16735 29c0 3E030000 		.4byte	0x33e
 16736 29c4 02       		.uleb128 0x2
 16737 29c5 91       		.byte	0x91
 16738 29c6 74       		.sleb128 -12
 16739 29c7 23       		.uleb128 0x23
 16740 29c8 09130000 		.4byte	.LASF447
 16741 29cc 01       		.byte	0x1
 16742 29cd FF05     		.2byte	0x5ff
 16743 29cf D7290000 		.4byte	0x29d7
ARM GAS  /tmp/ccRrg1qB.s 			page 298


 16744 29d3 02       		.uleb128 0x2
 16745 29d4 91       		.byte	0x91
 16746 29d5 70       		.sleb128 -16
 16747 29d6 00       		.byte	0
 16748 29d7 09       		.uleb128 0x9
 16749 29d8 04       		.byte	0x4
 16750 29d9 DB0F0000 		.4byte	0xfdb
 16751 29dd 22       		.uleb128 0x22
 16752 29de 89240000 		.4byte	.LASF528
 16753 29e2 01       		.byte	0x1
 16754 29e3 1006     		.2byte	0x610
 16755 29e5 AA0A0000 		.4byte	0xaaa
 16756 29e9 F0180000 		.4byte	.LFB339
 16757 29ed 68000000 		.4byte	.LFE339-.LFB339
 16758 29f1 01       		.uleb128 0x1
 16759 29f2 9C       		.byte	0x9c
 16760 29f3 252A0000 		.4byte	0x2a25
 16761 29f7 23       		.uleb128 0x23
 16762 29f8 CC000000 		.4byte	.LASF452
 16763 29fc 01       		.byte	0x1
 16764 29fd 1006     		.2byte	0x610
 16765 29ff 3E030000 		.4byte	0x33e
 16766 2a03 02       		.uleb128 0x2
 16767 2a04 91       		.byte	0x91
 16768 2a05 6C       		.sleb128 -20
 16769 2a06 23       		.uleb128 0x23
 16770 2a07 E3280000 		.4byte	.LASF457
 16771 2a0b 01       		.byte	0x1
 16772 2a0c 1006     		.2byte	0x610
 16773 2a0e FD0F0000 		.4byte	0xffd
 16774 2a12 02       		.uleb128 0x2
 16775 2a13 91       		.byte	0x91
 16776 2a14 6B       		.sleb128 -21
 16777 2a15 24       		.uleb128 0x24
 16778 2a16 09130000 		.4byte	.LASF447
 16779 2a1a 01       		.byte	0x1
 16780 2a1b 1206     		.2byte	0x612
 16781 2a1d 2A0A0000 		.4byte	0xa2a
 16782 2a21 02       		.uleb128 0x2
 16783 2a22 91       		.byte	0x91
 16784 2a23 77       		.sleb128 -9
 16785 2a24 00       		.byte	0
 16786 2a25 22       		.uleb128 0x22
 16787 2a26 180A0000 		.4byte	.LASF529
 16788 2a2a 01       		.byte	0x1
 16789 2a2b 2706     		.2byte	0x627
 16790 2a2d AA0A0000 		.4byte	0xaaa
 16791 2a31 60190000 		.4byte	.LFB340
 16792 2a35 36000000 		.4byte	.LFE340-.LFB340
 16793 2a39 01       		.uleb128 0x1
 16794 2a3a 9C       		.byte	0x9c
 16795 2a3b 5E2A0000 		.4byte	0x2a5e
 16796 2a3f 23       		.uleb128 0x23
 16797 2a40 CC000000 		.4byte	.LASF452
 16798 2a44 01       		.byte	0x1
 16799 2a45 2706     		.2byte	0x627
 16800 2a47 3E030000 		.4byte	0x33e
ARM GAS  /tmp/ccRrg1qB.s 			page 299


 16801 2a4b 02       		.uleb128 0x2
 16802 2a4c 91       		.byte	0x91
 16803 2a4d 74       		.sleb128 -12
 16804 2a4e 23       		.uleb128 0x23
 16805 2a4f 09130000 		.4byte	.LASF447
 16806 2a53 01       		.byte	0x1
 16807 2a54 2706     		.2byte	0x627
 16808 2a56 5E2A0000 		.4byte	0x2a5e
 16809 2a5a 02       		.uleb128 0x2
 16810 2a5b 91       		.byte	0x91
 16811 2a5c 70       		.sleb128 -16
 16812 2a5d 00       		.byte	0
 16813 2a5e 09       		.uleb128 0x9
 16814 2a5f 04       		.byte	0x4
 16815 2a60 FD0F0000 		.4byte	0xffd
 16816 2a64 22       		.uleb128 0x22
 16817 2a65 9C110000 		.4byte	.LASF530
 16818 2a69 01       		.byte	0x1
 16819 2a6a 3806     		.2byte	0x638
 16820 2a6c AA0A0000 		.4byte	0xaaa
 16821 2a70 A0190000 		.4byte	.LFB341
 16822 2a74 68000000 		.4byte	.LFE341-.LFB341
 16823 2a78 01       		.uleb128 0x1
 16824 2a79 9C       		.byte	0x9c
 16825 2a7a AC2A0000 		.4byte	0x2aac
 16826 2a7e 23       		.uleb128 0x23
 16827 2a7f CC000000 		.4byte	.LASF452
 16828 2a83 01       		.byte	0x1
 16829 2a84 3806     		.2byte	0x638
 16830 2a86 3E030000 		.4byte	0x33e
 16831 2a8a 02       		.uleb128 0x2
 16832 2a8b 91       		.byte	0x91
 16833 2a8c 6C       		.sleb128 -20
 16834 2a8d 23       		.uleb128 0x23
 16835 2a8e E3280000 		.4byte	.LASF457
 16836 2a92 01       		.byte	0x1
 16837 2a93 3806     		.2byte	0x638
 16838 2a95 1F100000 		.4byte	0x101f
 16839 2a99 02       		.uleb128 0x2
 16840 2a9a 91       		.byte	0x91
 16841 2a9b 6B       		.sleb128 -21
 16842 2a9c 24       		.uleb128 0x24
 16843 2a9d 09130000 		.4byte	.LASF447
 16844 2aa1 01       		.byte	0x1
 16845 2aa2 3A06     		.2byte	0x63a
 16846 2aa4 2A0A0000 		.4byte	0xa2a
 16847 2aa8 02       		.uleb128 0x2
 16848 2aa9 91       		.byte	0x91
 16849 2aaa 77       		.sleb128 -9
 16850 2aab 00       		.byte	0
 16851 2aac 22       		.uleb128 0x22
 16852 2aad D8260000 		.4byte	.LASF531
 16853 2ab1 01       		.byte	0x1
 16854 2ab2 4F06     		.2byte	0x64f
 16855 2ab4 AA0A0000 		.4byte	0xaaa
 16856 2ab8 101A0000 		.4byte	.LFB342
 16857 2abc 36000000 		.4byte	.LFE342-.LFB342
ARM GAS  /tmp/ccRrg1qB.s 			page 300


 16858 2ac0 01       		.uleb128 0x1
 16859 2ac1 9C       		.byte	0x9c
 16860 2ac2 E52A0000 		.4byte	0x2ae5
 16861 2ac6 23       		.uleb128 0x23
 16862 2ac7 CC000000 		.4byte	.LASF452
 16863 2acb 01       		.byte	0x1
 16864 2acc 4F06     		.2byte	0x64f
 16865 2ace 3E030000 		.4byte	0x33e
 16866 2ad2 02       		.uleb128 0x2
 16867 2ad3 91       		.byte	0x91
 16868 2ad4 74       		.sleb128 -12
 16869 2ad5 23       		.uleb128 0x23
 16870 2ad6 09130000 		.4byte	.LASF447
 16871 2ada 01       		.byte	0x1
 16872 2adb 4F06     		.2byte	0x64f
 16873 2add E52A0000 		.4byte	0x2ae5
 16874 2ae1 02       		.uleb128 0x2
 16875 2ae2 91       		.byte	0x91
 16876 2ae3 70       		.sleb128 -16
 16877 2ae4 00       		.byte	0
 16878 2ae5 09       		.uleb128 0x9
 16879 2ae6 04       		.byte	0x4
 16880 2ae7 1F100000 		.4byte	0x101f
 16881 2aeb 22       		.uleb128 0x22
 16882 2aec 3D370000 		.4byte	.LASF532
 16883 2af0 01       		.byte	0x1
 16884 2af1 6006     		.2byte	0x660
 16885 2af3 AA0A0000 		.4byte	0xaaa
 16886 2af7 501A0000 		.4byte	.LFB343
 16887 2afb 68000000 		.4byte	.LFE343-.LFB343
 16888 2aff 01       		.uleb128 0x1
 16889 2b00 9C       		.byte	0x9c
 16890 2b01 332B0000 		.4byte	0x2b33
 16891 2b05 23       		.uleb128 0x23
 16892 2b06 CC000000 		.4byte	.LASF452
 16893 2b0a 01       		.byte	0x1
 16894 2b0b 6006     		.2byte	0x660
 16895 2b0d 3E030000 		.4byte	0x33e
 16896 2b11 02       		.uleb128 0x2
 16897 2b12 91       		.byte	0x91
 16898 2b13 6C       		.sleb128 -20
 16899 2b14 23       		.uleb128 0x23
 16900 2b15 E3280000 		.4byte	.LASF457
 16901 2b19 01       		.byte	0x1
 16902 2b1a 6006     		.2byte	0x660
 16903 2b1c 42100000 		.4byte	0x1042
 16904 2b20 02       		.uleb128 0x2
 16905 2b21 91       		.byte	0x91
 16906 2b22 6B       		.sleb128 -21
 16907 2b23 24       		.uleb128 0x24
 16908 2b24 09130000 		.4byte	.LASF447
 16909 2b28 01       		.byte	0x1
 16910 2b29 6206     		.2byte	0x662
 16911 2b2b 2A0A0000 		.4byte	0xa2a
 16912 2b2f 02       		.uleb128 0x2
 16913 2b30 91       		.byte	0x91
 16914 2b31 77       		.sleb128 -9
ARM GAS  /tmp/ccRrg1qB.s 			page 301


 16915 2b32 00       		.byte	0
 16916 2b33 22       		.uleb128 0x22
 16917 2b34 8A360000 		.4byte	.LASF533
 16918 2b38 01       		.byte	0x1
 16919 2b39 7706     		.2byte	0x677
 16920 2b3b AA0A0000 		.4byte	0xaaa
 16921 2b3f C01A0000 		.4byte	.LFB344
 16922 2b43 36000000 		.4byte	.LFE344-.LFB344
 16923 2b47 01       		.uleb128 0x1
 16924 2b48 9C       		.byte	0x9c
 16925 2b49 6C2B0000 		.4byte	0x2b6c
 16926 2b4d 23       		.uleb128 0x23
 16927 2b4e CC000000 		.4byte	.LASF452
 16928 2b52 01       		.byte	0x1
 16929 2b53 7706     		.2byte	0x677
 16930 2b55 3E030000 		.4byte	0x33e
 16931 2b59 02       		.uleb128 0x2
 16932 2b5a 91       		.byte	0x91
 16933 2b5b 74       		.sleb128 -12
 16934 2b5c 23       		.uleb128 0x23
 16935 2b5d 09130000 		.4byte	.LASF447
 16936 2b61 01       		.byte	0x1
 16937 2b62 7706     		.2byte	0x677
 16938 2b64 6C2B0000 		.4byte	0x2b6c
 16939 2b68 02       		.uleb128 0x2
 16940 2b69 91       		.byte	0x91
 16941 2b6a 70       		.sleb128 -16
 16942 2b6b 00       		.byte	0
 16943 2b6c 09       		.uleb128 0x9
 16944 2b6d 04       		.byte	0x4
 16945 2b6e 42100000 		.4byte	0x1042
 16946 2b72 22       		.uleb128 0x22
 16947 2b73 0F110000 		.4byte	.LASF534
 16948 2b77 01       		.byte	0x1
 16949 2b78 8806     		.2byte	0x688
 16950 2b7a AA0A0000 		.4byte	0xaaa
 16951 2b7e 001B0000 		.4byte	.LFB345
 16952 2b82 68000000 		.4byte	.LFE345-.LFB345
 16953 2b86 01       		.uleb128 0x1
 16954 2b87 9C       		.byte	0x9c
 16955 2b88 BA2B0000 		.4byte	0x2bba
 16956 2b8c 23       		.uleb128 0x23
 16957 2b8d CC000000 		.4byte	.LASF452
 16958 2b91 01       		.byte	0x1
 16959 2b92 8806     		.2byte	0x688
 16960 2b94 3E030000 		.4byte	0x33e
 16961 2b98 02       		.uleb128 0x2
 16962 2b99 91       		.byte	0x91
 16963 2b9a 6C       		.sleb128 -20
 16964 2b9b 23       		.uleb128 0x23
 16965 2b9c E3280000 		.4byte	.LASF457
 16966 2ba0 01       		.byte	0x1
 16967 2ba1 8806     		.2byte	0x688
 16968 2ba3 65100000 		.4byte	0x1065
 16969 2ba7 02       		.uleb128 0x2
 16970 2ba8 91       		.byte	0x91
 16971 2ba9 6B       		.sleb128 -21
ARM GAS  /tmp/ccRrg1qB.s 			page 302


 16972 2baa 24       		.uleb128 0x24
 16973 2bab 09130000 		.4byte	.LASF447
 16974 2baf 01       		.byte	0x1
 16975 2bb0 8A06     		.2byte	0x68a
 16976 2bb2 2A0A0000 		.4byte	0xa2a
 16977 2bb6 02       		.uleb128 0x2
 16978 2bb7 91       		.byte	0x91
 16979 2bb8 77       		.sleb128 -9
 16980 2bb9 00       		.byte	0
 16981 2bba 22       		.uleb128 0x22
 16982 2bbb 850C0000 		.4byte	.LASF535
 16983 2bbf 01       		.byte	0x1
 16984 2bc0 9F06     		.2byte	0x69f
 16985 2bc2 AA0A0000 		.4byte	0xaaa
 16986 2bc6 701B0000 		.4byte	.LFB346
 16987 2bca 36000000 		.4byte	.LFE346-.LFB346
 16988 2bce 01       		.uleb128 0x1
 16989 2bcf 9C       		.byte	0x9c
 16990 2bd0 F32B0000 		.4byte	0x2bf3
 16991 2bd4 23       		.uleb128 0x23
 16992 2bd5 CC000000 		.4byte	.LASF452
 16993 2bd9 01       		.byte	0x1
 16994 2bda 9F06     		.2byte	0x69f
 16995 2bdc 3E030000 		.4byte	0x33e
 16996 2be0 02       		.uleb128 0x2
 16997 2be1 91       		.byte	0x91
 16998 2be2 74       		.sleb128 -12
 16999 2be3 23       		.uleb128 0x23
 17000 2be4 09130000 		.4byte	.LASF447
 17001 2be8 01       		.byte	0x1
 17002 2be9 9F06     		.2byte	0x69f
 17003 2beb F32B0000 		.4byte	0x2bf3
 17004 2bef 02       		.uleb128 0x2
 17005 2bf0 91       		.byte	0x91
 17006 2bf1 70       		.sleb128 -16
 17007 2bf2 00       		.byte	0
 17008 2bf3 09       		.uleb128 0x9
 17009 2bf4 04       		.byte	0x4
 17010 2bf5 65100000 		.4byte	0x1065
 17011 2bf9 22       		.uleb128 0x22
 17012 2bfa D0270000 		.4byte	.LASF536
 17013 2bfe 01       		.byte	0x1
 17014 2bff B006     		.2byte	0x6b0
 17015 2c01 AA0A0000 		.4byte	0xaaa
 17016 2c05 B01B0000 		.4byte	.LFB347
 17017 2c09 68000000 		.4byte	.LFE347-.LFB347
 17018 2c0d 01       		.uleb128 0x1
 17019 2c0e 9C       		.byte	0x9c
 17020 2c0f 412C0000 		.4byte	0x2c41
 17021 2c13 23       		.uleb128 0x23
 17022 2c14 CC000000 		.4byte	.LASF452
 17023 2c18 01       		.byte	0x1
 17024 2c19 B006     		.2byte	0x6b0
 17025 2c1b 3E030000 		.4byte	0x33e
 17026 2c1f 02       		.uleb128 0x2
 17027 2c20 91       		.byte	0x91
 17028 2c21 6C       		.sleb128 -20
ARM GAS  /tmp/ccRrg1qB.s 			page 303


 17029 2c22 23       		.uleb128 0x23
 17030 2c23 E3280000 		.4byte	.LASF457
 17031 2c27 01       		.byte	0x1
 17032 2c28 B006     		.2byte	0x6b0
 17033 2c2a 87100000 		.4byte	0x1087
 17034 2c2e 02       		.uleb128 0x2
 17035 2c2f 91       		.byte	0x91
 17036 2c30 6B       		.sleb128 -21
 17037 2c31 24       		.uleb128 0x24
 17038 2c32 09130000 		.4byte	.LASF447
 17039 2c36 01       		.byte	0x1
 17040 2c37 B206     		.2byte	0x6b2
 17041 2c39 2A0A0000 		.4byte	0xa2a
 17042 2c3d 02       		.uleb128 0x2
 17043 2c3e 91       		.byte	0x91
 17044 2c3f 77       		.sleb128 -9
 17045 2c40 00       		.byte	0
 17046 2c41 22       		.uleb128 0x22
 17047 2c42 32020000 		.4byte	.LASF537
 17048 2c46 01       		.byte	0x1
 17049 2c47 C706     		.2byte	0x6c7
 17050 2c49 AA0A0000 		.4byte	0xaaa
 17051 2c4d 201C0000 		.4byte	.LFB348
 17052 2c51 36000000 		.4byte	.LFE348-.LFB348
 17053 2c55 01       		.uleb128 0x1
 17054 2c56 9C       		.byte	0x9c
 17055 2c57 7A2C0000 		.4byte	0x2c7a
 17056 2c5b 23       		.uleb128 0x23
 17057 2c5c CC000000 		.4byte	.LASF452
 17058 2c60 01       		.byte	0x1
 17059 2c61 C706     		.2byte	0x6c7
 17060 2c63 3E030000 		.4byte	0x33e
 17061 2c67 02       		.uleb128 0x2
 17062 2c68 91       		.byte	0x91
 17063 2c69 74       		.sleb128 -12
 17064 2c6a 23       		.uleb128 0x23
 17065 2c6b 09130000 		.4byte	.LASF447
 17066 2c6f 01       		.byte	0x1
 17067 2c70 C706     		.2byte	0x6c7
 17068 2c72 7A2C0000 		.4byte	0x2c7a
 17069 2c76 02       		.uleb128 0x2
 17070 2c77 91       		.byte	0x91
 17071 2c78 70       		.sleb128 -16
 17072 2c79 00       		.byte	0
 17073 2c7a 09       		.uleb128 0x9
 17074 2c7b 04       		.byte	0x4
 17075 2c7c 87100000 		.4byte	0x1087
 17076 2c80 22       		.uleb128 0x22
 17077 2c81 0B2D0000 		.4byte	.LASF538
 17078 2c85 01       		.byte	0x1
 17079 2c86 D806     		.2byte	0x6d8
 17080 2c88 AA0A0000 		.4byte	0xaaa
 17081 2c8c 601C0000 		.4byte	.LFB349
 17082 2c90 68000000 		.4byte	.LFE349-.LFB349
 17083 2c94 01       		.uleb128 0x1
 17084 2c95 9C       		.byte	0x9c
 17085 2c96 C82C0000 		.4byte	0x2cc8
ARM GAS  /tmp/ccRrg1qB.s 			page 304


 17086 2c9a 23       		.uleb128 0x23
 17087 2c9b CC000000 		.4byte	.LASF452
 17088 2c9f 01       		.byte	0x1
 17089 2ca0 D806     		.2byte	0x6d8
 17090 2ca2 3E030000 		.4byte	0x33e
 17091 2ca6 02       		.uleb128 0x2
 17092 2ca7 91       		.byte	0x91
 17093 2ca8 6C       		.sleb128 -20
 17094 2ca9 23       		.uleb128 0x23
 17095 2caa E3280000 		.4byte	.LASF457
 17096 2cae 01       		.byte	0x1
 17097 2caf D806     		.2byte	0x6d8
 17098 2cb1 A9100000 		.4byte	0x10a9
 17099 2cb5 02       		.uleb128 0x2
 17100 2cb6 91       		.byte	0x91
 17101 2cb7 6B       		.sleb128 -21
 17102 2cb8 24       		.uleb128 0x24
 17103 2cb9 09130000 		.4byte	.LASF447
 17104 2cbd 01       		.byte	0x1
 17105 2cbe DA06     		.2byte	0x6da
 17106 2cc0 2A0A0000 		.4byte	0xa2a
 17107 2cc4 02       		.uleb128 0x2
 17108 2cc5 91       		.byte	0x91
 17109 2cc6 77       		.sleb128 -9
 17110 2cc7 00       		.byte	0
 17111 2cc8 22       		.uleb128 0x22
 17112 2cc9 31260000 		.4byte	.LASF539
 17113 2ccd 01       		.byte	0x1
 17114 2cce EF06     		.2byte	0x6ef
 17115 2cd0 AA0A0000 		.4byte	0xaaa
 17116 2cd4 D01C0000 		.4byte	.LFB350
 17117 2cd8 36000000 		.4byte	.LFE350-.LFB350
 17118 2cdc 01       		.uleb128 0x1
 17119 2cdd 9C       		.byte	0x9c
 17120 2cde 012D0000 		.4byte	0x2d01
 17121 2ce2 23       		.uleb128 0x23
 17122 2ce3 CC000000 		.4byte	.LASF452
 17123 2ce7 01       		.byte	0x1
 17124 2ce8 EF06     		.2byte	0x6ef
 17125 2cea 3E030000 		.4byte	0x33e
 17126 2cee 02       		.uleb128 0x2
 17127 2cef 91       		.byte	0x91
 17128 2cf0 74       		.sleb128 -12
 17129 2cf1 23       		.uleb128 0x23
 17130 2cf2 09130000 		.4byte	.LASF447
 17131 2cf6 01       		.byte	0x1
 17132 2cf7 EF06     		.2byte	0x6ef
 17133 2cf9 012D0000 		.4byte	0x2d01
 17134 2cfd 02       		.uleb128 0x2
 17135 2cfe 91       		.byte	0x91
 17136 2cff 70       		.sleb128 -16
 17137 2d00 00       		.byte	0
 17138 2d01 09       		.uleb128 0x9
 17139 2d02 04       		.byte	0x4
 17140 2d03 A9100000 		.4byte	0x10a9
 17141 2d07 22       		.uleb128 0x22
 17142 2d08 F31C0000 		.4byte	.LASF540
ARM GAS  /tmp/ccRrg1qB.s 			page 305


 17143 2d0c 01       		.byte	0x1
 17144 2d0d 0007     		.2byte	0x700
 17145 2d0f AA0A0000 		.4byte	0xaaa
 17146 2d13 101D0000 		.4byte	.LFB351
 17147 2d17 68000000 		.4byte	.LFE351-.LFB351
 17148 2d1b 01       		.uleb128 0x1
 17149 2d1c 9C       		.byte	0x9c
 17150 2d1d 4F2D0000 		.4byte	0x2d4f
 17151 2d21 23       		.uleb128 0x23
 17152 2d22 CC000000 		.4byte	.LASF452
 17153 2d26 01       		.byte	0x1
 17154 2d27 0007     		.2byte	0x700
 17155 2d29 3E030000 		.4byte	0x33e
 17156 2d2d 02       		.uleb128 0x2
 17157 2d2e 91       		.byte	0x91
 17158 2d2f 6C       		.sleb128 -20
 17159 2d30 23       		.uleb128 0x23
 17160 2d31 E3280000 		.4byte	.LASF457
 17161 2d35 01       		.byte	0x1
 17162 2d36 0007     		.2byte	0x700
 17163 2d38 CB100000 		.4byte	0x10cb
 17164 2d3c 02       		.uleb128 0x2
 17165 2d3d 91       		.byte	0x91
 17166 2d3e 6B       		.sleb128 -21
 17167 2d3f 24       		.uleb128 0x24
 17168 2d40 09130000 		.4byte	.LASF447
 17169 2d44 01       		.byte	0x1
 17170 2d45 0207     		.2byte	0x702
 17171 2d47 2A0A0000 		.4byte	0xa2a
 17172 2d4b 02       		.uleb128 0x2
 17173 2d4c 91       		.byte	0x91
 17174 2d4d 77       		.sleb128 -9
 17175 2d4e 00       		.byte	0
 17176 2d4f 22       		.uleb128 0x22
 17177 2d50 5C190000 		.4byte	.LASF541
 17178 2d54 01       		.byte	0x1
 17179 2d55 1707     		.2byte	0x717
 17180 2d57 AA0A0000 		.4byte	0xaaa
 17181 2d5b 801D0000 		.4byte	.LFB352
 17182 2d5f 36000000 		.4byte	.LFE352-.LFB352
 17183 2d63 01       		.uleb128 0x1
 17184 2d64 9C       		.byte	0x9c
 17185 2d65 882D0000 		.4byte	0x2d88
 17186 2d69 23       		.uleb128 0x23
 17187 2d6a CC000000 		.4byte	.LASF452
 17188 2d6e 01       		.byte	0x1
 17189 2d6f 1707     		.2byte	0x717
 17190 2d71 3E030000 		.4byte	0x33e
 17191 2d75 02       		.uleb128 0x2
 17192 2d76 91       		.byte	0x91
 17193 2d77 74       		.sleb128 -12
 17194 2d78 23       		.uleb128 0x23
 17195 2d79 09130000 		.4byte	.LASF447
 17196 2d7d 01       		.byte	0x1
 17197 2d7e 1707     		.2byte	0x717
 17198 2d80 882D0000 		.4byte	0x2d88
 17199 2d84 02       		.uleb128 0x2
ARM GAS  /tmp/ccRrg1qB.s 			page 306


 17200 2d85 91       		.byte	0x91
 17201 2d86 70       		.sleb128 -16
 17202 2d87 00       		.byte	0
 17203 2d88 09       		.uleb128 0x9
 17204 2d89 04       		.byte	0x4
 17205 2d8a CB100000 		.4byte	0x10cb
 17206 2d8e 22       		.uleb128 0x22
 17207 2d8f 471C0000 		.4byte	.LASF542
 17208 2d93 01       		.byte	0x1
 17209 2d94 2807     		.2byte	0x728
 17210 2d96 AA0A0000 		.4byte	0xaaa
 17211 2d9a C01D0000 		.4byte	.LFB353
 17212 2d9e 68000000 		.4byte	.LFE353-.LFB353
 17213 2da2 01       		.uleb128 0x1
 17214 2da3 9C       		.byte	0x9c
 17215 2da4 D62D0000 		.4byte	0x2dd6
 17216 2da8 23       		.uleb128 0x23
 17217 2da9 CC000000 		.4byte	.LASF452
 17218 2dad 01       		.byte	0x1
 17219 2dae 2807     		.2byte	0x728
 17220 2db0 3E030000 		.4byte	0x33e
 17221 2db4 02       		.uleb128 0x2
 17222 2db5 91       		.byte	0x91
 17223 2db6 6C       		.sleb128 -20
 17224 2db7 23       		.uleb128 0x23
 17225 2db8 E3280000 		.4byte	.LASF457
 17226 2dbc 01       		.byte	0x1
 17227 2dbd 2807     		.2byte	0x728
 17228 2dbf ED100000 		.4byte	0x10ed
 17229 2dc3 02       		.uleb128 0x2
 17230 2dc4 91       		.byte	0x91
 17231 2dc5 6B       		.sleb128 -21
 17232 2dc6 24       		.uleb128 0x24
 17233 2dc7 09130000 		.4byte	.LASF447
 17234 2dcb 01       		.byte	0x1
 17235 2dcc 2A07     		.2byte	0x72a
 17236 2dce 2A0A0000 		.4byte	0xa2a
 17237 2dd2 02       		.uleb128 0x2
 17238 2dd3 91       		.byte	0x91
 17239 2dd4 77       		.sleb128 -9
 17240 2dd5 00       		.byte	0
 17241 2dd6 22       		.uleb128 0x22
 17242 2dd7 FE020000 		.4byte	.LASF543
 17243 2ddb 01       		.byte	0x1
 17244 2ddc 3F07     		.2byte	0x73f
 17245 2dde AA0A0000 		.4byte	0xaaa
 17246 2de2 301E0000 		.4byte	.LFB354
 17247 2de6 36000000 		.4byte	.LFE354-.LFB354
 17248 2dea 01       		.uleb128 0x1
 17249 2deb 9C       		.byte	0x9c
 17250 2dec 0F2E0000 		.4byte	0x2e0f
 17251 2df0 23       		.uleb128 0x23
 17252 2df1 CC000000 		.4byte	.LASF452
 17253 2df5 01       		.byte	0x1
 17254 2df6 3F07     		.2byte	0x73f
 17255 2df8 3E030000 		.4byte	0x33e
 17256 2dfc 02       		.uleb128 0x2
ARM GAS  /tmp/ccRrg1qB.s 			page 307


 17257 2dfd 91       		.byte	0x91
 17258 2dfe 74       		.sleb128 -12
 17259 2dff 23       		.uleb128 0x23
 17260 2e00 09130000 		.4byte	.LASF447
 17261 2e04 01       		.byte	0x1
 17262 2e05 3F07     		.2byte	0x73f
 17263 2e07 0F2E0000 		.4byte	0x2e0f
 17264 2e0b 02       		.uleb128 0x2
 17265 2e0c 91       		.byte	0x91
 17266 2e0d 70       		.sleb128 -16
 17267 2e0e 00       		.byte	0
 17268 2e0f 09       		.uleb128 0x9
 17269 2e10 04       		.byte	0x4
 17270 2e11 ED100000 		.4byte	0x10ed
 17271 2e15 22       		.uleb128 0x22
 17272 2e16 2C1C0000 		.4byte	.LASF544
 17273 2e1a 01       		.byte	0x1
 17274 2e1b 5007     		.2byte	0x750
 17275 2e1d AA0A0000 		.4byte	0xaaa
 17276 2e21 701E0000 		.4byte	.LFB355
 17277 2e25 68000000 		.4byte	.LFE355-.LFB355
 17278 2e29 01       		.uleb128 0x1
 17279 2e2a 9C       		.byte	0x9c
 17280 2e2b 5D2E0000 		.4byte	0x2e5d
 17281 2e2f 23       		.uleb128 0x23
 17282 2e30 CC000000 		.4byte	.LASF452
 17283 2e34 01       		.byte	0x1
 17284 2e35 5007     		.2byte	0x750
 17285 2e37 3E030000 		.4byte	0x33e
 17286 2e3b 02       		.uleb128 0x2
 17287 2e3c 91       		.byte	0x91
 17288 2e3d 6C       		.sleb128 -20
 17289 2e3e 23       		.uleb128 0x23
 17290 2e3f E3280000 		.4byte	.LASF457
 17291 2e43 01       		.byte	0x1
 17292 2e44 5007     		.2byte	0x750
 17293 2e46 10110000 		.4byte	0x1110
 17294 2e4a 02       		.uleb128 0x2
 17295 2e4b 91       		.byte	0x91
 17296 2e4c 6B       		.sleb128 -21
 17297 2e4d 24       		.uleb128 0x24
 17298 2e4e 09130000 		.4byte	.LASF447
 17299 2e52 01       		.byte	0x1
 17300 2e53 5207     		.2byte	0x752
 17301 2e55 2A0A0000 		.4byte	0xa2a
 17302 2e59 02       		.uleb128 0x2
 17303 2e5a 91       		.byte	0x91
 17304 2e5b 77       		.sleb128 -9
 17305 2e5c 00       		.byte	0
 17306 2e5d 22       		.uleb128 0x22
 17307 2e5e E3020000 		.4byte	.LASF545
 17308 2e62 01       		.byte	0x1
 17309 2e63 6707     		.2byte	0x767
 17310 2e65 AA0A0000 		.4byte	0xaaa
 17311 2e69 E01E0000 		.4byte	.LFB356
 17312 2e6d 36000000 		.4byte	.LFE356-.LFB356
 17313 2e71 01       		.uleb128 0x1
ARM GAS  /tmp/ccRrg1qB.s 			page 308


 17314 2e72 9C       		.byte	0x9c
 17315 2e73 962E0000 		.4byte	0x2e96
 17316 2e77 23       		.uleb128 0x23
 17317 2e78 CC000000 		.4byte	.LASF452
 17318 2e7c 01       		.byte	0x1
 17319 2e7d 6707     		.2byte	0x767
 17320 2e7f 3E030000 		.4byte	0x33e
 17321 2e83 02       		.uleb128 0x2
 17322 2e84 91       		.byte	0x91
 17323 2e85 74       		.sleb128 -12
 17324 2e86 23       		.uleb128 0x23
 17325 2e87 09130000 		.4byte	.LASF447
 17326 2e8b 01       		.byte	0x1
 17327 2e8c 6707     		.2byte	0x767
 17328 2e8e 962E0000 		.4byte	0x2e96
 17329 2e92 02       		.uleb128 0x2
 17330 2e93 91       		.byte	0x91
 17331 2e94 70       		.sleb128 -16
 17332 2e95 00       		.byte	0
 17333 2e96 09       		.uleb128 0x9
 17334 2e97 04       		.byte	0x4
 17335 2e98 10110000 		.4byte	0x1110
 17336 2e9c 22       		.uleb128 0x22
 17337 2e9d 27040000 		.4byte	.LASF546
 17338 2ea1 01       		.byte	0x1
 17339 2ea2 7807     		.2byte	0x778
 17340 2ea4 AA0A0000 		.4byte	0xaaa
 17341 2ea8 201F0000 		.4byte	.LFB357
 17342 2eac 68000000 		.4byte	.LFE357-.LFB357
 17343 2eb0 01       		.uleb128 0x1
 17344 2eb1 9C       		.byte	0x9c
 17345 2eb2 E42E0000 		.4byte	0x2ee4
 17346 2eb6 23       		.uleb128 0x23
 17347 2eb7 CC000000 		.4byte	.LASF452
 17348 2ebb 01       		.byte	0x1
 17349 2ebc 7807     		.2byte	0x778
 17350 2ebe 3E030000 		.4byte	0x33e
 17351 2ec2 02       		.uleb128 0x2
 17352 2ec3 91       		.byte	0x91
 17353 2ec4 6C       		.sleb128 -20
 17354 2ec5 23       		.uleb128 0x23
 17355 2ec6 E3280000 		.4byte	.LASF457
 17356 2eca 01       		.byte	0x1
 17357 2ecb 7807     		.2byte	0x778
 17358 2ecd 33110000 		.4byte	0x1133
 17359 2ed1 02       		.uleb128 0x2
 17360 2ed2 91       		.byte	0x91
 17361 2ed3 6B       		.sleb128 -21
 17362 2ed4 24       		.uleb128 0x24
 17363 2ed5 09130000 		.4byte	.LASF447
 17364 2ed9 01       		.byte	0x1
 17365 2eda 7A07     		.2byte	0x77a
 17366 2edc 2A0A0000 		.4byte	0xa2a
 17367 2ee0 02       		.uleb128 0x2
 17368 2ee1 91       		.byte	0x91
 17369 2ee2 77       		.sleb128 -9
 17370 2ee3 00       		.byte	0
ARM GAS  /tmp/ccRrg1qB.s 			page 309


 17371 2ee4 22       		.uleb128 0x22
 17372 2ee5 81010000 		.4byte	.LASF547
 17373 2ee9 01       		.byte	0x1
 17374 2eea 8F07     		.2byte	0x78f
 17375 2eec AA0A0000 		.4byte	0xaaa
 17376 2ef0 901F0000 		.4byte	.LFB358
 17377 2ef4 36000000 		.4byte	.LFE358-.LFB358
 17378 2ef8 01       		.uleb128 0x1
 17379 2ef9 9C       		.byte	0x9c
 17380 2efa 1D2F0000 		.4byte	0x2f1d
 17381 2efe 23       		.uleb128 0x23
 17382 2eff CC000000 		.4byte	.LASF452
 17383 2f03 01       		.byte	0x1
 17384 2f04 8F07     		.2byte	0x78f
 17385 2f06 3E030000 		.4byte	0x33e
 17386 2f0a 02       		.uleb128 0x2
 17387 2f0b 91       		.byte	0x91
 17388 2f0c 74       		.sleb128 -12
 17389 2f0d 23       		.uleb128 0x23
 17390 2f0e 09130000 		.4byte	.LASF447
 17391 2f12 01       		.byte	0x1
 17392 2f13 8F07     		.2byte	0x78f
 17393 2f15 1D2F0000 		.4byte	0x2f1d
 17394 2f19 02       		.uleb128 0x2
 17395 2f1a 91       		.byte	0x91
 17396 2f1b 70       		.sleb128 -16
 17397 2f1c 00       		.byte	0
 17398 2f1d 09       		.uleb128 0x9
 17399 2f1e 04       		.byte	0x4
 17400 2f1f 33110000 		.4byte	0x1133
 17401 2f23 22       		.uleb128 0x22
 17402 2f24 12060000 		.4byte	.LASF548
 17403 2f28 01       		.byte	0x1
 17404 2f29 A007     		.2byte	0x7a0
 17405 2f2b AA0A0000 		.4byte	0xaaa
 17406 2f2f D01F0000 		.4byte	.LFB359
 17407 2f33 60000000 		.4byte	.LFE359-.LFB359
 17408 2f37 01       		.uleb128 0x1
 17409 2f38 9C       		.byte	0x9c
 17410 2f39 6B2F0000 		.4byte	0x2f6b
 17411 2f3d 23       		.uleb128 0x23
 17412 2f3e CC000000 		.4byte	.LASF452
 17413 2f42 01       		.byte	0x1
 17414 2f43 A007     		.2byte	0x7a0
 17415 2f45 3E030000 		.4byte	0x33e
 17416 2f49 02       		.uleb128 0x2
 17417 2f4a 91       		.byte	0x91
 17418 2f4b 6C       		.sleb128 -20
 17419 2f4c 23       		.uleb128 0x23
 17420 2f4d E3280000 		.4byte	.LASF457
 17421 2f51 01       		.byte	0x1
 17422 2f52 A007     		.2byte	0x7a0
 17423 2f54 2A0A0000 		.4byte	0xa2a
 17424 2f58 02       		.uleb128 0x2
 17425 2f59 91       		.byte	0x91
 17426 2f5a 6B       		.sleb128 -21
 17427 2f5b 24       		.uleb128 0x24
ARM GAS  /tmp/ccRrg1qB.s 			page 310


 17428 2f5c 09130000 		.4byte	.LASF447
 17429 2f60 01       		.byte	0x1
 17430 2f61 A207     		.2byte	0x7a2
 17431 2f63 2A0A0000 		.4byte	0xa2a
 17432 2f67 02       		.uleb128 0x2
 17433 2f68 91       		.byte	0x91
 17434 2f69 77       		.sleb128 -9
 17435 2f6a 00       		.byte	0
 17436 2f6b 22       		.uleb128 0x22
 17437 2f6c A9030000 		.4byte	.LASF549
 17438 2f70 01       		.byte	0x1
 17439 2f71 BA07     		.2byte	0x7ba
 17440 2f73 AA0A0000 		.4byte	0xaaa
 17441 2f77 30200000 		.4byte	.LFB360
 17442 2f7b 38000000 		.4byte	.LFE360-.LFB360
 17443 2f7f 01       		.uleb128 0x1
 17444 2f80 9C       		.byte	0x9c
 17445 2f81 A42F0000 		.4byte	0x2fa4
 17446 2f85 23       		.uleb128 0x23
 17447 2f86 CC000000 		.4byte	.LASF452
 17448 2f8a 01       		.byte	0x1
 17449 2f8b BA07     		.2byte	0x7ba
 17450 2f8d 3E030000 		.4byte	0x33e
 17451 2f91 02       		.uleb128 0x2
 17452 2f92 91       		.byte	0x91
 17453 2f93 74       		.sleb128 -12
 17454 2f94 23       		.uleb128 0x23
 17455 2f95 09130000 		.4byte	.LASF447
 17456 2f99 01       		.byte	0x1
 17457 2f9a BA07     		.2byte	0x7ba
 17458 2f9c 8D170000 		.4byte	0x178d
 17459 2fa0 02       		.uleb128 0x2
 17460 2fa1 91       		.byte	0x91
 17461 2fa2 70       		.sleb128 -16
 17462 2fa3 00       		.byte	0
 17463 2fa4 22       		.uleb128 0x22
 17464 2fa5 3E180000 		.4byte	.LASF550
 17465 2fa9 01       		.byte	0x1
 17466 2faa CC07     		.2byte	0x7cc
 17467 2fac AA0A0000 		.4byte	0xaaa
 17468 2fb0 70200000 		.4byte	.LFB361
 17469 2fb4 36000000 		.4byte	.LFE361-.LFB361
 17470 2fb8 01       		.uleb128 0x1
 17471 2fb9 9C       		.byte	0x9c
 17472 2fba DD2F0000 		.4byte	0x2fdd
 17473 2fbe 23       		.uleb128 0x23
 17474 2fbf CC000000 		.4byte	.LASF452
 17475 2fc3 01       		.byte	0x1
 17476 2fc4 CC07     		.2byte	0x7cc
 17477 2fc6 3E030000 		.4byte	0x33e
 17478 2fca 02       		.uleb128 0x2
 17479 2fcb 91       		.byte	0x91
 17480 2fcc 74       		.sleb128 -12
 17481 2fcd 23       		.uleb128 0x23
 17482 2fce 09130000 		.4byte	.LASF447
 17483 2fd2 01       		.byte	0x1
 17484 2fd3 CC07     		.2byte	0x7cc
ARM GAS  /tmp/ccRrg1qB.s 			page 311


 17485 2fd5 DD2F0000 		.4byte	0x2fdd
 17486 2fd9 02       		.uleb128 0x2
 17487 2fda 91       		.byte	0x91
 17488 2fdb 70       		.sleb128 -16
 17489 2fdc 00       		.byte	0
 17490 2fdd 09       		.uleb128 0x9
 17491 2fde 04       		.byte	0x4
 17492 2fdf 55110000 		.4byte	0x1155
 17493 2fe3 22       		.uleb128 0x22
 17494 2fe4 2E230000 		.4byte	.LASF551
 17495 2fe8 01       		.byte	0x1
 17496 2fe9 DD07     		.2byte	0x7dd
 17497 2feb AA0A0000 		.4byte	0xaaa
 17498 2fef B0200000 		.4byte	.LFB362
 17499 2ff3 36000000 		.4byte	.LFE362-.LFB362
 17500 2ff7 01       		.uleb128 0x1
 17501 2ff8 9C       		.byte	0x9c
 17502 2ff9 1C300000 		.4byte	0x301c
 17503 2ffd 23       		.uleb128 0x23
 17504 2ffe CC000000 		.4byte	.LASF452
 17505 3002 01       		.byte	0x1
 17506 3003 DD07     		.2byte	0x7dd
 17507 3005 3E030000 		.4byte	0x33e
 17508 3009 02       		.uleb128 0x2
 17509 300a 91       		.byte	0x91
 17510 300b 74       		.sleb128 -12
 17511 300c 23       		.uleb128 0x23
 17512 300d 09130000 		.4byte	.LASF447
 17513 3011 01       		.byte	0x1
 17514 3012 DD07     		.2byte	0x7dd
 17515 3014 1C300000 		.4byte	0x301c
 17516 3018 02       		.uleb128 0x2
 17517 3019 91       		.byte	0x91
 17518 301a 70       		.sleb128 -16
 17519 301b 00       		.byte	0
 17520 301c 09       		.uleb128 0x9
 17521 301d 04       		.byte	0x4
 17522 301e 77110000 		.4byte	0x1177
 17523 3022 22       		.uleb128 0x22
 17524 3023 DC2C0000 		.4byte	.LASF552
 17525 3027 01       		.byte	0x1
 17526 3028 EE07     		.2byte	0x7ee
 17527 302a AA0A0000 		.4byte	0xaaa
 17528 302e F0200000 		.4byte	.LFB363
 17529 3032 36000000 		.4byte	.LFE363-.LFB363
 17530 3036 01       		.uleb128 0x1
 17531 3037 9C       		.byte	0x9c
 17532 3038 5B300000 		.4byte	0x305b
 17533 303c 23       		.uleb128 0x23
 17534 303d CC000000 		.4byte	.LASF452
 17535 3041 01       		.byte	0x1
 17536 3042 EE07     		.2byte	0x7ee
 17537 3044 3E030000 		.4byte	0x33e
 17538 3048 02       		.uleb128 0x2
 17539 3049 91       		.byte	0x91
 17540 304a 74       		.sleb128 -12
 17541 304b 23       		.uleb128 0x23
ARM GAS  /tmp/ccRrg1qB.s 			page 312


 17542 304c 09130000 		.4byte	.LASF447
 17543 3050 01       		.byte	0x1
 17544 3051 EE07     		.2byte	0x7ee
 17545 3053 5B300000 		.4byte	0x305b
 17546 3057 02       		.uleb128 0x2
 17547 3058 91       		.byte	0x91
 17548 3059 70       		.sleb128 -16
 17549 305a 00       		.byte	0
 17550 305b 09       		.uleb128 0x9
 17551 305c 04       		.byte	0x4
 17552 305d 99110000 		.4byte	0x1199
 17553 3061 22       		.uleb128 0x22
 17554 3062 AA370000 		.4byte	.LASF553
 17555 3066 01       		.byte	0x1
 17556 3067 FF07     		.2byte	0x7ff
 17557 3069 AA0A0000 		.4byte	0xaaa
 17558 306d 30210000 		.4byte	.LFB364
 17559 3071 36000000 		.4byte	.LFE364-.LFB364
 17560 3075 01       		.uleb128 0x1
 17561 3076 9C       		.byte	0x9c
 17562 3077 9A300000 		.4byte	0x309a
 17563 307b 23       		.uleb128 0x23
 17564 307c CC000000 		.4byte	.LASF452
 17565 3080 01       		.byte	0x1
 17566 3081 FF07     		.2byte	0x7ff
 17567 3083 3E030000 		.4byte	0x33e
 17568 3087 02       		.uleb128 0x2
 17569 3088 91       		.byte	0x91
 17570 3089 74       		.sleb128 -12
 17571 308a 23       		.uleb128 0x23
 17572 308b 09130000 		.4byte	.LASF447
 17573 308f 01       		.byte	0x1
 17574 3090 FF07     		.2byte	0x7ff
 17575 3092 9A300000 		.4byte	0x309a
 17576 3096 02       		.uleb128 0x2
 17577 3097 91       		.byte	0x91
 17578 3098 70       		.sleb128 -16
 17579 3099 00       		.byte	0
 17580 309a 09       		.uleb128 0x9
 17581 309b 04       		.byte	0x4
 17582 309c BB110000 		.4byte	0x11bb
 17583 30a0 22       		.uleb128 0x22
 17584 30a1 222D0000 		.4byte	.LASF554
 17585 30a5 01       		.byte	0x1
 17586 30a6 1008     		.2byte	0x810
 17587 30a8 AA0A0000 		.4byte	0xaaa
 17588 30ac 70210000 		.4byte	.LFB365
 17589 30b0 36000000 		.4byte	.LFE365-.LFB365
 17590 30b4 01       		.uleb128 0x1
 17591 30b5 9C       		.byte	0x9c
 17592 30b6 D9300000 		.4byte	0x30d9
 17593 30ba 23       		.uleb128 0x23
 17594 30bb CC000000 		.4byte	.LASF452
 17595 30bf 01       		.byte	0x1
 17596 30c0 1008     		.2byte	0x810
 17597 30c2 3E030000 		.4byte	0x33e
 17598 30c6 02       		.uleb128 0x2
ARM GAS  /tmp/ccRrg1qB.s 			page 313


 17599 30c7 91       		.byte	0x91
 17600 30c8 74       		.sleb128 -12
 17601 30c9 23       		.uleb128 0x23
 17602 30ca 09130000 		.4byte	.LASF447
 17603 30ce 01       		.byte	0x1
 17604 30cf 1008     		.2byte	0x810
 17605 30d1 D9300000 		.4byte	0x30d9
 17606 30d5 02       		.uleb128 0x2
 17607 30d6 91       		.byte	0x91
 17608 30d7 70       		.sleb128 -16
 17609 30d8 00       		.byte	0
 17610 30d9 09       		.uleb128 0x9
 17611 30da 04       		.byte	0x4
 17612 30db DD110000 		.4byte	0x11dd
 17613 30df 22       		.uleb128 0x22
 17614 30e0 E8200000 		.4byte	.LASF555
 17615 30e4 01       		.byte	0x1
 17616 30e5 2108     		.2byte	0x821
 17617 30e7 AA0A0000 		.4byte	0xaaa
 17618 30eb B0210000 		.4byte	.LFB366
 17619 30ef 36000000 		.4byte	.LFE366-.LFB366
 17620 30f3 01       		.uleb128 0x1
 17621 30f4 9C       		.byte	0x9c
 17622 30f5 18310000 		.4byte	0x3118
 17623 30f9 23       		.uleb128 0x23
 17624 30fa CC000000 		.4byte	.LASF452
 17625 30fe 01       		.byte	0x1
 17626 30ff 2108     		.2byte	0x821
 17627 3101 3E030000 		.4byte	0x33e
 17628 3105 02       		.uleb128 0x2
 17629 3106 91       		.byte	0x91
 17630 3107 74       		.sleb128 -12
 17631 3108 23       		.uleb128 0x23
 17632 3109 09130000 		.4byte	.LASF447
 17633 310d 01       		.byte	0x1
 17634 310e 2108     		.2byte	0x821
 17635 3110 18310000 		.4byte	0x3118
 17636 3114 02       		.uleb128 0x2
 17637 3115 91       		.byte	0x91
 17638 3116 70       		.sleb128 -16
 17639 3117 00       		.byte	0
 17640 3118 09       		.uleb128 0x9
 17641 3119 04       		.byte	0x4
 17642 311a FF110000 		.4byte	0x11ff
 17643 311e 22       		.uleb128 0x22
 17644 311f 24140000 		.4byte	.LASF556
 17645 3123 01       		.byte	0x1
 17646 3124 3208     		.2byte	0x832
 17647 3126 AA0A0000 		.4byte	0xaaa
 17648 312a F0210000 		.4byte	.LFB367
 17649 312e 36000000 		.4byte	.LFE367-.LFB367
 17650 3132 01       		.uleb128 0x1
 17651 3133 9C       		.byte	0x9c
 17652 3134 57310000 		.4byte	0x3157
 17653 3138 23       		.uleb128 0x23
 17654 3139 CC000000 		.4byte	.LASF452
 17655 313d 01       		.byte	0x1
ARM GAS  /tmp/ccRrg1qB.s 			page 314


 17656 313e 3208     		.2byte	0x832
 17657 3140 3E030000 		.4byte	0x33e
 17658 3144 02       		.uleb128 0x2
 17659 3145 91       		.byte	0x91
 17660 3146 74       		.sleb128 -12
 17661 3147 23       		.uleb128 0x23
 17662 3148 09130000 		.4byte	.LASF447
 17663 314c 01       		.byte	0x1
 17664 314d 3208     		.2byte	0x832
 17665 314f 57310000 		.4byte	0x3157
 17666 3153 02       		.uleb128 0x2
 17667 3154 91       		.byte	0x91
 17668 3155 70       		.sleb128 -16
 17669 3156 00       		.byte	0
 17670 3157 09       		.uleb128 0x9
 17671 3158 04       		.byte	0x4
 17672 3159 22120000 		.4byte	0x1222
 17673 315d 22       		.uleb128 0x22
 17674 315e C4280000 		.4byte	.LASF557
 17675 3162 01       		.byte	0x1
 17676 3163 4308     		.2byte	0x843
 17677 3165 AA0A0000 		.4byte	0xaaa
 17678 3169 30220000 		.4byte	.LFB368
 17679 316d 36000000 		.4byte	.LFE368-.LFB368
 17680 3171 01       		.uleb128 0x1
 17681 3172 9C       		.byte	0x9c
 17682 3173 96310000 		.4byte	0x3196
 17683 3177 23       		.uleb128 0x23
 17684 3178 CC000000 		.4byte	.LASF452
 17685 317c 01       		.byte	0x1
 17686 317d 4308     		.2byte	0x843
 17687 317f 3E030000 		.4byte	0x33e
 17688 3183 02       		.uleb128 0x2
 17689 3184 91       		.byte	0x91
 17690 3185 74       		.sleb128 -12
 17691 3186 23       		.uleb128 0x23
 17692 3187 09130000 		.4byte	.LASF447
 17693 318b 01       		.byte	0x1
 17694 318c 4308     		.2byte	0x843
 17695 318e 96310000 		.4byte	0x3196
 17696 3192 02       		.uleb128 0x2
 17697 3193 91       		.byte	0x91
 17698 3194 70       		.sleb128 -16
 17699 3195 00       		.byte	0
 17700 3196 09       		.uleb128 0x9
 17701 3197 04       		.byte	0x4
 17702 3198 45120000 		.4byte	0x1245
 17703 319c 22       		.uleb128 0x22
 17704 319d D2140000 		.4byte	.LASF558
 17705 31a1 01       		.byte	0x1
 17706 31a2 5408     		.2byte	0x854
 17707 31a4 AA0A0000 		.4byte	0xaaa
 17708 31a8 70220000 		.4byte	.LFB369
 17709 31ac 74000000 		.4byte	.LFE369-.LFB369
 17710 31b0 01       		.uleb128 0x1
 17711 31b1 9C       		.byte	0x9c
 17712 31b2 E4310000 		.4byte	0x31e4
ARM GAS  /tmp/ccRrg1qB.s 			page 315


 17713 31b6 23       		.uleb128 0x23
 17714 31b7 CC000000 		.4byte	.LASF452
 17715 31bb 01       		.byte	0x1
 17716 31bc 5408     		.2byte	0x854
 17717 31be 3E030000 		.4byte	0x33e
 17718 31c2 02       		.uleb128 0x2
 17719 31c3 91       		.byte	0x91
 17720 31c4 6C       		.sleb128 -20
 17721 31c5 23       		.uleb128 0x23
 17722 31c6 E3280000 		.4byte	.LASF457
 17723 31ca 01       		.byte	0x1
 17724 31cb 5408     		.2byte	0x854
 17725 31cd 2A0A0000 		.4byte	0xa2a
 17726 31d1 02       		.uleb128 0x2
 17727 31d2 91       		.byte	0x91
 17728 31d3 6B       		.sleb128 -21
 17729 31d4 24       		.uleb128 0x24
 17730 31d5 09130000 		.4byte	.LASF447
 17731 31d9 01       		.byte	0x1
 17732 31da 5608     		.2byte	0x856
 17733 31dc 2A0A0000 		.4byte	0xa2a
 17734 31e0 02       		.uleb128 0x2
 17735 31e1 91       		.byte	0x91
 17736 31e2 77       		.sleb128 -9
 17737 31e3 00       		.byte	0
 17738 31e4 22       		.uleb128 0x22
 17739 31e5 6B0A0000 		.4byte	.LASF559
 17740 31e9 01       		.byte	0x1
 17741 31ea 6E08     		.2byte	0x86e
 17742 31ec AA0A0000 		.4byte	0xaaa
 17743 31f0 F0220000 		.4byte	.LFB370
 17744 31f4 3E000000 		.4byte	.LFE370-.LFB370
 17745 31f8 01       		.uleb128 0x1
 17746 31f9 9C       		.byte	0x9c
 17747 31fa 1D320000 		.4byte	0x321d
 17748 31fe 23       		.uleb128 0x23
 17749 31ff CC000000 		.4byte	.LASF452
 17750 3203 01       		.byte	0x1
 17751 3204 6E08     		.2byte	0x86e
 17752 3206 3E030000 		.4byte	0x33e
 17753 320a 02       		.uleb128 0x2
 17754 320b 91       		.byte	0x91
 17755 320c 74       		.sleb128 -12
 17756 320d 23       		.uleb128 0x23
 17757 320e 09130000 		.4byte	.LASF447
 17758 3212 01       		.byte	0x1
 17759 3213 6E08     		.2byte	0x86e
 17760 3215 8D170000 		.4byte	0x178d
 17761 3219 02       		.uleb128 0x2
 17762 321a 91       		.byte	0x91
 17763 321b 70       		.sleb128 -16
 17764 321c 00       		.byte	0
 17765 321d 22       		.uleb128 0x22
 17766 321e 102F0000 		.4byte	.LASF560
 17767 3222 01       		.byte	0x1
 17768 3223 8008     		.2byte	0x880
 17769 3225 AA0A0000 		.4byte	0xaaa
ARM GAS  /tmp/ccRrg1qB.s 			page 316


 17770 3229 30230000 		.4byte	.LFB371
 17771 322d 68000000 		.4byte	.LFE371-.LFB371
 17772 3231 01       		.uleb128 0x1
 17773 3232 9C       		.byte	0x9c
 17774 3233 65320000 		.4byte	0x3265
 17775 3237 23       		.uleb128 0x23
 17776 3238 CC000000 		.4byte	.LASF452
 17777 323c 01       		.byte	0x1
 17778 323d 8008     		.2byte	0x880
 17779 323f 3E030000 		.4byte	0x33e
 17780 3243 02       		.uleb128 0x2
 17781 3244 91       		.byte	0x91
 17782 3245 6C       		.sleb128 -20
 17783 3246 23       		.uleb128 0x23
 17784 3247 E3280000 		.4byte	.LASF457
 17785 324b 01       		.byte	0x1
 17786 324c 8008     		.2byte	0x880
 17787 324e 67120000 		.4byte	0x1267
 17788 3252 02       		.uleb128 0x2
 17789 3253 91       		.byte	0x91
 17790 3254 6B       		.sleb128 -21
 17791 3255 24       		.uleb128 0x24
 17792 3256 09130000 		.4byte	.LASF447
 17793 325a 01       		.byte	0x1
 17794 325b 8208     		.2byte	0x882
 17795 325d 2A0A0000 		.4byte	0xa2a
 17796 3261 02       		.uleb128 0x2
 17797 3262 91       		.byte	0x91
 17798 3263 77       		.sleb128 -9
 17799 3264 00       		.byte	0
 17800 3265 22       		.uleb128 0x22
 17801 3266 AF160000 		.4byte	.LASF561
 17802 326a 01       		.byte	0x1
 17803 326b 9708     		.2byte	0x897
 17804 326d AA0A0000 		.4byte	0xaaa
 17805 3271 A0230000 		.4byte	.LFB372
 17806 3275 36000000 		.4byte	.LFE372-.LFB372
 17807 3279 01       		.uleb128 0x1
 17808 327a 9C       		.byte	0x9c
 17809 327b 9E320000 		.4byte	0x329e
 17810 327f 23       		.uleb128 0x23
 17811 3280 CC000000 		.4byte	.LASF452
 17812 3284 01       		.byte	0x1
 17813 3285 9708     		.2byte	0x897
 17814 3287 3E030000 		.4byte	0x33e
 17815 328b 02       		.uleb128 0x2
 17816 328c 91       		.byte	0x91
 17817 328d 74       		.sleb128 -12
 17818 328e 23       		.uleb128 0x23
 17819 328f 09130000 		.4byte	.LASF447
 17820 3293 01       		.byte	0x1
 17821 3294 9708     		.2byte	0x897
 17822 3296 9E320000 		.4byte	0x329e
 17823 329a 02       		.uleb128 0x2
 17824 329b 91       		.byte	0x91
 17825 329c 70       		.sleb128 -16
 17826 329d 00       		.byte	0
ARM GAS  /tmp/ccRrg1qB.s 			page 317


 17827 329e 09       		.uleb128 0x9
 17828 329f 04       		.byte	0x4
 17829 32a0 67120000 		.4byte	0x1267
 17830 32a4 22       		.uleb128 0x22
 17831 32a5 E71E0000 		.4byte	.LASF562
 17832 32a9 01       		.byte	0x1
 17833 32aa A808     		.2byte	0x8a8
 17834 32ac AA0A0000 		.4byte	0xaaa
 17835 32b0 E0230000 		.4byte	.LFB373
 17836 32b4 68000000 		.4byte	.LFE373-.LFB373
 17837 32b8 01       		.uleb128 0x1
 17838 32b9 9C       		.byte	0x9c
 17839 32ba EC320000 		.4byte	0x32ec
 17840 32be 23       		.uleb128 0x23
 17841 32bf CC000000 		.4byte	.LASF452
 17842 32c3 01       		.byte	0x1
 17843 32c4 A808     		.2byte	0x8a8
 17844 32c6 3E030000 		.4byte	0x33e
 17845 32ca 02       		.uleb128 0x2
 17846 32cb 91       		.byte	0x91
 17847 32cc 6C       		.sleb128 -20
 17848 32cd 23       		.uleb128 0x23
 17849 32ce E3280000 		.4byte	.LASF457
 17850 32d2 01       		.byte	0x1
 17851 32d3 A808     		.2byte	0x8a8
 17852 32d5 98120000 		.4byte	0x1298
 17853 32d9 02       		.uleb128 0x2
 17854 32da 91       		.byte	0x91
 17855 32db 6B       		.sleb128 -21
 17856 32dc 24       		.uleb128 0x24
 17857 32dd 09130000 		.4byte	.LASF447
 17858 32e1 01       		.byte	0x1
 17859 32e2 AA08     		.2byte	0x8aa
 17860 32e4 2A0A0000 		.4byte	0xa2a
 17861 32e8 02       		.uleb128 0x2
 17862 32e9 91       		.byte	0x91
 17863 32ea 77       		.sleb128 -9
 17864 32eb 00       		.byte	0
 17865 32ec 22       		.uleb128 0x22
 17866 32ed 9D180000 		.4byte	.LASF563
 17867 32f1 01       		.byte	0x1
 17868 32f2 BF08     		.2byte	0x8bf
 17869 32f4 AA0A0000 		.4byte	0xaaa
 17870 32f8 50240000 		.4byte	.LFB374
 17871 32fc 36000000 		.4byte	.LFE374-.LFB374
 17872 3300 01       		.uleb128 0x1
 17873 3301 9C       		.byte	0x9c
 17874 3302 25330000 		.4byte	0x3325
 17875 3306 23       		.uleb128 0x23
 17876 3307 CC000000 		.4byte	.LASF452
 17877 330b 01       		.byte	0x1
 17878 330c BF08     		.2byte	0x8bf
 17879 330e 3E030000 		.4byte	0x33e
 17880 3312 02       		.uleb128 0x2
 17881 3313 91       		.byte	0x91
 17882 3314 74       		.sleb128 -12
 17883 3315 23       		.uleb128 0x23
ARM GAS  /tmp/ccRrg1qB.s 			page 318


 17884 3316 09130000 		.4byte	.LASF447
 17885 331a 01       		.byte	0x1
 17886 331b BF08     		.2byte	0x8bf
 17887 331d 25330000 		.4byte	0x3325
 17888 3321 02       		.uleb128 0x2
 17889 3322 91       		.byte	0x91
 17890 3323 70       		.sleb128 -16
 17891 3324 00       		.byte	0
 17892 3325 09       		.uleb128 0x9
 17893 3326 04       		.byte	0x4
 17894 3327 98120000 		.4byte	0x1298
 17895 332b 22       		.uleb128 0x22
 17896 332c 27070000 		.4byte	.LASF564
 17897 3330 01       		.byte	0x1
 17898 3331 D008     		.2byte	0x8d0
 17899 3333 AA0A0000 		.4byte	0xaaa
 17900 3337 90240000 		.4byte	.LFB375
 17901 333b 3E000000 		.4byte	.LFE375-.LFB375
 17902 333f 01       		.uleb128 0x1
 17903 3340 9C       		.byte	0x9c
 17904 3341 64330000 		.4byte	0x3364
 17905 3345 23       		.uleb128 0x23
 17906 3346 CC000000 		.4byte	.LASF452
 17907 334a 01       		.byte	0x1
 17908 334b D008     		.2byte	0x8d0
 17909 334d 3E030000 		.4byte	0x33e
 17910 3351 02       		.uleb128 0x2
 17911 3352 91       		.byte	0x91
 17912 3353 74       		.sleb128 -12
 17913 3354 23       		.uleb128 0x23
 17914 3355 09130000 		.4byte	.LASF447
 17915 3359 01       		.byte	0x1
 17916 335a D008     		.2byte	0x8d0
 17917 335c 8D170000 		.4byte	0x178d
 17918 3360 02       		.uleb128 0x2
 17919 3361 91       		.byte	0x91
 17920 3362 70       		.sleb128 -16
 17921 3363 00       		.byte	0
 17922 3364 22       		.uleb128 0x22
 17923 3365 C42F0000 		.4byte	.LASF565
 17924 3369 01       		.byte	0x1
 17925 336a E208     		.2byte	0x8e2
 17926 336c AA0A0000 		.4byte	0xaaa
 17927 3370 D0240000 		.4byte	.LFB376
 17928 3374 36000000 		.4byte	.LFE376-.LFB376
 17929 3378 01       		.uleb128 0x1
 17930 3379 9C       		.byte	0x9c
 17931 337a 9D330000 		.4byte	0x339d
 17932 337e 23       		.uleb128 0x23
 17933 337f CC000000 		.4byte	.LASF452
 17934 3383 01       		.byte	0x1
 17935 3384 E208     		.2byte	0x8e2
 17936 3386 3E030000 		.4byte	0x33e
 17937 338a 02       		.uleb128 0x2
 17938 338b 91       		.byte	0x91
 17939 338c 74       		.sleb128 -12
 17940 338d 23       		.uleb128 0x23
ARM GAS  /tmp/ccRrg1qB.s 			page 319


 17941 338e 09130000 		.4byte	.LASF447
 17942 3392 01       		.byte	0x1
 17943 3393 E208     		.2byte	0x8e2
 17944 3395 9D330000 		.4byte	0x339d
 17945 3399 02       		.uleb128 0x2
 17946 339a 91       		.byte	0x91
 17947 339b 70       		.sleb128 -16
 17948 339c 00       		.byte	0
 17949 339d 09       		.uleb128 0x9
 17950 339e 04       		.byte	0x4
 17951 339f BA120000 		.4byte	0x12ba
 17952 33a3 22       		.uleb128 0x22
 17953 33a4 B3210000 		.4byte	.LASF566
 17954 33a8 01       		.byte	0x1
 17955 33a9 F308     		.2byte	0x8f3
 17956 33ab AA0A0000 		.4byte	0xaaa
 17957 33af 10250000 		.4byte	.LFB377
 17958 33b3 36000000 		.4byte	.LFE377-.LFB377
 17959 33b7 01       		.uleb128 0x1
 17960 33b8 9C       		.byte	0x9c
 17961 33b9 DC330000 		.4byte	0x33dc
 17962 33bd 23       		.uleb128 0x23
 17963 33be CC000000 		.4byte	.LASF452
 17964 33c2 01       		.byte	0x1
 17965 33c3 F308     		.2byte	0x8f3
 17966 33c5 3E030000 		.4byte	0x33e
 17967 33c9 02       		.uleb128 0x2
 17968 33ca 91       		.byte	0x91
 17969 33cb 74       		.sleb128 -12
 17970 33cc 23       		.uleb128 0x23
 17971 33cd 09130000 		.4byte	.LASF447
 17972 33d1 01       		.byte	0x1
 17973 33d2 F308     		.2byte	0x8f3
 17974 33d4 DC330000 		.4byte	0x33dc
 17975 33d8 02       		.uleb128 0x2
 17976 33d9 91       		.byte	0x91
 17977 33da 70       		.sleb128 -16
 17978 33db 00       		.byte	0
 17979 33dc 09       		.uleb128 0x9
 17980 33dd 04       		.byte	0x4
 17981 33de DD120000 		.4byte	0x12dd
 17982 33e2 22       		.uleb128 0x22
 17983 33e3 44120000 		.4byte	.LASF567
 17984 33e7 01       		.byte	0x1
 17985 33e8 0409     		.2byte	0x904
 17986 33ea AA0A0000 		.4byte	0xaaa
 17987 33ee 50250000 		.4byte	.LFB378
 17988 33f2 36000000 		.4byte	.LFE378-.LFB378
 17989 33f6 01       		.uleb128 0x1
 17990 33f7 9C       		.byte	0x9c
 17991 33f8 1B340000 		.4byte	0x341b
 17992 33fc 23       		.uleb128 0x23
 17993 33fd CC000000 		.4byte	.LASF452
 17994 3401 01       		.byte	0x1
 17995 3402 0409     		.2byte	0x904
 17996 3404 3E030000 		.4byte	0x33e
 17997 3408 02       		.uleb128 0x2
ARM GAS  /tmp/ccRrg1qB.s 			page 320


 17998 3409 91       		.byte	0x91
 17999 340a 74       		.sleb128 -12
 18000 340b 23       		.uleb128 0x23
 18001 340c 09130000 		.4byte	.LASF447
 18002 3410 01       		.byte	0x1
 18003 3411 0409     		.2byte	0x904
 18004 3413 1B340000 		.4byte	0x341b
 18005 3417 02       		.uleb128 0x2
 18006 3418 91       		.byte	0x91
 18007 3419 70       		.sleb128 -16
 18008 341a 00       		.byte	0
 18009 341b 09       		.uleb128 0x9
 18010 341c 04       		.byte	0x4
 18011 341d 00130000 		.4byte	0x1300
 18012 3421 22       		.uleb128 0x22
 18013 3422 6F050000 		.4byte	.LASF568
 18014 3426 01       		.byte	0x1
 18015 3427 1509     		.2byte	0x915
 18016 3429 AA0A0000 		.4byte	0xaaa
 18017 342d 90250000 		.4byte	.LFB379
 18018 3431 68000000 		.4byte	.LFE379-.LFB379
 18019 3435 01       		.uleb128 0x1
 18020 3436 9C       		.byte	0x9c
 18021 3437 69340000 		.4byte	0x3469
 18022 343b 23       		.uleb128 0x23
 18023 343c CC000000 		.4byte	.LASF452
 18024 3440 01       		.byte	0x1
 18025 3441 1509     		.2byte	0x915
 18026 3443 3E030000 		.4byte	0x33e
 18027 3447 02       		.uleb128 0x2
 18028 3448 91       		.byte	0x91
 18029 3449 6C       		.sleb128 -20
 18030 344a 23       		.uleb128 0x23
 18031 344b E3280000 		.4byte	.LASF457
 18032 344f 01       		.byte	0x1
 18033 3450 1509     		.2byte	0x915
 18034 3452 22130000 		.4byte	0x1322
 18035 3456 02       		.uleb128 0x2
 18036 3457 91       		.byte	0x91
 18037 3458 6B       		.sleb128 -21
 18038 3459 24       		.uleb128 0x24
 18039 345a 09130000 		.4byte	.LASF447
 18040 345e 01       		.byte	0x1
 18041 345f 1709     		.2byte	0x917
 18042 3461 2A0A0000 		.4byte	0xa2a
 18043 3465 02       		.uleb128 0x2
 18044 3466 91       		.byte	0x91
 18045 3467 77       		.sleb128 -9
 18046 3468 00       		.byte	0
 18047 3469 22       		.uleb128 0x22
 18048 346a 641A0000 		.4byte	.LASF569
 18049 346e 01       		.byte	0x1
 18050 346f 2C09     		.2byte	0x92c
 18051 3471 AA0A0000 		.4byte	0xaaa
 18052 3475 00260000 		.4byte	.LFB380
 18053 3479 36000000 		.4byte	.LFE380-.LFB380
 18054 347d 01       		.uleb128 0x1
ARM GAS  /tmp/ccRrg1qB.s 			page 321


 18055 347e 9C       		.byte	0x9c
 18056 347f A2340000 		.4byte	0x34a2
 18057 3483 23       		.uleb128 0x23
 18058 3484 CC000000 		.4byte	.LASF452
 18059 3488 01       		.byte	0x1
 18060 3489 2C09     		.2byte	0x92c
 18061 348b 3E030000 		.4byte	0x33e
 18062 348f 02       		.uleb128 0x2
 18063 3490 91       		.byte	0x91
 18064 3491 74       		.sleb128 -12
 18065 3492 23       		.uleb128 0x23
 18066 3493 09130000 		.4byte	.LASF447
 18067 3497 01       		.byte	0x1
 18068 3498 2C09     		.2byte	0x92c
 18069 349a A2340000 		.4byte	0x34a2
 18070 349e 02       		.uleb128 0x2
 18071 349f 91       		.byte	0x91
 18072 34a0 70       		.sleb128 -16
 18073 34a1 00       		.byte	0
 18074 34a2 09       		.uleb128 0x9
 18075 34a3 04       		.byte	0x4
 18076 34a4 22130000 		.4byte	0x1322
 18077 34a8 22       		.uleb128 0x22
 18078 34a9 4C020000 		.4byte	.LASF570
 18079 34ad 01       		.byte	0x1
 18080 34ae 3D09     		.2byte	0x93d
 18081 34b0 AA0A0000 		.4byte	0xaaa
 18082 34b4 40260000 		.4byte	.LFB381
 18083 34b8 68000000 		.4byte	.LFE381-.LFB381
 18084 34bc 01       		.uleb128 0x1
 18085 34bd 9C       		.byte	0x9c
 18086 34be F0340000 		.4byte	0x34f0
 18087 34c2 23       		.uleb128 0x23
 18088 34c3 CC000000 		.4byte	.LASF452
 18089 34c7 01       		.byte	0x1
 18090 34c8 3D09     		.2byte	0x93d
 18091 34ca 3E030000 		.4byte	0x33e
 18092 34ce 02       		.uleb128 0x2
 18093 34cf 91       		.byte	0x91
 18094 34d0 6C       		.sleb128 -20
 18095 34d1 23       		.uleb128 0x23
 18096 34d2 E3280000 		.4byte	.LASF457
 18097 34d6 01       		.byte	0x1
 18098 34d7 3D09     		.2byte	0x93d
 18099 34d9 44130000 		.4byte	0x1344
 18100 34dd 02       		.uleb128 0x2
 18101 34de 91       		.byte	0x91
 18102 34df 6B       		.sleb128 -21
 18103 34e0 24       		.uleb128 0x24
 18104 34e1 09130000 		.4byte	.LASF447
 18105 34e5 01       		.byte	0x1
 18106 34e6 3F09     		.2byte	0x93f
 18107 34e8 2A0A0000 		.4byte	0xa2a
 18108 34ec 02       		.uleb128 0x2
 18109 34ed 91       		.byte	0x91
 18110 34ee 77       		.sleb128 -9
 18111 34ef 00       		.byte	0
ARM GAS  /tmp/ccRrg1qB.s 			page 322


 18112 34f0 22       		.uleb128 0x22
 18113 34f1 110D0000 		.4byte	.LASF571
 18114 34f5 01       		.byte	0x1
 18115 34f6 5409     		.2byte	0x954
 18116 34f8 AA0A0000 		.4byte	0xaaa
 18117 34fc B0260000 		.4byte	.LFB382
 18118 3500 36000000 		.4byte	.LFE382-.LFB382
 18119 3504 01       		.uleb128 0x1
 18120 3505 9C       		.byte	0x9c
 18121 3506 29350000 		.4byte	0x3529
 18122 350a 23       		.uleb128 0x23
 18123 350b CC000000 		.4byte	.LASF452
 18124 350f 01       		.byte	0x1
 18125 3510 5409     		.2byte	0x954
 18126 3512 3E030000 		.4byte	0x33e
 18127 3516 02       		.uleb128 0x2
 18128 3517 91       		.byte	0x91
 18129 3518 74       		.sleb128 -12
 18130 3519 23       		.uleb128 0x23
 18131 351a 09130000 		.4byte	.LASF447
 18132 351e 01       		.byte	0x1
 18133 351f 5409     		.2byte	0x954
 18134 3521 29350000 		.4byte	0x3529
 18135 3525 02       		.uleb128 0x2
 18136 3526 91       		.byte	0x91
 18137 3527 70       		.sleb128 -16
 18138 3528 00       		.byte	0
 18139 3529 09       		.uleb128 0x9
 18140 352a 04       		.byte	0x4
 18141 352b 44130000 		.4byte	0x1344
 18142 352f 22       		.uleb128 0x22
 18143 3530 C80A0000 		.4byte	.LASF572
 18144 3534 01       		.byte	0x1
 18145 3535 6509     		.2byte	0x965
 18146 3537 AA0A0000 		.4byte	0xaaa
 18147 353b F0260000 		.4byte	.LFB383
 18148 353f 68000000 		.4byte	.LFE383-.LFB383
 18149 3543 01       		.uleb128 0x1
 18150 3544 9C       		.byte	0x9c
 18151 3545 77350000 		.4byte	0x3577
 18152 3549 23       		.uleb128 0x23
 18153 354a CC000000 		.4byte	.LASF452
 18154 354e 01       		.byte	0x1
 18155 354f 6509     		.2byte	0x965
 18156 3551 3E030000 		.4byte	0x33e
 18157 3555 02       		.uleb128 0x2
 18158 3556 91       		.byte	0x91
 18159 3557 6C       		.sleb128 -20
 18160 3558 23       		.uleb128 0x23
 18161 3559 E3280000 		.4byte	.LASF457
 18162 355d 01       		.byte	0x1
 18163 355e 6509     		.2byte	0x965
 18164 3560 66130000 		.4byte	0x1366
 18165 3564 02       		.uleb128 0x2
 18166 3565 91       		.byte	0x91
 18167 3566 6B       		.sleb128 -21
 18168 3567 24       		.uleb128 0x24
ARM GAS  /tmp/ccRrg1qB.s 			page 323


 18169 3568 09130000 		.4byte	.LASF447
 18170 356c 01       		.byte	0x1
 18171 356d 6709     		.2byte	0x967
 18172 356f 2A0A0000 		.4byte	0xa2a
 18173 3573 02       		.uleb128 0x2
 18174 3574 91       		.byte	0x91
 18175 3575 77       		.sleb128 -9
 18176 3576 00       		.byte	0
 18177 3577 22       		.uleb128 0x22
 18178 3578 24210000 		.4byte	.LASF573
 18179 357c 01       		.byte	0x1
 18180 357d 7C09     		.2byte	0x97c
 18181 357f AA0A0000 		.4byte	0xaaa
 18182 3583 60270000 		.4byte	.LFB384
 18183 3587 36000000 		.4byte	.LFE384-.LFB384
 18184 358b 01       		.uleb128 0x1
 18185 358c 9C       		.byte	0x9c
 18186 358d B0350000 		.4byte	0x35b0
 18187 3591 23       		.uleb128 0x23
 18188 3592 CC000000 		.4byte	.LASF452
 18189 3596 01       		.byte	0x1
 18190 3597 7C09     		.2byte	0x97c
 18191 3599 3E030000 		.4byte	0x33e
 18192 359d 02       		.uleb128 0x2
 18193 359e 91       		.byte	0x91
 18194 359f 74       		.sleb128 -12
 18195 35a0 23       		.uleb128 0x23
 18196 35a1 09130000 		.4byte	.LASF447
 18197 35a5 01       		.byte	0x1
 18198 35a6 7C09     		.2byte	0x97c
 18199 35a8 B0350000 		.4byte	0x35b0
 18200 35ac 02       		.uleb128 0x2
 18201 35ad 91       		.byte	0x91
 18202 35ae 70       		.sleb128 -16
 18203 35af 00       		.byte	0
 18204 35b0 09       		.uleb128 0x9
 18205 35b1 04       		.byte	0x4
 18206 35b2 66130000 		.4byte	0x1366
 18207 35b6 22       		.uleb128 0x22
 18208 35b7 48070000 		.4byte	.LASF574
 18209 35bb 01       		.byte	0x1
 18210 35bc 8D09     		.2byte	0x98d
 18211 35be AA0A0000 		.4byte	0xaaa
 18212 35c2 A0270000 		.4byte	.LFB385
 18213 35c6 68000000 		.4byte	.LFE385-.LFB385
 18214 35ca 01       		.uleb128 0x1
 18215 35cb 9C       		.byte	0x9c
 18216 35cc FE350000 		.4byte	0x35fe
 18217 35d0 23       		.uleb128 0x23
 18218 35d1 CC000000 		.4byte	.LASF452
 18219 35d5 01       		.byte	0x1
 18220 35d6 8D09     		.2byte	0x98d
 18221 35d8 3E030000 		.4byte	0x33e
 18222 35dc 02       		.uleb128 0x2
 18223 35dd 91       		.byte	0x91
 18224 35de 6C       		.sleb128 -20
 18225 35df 23       		.uleb128 0x23
ARM GAS  /tmp/ccRrg1qB.s 			page 324


 18226 35e0 E3280000 		.4byte	.LASF457
 18227 35e4 01       		.byte	0x1
 18228 35e5 8D09     		.2byte	0x98d
 18229 35e7 88130000 		.4byte	0x1388
 18230 35eb 02       		.uleb128 0x2
 18231 35ec 91       		.byte	0x91
 18232 35ed 6B       		.sleb128 -21
 18233 35ee 24       		.uleb128 0x24
 18234 35ef 09130000 		.4byte	.LASF447
 18235 35f3 01       		.byte	0x1
 18236 35f4 8F09     		.2byte	0x98f
 18237 35f6 2A0A0000 		.4byte	0xa2a
 18238 35fa 02       		.uleb128 0x2
 18239 35fb 91       		.byte	0x91
 18240 35fc 77       		.sleb128 -9
 18241 35fd 00       		.byte	0
 18242 35fe 22       		.uleb128 0x22
 18243 35ff 101D0000 		.4byte	.LASF575
 18244 3603 01       		.byte	0x1
 18245 3604 A409     		.2byte	0x9a4
 18246 3606 AA0A0000 		.4byte	0xaaa
 18247 360a 10280000 		.4byte	.LFB386
 18248 360e 36000000 		.4byte	.LFE386-.LFB386
 18249 3612 01       		.uleb128 0x1
 18250 3613 9C       		.byte	0x9c
 18251 3614 37360000 		.4byte	0x3637
 18252 3618 23       		.uleb128 0x23
 18253 3619 CC000000 		.4byte	.LASF452
 18254 361d 01       		.byte	0x1
 18255 361e A409     		.2byte	0x9a4
 18256 3620 3E030000 		.4byte	0x33e
 18257 3624 02       		.uleb128 0x2
 18258 3625 91       		.byte	0x91
 18259 3626 74       		.sleb128 -12
 18260 3627 23       		.uleb128 0x23
 18261 3628 09130000 		.4byte	.LASF447
 18262 362c 01       		.byte	0x1
 18263 362d A409     		.2byte	0x9a4
 18264 362f 37360000 		.4byte	0x3637
 18265 3633 02       		.uleb128 0x2
 18266 3634 91       		.byte	0x91
 18267 3635 70       		.sleb128 -16
 18268 3636 00       		.byte	0
 18269 3637 09       		.uleb128 0x9
 18270 3638 04       		.byte	0x4
 18271 3639 88130000 		.4byte	0x1388
 18272 363d 22       		.uleb128 0x22
 18273 363e 63120000 		.4byte	.LASF576
 18274 3642 01       		.byte	0x1
 18275 3643 B509     		.2byte	0x9b5
 18276 3645 AA0A0000 		.4byte	0xaaa
 18277 3649 50280000 		.4byte	.LFB387
 18278 364d 68000000 		.4byte	.LFE387-.LFB387
 18279 3651 01       		.uleb128 0x1
 18280 3652 9C       		.byte	0x9c
 18281 3653 85360000 		.4byte	0x3685
 18282 3657 23       		.uleb128 0x23
ARM GAS  /tmp/ccRrg1qB.s 			page 325


 18283 3658 CC000000 		.4byte	.LASF452
 18284 365c 01       		.byte	0x1
 18285 365d B509     		.2byte	0x9b5
 18286 365f 3E030000 		.4byte	0x33e
 18287 3663 02       		.uleb128 0x2
 18288 3664 91       		.byte	0x91
 18289 3665 6C       		.sleb128 -20
 18290 3666 23       		.uleb128 0x23
 18291 3667 E3280000 		.4byte	.LASF457
 18292 366b 01       		.byte	0x1
 18293 366c B509     		.2byte	0x9b5
 18294 366e AA130000 		.4byte	0x13aa
 18295 3672 02       		.uleb128 0x2
 18296 3673 91       		.byte	0x91
 18297 3674 6B       		.sleb128 -21
 18298 3675 24       		.uleb128 0x24
 18299 3676 09130000 		.4byte	.LASF447
 18300 367a 01       		.byte	0x1
 18301 367b B709     		.2byte	0x9b7
 18302 367d 2A0A0000 		.4byte	0xa2a
 18303 3681 02       		.uleb128 0x2
 18304 3682 91       		.byte	0x91
 18305 3683 77       		.sleb128 -9
 18306 3684 00       		.byte	0
 18307 3685 22       		.uleb128 0x22
 18308 3686 17260000 		.4byte	.LASF577
 18309 368a 01       		.byte	0x1
 18310 368b CC09     		.2byte	0x9cc
 18311 368d AA0A0000 		.4byte	0xaaa
 18312 3691 C0280000 		.4byte	.LFB388
 18313 3695 36000000 		.4byte	.LFE388-.LFB388
 18314 3699 01       		.uleb128 0x1
 18315 369a 9C       		.byte	0x9c
 18316 369b BE360000 		.4byte	0x36be
 18317 369f 23       		.uleb128 0x23
 18318 36a0 CC000000 		.4byte	.LASF452
 18319 36a4 01       		.byte	0x1
 18320 36a5 CC09     		.2byte	0x9cc
 18321 36a7 3E030000 		.4byte	0x33e
 18322 36ab 02       		.uleb128 0x2
 18323 36ac 91       		.byte	0x91
 18324 36ad 74       		.sleb128 -12
 18325 36ae 23       		.uleb128 0x23
 18326 36af 09130000 		.4byte	.LASF447
 18327 36b3 01       		.byte	0x1
 18328 36b4 CC09     		.2byte	0x9cc
 18329 36b6 BE360000 		.4byte	0x36be
 18330 36ba 02       		.uleb128 0x2
 18331 36bb 91       		.byte	0x91
 18332 36bc 70       		.sleb128 -16
 18333 36bd 00       		.byte	0
 18334 36be 09       		.uleb128 0x9
 18335 36bf 04       		.byte	0x4
 18336 36c0 AA130000 		.4byte	0x13aa
 18337 36c4 22       		.uleb128 0x22
 18338 36c5 450D0000 		.4byte	.LASF578
 18339 36c9 01       		.byte	0x1
ARM GAS  /tmp/ccRrg1qB.s 			page 326


 18340 36ca DD09     		.2byte	0x9dd
 18341 36cc AA0A0000 		.4byte	0xaaa
 18342 36d0 00290000 		.4byte	.LFB389
 18343 36d4 68000000 		.4byte	.LFE389-.LFB389
 18344 36d8 01       		.uleb128 0x1
 18345 36d9 9C       		.byte	0x9c
 18346 36da 0C370000 		.4byte	0x370c
 18347 36de 23       		.uleb128 0x23
 18348 36df CC000000 		.4byte	.LASF452
 18349 36e3 01       		.byte	0x1
 18350 36e4 DD09     		.2byte	0x9dd
 18351 36e6 3E030000 		.4byte	0x33e
 18352 36ea 02       		.uleb128 0x2
 18353 36eb 91       		.byte	0x91
 18354 36ec 6C       		.sleb128 -20
 18355 36ed 23       		.uleb128 0x23
 18356 36ee E3280000 		.4byte	.LASF457
 18357 36f2 01       		.byte	0x1
 18358 36f3 DD09     		.2byte	0x9dd
 18359 36f5 CC130000 		.4byte	0x13cc
 18360 36f9 02       		.uleb128 0x2
 18361 36fa 91       		.byte	0x91
 18362 36fb 6B       		.sleb128 -21
 18363 36fc 24       		.uleb128 0x24
 18364 36fd 09130000 		.4byte	.LASF447
 18365 3701 01       		.byte	0x1
 18366 3702 DF09     		.2byte	0x9df
 18367 3704 2A0A0000 		.4byte	0xa2a
 18368 3708 02       		.uleb128 0x2
 18369 3709 91       		.byte	0x91
 18370 370a 77       		.sleb128 -9
 18371 370b 00       		.byte	0
 18372 370c 22       		.uleb128 0x22
 18373 370d F5220000 		.4byte	.LASF579
 18374 3711 01       		.byte	0x1
 18375 3712 F409     		.2byte	0x9f4
 18376 3714 AA0A0000 		.4byte	0xaaa
 18377 3718 70290000 		.4byte	.LFB390
 18378 371c 36000000 		.4byte	.LFE390-.LFB390
 18379 3720 01       		.uleb128 0x1
 18380 3721 9C       		.byte	0x9c
 18381 3722 45370000 		.4byte	0x3745
 18382 3726 23       		.uleb128 0x23
 18383 3727 CC000000 		.4byte	.LASF452
 18384 372b 01       		.byte	0x1
 18385 372c F409     		.2byte	0x9f4
 18386 372e 3E030000 		.4byte	0x33e
 18387 3732 02       		.uleb128 0x2
 18388 3733 91       		.byte	0x91
 18389 3734 74       		.sleb128 -12
 18390 3735 23       		.uleb128 0x23
 18391 3736 09130000 		.4byte	.LASF447
 18392 373a 01       		.byte	0x1
 18393 373b F409     		.2byte	0x9f4
 18394 373d 45370000 		.4byte	0x3745
 18395 3741 02       		.uleb128 0x2
 18396 3742 91       		.byte	0x91
ARM GAS  /tmp/ccRrg1qB.s 			page 327


 18397 3743 70       		.sleb128 -16
 18398 3744 00       		.byte	0
 18399 3745 09       		.uleb128 0x9
 18400 3746 04       		.byte	0x4
 18401 3747 CC130000 		.4byte	0x13cc
 18402 374b 22       		.uleb128 0x22
 18403 374c 39000000 		.4byte	.LASF580
 18404 3750 01       		.byte	0x1
 18405 3751 050A     		.2byte	0xa05
 18406 3753 AA0A0000 		.4byte	0xaaa
 18407 3757 B0290000 		.4byte	.LFB391
 18408 375b 68000000 		.4byte	.LFE391-.LFB391
 18409 375f 01       		.uleb128 0x1
 18410 3760 9C       		.byte	0x9c
 18411 3761 93370000 		.4byte	0x3793
 18412 3765 23       		.uleb128 0x23
 18413 3766 CC000000 		.4byte	.LASF452
 18414 376a 01       		.byte	0x1
 18415 376b 050A     		.2byte	0xa05
 18416 376d 3E030000 		.4byte	0x33e
 18417 3771 02       		.uleb128 0x2
 18418 3772 91       		.byte	0x91
 18419 3773 6C       		.sleb128 -20
 18420 3774 23       		.uleb128 0x23
 18421 3775 E3280000 		.4byte	.LASF457
 18422 3779 01       		.byte	0x1
 18423 377a 050A     		.2byte	0xa05
 18424 377c EF130000 		.4byte	0x13ef
 18425 3780 02       		.uleb128 0x2
 18426 3781 91       		.byte	0x91
 18427 3782 6B       		.sleb128 -21
 18428 3783 24       		.uleb128 0x24
 18429 3784 09130000 		.4byte	.LASF447
 18430 3788 01       		.byte	0x1
 18431 3789 070A     		.2byte	0xa07
 18432 378b 2A0A0000 		.4byte	0xa2a
 18433 378f 02       		.uleb128 0x2
 18434 3790 91       		.byte	0x91
 18435 3791 77       		.sleb128 -9
 18436 3792 00       		.byte	0
 18437 3793 22       		.uleb128 0x22
 18438 3794 66380000 		.4byte	.LASF581
 18439 3798 01       		.byte	0x1
 18440 3799 1C0A     		.2byte	0xa1c
 18441 379b AA0A0000 		.4byte	0xaaa
 18442 379f 202A0000 		.4byte	.LFB392
 18443 37a3 36000000 		.4byte	.LFE392-.LFB392
 18444 37a7 01       		.uleb128 0x1
 18445 37a8 9C       		.byte	0x9c
 18446 37a9 CC370000 		.4byte	0x37cc
 18447 37ad 23       		.uleb128 0x23
 18448 37ae CC000000 		.4byte	.LASF452
 18449 37b2 01       		.byte	0x1
 18450 37b3 1C0A     		.2byte	0xa1c
 18451 37b5 3E030000 		.4byte	0x33e
 18452 37b9 02       		.uleb128 0x2
 18453 37ba 91       		.byte	0x91
ARM GAS  /tmp/ccRrg1qB.s 			page 328


 18454 37bb 74       		.sleb128 -12
 18455 37bc 23       		.uleb128 0x23
 18456 37bd 09130000 		.4byte	.LASF447
 18457 37c1 01       		.byte	0x1
 18458 37c2 1C0A     		.2byte	0xa1c
 18459 37c4 CC370000 		.4byte	0x37cc
 18460 37c8 02       		.uleb128 0x2
 18461 37c9 91       		.byte	0x91
 18462 37ca 70       		.sleb128 -16
 18463 37cb 00       		.byte	0
 18464 37cc 09       		.uleb128 0x9
 18465 37cd 04       		.byte	0x4
 18466 37ce EF130000 		.4byte	0x13ef
 18467 37d2 22       		.uleb128 0x22
 18468 37d3 11180000 		.4byte	.LASF582
 18469 37d7 01       		.byte	0x1
 18470 37d8 2D0A     		.2byte	0xa2d
 18471 37da AA0A0000 		.4byte	0xaaa
 18472 37de 602A0000 		.4byte	.LFB393
 18473 37e2 68000000 		.4byte	.LFE393-.LFB393
 18474 37e6 01       		.uleb128 0x1
 18475 37e7 9C       		.byte	0x9c
 18476 37e8 1A380000 		.4byte	0x381a
 18477 37ec 23       		.uleb128 0x23
 18478 37ed CC000000 		.4byte	.LASF452
 18479 37f1 01       		.byte	0x1
 18480 37f2 2D0A     		.2byte	0xa2d
 18481 37f4 3E030000 		.4byte	0x33e
 18482 37f8 02       		.uleb128 0x2
 18483 37f9 91       		.byte	0x91
 18484 37fa 6C       		.sleb128 -20
 18485 37fb 23       		.uleb128 0x23
 18486 37fc E3280000 		.4byte	.LASF457
 18487 3800 01       		.byte	0x1
 18488 3801 2D0A     		.2byte	0xa2d
 18489 3803 12140000 		.4byte	0x1412
 18490 3807 02       		.uleb128 0x2
 18491 3808 91       		.byte	0x91
 18492 3809 6B       		.sleb128 -21
 18493 380a 24       		.uleb128 0x24
 18494 380b 09130000 		.4byte	.LASF447
 18495 380f 01       		.byte	0x1
 18496 3810 2F0A     		.2byte	0xa2f
 18497 3812 2A0A0000 		.4byte	0xa2a
 18498 3816 02       		.uleb128 0x2
 18499 3817 91       		.byte	0x91
 18500 3818 77       		.sleb128 -9
 18501 3819 00       		.byte	0
 18502 381a 22       		.uleb128 0x22
 18503 381b CC030000 		.4byte	.LASF583
 18504 381f 01       		.byte	0x1
 18505 3820 440A     		.2byte	0xa44
 18506 3822 AA0A0000 		.4byte	0xaaa
 18507 3826 D02A0000 		.4byte	.LFB394
 18508 382a 36000000 		.4byte	.LFE394-.LFB394
 18509 382e 01       		.uleb128 0x1
 18510 382f 9C       		.byte	0x9c
ARM GAS  /tmp/ccRrg1qB.s 			page 329


 18511 3830 53380000 		.4byte	0x3853
 18512 3834 23       		.uleb128 0x23
 18513 3835 CC000000 		.4byte	.LASF452
 18514 3839 01       		.byte	0x1
 18515 383a 440A     		.2byte	0xa44
 18516 383c 3E030000 		.4byte	0x33e
 18517 3840 02       		.uleb128 0x2
 18518 3841 91       		.byte	0x91
 18519 3842 74       		.sleb128 -12
 18520 3843 23       		.uleb128 0x23
 18521 3844 09130000 		.4byte	.LASF447
 18522 3848 01       		.byte	0x1
 18523 3849 440A     		.2byte	0xa44
 18524 384b 53380000 		.4byte	0x3853
 18525 384f 02       		.uleb128 0x2
 18526 3850 91       		.byte	0x91
 18527 3851 70       		.sleb128 -16
 18528 3852 00       		.byte	0
 18529 3853 09       		.uleb128 0x9
 18530 3854 04       		.byte	0x4
 18531 3855 12140000 		.4byte	0x1412
 18532 3859 22       		.uleb128 0x22
 18533 385a CB040000 		.4byte	.LASF584
 18534 385e 01       		.byte	0x1
 18535 385f 550A     		.2byte	0xa55
 18536 3861 AA0A0000 		.4byte	0xaaa
 18537 3865 102B0000 		.4byte	.LFB395
 18538 3869 68000000 		.4byte	.LFE395-.LFB395
 18539 386d 01       		.uleb128 0x1
 18540 386e 9C       		.byte	0x9c
 18541 386f A1380000 		.4byte	0x38a1
 18542 3873 23       		.uleb128 0x23
 18543 3874 CC000000 		.4byte	.LASF452
 18544 3878 01       		.byte	0x1
 18545 3879 550A     		.2byte	0xa55
 18546 387b 3E030000 		.4byte	0x33e
 18547 387f 02       		.uleb128 0x2
 18548 3880 91       		.byte	0x91
 18549 3881 6C       		.sleb128 -20
 18550 3882 23       		.uleb128 0x23
 18551 3883 E3280000 		.4byte	.LASF457
 18552 3887 01       		.byte	0x1
 18553 3888 550A     		.2byte	0xa55
 18554 388a 22130000 		.4byte	0x1322
 18555 388e 02       		.uleb128 0x2
 18556 388f 91       		.byte	0x91
 18557 3890 6B       		.sleb128 -21
 18558 3891 24       		.uleb128 0x24
 18559 3892 09130000 		.4byte	.LASF447
 18560 3896 01       		.byte	0x1
 18561 3897 570A     		.2byte	0xa57
 18562 3899 2A0A0000 		.4byte	0xa2a
 18563 389d 02       		.uleb128 0x2
 18564 389e 91       		.byte	0x91
 18565 389f 77       		.sleb128 -9
 18566 38a0 00       		.byte	0
 18567 38a1 22       		.uleb128 0x22
ARM GAS  /tmp/ccRrg1qB.s 			page 330


 18568 38a2 E8190000 		.4byte	.LASF585
 18569 38a6 01       		.byte	0x1
 18570 38a7 6C0A     		.2byte	0xa6c
 18571 38a9 AA0A0000 		.4byte	0xaaa
 18572 38ad 802B0000 		.4byte	.LFB396
 18573 38b1 36000000 		.4byte	.LFE396-.LFB396
 18574 38b5 01       		.uleb128 0x1
 18575 38b6 9C       		.byte	0x9c
 18576 38b7 DA380000 		.4byte	0x38da
 18577 38bb 23       		.uleb128 0x23
 18578 38bc CC000000 		.4byte	.LASF452
 18579 38c0 01       		.byte	0x1
 18580 38c1 6C0A     		.2byte	0xa6c
 18581 38c3 3E030000 		.4byte	0x33e
 18582 38c7 02       		.uleb128 0x2
 18583 38c8 91       		.byte	0x91
 18584 38c9 74       		.sleb128 -12
 18585 38ca 23       		.uleb128 0x23
 18586 38cb 09130000 		.4byte	.LASF447
 18587 38cf 01       		.byte	0x1
 18588 38d0 6C0A     		.2byte	0xa6c
 18589 38d2 A2340000 		.4byte	0x34a2
 18590 38d6 02       		.uleb128 0x2
 18591 38d7 91       		.byte	0x91
 18592 38d8 70       		.sleb128 -16
 18593 38d9 00       		.byte	0
 18594 38da 22       		.uleb128 0x22
 18595 38db 4A010000 		.4byte	.LASF586
 18596 38df 01       		.byte	0x1
 18597 38e0 7D0A     		.2byte	0xa7d
 18598 38e2 AA0A0000 		.4byte	0xaaa
 18599 38e6 C02B0000 		.4byte	.LFB397
 18600 38ea 68000000 		.4byte	.LFE397-.LFB397
 18601 38ee 01       		.uleb128 0x1
 18602 38ef 9C       		.byte	0x9c
 18603 38f0 22390000 		.4byte	0x3922
 18604 38f4 23       		.uleb128 0x23
 18605 38f5 CC000000 		.4byte	.LASF452
 18606 38f9 01       		.byte	0x1
 18607 38fa 7D0A     		.2byte	0xa7d
 18608 38fc 3E030000 		.4byte	0x33e
 18609 3900 02       		.uleb128 0x2
 18610 3901 91       		.byte	0x91
 18611 3902 6C       		.sleb128 -20
 18612 3903 23       		.uleb128 0x23
 18613 3904 E3280000 		.4byte	.LASF457
 18614 3908 01       		.byte	0x1
 18615 3909 7D0A     		.2byte	0xa7d
 18616 390b 44130000 		.4byte	0x1344
 18617 390f 02       		.uleb128 0x2
 18618 3910 91       		.byte	0x91
 18619 3911 6B       		.sleb128 -21
 18620 3912 24       		.uleb128 0x24
 18621 3913 09130000 		.4byte	.LASF447
 18622 3917 01       		.byte	0x1
 18623 3918 7F0A     		.2byte	0xa7f
 18624 391a 2A0A0000 		.4byte	0xa2a
ARM GAS  /tmp/ccRrg1qB.s 			page 331


 18625 391e 02       		.uleb128 0x2
 18626 391f 91       		.byte	0x91
 18627 3920 77       		.sleb128 -9
 18628 3921 00       		.byte	0
 18629 3922 22       		.uleb128 0x22
 18630 3923 CA160000 		.4byte	.LASF587
 18631 3927 01       		.byte	0x1
 18632 3928 940A     		.2byte	0xa94
 18633 392a AA0A0000 		.4byte	0xaaa
 18634 392e 302C0000 		.4byte	.LFB398
 18635 3932 36000000 		.4byte	.LFE398-.LFB398
 18636 3936 01       		.uleb128 0x1
 18637 3937 9C       		.byte	0x9c
 18638 3938 5B390000 		.4byte	0x395b
 18639 393c 23       		.uleb128 0x23
 18640 393d CC000000 		.4byte	.LASF452
 18641 3941 01       		.byte	0x1
 18642 3942 940A     		.2byte	0xa94
 18643 3944 3E030000 		.4byte	0x33e
 18644 3948 02       		.uleb128 0x2
 18645 3949 91       		.byte	0x91
 18646 394a 74       		.sleb128 -12
 18647 394b 23       		.uleb128 0x23
 18648 394c 09130000 		.4byte	.LASF447
 18649 3950 01       		.byte	0x1
 18650 3951 940A     		.2byte	0xa94
 18651 3953 29350000 		.4byte	0x3529
 18652 3957 02       		.uleb128 0x2
 18653 3958 91       		.byte	0x91
 18654 3959 70       		.sleb128 -16
 18655 395a 00       		.byte	0
 18656 395b 22       		.uleb128 0x22
 18657 395c 510A0000 		.4byte	.LASF588
 18658 3960 01       		.byte	0x1
 18659 3961 A50A     		.2byte	0xaa5
 18660 3963 AA0A0000 		.4byte	0xaaa
 18661 3967 702C0000 		.4byte	.LFB399
 18662 396b 68000000 		.4byte	.LFE399-.LFB399
 18663 396f 01       		.uleb128 0x1
 18664 3970 9C       		.byte	0x9c
 18665 3971 A3390000 		.4byte	0x39a3
 18666 3975 23       		.uleb128 0x23
 18667 3976 CC000000 		.4byte	.LASF452
 18668 397a 01       		.byte	0x1
 18669 397b A50A     		.2byte	0xaa5
 18670 397d 3E030000 		.4byte	0x33e
 18671 3981 02       		.uleb128 0x2
 18672 3982 91       		.byte	0x91
 18673 3983 6C       		.sleb128 -20
 18674 3984 23       		.uleb128 0x23
 18675 3985 E3280000 		.4byte	.LASF457
 18676 3989 01       		.byte	0x1
 18677 398a A50A     		.2byte	0xaa5
 18678 398c 66130000 		.4byte	0x1366
 18679 3990 02       		.uleb128 0x2
 18680 3991 91       		.byte	0x91
 18681 3992 6B       		.sleb128 -21
ARM GAS  /tmp/ccRrg1qB.s 			page 332


 18682 3993 24       		.uleb128 0x24
 18683 3994 09130000 		.4byte	.LASF447
 18684 3998 01       		.byte	0x1
 18685 3999 A70A     		.2byte	0xaa7
 18686 399b 2A0A0000 		.4byte	0xa2a
 18687 399f 02       		.uleb128 0x2
 18688 39a0 91       		.byte	0x91
 18689 39a1 77       		.sleb128 -9
 18690 39a2 00       		.byte	0
 18691 39a3 22       		.uleb128 0x22
 18692 39a4 66200000 		.4byte	.LASF589
 18693 39a8 01       		.byte	0x1
 18694 39a9 BC0A     		.2byte	0xabc
 18695 39ab AA0A0000 		.4byte	0xaaa
 18696 39af E02C0000 		.4byte	.LFB400
 18697 39b3 36000000 		.4byte	.LFE400-.LFB400
 18698 39b7 01       		.uleb128 0x1
 18699 39b8 9C       		.byte	0x9c
 18700 39b9 DC390000 		.4byte	0x39dc
 18701 39bd 23       		.uleb128 0x23
 18702 39be CC000000 		.4byte	.LASF452
 18703 39c2 01       		.byte	0x1
 18704 39c3 BC0A     		.2byte	0xabc
 18705 39c5 3E030000 		.4byte	0x33e
 18706 39c9 02       		.uleb128 0x2
 18707 39ca 91       		.byte	0x91
 18708 39cb 74       		.sleb128 -12
 18709 39cc 23       		.uleb128 0x23
 18710 39cd 09130000 		.4byte	.LASF447
 18711 39d1 01       		.byte	0x1
 18712 39d2 BC0A     		.2byte	0xabc
 18713 39d4 B0350000 		.4byte	0x35b0
 18714 39d8 02       		.uleb128 0x2
 18715 39d9 91       		.byte	0x91
 18716 39da 70       		.sleb128 -16
 18717 39db 00       		.byte	0
 18718 39dc 22       		.uleb128 0x22
 18719 39dd 83060000 		.4byte	.LASF590
 18720 39e1 01       		.byte	0x1
 18721 39e2 CD0A     		.2byte	0xacd
 18722 39e4 AA0A0000 		.4byte	0xaaa
 18723 39e8 202D0000 		.4byte	.LFB401
 18724 39ec 68000000 		.4byte	.LFE401-.LFB401
 18725 39f0 01       		.uleb128 0x1
 18726 39f1 9C       		.byte	0x9c
 18727 39f2 243A0000 		.4byte	0x3a24
 18728 39f6 23       		.uleb128 0x23
 18729 39f7 CC000000 		.4byte	.LASF452
 18730 39fb 01       		.byte	0x1
 18731 39fc CD0A     		.2byte	0xacd
 18732 39fe 3E030000 		.4byte	0x33e
 18733 3a02 02       		.uleb128 0x2
 18734 3a03 91       		.byte	0x91
 18735 3a04 6C       		.sleb128 -20
 18736 3a05 23       		.uleb128 0x23
 18737 3a06 E3280000 		.4byte	.LASF457
 18738 3a0a 01       		.byte	0x1
ARM GAS  /tmp/ccRrg1qB.s 			page 333


 18739 3a0b CD0A     		.2byte	0xacd
 18740 3a0d 88130000 		.4byte	0x1388
 18741 3a11 02       		.uleb128 0x2
 18742 3a12 91       		.byte	0x91
 18743 3a13 6B       		.sleb128 -21
 18744 3a14 24       		.uleb128 0x24
 18745 3a15 09130000 		.4byte	.LASF447
 18746 3a19 01       		.byte	0x1
 18747 3a1a CF0A     		.2byte	0xacf
 18748 3a1c 2A0A0000 		.4byte	0xa2a
 18749 3a20 02       		.uleb128 0x2
 18750 3a21 91       		.byte	0x91
 18751 3a22 77       		.sleb128 -9
 18752 3a23 00       		.byte	0
 18753 3a24 22       		.uleb128 0x22
 18754 3a25 C41B0000 		.4byte	.LASF591
 18755 3a29 01       		.byte	0x1
 18756 3a2a E40A     		.2byte	0xae4
 18757 3a2c AA0A0000 		.4byte	0xaaa
 18758 3a30 902D0000 		.4byte	.LFB402
 18759 3a34 36000000 		.4byte	.LFE402-.LFB402
 18760 3a38 01       		.uleb128 0x1
 18761 3a39 9C       		.byte	0x9c
 18762 3a3a 5D3A0000 		.4byte	0x3a5d
 18763 3a3e 23       		.uleb128 0x23
 18764 3a3f CC000000 		.4byte	.LASF452
 18765 3a43 01       		.byte	0x1
 18766 3a44 E40A     		.2byte	0xae4
 18767 3a46 3E030000 		.4byte	0x33e
 18768 3a4a 02       		.uleb128 0x2
 18769 3a4b 91       		.byte	0x91
 18770 3a4c 74       		.sleb128 -12
 18771 3a4d 23       		.uleb128 0x23
 18772 3a4e 09130000 		.4byte	.LASF447
 18773 3a52 01       		.byte	0x1
 18774 3a53 E40A     		.2byte	0xae4
 18775 3a55 37360000 		.4byte	0x3637
 18776 3a59 02       		.uleb128 0x2
 18777 3a5a 91       		.byte	0x91
 18778 3a5b 70       		.sleb128 -16
 18779 3a5c 00       		.byte	0
 18780 3a5d 22       		.uleb128 0x22
 18781 3a5e 82110000 		.4byte	.LASF592
 18782 3a62 01       		.byte	0x1
 18783 3a63 F50A     		.2byte	0xaf5
 18784 3a65 AA0A0000 		.4byte	0xaaa
 18785 3a69 D02D0000 		.4byte	.LFB403
 18786 3a6d 68000000 		.4byte	.LFE403-.LFB403
 18787 3a71 01       		.uleb128 0x1
 18788 3a72 9C       		.byte	0x9c
 18789 3a73 A53A0000 		.4byte	0x3aa5
 18790 3a77 23       		.uleb128 0x23
 18791 3a78 CC000000 		.4byte	.LASF452
 18792 3a7c 01       		.byte	0x1
 18793 3a7d F50A     		.2byte	0xaf5
 18794 3a7f 3E030000 		.4byte	0x33e
 18795 3a83 02       		.uleb128 0x2
ARM GAS  /tmp/ccRrg1qB.s 			page 334


 18796 3a84 91       		.byte	0x91
 18797 3a85 6C       		.sleb128 -20
 18798 3a86 23       		.uleb128 0x23
 18799 3a87 E3280000 		.4byte	.LASF457
 18800 3a8b 01       		.byte	0x1
 18801 3a8c F50A     		.2byte	0xaf5
 18802 3a8e AA130000 		.4byte	0x13aa
 18803 3a92 02       		.uleb128 0x2
 18804 3a93 91       		.byte	0x91
 18805 3a94 6B       		.sleb128 -21
 18806 3a95 24       		.uleb128 0x24
 18807 3a96 09130000 		.4byte	.LASF447
 18808 3a9a 01       		.byte	0x1
 18809 3a9b F70A     		.2byte	0xaf7
 18810 3a9d 2A0A0000 		.4byte	0xa2a
 18811 3aa1 02       		.uleb128 0x2
 18812 3aa2 91       		.byte	0x91
 18813 3aa3 77       		.sleb128 -9
 18814 3aa4 00       		.byte	0
 18815 3aa5 22       		.uleb128 0x22
 18816 3aa6 74250000 		.4byte	.LASF593
 18817 3aaa 01       		.byte	0x1
 18818 3aab 0C0B     		.2byte	0xb0c
 18819 3aad AA0A0000 		.4byte	0xaaa
 18820 3ab1 402E0000 		.4byte	.LFB404
 18821 3ab5 36000000 		.4byte	.LFE404-.LFB404
 18822 3ab9 01       		.uleb128 0x1
 18823 3aba 9C       		.byte	0x9c
 18824 3abb DE3A0000 		.4byte	0x3ade
 18825 3abf 23       		.uleb128 0x23
 18826 3ac0 CC000000 		.4byte	.LASF452
 18827 3ac4 01       		.byte	0x1
 18828 3ac5 0C0B     		.2byte	0xb0c
 18829 3ac7 3E030000 		.4byte	0x33e
 18830 3acb 02       		.uleb128 0x2
 18831 3acc 91       		.byte	0x91
 18832 3acd 74       		.sleb128 -12
 18833 3ace 23       		.uleb128 0x23
 18834 3acf 09130000 		.4byte	.LASF447
 18835 3ad3 01       		.byte	0x1
 18836 3ad4 0C0B     		.2byte	0xb0c
 18837 3ad6 BE360000 		.4byte	0x36be
 18838 3ada 02       		.uleb128 0x2
 18839 3adb 91       		.byte	0x91
 18840 3adc 70       		.sleb128 -16
 18841 3add 00       		.byte	0
 18842 3ade 22       		.uleb128 0x22
 18843 3adf FD320000 		.4byte	.LASF594
 18844 3ae3 01       		.byte	0x1
 18845 3ae4 1D0B     		.2byte	0xb1d
 18846 3ae6 AA0A0000 		.4byte	0xaaa
 18847 3aea 802E0000 		.4byte	.LFB405
 18848 3aee 68000000 		.4byte	.LFE405-.LFB405
 18849 3af2 01       		.uleb128 0x1
 18850 3af3 9C       		.byte	0x9c
 18851 3af4 263B0000 		.4byte	0x3b26
 18852 3af8 23       		.uleb128 0x23
ARM GAS  /tmp/ccRrg1qB.s 			page 335


 18853 3af9 CC000000 		.4byte	.LASF452
 18854 3afd 01       		.byte	0x1
 18855 3afe 1D0B     		.2byte	0xb1d
 18856 3b00 3E030000 		.4byte	0x33e
 18857 3b04 02       		.uleb128 0x2
 18858 3b05 91       		.byte	0x91
 18859 3b06 6C       		.sleb128 -20
 18860 3b07 23       		.uleb128 0x23
 18861 3b08 E3280000 		.4byte	.LASF457
 18862 3b0c 01       		.byte	0x1
 18863 3b0d 1D0B     		.2byte	0xb1d
 18864 3b0f CC130000 		.4byte	0x13cc
 18865 3b13 02       		.uleb128 0x2
 18866 3b14 91       		.byte	0x91
 18867 3b15 6B       		.sleb128 -21
 18868 3b16 24       		.uleb128 0x24
 18869 3b17 09130000 		.4byte	.LASF447
 18870 3b1b 01       		.byte	0x1
 18871 3b1c 1F0B     		.2byte	0xb1f
 18872 3b1e 2A0A0000 		.4byte	0xa2a
 18873 3b22 02       		.uleb128 0x2
 18874 3b23 91       		.byte	0x91
 18875 3b24 77       		.sleb128 -9
 18876 3b25 00       		.byte	0
 18877 3b26 22       		.uleb128 0x22
 18878 3b27 3A220000 		.4byte	.LASF595
 18879 3b2b 01       		.byte	0x1
 18880 3b2c 340B     		.2byte	0xb34
 18881 3b2e AA0A0000 		.4byte	0xaaa
 18882 3b32 F02E0000 		.4byte	.LFB406
 18883 3b36 36000000 		.4byte	.LFE406-.LFB406
 18884 3b3a 01       		.uleb128 0x1
 18885 3b3b 9C       		.byte	0x9c
 18886 3b3c 5F3B0000 		.4byte	0x3b5f
 18887 3b40 23       		.uleb128 0x23
 18888 3b41 CC000000 		.4byte	.LASF452
 18889 3b45 01       		.byte	0x1
 18890 3b46 340B     		.2byte	0xb34
 18891 3b48 3E030000 		.4byte	0x33e
 18892 3b4c 02       		.uleb128 0x2
 18893 3b4d 91       		.byte	0x91
 18894 3b4e 74       		.sleb128 -12
 18895 3b4f 23       		.uleb128 0x23
 18896 3b50 09130000 		.4byte	.LASF447
 18897 3b54 01       		.byte	0x1
 18898 3b55 340B     		.2byte	0xb34
 18899 3b57 45370000 		.4byte	0x3745
 18900 3b5b 02       		.uleb128 0x2
 18901 3b5c 91       		.byte	0x91
 18902 3b5d 70       		.sleb128 -16
 18903 3b5e 00       		.byte	0
 18904 3b5f 22       		.uleb128 0x22
 18905 3b60 DB1C0000 		.4byte	.LASF596
 18906 3b64 01       		.byte	0x1
 18907 3b65 450B     		.2byte	0xb45
 18908 3b67 AA0A0000 		.4byte	0xaaa
 18909 3b6b 302F0000 		.4byte	.LFB407
ARM GAS  /tmp/ccRrg1qB.s 			page 336


 18910 3b6f 68000000 		.4byte	.LFE407-.LFB407
 18911 3b73 01       		.uleb128 0x1
 18912 3b74 9C       		.byte	0x9c
 18913 3b75 A73B0000 		.4byte	0x3ba7
 18914 3b79 23       		.uleb128 0x23
 18915 3b7a CC000000 		.4byte	.LASF452
 18916 3b7e 01       		.byte	0x1
 18917 3b7f 450B     		.2byte	0xb45
 18918 3b81 3E030000 		.4byte	0x33e
 18919 3b85 02       		.uleb128 0x2
 18920 3b86 91       		.byte	0x91
 18921 3b87 6C       		.sleb128 -20
 18922 3b88 23       		.uleb128 0x23
 18923 3b89 E3280000 		.4byte	.LASF457
 18924 3b8d 01       		.byte	0x1
 18925 3b8e 450B     		.2byte	0xb45
 18926 3b90 EF130000 		.4byte	0x13ef
 18927 3b94 02       		.uleb128 0x2
 18928 3b95 91       		.byte	0x91
 18929 3b96 6B       		.sleb128 -21
 18930 3b97 24       		.uleb128 0x24
 18931 3b98 09130000 		.4byte	.LASF447
 18932 3b9c 01       		.byte	0x1
 18933 3b9d 470B     		.2byte	0xb47
 18934 3b9f 2A0A0000 		.4byte	0xa2a
 18935 3ba3 02       		.uleb128 0x2
 18936 3ba4 91       		.byte	0x91
 18937 3ba5 77       		.sleb128 -9
 18938 3ba6 00       		.byte	0
 18939 3ba7 22       		.uleb128 0x22
 18940 3ba8 AC1B0000 		.4byte	.LASF597
 18941 3bac 01       		.byte	0x1
 18942 3bad 5C0B     		.2byte	0xb5c
 18943 3baf AA0A0000 		.4byte	0xaaa
 18944 3bb3 A02F0000 		.4byte	.LFB408
 18945 3bb7 36000000 		.4byte	.LFE408-.LFB408
 18946 3bbb 01       		.uleb128 0x1
 18947 3bbc 9C       		.byte	0x9c
 18948 3bbd E03B0000 		.4byte	0x3be0
 18949 3bc1 23       		.uleb128 0x23
 18950 3bc2 CC000000 		.4byte	.LASF452
 18951 3bc6 01       		.byte	0x1
 18952 3bc7 5C0B     		.2byte	0xb5c
 18953 3bc9 3E030000 		.4byte	0x33e
 18954 3bcd 02       		.uleb128 0x2
 18955 3bce 91       		.byte	0x91
 18956 3bcf 74       		.sleb128 -12
 18957 3bd0 23       		.uleb128 0x23
 18958 3bd1 09130000 		.4byte	.LASF447
 18959 3bd5 01       		.byte	0x1
 18960 3bd6 5C0B     		.2byte	0xb5c
 18961 3bd8 CC370000 		.4byte	0x37cc
 18962 3bdc 02       		.uleb128 0x2
 18963 3bdd 91       		.byte	0x91
 18964 3bde 70       		.sleb128 -16
 18965 3bdf 00       		.byte	0
 18966 3be0 22       		.uleb128 0x22
ARM GAS  /tmp/ccRrg1qB.s 			page 337


 18967 3be1 190B0000 		.4byte	.LASF598
 18968 3be5 01       		.byte	0x1
 18969 3be6 6D0B     		.2byte	0xb6d
 18970 3be8 AA0A0000 		.4byte	0xaaa
 18971 3bec E02F0000 		.4byte	.LFB409
 18972 3bf0 68000000 		.4byte	.LFE409-.LFB409
 18973 3bf4 01       		.uleb128 0x1
 18974 3bf5 9C       		.byte	0x9c
 18975 3bf6 283C0000 		.4byte	0x3c28
 18976 3bfa 23       		.uleb128 0x23
 18977 3bfb CC000000 		.4byte	.LASF452
 18978 3bff 01       		.byte	0x1
 18979 3c00 6D0B     		.2byte	0xb6d
 18980 3c02 3E030000 		.4byte	0x33e
 18981 3c06 02       		.uleb128 0x2
 18982 3c07 91       		.byte	0x91
 18983 3c08 6C       		.sleb128 -20
 18984 3c09 23       		.uleb128 0x23
 18985 3c0a E3280000 		.4byte	.LASF457
 18986 3c0e 01       		.byte	0x1
 18987 3c0f 6D0B     		.2byte	0xb6d
 18988 3c11 12140000 		.4byte	0x1412
 18989 3c15 02       		.uleb128 0x2
 18990 3c16 91       		.byte	0x91
 18991 3c17 6B       		.sleb128 -21
 18992 3c18 24       		.uleb128 0x24
 18993 3c19 09130000 		.4byte	.LASF447
 18994 3c1d 01       		.byte	0x1
 18995 3c1e 6F0B     		.2byte	0xb6f
 18996 3c20 2A0A0000 		.4byte	0xa2a
 18997 3c24 02       		.uleb128 0x2
 18998 3c25 91       		.byte	0x91
 18999 3c26 77       		.sleb128 -9
 19000 3c27 00       		.byte	0
 19001 3c28 22       		.uleb128 0x22
 19002 3c29 C40F0000 		.4byte	.LASF599
 19003 3c2d 01       		.byte	0x1
 19004 3c2e 840B     		.2byte	0xb84
 19005 3c30 AA0A0000 		.4byte	0xaaa
 19006 3c34 50300000 		.4byte	.LFB410
 19007 3c38 36000000 		.4byte	.LFE410-.LFB410
 19008 3c3c 01       		.uleb128 0x1
 19009 3c3d 9C       		.byte	0x9c
 19010 3c3e 613C0000 		.4byte	0x3c61
 19011 3c42 23       		.uleb128 0x23
 19012 3c43 CC000000 		.4byte	.LASF452
 19013 3c47 01       		.byte	0x1
 19014 3c48 840B     		.2byte	0xb84
 19015 3c4a 3E030000 		.4byte	0x33e
 19016 3c4e 02       		.uleb128 0x2
 19017 3c4f 91       		.byte	0x91
 19018 3c50 74       		.sleb128 -12
 19019 3c51 23       		.uleb128 0x23
 19020 3c52 09130000 		.4byte	.LASF447
 19021 3c56 01       		.byte	0x1
 19022 3c57 840B     		.2byte	0xb84
 19023 3c59 53380000 		.4byte	0x3853
ARM GAS  /tmp/ccRrg1qB.s 			page 338


 19024 3c5d 02       		.uleb128 0x2
 19025 3c5e 91       		.byte	0x91
 19026 3c5f 70       		.sleb128 -16
 19027 3c60 00       		.byte	0
 19028 3c61 22       		.uleb128 0x22
 19029 3c62 E9250000 		.4byte	.LASF600
 19030 3c66 01       		.byte	0x1
 19031 3c67 950B     		.2byte	0xb95
 19032 3c69 AA0A0000 		.4byte	0xaaa
 19033 3c6d 90300000 		.4byte	.LFB411
 19034 3c71 36000000 		.4byte	.LFE411-.LFB411
 19035 3c75 01       		.uleb128 0x1
 19036 3c76 9C       		.byte	0x9c
 19037 3c77 9A3C0000 		.4byte	0x3c9a
 19038 3c7b 23       		.uleb128 0x23
 19039 3c7c CC000000 		.4byte	.LASF452
 19040 3c80 01       		.byte	0x1
 19041 3c81 950B     		.2byte	0xb95
 19042 3c83 3E030000 		.4byte	0x33e
 19043 3c87 02       		.uleb128 0x2
 19044 3c88 91       		.byte	0x91
 19045 3c89 74       		.sleb128 -12
 19046 3c8a 23       		.uleb128 0x23
 19047 3c8b 09130000 		.4byte	.LASF447
 19048 3c8f 01       		.byte	0x1
 19049 3c90 950B     		.2byte	0xb95
 19050 3c92 9A3C0000 		.4byte	0x3c9a
 19051 3c96 02       		.uleb128 0x2
 19052 3c97 91       		.byte	0x91
 19053 3c98 70       		.sleb128 -16
 19054 3c99 00       		.byte	0
 19055 3c9a 09       		.uleb128 0x9
 19056 3c9b 04       		.byte	0x4
 19057 3c9c 34140000 		.4byte	0x1434
 19058 3ca0 22       		.uleb128 0x22
 19059 3ca1 87030000 		.4byte	.LASF601
 19060 3ca5 01       		.byte	0x1
 19061 3ca6 A60B     		.2byte	0xba6
 19062 3ca8 AA0A0000 		.4byte	0xaaa
 19063 3cac D0300000 		.4byte	.LFB412
 19064 3cb0 36000000 		.4byte	.LFE412-.LFB412
 19065 3cb4 01       		.uleb128 0x1
 19066 3cb5 9C       		.byte	0x9c
 19067 3cb6 D93C0000 		.4byte	0x3cd9
 19068 3cba 23       		.uleb128 0x23
 19069 3cbb CC000000 		.4byte	.LASF452
 19070 3cbf 01       		.byte	0x1
 19071 3cc0 A60B     		.2byte	0xba6
 19072 3cc2 3E030000 		.4byte	0x33e
 19073 3cc6 02       		.uleb128 0x2
 19074 3cc7 91       		.byte	0x91
 19075 3cc8 74       		.sleb128 -12
 19076 3cc9 23       		.uleb128 0x23
 19077 3cca 09130000 		.4byte	.LASF447
 19078 3cce 01       		.byte	0x1
 19079 3ccf A60B     		.2byte	0xba6
 19080 3cd1 D93C0000 		.4byte	0x3cd9
ARM GAS  /tmp/ccRrg1qB.s 			page 339


 19081 3cd5 02       		.uleb128 0x2
 19082 3cd6 91       		.byte	0x91
 19083 3cd7 70       		.sleb128 -16
 19084 3cd8 00       		.byte	0
 19085 3cd9 09       		.uleb128 0x9
 19086 3cda 04       		.byte	0x4
 19087 3cdb 56140000 		.4byte	0x1456
 19088 3cdf 22       		.uleb128 0x22
 19089 3ce0 A20C0000 		.4byte	.LASF602
 19090 3ce4 01       		.byte	0x1
 19091 3ce5 B70B     		.2byte	0xbb7
 19092 3ce7 AA0A0000 		.4byte	0xaaa
 19093 3ceb 10310000 		.4byte	.LFB413
 19094 3cef 36000000 		.4byte	.LFE413-.LFB413
 19095 3cf3 01       		.uleb128 0x1
 19096 3cf4 9C       		.byte	0x9c
 19097 3cf5 183D0000 		.4byte	0x3d18
 19098 3cf9 23       		.uleb128 0x23
 19099 3cfa CC000000 		.4byte	.LASF452
 19100 3cfe 01       		.byte	0x1
 19101 3cff B70B     		.2byte	0xbb7
 19102 3d01 3E030000 		.4byte	0x33e
 19103 3d05 02       		.uleb128 0x2
 19104 3d06 91       		.byte	0x91
 19105 3d07 74       		.sleb128 -12
 19106 3d08 23       		.uleb128 0x23
 19107 3d09 09130000 		.4byte	.LASF447
 19108 3d0d 01       		.byte	0x1
 19109 3d0e B70B     		.2byte	0xbb7
 19110 3d10 183D0000 		.4byte	0x3d18
 19111 3d14 02       		.uleb128 0x2
 19112 3d15 91       		.byte	0x91
 19113 3d16 70       		.sleb128 -16
 19114 3d17 00       		.byte	0
 19115 3d18 09       		.uleb128 0x9
 19116 3d19 04       		.byte	0x4
 19117 3d1a 78140000 		.4byte	0x1478
 19118 3d1e 22       		.uleb128 0x22
 19119 3d1f AB080000 		.4byte	.LASF603
 19120 3d23 01       		.byte	0x1
 19121 3d24 C80B     		.2byte	0xbc8
 19122 3d26 AA0A0000 		.4byte	0xaaa
 19123 3d2a 50310000 		.4byte	.LFB414
 19124 3d2e 36000000 		.4byte	.LFE414-.LFB414
 19125 3d32 01       		.uleb128 0x1
 19126 3d33 9C       		.byte	0x9c
 19127 3d34 573D0000 		.4byte	0x3d57
 19128 3d38 23       		.uleb128 0x23
 19129 3d39 CC000000 		.4byte	.LASF452
 19130 3d3d 01       		.byte	0x1
 19131 3d3e C80B     		.2byte	0xbc8
 19132 3d40 3E030000 		.4byte	0x33e
 19133 3d44 02       		.uleb128 0x2
 19134 3d45 91       		.byte	0x91
 19135 3d46 74       		.sleb128 -12
 19136 3d47 23       		.uleb128 0x23
 19137 3d48 09130000 		.4byte	.LASF447
ARM GAS  /tmp/ccRrg1qB.s 			page 340


 19138 3d4c 01       		.byte	0x1
 19139 3d4d C80B     		.2byte	0xbc8
 19140 3d4f 573D0000 		.4byte	0x3d57
 19141 3d53 02       		.uleb128 0x2
 19142 3d54 91       		.byte	0x91
 19143 3d55 70       		.sleb128 -16
 19144 3d56 00       		.byte	0
 19145 3d57 09       		.uleb128 0x9
 19146 3d58 04       		.byte	0x4
 19147 3d59 9A140000 		.4byte	0x149a
 19148 3d5d 22       		.uleb128 0x22
 19149 3d5e 4E310000 		.4byte	.LASF604
 19150 3d62 01       		.byte	0x1
 19151 3d63 D90B     		.2byte	0xbd9
 19152 3d65 AA0A0000 		.4byte	0xaaa
 19153 3d69 90310000 		.4byte	.LFB415
 19154 3d6d 36000000 		.4byte	.LFE415-.LFB415
 19155 3d71 01       		.uleb128 0x1
 19156 3d72 9C       		.byte	0x9c
 19157 3d73 963D0000 		.4byte	0x3d96
 19158 3d77 23       		.uleb128 0x23
 19159 3d78 CC000000 		.4byte	.LASF452
 19160 3d7c 01       		.byte	0x1
 19161 3d7d D90B     		.2byte	0xbd9
 19162 3d7f 3E030000 		.4byte	0x33e
 19163 3d83 02       		.uleb128 0x2
 19164 3d84 91       		.byte	0x91
 19165 3d85 74       		.sleb128 -12
 19166 3d86 23       		.uleb128 0x23
 19167 3d87 09130000 		.4byte	.LASF447
 19168 3d8b 01       		.byte	0x1
 19169 3d8c D90B     		.2byte	0xbd9
 19170 3d8e 963D0000 		.4byte	0x3d96
 19171 3d92 02       		.uleb128 0x2
 19172 3d93 91       		.byte	0x91
 19173 3d94 70       		.sleb128 -16
 19174 3d95 00       		.byte	0
 19175 3d96 09       		.uleb128 0x9
 19176 3d97 04       		.byte	0x4
 19177 3d98 BC140000 		.4byte	0x14bc
 19178 3d9c 22       		.uleb128 0x22
 19179 3d9d AB0F0000 		.4byte	.LASF605
 19180 3da1 01       		.byte	0x1
 19181 3da2 EA0B     		.2byte	0xbea
 19182 3da4 AA0A0000 		.4byte	0xaaa
 19183 3da8 D0310000 		.4byte	.LFB416
 19184 3dac 36000000 		.4byte	.LFE416-.LFB416
 19185 3db0 01       		.uleb128 0x1
 19186 3db1 9C       		.byte	0x9c
 19187 3db2 D53D0000 		.4byte	0x3dd5
 19188 3db6 23       		.uleb128 0x23
 19189 3db7 CC000000 		.4byte	.LASF452
 19190 3dbb 01       		.byte	0x1
 19191 3dbc EA0B     		.2byte	0xbea
 19192 3dbe 3E030000 		.4byte	0x33e
 19193 3dc2 02       		.uleb128 0x2
 19194 3dc3 91       		.byte	0x91
ARM GAS  /tmp/ccRrg1qB.s 			page 341


 19195 3dc4 74       		.sleb128 -12
 19196 3dc5 23       		.uleb128 0x23
 19197 3dc6 09130000 		.4byte	.LASF447
 19198 3dca 01       		.byte	0x1
 19199 3dcb EA0B     		.2byte	0xbea
 19200 3dcd D53D0000 		.4byte	0x3dd5
 19201 3dd1 02       		.uleb128 0x2
 19202 3dd2 91       		.byte	0x91
 19203 3dd3 70       		.sleb128 -16
 19204 3dd4 00       		.byte	0
 19205 3dd5 09       		.uleb128 0x9
 19206 3dd6 04       		.byte	0x4
 19207 3dd7 DE140000 		.4byte	0x14de
 19208 3ddb 22       		.uleb128 0x22
 19209 3ddc 86120000 		.4byte	.LASF606
 19210 3de0 01       		.byte	0x1
 19211 3de1 FB0B     		.2byte	0xbfb
 19212 3de3 AA0A0000 		.4byte	0xaaa
 19213 3de7 10320000 		.4byte	.LFB417
 19214 3deb 36000000 		.4byte	.LFE417-.LFB417
 19215 3def 01       		.uleb128 0x1
 19216 3df0 9C       		.byte	0x9c
 19217 3df1 143E0000 		.4byte	0x3e14
 19218 3df5 23       		.uleb128 0x23
 19219 3df6 CC000000 		.4byte	.LASF452
 19220 3dfa 01       		.byte	0x1
 19221 3dfb FB0B     		.2byte	0xbfb
 19222 3dfd 3E030000 		.4byte	0x33e
 19223 3e01 02       		.uleb128 0x2
 19224 3e02 91       		.byte	0x91
 19225 3e03 74       		.sleb128 -12
 19226 3e04 23       		.uleb128 0x23
 19227 3e05 09130000 		.4byte	.LASF447
 19228 3e09 01       		.byte	0x1
 19229 3e0a FB0B     		.2byte	0xbfb
 19230 3e0c 143E0000 		.4byte	0x3e14
 19231 3e10 02       		.uleb128 0x2
 19232 3e11 91       		.byte	0x91
 19233 3e12 70       		.sleb128 -16
 19234 3e13 00       		.byte	0
 19235 3e14 09       		.uleb128 0x9
 19236 3e15 04       		.byte	0x4
 19237 3e16 01150000 		.4byte	0x1501
 19238 3e1a 22       		.uleb128 0x22
 19239 3e1b 55370000 		.4byte	.LASF607
 19240 3e1f 01       		.byte	0x1
 19241 3e20 0C0C     		.2byte	0xc0c
 19242 3e22 AA0A0000 		.4byte	0xaaa
 19243 3e26 50320000 		.4byte	.LFB418
 19244 3e2a 36000000 		.4byte	.LFE418-.LFB418
 19245 3e2e 01       		.uleb128 0x1
 19246 3e2f 9C       		.byte	0x9c
 19247 3e30 533E0000 		.4byte	0x3e53
 19248 3e34 23       		.uleb128 0x23
 19249 3e35 CC000000 		.4byte	.LASF452
 19250 3e39 01       		.byte	0x1
 19251 3e3a 0C0C     		.2byte	0xc0c
ARM GAS  /tmp/ccRrg1qB.s 			page 342


 19252 3e3c 3E030000 		.4byte	0x33e
 19253 3e40 02       		.uleb128 0x2
 19254 3e41 91       		.byte	0x91
 19255 3e42 74       		.sleb128 -12
 19256 3e43 23       		.uleb128 0x23
 19257 3e44 09130000 		.4byte	.LASF447
 19258 3e48 01       		.byte	0x1
 19259 3e49 0C0C     		.2byte	0xc0c
 19260 3e4b 9A3C0000 		.4byte	0x3c9a
 19261 3e4f 02       		.uleb128 0x2
 19262 3e50 91       		.byte	0x91
 19263 3e51 70       		.sleb128 -16
 19264 3e52 00       		.byte	0
 19265 3e53 22       		.uleb128 0x22
 19266 3e54 63160000 		.4byte	.LASF608
 19267 3e58 01       		.byte	0x1
 19268 3e59 1D0C     		.2byte	0xc1d
 19269 3e5b AA0A0000 		.4byte	0xaaa
 19270 3e5f 90320000 		.4byte	.LFB419
 19271 3e63 36000000 		.4byte	.LFE419-.LFB419
 19272 3e67 01       		.uleb128 0x1
 19273 3e68 9C       		.byte	0x9c
 19274 3e69 8C3E0000 		.4byte	0x3e8c
 19275 3e6d 23       		.uleb128 0x23
 19276 3e6e CC000000 		.4byte	.LASF452
 19277 3e72 01       		.byte	0x1
 19278 3e73 1D0C     		.2byte	0xc1d
 19279 3e75 3E030000 		.4byte	0x33e
 19280 3e79 02       		.uleb128 0x2
 19281 3e7a 91       		.byte	0x91
 19282 3e7b 74       		.sleb128 -12
 19283 3e7c 23       		.uleb128 0x23
 19284 3e7d 09130000 		.4byte	.LASF447
 19285 3e81 01       		.byte	0x1
 19286 3e82 1D0C     		.2byte	0xc1d
 19287 3e84 D93C0000 		.4byte	0x3cd9
 19288 3e88 02       		.uleb128 0x2
 19289 3e89 91       		.byte	0x91
 19290 3e8a 70       		.sleb128 -16
 19291 3e8b 00       		.byte	0
 19292 3e8c 22       		.uleb128 0x22
 19293 3e8d 91270000 		.4byte	.LASF609
 19294 3e91 01       		.byte	0x1
 19295 3e92 2E0C     		.2byte	0xc2e
 19296 3e94 AA0A0000 		.4byte	0xaaa
 19297 3e98 D0320000 		.4byte	.LFB420
 19298 3e9c 36000000 		.4byte	.LFE420-.LFB420
 19299 3ea0 01       		.uleb128 0x1
 19300 3ea1 9C       		.byte	0x9c
 19301 3ea2 C53E0000 		.4byte	0x3ec5
 19302 3ea6 23       		.uleb128 0x23
 19303 3ea7 CC000000 		.4byte	.LASF452
 19304 3eab 01       		.byte	0x1
 19305 3eac 2E0C     		.2byte	0xc2e
 19306 3eae 3E030000 		.4byte	0x33e
 19307 3eb2 02       		.uleb128 0x2
 19308 3eb3 91       		.byte	0x91
ARM GAS  /tmp/ccRrg1qB.s 			page 343


 19309 3eb4 74       		.sleb128 -12
 19310 3eb5 23       		.uleb128 0x23
 19311 3eb6 09130000 		.4byte	.LASF447
 19312 3eba 01       		.byte	0x1
 19313 3ebb 2E0C     		.2byte	0xc2e
 19314 3ebd 183D0000 		.4byte	0x3d18
 19315 3ec1 02       		.uleb128 0x2
 19316 3ec2 91       		.byte	0x91
 19317 3ec3 70       		.sleb128 -16
 19318 3ec4 00       		.byte	0
 19319 3ec5 22       		.uleb128 0x22
 19320 3ec6 581B0000 		.4byte	.LASF610
 19321 3eca 01       		.byte	0x1
 19322 3ecb 3F0C     		.2byte	0xc3f
 19323 3ecd AA0A0000 		.4byte	0xaaa
 19324 3ed1 10330000 		.4byte	.LFB421
 19325 3ed5 36000000 		.4byte	.LFE421-.LFB421
 19326 3ed9 01       		.uleb128 0x1
 19327 3eda 9C       		.byte	0x9c
 19328 3edb FE3E0000 		.4byte	0x3efe
 19329 3edf 23       		.uleb128 0x23
 19330 3ee0 CC000000 		.4byte	.LASF452
 19331 3ee4 01       		.byte	0x1
 19332 3ee5 3F0C     		.2byte	0xc3f
 19333 3ee7 3E030000 		.4byte	0x33e
 19334 3eeb 02       		.uleb128 0x2
 19335 3eec 91       		.byte	0x91
 19336 3eed 74       		.sleb128 -12
 19337 3eee 23       		.uleb128 0x23
 19338 3eef 09130000 		.4byte	.LASF447
 19339 3ef3 01       		.byte	0x1
 19340 3ef4 3F0C     		.2byte	0xc3f
 19341 3ef6 573D0000 		.4byte	0x3d57
 19342 3efa 02       		.uleb128 0x2
 19343 3efb 91       		.byte	0x91
 19344 3efc 70       		.sleb128 -16
 19345 3efd 00       		.byte	0
 19346 3efe 22       		.uleb128 0x22
 19347 3eff C4080000 		.4byte	.LASF611
 19348 3f03 01       		.byte	0x1
 19349 3f04 500C     		.2byte	0xc50
 19350 3f06 AA0A0000 		.4byte	0xaaa
 19351 3f0a 50330000 		.4byte	.LFB422
 19352 3f0e 36000000 		.4byte	.LFE422-.LFB422
 19353 3f12 01       		.uleb128 0x1
 19354 3f13 9C       		.byte	0x9c
 19355 3f14 373F0000 		.4byte	0x3f37
 19356 3f18 23       		.uleb128 0x23
 19357 3f19 CC000000 		.4byte	.LASF452
 19358 3f1d 01       		.byte	0x1
 19359 3f1e 500C     		.2byte	0xc50
 19360 3f20 3E030000 		.4byte	0x33e
 19361 3f24 02       		.uleb128 0x2
 19362 3f25 91       		.byte	0x91
 19363 3f26 74       		.sleb128 -12
 19364 3f27 23       		.uleb128 0x23
 19365 3f28 09130000 		.4byte	.LASF447
ARM GAS  /tmp/ccRrg1qB.s 			page 344


 19366 3f2c 01       		.byte	0x1
 19367 3f2d 500C     		.2byte	0xc50
 19368 3f2f 963D0000 		.4byte	0x3d96
 19369 3f33 02       		.uleb128 0x2
 19370 3f34 91       		.byte	0x91
 19371 3f35 70       		.sleb128 -16
 19372 3f36 00       		.byte	0
 19373 3f37 22       		.uleb128 0x22
 19374 3f38 7E210000 		.4byte	.LASF612
 19375 3f3c 01       		.byte	0x1
 19376 3f3d 610C     		.2byte	0xc61
 19377 3f3f AA0A0000 		.4byte	0xaaa
 19378 3f43 90330000 		.4byte	.LFB423
 19379 3f47 36000000 		.4byte	.LFE423-.LFB423
 19380 3f4b 01       		.uleb128 0x1
 19381 3f4c 9C       		.byte	0x9c
 19382 3f4d 703F0000 		.4byte	0x3f70
 19383 3f51 23       		.uleb128 0x23
 19384 3f52 CC000000 		.4byte	.LASF452
 19385 3f56 01       		.byte	0x1
 19386 3f57 610C     		.2byte	0xc61
 19387 3f59 3E030000 		.4byte	0x33e
 19388 3f5d 02       		.uleb128 0x2
 19389 3f5e 91       		.byte	0x91
 19390 3f5f 74       		.sleb128 -12
 19391 3f60 23       		.uleb128 0x23
 19392 3f61 09130000 		.4byte	.LASF447
 19393 3f65 01       		.byte	0x1
 19394 3f66 610C     		.2byte	0xc61
 19395 3f68 D53D0000 		.4byte	0x3dd5
 19396 3f6c 02       		.uleb128 0x2
 19397 3f6d 91       		.byte	0x91
 19398 3f6e 70       		.sleb128 -16
 19399 3f6f 00       		.byte	0
 19400 3f70 22       		.uleb128 0x22
 19401 3f71 972D0000 		.4byte	.LASF613
 19402 3f75 01       		.byte	0x1
 19403 3f76 720C     		.2byte	0xc72
 19404 3f78 AA0A0000 		.4byte	0xaaa
 19405 3f7c D0330000 		.4byte	.LFB424
 19406 3f80 36000000 		.4byte	.LFE424-.LFB424
 19407 3f84 01       		.uleb128 0x1
 19408 3f85 9C       		.byte	0x9c
 19409 3f86 A93F0000 		.4byte	0x3fa9
 19410 3f8a 23       		.uleb128 0x23
 19411 3f8b CC000000 		.4byte	.LASF452
 19412 3f8f 01       		.byte	0x1
 19413 3f90 720C     		.2byte	0xc72
 19414 3f92 3E030000 		.4byte	0x33e
 19415 3f96 02       		.uleb128 0x2
 19416 3f97 91       		.byte	0x91
 19417 3f98 74       		.sleb128 -12
 19418 3f99 23       		.uleb128 0x23
 19419 3f9a 09130000 		.4byte	.LASF447
 19420 3f9e 01       		.byte	0x1
 19421 3f9f 720C     		.2byte	0xc72
 19422 3fa1 143E0000 		.4byte	0x3e14
ARM GAS  /tmp/ccRrg1qB.s 			page 345


 19423 3fa5 02       		.uleb128 0x2
 19424 3fa6 91       		.byte	0x91
 19425 3fa7 70       		.sleb128 -16
 19426 3fa8 00       		.byte	0
 19427 3fa9 22       		.uleb128 0x22
 19428 3faa 960E0000 		.4byte	.LASF614
 19429 3fae 01       		.byte	0x1
 19430 3faf 830C     		.2byte	0xc83
 19431 3fb1 AA0A0000 		.4byte	0xaaa
 19432 3fb5 10340000 		.4byte	.LFB425
 19433 3fb9 74000000 		.4byte	.LFE425-.LFB425
 19434 3fbd 01       		.uleb128 0x1
 19435 3fbe 9C       		.byte	0x9c
 19436 3fbf F13F0000 		.4byte	0x3ff1
 19437 3fc3 23       		.uleb128 0x23
 19438 3fc4 CC000000 		.4byte	.LASF452
 19439 3fc8 01       		.byte	0x1
 19440 3fc9 830C     		.2byte	0xc83
 19441 3fcb 3E030000 		.4byte	0x33e
 19442 3fcf 02       		.uleb128 0x2
 19443 3fd0 91       		.byte	0x91
 19444 3fd1 6C       		.sleb128 -20
 19445 3fd2 23       		.uleb128 0x23
 19446 3fd3 E3280000 		.4byte	.LASF457
 19447 3fd7 01       		.byte	0x1
 19448 3fd8 830C     		.2byte	0xc83
 19449 3fda 2A0A0000 		.4byte	0xa2a
 19450 3fde 02       		.uleb128 0x2
 19451 3fdf 91       		.byte	0x91
 19452 3fe0 6B       		.sleb128 -21
 19453 3fe1 24       		.uleb128 0x24
 19454 3fe2 09130000 		.4byte	.LASF447
 19455 3fe6 01       		.byte	0x1
 19456 3fe7 850C     		.2byte	0xc85
 19457 3fe9 2A0A0000 		.4byte	0xa2a
 19458 3fed 02       		.uleb128 0x2
 19459 3fee 91       		.byte	0x91
 19460 3fef 77       		.sleb128 -9
 19461 3ff0 00       		.byte	0
 19462 3ff1 22       		.uleb128 0x22
 19463 3ff2 9D2B0000 		.4byte	.LASF615
 19464 3ff6 01       		.byte	0x1
 19465 3ff7 9D0C     		.2byte	0xc9d
 19466 3ff9 AA0A0000 		.4byte	0xaaa
 19467 3ffd 90340000 		.4byte	.LFB426
 19468 4001 3E000000 		.4byte	.LFE426-.LFB426
 19469 4005 01       		.uleb128 0x1
 19470 4006 9C       		.byte	0x9c
 19471 4007 2A400000 		.4byte	0x402a
 19472 400b 23       		.uleb128 0x23
 19473 400c CC000000 		.4byte	.LASF452
 19474 4010 01       		.byte	0x1
 19475 4011 9D0C     		.2byte	0xc9d
 19476 4013 3E030000 		.4byte	0x33e
 19477 4017 02       		.uleb128 0x2
 19478 4018 91       		.byte	0x91
 19479 4019 74       		.sleb128 -12
ARM GAS  /tmp/ccRrg1qB.s 			page 346


 19480 401a 23       		.uleb128 0x23
 19481 401b 09130000 		.4byte	.LASF447
 19482 401f 01       		.byte	0x1
 19483 4020 9D0C     		.2byte	0xc9d
 19484 4022 8D170000 		.4byte	0x178d
 19485 4026 02       		.uleb128 0x2
 19486 4027 91       		.byte	0x91
 19487 4028 70       		.sleb128 -16
 19488 4029 00       		.byte	0
 19489 402a 22       		.uleb128 0x22
 19490 402b 05210000 		.4byte	.LASF616
 19491 402f 01       		.byte	0x1
 19492 4030 AF0C     		.2byte	0xcaf
 19493 4032 AA0A0000 		.4byte	0xaaa
 19494 4036 D0340000 		.4byte	.LFB427
 19495 403a 74000000 		.4byte	.LFE427-.LFB427
 19496 403e 01       		.uleb128 0x1
 19497 403f 9C       		.byte	0x9c
 19498 4040 72400000 		.4byte	0x4072
 19499 4044 23       		.uleb128 0x23
 19500 4045 CC000000 		.4byte	.LASF452
 19501 4049 01       		.byte	0x1
 19502 404a AF0C     		.2byte	0xcaf
 19503 404c 3E030000 		.4byte	0x33e
 19504 4050 02       		.uleb128 0x2
 19505 4051 91       		.byte	0x91
 19506 4052 6C       		.sleb128 -20
 19507 4053 23       		.uleb128 0x23
 19508 4054 E3280000 		.4byte	.LASF457
 19509 4058 01       		.byte	0x1
 19510 4059 AF0C     		.2byte	0xcaf
 19511 405b 2A0A0000 		.4byte	0xa2a
 19512 405f 02       		.uleb128 0x2
 19513 4060 91       		.byte	0x91
 19514 4061 6B       		.sleb128 -21
 19515 4062 24       		.uleb128 0x24
 19516 4063 09130000 		.4byte	.LASF447
 19517 4067 01       		.byte	0x1
 19518 4068 B10C     		.2byte	0xcb1
 19519 406a 2A0A0000 		.4byte	0xa2a
 19520 406e 02       		.uleb128 0x2
 19521 406f 91       		.byte	0x91
 19522 4070 77       		.sleb128 -9
 19523 4071 00       		.byte	0
 19524 4072 22       		.uleb128 0x22
 19525 4073 E7340000 		.4byte	.LASF617
 19526 4077 01       		.byte	0x1
 19527 4078 C90C     		.2byte	0xcc9
 19528 407a AA0A0000 		.4byte	0xaaa
 19529 407e 50350000 		.4byte	.LFB428
 19530 4082 3E000000 		.4byte	.LFE428-.LFB428
 19531 4086 01       		.uleb128 0x1
 19532 4087 9C       		.byte	0x9c
 19533 4088 AB400000 		.4byte	0x40ab
 19534 408c 23       		.uleb128 0x23
 19535 408d CC000000 		.4byte	.LASF452
 19536 4091 01       		.byte	0x1
ARM GAS  /tmp/ccRrg1qB.s 			page 347


 19537 4092 C90C     		.2byte	0xcc9
 19538 4094 3E030000 		.4byte	0x33e
 19539 4098 02       		.uleb128 0x2
 19540 4099 91       		.byte	0x91
 19541 409a 74       		.sleb128 -12
 19542 409b 23       		.uleb128 0x23
 19543 409c 09130000 		.4byte	.LASF447
 19544 40a0 01       		.byte	0x1
 19545 40a1 C90C     		.2byte	0xcc9
 19546 40a3 8D170000 		.4byte	0x178d
 19547 40a7 02       		.uleb128 0x2
 19548 40a8 91       		.byte	0x91
 19549 40a9 70       		.sleb128 -16
 19550 40aa 00       		.byte	0
 19551 40ab 22       		.uleb128 0x22
 19552 40ac 3B2A0000 		.4byte	.LASF618
 19553 40b0 01       		.byte	0x1
 19554 40b1 DB0C     		.2byte	0xcdb
 19555 40b3 AA0A0000 		.4byte	0xaaa
 19556 40b7 90350000 		.4byte	.LFB429
 19557 40bb 74000000 		.4byte	.LFE429-.LFB429
 19558 40bf 01       		.uleb128 0x1
 19559 40c0 9C       		.byte	0x9c
 19560 40c1 F3400000 		.4byte	0x40f3
 19561 40c5 23       		.uleb128 0x23
 19562 40c6 CC000000 		.4byte	.LASF452
 19563 40ca 01       		.byte	0x1
 19564 40cb DB0C     		.2byte	0xcdb
 19565 40cd 3E030000 		.4byte	0x33e
 19566 40d1 02       		.uleb128 0x2
 19567 40d2 91       		.byte	0x91
 19568 40d3 6C       		.sleb128 -20
 19569 40d4 23       		.uleb128 0x23
 19570 40d5 E3280000 		.4byte	.LASF457
 19571 40d9 01       		.byte	0x1
 19572 40da DB0C     		.2byte	0xcdb
 19573 40dc 2A0A0000 		.4byte	0xa2a
 19574 40e0 02       		.uleb128 0x2
 19575 40e1 91       		.byte	0x91
 19576 40e2 6B       		.sleb128 -21
 19577 40e3 24       		.uleb128 0x24
 19578 40e4 09130000 		.4byte	.LASF447
 19579 40e8 01       		.byte	0x1
 19580 40e9 DD0C     		.2byte	0xcdd
 19581 40eb 2A0A0000 		.4byte	0xa2a
 19582 40ef 02       		.uleb128 0x2
 19583 40f0 91       		.byte	0x91
 19584 40f1 77       		.sleb128 -9
 19585 40f2 00       		.byte	0
 19586 40f3 22       		.uleb128 0x22
 19587 40f4 72280000 		.4byte	.LASF619
 19588 40f8 01       		.byte	0x1
 19589 40f9 F50C     		.2byte	0xcf5
 19590 40fb AA0A0000 		.4byte	0xaaa
 19591 40ff 10360000 		.4byte	.LFB430
 19592 4103 3E000000 		.4byte	.LFE430-.LFB430
 19593 4107 01       		.uleb128 0x1
ARM GAS  /tmp/ccRrg1qB.s 			page 348


 19594 4108 9C       		.byte	0x9c
 19595 4109 2C410000 		.4byte	0x412c
 19596 410d 23       		.uleb128 0x23
 19597 410e CC000000 		.4byte	.LASF452
 19598 4112 01       		.byte	0x1
 19599 4113 F50C     		.2byte	0xcf5
 19600 4115 3E030000 		.4byte	0x33e
 19601 4119 02       		.uleb128 0x2
 19602 411a 91       		.byte	0x91
 19603 411b 74       		.sleb128 -12
 19604 411c 23       		.uleb128 0x23
 19605 411d 09130000 		.4byte	.LASF447
 19606 4121 01       		.byte	0x1
 19607 4122 F50C     		.2byte	0xcf5
 19608 4124 8D170000 		.4byte	0x178d
 19609 4128 02       		.uleb128 0x2
 19610 4129 91       		.byte	0x91
 19611 412a 70       		.sleb128 -16
 19612 412b 00       		.byte	0
 19613 412c 22       		.uleb128 0x22
 19614 412d 31340000 		.4byte	.LASF620
 19615 4131 01       		.byte	0x1
 19616 4132 070D     		.2byte	0xd07
 19617 4134 AA0A0000 		.4byte	0xaaa
 19618 4138 50360000 		.4byte	.LFB431
 19619 413c 74000000 		.4byte	.LFE431-.LFB431
 19620 4140 01       		.uleb128 0x1
 19621 4141 9C       		.byte	0x9c
 19622 4142 74410000 		.4byte	0x4174
 19623 4146 23       		.uleb128 0x23
 19624 4147 CC000000 		.4byte	.LASF452
 19625 414b 01       		.byte	0x1
 19626 414c 070D     		.2byte	0xd07
 19627 414e 3E030000 		.4byte	0x33e
 19628 4152 02       		.uleb128 0x2
 19629 4153 91       		.byte	0x91
 19630 4154 6C       		.sleb128 -20
 19631 4155 23       		.uleb128 0x23
 19632 4156 E3280000 		.4byte	.LASF457
 19633 415a 01       		.byte	0x1
 19634 415b 070D     		.2byte	0xd07
 19635 415d 2A0A0000 		.4byte	0xa2a
 19636 4161 02       		.uleb128 0x2
 19637 4162 91       		.byte	0x91
 19638 4163 6B       		.sleb128 -21
 19639 4164 24       		.uleb128 0x24
 19640 4165 09130000 		.4byte	.LASF447
 19641 4169 01       		.byte	0x1
 19642 416a 090D     		.2byte	0xd09
 19643 416c 2A0A0000 		.4byte	0xa2a
 19644 4170 02       		.uleb128 0x2
 19645 4171 91       		.byte	0x91
 19646 4172 77       		.sleb128 -9
 19647 4173 00       		.byte	0
 19648 4174 22       		.uleb128 0x22
 19649 4175 8D1C0000 		.4byte	.LASF621
 19650 4179 01       		.byte	0x1
ARM GAS  /tmp/ccRrg1qB.s 			page 349


 19651 417a 210D     		.2byte	0xd21
 19652 417c AA0A0000 		.4byte	0xaaa
 19653 4180 D0360000 		.4byte	.LFB432
 19654 4184 3E000000 		.4byte	.LFE432-.LFB432
 19655 4188 01       		.uleb128 0x1
 19656 4189 9C       		.byte	0x9c
 19657 418a AD410000 		.4byte	0x41ad
 19658 418e 23       		.uleb128 0x23
 19659 418f CC000000 		.4byte	.LASF452
 19660 4193 01       		.byte	0x1
 19661 4194 210D     		.2byte	0xd21
 19662 4196 3E030000 		.4byte	0x33e
 19663 419a 02       		.uleb128 0x2
 19664 419b 91       		.byte	0x91
 19665 419c 74       		.sleb128 -12
 19666 419d 23       		.uleb128 0x23
 19667 419e 09130000 		.4byte	.LASF447
 19668 41a2 01       		.byte	0x1
 19669 41a3 210D     		.2byte	0xd21
 19670 41a5 8D170000 		.4byte	0x178d
 19671 41a9 02       		.uleb128 0x2
 19672 41aa 91       		.byte	0x91
 19673 41ab 70       		.sleb128 -16
 19674 41ac 00       		.byte	0
 19675 41ad 22       		.uleb128 0x22
 19676 41ae D82A0000 		.4byte	.LASF622
 19677 41b2 01       		.byte	0x1
 19678 41b3 330D     		.2byte	0xd33
 19679 41b5 AA0A0000 		.4byte	0xaaa
 19680 41b9 10370000 		.4byte	.LFB433
 19681 41bd 68000000 		.4byte	.LFE433-.LFB433
 19682 41c1 01       		.uleb128 0x1
 19683 41c2 9C       		.byte	0x9c
 19684 41c3 F5410000 		.4byte	0x41f5
 19685 41c7 23       		.uleb128 0x23
 19686 41c8 CC000000 		.4byte	.LASF452
 19687 41cc 01       		.byte	0x1
 19688 41cd 330D     		.2byte	0xd33
 19689 41cf 3E030000 		.4byte	0x33e
 19690 41d3 02       		.uleb128 0x2
 19691 41d4 91       		.byte	0x91
 19692 41d5 6C       		.sleb128 -20
 19693 41d6 23       		.uleb128 0x23
 19694 41d7 E3280000 		.4byte	.LASF457
 19695 41db 01       		.byte	0x1
 19696 41dc 330D     		.2byte	0xd33
 19697 41de 23150000 		.4byte	0x1523
 19698 41e2 02       		.uleb128 0x2
 19699 41e3 91       		.byte	0x91
 19700 41e4 6B       		.sleb128 -21
 19701 41e5 24       		.uleb128 0x24
 19702 41e6 09130000 		.4byte	.LASF447
 19703 41ea 01       		.byte	0x1
 19704 41eb 350D     		.2byte	0xd35
 19705 41ed 2A0A0000 		.4byte	0xa2a
 19706 41f1 02       		.uleb128 0x2
 19707 41f2 91       		.byte	0x91
ARM GAS  /tmp/ccRrg1qB.s 			page 350


 19708 41f3 77       		.sleb128 -9
 19709 41f4 00       		.byte	0
 19710 41f5 22       		.uleb128 0x22
 19711 41f6 012A0000 		.4byte	.LASF623
 19712 41fa 01       		.byte	0x1
 19713 41fb 4A0D     		.2byte	0xd4a
 19714 41fd AA0A0000 		.4byte	0xaaa
 19715 4201 80370000 		.4byte	.LFB434
 19716 4205 36000000 		.4byte	.LFE434-.LFB434
 19717 4209 01       		.uleb128 0x1
 19718 420a 9C       		.byte	0x9c
 19719 420b 2E420000 		.4byte	0x422e
 19720 420f 23       		.uleb128 0x23
 19721 4210 CC000000 		.4byte	.LASF452
 19722 4214 01       		.byte	0x1
 19723 4215 4A0D     		.2byte	0xd4a
 19724 4217 3E030000 		.4byte	0x33e
 19725 421b 02       		.uleb128 0x2
 19726 421c 91       		.byte	0x91
 19727 421d 74       		.sleb128 -12
 19728 421e 23       		.uleb128 0x23
 19729 421f 09130000 		.4byte	.LASF447
 19730 4223 01       		.byte	0x1
 19731 4224 4A0D     		.2byte	0xd4a
 19732 4226 2E420000 		.4byte	0x422e
 19733 422a 02       		.uleb128 0x2
 19734 422b 91       		.byte	0x91
 19735 422c 70       		.sleb128 -16
 19736 422d 00       		.byte	0
 19737 422e 09       		.uleb128 0x9
 19738 422f 04       		.byte	0x4
 19739 4230 23150000 		.4byte	0x1523
 19740 4234 22       		.uleb128 0x22
 19741 4235 D4370000 		.4byte	.LASF624
 19742 4239 01       		.byte	0x1
 19743 423a 5B0D     		.2byte	0xd5b
 19744 423c AA0A0000 		.4byte	0xaaa
 19745 4240 C0370000 		.4byte	.LFB435
 19746 4244 68000000 		.4byte	.LFE435-.LFB435
 19747 4248 01       		.uleb128 0x1
 19748 4249 9C       		.byte	0x9c
 19749 424a 7C420000 		.4byte	0x427c
 19750 424e 23       		.uleb128 0x23
 19751 424f CC000000 		.4byte	.LASF452
 19752 4253 01       		.byte	0x1
 19753 4254 5B0D     		.2byte	0xd5b
 19754 4256 3E030000 		.4byte	0x33e
 19755 425a 02       		.uleb128 0x2
 19756 425b 91       		.byte	0x91
 19757 425c 6C       		.sleb128 -20
 19758 425d 23       		.uleb128 0x23
 19759 425e E3280000 		.4byte	.LASF457
 19760 4262 01       		.byte	0x1
 19761 4263 5B0D     		.2byte	0xd5b
 19762 4265 45150000 		.4byte	0x1545
 19763 4269 02       		.uleb128 0x2
 19764 426a 91       		.byte	0x91
ARM GAS  /tmp/ccRrg1qB.s 			page 351


 19765 426b 6B       		.sleb128 -21
 19766 426c 24       		.uleb128 0x24
 19767 426d 09130000 		.4byte	.LASF447
 19768 4271 01       		.byte	0x1
 19769 4272 5D0D     		.2byte	0xd5d
 19770 4274 2A0A0000 		.4byte	0xa2a
 19771 4278 02       		.uleb128 0x2
 19772 4279 91       		.byte	0x91
 19773 427a 77       		.sleb128 -9
 19774 427b 00       		.byte	0
 19775 427c 22       		.uleb128 0x22
 19776 427d F8360000 		.4byte	.LASF625
 19777 4281 01       		.byte	0x1
 19778 4282 720D     		.2byte	0xd72
 19779 4284 AA0A0000 		.4byte	0xaaa
 19780 4288 30380000 		.4byte	.LFB436
 19781 428c 36000000 		.4byte	.LFE436-.LFB436
 19782 4290 01       		.uleb128 0x1
 19783 4291 9C       		.byte	0x9c
 19784 4292 B5420000 		.4byte	0x42b5
 19785 4296 23       		.uleb128 0x23
 19786 4297 CC000000 		.4byte	.LASF452
 19787 429b 01       		.byte	0x1
 19788 429c 720D     		.2byte	0xd72
 19789 429e 3E030000 		.4byte	0x33e
 19790 42a2 02       		.uleb128 0x2
 19791 42a3 91       		.byte	0x91
 19792 42a4 74       		.sleb128 -12
 19793 42a5 23       		.uleb128 0x23
 19794 42a6 09130000 		.4byte	.LASF447
 19795 42aa 01       		.byte	0x1
 19796 42ab 720D     		.2byte	0xd72
 19797 42ad B5420000 		.4byte	0x42b5
 19798 42b1 02       		.uleb128 0x2
 19799 42b2 91       		.byte	0x91
 19800 42b3 70       		.sleb128 -16
 19801 42b4 00       		.byte	0
 19802 42b5 09       		.uleb128 0x9
 19803 42b6 04       		.byte	0x4
 19804 42b7 45150000 		.4byte	0x1545
 19805 42bb 22       		.uleb128 0x22
 19806 42bc 2B200000 		.4byte	.LASF626
 19807 42c0 01       		.byte	0x1
 19808 42c1 830D     		.2byte	0xd83
 19809 42c3 AA0A0000 		.4byte	0xaaa
 19810 42c7 70380000 		.4byte	.LFB437
 19811 42cb 68000000 		.4byte	.LFE437-.LFB437
 19812 42cf 01       		.uleb128 0x1
 19813 42d0 9C       		.byte	0x9c
 19814 42d1 03430000 		.4byte	0x4303
 19815 42d5 23       		.uleb128 0x23
 19816 42d6 CC000000 		.4byte	.LASF452
 19817 42da 01       		.byte	0x1
 19818 42db 830D     		.2byte	0xd83
 19819 42dd 3E030000 		.4byte	0x33e
 19820 42e1 02       		.uleb128 0x2
 19821 42e2 91       		.byte	0x91
ARM GAS  /tmp/ccRrg1qB.s 			page 352


 19822 42e3 6C       		.sleb128 -20
 19823 42e4 23       		.uleb128 0x23
 19824 42e5 E3280000 		.4byte	.LASF457
 19825 42e9 01       		.byte	0x1
 19826 42ea 830D     		.2byte	0xd83
 19827 42ec 67150000 		.4byte	0x1567
 19828 42f0 02       		.uleb128 0x2
 19829 42f1 91       		.byte	0x91
 19830 42f2 6B       		.sleb128 -21
 19831 42f3 24       		.uleb128 0x24
 19832 42f4 09130000 		.4byte	.LASF447
 19833 42f8 01       		.byte	0x1
 19834 42f9 850D     		.2byte	0xd85
 19835 42fb 2A0A0000 		.4byte	0xa2a
 19836 42ff 02       		.uleb128 0x2
 19837 4300 91       		.byte	0x91
 19838 4301 77       		.sleb128 -9
 19839 4302 00       		.byte	0
 19840 4303 22       		.uleb128 0x22
 19841 4304 782C0000 		.4byte	.LASF627
 19842 4308 01       		.byte	0x1
 19843 4309 9A0D     		.2byte	0xd9a
 19844 430b AA0A0000 		.4byte	0xaaa
 19845 430f E0380000 		.4byte	.LFB438
 19846 4313 36000000 		.4byte	.LFE438-.LFB438
 19847 4317 01       		.uleb128 0x1
 19848 4318 9C       		.byte	0x9c
 19849 4319 3C430000 		.4byte	0x433c
 19850 431d 23       		.uleb128 0x23
 19851 431e CC000000 		.4byte	.LASF452
 19852 4322 01       		.byte	0x1
 19853 4323 9A0D     		.2byte	0xd9a
 19854 4325 3E030000 		.4byte	0x33e
 19855 4329 02       		.uleb128 0x2
 19856 432a 91       		.byte	0x91
 19857 432b 74       		.sleb128 -12
 19858 432c 23       		.uleb128 0x23
 19859 432d 09130000 		.4byte	.LASF447
 19860 4331 01       		.byte	0x1
 19861 4332 9A0D     		.2byte	0xd9a
 19862 4334 3C430000 		.4byte	0x433c
 19863 4338 02       		.uleb128 0x2
 19864 4339 91       		.byte	0x91
 19865 433a 70       		.sleb128 -16
 19866 433b 00       		.byte	0
 19867 433c 09       		.uleb128 0x9
 19868 433d 04       		.byte	0x4
 19869 433e 67150000 		.4byte	0x1567
 19870 4342 22       		.uleb128 0x22
 19871 4343 390A0000 		.4byte	.LASF628
 19872 4347 01       		.byte	0x1
 19873 4348 AB0D     		.2byte	0xdab
 19874 434a AA0A0000 		.4byte	0xaaa
 19875 434e 20390000 		.4byte	.LFB439
 19876 4352 68000000 		.4byte	.LFE439-.LFB439
 19877 4356 01       		.uleb128 0x1
 19878 4357 9C       		.byte	0x9c
ARM GAS  /tmp/ccRrg1qB.s 			page 353


 19879 4358 8A430000 		.4byte	0x438a
 19880 435c 23       		.uleb128 0x23
 19881 435d CC000000 		.4byte	.LASF452
 19882 4361 01       		.byte	0x1
 19883 4362 AB0D     		.2byte	0xdab
 19884 4364 3E030000 		.4byte	0x33e
 19885 4368 02       		.uleb128 0x2
 19886 4369 91       		.byte	0x91
 19887 436a 6C       		.sleb128 -20
 19888 436b 23       		.uleb128 0x23
 19889 436c E3280000 		.4byte	.LASF457
 19890 4370 01       		.byte	0x1
 19891 4371 AB0D     		.2byte	0xdab
 19892 4373 89150000 		.4byte	0x1589
 19893 4377 02       		.uleb128 0x2
 19894 4378 91       		.byte	0x91
 19895 4379 6B       		.sleb128 -21
 19896 437a 24       		.uleb128 0x24
 19897 437b 09130000 		.4byte	.LASF447
 19898 437f 01       		.byte	0x1
 19899 4380 AD0D     		.2byte	0xdad
 19900 4382 2A0A0000 		.4byte	0xa2a
 19901 4386 02       		.uleb128 0x2
 19902 4387 91       		.byte	0x91
 19903 4388 77       		.sleb128 -9
 19904 4389 00       		.byte	0
 19905 438a 22       		.uleb128 0x22
 19906 438b 63090000 		.4byte	.LASF629
 19907 438f 01       		.byte	0x1
 19908 4390 C20D     		.2byte	0xdc2
 19909 4392 AA0A0000 		.4byte	0xaaa
 19910 4396 90390000 		.4byte	.LFB440
 19911 439a 36000000 		.4byte	.LFE440-.LFB440
 19912 439e 01       		.uleb128 0x1
 19913 439f 9C       		.byte	0x9c
 19914 43a0 C3430000 		.4byte	0x43c3
 19915 43a4 23       		.uleb128 0x23
 19916 43a5 CC000000 		.4byte	.LASF452
 19917 43a9 01       		.byte	0x1
 19918 43aa C20D     		.2byte	0xdc2
 19919 43ac 3E030000 		.4byte	0x33e
 19920 43b0 02       		.uleb128 0x2
 19921 43b1 91       		.byte	0x91
 19922 43b2 74       		.sleb128 -12
 19923 43b3 23       		.uleb128 0x23
 19924 43b4 09130000 		.4byte	.LASF447
 19925 43b8 01       		.byte	0x1
 19926 43b9 C20D     		.2byte	0xdc2
 19927 43bb C3430000 		.4byte	0x43c3
 19928 43bf 02       		.uleb128 0x2
 19929 43c0 91       		.byte	0x91
 19930 43c1 70       		.sleb128 -16
 19931 43c2 00       		.byte	0
 19932 43c3 09       		.uleb128 0x9
 19933 43c4 04       		.byte	0x4
 19934 43c5 89150000 		.4byte	0x1589
 19935 43c9 22       		.uleb128 0x22
ARM GAS  /tmp/ccRrg1qB.s 			page 354


 19936 43ca 0C090000 		.4byte	.LASF630
 19937 43ce 01       		.byte	0x1
 19938 43cf D30D     		.2byte	0xdd3
 19939 43d1 AA0A0000 		.4byte	0xaaa
 19940 43d5 D0390000 		.4byte	.LFB441
 19941 43d9 68000000 		.4byte	.LFE441-.LFB441
 19942 43dd 01       		.uleb128 0x1
 19943 43de 9C       		.byte	0x9c
 19944 43df 11440000 		.4byte	0x4411
 19945 43e3 23       		.uleb128 0x23
 19946 43e4 CC000000 		.4byte	.LASF452
 19947 43e8 01       		.byte	0x1
 19948 43e9 D30D     		.2byte	0xdd3
 19949 43eb 3E030000 		.4byte	0x33e
 19950 43ef 02       		.uleb128 0x2
 19951 43f0 91       		.byte	0x91
 19952 43f1 6C       		.sleb128 -20
 19953 43f2 23       		.uleb128 0x23
 19954 43f3 E3280000 		.4byte	.LASF457
 19955 43f7 01       		.byte	0x1
 19956 43f8 D30D     		.2byte	0xdd3
 19957 43fa AB150000 		.4byte	0x15ab
 19958 43fe 02       		.uleb128 0x2
 19959 43ff 91       		.byte	0x91
 19960 4400 6B       		.sleb128 -21
 19961 4401 24       		.uleb128 0x24
 19962 4402 09130000 		.4byte	.LASF447
 19963 4406 01       		.byte	0x1
 19964 4407 D50D     		.2byte	0xdd5
 19965 4409 2A0A0000 		.4byte	0xa2a
 19966 440d 02       		.uleb128 0x2
 19967 440e 91       		.byte	0x91
 19968 440f 77       		.sleb128 -9
 19969 4410 00       		.byte	0
 19970 4411 22       		.uleb128 0x22
 19971 4412 E2070000 		.4byte	.LASF631
 19972 4416 01       		.byte	0x1
 19973 4417 EA0D     		.2byte	0xdea
 19974 4419 AA0A0000 		.4byte	0xaaa
 19975 441d 403A0000 		.4byte	.LFB442
 19976 4421 36000000 		.4byte	.LFE442-.LFB442
 19977 4425 01       		.uleb128 0x1
 19978 4426 9C       		.byte	0x9c
 19979 4427 4A440000 		.4byte	0x444a
 19980 442b 23       		.uleb128 0x23
 19981 442c CC000000 		.4byte	.LASF452
 19982 4430 01       		.byte	0x1
 19983 4431 EA0D     		.2byte	0xdea
 19984 4433 3E030000 		.4byte	0x33e
 19985 4437 02       		.uleb128 0x2
 19986 4438 91       		.byte	0x91
 19987 4439 74       		.sleb128 -12
 19988 443a 23       		.uleb128 0x23
 19989 443b 09130000 		.4byte	.LASF447
 19990 443f 01       		.byte	0x1
 19991 4440 EA0D     		.2byte	0xdea
 19992 4442 4A440000 		.4byte	0x444a
ARM GAS  /tmp/ccRrg1qB.s 			page 355


 19993 4446 02       		.uleb128 0x2
 19994 4447 91       		.byte	0x91
 19995 4448 70       		.sleb128 -16
 19996 4449 00       		.byte	0
 19997 444a 09       		.uleb128 0x9
 19998 444b 04       		.byte	0x4
 19999 444c AB150000 		.4byte	0x15ab
 20000 4450 22       		.uleb128 0x22
 20001 4451 C4170000 		.4byte	.LASF632
 20002 4455 01       		.byte	0x1
 20003 4456 FB0D     		.2byte	0xdfb
 20004 4458 AA0A0000 		.4byte	0xaaa
 20005 445c 803A0000 		.4byte	.LFB443
 20006 4460 68000000 		.4byte	.LFE443-.LFB443
 20007 4464 01       		.uleb128 0x1
 20008 4465 9C       		.byte	0x9c
 20009 4466 98440000 		.4byte	0x4498
 20010 446a 23       		.uleb128 0x23
 20011 446b CC000000 		.4byte	.LASF452
 20012 446f 01       		.byte	0x1
 20013 4470 FB0D     		.2byte	0xdfb
 20014 4472 3E030000 		.4byte	0x33e
 20015 4476 02       		.uleb128 0x2
 20016 4477 91       		.byte	0x91
 20017 4478 6C       		.sleb128 -20
 20018 4479 23       		.uleb128 0x23
 20019 447a E3280000 		.4byte	.LASF457
 20020 447e 01       		.byte	0x1
 20021 447f FB0D     		.2byte	0xdfb
 20022 4481 CD150000 		.4byte	0x15cd
 20023 4485 02       		.uleb128 0x2
 20024 4486 91       		.byte	0x91
 20025 4487 6B       		.sleb128 -21
 20026 4488 24       		.uleb128 0x24
 20027 4489 09130000 		.4byte	.LASF447
 20028 448d 01       		.byte	0x1
 20029 448e FD0D     		.2byte	0xdfd
 20030 4490 2A0A0000 		.4byte	0xa2a
 20031 4494 02       		.uleb128 0x2
 20032 4495 91       		.byte	0x91
 20033 4496 77       		.sleb128 -9
 20034 4497 00       		.byte	0
 20035 4498 22       		.uleb128 0x22
 20036 4499 4F170000 		.4byte	.LASF633
 20037 449d 01       		.byte	0x1
 20038 449e 120E     		.2byte	0xe12
 20039 44a0 AA0A0000 		.4byte	0xaaa
 20040 44a4 F03A0000 		.4byte	.LFB444
 20041 44a8 36000000 		.4byte	.LFE444-.LFB444
 20042 44ac 01       		.uleb128 0x1
 20043 44ad 9C       		.byte	0x9c
 20044 44ae D1440000 		.4byte	0x44d1
 20045 44b2 23       		.uleb128 0x23
 20046 44b3 CC000000 		.4byte	.LASF452
 20047 44b7 01       		.byte	0x1
 20048 44b8 120E     		.2byte	0xe12
 20049 44ba 3E030000 		.4byte	0x33e
ARM GAS  /tmp/ccRrg1qB.s 			page 356


 20050 44be 02       		.uleb128 0x2
 20051 44bf 91       		.byte	0x91
 20052 44c0 74       		.sleb128 -12
 20053 44c1 23       		.uleb128 0x23
 20054 44c2 09130000 		.4byte	.LASF447
 20055 44c6 01       		.byte	0x1
 20056 44c7 120E     		.2byte	0xe12
 20057 44c9 D1440000 		.4byte	0x44d1
 20058 44cd 02       		.uleb128 0x2
 20059 44ce 91       		.byte	0x91
 20060 44cf 70       		.sleb128 -16
 20061 44d0 00       		.byte	0
 20062 44d1 09       		.uleb128 0x9
 20063 44d2 04       		.byte	0x4
 20064 44d3 CD150000 		.4byte	0x15cd
 20065 44d7 22       		.uleb128 0x22
 20066 44d8 AF1E0000 		.4byte	.LASF634
 20067 44dc 01       		.byte	0x1
 20068 44dd 230E     		.2byte	0xe23
 20069 44df AA0A0000 		.4byte	0xaaa
 20070 44e3 303B0000 		.4byte	.LFB445
 20071 44e7 36000000 		.4byte	.LFE445-.LFB445
 20072 44eb 01       		.uleb128 0x1
 20073 44ec 9C       		.byte	0x9c
 20074 44ed 10450000 		.4byte	0x4510
 20075 44f1 23       		.uleb128 0x23
 20076 44f2 CC000000 		.4byte	.LASF452
 20077 44f6 01       		.byte	0x1
 20078 44f7 230E     		.2byte	0xe23
 20079 44f9 3E030000 		.4byte	0x33e
 20080 44fd 02       		.uleb128 0x2
 20081 44fe 91       		.byte	0x91
 20082 44ff 74       		.sleb128 -12
 20083 4500 23       		.uleb128 0x23
 20084 4501 09130000 		.4byte	.LASF447
 20085 4505 01       		.byte	0x1
 20086 4506 230E     		.2byte	0xe23
 20087 4508 10450000 		.4byte	0x4510
 20088 450c 02       		.uleb128 0x2
 20089 450d 91       		.byte	0x91
 20090 450e 70       		.sleb128 -16
 20091 450f 00       		.byte	0
 20092 4510 09       		.uleb128 0x9
 20093 4511 04       		.byte	0x4
 20094 4512 EF150000 		.4byte	0x15ef
 20095 4516 22       		.uleb128 0x22
 20096 4517 C0010000 		.4byte	.LASF635
 20097 451b 01       		.byte	0x1
 20098 451c 340E     		.2byte	0xe34
 20099 451e AA0A0000 		.4byte	0xaaa
 20100 4522 703B0000 		.4byte	.LFB446
 20101 4526 36000000 		.4byte	.LFE446-.LFB446
 20102 452a 01       		.uleb128 0x1
 20103 452b 9C       		.byte	0x9c
 20104 452c 4F450000 		.4byte	0x454f
 20105 4530 23       		.uleb128 0x23
 20106 4531 CC000000 		.4byte	.LASF452
ARM GAS  /tmp/ccRrg1qB.s 			page 357


 20107 4535 01       		.byte	0x1
 20108 4536 340E     		.2byte	0xe34
 20109 4538 3E030000 		.4byte	0x33e
 20110 453c 02       		.uleb128 0x2
 20111 453d 91       		.byte	0x91
 20112 453e 74       		.sleb128 -12
 20113 453f 23       		.uleb128 0x23
 20114 4540 09130000 		.4byte	.LASF447
 20115 4544 01       		.byte	0x1
 20116 4545 340E     		.2byte	0xe34
 20117 4547 4F450000 		.4byte	0x454f
 20118 454b 02       		.uleb128 0x2
 20119 454c 91       		.byte	0x91
 20120 454d 70       		.sleb128 -16
 20121 454e 00       		.byte	0
 20122 454f 09       		.uleb128 0x9
 20123 4550 04       		.byte	0x4
 20124 4551 11160000 		.4byte	0x1611
 20125 4555 22       		.uleb128 0x22
 20126 4556 D01E0000 		.4byte	.LASF636
 20127 455a 01       		.byte	0x1
 20128 455b 450E     		.2byte	0xe45
 20129 455d AA0A0000 		.4byte	0xaaa
 20130 4561 B03B0000 		.4byte	.LFB447
 20131 4565 36000000 		.4byte	.LFE447-.LFB447
 20132 4569 01       		.uleb128 0x1
 20133 456a 9C       		.byte	0x9c
 20134 456b 8E450000 		.4byte	0x458e
 20135 456f 23       		.uleb128 0x23
 20136 4570 CC000000 		.4byte	.LASF452
 20137 4574 01       		.byte	0x1
 20138 4575 450E     		.2byte	0xe45
 20139 4577 3E030000 		.4byte	0x33e
 20140 457b 02       		.uleb128 0x2
 20141 457c 91       		.byte	0x91
 20142 457d 74       		.sleb128 -12
 20143 457e 23       		.uleb128 0x23
 20144 457f 09130000 		.4byte	.LASF447
 20145 4583 01       		.byte	0x1
 20146 4584 450E     		.2byte	0xe45
 20147 4586 8E450000 		.4byte	0x458e
 20148 458a 02       		.uleb128 0x2
 20149 458b 91       		.byte	0x91
 20150 458c 70       		.sleb128 -16
 20151 458d 00       		.byte	0
 20152 458e 09       		.uleb128 0x9
 20153 458f 04       		.byte	0x4
 20154 4590 33160000 		.4byte	0x1633
 20155 4594 22       		.uleb128 0x22
 20156 4595 F4310000 		.4byte	.LASF637
 20157 4599 01       		.byte	0x1
 20158 459a 560E     		.2byte	0xe56
 20159 459c AA0A0000 		.4byte	0xaaa
 20160 45a0 F03B0000 		.4byte	.LFB448
 20161 45a4 36000000 		.4byte	.LFE448-.LFB448
 20162 45a8 01       		.uleb128 0x1
 20163 45a9 9C       		.byte	0x9c
ARM GAS  /tmp/ccRrg1qB.s 			page 358


 20164 45aa CD450000 		.4byte	0x45cd
 20165 45ae 23       		.uleb128 0x23
 20166 45af CC000000 		.4byte	.LASF452
 20167 45b3 01       		.byte	0x1
 20168 45b4 560E     		.2byte	0xe56
 20169 45b6 3E030000 		.4byte	0x33e
 20170 45ba 02       		.uleb128 0x2
 20171 45bb 91       		.byte	0x91
 20172 45bc 74       		.sleb128 -12
 20173 45bd 23       		.uleb128 0x23
 20174 45be 09130000 		.4byte	.LASF447
 20175 45c2 01       		.byte	0x1
 20176 45c3 560E     		.2byte	0xe56
 20177 45c5 CD450000 		.4byte	0x45cd
 20178 45c9 02       		.uleb128 0x2
 20179 45ca 91       		.byte	0x91
 20180 45cb 70       		.sleb128 -16
 20181 45cc 00       		.byte	0
 20182 45cd 09       		.uleb128 0x9
 20183 45ce 04       		.byte	0x4
 20184 45cf 55160000 		.4byte	0x1655
 20185 45d3 22       		.uleb128 0x22
 20186 45d4 47160000 		.4byte	.LASF638
 20187 45d8 01       		.byte	0x1
 20188 45d9 670E     		.2byte	0xe67
 20189 45db AA0A0000 		.4byte	0xaaa
 20190 45df 303C0000 		.4byte	.LFB449
 20191 45e3 36000000 		.4byte	.LFE449-.LFB449
 20192 45e7 01       		.uleb128 0x1
 20193 45e8 9C       		.byte	0x9c
 20194 45e9 0C460000 		.4byte	0x460c
 20195 45ed 23       		.uleb128 0x23
 20196 45ee CC000000 		.4byte	.LASF452
 20197 45f2 01       		.byte	0x1
 20198 45f3 670E     		.2byte	0xe67
 20199 45f5 3E030000 		.4byte	0x33e
 20200 45f9 02       		.uleb128 0x2
 20201 45fa 91       		.byte	0x91
 20202 45fb 74       		.sleb128 -12
 20203 45fc 23       		.uleb128 0x23
 20204 45fd 09130000 		.4byte	.LASF447
 20205 4601 01       		.byte	0x1
 20206 4602 670E     		.2byte	0xe67
 20207 4604 0C460000 		.4byte	0x460c
 20208 4608 02       		.uleb128 0x2
 20209 4609 91       		.byte	0x91
 20210 460a 70       		.sleb128 -16
 20211 460b 00       		.byte	0
 20212 460c 09       		.uleb128 0x9
 20213 460d 04       		.byte	0x4
 20214 460e 77160000 		.4byte	0x1677
 20215 4612 22       		.uleb128 0x22
 20216 4613 80200000 		.4byte	.LASF639
 20217 4617 01       		.byte	0x1
 20218 4618 780E     		.2byte	0xe78
 20219 461a AA0A0000 		.4byte	0xaaa
 20220 461e 703C0000 		.4byte	.LFB450
ARM GAS  /tmp/ccRrg1qB.s 			page 359


 20221 4622 36000000 		.4byte	.LFE450-.LFB450
 20222 4626 01       		.uleb128 0x1
 20223 4627 9C       		.byte	0x9c
 20224 4628 4B460000 		.4byte	0x464b
 20225 462c 23       		.uleb128 0x23
 20226 462d CC000000 		.4byte	.LASF452
 20227 4631 01       		.byte	0x1
 20228 4632 780E     		.2byte	0xe78
 20229 4634 3E030000 		.4byte	0x33e
 20230 4638 02       		.uleb128 0x2
 20231 4639 91       		.byte	0x91
 20232 463a 74       		.sleb128 -12
 20233 463b 23       		.uleb128 0x23
 20234 463c 09130000 		.4byte	.LASF447
 20235 4640 01       		.byte	0x1
 20236 4641 780E     		.2byte	0xe78
 20237 4643 4B460000 		.4byte	0x464b
 20238 4647 02       		.uleb128 0x2
 20239 4648 91       		.byte	0x91
 20240 4649 70       		.sleb128 -16
 20241 464a 00       		.byte	0
 20242 464b 09       		.uleb128 0x9
 20243 464c 04       		.byte	0x4
 20244 464d 99160000 		.4byte	0x1699
 20245 4651 22       		.uleb128 0x22
 20246 4652 9C200000 		.4byte	.LASF640
 20247 4656 01       		.byte	0x1
 20248 4657 890E     		.2byte	0xe89
 20249 4659 AA0A0000 		.4byte	0xaaa
 20250 465d B03C0000 		.4byte	.LFB451
 20251 4661 36000000 		.4byte	.LFE451-.LFB451
 20252 4665 01       		.uleb128 0x1
 20253 4666 9C       		.byte	0x9c
 20254 4667 8A460000 		.4byte	0x468a
 20255 466b 23       		.uleb128 0x23
 20256 466c CC000000 		.4byte	.LASF452
 20257 4670 01       		.byte	0x1
 20258 4671 890E     		.2byte	0xe89
 20259 4673 3E030000 		.4byte	0x33e
 20260 4677 02       		.uleb128 0x2
 20261 4678 91       		.byte	0x91
 20262 4679 74       		.sleb128 -12
 20263 467a 23       		.uleb128 0x23
 20264 467b 09130000 		.4byte	.LASF447
 20265 467f 01       		.byte	0x1
 20266 4680 890E     		.2byte	0xe89
 20267 4682 8A460000 		.4byte	0x468a
 20268 4686 02       		.uleb128 0x2
 20269 4687 91       		.byte	0x91
 20270 4688 70       		.sleb128 -16
 20271 4689 00       		.byte	0
 20272 468a 09       		.uleb128 0x9
 20273 468b 04       		.byte	0x4
 20274 468c BC160000 		.4byte	0x16bc
 20275 4690 22       		.uleb128 0x22
 20276 4691 6A340000 		.4byte	.LASF641
 20277 4695 01       		.byte	0x1
ARM GAS  /tmp/ccRrg1qB.s 			page 360


 20278 4696 9A0E     		.2byte	0xe9a
 20279 4698 AA0A0000 		.4byte	0xaaa
 20280 469c F03C0000 		.4byte	.LFB452
 20281 46a0 74000000 		.4byte	.LFE452-.LFB452
 20282 46a4 01       		.uleb128 0x1
 20283 46a5 9C       		.byte	0x9c
 20284 46a6 D8460000 		.4byte	0x46d8
 20285 46aa 23       		.uleb128 0x23
 20286 46ab CC000000 		.4byte	.LASF452
 20287 46af 01       		.byte	0x1
 20288 46b0 9A0E     		.2byte	0xe9a
 20289 46b2 3E030000 		.4byte	0x33e
 20290 46b6 02       		.uleb128 0x2
 20291 46b7 91       		.byte	0x91
 20292 46b8 6C       		.sleb128 -20
 20293 46b9 23       		.uleb128 0x23
 20294 46ba E3280000 		.4byte	.LASF457
 20295 46be 01       		.byte	0x1
 20296 46bf 9A0E     		.2byte	0xe9a
 20297 46c1 2A0A0000 		.4byte	0xa2a
 20298 46c5 02       		.uleb128 0x2
 20299 46c6 91       		.byte	0x91
 20300 46c7 6B       		.sleb128 -21
 20301 46c8 24       		.uleb128 0x24
 20302 46c9 09130000 		.4byte	.LASF447
 20303 46cd 01       		.byte	0x1
 20304 46ce 9C0E     		.2byte	0xe9c
 20305 46d0 2A0A0000 		.4byte	0xa2a
 20306 46d4 02       		.uleb128 0x2
 20307 46d5 91       		.byte	0x91
 20308 46d6 77       		.sleb128 -9
 20309 46d7 00       		.byte	0
 20310 46d8 22       		.uleb128 0x22
 20311 46d9 F0100000 		.4byte	.LASF642
 20312 46dd 01       		.byte	0x1
 20313 46de B40E     		.2byte	0xeb4
 20314 46e0 AA0A0000 		.4byte	0xaaa
 20315 46e4 703D0000 		.4byte	.LFB453
 20316 46e8 3E000000 		.4byte	.LFE453-.LFB453
 20317 46ec 01       		.uleb128 0x1
 20318 46ed 9C       		.byte	0x9c
 20319 46ee 11470000 		.4byte	0x4711
 20320 46f2 23       		.uleb128 0x23
 20321 46f3 CC000000 		.4byte	.LASF452
 20322 46f7 01       		.byte	0x1
 20323 46f8 B40E     		.2byte	0xeb4
 20324 46fa 3E030000 		.4byte	0x33e
 20325 46fe 02       		.uleb128 0x2
 20326 46ff 91       		.byte	0x91
 20327 4700 74       		.sleb128 -12
 20328 4701 23       		.uleb128 0x23
 20329 4702 09130000 		.4byte	.LASF447
 20330 4706 01       		.byte	0x1
 20331 4707 B40E     		.2byte	0xeb4
 20332 4709 8D170000 		.4byte	0x178d
 20333 470d 02       		.uleb128 0x2
 20334 470e 91       		.byte	0x91
ARM GAS  /tmp/ccRrg1qB.s 			page 361


 20335 470f 70       		.sleb128 -16
 20336 4710 00       		.byte	0
 20337 4711 22       		.uleb128 0x22
 20338 4712 56330000 		.4byte	.LASF643
 20339 4716 01       		.byte	0x1
 20340 4717 C60E     		.2byte	0xec6
 20341 4719 AA0A0000 		.4byte	0xaaa
 20342 471d B03D0000 		.4byte	.LFB454
 20343 4721 74000000 		.4byte	.LFE454-.LFB454
 20344 4725 01       		.uleb128 0x1
 20345 4726 9C       		.byte	0x9c
 20346 4727 59470000 		.4byte	0x4759
 20347 472b 23       		.uleb128 0x23
 20348 472c CC000000 		.4byte	.LASF452
 20349 4730 01       		.byte	0x1
 20350 4731 C60E     		.2byte	0xec6
 20351 4733 3E030000 		.4byte	0x33e
 20352 4737 02       		.uleb128 0x2
 20353 4738 91       		.byte	0x91
 20354 4739 6C       		.sleb128 -20
 20355 473a 23       		.uleb128 0x23
 20356 473b E3280000 		.4byte	.LASF457
 20357 473f 01       		.byte	0x1
 20358 4740 C60E     		.2byte	0xec6
 20359 4742 2A0A0000 		.4byte	0xa2a
 20360 4746 02       		.uleb128 0x2
 20361 4747 91       		.byte	0x91
 20362 4748 6B       		.sleb128 -21
 20363 4749 24       		.uleb128 0x24
 20364 474a 09130000 		.4byte	.LASF447
 20365 474e 01       		.byte	0x1
 20366 474f C80E     		.2byte	0xec8
 20367 4751 2A0A0000 		.4byte	0xa2a
 20368 4755 02       		.uleb128 0x2
 20369 4756 91       		.byte	0x91
 20370 4757 77       		.sleb128 -9
 20371 4758 00       		.byte	0
 20372 4759 22       		.uleb128 0x22
 20373 475a 6E370000 		.4byte	.LASF644
 20374 475e 01       		.byte	0x1
 20375 475f E00E     		.2byte	0xee0
 20376 4761 AA0A0000 		.4byte	0xaaa
 20377 4765 303E0000 		.4byte	.LFB455
 20378 4769 3E000000 		.4byte	.LFE455-.LFB455
 20379 476d 01       		.uleb128 0x1
 20380 476e 9C       		.byte	0x9c
 20381 476f 92470000 		.4byte	0x4792
 20382 4773 23       		.uleb128 0x23
 20383 4774 CC000000 		.4byte	.LASF452
 20384 4778 01       		.byte	0x1
 20385 4779 E00E     		.2byte	0xee0
 20386 477b 3E030000 		.4byte	0x33e
 20387 477f 02       		.uleb128 0x2
 20388 4780 91       		.byte	0x91
 20389 4781 74       		.sleb128 -12
 20390 4782 23       		.uleb128 0x23
 20391 4783 09130000 		.4byte	.LASF447
ARM GAS  /tmp/ccRrg1qB.s 			page 362


 20392 4787 01       		.byte	0x1
 20393 4788 E00E     		.2byte	0xee0
 20394 478a 8D170000 		.4byte	0x178d
 20395 478e 02       		.uleb128 0x2
 20396 478f 91       		.byte	0x91
 20397 4790 70       		.sleb128 -16
 20398 4791 00       		.byte	0
 20399 4792 22       		.uleb128 0x22
 20400 4793 52350000 		.4byte	.LASF645
 20401 4797 01       		.byte	0x1
 20402 4798 F20E     		.2byte	0xef2
 20403 479a AA0A0000 		.4byte	0xaaa
 20404 479e 703E0000 		.4byte	.LFB456
 20405 47a2 60000000 		.4byte	.LFE456-.LFB456
 20406 47a6 01       		.uleb128 0x1
 20407 47a7 9C       		.byte	0x9c
 20408 47a8 DA470000 		.4byte	0x47da
 20409 47ac 23       		.uleb128 0x23
 20410 47ad CC000000 		.4byte	.LASF452
 20411 47b1 01       		.byte	0x1
 20412 47b2 F20E     		.2byte	0xef2
 20413 47b4 3E030000 		.4byte	0x33e
 20414 47b8 02       		.uleb128 0x2
 20415 47b9 91       		.byte	0x91
 20416 47ba 6C       		.sleb128 -20
 20417 47bb 23       		.uleb128 0x23
 20418 47bc E3280000 		.4byte	.LASF457
 20419 47c0 01       		.byte	0x1
 20420 47c1 F20E     		.2byte	0xef2
 20421 47c3 2A0A0000 		.4byte	0xa2a
 20422 47c7 02       		.uleb128 0x2
 20423 47c8 91       		.byte	0x91
 20424 47c9 6B       		.sleb128 -21
 20425 47ca 24       		.uleb128 0x24
 20426 47cb 09130000 		.4byte	.LASF447
 20427 47cf 01       		.byte	0x1
 20428 47d0 F40E     		.2byte	0xef4
 20429 47d2 2A0A0000 		.4byte	0xa2a
 20430 47d6 02       		.uleb128 0x2
 20431 47d7 91       		.byte	0x91
 20432 47d8 77       		.sleb128 -9
 20433 47d9 00       		.byte	0
 20434 47da 22       		.uleb128 0x22
 20435 47db EA110000 		.4byte	.LASF646
 20436 47df 01       		.byte	0x1
 20437 47e0 0C0F     		.2byte	0xf0c
 20438 47e2 AA0A0000 		.4byte	0xaaa
 20439 47e6 D03E0000 		.4byte	.LFB457
 20440 47ea 38000000 		.4byte	.LFE457-.LFB457
 20441 47ee 01       		.uleb128 0x1
 20442 47ef 9C       		.byte	0x9c
 20443 47f0 13480000 		.4byte	0x4813
 20444 47f4 23       		.uleb128 0x23
 20445 47f5 CC000000 		.4byte	.LASF452
 20446 47f9 01       		.byte	0x1
 20447 47fa 0C0F     		.2byte	0xf0c
 20448 47fc 3E030000 		.4byte	0x33e
ARM GAS  /tmp/ccRrg1qB.s 			page 363


 20449 4800 02       		.uleb128 0x2
 20450 4801 91       		.byte	0x91
 20451 4802 74       		.sleb128 -12
 20452 4803 23       		.uleb128 0x23
 20453 4804 09130000 		.4byte	.LASF447
 20454 4808 01       		.byte	0x1
 20455 4809 0C0F     		.2byte	0xf0c
 20456 480b 8D170000 		.4byte	0x178d
 20457 480f 02       		.uleb128 0x2
 20458 4810 91       		.byte	0x91
 20459 4811 70       		.sleb128 -16
 20460 4812 00       		.byte	0
 20461 4813 22       		.uleb128 0x22
 20462 4814 26270000 		.4byte	.LASF647
 20463 4818 01       		.byte	0x1
 20464 4819 1E0F     		.2byte	0xf1e
 20465 481b AA0A0000 		.4byte	0xaaa
 20466 481f 103F0000 		.4byte	.LFB458
 20467 4823 60000000 		.4byte	.LFE458-.LFB458
 20468 4827 01       		.uleb128 0x1
 20469 4828 9C       		.byte	0x9c
 20470 4829 5B480000 		.4byte	0x485b
 20471 482d 23       		.uleb128 0x23
 20472 482e CC000000 		.4byte	.LASF452
 20473 4832 01       		.byte	0x1
 20474 4833 1E0F     		.2byte	0xf1e
 20475 4835 3E030000 		.4byte	0x33e
 20476 4839 02       		.uleb128 0x2
 20477 483a 91       		.byte	0x91
 20478 483b 6C       		.sleb128 -20
 20479 483c 23       		.uleb128 0x23
 20480 483d E3280000 		.4byte	.LASF457
 20481 4841 01       		.byte	0x1
 20482 4842 1E0F     		.2byte	0xf1e
 20483 4844 2A0A0000 		.4byte	0xa2a
 20484 4848 02       		.uleb128 0x2
 20485 4849 91       		.byte	0x91
 20486 484a 6B       		.sleb128 -21
 20487 484b 24       		.uleb128 0x24
 20488 484c 09130000 		.4byte	.LASF447
 20489 4850 01       		.byte	0x1
 20490 4851 200F     		.2byte	0xf20
 20491 4853 2A0A0000 		.4byte	0xa2a
 20492 4857 02       		.uleb128 0x2
 20493 4858 91       		.byte	0x91
 20494 4859 77       		.sleb128 -9
 20495 485a 00       		.byte	0
 20496 485b 22       		.uleb128 0x22
 20497 485c 04250000 		.4byte	.LASF648
 20498 4860 01       		.byte	0x1
 20499 4861 380F     		.2byte	0xf38
 20500 4863 AA0A0000 		.4byte	0xaaa
 20501 4867 703F0000 		.4byte	.LFB459
 20502 486b 38000000 		.4byte	.LFE459-.LFB459
 20503 486f 01       		.uleb128 0x1
 20504 4870 9C       		.byte	0x9c
 20505 4871 94480000 		.4byte	0x4894
ARM GAS  /tmp/ccRrg1qB.s 			page 364


 20506 4875 23       		.uleb128 0x23
 20507 4876 CC000000 		.4byte	.LASF452
 20508 487a 01       		.byte	0x1
 20509 487b 380F     		.2byte	0xf38
 20510 487d 3E030000 		.4byte	0x33e
 20511 4881 02       		.uleb128 0x2
 20512 4882 91       		.byte	0x91
 20513 4883 74       		.sleb128 -12
 20514 4884 23       		.uleb128 0x23
 20515 4885 09130000 		.4byte	.LASF447
 20516 4889 01       		.byte	0x1
 20517 488a 380F     		.2byte	0xf38
 20518 488c 8D170000 		.4byte	0x178d
 20519 4890 02       		.uleb128 0x2
 20520 4891 91       		.byte	0x91
 20521 4892 70       		.sleb128 -16
 20522 4893 00       		.byte	0
 20523 4894 22       		.uleb128 0x22
 20524 4895 1C220000 		.4byte	.LASF649
 20525 4899 01       		.byte	0x1
 20526 489a 4A0F     		.2byte	0xf4a
 20527 489c AA0A0000 		.4byte	0xaaa
 20528 48a0 B03F0000 		.4byte	.LFB460
 20529 48a4 86000000 		.4byte	.LFE460-.LFB460
 20530 48a8 01       		.uleb128 0x1
 20531 48a9 9C       		.byte	0x9c
 20532 48aa 03490000 		.4byte	0x4903
 20533 48ae 23       		.uleb128 0x23
 20534 48af CC000000 		.4byte	.LASF452
 20535 48b3 01       		.byte	0x1
 20536 48b4 4A0F     		.2byte	0xf4a
 20537 48b6 3E030000 		.4byte	0x33e
 20538 48ba 02       		.uleb128 0x2
 20539 48bb 91       		.byte	0x91
 20540 48bc 6C       		.sleb128 -20
 20541 48bd 23       		.uleb128 0x23
 20542 48be 461F0000 		.4byte	.LASF462
 20543 48c2 01       		.byte	0x1
 20544 48c3 4A0F     		.2byte	0xf4a
 20545 48c5 8D170000 		.4byte	0x178d
 20546 48c9 02       		.uleb128 0x2
 20547 48ca 91       		.byte	0x91
 20548 48cb 68       		.sleb128 -24
 20549 48cc 25       		.uleb128 0x25
 20550 48cd 6900     		.ascii	"i\000"
 20551 48cf 01       		.byte	0x1
 20552 48d0 4C0F     		.2byte	0xf4c
 20553 48d2 2A0A0000 		.4byte	0xa2a
 20554 48d6 02       		.uleb128 0x2
 20555 48d7 91       		.byte	0x91
 20556 48d8 77       		.sleb128 -9
 20557 48d9 25       		.uleb128 0x25
 20558 48da 6A00     		.ascii	"j\000"
 20559 48dc 01       		.byte	0x1
 20560 48dd 4C0F     		.2byte	0xf4c
 20561 48df 2A0A0000 		.4byte	0xa2a
 20562 48e3 02       		.uleb128 0x2
ARM GAS  /tmp/ccRrg1qB.s 			page 365


 20563 48e4 91       		.byte	0x91
 20564 48e5 76       		.sleb128 -10
 20565 48e6 25       		.uleb128 0x25
 20566 48e7 6B00     		.ascii	"k\000"
 20567 48e9 01       		.byte	0x1
 20568 48ea 4C0F     		.2byte	0xf4c
 20569 48ec 2A0A0000 		.4byte	0xa2a
 20570 48f0 02       		.uleb128 0x2
 20571 48f1 91       		.byte	0x91
 20572 48f2 75       		.sleb128 -11
 20573 48f3 24       		.uleb128 0x24
 20574 48f4 EE210000 		.4byte	.LASF650
 20575 48f8 01       		.byte	0x1
 20576 48f9 4D0F     		.2byte	0xf4d
 20577 48fb 2A0A0000 		.4byte	0xa2a
 20578 48ff 02       		.uleb128 0x2
 20579 4900 91       		.byte	0x91
 20580 4901 74       		.sleb128 -12
 20581 4902 00       		.byte	0
 20582 4903 1F       		.uleb128 0x1f
 20583 4904 611F0000 		.4byte	.LASF651
 20584 4908 01       		.byte	0x1
 20585 4909 3B       		.byte	0x3b
 20586 490a 0D0A0000 		.4byte	0xa0d
 20587 490e 05       		.uleb128 0x5
 20588 490f 03       		.byte	0x3
 20589 4910 00000000 		.4byte	lsm303ad_accel_cfg
 20590 4914 26       		.uleb128 0x26
 20591 4915 6B300000 		.4byte	.LASF652
 20592 4919 13       		.byte	0x13
 20593 491a FA06     		.2byte	0x6fa
 20594 491c 20490000 		.4byte	0x4920
 20595 4920 0F       		.uleb128 0xf
 20596 4921 C3000000 		.4byte	0xc3
 20597 4925 27       		.uleb128 0x27
 20598 4926 636800   		.ascii	"ch\000"
 20599 4929 07       		.byte	0x7
 20600 492a 0902     		.2byte	0x209
 20601 492c 0D040000 		.4byte	0x40d
 20602 4930 17       		.uleb128 0x17
 20603 4931 94000000 		.4byte	0x94
 20604 4935 46490000 		.4byte	0x4946
 20605 4939 18       		.uleb128 0x18
 20606 493a 74040000 		.4byte	0x474
 20607 493e 02       		.byte	0x2
 20608 493f 18       		.uleb128 0x18
 20609 4940 74040000 		.4byte	0x474
 20610 4944 03       		.byte	0x3
 20611 4945 00       		.byte	0
 20612 4946 28       		.uleb128 0x28
 20613 4947 7E1A0000 		.4byte	.LASF653
 20614 494b 01       		.byte	0x1
 20615 494c 0201     		.2byte	0x102
 20616 494e 58490000 		.4byte	0x4958
 20617 4952 05       		.uleb128 0x5
 20618 4953 03       		.byte	0x3
 20619 4954 00000000 		.4byte	LSM303AGR_ACC_Sensitivity_List
ARM GAS  /tmp/ccRrg1qB.s 			page 366


 20620 4958 16       		.uleb128 0x16
 20621 4959 30490000 		.4byte	0x4930
 20622 495d 00       		.byte	0
 20623              		.section	.debug_abbrev,"",%progbits
 20624              	.Ldebug_abbrev0:
 20625 0000 01       		.uleb128 0x1
 20626 0001 11       		.uleb128 0x11
 20627 0002 01       		.byte	0x1
 20628 0003 25       		.uleb128 0x25
 20629 0004 0E       		.uleb128 0xe
 20630 0005 13       		.uleb128 0x13
 20631 0006 0B       		.uleb128 0xb
 20632 0007 03       		.uleb128 0x3
 20633 0008 0E       		.uleb128 0xe
 20634 0009 1B       		.uleb128 0x1b
 20635 000a 0E       		.uleb128 0xe
 20636 000b 11       		.uleb128 0x11
 20637 000c 01       		.uleb128 0x1
 20638 000d 12       		.uleb128 0x12
 20639 000e 06       		.uleb128 0x6
 20640 000f 10       		.uleb128 0x10
 20641 0010 17       		.uleb128 0x17
 20642 0011 00       		.byte	0
 20643 0012 00       		.byte	0
 20644 0013 02       		.uleb128 0x2
 20645 0014 24       		.uleb128 0x24
 20646 0015 00       		.byte	0
 20647 0016 0B       		.uleb128 0xb
 20648 0017 0B       		.uleb128 0xb
 20649 0018 3E       		.uleb128 0x3e
 20650 0019 0B       		.uleb128 0xb
 20651 001a 03       		.uleb128 0x3
 20652 001b 08       		.uleb128 0x8
 20653 001c 00       		.byte	0
 20654 001d 00       		.byte	0
 20655 001e 03       		.uleb128 0x3
 20656 001f 16       		.uleb128 0x16
 20657 0020 00       		.byte	0
 20658 0021 03       		.uleb128 0x3
 20659 0022 0E       		.uleb128 0xe
 20660 0023 3A       		.uleb128 0x3a
 20661 0024 0B       		.uleb128 0xb
 20662 0025 3B       		.uleb128 0x3b
 20663 0026 0B       		.uleb128 0xb
 20664 0027 49       		.uleb128 0x49
 20665 0028 13       		.uleb128 0x13
 20666 0029 00       		.byte	0
 20667 002a 00       		.byte	0
 20668 002b 04       		.uleb128 0x4
 20669 002c 24       		.uleb128 0x24
 20670 002d 00       		.byte	0
 20671 002e 0B       		.uleb128 0xb
 20672 002f 0B       		.uleb128 0xb
 20673 0030 3E       		.uleb128 0x3e
 20674 0031 0B       		.uleb128 0xb
 20675 0032 03       		.uleb128 0x3
 20676 0033 0E       		.uleb128 0xe
ARM GAS  /tmp/ccRrg1qB.s 			page 367


 20677 0034 00       		.byte	0
 20678 0035 00       		.byte	0
 20679 0036 05       		.uleb128 0x5
 20680 0037 13       		.uleb128 0x13
 20681 0038 01       		.byte	0x1
 20682 0039 03       		.uleb128 0x3
 20683 003a 0E       		.uleb128 0xe
 20684 003b 0B       		.uleb128 0xb
 20685 003c 0B       		.uleb128 0xb
 20686 003d 3A       		.uleb128 0x3a
 20687 003e 0B       		.uleb128 0xb
 20688 003f 3B       		.uleb128 0x3b
 20689 0040 0B       		.uleb128 0xb
 20690 0041 01       		.uleb128 0x1
 20691 0042 13       		.uleb128 0x13
 20692 0043 00       		.byte	0
 20693 0044 00       		.byte	0
 20694 0045 06       		.uleb128 0x6
 20695 0046 0D       		.uleb128 0xd
 20696 0047 00       		.byte	0
 20697 0048 03       		.uleb128 0x3
 20698 0049 0E       		.uleb128 0xe
 20699 004a 3A       		.uleb128 0x3a
 20700 004b 0B       		.uleb128 0xb
 20701 004c 3B       		.uleb128 0x3b
 20702 004d 0B       		.uleb128 0xb
 20703 004e 49       		.uleb128 0x49
 20704 004f 13       		.uleb128 0x13
 20705 0050 38       		.uleb128 0x38
 20706 0051 0B       		.uleb128 0xb
 20707 0052 00       		.byte	0
 20708 0053 00       		.byte	0
 20709 0054 07       		.uleb128 0x7
 20710 0055 0D       		.uleb128 0xd
 20711 0056 00       		.byte	0
 20712 0057 03       		.uleb128 0x3
 20713 0058 08       		.uleb128 0x8
 20714 0059 3A       		.uleb128 0x3a
 20715 005a 0B       		.uleb128 0xb
 20716 005b 3B       		.uleb128 0x3b
 20717 005c 05       		.uleb128 0x5
 20718 005d 49       		.uleb128 0x49
 20719 005e 13       		.uleb128 0x13
 20720 005f 38       		.uleb128 0x38
 20721 0060 0B       		.uleb128 0xb
 20722 0061 00       		.byte	0
 20723 0062 00       		.byte	0
 20724 0063 08       		.uleb128 0x8
 20725 0064 0D       		.uleb128 0xd
 20726 0065 00       		.byte	0
 20727 0066 03       		.uleb128 0x3
 20728 0067 0E       		.uleb128 0xe
 20729 0068 3A       		.uleb128 0x3a
 20730 0069 0B       		.uleb128 0xb
 20731 006a 3B       		.uleb128 0x3b
 20732 006b 05       		.uleb128 0x5
 20733 006c 49       		.uleb128 0x49
ARM GAS  /tmp/ccRrg1qB.s 			page 368


 20734 006d 13       		.uleb128 0x13
 20735 006e 38       		.uleb128 0x38
 20736 006f 0B       		.uleb128 0xb
 20737 0070 00       		.byte	0
 20738 0071 00       		.byte	0
 20739 0072 09       		.uleb128 0x9
 20740 0073 0F       		.uleb128 0xf
 20741 0074 00       		.byte	0
 20742 0075 0B       		.uleb128 0xb
 20743 0076 0B       		.uleb128 0xb
 20744 0077 49       		.uleb128 0x49
 20745 0078 13       		.uleb128 0x13
 20746 0079 00       		.byte	0
 20747 007a 00       		.byte	0
 20748 007b 0A       		.uleb128 0xa
 20749 007c 13       		.uleb128 0x13
 20750 007d 01       		.byte	0x1
 20751 007e 03       		.uleb128 0x3
 20752 007f 0E       		.uleb128 0xe
 20753 0080 0B       		.uleb128 0xb
 20754 0081 0B       		.uleb128 0xb
 20755 0082 3A       		.uleb128 0x3a
 20756 0083 0B       		.uleb128 0xb
 20757 0084 3B       		.uleb128 0x3b
 20758 0085 05       		.uleb128 0x5
 20759 0086 01       		.uleb128 0x1
 20760 0087 13       		.uleb128 0x13
 20761 0088 00       		.byte	0
 20762 0089 00       		.byte	0
 20763 008a 0B       		.uleb128 0xb
 20764 008b 15       		.uleb128 0x15
 20765 008c 01       		.byte	0x1
 20766 008d 27       		.uleb128 0x27
 20767 008e 19       		.uleb128 0x19
 20768 008f 01       		.uleb128 0x1
 20769 0090 13       		.uleb128 0x13
 20770 0091 00       		.byte	0
 20771 0092 00       		.byte	0
 20772 0093 0C       		.uleb128 0xc
 20773 0094 05       		.uleb128 0x5
 20774 0095 00       		.byte	0
 20775 0096 49       		.uleb128 0x49
 20776 0097 13       		.uleb128 0x13
 20777 0098 00       		.byte	0
 20778 0099 00       		.byte	0
 20779 009a 0D       		.uleb128 0xd
 20780 009b 0F       		.uleb128 0xf
 20781 009c 00       		.byte	0
 20782 009d 0B       		.uleb128 0xb
 20783 009e 0B       		.uleb128 0xb
 20784 009f 00       		.byte	0
 20785 00a0 00       		.byte	0
 20786 00a1 0E       		.uleb128 0xe
 20787 00a2 13       		.uleb128 0x13
 20788 00a3 01       		.byte	0x1
 20789 00a4 03       		.uleb128 0x3
 20790 00a5 0E       		.uleb128 0xe
ARM GAS  /tmp/ccRrg1qB.s 			page 369


 20791 00a6 0B       		.uleb128 0xb
 20792 00a7 05       		.uleb128 0x5
 20793 00a8 3A       		.uleb128 0x3a
 20794 00a9 0B       		.uleb128 0xb
 20795 00aa 3B       		.uleb128 0x3b
 20796 00ab 05       		.uleb128 0x5
 20797 00ac 01       		.uleb128 0x1
 20798 00ad 13       		.uleb128 0x13
 20799 00ae 00       		.byte	0
 20800 00af 00       		.byte	0
 20801 00b0 0F       		.uleb128 0xf
 20802 00b1 35       		.uleb128 0x35
 20803 00b2 00       		.byte	0
 20804 00b3 49       		.uleb128 0x49
 20805 00b4 13       		.uleb128 0x13
 20806 00b5 00       		.byte	0
 20807 00b6 00       		.byte	0
 20808 00b7 10       		.uleb128 0x10
 20809 00b8 13       		.uleb128 0x13
 20810 00b9 01       		.byte	0x1
 20811 00ba 0B       		.uleb128 0xb
 20812 00bb 0B       		.uleb128 0xb
 20813 00bc 3A       		.uleb128 0x3a
 20814 00bd 0B       		.uleb128 0xb
 20815 00be 3B       		.uleb128 0x3b
 20816 00bf 05       		.uleb128 0x5
 20817 00c0 01       		.uleb128 0x1
 20818 00c1 13       		.uleb128 0x13
 20819 00c2 00       		.byte	0
 20820 00c3 00       		.byte	0
 20821 00c4 11       		.uleb128 0x11
 20822 00c5 16       		.uleb128 0x16
 20823 00c6 00       		.byte	0
 20824 00c7 03       		.uleb128 0x3
 20825 00c8 0E       		.uleb128 0xe
 20826 00c9 3A       		.uleb128 0x3a
 20827 00ca 0B       		.uleb128 0xb
 20828 00cb 3B       		.uleb128 0x3b
 20829 00cc 05       		.uleb128 0x5
 20830 00cd 49       		.uleb128 0x49
 20831 00ce 13       		.uleb128 0x13
 20832 00cf 00       		.byte	0
 20833 00d0 00       		.byte	0
 20834 00d1 12       		.uleb128 0x12
 20835 00d2 0D       		.uleb128 0xd
 20836 00d3 00       		.byte	0
 20837 00d4 03       		.uleb128 0x3
 20838 00d5 08       		.uleb128 0x8
 20839 00d6 3A       		.uleb128 0x3a
 20840 00d7 0B       		.uleb128 0xb
 20841 00d8 3B       		.uleb128 0x3b
 20842 00d9 0B       		.uleb128 0xb
 20843 00da 49       		.uleb128 0x49
 20844 00db 13       		.uleb128 0x13
 20845 00dc 38       		.uleb128 0x38
 20846 00dd 0B       		.uleb128 0xb
 20847 00de 00       		.byte	0
ARM GAS  /tmp/ccRrg1qB.s 			page 370


 20848 00df 00       		.byte	0
 20849 00e0 13       		.uleb128 0x13
 20850 00e1 13       		.uleb128 0x13
 20851 00e2 01       		.byte	0x1
 20852 00e3 0B       		.uleb128 0xb
 20853 00e4 0B       		.uleb128 0xb
 20854 00e5 3A       		.uleb128 0x3a
 20855 00e6 0B       		.uleb128 0xb
 20856 00e7 3B       		.uleb128 0x3b
 20857 00e8 0B       		.uleb128 0xb
 20858 00e9 01       		.uleb128 0x1
 20859 00ea 13       		.uleb128 0x13
 20860 00eb 00       		.byte	0
 20861 00ec 00       		.byte	0
 20862 00ed 14       		.uleb128 0x14
 20863 00ee 17       		.uleb128 0x17
 20864 00ef 01       		.byte	0x1
 20865 00f0 0B       		.uleb128 0xb
 20866 00f1 0B       		.uleb128 0xb
 20867 00f2 3A       		.uleb128 0x3a
 20868 00f3 0B       		.uleb128 0xb
 20869 00f4 3B       		.uleb128 0x3b
 20870 00f5 0B       		.uleb128 0xb
 20871 00f6 01       		.uleb128 0x1
 20872 00f7 13       		.uleb128 0x13
 20873 00f8 00       		.byte	0
 20874 00f9 00       		.byte	0
 20875 00fa 15       		.uleb128 0x15
 20876 00fb 0D       		.uleb128 0xd
 20877 00fc 00       		.byte	0
 20878 00fd 03       		.uleb128 0x3
 20879 00fe 0E       		.uleb128 0xe
 20880 00ff 3A       		.uleb128 0x3a
 20881 0100 0B       		.uleb128 0xb
 20882 0101 3B       		.uleb128 0x3b
 20883 0102 05       		.uleb128 0x5
 20884 0103 49       		.uleb128 0x49
 20885 0104 13       		.uleb128 0x13
 20886 0105 00       		.byte	0
 20887 0106 00       		.byte	0
 20888 0107 16       		.uleb128 0x16
 20889 0108 26       		.uleb128 0x26
 20890 0109 00       		.byte	0
 20891 010a 49       		.uleb128 0x49
 20892 010b 13       		.uleb128 0x13
 20893 010c 00       		.byte	0
 20894 010d 00       		.byte	0
 20895 010e 17       		.uleb128 0x17
 20896 010f 01       		.uleb128 0x1
 20897 0110 01       		.byte	0x1
 20898 0111 49       		.uleb128 0x49
 20899 0112 13       		.uleb128 0x13
 20900 0113 01       		.uleb128 0x1
 20901 0114 13       		.uleb128 0x13
 20902 0115 00       		.byte	0
 20903 0116 00       		.byte	0
 20904 0117 18       		.uleb128 0x18
ARM GAS  /tmp/ccRrg1qB.s 			page 371


 20905 0118 21       		.uleb128 0x21
 20906 0119 00       		.byte	0
 20907 011a 49       		.uleb128 0x49
 20908 011b 13       		.uleb128 0x13
 20909 011c 2F       		.uleb128 0x2f
 20910 011d 0B       		.uleb128 0xb
 20911 011e 00       		.byte	0
 20912 011f 00       		.byte	0
 20913 0120 19       		.uleb128 0x19
 20914 0121 0D       		.uleb128 0xd
 20915 0122 00       		.byte	0
 20916 0123 03       		.uleb128 0x3
 20917 0124 08       		.uleb128 0x8
 20918 0125 3A       		.uleb128 0x3a
 20919 0126 0B       		.uleb128 0xb
 20920 0127 3B       		.uleb128 0x3b
 20921 0128 0B       		.uleb128 0xb
 20922 0129 49       		.uleb128 0x49
 20923 012a 13       		.uleb128 0x13
 20924 012b 00       		.byte	0
 20925 012c 00       		.byte	0
 20926 012d 1A       		.uleb128 0x1a
 20927 012e 04       		.uleb128 0x4
 20928 012f 01       		.byte	0x1
 20929 0130 0B       		.uleb128 0xb
 20930 0131 0B       		.uleb128 0xb
 20931 0132 3A       		.uleb128 0x3a
 20932 0133 0B       		.uleb128 0xb
 20933 0134 3B       		.uleb128 0x3b
 20934 0135 0B       		.uleb128 0xb
 20935 0136 01       		.uleb128 0x1
 20936 0137 13       		.uleb128 0x13
 20937 0138 00       		.byte	0
 20938 0139 00       		.byte	0
 20939 013a 1B       		.uleb128 0x1b
 20940 013b 28       		.uleb128 0x28
 20941 013c 00       		.byte	0
 20942 013d 03       		.uleb128 0x3
 20943 013e 0E       		.uleb128 0xe
 20944 013f 1C       		.uleb128 0x1c
 20945 0140 0D       		.uleb128 0xd
 20946 0141 00       		.byte	0
 20947 0142 00       		.byte	0
 20948 0143 1C       		.uleb128 0x1c
 20949 0144 0D       		.uleb128 0xd
 20950 0145 00       		.byte	0
 20951 0146 03       		.uleb128 0x3
 20952 0147 0E       		.uleb128 0xe
 20953 0148 3A       		.uleb128 0x3a
 20954 0149 0B       		.uleb128 0xb
 20955 014a 3B       		.uleb128 0x3b
 20956 014b 0B       		.uleb128 0xb
 20957 014c 49       		.uleb128 0x49
 20958 014d 13       		.uleb128 0x13
 20959 014e 00       		.byte	0
 20960 014f 00       		.byte	0
 20961 0150 1D       		.uleb128 0x1d
ARM GAS  /tmp/ccRrg1qB.s 			page 372


 20962 0151 04       		.uleb128 0x4
 20963 0152 01       		.byte	0x1
 20964 0153 0B       		.uleb128 0xb
 20965 0154 0B       		.uleb128 0xb
 20966 0155 3A       		.uleb128 0x3a
 20967 0156 0B       		.uleb128 0xb
 20968 0157 3B       		.uleb128 0x3b
 20969 0158 05       		.uleb128 0x5
 20970 0159 01       		.uleb128 0x1
 20971 015a 13       		.uleb128 0x13
 20972 015b 00       		.byte	0
 20973 015c 00       		.byte	0
 20974 015d 1E       		.uleb128 0x1e
 20975 015e 2E       		.uleb128 0x2e
 20976 015f 01       		.byte	0x1
 20977 0160 3F       		.uleb128 0x3f
 20978 0161 19       		.uleb128 0x19
 20979 0162 03       		.uleb128 0x3
 20980 0163 0E       		.uleb128 0xe
 20981 0164 3A       		.uleb128 0x3a
 20982 0165 0B       		.uleb128 0xb
 20983 0166 3B       		.uleb128 0x3b
 20984 0167 0B       		.uleb128 0xb
 20985 0168 27       		.uleb128 0x27
 20986 0169 19       		.uleb128 0x19
 20987 016a 49       		.uleb128 0x49
 20988 016b 13       		.uleb128 0x13
 20989 016c 11       		.uleb128 0x11
 20990 016d 01       		.uleb128 0x1
 20991 016e 12       		.uleb128 0x12
 20992 016f 06       		.uleb128 0x6
 20993 0170 40       		.uleb128 0x40
 20994 0171 18       		.uleb128 0x18
 20995 0172 9642     		.uleb128 0x2116
 20996 0174 19       		.uleb128 0x19
 20997 0175 01       		.uleb128 0x1
 20998 0176 13       		.uleb128 0x13
 20999 0177 00       		.byte	0
 21000 0178 00       		.byte	0
 21001 0179 1F       		.uleb128 0x1f
 21002 017a 34       		.uleb128 0x34
 21003 017b 00       		.byte	0
 21004 017c 03       		.uleb128 0x3
 21005 017d 0E       		.uleb128 0xe
 21006 017e 3A       		.uleb128 0x3a
 21007 017f 0B       		.uleb128 0xb
 21008 0180 3B       		.uleb128 0x3b
 21009 0181 0B       		.uleb128 0xb
 21010 0182 49       		.uleb128 0x49
 21011 0183 13       		.uleb128 0x13
 21012 0184 02       		.uleb128 0x2
 21013 0185 18       		.uleb128 0x18
 21014 0186 00       		.byte	0
 21015 0187 00       		.byte	0
 21016 0188 20       		.uleb128 0x20
 21017 0189 05       		.uleb128 0x5
 21018 018a 00       		.byte	0
ARM GAS  /tmp/ccRrg1qB.s 			page 373


 21019 018b 03       		.uleb128 0x3
 21020 018c 0E       		.uleb128 0xe
 21021 018d 3A       		.uleb128 0x3a
 21022 018e 0B       		.uleb128 0xb
 21023 018f 3B       		.uleb128 0x3b
 21024 0190 0B       		.uleb128 0xb
 21025 0191 49       		.uleb128 0x49
 21026 0192 13       		.uleb128 0x13
 21027 0193 02       		.uleb128 0x2
 21028 0194 18       		.uleb128 0x18
 21029 0195 00       		.byte	0
 21030 0196 00       		.byte	0
 21031 0197 21       		.uleb128 0x21
 21032 0198 05       		.uleb128 0x5
 21033 0199 00       		.byte	0
 21034 019a 03       		.uleb128 0x3
 21035 019b 08       		.uleb128 0x8
 21036 019c 3A       		.uleb128 0x3a
 21037 019d 0B       		.uleb128 0xb
 21038 019e 3B       		.uleb128 0x3b
 21039 019f 0B       		.uleb128 0xb
 21040 01a0 49       		.uleb128 0x49
 21041 01a1 13       		.uleb128 0x13
 21042 01a2 02       		.uleb128 0x2
 21043 01a3 18       		.uleb128 0x18
 21044 01a4 00       		.byte	0
 21045 01a5 00       		.byte	0
 21046 01a6 22       		.uleb128 0x22
 21047 01a7 2E       		.uleb128 0x2e
 21048 01a8 01       		.byte	0x1
 21049 01a9 3F       		.uleb128 0x3f
 21050 01aa 19       		.uleb128 0x19
 21051 01ab 03       		.uleb128 0x3
 21052 01ac 0E       		.uleb128 0xe
 21053 01ad 3A       		.uleb128 0x3a
 21054 01ae 0B       		.uleb128 0xb
 21055 01af 3B       		.uleb128 0x3b
 21056 01b0 05       		.uleb128 0x5
 21057 01b1 27       		.uleb128 0x27
 21058 01b2 19       		.uleb128 0x19
 21059 01b3 49       		.uleb128 0x49
 21060 01b4 13       		.uleb128 0x13
 21061 01b5 11       		.uleb128 0x11
 21062 01b6 01       		.uleb128 0x1
 21063 01b7 12       		.uleb128 0x12
 21064 01b8 06       		.uleb128 0x6
 21065 01b9 40       		.uleb128 0x40
 21066 01ba 18       		.uleb128 0x18
 21067 01bb 9642     		.uleb128 0x2116
 21068 01bd 19       		.uleb128 0x19
 21069 01be 01       		.uleb128 0x1
 21070 01bf 13       		.uleb128 0x13
 21071 01c0 00       		.byte	0
 21072 01c1 00       		.byte	0
 21073 01c2 23       		.uleb128 0x23
 21074 01c3 05       		.uleb128 0x5
 21075 01c4 00       		.byte	0
ARM GAS  /tmp/ccRrg1qB.s 			page 374


 21076 01c5 03       		.uleb128 0x3
 21077 01c6 0E       		.uleb128 0xe
 21078 01c7 3A       		.uleb128 0x3a
 21079 01c8 0B       		.uleb128 0xb
 21080 01c9 3B       		.uleb128 0x3b
 21081 01ca 05       		.uleb128 0x5
 21082 01cb 49       		.uleb128 0x49
 21083 01cc 13       		.uleb128 0x13
 21084 01cd 02       		.uleb128 0x2
 21085 01ce 18       		.uleb128 0x18
 21086 01cf 00       		.byte	0
 21087 01d0 00       		.byte	0
 21088 01d1 24       		.uleb128 0x24
 21089 01d2 34       		.uleb128 0x34
 21090 01d3 00       		.byte	0
 21091 01d4 03       		.uleb128 0x3
 21092 01d5 0E       		.uleb128 0xe
 21093 01d6 3A       		.uleb128 0x3a
 21094 01d7 0B       		.uleb128 0xb
 21095 01d8 3B       		.uleb128 0x3b
 21096 01d9 05       		.uleb128 0x5
 21097 01da 49       		.uleb128 0x49
 21098 01db 13       		.uleb128 0x13
 21099 01dc 02       		.uleb128 0x2
 21100 01dd 18       		.uleb128 0x18
 21101 01de 00       		.byte	0
 21102 01df 00       		.byte	0
 21103 01e0 25       		.uleb128 0x25
 21104 01e1 34       		.uleb128 0x34
 21105 01e2 00       		.byte	0
 21106 01e3 03       		.uleb128 0x3
 21107 01e4 08       		.uleb128 0x8
 21108 01e5 3A       		.uleb128 0x3a
 21109 01e6 0B       		.uleb128 0xb
 21110 01e7 3B       		.uleb128 0x3b
 21111 01e8 05       		.uleb128 0x5
 21112 01e9 49       		.uleb128 0x49
 21113 01ea 13       		.uleb128 0x13
 21114 01eb 02       		.uleb128 0x2
 21115 01ec 18       		.uleb128 0x18
 21116 01ed 00       		.byte	0
 21117 01ee 00       		.byte	0
 21118 01ef 26       		.uleb128 0x26
 21119 01f0 34       		.uleb128 0x34
 21120 01f1 00       		.byte	0
 21121 01f2 03       		.uleb128 0x3
 21122 01f3 0E       		.uleb128 0xe
 21123 01f4 3A       		.uleb128 0x3a
 21124 01f5 0B       		.uleb128 0xb
 21125 01f6 3B       		.uleb128 0x3b
 21126 01f7 05       		.uleb128 0x5
 21127 01f8 49       		.uleb128 0x49
 21128 01f9 13       		.uleb128 0x13
 21129 01fa 3F       		.uleb128 0x3f
 21130 01fb 19       		.uleb128 0x19
 21131 01fc 3C       		.uleb128 0x3c
 21132 01fd 19       		.uleb128 0x19
ARM GAS  /tmp/ccRrg1qB.s 			page 375


 21133 01fe 00       		.byte	0
 21134 01ff 00       		.byte	0
 21135 0200 27       		.uleb128 0x27
 21136 0201 34       		.uleb128 0x34
 21137 0202 00       		.byte	0
 21138 0203 03       		.uleb128 0x3
 21139 0204 08       		.uleb128 0x8
 21140 0205 3A       		.uleb128 0x3a
 21141 0206 0B       		.uleb128 0xb
 21142 0207 3B       		.uleb128 0x3b
 21143 0208 05       		.uleb128 0x5
 21144 0209 49       		.uleb128 0x49
 21145 020a 13       		.uleb128 0x13
 21146 020b 3F       		.uleb128 0x3f
 21147 020c 19       		.uleb128 0x19
 21148 020d 3C       		.uleb128 0x3c
 21149 020e 19       		.uleb128 0x19
 21150 020f 00       		.byte	0
 21151 0210 00       		.byte	0
 21152 0211 28       		.uleb128 0x28
 21153 0212 34       		.uleb128 0x34
 21154 0213 00       		.byte	0
 21155 0214 03       		.uleb128 0x3
 21156 0215 0E       		.uleb128 0xe
 21157 0216 3A       		.uleb128 0x3a
 21158 0217 0B       		.uleb128 0xb
 21159 0218 3B       		.uleb128 0x3b
 21160 0219 05       		.uleb128 0x5
 21161 021a 49       		.uleb128 0x49
 21162 021b 13       		.uleb128 0x13
 21163 021c 3F       		.uleb128 0x3f
 21164 021d 19       		.uleb128 0x19
 21165 021e 02       		.uleb128 0x2
 21166 021f 18       		.uleb128 0x18
 21167 0220 00       		.byte	0
 21168 0221 00       		.byte	0
 21169 0222 00       		.byte	0
 21170              		.section	.debug_aranges,"",%progbits
 21171 0000 1C000000 		.4byte	0x1c
 21172 0004 0200     		.2byte	0x2
 21173 0006 00000000 		.4byte	.Ldebug_info0
 21174 000a 04       		.byte	0x4
 21175 000b 00       		.byte	0
 21176 000c 0000     		.2byte	0
 21177 000e 0000     		.2byte	0
 21178 0010 00000000 		.4byte	.Ltext0
 21179 0014 36400000 		.4byte	.Letext0-.Ltext0
 21180 0018 00000000 		.4byte	0
 21181 001c 00000000 		.4byte	0
 21182              		.section	.debug_line,"",%progbits
 21183              	.Ldebug_line0:
 21184 0000 150B0000 		.section	.debug_str,"MS",%progbits,1
 21184      0200C103 
 21184      00000201 
 21184      FB0E0D00 
 21184      01010101 
 21185              	.LASF99:
ARM GAS  /tmp/ccRrg1qB.s 			page 376


 21186 0000 706F7274 		.ascii	"port_intctx\000"
 21186      5F696E74 
 21186      63747800 
 21187              	.LASF272:
 21188 000c 4C534D33 		.ascii	"LSM303AGR_ACC_SIM_3_WIRES\000"
 21188      30334147 
 21188      525F4143 
 21188      435F5349 
 21188      4D5F335F 
 21189              	.LASF278:
 21190 0026 4C534D33 		.ascii	"LSM303AGR_ACC_ST_t\000"
 21190      30334147 
 21190      525F4143 
 21190      435F5354 
 21190      5F7400
 21191              	.LASF580:
 21192 0039 4C534D33 		.ascii	"LSM303AGR_ACC_W_Int1_6D\000"
 21192      30334147 
 21192      525F4143 
 21192      435F575F 
 21192      496E7431 
 21193              	.LASF522:
 21194 0051 4C534D33 		.ascii	"LSM303AGR_ACC_W_LittleBigEndian\000"
 21194      30334147 
 21194      525F4143 
 21194      435F575F 
 21194      4C697474 
 21195              	.LASF26:
 21196 0071 6D73675F 		.ascii	"msg_t\000"
 21196      7400
 21197              	.LASF410:
 21198 0077 4C534D33 		.ascii	"LSM303AGR_ACC_XD_DISABLED\000"
 21198      30334147 
 21198      525F4143 
 21198      435F5844 
 21198      5F444953 
 21199              	.LASF175:
 21200 0091 4C534D33 		.ascii	"LSM303AGR_ACC_ODR_DO_PWR_DOWN\000"
 21200      30334147 
 21200      525F4143 
 21200      435F4F44 
 21200      525F444F 
 21201              	.LASF339:
 21202 00af 4C534D33 		.ascii	"LSM303AGR_ACC_ZOR_NO_OVERRUN\000"
 21202      30334147 
 21202      525F4143 
 21202      435F5A4F 
 21202      525F4E4F 
 21203              	.LASF452:
 21204 00cc 68616E64 		.ascii	"handle\000"
 21204      6C6500
 21205              	.LASF189:
 21206 00d3 4C534D33 		.ascii	"LSM303AGR_ACC_2DA__NOT_AVAILABLE\000"
 21206      30334147 
 21206      525F4143 
 21206      435F3244 
 21206      415F5F4E 
ARM GAS  /tmp/ccRrg1qB.s 			page 377


 21207              	.LASF361:
 21208 00f4 4C534D33 		.ascii	"LSM303AGR_ACC_WTM_t\000"
 21208      30334147 
 21208      525F4143 
 21208      435F5754 
 21208      4D5F7400 
 21209              	.LASF478:
 21210 0108 4C534D33 		.ascii	"LSM303AGR_ACC_W_TEMP_EN_bits\000"
 21210      30334147 
 21210      525F4143 
 21210      435F575F 
 21210      54454D50 
 21211              	.LASF400:
 21212 0125 4C534D33 		.ascii	"LSM303AGR_ACC_ZL_t\000"
 21212      30334147 
 21212      525F4143 
 21212      435F5A4C 
 21212      5F7400
 21213              	.LASF427:
 21214 0138 4C534D33 		.ascii	"LSM303AGR_ACC_X_t\000"
 21214      30334147 
 21214      525F4143 
 21214      435F585F 
 21214      7400
 21215              	.LASF586:
 21216 014a 4C534D33 		.ascii	"LSM303AGR_ACC_W_Int2EnXHi\000"
 21216      30334147 
 21216      525F4143 
 21216      435F575F 
 21216      496E7432 
 21217              	.LASF77:
 21218 0164 63685F73 		.ascii	"ch_system_t\000"
 21218      79737465 
 21218      6D5F7400 
 21219              	.LASF3:
 21220 0170 5F5F7569 		.ascii	"__uint8_t\000"
 21220      6E74385F 
 21220      7400
 21221              	.LASF106:
 21222 017a 77747365 		.ascii	"wtsemp\000"
 21222      6D7000
 21223              	.LASF547:
 21224 0181 4C534D33 		.ascii	"LSM303AGR_ACC_R_Click_on_INT2\000"
 21224      30334147 
 21224      525F4143 
 21224      435F525F 
 21224      436C6963 
 21225              	.LASF125:
 21226 019f 5F426F6F 		.ascii	"_Bool\000"
 21226      6C00
 21227              	.LASF302:
 21228 01a5 4C534D33 		.ascii	"LSM303AGR_ACC_BOOT_t\000"
 21228      30334147 
 21228      525F4143 
 21228      435F424F 
 21228      4F545F74 
 21229              	.LASF149:
ARM GAS  /tmp/ccRrg1qB.s 			page 378


 21230 01ba 646D6172 		.ascii	"dmarx\000"
 21230      7800
 21231              	.LASF635:
 21232 01c0 4C534D33 		.ascii	"LSM303AGR_ACC_R_ClickY\000"
 21232      30334147 
 21232      525F4143 
 21232      435F525F 
 21232      436C6963 
 21233              	.LASF341:
 21234 01d7 4C534D33 		.ascii	"LSM303AGR_ACC_ZOR_t\000"
 21234      30334147 
 21234      525F4143 
 21234      435F5A4F 
 21234      525F7400 
 21235              	.LASF207:
 21236 01eb 4C534D33 		.ascii	"LSM303AGR_ACC_321OR__NO_OVERRUN\000"
 21236      30334147 
 21236      525F4143 
 21236      435F3332 
 21236      314F525F 
 21237              	.LASF505:
 21238 020b 4C534D33 		.ascii	"LSM303AGR_ACC_R_FIFO_Watermark_on_INT1\000"
 21238      30334147 
 21238      525F4143 
 21238      435F525F 
 21238      4649464F 
 21239              	.LASF537:
 21240 0232 4C534D33 		.ascii	"LSM303AGR_ACC_R_IntActive\000"
 21240      30334147 
 21240      525F4143 
 21240      435F525F 
 21240      496E7441 
 21241              	.LASF570:
 21242 024c 4C534D33 		.ascii	"LSM303AGR_ACC_W_Int1EnXHi\000"
 21242      30334147 
 21242      525F4143 
 21242      435F575F 
 21242      496E7431 
 21243              	.LASF405:
 21244 0266 4C534D33 		.ascii	"LSM303AGR_ACC_IA_UP\000"
 21244      30334147 
 21244      525F4143 
 21244      435F4941 
 21244      5F555000 
 21245              	.LASF365:
 21246 027a 4C534D33 		.ascii	"LSM303AGR_ACC_XHIE_DISABLED\000"
 21246      30334147 
 21246      525F4143 
 21246      435F5848 
 21246      49455F44 
 21247              	.LASF291:
 21248 0296 4C534D33 		.ascii	"LSM303AGR_ACC_D4D_INT1_DISABLED\000"
 21248      30334147 
 21248      525F4143 
 21248      435F4434 
 21248      445F494E 
 21249              	.LASF153:
ARM GAS  /tmp/ccRrg1qB.s 			page 379


 21250 02b6 73706963 		.ascii	"spicallback_t\000"
 21250      616C6C62 
 21250      61636B5F 
 21250      7400
 21251              	.LASF73:
 21252 02c4 76745F73 		.ascii	"vt_systime\000"
 21252      79737469 
 21252      6D6500
 21253              	.LASF387:
 21254 02cf 4C534D33 		.ascii	"LSM303AGR_ACC_XL_UP\000"
 21254      30334147 
 21254      525F4143 
 21254      435F584C 
 21254      5F555000 
 21255              	.LASF545:
 21256 02e3 4C534D33 		.ascii	"LSM303AGR_ACC_R_I2_on_INT1\000"
 21256      30334147 
 21256      525F4143 
 21256      435F525F 
 21256      49325F6F 
 21257              	.LASF543:
 21258 02fe 4C534D33 		.ascii	"LSM303AGR_ACC_R_I2_on_INT2\000"
 21258      30334147 
 21258      525F4143 
 21258      435F525F 
 21258      49325F6F 
 21259              	.LASF115:
 21260 0319 6D5F6E65 		.ascii	"m_next\000"
 21260      787400
 21261              	.LASF484:
 21262 0320 4C534D33 		.ascii	"LSM303AGR_ACC_W_YEN\000"
 21262      30334147 
 21262      525F4143 
 21262      435F575F 
 21262      59454E00 
 21263              	.LASF186:
 21264 0334 4C534D33 		.ascii	"LSM303AGR_ACC_1DA_NOT_AVAILABLE\000"
 21264      30334147 
 21264      525F4143 
 21264      435F3144 
 21264      415F4E4F 
 21265              	.LASF352:
 21266 0354 4C534D33 		.ascii	"LSM303AGR_ACC_FM_t\000"
 21266      30334147 
 21266      525F4143 
 21266      435F464D 
 21266      5F7400
 21267              	.LASF499:
 21268 0367 4C534D33 		.ascii	"LSM303AGR_ACC_R_hpf_cutoff_freq\000"
 21268      30334147 
 21268      525F4143 
 21268      435F525F 
 21268      6870665F 
 21269              	.LASF601:
 21270 0387 4C534D33 		.ascii	"LSM303AGR_ACC_R_Int1_XHi\000"
 21270      30334147 
 21270      525F4143 
ARM GAS  /tmp/ccRrg1qB.s 			page 380


 21270      435F525F 
 21270      496E7431 
 21271              	.LASF16:
 21272 03a0 75696E74 		.ascii	"uint16_t\000"
 21272      31365F74 
 21272      00
 21273              	.LASF549:
 21274 03a9 4C534D33 		.ascii	"LSM303AGR_ACC_R_ReferenceVal\000"
 21274      30334147 
 21274      525F4143 
 21274      435F525F 
 21274      52656665 
 21275              	.LASF150:
 21276 03c6 646D6174 		.ascii	"dmatx\000"
 21276      7800
 21277              	.LASF583:
 21278 03cc 4C534D33 		.ascii	"LSM303AGR_ACC_R_Int1_AOI\000"
 21278      30334147 
 21278      525F4143 
 21278      435F525F 
 21278      496E7431 
 21279              	.LASF473:
 21280 03e5 4C534D33 		.ascii	"LSM303AGR_ACC_R_DataXOverrun\000"
 21280      30334147 
 21280      525F4143 
 21280      435F525F 
 21280      44617461 
 21281              	.LASF467:
 21282 0402 4C534D33 		.ascii	"LSM303AGR_ACC_W_ODR\000"
 21282      30334147 
 21282      525F4143 
 21282      435F575F 
 21282      4F445200 
 21283              	.LASF54:
 21284 0416 63685F74 		.ascii	"ch_threads_queue\000"
 21284      68726561 
 21284      64735F71 
 21284      75657565 
 21284      00
 21285              	.LASF546:
 21286 0427 4C534D33 		.ascii	"LSM303AGR_ACC_W_Click_on_INT2\000"
 21286      30334147 
 21286      525F4143 
 21286      435F575F 
 21286      436C6963 
 21287              	.LASF35:
 21288 0445 705F6E65 		.ascii	"p_newer\000"
 21288      77657200 
 21289              	.LASF329:
 21290 044d 4C534D33 		.ascii	"LSM303AGR_ACC_ZDA_t\000"
 21290      30334147 
 21290      525F4143 
 21290      435F5A44 
 21290      415F7400 
 21291              	.LASF471:
 21292 0461 4C534D33 		.ascii	"LSM303AGR_ACC_R_z_data_avail\000"
 21292      30334147 
ARM GAS  /tmp/ccRrg1qB.s 			page 381


 21292      525F4143 
 21292      435F525F 
 21292      7A5F6461 
 21293              	.LASF139:
 21294 047e 5350495F 		.ascii	"SPI_STOP\000"
 21294      53544F50 
 21294      00
 21295              	.LASF504:
 21296 0487 4C534D33 		.ascii	"LSM303AGR_ACC_W_FIFO_Watermark_on_INT1\000"
 21296      30334147 
 21296      525F4143 
 21296      435F575F 
 21296      4649464F 
 21297              	.LASF474:
 21298 04ae 4C534D33 		.ascii	"LSM303AGR_ACC_R_DataYOverrun\000"
 21298      30334147 
 21298      525F4143 
 21298      435F525F 
 21298      44617461 
 21299              	.LASF584:
 21300 04cb 4C534D33 		.ascii	"LSM303AGR_ACC_W_Int2EnXLo\000"
 21300      30334147 
 21300      525F4143 
 21300      435F575F 
 21300      496E7432 
 21301              	.LASF498:
 21302 04e5 4C534D33 		.ascii	"LSM303AGR_ACC_W_hpf_cutoff_freq\000"
 21302      30334147 
 21302      525F4143 
 21302      435F575F 
 21302      6870665F 
 21303              	.LASF254:
 21304 0505 4C534D33 		.ascii	"LSM303AGR_ACC_I1_WTM_ENABLED\000"
 21304      30334147 
 21304      525F4143 
 21304      435F4931 
 21304      5F57544D 
 21305              	.LASF287:
 21306 0522 4C534D33 		.ascii	"LSM303AGR_ACC_D4D_INT2_t\000"
 21306      30334147 
 21306      525F4143 
 21306      435F4434 
 21306      445F494E 
 21307              	.LASF86:
 21308 053b 434D4152 		.ascii	"CMAR\000"
 21308      00
 21309              	.LASF453:
 21310 0540 42756670 		.ascii	"Bufp\000"
 21310      00
 21311              	.LASF128:
 21312 0545 4F545950 		.ascii	"OTYPER\000"
 21312      455200
 21313              	.LASF143:
 21314 054c 73706973 		.ascii	"spistate_t\000"
 21314      74617465 
 21314      5F7400
 21315              	.LASF311:
ARM GAS  /tmp/ccRrg1qB.s 			page 382


 21316 0557 4C534D33 		.ascii	"LSM303AGR_ACC_BOOT_I1_t\000"
 21316      30334147 
 21316      525F4143 
 21316      435F424F 
 21316      4F545F49 
 21317              	.LASF568:
 21318 056f 4C534D33 		.ascii	"LSM303AGR_ACC_W_Int1EnXLo\000"
 21318      30334147 
 21318      525F4143 
 21318      435F575F 
 21318      496E7431 
 21319              	.LASF30:
 21320 0589 74687265 		.ascii	"thread_t\000"
 21320      61645F74 
 21320      00
 21321              	.LASF238:
 21322 0592 4C534D33 		.ascii	"LSM303AGR_ACC_FDS_ENABLED\000"
 21322      30334147 
 21322      525F4143 
 21322      435F4644 
 21322      535F454E 
 21323              	.LASF246:
 21324 05ac 4C534D33 		.ascii	"LSM303AGR_ACC_HPM_REFERENCE_SIGNAL\000"
 21324      30334147 
 21324      525F4143 
 21324      435F4850 
 21324      4D5F5245 
 21325              	.LASF72:
 21326 05cf 63685F76 		.ascii	"ch_virtual_timers_list\000"
 21326      69727475 
 21326      616C5F74 
 21326      696D6572 
 21326      735F6C69 
 21327              	.LASF123:
 21328 05e6 76656374 		.ascii	"vector\000"
 21328      6F7200
 21329              	.LASF17:
 21330 05ed 696E7433 		.ascii	"int32_t\000"
 21330      325F7400 
 21331              	.LASF475:
 21332 05f5 4C534D33 		.ascii	"LSM303AGR_ACC_R_DataZOverrun\000"
 21332      30334147 
 21332      525F4143 
 21332      435F525F 
 21332      44617461 
 21333              	.LASF548:
 21334 0612 4C534D33 		.ascii	"LSM303AGR_ACC_W_ReferenceVal\000"
 21334      30334147 
 21334      525F4143 
 21334      435F575F 
 21334      52656665 
 21335              	.LASF29:
 21336 062f 73797374 		.ascii	"systime_t\000"
 21336      696D655F 
 21336      7400
 21337              	.LASF390:
 21338 0639 4C534D33 		.ascii	"LSM303AGR_ACC_XH_UP\000"
ARM GAS  /tmp/ccRrg1qB.s 			page 383


 21338      30334147 
 21338      525F4143 
 21338      435F5848 
 21338      5F555000 
 21339              	.LASF270:
 21340 064d 4C534D33 		.ascii	"LSM303AGR_ACC_I1_CLICK_t\000"
 21340      30334147 
 21340      525F4143 
 21340      435F4931 
 21340      5F434C49 
 21341              	.LASF158:
 21342 0666 75385F74 		.ascii	"u8_t\000"
 21342      00
 21343              	.LASF236:
 21344 066b 4C534D33 		.ascii	"LSM303AGR_ACC_HPCLICK_t\000"
 21344      30334147 
 21344      525F4143 
 21344      435F4850 
 21344      434C4943 
 21345              	.LASF590:
 21346 0683 4C534D33 		.ascii	"LSM303AGR_ACC_W_Int2EnYHi\000"
 21346      30334147 
 21346      525F4143 
 21346      435F575F 
 21346      496E7432 
 21347              	.LASF394:
 21348 069d 4C534D33 		.ascii	"LSM303AGR_ACC_YL_t\000"
 21348      30334147 
 21348      525F4143 
 21348      435F594C 
 21348      5F7400
 21349              	.LASF212:
 21350 06b0 4C534D33 		.ascii	"LSM303AGR_ACC_TEMP_EN_t\000"
 21350      30334147 
 21350      525F4143 
 21350      435F5445 
 21350      4D505F45 
 21351              	.LASF461:
 21352 06c8 4C534D33 		.ascii	"LSM303AGR_ACC_Get_Raw_Acceleration\000"
 21352      30334147 
 21352      525F4143 
 21352      435F4765 
 21352      745F5261 
 21353              	.LASF251:
 21354 06eb 4C534D33 		.ascii	"LSM303AGR_ACC_I1_OVERRUN_ENABLED\000"
 21354      30334147 
 21354      525F4143 
 21354      435F4931 
 21354      5F4F5645 
 21355              	.LASF202:
 21356 070c 4C534D33 		.ascii	"LSM303AGR_ACC_2OR__OVERRUN\000"
 21356      30334147 
 21356      525F4143 
 21356      435F324F 
 21356      525F5F4F 
 21357              	.LASF564:
 21358 0727 4C534D33 		.ascii	"LSM303AGR_ACC_R_FifoSamplesAvail\000"
ARM GAS  /tmp/ccRrg1qB.s 			page 384


 21358      30334147 
 21358      525F4143 
 21358      435F525F 
 21358      4669666F 
 21359              	.LASF574:
 21360 0748 4C534D33 		.ascii	"LSM303AGR_ACC_W_Int1EnYHi\000"
 21360      30334147 
 21360      525F4143 
 21360      435F575F 
 21360      496E7431 
 21361              	.LASF508:
 21362 0762 4C534D33 		.ascii	"LSM303AGR_ACC_W_FIFO_DRDY1_on_INT1\000"
 21362      30334147 
 21362      525F4143 
 21362      435F575F 
 21362      4649464F 
 21363              	.LASF298:
 21364 0785 4C534D33 		.ascii	"LSM303AGR_ACC_FIFO_EN_ENABLED\000"
 21364      30334147 
 21364      525F4143 
 21364      435F4649 
 21364      464F5F45 
 21365              	.LASF225:
 21366 07a3 4C534D33 		.ascii	"LSM303AGR_ACC_LPEN_DISABLED\000"
 21366      30334147 
 21366      525F4143 
 21366      435F4C50 
 21366      454E5F44 
 21367              	.LASF506:
 21368 07bf 4C534D33 		.ascii	"LSM303AGR_ACC_W_FIFO_DRDY2_on_INT1\000"
 21368      30334147 
 21368      525F4143 
 21368      435F575F 
 21368      4649464F 
 21369              	.LASF631:
 21370 07e2 4C534D33 		.ascii	"LSM303AGR_ACC_R_ZSingle\000"
 21370      30334147 
 21370      525F4143 
 21370      435F525F 
 21370      5A53696E 
 21371              	.LASF486:
 21372 07fa 4C534D33 		.ascii	"LSM303AGR_ACC_W_ZEN\000"
 21372      30334147 
 21372      525F4143 
 21372      435F575F 
 21372      5A454E00 
 21373              	.LASF307:
 21374 080e 4C534D33 		.ascii	"LSM303AGR_ACC_P2_ACT_ENABLED\000"
 21374      30334147 
 21374      525F4143 
 21374      435F5032 
 21374      5F414354 
 21375              	.LASF80:
 21376 082b 76746C69 		.ascii	"vtlist\000"
 21376      737400
 21377              	.LASF295:
 21378 0832 4C534D33 		.ascii	"LSM303AGR_ACC_LIR_INT1_ENABLED\000"
ARM GAS  /tmp/ccRrg1qB.s 			page 385


 21378      30334147 
 21378      525F4143 
 21378      435F4C49 
 21378      525F494E 
 21379              	.LASF401:
 21380 0851 4C534D33 		.ascii	"LSM303AGR_ACC_ZH_DOWN\000"
 21380      30334147 
 21380      525F4143 
 21380      435F5A48 
 21380      5F444F57 
 21381              	.LASF289:
 21382 0867 4C534D33 		.ascii	"LSM303AGR_ACC_LIR_INT2_ENABLED\000"
 21382      30334147 
 21382      525F4143 
 21382      435F4C49 
 21382      525F494E 
 21383              	.LASF42:
 21384 0886 705F7761 		.ascii	"p_waiting\000"
 21384      6974696E 
 21384      6700
 21385              	.LASF252:
 21386 0890 4C534D33 		.ascii	"LSM303AGR_ACC_I1_OVERRUN_t\000"
 21386      30334147 
 21386      525F4143 
 21386      435F4931 
 21386      5F4F5645 
 21387              	.LASF603:
 21388 08ab 4C534D33 		.ascii	"LSM303AGR_ACC_R_Int1_YHi\000"
 21388      30334147 
 21388      525F4143 
 21388      435F525F 
 21388      496E7431 
 21389              	.LASF611:
 21390 08c4 4C534D33 		.ascii	"LSM303AGR_ACC_R_Int2_Zlo\000"
 21390      30334147 
 21390      525F4143 
 21390      435F525F 
 21390      496E7432 
 21391              	.LASF79:
 21392 08dd 726C6973 		.ascii	"rlist\000"
 21392      7400
 21393              	.LASF50:
 21394 08e3 74687265 		.ascii	"threads_list_t\000"
 21394      6164735F 
 21394      6C697374 
 21394      5F7400
 21395              	.LASF419:
 21396 08f2 4C534D33 		.ascii	"LSM303AGR_ACC_ZS_DISABLED\000"
 21396      30334147 
 21396      525F4143 
 21396      435F5A53 
 21396      5F444953 
 21397              	.LASF630:
 21398 090c 4C534D33 		.ascii	"LSM303AGR_ACC_W_ZSingle\000"
 21398      30334147 
 21398      525F4143 
 21398      435F575F 
ARM GAS  /tmp/ccRrg1qB.s 			page 386


 21398      5A53696E 
 21399              	.LASF248:
 21400 0924 4C534D33 		.ascii	"LSM303AGR_ACC_HPM_AUTORST_ON_INT\000"
 21400      30334147 
 21400      525F4143 
 21400      435F4850 
 21400      4D5F4155 
 21401              	.LASF266:
 21402 0945 4C534D33 		.ascii	"LSM303AGR_ACC_I1_AOI1_ENABLED\000"
 21402      30334147 
 21402      525F4143 
 21402      435F4931 
 21402      5F414F49 
 21403              	.LASF629:
 21404 0963 4C534D33 		.ascii	"LSM303AGR_ACC_R_YDouble\000"
 21404      30334147 
 21404      525F4143 
 21404      435F525F 
 21404      59446F75 
 21405              	.LASF263:
 21406 097b 4C534D33 		.ascii	"LSM303AGR_ACC_I1_AOI2_ENABLED\000"
 21406      30334147 
 21406      525F4143 
 21406      435F4931 
 21406      5F414F49 
 21407              	.LASF162:
 21408 0999 75386269 		.ascii	"u8bit\000"
 21408      7400
 21409              	.LASF515:
 21410 099f 4C534D33 		.ascii	"LSM303AGR_ACC_R_FIFO_Click_on_INT1\000"
 21410      30334147 
 21410      525F4143 
 21410      435F525F 
 21410      4649464F 
 21411              	.LASF496:
 21412 09c2 4C534D33 		.ascii	"LSM303AGR_ACC_W_Data_Filter\000"
 21412      30334147 
 21412      525F4143 
 21412      435F575F 
 21412      44617461 
 21413              	.LASF25:
 21414 09de 74707269 		.ascii	"tprio_t\000"
 21414      6F5F7400 
 21415              	.LASF267:
 21416 09e6 4C534D33 		.ascii	"LSM303AGR_ACC_I1_AOI1_t\000"
 21416      30334147 
 21416      525F4143 
 21416      435F4931 
 21416      5F414F49 
 21417              	.LASF380:
 21418 09fe 4C534D33 		.ascii	"LSM303AGR_ACC_6D_DISABLED\000"
 21418      30334147 
 21418      525F4143 
 21418      435F3644 
 21418      5F444953 
 21419              	.LASF529:
 21420 0a18 4C534D33 		.ascii	"LSM303AGR_ACC_R_4D_on_INT1\000"
ARM GAS  /tmp/ccRrg1qB.s 			page 387


 21420      30334147 
 21420      525F4143 
 21420      435F525F 
 21420      34445F6F 
 21421              	.LASF160:
 21422 0a33 6931365F 		.ascii	"i16_t\000"
 21422      7400
 21423              	.LASF628:
 21424 0a39 4C534D33 		.ascii	"LSM303AGR_ACC_W_YDouble\000"
 21424      30334147 
 21424      525F4143 
 21424      435F575F 
 21424      59446F75 
 21425              	.LASF588:
 21426 0a51 4C534D33 		.ascii	"LSM303AGR_ACC_W_Int2EnYLo\000"
 21426      30334147 
 21426      525F4143 
 21426      435F575F 
 21426      496E7432 
 21427              	.LASF559:
 21428 0a6b 4C534D33 		.ascii	"LSM303AGR_ACC_R_FifoThreshold\000"
 21428      30334147 
 21428      525F4143 
 21428      435F525F 
 21428      4669666F 
 21429              	.LASF147:
 21430 0a89 74687265 		.ascii	"thread\000"
 21430      616400
 21431              	.LASF138:
 21432 0a90 5350495F 		.ascii	"SPI_UNINIT\000"
 21432      554E494E 
 21432      495400
 21433              	.LASF414:
 21434 0a9b 4C534D33 		.ascii	"LSM303AGR_ACC_YS_ENABLED\000"
 21434      30334147 
 21434      525F4143 
 21434      435F5953 
 21434      5F454E41 
 21435              	.LASF218:
 21436 0ab4 4C534D33 		.ascii	"LSM303AGR_ACC_XEN_t\000"
 21436      30334147 
 21436      525F4143 
 21436      435F5845 
 21436      4E5F7400 
 21437              	.LASF572:
 21438 0ac8 4C534D33 		.ascii	"LSM303AGR_ACC_W_Int1EnYLo\000"
 21438      30334147 
 21438      525F4143 
 21438      435F575F 
 21438      496E7431 
 21439              	.LASF90:
 21440 0ae2 43524350 		.ascii	"CRCPR\000"
 21440      5200
 21441              	.LASF435:
 21442 0ae8 4C534D33 		.ascii	"LSM303AGR_ACC_SIGN_NEGATIVE\000"
 21442      30334147 
 21442      525F4143 
ARM GAS  /tmp/ccRrg1qB.s 			page 388


 21442      435F5349 
 21442      474E5F4E 
 21443              	.LASF379:
 21444 0b04 4C534D33 		.ascii	"LSM303AGR_ACC_ZHIE_t\000"
 21444      30334147 
 21444      525F4143 
 21444      435F5A48 
 21444      49455F74 
 21445              	.LASF598:
 21446 0b19 4C534D33 		.ascii	"LSM303AGR_ACC_W_Int2_AOI\000"
 21446      30334147 
 21446      525F4143 
 21446      435F575F 
 21446      496E7432 
 21447              	.LASF6:
 21448 0b32 5F5F7569 		.ascii	"__uint16_t\000"
 21448      6E743136 
 21448      5F7400
 21449              	.LASF44:
 21450 0b3d 705F6D73 		.ascii	"p_msg\000"
 21450      6700
 21451              	.LASF523:
 21452 0b43 4C534D33 		.ascii	"LSM303AGR_ACC_R_LittleBigEndian\000"
 21452      30334147 
 21452      525F4143 
 21452      435F525F 
 21452      4C697474 
 21453              	.LASF342:
 21454 0b63 4C534D33 		.ascii	"LSM303AGR_ACC_ZYXOR_NO_OVERRUN\000"
 21454      30334147 
 21454      525F4143 
 21454      435F5A59 
 21454      584F525F 
 21455              	.LASF466:
 21456 0b82 66735F6D 		.ascii	"fs_mode\000"
 21456      6F646500 
 21457              	.LASF247:
 21458 0b8a 4C534D33 		.ascii	"LSM303AGR_ACC_HPM_NORMAL_2\000"
 21458      30334147 
 21458      525F4143 
 21458      435F4850 
 21458      4D5F4E4F 
 21459              	.LASF271:
 21460 0ba5 4C534D33 		.ascii	"LSM303AGR_ACC_SIM_4_WIRES\000"
 21460      30334147 
 21460      525F4143 
 21460      435F5349 
 21460      4D5F345F 
 21461              	.LASF214:
 21462 0bbf 4C534D33 		.ascii	"LSM303AGR_ACC_ADC_PD_ENABLED\000"
 21462      30334147 
 21462      525F4143 
 21462      435F4144 
 21462      435F5044 
 21463              	.LASF176:
 21464 0bdc 4C534D33 		.ascii	"LSM303AGR_ACC_ODR_DO_1Hz\000"
 21464      30334147 
ARM GAS  /tmp/ccRrg1qB.s 			page 389


 21464      525F4143 
 21464      435F4F44 
 21464      525F444F 
 21465              	.LASF403:
 21466 0bf5 4C534D33 		.ascii	"LSM303AGR_ACC_ZH_t\000"
 21466      30334147 
 21466      525F4143 
 21466      435F5A48 
 21466      5F7400
 21467              	.LASF164:
 21468 0c08 4D454D53 		.ascii	"MEMS_SUCCESS\000"
 21468      5F535543 
 21468      43455353 
 21468      00
 21469              	.LASF216:
 21470 0c15 4C534D33 		.ascii	"LSM303AGR_ACC_XEN_DISABLED\000"
 21470      30334147 
 21470      525F4143 
 21470      435F5845 
 21470      4E5F4449 
 21471              	.LASF373:
 21472 0c30 4C534D33 		.ascii	"LSM303AGR_ACC_YHIE_t\000"
 21472      30334147 
 21472      525F4143 
 21472      435F5948 
 21472      49455F74 
 21473              	.LASF230:
 21474 0c45 4C534D33 		.ascii	"LSM303AGR_ACC_HPIS1_t\000"
 21474      30334147 
 21474      525F4143 
 21474      435F4850 
 21474      4953315F 
 21475              	.LASF151:
 21476 0c5b 7278646D 		.ascii	"rxdmamode\000"
 21476      616D6F64 
 21476      6500
 21477              	.LASF285:
 21478 0c65 4C534D33 		.ascii	"LSM303AGR_ACC_D4D_INT2_DISABLED\000"
 21478      30334147 
 21478      525F4143 
 21478      435F4434 
 21478      445F494E 
 21479              	.LASF535:
 21480 0c85 4C534D33 		.ascii	"LSM303AGR_ACC_R_RebootMemory\000"
 21480      30334147 
 21480      525F4143 
 21480      435F525F 
 21480      5265626F 
 21481              	.LASF602:
 21482 0ca2 4C534D33 		.ascii	"LSM303AGR_ACC_R_Int1_YLo\000"
 21482      30334147 
 21482      525F4143 
 21482      435F525F 
 21482      496E7431 
 21483              	.LASF456:
 21484 0cbb 4C534D33 		.ascii	"LSM303AGR_ACC_W_BlockDataUpdate\000"
 21484      30334147 
ARM GAS  /tmp/ccRrg1qB.s 			page 390


 21484      525F4143 
 21484      435F575F 
 21484      426C6F63 
 21485              	.LASF165:
 21486 0cdb 4D454D53 		.ascii	"MEMS_ERROR\000"
 21486      5F455252 
 21486      4F5200
 21487              	.LASF181:
 21488 0ce6 4C534D33 		.ascii	"LSM303AGR_ACC_ODR_DO_200Hz\000"
 21488      30334147 
 21488      525F4143 
 21488      435F4F44 
 21488      525F444F 
 21489              	.LASF156:
 21490 0d01 73737061 		.ascii	"sspad\000"
 21490      6400
 21491              	.LASF152:
 21492 0d07 7478646D 		.ascii	"txdmamode\000"
 21492      616D6F64 
 21492      6500
 21493              	.LASF571:
 21494 0d11 4C534D33 		.ascii	"LSM303AGR_ACC_R_Int1EnXHi\000"
 21494      30334147 
 21494      525F4143 
 21494      435F525F 
 21494      496E7431 
 21495              	.LASF488:
 21496 0d2b 4C534D33 		.ascii	"LSM303AGR_ACC_W_LOWPWR_EN\000"
 21496      30334147 
 21496      525F4143 
 21496      435F575F 
 21496      4C4F5750 
 21497              	.LASF578:
 21498 0d45 4C534D33 		.ascii	"LSM303AGR_ACC_W_Int1EnZHi\000"
 21498      30334147 
 21498      525F4143 
 21498      435F575F 
 21498      496E7431 
 21499              	.LASF97:
 21500 0d5f 73746B61 		.ascii	"stkalign_t\000"
 21500      6C69676E 
 21500      5F7400
 21501              	.LASF367:
 21502 0d6a 4C534D33 		.ascii	"LSM303AGR_ACC_XHIE_t\000"
 21502      30334147 
 21502      525F4143 
 21502      435F5848 
 21502      49455F74 
 21503              	.LASF208:
 21504 0d7f 4C534D33 		.ascii	"LSM303AGR_ACC_321OR__OVERRUN\000"
 21504      30334147 
 21504      525F4143 
 21504      435F3332 
 21504      314F525F 
 21505              	.LASF517:
 21506 0d9c 4C534D33 		.ascii	"LSM303AGR_ACC_R_SPI_mode\000"
 21506      30334147 
ARM GAS  /tmp/ccRrg1qB.s 			page 391


 21506      525F4143 
 21506      435F525F 
 21506      5350495F 
 21507              	.LASF283:
 21508 0db5 4C534D33 		.ascii	"LSM303AGR_ACC_BLE_BIG_ENDIAN\000"
 21508      30334147 
 21508      525F4143 
 21508      435F424C 
 21508      455F4249 
 21509              	.LASF345:
 21510 0dd2 4C534D33 		.ascii	"LSM303AGR_ACC_TR_TRIGGER_ON_INT1\000"
 21510      30334147 
 21510      525F4143 
 21510      435F5452 
 21510      5F545249 
 21511              	.LASF346:
 21512 0df3 4C534D33 		.ascii	"LSM303AGR_ACC_TR_TRIGGER_ON_INT2\000"
 21512      30334147 
 21512      525F4143 
 21512      435F5452 
 21512      5F545249 
 21513              	.LASF67:
 21514 0e14 76745F70 		.ascii	"vt_prev\000"
 21514      72657600 
 21515              	.LASF154:
 21516 0e1c 656E645F 		.ascii	"end_cb\000"
 21516      636200
 21517              	.LASF4:
 21518 0e23 756E7369 		.ascii	"unsigned char\000"
 21518      676E6564 
 21518      20636861 
 21518      7200
 21519              	.LASF171:
 21520 0e31 4C534D33 		.ascii	"LSM303AGR_ACC_FS_4G\000"
 21520      30334147 
 21520      525F4143 
 21520      435F4653 
 21520      5F344700 
 21521              	.LASF188:
 21522 0e45 4C534D33 		.ascii	"LSM303AGR_ACC_1DA_t\000"
 21522      30334147 
 21522      525F4143 
 21522      435F3144 
 21522      415F7400 
 21523              	.LASF655:
 21524 0e59 2E2F6472 		.ascii	"./driver/LSM303AGR_ACC_driver.c\000"
 21524      69766572 
 21524      2F4C534D 
 21524      33303341 
 21524      47525F41 
 21525              	.LASF111:
 21526 0e79 735F636E 		.ascii	"s_cnt\000"
 21526      7400
 21527              	.LASF55:
 21528 0e7f 72656164 		.ascii	"ready_list_t\000"
 21528      795F6C69 
 21528      73745F74 
ARM GAS  /tmp/ccRrg1qB.s 			page 392


 21528      00
 21529              	.LASF51:
 21530 0e8c 63685F74 		.ascii	"ch_thread\000"
 21530      68726561 
 21530      6400
 21531              	.LASF614:
 21532 0e96 4C534D33 		.ascii	"LSM303AGR_ACC_W_Int1_Threshold\000"
 21532      30334147 
 21532      525F4143 
 21532      435F575F 
 21532      496E7431 
 21533              	.LASF340:
 21534 0eb5 4C534D33 		.ascii	"LSM303AGR_ACC_ZOR_OVERRUN\000"
 21534      30334147 
 21534      525F4143 
 21534      435F5A4F 
 21534      525F4F56 
 21535              	.LASF296:
 21536 0ecf 4C534D33 		.ascii	"LSM303AGR_ACC_LIR_INT1_t\000"
 21536      30334147 
 21536      525F4143 
 21536      435F4C49 
 21536      525F494E 
 21537              	.LASF446:
 21538 0ee8 666C6F61 		.ascii	"float\000"
 21538      7400
 21539              	.LASF654:
 21540 0eee 474E5520 		.ascii	"GNU C 4.8.4 20140526 (release) [ARM/embedded-4_8-br"
 21540      4320342E 
 21540      382E3420 
 21540      32303134 
 21540      30353236 
 21541 0f21 616E6368 		.ascii	"anch revision 211358] -mcpu=cortex-m4 -mno-thumb-in"
 21541      20726576 
 21541      6973696F 
 21541      6E203231 
 21541      31333538 
 21542 0f54 74657277 		.ascii	"terwork -mthumb -ggdb -O0 -fomit-frame-pointer -fal"
 21542      6F726B20 
 21542      2D6D7468 
 21542      756D6220 
 21542      2D676764 
 21543 0f87 69676E2D 		.ascii	"ign-functions=16\000"
 21543      66756E63 
 21543      74696F6E 
 21543      733D3136 
 21543      00
 21544              	.LASF391:
 21545 0f98 4C534D33 		.ascii	"LSM303AGR_ACC_XH_t\000"
 21545      30334147 
 21545      525F4143 
 21545      435F5848 
 21545      5F7400
 21546              	.LASF605:
 21547 0fab 4C534D33 		.ascii	"LSM303AGR_ACC_R_Int1_ZHi\000"
 21547      30334147 
 21547      525F4143 
ARM GAS  /tmp/ccRrg1qB.s 			page 393


 21547      435F525F 
 21547      496E7431 
 21548              	.LASF599:
 21549 0fc4 4C534D33 		.ascii	"LSM303AGR_ACC_R_Int2_AOI\000"
 21549      30334147 
 21549      525F4143 
 21549      435F525F 
 21549      496E7432 
 21550              	.LASF495:
 21551 0fdd 4C534D33 		.ascii	"LSM303AGR_ACC_R_hpf_click_en\000"
 21551      30334147 
 21551      525F4143 
 21551      435F525F 
 21551      6870665F 
 21552              	.LASF253:
 21553 0ffa 4C534D33 		.ascii	"LSM303AGR_ACC_I1_WTM_DISABLED\000"
 21553      30334147 
 21553      525F4143 
 21553      435F4931 
 21553      5F57544D 
 21554              	.LASF250:
 21555 1018 4C534D33 		.ascii	"LSM303AGR_ACC_I1_OVERRUN_DISABLED\000"
 21555      30334147 
 21555      525F4143 
 21555      435F4931 
 21555      5F4F5645 
 21556              	.LASF74:
 21557 103a 73797374 		.ascii	"system_debug_t\000"
 21557      656D5F64 
 21557      65627567 
 21557      5F7400
 21558              	.LASF378:
 21559 1049 4C534D33 		.ascii	"LSM303AGR_ACC_ZHIE_ENABLED\000"
 21559      30334147 
 21559      525F4143 
 21559      435F5A48 
 21559      49455F45 
 21560              	.LASF465:
 21561 1064 6F705F6D 		.ascii	"op_mode\000"
 21561      6F646500 
 21562              	.LASF34:
 21563 106c 705F6374 		.ascii	"p_ctx\000"
 21563      7800
 21564              	.LASF70:
 21565 1072 76745F70 		.ascii	"vt_par\000"
 21565      617200
 21566              	.LASF371:
 21567 1079 4C534D33 		.ascii	"LSM303AGR_ACC_YHIE_DISABLED\000"
 21567      30334147 
 21567      525F4143 
 21567      435F5948 
 21567      49455F44 
 21568              	.LASF62:
 21569 1095 725F6375 		.ascii	"r_current\000"
 21569      7272656E 
 21569      7400
 21570              	.LASF227:
ARM GAS  /tmp/ccRrg1qB.s 			page 394


 21571 109f 4C534D33 		.ascii	"LSM303AGR_ACC_LPEN_t\000"
 21571      30334147 
 21571      525F4143 
 21571      435F4C50 
 21571      454E5F74 
 21572              	.LASF92:
 21573 10b4 54584352 		.ascii	"TXCRCR\000"
 21573      435200
 21574              	.LASF432:
 21575 10bb 4C534D33 		.ascii	"LSM303AGR_ACC_Z_UP\000"
 21575      30334147 
 21575      525F4143 
 21575      435F5A5F 
 21575      555000
 21576              	.LASF330:
 21577 10ce 4C534D33 		.ascii	"LSM303AGR_ACC_ZYXDA_NOT_AVAILABLE\000"
 21577      30334147 
 21577      525F4143 
 21577      435F5A59 
 21577      5844415F 
 21578              	.LASF642:
 21579 10f0 4C534D33 		.ascii	"LSM303AGR_ACC_R_ClickThreshold\000"
 21579      30334147 
 21579      525F4143 
 21579      435F525F 
 21579      436C6963 
 21580              	.LASF534:
 21581 110f 4C534D33 		.ascii	"LSM303AGR_ACC_W_RebootMemory\000"
 21581      30334147 
 21581      525F4143 
 21581      435F575F 
 21581      5265626F 
 21582              	.LASF19:
 21583 112c 75696E74 		.ascii	"uint64_t\000"
 21583      36345F74 
 21583      00
 21584              	.LASF264:
 21585 1135 4C534D33 		.ascii	"LSM303AGR_ACC_I1_AOI2_t\000"
 21585      30334147 
 21585      525F4143 
 21585      435F4931 
 21585      5F414F49 
 21586              	.LASF192:
 21587 114d 4C534D33 		.ascii	"LSM303AGR_ACC_3DA__NOT_AVAILABLE\000"
 21587      30334147 
 21587      525F4143 
 21587      435F3344 
 21587      415F5F4E 
 21588              	.LASF185:
 21589 116e 4C534D33 		.ascii	"LSM303AGR_ACC_ODR_t\000"
 21589      30334147 
 21589      525F4143 
 21589      435F4F44 
 21589      525F7400 
 21590              	.LASF592:
 21591 1182 4C534D33 		.ascii	"LSM303AGR_ACC_W_Int2EnZLo\000"
 21591      30334147 
ARM GAS  /tmp/ccRrg1qB.s 			page 395


 21591      525F4143 
 21591      435F575F 
 21591      496E7432 
 21592              	.LASF530:
 21593 119c 4C534D33 		.ascii	"LSM303AGR_ACC_W_LatchInterrupt_on_INT1\000"
 21593      30334147 
 21593      525F4143 
 21593      435F575F 
 21593      4C617463 
 21594              	.LASF526:
 21595 11c3 4C534D33 		.ascii	"LSM303AGR_ACC_W_LatchInterrupt_on_INT2\000"
 21595      30334147 
 21595      525F4143 
 21595      435F575F 
 21595      4C617463 
 21596              	.LASF646:
 21597 11ea 4C534D33 		.ascii	"LSM303AGR_ACC_R_ClickTimeLatency\000"
 21597      30334147 
 21597      525F4143 
 21597      435F525F 
 21597      436C6963 
 21598              	.LASF269:
 21599 120b 4C534D33 		.ascii	"LSM303AGR_ACC_I1_CLICK_ENABLED\000"
 21599      30334147 
 21599      525F4143 
 21599      435F4931 
 21599      5F434C49 
 21600              	.LASF347:
 21601 122a 4C534D33 		.ascii	"LSM303AGR_ACC_TR_t\000"
 21601      30334147 
 21601      525F4143 
 21601      435F5452 
 21601      5F7400
 21602              	.LASF91:
 21603 123d 52584352 		.ascii	"RXCRCR\000"
 21603      435200
 21604              	.LASF567:
 21605 1244 4C534D33 		.ascii	"LSM303AGR_ACC_R_WatermarkLevel\000"
 21605      30334147 
 21605      525F4143 
 21605      435F525F 
 21605      57617465 
 21606              	.LASF576:
 21607 1263 4C534D33 		.ascii	"LSM303AGR_ACC_W_Int1EnZLo\000"
 21607      30334147 
 21607      525F4143 
 21607      435F575F 
 21607      496E7431 
 21608              	.LASF112:
 21609 127d 63685F6D 		.ascii	"ch_mutex\000"
 21609      75746578 
 21609      00
 21610              	.LASF606:
 21611 1286 4C534D33 		.ascii	"LSM303AGR_ACC_R_Int1_IA\000"
 21611      30334147 
 21611      525F4143 
 21611      435F525F 
ARM GAS  /tmp/ccRrg1qB.s 			page 396


 21611      496E7431 
 21612              	.LASF430:
 21613 129e 4C534D33 		.ascii	"LSM303AGR_ACC_Y_t\000"
 21613      30334147 
 21613      525F4143 
 21613      435F595F 
 21613      7400
 21614              	.LASF172:
 21615 12b0 4C534D33 		.ascii	"LSM303AGR_ACC_FS_8G\000"
 21615      30334147 
 21615      525F4143 
 21615      435F4653 
 21615      5F384700 
 21616              	.LASF426:
 21617 12c4 4C534D33 		.ascii	"LSM303AGR_ACC_X_UP\000"
 21617      30334147 
 21617      525F4143 
 21617      435F585F 
 21617      555000
 21618              	.LASF494:
 21619 12d7 4C534D33 		.ascii	"LSM303AGR_ACC_W_hpf_click_en\000"
 21619      30334147 
 21619      525F4143 
 21619      435F575F 
 21619      6870665F 
 21620              	.LASF173:
 21621 12f4 4C534D33 		.ascii	"LSM303AGR_ACC_FS_16G\000"
 21621      30334147 
 21621      525F4143 
 21621      435F4653 
 21621      5F313647 
 21622              	.LASF447:
 21623 1309 76616C75 		.ascii	"value\000"
 21623      6500
 21624              	.LASF357:
 21625 130f 4C534D33 		.ascii	"LSM303AGR_ACC_OVRN_FIFO_OVERRUN\000"
 21625      30334147 
 21625      525F4143 
 21625      435F4F56 
 21625      524E5F46 
 21626              	.LASF470:
 21627 132f 4C534D33 		.ascii	"LSM303AGR_ACC_R_y_data_avail\000"
 21627      30334147 
 21627      525F4143 
 21627      435F525F 
 21627      795F6461 
 21628              	.LASF431:
 21629 134c 4C534D33 		.ascii	"LSM303AGR_ACC_Z_DOWN\000"
 21629      30334147 
 21629      525F4143 
 21629      435F5A5F 
 21629      444F574E 
 21630              	.LASF320:
 21631 1361 4C534D33 		.ascii	"LSM303AGR_ACC_I2_CLICKEN_t\000"
 21631      30334147 
 21631      525F4143 
 21631      435F4932 
ARM GAS  /tmp/ccRrg1qB.s 			page 397


 21631      5F434C49 
 21632              	.LASF195:
 21633 137c 4C534D33 		.ascii	"LSM303AGR_ACC_321DA__NOT_AVAILABLE\000"
 21633      30334147 
 21633      525F4143 
 21633      435F3332 
 21633      3144415F 
 21634              	.LASF386:
 21635 139f 4C534D33 		.ascii	"LSM303AGR_ACC_XL_DOWN\000"
 21635      30334147 
 21635      525F4143 
 21635      435F584C 
 21635      5F444F57 
 21636              	.LASF233:
 21637 13b5 4C534D33 		.ascii	"LSM303AGR_ACC_HPIS2_t\000"
 21637      30334147 
 21637      525F4143 
 21637      435F4850 
 21637      4953325F 
 21638              	.LASF392:
 21639 13cb 4C534D33 		.ascii	"LSM303AGR_ACC_YL_DOWN\000"
 21639      30334147 
 21639      525F4143 
 21639      435F594C 
 21639      5F444F57 
 21640              	.LASF441:
 21641 13e1 4C534D33 		.ascii	"LSM303AGR_ACC_DCLICK_ENABLED\000"
 21641      30334147 
 21641      525F4143 
 21641      435F4443 
 21641      4C49434B 
 21642              	.LASF404:
 21643 13fe 4C534D33 		.ascii	"LSM303AGR_ACC_IA_DOWN\000"
 21643      30334147 
 21643      525F4143 
 21643      435F4941 
 21643      5F444F57 
 21644              	.LASF64:
 21645 1414 76697274 		.ascii	"virtual_timer_t\000"
 21645      75616C5F 
 21645      74696D65 
 21645      725F7400 
 21646              	.LASF556:
 21647 1424 4C534D33 		.ascii	"LSM303AGR_ACC_R_ZDataOverrun\000"
 21647      30334147 
 21647      525F4143 
 21647      435F525F 
 21647      5A446174 
 21648              	.LASF163:
 21649 1441 54797065 		.ascii	"Type3Axis16bit_U\000"
 21649      33417869 
 21649      73313662 
 21649      69745F55 
 21649      00
 21650              	.LASF59:
 21651 1452 725F6374 		.ascii	"r_ctx\000"
 21651      7800
ARM GAS  /tmp/ccRrg1qB.s 			page 398


 21652              	.LASF66:
 21653 1458 76745F6E 		.ascii	"vt_next\000"
 21653      65787400 
 21654              	.LASF237:
 21655 1460 4C534D33 		.ascii	"LSM303AGR_ACC_FDS_BYPASSED\000"
 21655      30334147 
 21655      525F4143 
 21655      435F4644 
 21655      535F4259 
 21656              	.LASF355:
 21657 147b 4C534D33 		.ascii	"LSM303AGR_ACC_EMPTY_t\000"
 21657      30334147 
 21657      525F4143 
 21657      435F454D 
 21657      5054595F 
 21658              	.LASF262:
 21659 1491 4C534D33 		.ascii	"LSM303AGR_ACC_I1_AOI2_DISABLED\000"
 21659      30334147 
 21659      525F4143 
 21659      435F4931 
 21659      5F414F49 
 21660              	.LASF121:
 21661 14b0 73686966 		.ascii	"shift\000"
 21661      7400
 21662              	.LASF385:
 21663 14b6 4C534D33 		.ascii	"LSM303AGR_ACC_AOI_t\000"
 21663      30334147 
 21663      525F4143 
 21663      435F414F 
 21663      495F7400 
 21664              	.LASF20:
 21665 14ca 7274636E 		.ascii	"rtcnt_t\000"
 21665      745F7400 
 21666              	.LASF558:
 21667 14d2 4C534D33 		.ascii	"LSM303AGR_ACC_W_FifoThreshold\000"
 21667      30334147 
 21667      525F4143 
 21667      435F575F 
 21667      4669666F 
 21668              	.LASF148:
 21669 14f0 6D757465 		.ascii	"mutex\000"
 21669      7800
 21670              	.LASF228:
 21671 14f6 4C534D33 		.ascii	"LSM303AGR_ACC_HPIS1_DISABLED\000"
 21671      30334147 
 21671      525F4143 
 21671      435F4850 
 21671      4953315F 
 21672              	.LASF509:
 21673 1513 4C534D33 		.ascii	"LSM303AGR_ACC_R_FIFO_DRDY1_on_INT1\000"
 21673      30334147 
 21673      525F4143 
 21673      435F525F 
 21673      4649464F 
 21674              	.LASF406:
 21675 1536 4C534D33 		.ascii	"LSM303AGR_ACC_IA_t\000"
 21675      30334147 
ARM GAS  /tmp/ccRrg1qB.s 			page 399


 21675      525F4143 
 21675      435F4941 
 21675      5F7400
 21676              	.LASF126:
 21677 1549 636C6561 		.ascii	"clear\000"
 21677      7200
 21678              	.LASF507:
 21679 154f 4C534D33 		.ascii	"LSM303AGR_ACC_R_FIFO_DRDY2_on_INT1\000"
 21679      30334147 
 21679      525F4143 
 21679      435F525F 
 21679      4649464F 
 21680              	.LASF290:
 21681 1572 4C534D33 		.ascii	"LSM303AGR_ACC_LIR_INT2_t\000"
 21681      30334147 
 21681      525F4143 
 21681      435F4C49 
 21681      525F494E 
 21682              	.LASF521:
 21683 158b 4C534D33 		.ascii	"LSM303AGR_ACC_R_HiRes\000"
 21683      30334147 
 21683      525F4143 
 21683      435F525F 
 21683      48695265 
 21684              	.LASF418:
 21685 15a1 4C534D33 		.ascii	"LSM303AGR_ACC_YD_t\000"
 21685      30334147 
 21685      525F4143 
 21685      435F5944 
 21685      5F7400
 21686              	.LASF88:
 21687 15b4 49464352 		.ascii	"IFCR\000"
 21687      00
 21688              	.LASF2:
 21689 15b9 73697A65 		.ascii	"size_t\000"
 21689      5F7400
 21690              	.LASF15:
 21691 15c0 75696E74 		.ascii	"uint8_t\000"
 21691      385F7400 
 21692              	.LASF331:
 21693 15c8 4C534D33 		.ascii	"LSM303AGR_ACC_ZYXDA_AVAILABLE\000"
 21693      30334147 
 21693      525F4143 
 21693      435F5A59 
 21693      5844415F 
 21694              	.LASF61:
 21695 15e6 725F6F6C 		.ascii	"r_older\000"
 21695      64657200 
 21696              	.LASF32:
 21697 15ee 705F7072 		.ascii	"p_prev\000"
 21697      657600
 21698              	.LASF245:
 21699 15f5 4C534D33 		.ascii	"LSM303AGR_ACC_HPM_NORMAL\000"
 21699      30334147 
 21699      525F4143 
 21699      435F4850 
 21699      4D5F4E4F 
ARM GAS  /tmp/ccRrg1qB.s 			page 400


 21700              	.LASF393:
 21701 160e 4C534D33 		.ascii	"LSM303AGR_ACC_YL_UP\000"
 21701      30334147 
 21701      525F4143 
 21701      435F594C 
 21701      5F555000 
 21702              	.LASF103:
 21703 1622 65786974 		.ascii	"exitcode\000"
 21703      636F6465 
 21703      00
 21704              	.LASF497:
 21705 162b 4C534D33 		.ascii	"LSM303AGR_ACC_R_Data_Filter\000"
 21705      30334147 
 21705      525F4143 
 21705      435F525F 
 21705      44617461 
 21706              	.LASF638:
 21707 1647 4C534D33 		.ascii	"LSM303AGR_ACC_R_SingleCLICK\000"
 21707      30334147 
 21707      525F4143 
 21707      435F525F 
 21707      53696E67 
 21708              	.LASF608:
 21709 1663 4C534D33 		.ascii	"LSM303AGR_ACC_R_Int2_XHi\000"
 21709      30334147 
 21709      525F4143 
 21709      435F525F 
 21709      496E7432 
 21710              	.LASF274:
 21711 167c 4C534D33 		.ascii	"LSM303AGR_ACC_ST_DISABLED\000"
 21711      30334147 
 21711      525F4143 
 21711      435F5354 
 21711      5F444953 
 21712              	.LASF455:
 21713 1696 4C534D33 		.ascii	"LSM303AGR_ACC_R_WHO_AM_I\000"
 21713      30334147 
 21713      525F4143 
 21713      435F525F 
 21713      57484F5F 
 21714              	.LASF561:
 21715 16af 4C534D33 		.ascii	"LSM303AGR_ACC_R_TriggerSel\000"
 21715      30334147 
 21715      525F4143 
 21715      435F525F 
 21715      54726967 
 21716              	.LASF587:
 21717 16ca 4C534D33 		.ascii	"LSM303AGR_ACC_R_Int2EnXHi\000"
 21717      30334147 
 21717      525F4143 
 21717      435F525F 
 21717      496E7432 
 21718              	.LASF409:
 21719 16e4 4C534D33 		.ascii	"LSM303AGR_ACC_XS_t\000"
 21719      30334147 
 21719      525F4143 
 21719      435F5853 
ARM GAS  /tmp/ccRrg1qB.s 			page 401


 21719      5F7400
 21720              	.LASF421:
 21721 16f7 4C534D33 		.ascii	"LSM303AGR_ACC_ZS_t\000"
 21721      30334147 
 21721      525F4143 
 21721      435F5A53 
 21721      5F7400
 21722              	.LASF159:
 21723 170a 7531365F 		.ascii	"u16_t\000"
 21723      7400
 21724              	.LASF129:
 21725 1710 4F535045 		.ascii	"OSPEEDR\000"
 21725      45445200 
 21726              	.LASF442:
 21727 1718 4C534D33 		.ascii	"LSM303AGR_ACC_DCLICK_t\000"
 21727      30334147 
 21727      525F4143 
 21727      435F4443 
 21727      4C49434B 
 21728              	.LASF327:
 21729 172f 4C534D33 		.ascii	"LSM303AGR_ACC_ZDA_NOT_AVAILABLE\000"
 21729      30334147 
 21729      525F4143 
 21729      435F5A44 
 21729      415F4E4F 
 21730              	.LASF633:
 21731 174f 4C534D33 		.ascii	"LSM303AGR_ACC_R_ZDouble\000"
 21731      30334147 
 21731      525F4143 
 21731      435F525F 
 21731      5A446F75 
 21732              	.LASF483:
 21733 1767 4C534D33 		.ascii	"LSM303AGR_ACC_R_XEN\000"
 21733      30334147 
 21733      525F4143 
 21733      435F525F 
 21733      58454E00 
 21734              	.LASF85:
 21735 177b 43504152 		.ascii	"CPAR\000"
 21735      00
 21736              	.LASF348:
 21737 1780 4C534D33 		.ascii	"LSM303AGR_ACC_FM_BYPASS\000"
 21737      30334147 
 21737      525F4143 
 21737      435F464D 
 21737      5F425950 
 21738              	.LASF249:
 21739 1798 4C534D33 		.ascii	"LSM303AGR_ACC_HPM_t\000"
 21739      30334147 
 21739      525F4143 
 21739      435F4850 
 21739      4D5F7400 
 21740              	.LASF317:
 21741 17ac 4C534D33 		.ascii	"LSM303AGR_ACC_I2_INT1_t\000"
 21741      30334147 
 21741      525F4143 
 21741      435F4932 
ARM GAS  /tmp/ccRrg1qB.s 			page 402


 21741      5F494E54 
 21742              	.LASF632:
 21743 17c4 4C534D33 		.ascii	"LSM303AGR_ACC_W_ZDouble\000"
 21743      30334147 
 21743      525F4143 
 21743      435F575F 
 21743      5A446F75 
 21744              	.LASF356:
 21745 17dc 4C534D33 		.ascii	"LSM303AGR_ACC_OVRN_FIFO_NO_OVERRUN\000"
 21745      30334147 
 21745      525F4143 
 21745      435F4F56 
 21745      524E5F46 
 21746              	.LASF433:
 21747 17ff 4C534D33 		.ascii	"LSM303AGR_ACC_Z_t\000"
 21747      30334147 
 21747      525F4143 
 21747      435F5A5F 
 21747      7400
 21748              	.LASF582:
 21749 1811 4C534D33 		.ascii	"LSM303AGR_ACC_W_Int1_AOI\000"
 21749      30334147 
 21749      525F4143 
 21749      435F575F 
 21749      496E7431 
 21750              	.LASF335:
 21751 182a 4C534D33 		.ascii	"LSM303AGR_ACC_XOR_t\000"
 21751      30334147 
 21751      525F4143 
 21751      435F584F 
 21751      525F7400 
 21752              	.LASF550:
 21753 183e 4C534D33 		.ascii	"LSM303AGR_ACC_R_XDataAvail\000"
 21753      30334147 
 21753      525F4143 
 21753      435F525F 
 21753      58446174 
 21754              	.LASF217:
 21755 1859 4C534D33 		.ascii	"LSM303AGR_ACC_XEN_ENABLED\000"
 21755      30334147 
 21755      525F4143 
 21755      435F5845 
 21755      4E5F454E 
 21756              	.LASF520:
 21757 1873 4C534D33 		.ascii	"LSM303AGR_ACC_W_HiRes\000"
 21757      30334147 
 21757      525F4143 
 21757      435F575F 
 21757      48695265 
 21758              	.LASF136:
 21759 1889 73746D33 		.ascii	"stm32_gpio_t\000"
 21759      325F6770 
 21759      696F5F74 
 21759      00
 21760              	.LASF102:
 21761 1896 7264796D 		.ascii	"rdymsg\000"
 21761      736700
ARM GAS  /tmp/ccRrg1qB.s 			page 403


 21762              	.LASF563:
 21763 189d 4C534D33 		.ascii	"LSM303AGR_ACC_R_FifoMode\000"
 21763      30334147 
 21763      525F4143 
 21763      435F525F 
 21763      4669666F 
 21764              	.LASF333:
 21765 18b6 4C534D33 		.ascii	"LSM303AGR_ACC_XOR_NO_OVERRUN\000"
 21765      30334147 
 21765      525F4143 
 21765      435F584F 
 21765      525F4E4F 
 21766              	.LASF33:
 21767 18d3 705F7072 		.ascii	"p_prio\000"
 21767      696F00
 21768              	.LASF13:
 21769 18da 5F5F7569 		.ascii	"__uint64_t\000"
 21769      6E743634 
 21769      5F7400
 21770              	.LASF396:
 21771 18e5 4C534D33 		.ascii	"LSM303AGR_ACC_YH_UP\000"
 21771      30334147 
 21771      525F4143 
 21771      435F5948 
 21771      5F555000 
 21772              	.LASF210:
 21773 18f9 4C534D33 		.ascii	"LSM303AGR_ACC_TEMP_EN_DISABLED\000"
 21773      30334147 
 21773      525F4143 
 21773      435F5445 
 21773      4D505F45 
 21774              	.LASF476:
 21775 1918 4C534D33 		.ascii	"LSM303AGR_ACC_R_DataXYZOverrun\000"
 21775      30334147 
 21775      525F4143 
 21775      435F525F 
 21775      44617461 
 21776              	.LASF315:
 21777 1937 4C534D33 		.ascii	"LSM303AGR_ACC_I2_INT1_DISABLED\000"
 21777      30334147 
 21777      525F4143 
 21777      435F4932 
 21777      5F494E54 
 21778              	.LASF84:
 21779 1956 434E4454 		.ascii	"CNDTR\000"
 21779      5200
 21780              	.LASF541:
 21781 195c 4C534D33 		.ascii	"LSM303AGR_ACC_R_Boot_on_INT2\000"
 21781      30334147 
 21781      525F4143 
 21781      435F525F 
 21781      426F6F74 
 21782              	.LASF226:
 21783 1979 4C534D33 		.ascii	"LSM303AGR_ACC_LPEN_ENABLED\000"
 21783      30334147 
 21783      525F4143 
 21783      435F4C50 
ARM GAS  /tmp/ccRrg1qB.s 			page 404


 21783      454E5F45 
 21784              	.LASF303:
 21785 1994 4C534D33 		.ascii	"LSM303AGR_ACC_H_LACTIVE_ACTIVE_HI\000"
 21785      30334147 
 21785      525F4143 
 21785      435F485F 
 21785      4C414354 
 21786              	.LASF256:
 21787 19b6 4C534D33 		.ascii	"LSM303AGR_ACC_I1_DRDY2_DISABLED\000"
 21787      30334147 
 21787      525F4143 
 21787      435F4931 
 21787      5F445244 
 21788              	.LASF141:
 21789 19d6 5350495F 		.ascii	"SPI_ACTIVE\000"
 21789      41435449 
 21789      564500
 21790              	.LASF31:
 21791 19e1 705F6E65 		.ascii	"p_next\000"
 21791      787400
 21792              	.LASF585:
 21793 19e8 4C534D33 		.ascii	"LSM303AGR_ACC_R_Int2EnXLo\000"
 21793      30334147 
 21793      525F4143 
 21793      435F525F 
 21793      496E7432 
 21794              	.LASF118:
 21795 1a02 6368616E 		.ascii	"channel\000"
 21795      6E656C00 
 21796              	.LASF416:
 21797 1a0a 4C534D33 		.ascii	"LSM303AGR_ACC_YD_DISABLED\000"
 21797      30334147 
 21797      525F4143 
 21797      435F5944 
 21797      5F444953 
 21798              	.LASF323:
 21799 1a24 4C534D33 		.ascii	"LSM303AGR_ACC_XDA_t\000"
 21799      30334147 
 21799      525F4143 
 21799      435F5844 
 21799      415F7400 
 21800              	.LASF23:
 21801 1a38 74726566 		.ascii	"trefs_t\000"
 21801      735F7400 
 21802              	.LASF343:
 21803 1a40 4C534D33 		.ascii	"LSM303AGR_ACC_ZYXOR_OVERRUN\000"
 21803      30334147 
 21803      525F4143 
 21803      435F5A59 
 21803      584F525F 
 21804              	.LASF48:
 21805 1a5c 705F6D70 		.ascii	"p_mpool\000"
 21805      6F6F6C00 
 21806              	.LASF569:
 21807 1a64 4C534D33 		.ascii	"LSM303AGR_ACC_R_Int1EnXLo\000"
 21807      30334147 
 21807      525F4143 
ARM GAS  /tmp/ccRrg1qB.s 			page 405


 21807      435F525F 
 21807      496E7431 
 21808              	.LASF653:
 21809 1a7e 4C534D33 		.ascii	"LSM303AGR_ACC_Sensitivity_List\000"
 21809      30334147 
 21809      525F4143 
 21809      435F5365 
 21809      6E736974 
 21810              	.LASF273:
 21811 1a9d 4C534D33 		.ascii	"LSM303AGR_ACC_SIM_t\000"
 21811      30334147 
 21811      525F4143 
 21811      435F5349 
 21811      4D5F7400 
 21812              	.LASF490:
 21813 1ab1 4C534D33 		.ascii	"LSM303AGR_ACC_W_hpf_aoi_en_int1\000"
 21813      30334147 
 21813      525F4143 
 21813      435F575F 
 21813      6870665F 
 21814              	.LASF492:
 21815 1ad1 4C534D33 		.ascii	"LSM303AGR_ACC_W_hpf_aoi_en_int2\000"
 21815      30334147 
 21815      525F4143 
 21815      435F575F 
 21815      6870665F 
 21816              	.LASF211:
 21817 1af1 4C534D33 		.ascii	"LSM303AGR_ACC_TEMP_EN_ENABLED\000"
 21817      30334147 
 21817      525F4143 
 21817      435F5445 
 21817      4D505F45 
 21818              	.LASF375:
 21819 1b0f 4C534D33 		.ascii	"LSM303AGR_ACC_ZLIE_ENABLED\000"
 21819      30334147 
 21819      525F4143 
 21819      435F5A4C 
 21819      49455F45 
 21820              	.LASF382:
 21821 1b2a 4C534D33 		.ascii	"LSM303AGR_ACC_6D_t\000"
 21821      30334147 
 21821      525F4143 
 21821      435F3644 
 21821      5F7400
 21822              	.LASF412:
 21823 1b3d 4C534D33 		.ascii	"LSM303AGR_ACC_XD_t\000"
 21823      30334147 
 21823      525F4143 
 21823      435F5844 
 21823      5F7400
 21824              	.LASF21:
 21825 1b50 746D6F64 		.ascii	"tmode_t\000"
 21825      655F7400 
 21826              	.LASF610:
 21827 1b58 4C534D33 		.ascii	"LSM303AGR_ACC_R_Int2_YHi\000"
 21827      30334147 
 21827      525F4143 
ARM GAS  /tmp/ccRrg1qB.s 			page 406


 21827      435F525F 
 21827      496E7432 
 21828              	.LASF168:
 21829 1b71 4C534D33 		.ascii	"LSM303AGR_ACC_BDU_ENABLED\000"
 21829      30334147 
 21829      525F4143 
 21829      435F4244 
 21829      555F454E 
 21830              	.LASF370:
 21831 1b8b 4C534D33 		.ascii	"LSM303AGR_ACC_YLIE_t\000"
 21831      30334147 
 21831      525F4143 
 21831      435F594C 
 21831      49455F74 
 21832              	.LASF89:
 21833 1ba0 444D415F 		.ascii	"DMA_TypeDef\000"
 21833      54797065 
 21833      44656600 
 21834              	.LASF597:
 21835 1bac 4C534D33 		.ascii	"LSM303AGR_ACC_R_Int2_6D\000"
 21835      30334147 
 21835      525F4143 
 21835      435F525F 
 21835      496E7432 
 21836              	.LASF591:
 21837 1bc4 4C534D33 		.ascii	"LSM303AGR_ACC_R_Int2EnYHi\000"
 21837      30334147 
 21837      525F4143 
 21837      435F525F 
 21837      496E7432 
 21838              	.LASF131:
 21839 1bde 42535252 		.ascii	"BSRR\000"
 21839      00
 21840              	.LASF459:
 21841 1be3 4C534D33 		.ascii	"LSM303AGR_ACC_W_FullScale\000"
 21841      30334147 
 21841      525F4143 
 21841      435F575F 
 21841      46756C6C 
 21842              	.LASF124:
 21843 1bfd 73746D33 		.ascii	"stm32_dma_stream_t\000"
 21843      325F646D 
 21843      615F7374 
 21843      7265616D 
 21843      5F7400
 21844              	.LASF477:
 21845 1c10 4C534D33 		.ascii	"LSM303AGR_ACC_R_int_counter\000"
 21845      30334147 
 21845      525F4143 
 21845      435F525F 
 21845      696E745F 
 21846              	.LASF544:
 21847 1c2c 4C534D33 		.ascii	"LSM303AGR_ACC_W_I2_on_INT1\000"
 21847      30334147 
 21847      525F4143 
 21847      435F575F 
 21847      49325F6F 
ARM GAS  /tmp/ccRrg1qB.s 			page 407


 21848              	.LASF542:
 21849 1c47 4C534D33 		.ascii	"LSM303AGR_ACC_W_I2_on_INT2\000"
 21849      30334147 
 21849      525F4143 
 21849      435F575F 
 21849      49325F6F 
 21850              	.LASF480:
 21851 1c62 4C534D33 		.ascii	"LSM303AGR_ACC_W_ADC_PD\000"
 21851      30334147 
 21851      525F4143 
 21851      435F575F 
 21851      4144435F 
 21852              	.LASF485:
 21853 1c79 4C534D33 		.ascii	"LSM303AGR_ACC_R_YEN\000"
 21853      30334147 
 21853      525F4143 
 21853      435F525F 
 21853      59454E00 
 21854              	.LASF621:
 21855 1c8d 4C534D33 		.ascii	"LSM303AGR_ACC_R_Int2_Duration\000"
 21855      30334147 
 21855      525F4143 
 21855      435F525F 
 21855      496E7432 
 21856              	.LASF372:
 21857 1cab 4C534D33 		.ascii	"LSM303AGR_ACC_YHIE_ENABLED\000"
 21857      30334147 
 21857      525F4143 
 21857      435F5948 
 21857      49455F45 
 21858              	.LASF364:
 21859 1cc6 4C534D33 		.ascii	"LSM303AGR_ACC_XLIE_t\000"
 21859      30334147 
 21859      525F4143 
 21859      435F584C 
 21859      49455F74 
 21860              	.LASF596:
 21861 1cdb 4C534D33 		.ascii	"LSM303AGR_ACC_W_Int2_6D\000"
 21861      30334147 
 21861      525F4143 
 21861      435F575F 
 21861      496E7432 
 21862              	.LASF540:
 21863 1cf3 4C534D33 		.ascii	"LSM303AGR_ACC_W_Boot_on_INT2\000"
 21863      30334147 
 21863      525F4143 
 21863      435F575F 
 21863      426F6F74 
 21864              	.LASF575:
 21865 1d10 4C534D33 		.ascii	"LSM303AGR_ACC_R_Int1EnYHi\000"
 21865      30334147 
 21865      525F4143 
 21865      435F525F 
 21865      496E7431 
 21866              	.LASF314:
 21867 1d2a 4C534D33 		.ascii	"LSM303AGR_ACC_I2_INT2_t\000"
 21867      30334147 
ARM GAS  /tmp/ccRrg1qB.s 			page 408


 21867      525F4143 
 21867      435F4932 
 21867      5F494E54 
 21868              	.LASF132:
 21869 1d42 4C4F434B 		.ascii	"LOCKR\000"
 21869      5200
 21870              	.LASF292:
 21871 1d48 4C534D33 		.ascii	"LSM303AGR_ACC_D4D_INT1_ENABLED\000"
 21871      30334147 
 21871      525F4143 
 21871      435F4434 
 21871      445F494E 
 21872              	.LASF166:
 21873 1d67 73746174 		.ascii	"status_t\000"
 21873      75735F74 
 21873      00
 21874              	.LASF286:
 21875 1d70 4C534D33 		.ascii	"LSM303AGR_ACC_D4D_INT2_ENABLED\000"
 21875      30334147 
 21875      525F4143 
 21875      435F4434 
 21875      445F494E 
 21876              	.LASF183:
 21877 1d8f 4C534D33 		.ascii	"LSM303AGR_ACC_ODR_DO_1_6KHz\000"
 21877      30334147 
 21877      525F4143 
 21877      435F4F44 
 21877      525F444F 
 21878              	.LASF411:
 21879 1dab 4C534D33 		.ascii	"LSM303AGR_ACC_XD_ENABLED\000"
 21879      30334147 
 21879      525F4143 
 21879      435F5844 
 21879      5F454E41 
 21880              	.LASF169:
 21881 1dc4 4C534D33 		.ascii	"LSM303AGR_ACC_BDU_t\000"
 21881      30334147 
 21881      525F4143 
 21881      435F4244 
 21881      555F7400 
 21882              	.LASF468:
 21883 1dd8 4C534D33 		.ascii	"LSM303AGR_ACC_R_ODR\000"
 21883      30334147 
 21883      525F4143 
 21883      435F525F 
 21883      4F445200 
 21884              	.LASF76:
 21885 1dec 70616E69 		.ascii	"panic_msg\000"
 21885      635F6D73 
 21885      6700
 21886              	.LASF281:
 21887 1df6 4C534D33 		.ascii	"LSM303AGR_ACC_HR_t\000"
 21887      30334147 
 21887      525F4143 
 21887      435F4852 
 21887      5F7400
 21888              	.LASF142:
ARM GAS  /tmp/ccRrg1qB.s 			page 409


 21889 1e09 5350495F 		.ascii	"SPI_COMPLETE\000"
 21889      434F4D50 
 21889      4C455445 
 21889      00
 21890              	.LASF353:
 21891 1e16 4C534D33 		.ascii	"LSM303AGR_ACC_EMPTY_NOT_EMPTY\000"
 21891      30334147 
 21891      525F4143 
 21891      435F454D 
 21891      5054595F 
 21892              	.LASF60:
 21893 1e34 725F6E65 		.ascii	"r_newer\000"
 21893      77657200 
 21894              	.LASF304:
 21895 1e3c 4C534D33 		.ascii	"LSM303AGR_ACC_H_LACTIVE_ACTIVE_LO\000"
 21895      30334147 
 21895      525F4143 
 21895      435F485F 
 21895      4C414354 
 21896              	.LASF221:
 21897 1e5e 4C534D33 		.ascii	"LSM303AGR_ACC_YEN_t\000"
 21897      30334147 
 21897      525F4143 
 21897      435F5945 
 21897      4E5F7400 
 21898              	.LASF231:
 21899 1e72 4C534D33 		.ascii	"LSM303AGR_ACC_HPIS2_DISABLED\000"
 21899      30334147 
 21899      525F4143 
 21899      435F4850 
 21899      4953325F 
 21900              	.LASF282:
 21901 1e8f 4C534D33 		.ascii	"LSM303AGR_ACC_BLE_LITTLE_ENDIAN\000"
 21901      30334147 
 21901      525F4143 
 21901      435F424C 
 21901      455F4C49 
 21902              	.LASF634:
 21903 1eaf 4C534D33 		.ascii	"LSM303AGR_ACC_R_ClickX\000"
 21903      30334147 
 21903      525F4143 
 21903      435F525F 
 21903      436C6963 
 21904              	.LASF24:
 21905 1ec6 74736C69 		.ascii	"tslices_t\000"
 21905      6365735F 
 21905      7400
 21906              	.LASF636:
 21907 1ed0 4C534D33 		.ascii	"LSM303AGR_ACC_R_ClickZ\000"
 21907      30334147 
 21907      525F4143 
 21907      435F525F 
 21907      436C6963 
 21908              	.LASF562:
 21909 1ee7 4C534D33 		.ascii	"LSM303AGR_ACC_W_FifoMode\000"
 21909      30334147 
 21909      525F4143 
ARM GAS  /tmp/ccRrg1qB.s 			page 410


 21909      435F575F 
 21909      4669666F 
 21910              	.LASF68:
 21911 1f00 76745F64 		.ascii	"vt_delta\000"
 21911      656C7461 
 21911      00
 21912              	.LASF83:
 21913 1f09 73697A65 		.ascii	"sizetype\000"
 21913      74797065 
 21913      00
 21914              	.LASF525:
 21915 1f12 4C534D33 		.ascii	"LSM303AGR_ACC_R_4D_on_INT2\000"
 21915      30334147 
 21915      525F4143 
 21915      435F525F 
 21915      34445F6F 
 21916              	.LASF280:
 21917 1f2d 4C534D33 		.ascii	"LSM303AGR_ACC_HR_ENABLED\000"
 21917      30334147 
 21917      525F4143 
 21917      435F4852 
 21917      5F454E41 
 21918              	.LASF462:
 21919 1f46 62756666 		.ascii	"buff\000"
 21919      00
 21920              	.LASF398:
 21921 1f4b 4C534D33 		.ascii	"LSM303AGR_ACC_ZL_DOWN\000"
 21921      30334147 
 21921      525F4143 
 21921      435F5A4C 
 21921      5F444F57 
 21922              	.LASF651:
 21923 1f61 6C736D33 		.ascii	"lsm303ad_accel_cfg\000"
 21923      30336164 
 21923      5F616363 
 21923      656C5F63 
 21923      666700
 21924              	.LASF7:
 21925 1f74 73686F72 		.ascii	"short unsigned int\000"
 21925      7420756E 
 21925      7369676E 
 21925      65642069 
 21925      6E7400
 21926              	.LASF275:
 21927 1f87 4C534D33 		.ascii	"LSM303AGR_ACC_ST_SELF_TEST_0\000"
 21927      30334147 
 21927      525F4143 
 21927      435F5354 
 21927      5F53454C 
 21928              	.LASF276:
 21929 1fa4 4C534D33 		.ascii	"LSM303AGR_ACC_ST_SELF_TEST_1\000"
 21929      30334147 
 21929      525F4143 
 21929      435F5354 
 21929      5F53454C 
 21930              	.LASF1:
 21931 1fc1 7369676E 		.ascii	"signed char\000"
ARM GAS  /tmp/ccRrg1qB.s 			page 411


 21931      65642063 
 21931      68617200 
 21932              	.LASF469:
 21933 1fcd 4C534D33 		.ascii	"LSM303AGR_ACC_R_x_data_avail\000"
 21933      30334147 
 21933      525F4143 
 21933      435F525F 
 21933      785F6461 
 21934              	.LASF309:
 21935 1fea 4C534D33 		.ascii	"LSM303AGR_ACC_BOOT_I1_DISABLED\000"
 21935      30334147 
 21935      525F4143 
 21935      435F424F 
 21935      4F545F49 
 21936              	.LASF513:
 21937 2009 4C534D33 		.ascii	"LSM303AGR_ACC_R_FIFO_AOL1_on_INT1\000"
 21937      30334147 
 21937      525F4143 
 21937      435F525F 
 21937      4649464F 
 21938              	.LASF626:
 21939 202b 4C534D33 		.ascii	"LSM303AGR_ACC_W_YSingle\000"
 21939      30334147 
 21939      525F4143 
 21939      435F575F 
 21939      5953696E 
 21940              	.LASF408:
 21941 2043 4C534D33 		.ascii	"LSM303AGR_ACC_XS_ENABLED\000"
 21941      30334147 
 21941      525F4143 
 21941      435F5853 
 21941      5F454E41 
 21942              	.LASF41:
 21943 205c 705F7072 		.ascii	"p_preempt\000"
 21943      65656D70 
 21943      7400
 21944              	.LASF589:
 21945 2066 4C534D33 		.ascii	"LSM303AGR_ACC_R_Int2EnYLo\000"
 21945      30334147 
 21945      525F4143 
 21945      435F525F 
 21945      496E7432 
 21946              	.LASF639:
 21947 2080 4C534D33 		.ascii	"LSM303AGR_ACC_R_DoubleCLICK\000"
 21947      30334147 
 21947      525F4143 
 21947      435F525F 
 21947      446F7562 
 21948              	.LASF640:
 21949 209c 4C534D33 		.ascii	"LSM303AGR_ACC_R_CLICK_IA\000"
 21949      30334147 
 21949      525F4143 
 21949      435F525F 
 21949      434C4943 
 21950              	.LASF438:
 21951 20b5 4C534D33 		.ascii	"LSM303AGR_ACC_SCLICK_ENABLED\000"
 21951      30334147 
ARM GAS  /tmp/ccRrg1qB.s 			page 412


 21951      525F4143 
 21951      435F5343 
 21951      4C49434B 
 21952              	.LASF454:
 21953 20d2 4C534D33 		.ascii	"LSM303AGR_ACC_ReadReg\000"
 21953      30334147 
 21953      525F4143 
 21953      435F5265 
 21953      61645265 
 21954              	.LASF555:
 21955 20e8 4C534D33 		.ascii	"LSM303AGR_ACC_R_YDataOverrun\000"
 21955      30334147 
 21955      525F4143 
 21955      435F525F 
 21955      59446174 
 21956              	.LASF616:
 21957 2105 4C534D33 		.ascii	"LSM303AGR_ACC_W_Int2_Threshold\000"
 21957      30334147 
 21957      525F4143 
 21957      435F575F 
 21957      496E7432 
 21958              	.LASF573:
 21959 2124 4C534D33 		.ascii	"LSM303AGR_ACC_R_Int1EnYLo\000"
 21959      30334147 
 21959      525F4143 
 21959      435F525F 
 21959      496E7431 
 21960              	.LASF239:
 21961 213e 4C534D33 		.ascii	"LSM303AGR_ACC_FDS_t\000"
 21961      30334147 
 21961      525F4143 
 21961      435F4644 
 21961      535F7400 
 21962              	.LASF43:
 21963 2152 705F6D73 		.ascii	"p_msgqueue\000"
 21963      67717565 
 21963      756500
 21964              	.LASF114:
 21965 215d 6D5F6F77 		.ascii	"m_owner\000"
 21965      6E657200 
 21966              	.LASF518:
 21967 2165 4C534D33 		.ascii	"LSM303AGR_ACC_W_SelfTest\000"
 21967      30334147 
 21967      525F4143 
 21967      435F575F 
 21967      53656C66 
 21968              	.LASF612:
 21969 217e 4C534D33 		.ascii	"LSM303AGR_ACC_R_Int2_ZHi\000"
 21969      30334147 
 21969      525F4143 
 21969      435F525F 
 21969      496E7432 
 21970              	.LASF325:
 21971 2197 4C534D33 		.ascii	"LSM303AGR_ACC_YDA_AVAILABLE\000"
 21971      30334147 
 21971      525F4143 
 21971      435F5944 
ARM GAS  /tmp/ccRrg1qB.s 			page 413


 21971      415F4156 
 21972              	.LASF566:
 21973 21b3 4C534D33 		.ascii	"LSM303AGR_ACC_R_FifoOverrun\000"
 21973      30334147 
 21973      525F4143 
 21973      435F525F 
 21973      4669666F 
 21974              	.LASF145:
 21975 21cf 73746174 		.ascii	"state\000"
 21975      6500
 21976              	.LASF445:
 21977 21d5 4C534D33 		.ascii	"LSM303AGR_ACC_CLICK_IA_t\000"
 21977      30334147 
 21977      525F4143 
 21977      435F434C 
 21977      49434B5F 
 21978              	.LASF650:
 21979 21ee 6E756D62 		.ascii	"numberOfByteForDimension\000"
 21979      65724F66 
 21979      42797465 
 21979      466F7244 
 21979      696D656E 
 21980              	.LASF206:
 21981 2207 4C534D33 		.ascii	"LSM303AGR_ACC_3OR__t\000"
 21981      30334147 
 21981      525F4143 
 21981      435F334F 
 21981      525F5F74 
 21982              	.LASF649:
 21983 221c 4C534D33 		.ascii	"LSM303AGR_ACC_Get_Voltage_ADC\000"
 21983      30334147 
 21983      525F4143 
 21983      435F4765 
 21983      745F566F 
 21984              	.LASF595:
 21985 223a 4C534D33 		.ascii	"LSM303AGR_ACC_R_Int2EnZHi\000"
 21985      30334147 
 21985      525F4143 
 21985      435F525F 
 21985      496E7432 
 21986              	.LASF209:
 21987 2254 4C534D33 		.ascii	"LSM303AGR_ACC_321OR__t\000"
 21987      30334147 
 21987      525F4143 
 21987      435F3332 
 21987      314F525F 
 21988              	.LASF259:
 21989 226b 4C534D33 		.ascii	"LSM303AGR_ACC_I1_DRDY1_DISABLED\000"
 21989      30334147 
 21989      525F4143 
 21989      435F4931 
 21989      5F445244 
 21990              	.LASF487:
 21991 228b 4C534D33 		.ascii	"LSM303AGR_ACC_R_ZEN\000"
 21991      30334147 
 21991      525F4143 
 21991      435F525F 
ARM GAS  /tmp/ccRrg1qB.s 			page 414


 21991      5A454E00 
 21992              	.LASF489:
 21993 229f 4C534D33 		.ascii	"LSM303AGR_ACC_R_LOWPWR_EN\000"
 21993      30334147 
 21993      525F4143 
 21993      435F525F 
 21993      4C4F5750 
 21994              	.LASF78:
 21995 22b9 63685F73 		.ascii	"ch_system\000"
 21995      79737465 
 21995      6D00
 21996              	.LASF190:
 21997 22c3 4C534D33 		.ascii	"LSM303AGR_ACC_2DA__AVAILABLE\000"
 21997      30334147 
 21997      525F4143 
 21997      435F3244 
 21997      415F5F41 
 21998              	.LASF203:
 21999 22e0 4C534D33 		.ascii	"LSM303AGR_ACC_2OR__t\000"
 21999      30334147 
 21999      525F4143 
 21999      435F324F 
 21999      525F5F74 
 22000              	.LASF579:
 22001 22f5 4C534D33 		.ascii	"LSM303AGR_ACC_R_Int1EnZHi\000"
 22001      30334147 
 22001      525F4143 
 22001      435F525F 
 22001      496E7431 
 22002              	.LASF265:
 22003 230f 4C534D33 		.ascii	"LSM303AGR_ACC_I1_AOI1_DISABLED\000"
 22003      30334147 
 22003      525F4143 
 22003      435F4931 
 22003      5F414F49 
 22004              	.LASF551:
 22005 232e 4C534D33 		.ascii	"LSM303AGR_ACC_R_YDataAvail\000"
 22005      30334147 
 22005      525F4143 
 22005      435F525F 
 22005      59446174 
 22006              	.LASF109:
 22007 2349 63685F73 		.ascii	"ch_semaphore\000"
 22007      656D6170 
 22007      686F7265 
 22007      00
 22008              	.LASF439:
 22009 2356 4C534D33 		.ascii	"LSM303AGR_ACC_SCLICK_t\000"
 22009      30334147 
 22009      525F4143 
 22009      435F5343 
 22009      4C49434B 
 22010              	.LASF200:
 22011 236d 4C534D33 		.ascii	"LSM303AGR_ACC_1OR__t\000"
 22011      30334147 
 22011      525F4143 
 22011      435F314F 
ARM GAS  /tmp/ccRrg1qB.s 			page 415


 22011      525F5F74 
 22012              	.LASF451:
 22013 2382 4C534D33 		.ascii	"LSM303AGR_ACC_WriteReg\000"
 22013      30334147 
 22013      525F4143 
 22013      435F5772 
 22013      69746552 
 22014              	.LASF53:
 22015 2399 74687265 		.ascii	"threads_queue_t\000"
 22015      6164735F 
 22015      71756575 
 22015      655F7400 
 22016              	.LASF40:
 22017 23a9 705F7265 		.ascii	"p_refs\000"
 22017      667300
 22018              	.LASF351:
 22019 23b0 4C534D33 		.ascii	"LSM303AGR_ACC_FM_TRIGGER\000"
 22019      30334147 
 22019      525F4143 
 22019      435F464D 
 22019      5F545249 
 22020              	.LASF9:
 22021 23c9 6C6F6E67 		.ascii	"long int\000"
 22021      20696E74 
 22021      00
 22022              	.LASF81:
 22023 23d2 6D61696E 		.ascii	"mainthread\000"
 22023      74687265 
 22023      616400
 22024              	.LASF113:
 22025 23dd 6D5F7175 		.ascii	"m_queue\000"
 22025      65756500 
 22026              	.LASF312:
 22027 23e5 4C534D33 		.ascii	"LSM303AGR_ACC_I2_INT2_DISABLED\000"
 22027      30334147 
 22027      525F4143 
 22027      435F4932 
 22027      5F494E54 
 22028              	.LASF137:
 22029 2404 696F706F 		.ascii	"ioportid_t\000"
 22029      72746964 
 22029      5F7400
 22030              	.LASF443:
 22031 240f 4C534D33 		.ascii	"LSM303AGR_ACC_CLICK_IA_DOWN\000"
 22031      30334147 
 22031      525F4143 
 22031      435F434C 
 22031      49434B5F 
 22032              	.LASF319:
 22033 242b 4C534D33 		.ascii	"LSM303AGR_ACC_I2_CLICKEN_ENABLED\000"
 22033      30334147 
 22033      525F4143 
 22033      435F4932 
 22033      5F434C49 
 22034              	.LASF297:
 22035 244c 4C534D33 		.ascii	"LSM303AGR_ACC_FIFO_EN_DISABLED\000"
 22035      30334147 
ARM GAS  /tmp/ccRrg1qB.s 			page 416


 22035      525F4143 
 22035      435F4649 
 22035      464F5F45 
 22036              	.LASF235:
 22037 246b 4C534D33 		.ascii	"LSM303AGR_ACC_HPCLICK_ENABLED\000"
 22037      30334147 
 22037      525F4143 
 22037      435F4850 
 22037      434C4943 
 22038              	.LASF528:
 22039 2489 4C534D33 		.ascii	"LSM303AGR_ACC_W_4D_on_INT1\000"
 22039      30334147 
 22039      525F4143 
 22039      435F575F 
 22039      34445F6F 
 22040              	.LASF524:
 22041 24a4 4C534D33 		.ascii	"LSM303AGR_ACC_W_4D_on_INT2\000"
 22041      30334147 
 22041      525F4143 
 22041      435F575F 
 22041      34445F6F 
 22042              	.LASF105:
 22043 24bf 77747472 		.ascii	"wttrp\000"
 22043      7000
 22044              	.LASF98:
 22045 24c5 636F6E74 		.ascii	"context\000"
 22045      65787400 
 22046              	.LASF359:
 22047 24cd 4C534D33 		.ascii	"LSM303AGR_ACC_WTM_NORMAL\000"
 22047      30334147 
 22047      525F4143 
 22047      435F5754 
 22047      4D5F4E4F 
 22048              	.LASF440:
 22049 24e6 4C534D33 		.ascii	"LSM303AGR_ACC_DCLICK_DISABLED\000"
 22049      30334147 
 22049      525F4143 
 22049      435F4443 
 22049      4C49434B 
 22050              	.LASF648:
 22051 2504 4C534D33 		.ascii	"LSM303AGR_ACC_R_ClickTimeWindow\000"
 22051      30334147 
 22051      525F4143 
 22051      435F525F 
 22051      436C6963 
 22052              	.LASF198:
 22053 2524 4C534D33 		.ascii	"LSM303AGR_ACC_1OR__NO_OVERRUN\000"
 22053      30334147 
 22053      525F4143 
 22053      435F314F 
 22053      525F5F4E 
 22054              	.LASF174:
 22055 2542 4C534D33 		.ascii	"LSM303AGR_ACC_FS_t\000"
 22055      30334147 
 22055      525F4143 
 22055      435F4653 
 22055      5F7400
ARM GAS  /tmp/ccRrg1qB.s 			page 417


 22056              	.LASF344:
 22057 2555 4C534D33 		.ascii	"LSM303AGR_ACC_ZYXOR_t\000"
 22057      30334147 
 22057      525F4143 
 22057      435F5A59 
 22057      584F525F 
 22058              	.LASF18:
 22059 256b 75696E74 		.ascii	"uint32_t\000"
 22059      33325F74 
 22059      00
 22060              	.LASF593:
 22061 2574 4C534D33 		.ascii	"LSM303AGR_ACC_R_Int2EnZLo\000"
 22061      30334147 
 22061      525F4143 
 22061      435F525F 
 22061      496E7432 
 22062              	.LASF388:
 22063 258e 4C534D33 		.ascii	"LSM303AGR_ACC_XL_t\000"
 22063      30334147 
 22063      525F4143 
 22063      435F584C 
 22063      5F7400
 22064              	.LASF179:
 22065 25a1 4C534D33 		.ascii	"LSM303AGR_ACC_ODR_DO_50Hz\000"
 22065      30334147 
 22065      525F4143 
 22065      435F4F44 
 22065      525F444F 
 22066              	.LASF261:
 22067 25bb 4C534D33 		.ascii	"LSM303AGR_ACC_I1_DRDY1_t\000"
 22067      30334147 
 22067      525F4143 
 22067      435F4931 
 22067      5F445244 
 22068              	.LASF96:
 22069 25d4 72656761 		.ascii	"regarm_t\000"
 22069      726D5F74 
 22069      00
 22070              	.LASF27:
 22071 25dd 6576656E 		.ascii	"eventmask_t\000"
 22071      746D6173 
 22071      6B5F7400 
 22072              	.LASF600:
 22073 25e9 4C534D33 		.ascii	"LSM303AGR_ACC_R_Int1_Xlo\000"
 22073      30334147 
 22073      525F4143 
 22073      435F525F 
 22073      496E7431 
 22074              	.LASF436:
 22075 2602 4C534D33 		.ascii	"LSM303AGR_ACC_SIGN_t\000"
 22075      30334147 
 22075      525F4143 
 22075      435F5349 
 22075      474E5F74 
 22076              	.LASF577:
 22077 2617 4C534D33 		.ascii	"LSM303AGR_ACC_R_Int1EnZLo\000"
 22077      30334147 
ARM GAS  /tmp/ccRrg1qB.s 			page 418


 22077      525F4143 
 22077      435F525F 
 22077      496E7431 
 22078              	.LASF539:
 22079 2631 4C534D33 		.ascii	"LSM303AGR_ACC_R_P2_ACT\000"
 22079      30334147 
 22079      525F4143 
 22079      435F525F 
 22079      50325F41 
 22080              	.LASF11:
 22081 2648 6C6F6E67 		.ascii	"long unsigned int\000"
 22081      20756E73 
 22081      69676E65 
 22081      6420696E 
 22081      7400
 22082              	.LASF260:
 22083 265a 4C534D33 		.ascii	"LSM303AGR_ACC_I1_DRDY1_ENABLED\000"
 22083      30334147 
 22083      525F4143 
 22083      435F4931 
 22083      5F445244 
 22084              	.LASF257:
 22085 2679 4C534D33 		.ascii	"LSM303AGR_ACC_I1_DRDY2_ENABLED\000"
 22085      30334147 
 22085      525F4143 
 22085      435F4931 
 22085      5F445244 
 22086              	.LASF491:
 22087 2698 4C534D33 		.ascii	"LSM303AGR_ACC_R_hpf_aoi_en_int1\000"
 22087      30334147 
 22087      525F4143 
 22087      435F525F 
 22087      6870665F 
 22088              	.LASF493:
 22089 26b8 4C534D33 		.ascii	"LSM303AGR_ACC_R_hpf_aoi_en_int2\000"
 22089      30334147 
 22089      525F4143 
 22089      435F525F 
 22089      6870665F 
 22090              	.LASF531:
 22091 26d8 4C534D33 		.ascii	"LSM303AGR_ACC_R_LatchInterrupt_on_INT1\000"
 22091      30334147 
 22091      525F4143 
 22091      435F525F 
 22091      4C617463 
 22092              	.LASF527:
 22093 26ff 4C534D33 		.ascii	"LSM303AGR_ACC_R_LatchInterrupt_on_INT2\000"
 22093      30334147 
 22093      525F4143 
 22093      435F525F 
 22093      4C617463 
 22094              	.LASF647:
 22095 2726 4C534D33 		.ascii	"LSM303AGR_ACC_W_ClickTimeWindow\000"
 22095      30334147 
 22095      525F4143 
 22095      435F575F 
 22095      436C6963 
ARM GAS  /tmp/ccRrg1qB.s 			page 419


 22096              	.LASF399:
 22097 2746 4C534D33 		.ascii	"LSM303AGR_ACC_ZL_UP\000"
 22097      30334147 
 22097      525F4143 
 22097      435F5A4C 
 22097      5F555000 
 22098              	.LASF213:
 22099 275a 4C534D33 		.ascii	"LSM303AGR_ACC_ADC_PD_DISABLED\000"
 22099      30334147 
 22099      525F4143 
 22099      435F4144 
 22099      435F5044 
 22100              	.LASF293:
 22101 2778 4C534D33 		.ascii	"LSM303AGR_ACC_D4D_INT1_t\000"
 22101      30334147 
 22101      525F4143 
 22101      435F4434 
 22101      445F494E 
 22102              	.LASF609:
 22103 2791 4C534D33 		.ascii	"LSM303AGR_ACC_R_Int2_YLo\000"
 22103      30334147 
 22103      525F4143 
 22103      435F525F 
 22103      496E7432 
 22104              	.LASF116:
 22105 27aa 63686172 		.ascii	"char\000"
 22105      00
 22106              	.LASF57:
 22107 27af 725F7175 		.ascii	"r_queue\000"
 22107      65756500 
 22108              	.LASF417:
 22109 27b7 4C534D33 		.ascii	"LSM303AGR_ACC_YD_ENABLED\000"
 22109      30334147 
 22109      525F4143 
 22109      435F5944 
 22109      5F454E41 
 22110              	.LASF536:
 22111 27d0 4C534D33 		.ascii	"LSM303AGR_ACC_W_IntActive\000"
 22111      30334147 
 22111      525F4143 
 22111      435F575F 
 22111      496E7441 
 22112              	.LASF178:
 22113 27ea 4C534D33 		.ascii	"LSM303AGR_ACC_ODR_DO_25Hz\000"
 22113      30334147 
 22113      525F4143 
 22113      435F4F44 
 22113      525F444F 
 22114              	.LASF472:
 22115 2804 4C534D33 		.ascii	"LSM303AGR_ACC_R_xyz_data_avail\000"
 22115      30334147 
 22115      525F4143 
 22115      435F525F 
 22115      78797A5F 
 22116              	.LASF294:
 22117 2823 4C534D33 		.ascii	"LSM303AGR_ACC_LIR_INT1_DISABLED\000"
 22117      30334147 
ARM GAS  /tmp/ccRrg1qB.s 			page 420


 22117      525F4143 
 22117      435F4C49 
 22117      525F494E 
 22118              	.LASF332:
 22119 2843 4C534D33 		.ascii	"LSM303AGR_ACC_ZYXDA_t\000"
 22119      30334147 
 22119      525F4143 
 22119      435F5A59 
 22119      5844415F 
 22120              	.LASF381:
 22121 2859 4C534D33 		.ascii	"LSM303AGR_ACC_6D_ENABLED\000"
 22121      30334147 
 22121      525F4143 
 22121      435F3644 
 22121      5F454E41 
 22122              	.LASF619:
 22123 2872 4C534D33 		.ascii	"LSM303AGR_ACC_R_Int1_Duration\000"
 22123      30334147 
 22123      525F4143 
 22123      435F525F 
 22123      496E7431 
 22124              	.LASF500:
 22125 2890 4C534D33 		.ascii	"LSM303AGR_ACC_W_hpf_mode\000"
 22125      30334147 
 22125      525F4143 
 22125      435F575F 
 22125      6870665F 
 22126              	.LASF369:
 22127 28a9 4C534D33 		.ascii	"LSM303AGR_ACC_YLIE_ENABLED\000"
 22127      30334147 
 22127      525F4143 
 22127      435F594C 
 22127      49455F45 
 22128              	.LASF557:
 22129 28c4 4C534D33 		.ascii	"LSM303AGR_ACC_R_XYZDataOverrun\000"
 22129      30334147 
 22129      525F4143 
 22129      435F525F 
 22129      58595A44 
 22130              	.LASF457:
 22131 28e3 6E657756 		.ascii	"newValue\000"
 22131      616C7565 
 22131      00
 22132              	.LASF299:
 22133 28ec 4C534D33 		.ascii	"LSM303AGR_ACC_FIFO_EN_t\000"
 22133      30334147 
 22133      525F4143 
 22133      435F4649 
 22133      464F5F45 
 22134              	.LASF516:
 22135 2904 4C534D33 		.ascii	"LSM303AGR_ACC_W_SPI_mode\000"
 22135      30334147 
 22135      525F4143 
 22135      435F575F 
 22135      5350495F 
 22136              	.LASF362:
 22137 291d 4C534D33 		.ascii	"LSM303AGR_ACC_XLIE_DISABLED\000"
ARM GAS  /tmp/ccRrg1qB.s 			page 421


 22137      30334147 
 22137      525F4143 
 22137      435F584C 
 22137      49455F44 
 22138              	.LASF503:
 22139 2939 4C534D33 		.ascii	"LSM303AGR_ACC_R_FIFO_Overrun_on_INT1\000"
 22139      30334147 
 22139      525F4143 
 22139      435F525F 
 22139      4649464F 
 22140              	.LASF366:
 22141 295e 4C534D33 		.ascii	"LSM303AGR_ACC_XHIE_ENABLED\000"
 22141      30334147 
 22141      525F4143 
 22141      435F5848 
 22141      49455F45 
 22142              	.LASF177:
 22143 2979 4C534D33 		.ascii	"LSM303AGR_ACC_ODR_DO_10Hz\000"
 22143      30334147 
 22143      525F4143 
 22143      435F4F44 
 22143      525F444F 
 22144              	.LASF374:
 22145 2993 4C534D33 		.ascii	"LSM303AGR_ACC_ZLIE_DISABLED\000"
 22145      30334147 
 22145      525F4143 
 22145      435F5A4C 
 22145      49455F44 
 22146              	.LASF336:
 22147 29af 4C534D33 		.ascii	"LSM303AGR_ACC_YOR_NO_OVERRUN\000"
 22147      30334147 
 22147      525F4143 
 22147      435F594F 
 22147      525F4E4F 
 22148              	.LASF413:
 22149 29cc 4C534D33 		.ascii	"LSM303AGR_ACC_YS_DISABLED\000"
 22149      30334147 
 22149      525F4143 
 22149      435F5953 
 22149      5F444953 
 22150              	.LASF338:
 22151 29e6 4C534D33 		.ascii	"LSM303AGR_ACC_YOR_t\000"
 22151      30334147 
 22151      525F4143 
 22151      435F594F 
 22151      525F7400 
 22152              	.LASF161:
 22153 29fa 69313662 		.ascii	"i16bit\000"
 22153      697400
 22154              	.LASF623:
 22155 2a01 4C534D33 		.ascii	"LSM303AGR_ACC_R_XSingle\000"
 22155      30334147 
 22155      525F4143 
 22155      435F525F 
 22155      5853696E 
 22156              	.LASF318:
 22157 2a19 4C534D33 		.ascii	"LSM303AGR_ACC_I2_CLICKEN_DISABLED\000"
ARM GAS  /tmp/ccRrg1qB.s 			page 422


 22157      30334147 
 22157      525F4143 
 22157      435F4932 
 22157      5F434C49 
 22158              	.LASF618:
 22159 2a3b 4C534D33 		.ascii	"LSM303AGR_ACC_W_Int1_Duration\000"
 22159      30334147 
 22159      525F4143 
 22159      435F575F 
 22159      496E7431 
 22160              	.LASF28:
 22161 2a59 636E745F 		.ascii	"cnt_t\000"
 22161      7400
 22162              	.LASF444:
 22163 2a5f 4C534D33 		.ascii	"LSM303AGR_ACC_CLICK_IA_UP\000"
 22163      30334147 
 22163      525F4143 
 22163      435F434C 
 22163      49434B5F 
 22164              	.LASF389:
 22165 2a79 4C534D33 		.ascii	"LSM303AGR_ACC_XH_DOWN\000"
 22165      30334147 
 22165      525F4143 
 22165      435F5848 
 22165      5F444F57 
 22166              	.LASF463:
 22167 2a8f 4C534D33 		.ascii	"LSM303AGR_ACC_Get_Acceleration\000"
 22167      30334147 
 22167      525F4143 
 22167      435F4765 
 22167      745F4163 
 22168              	.LASF119:
 22169 2aae 636D6173 		.ascii	"cmask\000"
 22169      6B00
 22170              	.LASF223:
 22171 2ab4 4C534D33 		.ascii	"LSM303AGR_ACC_ZEN_ENABLED\000"
 22171      30334147 
 22171      525F4143 
 22171      435F5A45 
 22171      4E5F454E 
 22172              	.LASF134:
 22173 2ace 41465248 		.ascii	"AFRH\000"
 22173      00
 22174              	.LASF133:
 22175 2ad3 4146524C 		.ascii	"AFRL\000"
 22175      00
 22176              	.LASF622:
 22177 2ad8 4C534D33 		.ascii	"LSM303AGR_ACC_W_XSingle\000"
 22177      30334147 
 22177      525F4143 
 22177      435F575F 
 22177      5853696E 
 22178              	.LASF397:
 22179 2af0 4C534D33 		.ascii	"LSM303AGR_ACC_YH_t\000"
 22179      30334147 
 22179      525F4143 
 22179      435F5948 
ARM GAS  /tmp/ccRrg1qB.s 			page 423


 22179      5F7400
 22180              	.LASF240:
 22181 2b03 4C534D33 		.ascii	"LSM303AGR_ACC_HPCF_00\000"
 22181      30334147 
 22181      525F4143 
 22181      435F4850 
 22181      43465F30 
 22182              	.LASF241:
 22183 2b19 4C534D33 		.ascii	"LSM303AGR_ACC_HPCF_01\000"
 22183      30334147 
 22183      525F4143 
 22183      435F4850 
 22183      43465F30 
 22184              	.LASF234:
 22185 2b2f 4C534D33 		.ascii	"LSM303AGR_ACC_HPCLICK_DISABLED\000"
 22185      30334147 
 22185      525F4143 
 22185      435F4850 
 22185      434C4943 
 22186              	.LASF402:
 22187 2b4e 4C534D33 		.ascii	"LSM303AGR_ACC_ZH_UP\000"
 22187      30334147 
 22187      525F4143 
 22187      435F5A48 
 22187      5F555000 
 22188              	.LASF258:
 22189 2b62 4C534D33 		.ascii	"LSM303AGR_ACC_I1_DRDY2_t\000"
 22189      30334147 
 22189      525F4143 
 22189      435F4931 
 22189      5F445244 
 22190              	.LASF167:
 22191 2b7b 4C534D33 		.ascii	"LSM303AGR_ACC_BDU_DISABLED\000"
 22191      30334147 
 22191      525F4143 
 22191      435F4244 
 22191      555F4449 
 22192              	.LASF146:
 22193 2b96 636F6E66 		.ascii	"config\000"
 22193      696700
 22194              	.LASF615:
 22195 2b9d 4C534D33 		.ascii	"LSM303AGR_ACC_R_Int1_Threshold\000"
 22195      30334147 
 22195      525F4143 
 22195      435F525F 
 22195      496E7431 
 22196              	.LASF308:
 22197 2bbc 4C534D33 		.ascii	"LSM303AGR_ACC_P2_ACT_t\000"
 22197      30334147 
 22197      525F4143 
 22197      435F5032 
 22197      5F414354 
 22198              	.LASF135:
 22199 2bd3 41534352 		.ascii	"ASCR\000"
 22199      00
 22200              	.LASF242:
 22201 2bd8 4C534D33 		.ascii	"LSM303AGR_ACC_HPCF_10\000"
ARM GAS  /tmp/ccRrg1qB.s 			page 424


 22201      30334147 
 22201      525F4143 
 22201      435F4850 
 22201      43465F31 
 22202              	.LASF243:
 22203 2bee 4C534D33 		.ascii	"LSM303AGR_ACC_HPCF_11\000"
 22203      30334147 
 22203      525F4143 
 22203      435F4850 
 22203      43465F31 
 22204              	.LASF63:
 22205 2c04 76746675 		.ascii	"vtfunc_t\000"
 22205      6E635F74 
 22205      00
 22206              	.LASF377:
 22207 2c0d 4C534D33 		.ascii	"LSM303AGR_ACC_ZHIE_DISABLED\000"
 22207      30334147 
 22207      525F4143 
 22207      435F5A48 
 22207      49455F44 
 22208              	.LASF196:
 22209 2c29 4C534D33 		.ascii	"LSM303AGR_ACC_321DA__AVAILABLE\000"
 22209      30334147 
 22209      525F4143 
 22209      435F3332 
 22209      3144415F 
 22210              	.LASF310:
 22211 2c48 4C534D33 		.ascii	"LSM303AGR_ACC_BOOT_I1_ENABLED\000"
 22211      30334147 
 22211      525F4143 
 22211      435F424F 
 22211      4F545F49 
 22212              	.LASF104:
 22213 2c66 77746F62 		.ascii	"wtobjp\000"
 22213      6A7000
 22214              	.LASF47:
 22215 2c6d 705F7265 		.ascii	"p_realprio\000"
 22215      616C7072 
 22215      696F00
 22216              	.LASF627:
 22217 2c78 4C534D33 		.ascii	"LSM303AGR_ACC_R_YSingle\000"
 22217      30334147 
 22217      525F4143 
 22217      435F525F 
 22217      5953696E 
 22218              	.LASF450:
 22219 2c90 4C534D33 		.ascii	"LSM303AGR_ACC_HR_Init\000"
 22219      30334147 
 22219      525F4143 
 22219      435F4852 
 22219      5F496E69 
 22220              	.LASF107:
 22221 2ca6 77746D74 		.ascii	"wtmtxp\000"
 22221      787000
 22222              	.LASF222:
 22223 2cad 4C534D33 		.ascii	"LSM303AGR_ACC_ZEN_DISABLED\000"
 22223      30334147 
ARM GAS  /tmp/ccRrg1qB.s 			page 425


 22223      525F4143 
 22223      435F5A45 
 22223      4E5F4449 
 22224              	.LASF326:
 22225 2cc8 4C534D33 		.ascii	"LSM303AGR_ACC_YDA_t\000"
 22225      30334147 
 22225      525F4143 
 22225      435F5944 
 22225      415F7400 
 22226              	.LASF552:
 22227 2cdc 4C534D33 		.ascii	"LSM303AGR_ACC_R_ZDataAvail\000"
 22227      30334147 
 22227      525F4143 
 22227      435F525F 
 22227      5A446174 
 22228              	.LASF170:
 22229 2cf7 4C534D33 		.ascii	"LSM303AGR_ACC_FS_2G\000"
 22229      30334147 
 22229      525F4143 
 22229      435F4653 
 22229      5F324700 
 22230              	.LASF538:
 22231 2d0b 4C534D33 		.ascii	"LSM303AGR_ACC_W_P2_ACT\000"
 22231      30334147 
 22231      525F4143 
 22231      435F575F 
 22231      50325F41 
 22232              	.LASF554:
 22233 2d22 4C534D33 		.ascii	"LSM303AGR_ACC_R_XDataOverrun\000"
 22233      30334147 
 22233      525F4143 
 22233      435F525F 
 22233      58446174 
 22234              	.LASF322:
 22235 2d3f 4C534D33 		.ascii	"LSM303AGR_ACC_XDA_AVAILABLE\000"
 22235      30334147 
 22235      525F4143 
 22235      435F5844 
 22235      415F4156 
 22236              	.LASF437:
 22237 2d5b 4C534D33 		.ascii	"LSM303AGR_ACC_SCLICK_DISABLED\000"
 22237      30334147 
 22237      525F4143 
 22237      435F5343 
 22237      4C49434B 
 22238              	.LASF56:
 22239 2d79 63685F72 		.ascii	"ch_ready_list\000"
 22239      65616479 
 22239      5F6C6973 
 22239      7400
 22240              	.LASF130:
 22241 2d87 50555044 		.ascii	"PUPDR\000"
 22241      5200
 22242              	.LASF8:
 22243 2d8d 5F5F696E 		.ascii	"__int32_t\000"
 22243      7433325F 
 22243      7400
ARM GAS  /tmp/ccRrg1qB.s 			page 426


 22244              	.LASF613:
 22245 2d97 4C534D33 		.ascii	"LSM303AGR_ACC_R_Int2_IA\000"
 22245      30334147 
 22245      525F4143 
 22245      435F525F 
 22245      496E7432 
 22246              	.LASF10:
 22247 2daf 5F5F7569 		.ascii	"__uint32_t\000"
 22247      6E743332 
 22247      5F7400
 22248              	.LASF75:
 22249 2dba 63685F73 		.ascii	"ch_system_debug\000"
 22249      79737465 
 22249      6D5F6465 
 22249      62756700 
 22250              	.LASF255:
 22251 2dca 4C534D33 		.ascii	"LSM303AGR_ACC_I1_WTM_t\000"
 22251      30334147 
 22251      525F4143 
 22251      435F4931 
 22251      5F57544D 
 22252              	.LASF429:
 22253 2de1 4C534D33 		.ascii	"LSM303AGR_ACC_Y_UP\000"
 22253      30334147 
 22253      525F4143 
 22253      435F595F 
 22253      555000
 22254              	.LASF384:
 22255 2df4 4C534D33 		.ascii	"LSM303AGR_ACC_AOI_AND\000"
 22255      30334147 
 22255      525F4143 
 22255      435F414F 
 22255      495F414E 
 22256              	.LASF501:
 22257 2e0a 4C534D33 		.ascii	"LSM303AGR_ACC_R_hpf_mode\000"
 22257      30334147 
 22257      525F4143 
 22257      435F525F 
 22257      6870665F 
 22258              	.LASF199:
 22259 2e23 4C534D33 		.ascii	"LSM303AGR_ACC_1OR__OVERRUN\000"
 22259      30334147 
 22259      525F4143 
 22259      435F314F 
 22259      525F5F4F 
 22260              	.LASF328:
 22261 2e3e 4C534D33 		.ascii	"LSM303AGR_ACC_ZDA_AVAILABLE\000"
 22261      30334147 
 22261      525F4143 
 22261      435F5A44 
 22261      415F4156 
 22262              	.LASF229:
 22263 2e5a 4C534D33 		.ascii	"LSM303AGR_ACC_HPIS1_ENABLED\000"
 22263      30334147 
 22263      525F4143 
 22263      435F4850 
 22263      4953315F 
ARM GAS  /tmp/ccRrg1qB.s 			page 427


 22264              	.LASF232:
 22265 2e76 4C534D33 		.ascii	"LSM303AGR_ACC_HPIS2_ENABLED\000"
 22265      30334147 
 22265      525F4143 
 22265      435F4850 
 22265      4953325F 
 22266              	.LASF122:
 22267 2e92 73656C66 		.ascii	"selfindex\000"
 22267      696E6465 
 22267      7800
 22268              	.LASF415:
 22269 2e9c 4C534D33 		.ascii	"LSM303AGR_ACC_YS_t\000"
 22269      30334147 
 22269      525F4143 
 22269      435F5953 
 22269      5F7400
 22270              	.LASF117:
 22271 2eaf 6D757465 		.ascii	"mutex_t\000"
 22271      785F7400 
 22272              	.LASF45:
 22273 2eb7 705F6570 		.ascii	"p_epending\000"
 22273      656E6469 
 22273      6E6700
 22274              	.LASF337:
 22275 2ec2 4C534D33 		.ascii	"LSM303AGR_ACC_YOR_OVERRUN\000"
 22275      30334147 
 22275      525F4143 
 22275      435F594F 
 22275      525F4F56 
 22276              	.LASF127:
 22277 2edc 4D4F4445 		.ascii	"MODER\000"
 22277      5200
 22278              	.LASF305:
 22279 2ee2 4C534D33 		.ascii	"LSM303AGR_ACC_H_LACTIVE_t\000"
 22279      30334147 
 22279      525F4143 
 22279      435F485F 
 22279      4C414354 
 22280              	.LASF284:
 22281 2efc 4C534D33 		.ascii	"LSM303AGR_ACC_BLE_t\000"
 22281      30334147 
 22281      525F4143 
 22281      435F424C 
 22281      455F7400 
 22282              	.LASF560:
 22283 2f10 4C534D33 		.ascii	"LSM303AGR_ACC_W_TriggerSel\000"
 22283      30334147 
 22283      525F4143 
 22283      435F575F 
 22283      54726967 
 22284              	.LASF93:
 22285 2f2b 52455345 		.ascii	"RESERVED1\000"
 22285      52564544 
 22285      3100
 22286              	.LASF94:
 22287 2f35 52455345 		.ascii	"RESERVED2\000"
 22287      52564544 
ARM GAS  /tmp/ccRrg1qB.s 			page 428


 22287      3200
 22288              	.LASF300:
 22289 2f3f 4C534D33 		.ascii	"LSM303AGR_ACC_BOOT_NORMAL_MODE\000"
 22289      30334147 
 22289      525F4143 
 22289      435F424F 
 22289      4F545F4E 
 22290              	.LASF301:
 22291 2f5e 4C534D33 		.ascii	"LSM303AGR_ACC_BOOT_REBOOT\000"
 22291      30334147 
 22291      525F4143 
 22291      435F424F 
 22291      4F545F52 
 22292              	.LASF350:
 22293 2f78 4C534D33 		.ascii	"LSM303AGR_ACC_FM_STREAM\000"
 22293      30334147 
 22293      525F4143 
 22293      435F464D 
 22293      5F535452 
 22294              	.LASF458:
 22295 2f90 4C534D33 		.ascii	"LSM303AGR_ACC_R_BlockDataUpdate\000"
 22295      30334147 
 22295      525F4143 
 22295      435F525F 
 22295      426C6F63 
 22296              	.LASF224:
 22297 2fb0 4C534D33 		.ascii	"LSM303AGR_ACC_ZEN_t\000"
 22297      30334147 
 22297      525F4143 
 22297      435F5A45 
 22297      4E5F7400 
 22298              	.LASF565:
 22299 2fc4 4C534D33 		.ascii	"LSM303AGR_ACC_R_FifoEmpty\000"
 22299      30334147 
 22299      525F4143 
 22299      435F525F 
 22299      4669666F 
 22300              	.LASF268:
 22301 2fde 4C534D33 		.ascii	"LSM303AGR_ACC_I1_CLICK_DISABLED\000"
 22301      30334147 
 22301      525F4143 
 22301      435F4931 
 22301      5F434C49 
 22302              	.LASF58:
 22303 2ffe 725F7072 		.ascii	"r_prio\000"
 22303      696F00
 22304              	.LASF424:
 22305 3005 4C534D33 		.ascii	"LSM303AGR_ACC_ZD_t\000"
 22305      30334147 
 22305      525F4143 
 22305      435F5A44 
 22305      5F7400
 22306              	.LASF460:
 22307 3018 4C534D33 		.ascii	"LSM303AGR_ACC_R_FullScale\000"
 22307      30334147 
 22307      525F4143 
 22307      435F525F 
ARM GAS  /tmp/ccRrg1qB.s 			page 429


 22307      46756C6C 
 22308              	.LASF215:
 22309 3032 4C534D33 		.ascii	"LSM303AGR_ACC_ADC_PD_t\000"
 22309      30334147 
 22309      525F4143 
 22309      435F4144 
 22309      435F5044 
 22310              	.LASF512:
 22311 3049 4C534D33 		.ascii	"LSM303AGR_ACC_W_FIFO_AOL1_on_INT1\000"
 22311      30334147 
 22311      525F4143 
 22311      435F575F 
 22311      4649464F 
 22312              	.LASF652:
 22313 306b 49544D5F 		.ascii	"ITM_RxBuffer\000"
 22313      52784275 
 22313      66666572 
 22313      00
 22314              	.LASF510:
 22315 3078 4C534D33 		.ascii	"LSM303AGR_ACC_W_FIFO_AOL2_on_INT1\000"
 22315      30334147 
 22315      525F4143 
 22315      435F575F 
 22315      4649464F 
 22316              	.LASF204:
 22317 309a 4C534D33 		.ascii	"LSM303AGR_ACC_3OR__NO_OVERRUN\000"
 22317      30334147 
 22317      525F4143 
 22317      435F334F 
 22317      525F5F4E 
 22318              	.LASF14:
 22319 30b8 6C6F6E67 		.ascii	"long long unsigned int\000"
 22319      206C6F6E 
 22319      6720756E 
 22319      7369676E 
 22319      65642069 
 22320              	.LASF100:
 22321 30cf 6F666673 		.ascii	"offset\000"
 22321      657400
 22322              	.LASF407:
 22323 30d6 4C534D33 		.ascii	"LSM303AGR_ACC_XS_DISABLED\000"
 22323      30334147 
 22323      525F4143 
 22323      435F5853 
 22323      5F444953 
 22324              	.LASF428:
 22325 30f0 4C534D33 		.ascii	"LSM303AGR_ACC_Y_DOWN\000"
 22325      30334147 
 22325      525F4143 
 22325      435F595F 
 22325      444F574E 
 22326              	.LASF360:
 22327 3105 4C534D33 		.ascii	"LSM303AGR_ACC_WTM_OVERFLOW\000"
 22327      30334147 
 22327      525F4143 
 22327      435F5754 
 22327      4D5F4F56 
ARM GAS  /tmp/ccRrg1qB.s 			page 430


 22328              	.LASF279:
 22329 3120 4C534D33 		.ascii	"LSM303AGR_ACC_HR_DISABLED\000"
 22329      30334147 
 22329      525F4143 
 22329      435F4852 
 22329      5F444953 
 22330              	.LASF87:
 22331 313a 444D415F 		.ascii	"DMA_Channel_TypeDef\000"
 22331      4368616E 
 22331      6E656C5F 
 22331      54797065 
 22331      44656600 
 22332              	.LASF604:
 22333 314e 4C534D33 		.ascii	"LSM303AGR_ACC_R_Int1_Zlo\000"
 22333      30334147 
 22333      525F4143 
 22333      435F525F 
 22333      496E7431 
 22334              	.LASF82:
 22335 3167 69646C65 		.ascii	"idle_thread_wa\000"
 22335      5F746872 
 22335      6561645F 
 22335      776100
 22336              	.LASF95:
 22337 3176 5350495F 		.ascii	"SPI_TypeDef\000"
 22337      54797065 
 22337      44656600 
 22338              	.LASF69:
 22339 3182 76745F66 		.ascii	"vt_func\000"
 22339      756E6300 
 22340              	.LASF220:
 22341 318a 4C534D33 		.ascii	"LSM303AGR_ACC_YEN_ENABLED\000"
 22341      30334147 
 22341      525F4143 
 22341      435F5945 
 22341      4E5F454E 
 22342              	.LASF182:
 22343 31a4 4C534D33 		.ascii	"LSM303AGR_ACC_ODR_DO_400Hz\000"
 22343      30334147 
 22343      525F4143 
 22343      435F4F44 
 22343      525F444F 
 22344              	.LASF65:
 22345 31bf 63685F76 		.ascii	"ch_virtual_timer\000"
 22345      69727475 
 22345      616C5F74 
 22345      696D6572 
 22345      00
 22346              	.LASF39:
 22347 31d0 705F666C 		.ascii	"p_flags\000"
 22347      61677300 
 22348              	.LASF425:
 22349 31d8 4C534D33 		.ascii	"LSM303AGR_ACC_X_DOWN\000"
 22349      30334147 
 22349      525F4143 
 22349      435F585F 
 22349      444F574E 
ARM GAS  /tmp/ccRrg1qB.s 			page 431


 22350              	.LASF108:
 22351 31ed 65776D61 		.ascii	"ewmask\000"
 22351      736B00
 22352              	.LASF637:
 22353 31f4 4C534D33 		.ascii	"LSM303AGR_ACC_R_ClickSign\000"
 22353      30334147 
 22353      525F4143 
 22353      435F525F 
 22353      436C6963 
 22354              	.LASF449:
 22355 320e 4C534D33 		.ascii	"LSM303AGR_ACC_Init\000"
 22355      30334147 
 22355      525F4143 
 22355      435F496E 
 22355      697400
 22356              	.LASF423:
 22357 3221 4C534D33 		.ascii	"LSM303AGR_ACC_ZD_ENABLED\000"
 22357      30334147 
 22357      525F4143 
 22357      435F5A44 
 22357      5F454E41 
 22358              	.LASF46:
 22359 323a 705F6D74 		.ascii	"p_mtxlist\000"
 22359      786C6973 
 22359      7400
 22360              	.LASF22:
 22361 3244 74737461 		.ascii	"tstate_t\000"
 22361      74655F74 
 22361      00
 22362              	.LASF144:
 22363 324d 53504944 		.ascii	"SPIDriver\000"
 22363      72697665 
 22363      7200
 22364              	.LASF288:
 22365 3257 4C534D33 		.ascii	"LSM303AGR_ACC_LIR_INT2_DISABLED\000"
 22365      30334147 
 22365      525F4143 
 22365      435F4C49 
 22365      525F494E 
 22366              	.LASF502:
 22367 3277 4C534D33 		.ascii	"LSM303AGR_ACC_W_FIFO_Overrun_on_INT1\000"
 22367      30334147 
 22367      525F4143 
 22367      435F575F 
 22367      4649464F 
 22368              	.LASF157:
 22369 329c 53504943 		.ascii	"SPIConfig\000"
 22369      6F6E6669 
 22369      6700
 22370              	.LASF519:
 22371 32a6 4C534D33 		.ascii	"LSM303AGR_ACC_R_SelfTest\000"
 22371      30334147 
 22371      525F4143 
 22371      435F525F 
 22371      53656C66 
 22372              	.LASF37:
 22373 32bf 705F6E61 		.ascii	"p_name\000"
ARM GAS  /tmp/ccRrg1qB.s 			page 432


 22373      6D6500
 22374              	.LASF193:
 22375 32c6 4C534D33 		.ascii	"LSM303AGR_ACC_3DA__AVAILABLE\000"
 22375      30334147 
 22375      525F4143 
 22375      435F3344 
 22375      415F5F41 
 22376              	.LASF358:
 22377 32e3 4C534D33 		.ascii	"LSM303AGR_ACC_OVRN_FIFO_t\000"
 22377      30334147 
 22377      525F4143 
 22377      435F4F56 
 22377      524E5F46 
 22378              	.LASF594:
 22379 32fd 4C534D33 		.ascii	"LSM303AGR_ACC_W_Int2EnZHi\000"
 22379      30334147 
 22379      525F4143 
 22379      435F575F 
 22379      496E7432 
 22380              	.LASF71:
 22381 3317 76697274 		.ascii	"virtual_timers_list_t\000"
 22381      75616C5F 
 22381      74696D65 
 22381      72735F6C 
 22381      6973745F 
 22382              	.LASF448:
 22383 332d 52656731 		.ascii	"Reg1_val\000"
 22383      5F76616C 
 22383      00
 22384              	.LASF324:
 22385 3336 4C534D33 		.ascii	"LSM303AGR_ACC_YDA_NOT_AVAILABLE\000"
 22385      30334147 
 22385      525F4143 
 22385      435F5944 
 22385      415F4E4F 
 22386              	.LASF643:
 22387 3356 4C534D33 		.ascii	"LSM303AGR_ACC_W_ClickTimeLimit\000"
 22387      30334147 
 22387      525F4143 
 22387      435F575F 
 22387      436C6963 
 22388              	.LASF110:
 22389 3375 735F7175 		.ascii	"s_queue\000"
 22389      65756500 
 22390              	.LASF376:
 22391 337d 4C534D33 		.ascii	"LSM303AGR_ACC_ZLIE_t\000"
 22391      30334147 
 22391      525F4143 
 22391      435F5A4C 
 22391      49455F74 
 22392              	.LASF422:
 22393 3392 4C534D33 		.ascii	"LSM303AGR_ACC_ZD_DISABLED\000"
 22393      30334147 
 22393      525F4143 
 22393      435F5A44 
 22393      5F444953 
 22394              	.LASF316:
ARM GAS  /tmp/ccRrg1qB.s 			page 433


 22395 33ac 4C534D33 		.ascii	"LSM303AGR_ACC_I2_INT1_ENABLED\000"
 22395      30334147 
 22395      525F4143 
 22395      435F4932 
 22395      5F494E54 
 22396              	.LASF120:
 22397 33ca 6373656C 		.ascii	"cselr\000"
 22397      7200
 22398              	.LASF434:
 22399 33d0 4C534D33 		.ascii	"LSM303AGR_ACC_SIGN_POSITIVE\000"
 22399      30334147 
 22399      525F4143 
 22399      435F5349 
 22399      474E5F50 
 22400              	.LASF313:
 22401 33ec 4C534D33 		.ascii	"LSM303AGR_ACC_I2_INT2_ENABLED\000"
 22401      30334147 
 22401      525F4143 
 22401      435F4932 
 22401      5F494E54 
 22402              	.LASF420:
 22403 340a 4C534D33 		.ascii	"LSM303AGR_ACC_ZS_ENABLED\000"
 22403      30334147 
 22403      525F4143 
 22403      435F5A53 
 22403      5F454E41 
 22404              	.LASF12:
 22405 3423 6C6F6E67 		.ascii	"long long int\000"
 22405      206C6F6E 
 22405      6720696E 
 22405      7400
 22406              	.LASF620:
 22407 3431 4C534D33 		.ascii	"LSM303AGR_ACC_W_Int2_Duration\000"
 22407      30334147 
 22407      525F4143 
 22407      435F575F 
 22407      496E7432 
 22408              	.LASF205:
 22409 344f 4C534D33 		.ascii	"LSM303AGR_ACC_3OR__OVERRUN\000"
 22409      30334147 
 22409      525F4143 
 22409      435F334F 
 22409      525F5F4F 
 22410              	.LASF641:
 22411 346a 4C534D33 		.ascii	"LSM303AGR_ACC_W_ClickThreshold\000"
 22411      30334147 
 22411      525F4143 
 22411      435F575F 
 22411      436C6963 
 22412              	.LASF201:
 22413 3489 4C534D33 		.ascii	"LSM303AGR_ACC_2OR__NO_OVERRUN\000"
 22413      30334147 
 22413      525F4143 
 22413      435F324F 
 22413      525F5F4E 
 22414              	.LASF180:
 22415 34a7 4C534D33 		.ascii	"LSM303AGR_ACC_ODR_DO_100Hz\000"
ARM GAS  /tmp/ccRrg1qB.s 			page 434


 22415      30334147 
 22415      525F4143 
 22415      435F4F44 
 22415      525F444F 
 22416              	.LASF140:
 22417 34c2 5350495F 		.ascii	"SPI_READY\000"
 22417      52454144 
 22417      5900
 22418              	.LASF363:
 22419 34cc 4C534D33 		.ascii	"LSM303AGR_ACC_XLIE_ENABLED\000"
 22419      30334147 
 22419      525F4143 
 22419      435F584C 
 22419      49455F45 
 22420              	.LASF617:
 22421 34e7 4C534D33 		.ascii	"LSM303AGR_ACC_R_Int2_Threshold\000"
 22421      30334147 
 22421      525F4143 
 22421      435F525F 
 22421      496E7432 
 22422              	.LASF187:
 22423 3506 4C534D33 		.ascii	"LSM303AGR_ACC_1DA_AVAILABLE\000"
 22423      30334147 
 22423      525F4143 
 22423      435F3144 
 22423      415F4156 
 22424              	.LASF334:
 22425 3522 4C534D33 		.ascii	"LSM303AGR_ACC_XOR_OVERRUN\000"
 22425      30334147 
 22425      525F4143 
 22425      435F584F 
 22425      525F4F56 
 22426              	.LASF349:
 22427 353c 4C534D33 		.ascii	"LSM303AGR_ACC_FM_FIFO\000"
 22427      30334147 
 22427      525F4143 
 22427      435F464D 
 22427      5F464946 
 22428              	.LASF645:
 22429 3552 4C534D33 		.ascii	"LSM303AGR_ACC_W_ClickTimeLatency\000"
 22429      30334147 
 22429      525F4143 
 22429      435F575F 
 22429      436C6963 
 22430              	.LASF194:
 22431 3573 4C534D33 		.ascii	"LSM303AGR_ACC_3DA__t\000"
 22431      30334147 
 22431      525F4143 
 22431      435F3344 
 22431      415F5F74 
 22432              	.LASF197:
 22433 3588 4C534D33 		.ascii	"LSM303AGR_ACC_321DA__t\000"
 22433      30334147 
 22433      525F4143 
 22433      435F3332 
 22433      3144415F 
 22434              	.LASF368:
ARM GAS  /tmp/ccRrg1qB.s 			page 435


 22435 359f 4C534D33 		.ascii	"LSM303AGR_ACC_YLIE_DISABLED\000"
 22435      30334147 
 22435      525F4143 
 22435      435F594C 
 22435      49455F44 
 22436              	.LASF36:
 22437 35bb 705F6F6C 		.ascii	"p_older\000"
 22437      64657200 
 22438              	.LASF184:
 22439 35c3 4C534D33 		.ascii	"LSM303AGR_ACC_ODR_DO_1_25KHz\000"
 22439      30334147 
 22439      525F4143 
 22439      435F4F44 
 22439      525F444F 
 22440              	.LASF481:
 22441 35e0 4C534D33 		.ascii	"LSM303AGR_ACC_R_ADC_PD\000"
 22441      30334147 
 22441      525F4143 
 22441      435F525F 
 22441      4144435F 
 22442              	.LASF155:
 22443 35f7 7373706F 		.ascii	"ssport\000"
 22443      727400
 22444              	.LASF49:
 22445 35fe 74687265 		.ascii	"thread_reference_t\000"
 22445      61645F72 
 22445      65666572 
 22445      656E6365 
 22445      5F7400
 22446              	.LASF395:
 22447 3611 4C534D33 		.ascii	"LSM303AGR_ACC_YH_DOWN\000"
 22447      30334147 
 22447      525F4143 
 22447      435F5948 
 22447      5F444F57 
 22448              	.LASF191:
 22449 3627 4C534D33 		.ascii	"LSM303AGR_ACC_2DA__t\000"
 22449      30334147 
 22449      525F4143 
 22449      435F3244 
 22449      415F5F74 
 22450              	.LASF383:
 22451 363c 4C534D33 		.ascii	"LSM303AGR_ACC_AOI_OR\000"
 22451      30334147 
 22451      525F4143 
 22451      435F414F 
 22451      495F4F52 
 22452              	.LASF656:
 22453 3651 2F752F65 		.ascii	"/u/elawton2/p442-submissions/sensortile\000"
 22453      6C617774 
 22453      6F6E322F 
 22453      70343432 
 22453      2D737562 
 22454              	.LASF101:
 22455 3679 746D5F63 		.ascii	"tm_calibration_t\000"
 22455      616C6962 
 22455      72617469 
ARM GAS  /tmp/ccRrg1qB.s 			page 436


 22455      6F6E5F74 
 22455      00
 22456              	.LASF533:
 22457 368a 4C534D33 		.ascii	"LSM303AGR_ACC_R_FIFO_EN\000"
 22457      30334147 
 22457      525F4143 
 22457      435F525F 
 22457      4649464F 
 22458              	.LASF321:
 22459 36a2 4C534D33 		.ascii	"LSM303AGR_ACC_XDA_NOT_AVAILABLE\000"
 22459      30334147 
 22459      525F4143 
 22459      435F5844 
 22459      415F4E4F 
 22460              	.LASF482:
 22461 36c2 4C534D33 		.ascii	"LSM303AGR_ACC_W_XEN\000"
 22461      30334147 
 22461      525F4143 
 22461      435F575F 
 22461      58454E00 
 22462              	.LASF511:
 22463 36d6 4C534D33 		.ascii	"LSM303AGR_ACC_R_FIFO_AOL2_on_INT1\000"
 22463      30334147 
 22463      525F4143 
 22463      435F525F 
 22463      4649464F 
 22464              	.LASF625:
 22465 36f8 4C534D33 		.ascii	"LSM303AGR_ACC_R_XDouble\000"
 22465      30334147 
 22465      525F4143 
 22465      435F525F 
 22465      58446F75 
 22466              	.LASF277:
 22467 3710 4C534D33 		.ascii	"LSM303AGR_ACC_ST_NOT_APPLICABLE\000"
 22467      30334147 
 22467      525F4143 
 22467      435F5354 
 22467      5F4E4F54 
 22468              	.LASF0:
 22469 3730 756E7369 		.ascii	"unsigned int\000"
 22469      676E6564 
 22469      20696E74 
 22469      00
 22470              	.LASF532:
 22471 373d 4C534D33 		.ascii	"LSM303AGR_ACC_W_FIFO_EN\000"
 22471      30334147 
 22471      525F4143 
 22471      435F575F 
 22471      4649464F 
 22472              	.LASF607:
 22473 3755 4C534D33 		.ascii	"LSM303AGR_ACC_R_Int2_Xlo\000"
 22473      30334147 
 22473      525F4143 
 22473      435F525F 
 22473      496E7432 
 22474              	.LASF644:
 22475 376e 4C534D33 		.ascii	"LSM303AGR_ACC_R_ClickTimeLimit\000"
ARM GAS  /tmp/ccRrg1qB.s 			page 437


 22475      30334147 
 22475      525F4143 
 22475      435F525F 
 22475      436C6963 
 22476              	.LASF479:
 22477 378d 4C534D33 		.ascii	"LSM303AGR_ACC_R_TEMP_EN_bits\000"
 22477      30334147 
 22477      525F4143 
 22477      435F525F 
 22477      54454D50 
 22478              	.LASF553:
 22479 37aa 4C534D33 		.ascii	"LSM303AGR_ACC_R_XYZDataAvail\000"
 22479      30334147 
 22479      525F4143 
 22479      435F525F 
 22479      58595A44 
 22480              	.LASF464:
 22481 37c7 7261775F 		.ascii	"raw_data_tmp\000"
 22481      64617461 
 22481      5F746D70 
 22481      00
 22482              	.LASF624:
 22483 37d4 4C534D33 		.ascii	"LSM303AGR_ACC_W_XDouble\000"
 22483      30334147 
 22483      525F4143 
 22483      435F575F 
 22483      58446F75 
 22484              	.LASF5:
 22485 37ec 73686F72 		.ascii	"short int\000"
 22485      7420696E 
 22485      7400
 22486              	.LASF514:
 22487 37f6 4C534D33 		.ascii	"LSM303AGR_ACC_W_FIFO_Click_on_INT1\000"
 22487      30334147 
 22487      525F4143 
 22487      435F575F 
 22487      4649464F 
 22488              	.LASF306:
 22489 3819 4C534D33 		.ascii	"LSM303AGR_ACC_P2_ACT_DISABLED\000"
 22489      30334147 
 22489      525F4143 
 22489      435F5032 
 22489      5F414354 
 22490              	.LASF244:
 22491 3837 4C534D33 		.ascii	"LSM303AGR_ACC_HPCF_t\000"
 22491      30334147 
 22491      525F4143 
 22491      435F4850 
 22491      43465F74 
 22492              	.LASF354:
 22493 384c 4C534D33 		.ascii	"LSM303AGR_ACC_EMPTY_EMPTY\000"
 22493      30334147 
 22493      525F4143 
 22493      435F454D 
 22493      5054595F 
 22494              	.LASF581:
 22495 3866 4C534D33 		.ascii	"LSM303AGR_ACC_R_Int1_6D\000"
ARM GAS  /tmp/ccRrg1qB.s 			page 438


 22495      30334147 
 22495      525F4143 
 22495      435F525F 
 22495      496E7431 
 22496              	.LASF38:
 22497 387e 705F7374 		.ascii	"p_state\000"
 22497      61746500 
 22498              	.LASF219:
 22499 3886 4C534D33 		.ascii	"LSM303AGR_ACC_YEN_DISABLED\000"
 22499      30334147 
 22499      525F4143 
 22499      435F5945 
 22499      4E5F4449 
 22500              	.LASF52:
 22501 38a1 63685F74 		.ascii	"ch_threads_list\000"
 22501      68726561 
 22501      64735F6C 
 22501      69737400 
 22502              		.ident	"GCC: (GNU Tools for ARM Embedded Processors) 4.8.4 20140526 (release) [ARM/embedded-4_8-br
ARM GAS  /tmp/ccRrg1qB.s 			page 439


DEFINED SYMBOLS
                            *ABS*:00000000 LSM303AGR_ACC_driver.c
     /tmp/ccRrg1qB.s:19     .data:00000000 $d
     /tmp/ccRrg1qB.s:22     .data:00000000 lsm303ad_accel_cfg
     /tmp/ccRrg1qB.s:30     .text:00000000 $t
     /tmp/ccRrg1qB.s:36     .text:00000000 LSM303AGR_ACC_Init
     /tmp/ccRrg1qB.s:131    .text:00000080 LSM303AGR_ACC_WriteReg
     /tmp/ccRrg1qB.s:84     .text:00000040 LSM303AGR_ACC_HR_Init
     /tmp/ccRrg1qB.s:172    .text:000000b8 $d
     /tmp/ccRrg1qB.s:176    .text:000000bc $t
     /tmp/ccRrg1qB.s:182    .text:000000c0 LSM303AGR_ACC_ReadReg
     /tmp/ccRrg1qB.s:223    .text:000000f8 $d
     /tmp/ccRrg1qB.s:227    .text:000000fc $t
     /tmp/ccRrg1qB.s:233    .text:00000100 LSM303AGR_ACC_R_WHO_AM_I
     /tmp/ccRrg1qB.s:276    .text:00000130 LSM303AGR_ACC_W_BlockDataUpdate
     /tmp/ccRrg1qB.s:346    .text:000001a0 LSM303AGR_ACC_R_BlockDataUpdate
     /tmp/ccRrg1qB.s:396    .text:000001e0 LSM303AGR_ACC_W_FullScale
     /tmp/ccRrg1qB.s:466    .text:00000250 LSM303AGR_ACC_R_FullScale
     /tmp/ccRrg1qB.s:516    .text:00000290 LSM303AGR_ACC_Get_Raw_Acceleration
     /tmp/ccRrg1qB.s:558    .rodata:00000000 LSM303AGR_ACC_Sensitivity_List
     /tmp/ccRrg1qB.s:555    .rodata:00000000 $d
     /tmp/ccRrg1qB.s:591    .text:000002c0 LSM303AGR_ACC_Get_Acceleration
     /tmp/ccRrg1qB.s:4010   .text:000016a0 LSM303AGR_ACC_R_HiRes
     /tmp/ccRrg1qB.s:2090   .text:00000ba0 LSM303AGR_ACC_R_LOWPWR_EN
     /tmp/ccRrg1qB.s:837    .text:000004c8 $d
     /tmp/ccRrg1qB.s:841    .text:000004cc $t
     /tmp/ccRrg1qB.s:847    .text:000004d0 LSM303AGR_ACC_W_ODR
     /tmp/ccRrg1qB.s:917    .text:00000540 LSM303AGR_ACC_R_ODR
     /tmp/ccRrg1qB.s:967    .text:00000580 LSM303AGR_ACC_R_x_data_avail
     /tmp/ccRrg1qB.s:1017   .text:000005c0 LSM303AGR_ACC_R_y_data_avail
     /tmp/ccRrg1qB.s:1067   .text:00000600 LSM303AGR_ACC_R_z_data_avail
     /tmp/ccRrg1qB.s:1117   .text:00000640 LSM303AGR_ACC_R_xyz_data_avail
     /tmp/ccRrg1qB.s:1167   .text:00000680 LSM303AGR_ACC_R_DataXOverrun
     /tmp/ccRrg1qB.s:1217   .text:000006c0 LSM303AGR_ACC_R_DataYOverrun
     /tmp/ccRrg1qB.s:1267   .text:00000700 LSM303AGR_ACC_R_DataZOverrun
     /tmp/ccRrg1qB.s:1317   .text:00000740 LSM303AGR_ACC_R_DataXYZOverrun
     /tmp/ccRrg1qB.s:1367   .text:00000780 LSM303AGR_ACC_R_int_counter
     /tmp/ccRrg1qB.s:1420   .text:000007c0 LSM303AGR_ACC_W_TEMP_EN_bits
     /tmp/ccRrg1qB.s:1490   .text:00000830 LSM303AGR_ACC_R_TEMP_EN_bits
     /tmp/ccRrg1qB.s:1540   .text:00000870 LSM303AGR_ACC_W_ADC_PD
     /tmp/ccRrg1qB.s:1610   .text:000008e0 LSM303AGR_ACC_R_ADC_PD
     /tmp/ccRrg1qB.s:1660   .text:00000920 LSM303AGR_ACC_W_XEN
     /tmp/ccRrg1qB.s:1730   .text:00000990 LSM303AGR_ACC_R_XEN
     /tmp/ccRrg1qB.s:1780   .text:000009d0 LSM303AGR_ACC_W_YEN
     /tmp/ccRrg1qB.s:1850   .text:00000a40 LSM303AGR_ACC_R_YEN
     /tmp/ccRrg1qB.s:1900   .text:00000a80 LSM303AGR_ACC_W_ZEN
     /tmp/ccRrg1qB.s:1970   .text:00000af0 LSM303AGR_ACC_R_ZEN
     /tmp/ccRrg1qB.s:2020   .text:00000b30 LSM303AGR_ACC_W_LOWPWR_EN
     /tmp/ccRrg1qB.s:2140   .text:00000be0 LSM303AGR_ACC_W_hpf_aoi_en_int1
     /tmp/ccRrg1qB.s:2210   .text:00000c50 LSM303AGR_ACC_R_hpf_aoi_en_int1
     /tmp/ccRrg1qB.s:2260   .text:00000c90 LSM303AGR_ACC_W_hpf_aoi_en_int2
     /tmp/ccRrg1qB.s:2330   .text:00000d00 LSM303AGR_ACC_R_hpf_aoi_en_int2
     /tmp/ccRrg1qB.s:2380   .text:00000d40 LSM303AGR_ACC_W_hpf_click_en
     /tmp/ccRrg1qB.s:2450   .text:00000db0 LSM303AGR_ACC_R_hpf_click_en
     /tmp/ccRrg1qB.s:2500   .text:00000df0 LSM303AGR_ACC_W_Data_Filter
     /tmp/ccRrg1qB.s:2570   .text:00000e60 LSM303AGR_ACC_R_Data_Filter
     /tmp/ccRrg1qB.s:2620   .text:00000ea0 LSM303AGR_ACC_W_hpf_cutoff_freq
ARM GAS  /tmp/ccRrg1qB.s 			page 440


     /tmp/ccRrg1qB.s:2690   .text:00000f10 LSM303AGR_ACC_R_hpf_cutoff_freq
     /tmp/ccRrg1qB.s:2740   .text:00000f50 LSM303AGR_ACC_W_hpf_mode
     /tmp/ccRrg1qB.s:2810   .text:00000fc0 LSM303AGR_ACC_R_hpf_mode
     /tmp/ccRrg1qB.s:2860   .text:00001000 LSM303AGR_ACC_W_FIFO_Overrun_on_INT1
     /tmp/ccRrg1qB.s:2930   .text:00001070 LSM303AGR_ACC_R_FIFO_Overrun_on_INT1
     /tmp/ccRrg1qB.s:2980   .text:000010b0 LSM303AGR_ACC_W_FIFO_Watermark_on_INT1
     /tmp/ccRrg1qB.s:3050   .text:00001120 LSM303AGR_ACC_R_FIFO_Watermark_on_INT1
     /tmp/ccRrg1qB.s:3100   .text:00001160 LSM303AGR_ACC_W_FIFO_DRDY2_on_INT1
     /tmp/ccRrg1qB.s:3170   .text:000011d0 LSM303AGR_ACC_R_FIFO_DRDY2_on_INT1
     /tmp/ccRrg1qB.s:3220   .text:00001210 LSM303AGR_ACC_W_FIFO_DRDY1_on_INT1
     /tmp/ccRrg1qB.s:3290   .text:00001280 LSM303AGR_ACC_R_FIFO_DRDY1_on_INT1
     /tmp/ccRrg1qB.s:3340   .text:000012c0 LSM303AGR_ACC_W_FIFO_AOL2_on_INT1
     /tmp/ccRrg1qB.s:3410   .text:00001330 LSM303AGR_ACC_R_FIFO_AOL2_on_INT1
     /tmp/ccRrg1qB.s:3460   .text:00001370 LSM303AGR_ACC_W_FIFO_AOL1_on_INT1
     /tmp/ccRrg1qB.s:3530   .text:000013e0 LSM303AGR_ACC_R_FIFO_AOL1_on_INT1
     /tmp/ccRrg1qB.s:3580   .text:00001420 LSM303AGR_ACC_W_FIFO_Click_on_INT1
     /tmp/ccRrg1qB.s:3650   .text:00001490 LSM303AGR_ACC_R_FIFO_Click_on_INT1
     /tmp/ccRrg1qB.s:3700   .text:000014d0 LSM303AGR_ACC_W_SPI_mode
     /tmp/ccRrg1qB.s:3770   .text:00001540 LSM303AGR_ACC_R_SPI_mode
     /tmp/ccRrg1qB.s:3820   .text:00001580 LSM303AGR_ACC_W_SelfTest
     /tmp/ccRrg1qB.s:3890   .text:000015f0 LSM303AGR_ACC_R_SelfTest
     /tmp/ccRrg1qB.s:3940   .text:00001630 LSM303AGR_ACC_W_HiRes
     /tmp/ccRrg1qB.s:4060   .text:000016e0 LSM303AGR_ACC_W_LittleBigEndian
     /tmp/ccRrg1qB.s:4130   .text:00001750 LSM303AGR_ACC_R_LittleBigEndian
     /tmp/ccRrg1qB.s:4180   .text:00001790 LSM303AGR_ACC_W_4D_on_INT2
     /tmp/ccRrg1qB.s:4250   .text:00001800 LSM303AGR_ACC_R_4D_on_INT2
     /tmp/ccRrg1qB.s:4300   .text:00001840 LSM303AGR_ACC_W_LatchInterrupt_on_INT2
     /tmp/ccRrg1qB.s:4370   .text:000018b0 LSM303AGR_ACC_R_LatchInterrupt_on_INT2
     /tmp/ccRrg1qB.s:4420   .text:000018f0 LSM303AGR_ACC_W_4D_on_INT1
     /tmp/ccRrg1qB.s:4490   .text:00001960 LSM303AGR_ACC_R_4D_on_INT1
     /tmp/ccRrg1qB.s:4540   .text:000019a0 LSM303AGR_ACC_W_LatchInterrupt_on_INT1
     /tmp/ccRrg1qB.s:4610   .text:00001a10 LSM303AGR_ACC_R_LatchInterrupt_on_INT1
     /tmp/ccRrg1qB.s:4660   .text:00001a50 LSM303AGR_ACC_W_FIFO_EN
     /tmp/ccRrg1qB.s:4730   .text:00001ac0 LSM303AGR_ACC_R_FIFO_EN
     /tmp/ccRrg1qB.s:4780   .text:00001b00 LSM303AGR_ACC_W_RebootMemory
     /tmp/ccRrg1qB.s:4850   .text:00001b70 LSM303AGR_ACC_R_RebootMemory
     /tmp/ccRrg1qB.s:4900   .text:00001bb0 LSM303AGR_ACC_W_IntActive
     /tmp/ccRrg1qB.s:4970   .text:00001c20 LSM303AGR_ACC_R_IntActive
     /tmp/ccRrg1qB.s:5020   .text:00001c60 LSM303AGR_ACC_W_P2_ACT
     /tmp/ccRrg1qB.s:5090   .text:00001cd0 LSM303AGR_ACC_R_P2_ACT
     /tmp/ccRrg1qB.s:5140   .text:00001d10 LSM303AGR_ACC_W_Boot_on_INT2
     /tmp/ccRrg1qB.s:5210   .text:00001d80 LSM303AGR_ACC_R_Boot_on_INT2
     /tmp/ccRrg1qB.s:5260   .text:00001dc0 LSM303AGR_ACC_W_I2_on_INT2
     /tmp/ccRrg1qB.s:5330   .text:00001e30 LSM303AGR_ACC_R_I2_on_INT2
     /tmp/ccRrg1qB.s:5380   .text:00001e70 LSM303AGR_ACC_W_I2_on_INT1
     /tmp/ccRrg1qB.s:5450   .text:00001ee0 LSM303AGR_ACC_R_I2_on_INT1
     /tmp/ccRrg1qB.s:5500   .text:00001f20 LSM303AGR_ACC_W_Click_on_INT2
     /tmp/ccRrg1qB.s:5570   .text:00001f90 LSM303AGR_ACC_R_Click_on_INT2
     /tmp/ccRrg1qB.s:5620   .text:00001fd0 LSM303AGR_ACC_W_ReferenceVal
     /tmp/ccRrg1qB.s:5688   .text:00002030 LSM303AGR_ACC_R_ReferenceVal
     /tmp/ccRrg1qB.s:5741   .text:00002070 LSM303AGR_ACC_R_XDataAvail
     /tmp/ccRrg1qB.s:5791   .text:000020b0 LSM303AGR_ACC_R_YDataAvail
     /tmp/ccRrg1qB.s:5841   .text:000020f0 LSM303AGR_ACC_R_ZDataAvail
     /tmp/ccRrg1qB.s:5891   .text:00002130 LSM303AGR_ACC_R_XYZDataAvail
     /tmp/ccRrg1qB.s:5941   .text:00002170 LSM303AGR_ACC_R_XDataOverrun
     /tmp/ccRrg1qB.s:5991   .text:000021b0 LSM303AGR_ACC_R_YDataOverrun
     /tmp/ccRrg1qB.s:6041   .text:000021f0 LSM303AGR_ACC_R_ZDataOverrun
ARM GAS  /tmp/ccRrg1qB.s 			page 441


     /tmp/ccRrg1qB.s:6091   .text:00002230 LSM303AGR_ACC_R_XYZDataOverrun
     /tmp/ccRrg1qB.s:6141   .text:00002270 LSM303AGR_ACC_W_FifoThreshold
     /tmp/ccRrg1qB.s:6215   .text:000022f0 LSM303AGR_ACC_R_FifoThreshold
     /tmp/ccRrg1qB.s:6270   .text:00002330 LSM303AGR_ACC_W_TriggerSel
     /tmp/ccRrg1qB.s:6340   .text:000023a0 LSM303AGR_ACC_R_TriggerSel
     /tmp/ccRrg1qB.s:6390   .text:000023e0 LSM303AGR_ACC_W_FifoMode
     /tmp/ccRrg1qB.s:6460   .text:00002450 LSM303AGR_ACC_R_FifoMode
     /tmp/ccRrg1qB.s:6510   .text:00002490 LSM303AGR_ACC_R_FifoSamplesAvail
     /tmp/ccRrg1qB.s:6565   .text:000024d0 LSM303AGR_ACC_R_FifoEmpty
     /tmp/ccRrg1qB.s:6615   .text:00002510 LSM303AGR_ACC_R_FifoOverrun
     /tmp/ccRrg1qB.s:6665   .text:00002550 LSM303AGR_ACC_R_WatermarkLevel
     /tmp/ccRrg1qB.s:6715   .text:00002590 LSM303AGR_ACC_W_Int1EnXLo
     /tmp/ccRrg1qB.s:6785   .text:00002600 LSM303AGR_ACC_R_Int1EnXLo
     /tmp/ccRrg1qB.s:6835   .text:00002640 LSM303AGR_ACC_W_Int1EnXHi
     /tmp/ccRrg1qB.s:6905   .text:000026b0 LSM303AGR_ACC_R_Int1EnXHi
     /tmp/ccRrg1qB.s:6955   .text:000026f0 LSM303AGR_ACC_W_Int1EnYLo
     /tmp/ccRrg1qB.s:7025   .text:00002760 LSM303AGR_ACC_R_Int1EnYLo
     /tmp/ccRrg1qB.s:7075   .text:000027a0 LSM303AGR_ACC_W_Int1EnYHi
     /tmp/ccRrg1qB.s:7145   .text:00002810 LSM303AGR_ACC_R_Int1EnYHi
     /tmp/ccRrg1qB.s:7195   .text:00002850 LSM303AGR_ACC_W_Int1EnZLo
     /tmp/ccRrg1qB.s:7265   .text:000028c0 LSM303AGR_ACC_R_Int1EnZLo
     /tmp/ccRrg1qB.s:7315   .text:00002900 LSM303AGR_ACC_W_Int1EnZHi
     /tmp/ccRrg1qB.s:7385   .text:00002970 LSM303AGR_ACC_R_Int1EnZHi
     /tmp/ccRrg1qB.s:7435   .text:000029b0 LSM303AGR_ACC_W_Int1_6D
     /tmp/ccRrg1qB.s:7505   .text:00002a20 LSM303AGR_ACC_R_Int1_6D
     /tmp/ccRrg1qB.s:7555   .text:00002a60 LSM303AGR_ACC_W_Int1_AOI
     /tmp/ccRrg1qB.s:7625   .text:00002ad0 LSM303AGR_ACC_R_Int1_AOI
     /tmp/ccRrg1qB.s:7675   .text:00002b10 LSM303AGR_ACC_W_Int2EnXLo
     /tmp/ccRrg1qB.s:7745   .text:00002b80 LSM303AGR_ACC_R_Int2EnXLo
     /tmp/ccRrg1qB.s:7795   .text:00002bc0 LSM303AGR_ACC_W_Int2EnXHi
     /tmp/ccRrg1qB.s:7865   .text:00002c30 LSM303AGR_ACC_R_Int2EnXHi
     /tmp/ccRrg1qB.s:7915   .text:00002c70 LSM303AGR_ACC_W_Int2EnYLo
     /tmp/ccRrg1qB.s:7985   .text:00002ce0 LSM303AGR_ACC_R_Int2EnYLo
     /tmp/ccRrg1qB.s:8035   .text:00002d20 LSM303AGR_ACC_W_Int2EnYHi
     /tmp/ccRrg1qB.s:8105   .text:00002d90 LSM303AGR_ACC_R_Int2EnYHi
     /tmp/ccRrg1qB.s:8155   .text:00002dd0 LSM303AGR_ACC_W_Int2EnZLo
     /tmp/ccRrg1qB.s:8225   .text:00002e40 LSM303AGR_ACC_R_Int2EnZLo
     /tmp/ccRrg1qB.s:8275   .text:00002e80 LSM303AGR_ACC_W_Int2EnZHi
     /tmp/ccRrg1qB.s:8345   .text:00002ef0 LSM303AGR_ACC_R_Int2EnZHi
     /tmp/ccRrg1qB.s:8395   .text:00002f30 LSM303AGR_ACC_W_Int2_6D
     /tmp/ccRrg1qB.s:8465   .text:00002fa0 LSM303AGR_ACC_R_Int2_6D
     /tmp/ccRrg1qB.s:8515   .text:00002fe0 LSM303AGR_ACC_W_Int2_AOI
     /tmp/ccRrg1qB.s:8585   .text:00003050 LSM303AGR_ACC_R_Int2_AOI
     /tmp/ccRrg1qB.s:8635   .text:00003090 LSM303AGR_ACC_R_Int1_Xlo
     /tmp/ccRrg1qB.s:8685   .text:000030d0 LSM303AGR_ACC_R_Int1_XHi
     /tmp/ccRrg1qB.s:8735   .text:00003110 LSM303AGR_ACC_R_Int1_YLo
     /tmp/ccRrg1qB.s:8785   .text:00003150 LSM303AGR_ACC_R_Int1_YHi
     /tmp/ccRrg1qB.s:8835   .text:00003190 LSM303AGR_ACC_R_Int1_Zlo
     /tmp/ccRrg1qB.s:8885   .text:000031d0 LSM303AGR_ACC_R_Int1_ZHi
     /tmp/ccRrg1qB.s:8935   .text:00003210 LSM303AGR_ACC_R_Int1_IA
     /tmp/ccRrg1qB.s:8985   .text:00003250 LSM303AGR_ACC_R_Int2_Xlo
     /tmp/ccRrg1qB.s:9035   .text:00003290 LSM303AGR_ACC_R_Int2_XHi
     /tmp/ccRrg1qB.s:9085   .text:000032d0 LSM303AGR_ACC_R_Int2_YLo
     /tmp/ccRrg1qB.s:9135   .text:00003310 LSM303AGR_ACC_R_Int2_YHi
     /tmp/ccRrg1qB.s:9185   .text:00003350 LSM303AGR_ACC_R_Int2_Zlo
     /tmp/ccRrg1qB.s:9235   .text:00003390 LSM303AGR_ACC_R_Int2_ZHi
     /tmp/ccRrg1qB.s:9285   .text:000033d0 LSM303AGR_ACC_R_Int2_IA
ARM GAS  /tmp/ccRrg1qB.s 			page 442


     /tmp/ccRrg1qB.s:9335   .text:00003410 LSM303AGR_ACC_W_Int1_Threshold
     /tmp/ccRrg1qB.s:9409   .text:00003490 LSM303AGR_ACC_R_Int1_Threshold
     /tmp/ccRrg1qB.s:9464   .text:000034d0 LSM303AGR_ACC_W_Int2_Threshold
     /tmp/ccRrg1qB.s:9538   .text:00003550 LSM303AGR_ACC_R_Int2_Threshold
     /tmp/ccRrg1qB.s:9593   .text:00003590 LSM303AGR_ACC_W_Int1_Duration
     /tmp/ccRrg1qB.s:9667   .text:00003610 LSM303AGR_ACC_R_Int1_Duration
     /tmp/ccRrg1qB.s:9722   .text:00003650 LSM303AGR_ACC_W_Int2_Duration
     /tmp/ccRrg1qB.s:9796   .text:000036d0 LSM303AGR_ACC_R_Int2_Duration
     /tmp/ccRrg1qB.s:9851   .text:00003710 LSM303AGR_ACC_W_XSingle
     /tmp/ccRrg1qB.s:9921   .text:00003780 LSM303AGR_ACC_R_XSingle
     /tmp/ccRrg1qB.s:9971   .text:000037c0 LSM303AGR_ACC_W_XDouble
     /tmp/ccRrg1qB.s:10041  .text:00003830 LSM303AGR_ACC_R_XDouble
     /tmp/ccRrg1qB.s:10091  .text:00003870 LSM303AGR_ACC_W_YSingle
     /tmp/ccRrg1qB.s:10161  .text:000038e0 LSM303AGR_ACC_R_YSingle
     /tmp/ccRrg1qB.s:10211  .text:00003920 LSM303AGR_ACC_W_YDouble
     /tmp/ccRrg1qB.s:10281  .text:00003990 LSM303AGR_ACC_R_YDouble
     /tmp/ccRrg1qB.s:10331  .text:000039d0 LSM303AGR_ACC_W_ZSingle
     /tmp/ccRrg1qB.s:10401  .text:00003a40 LSM303AGR_ACC_R_ZSingle
     /tmp/ccRrg1qB.s:10451  .text:00003a80 LSM303AGR_ACC_W_ZDouble
     /tmp/ccRrg1qB.s:10521  .text:00003af0 LSM303AGR_ACC_R_ZDouble
     /tmp/ccRrg1qB.s:10571  .text:00003b30 LSM303AGR_ACC_R_ClickX
     /tmp/ccRrg1qB.s:10621  .text:00003b70 LSM303AGR_ACC_R_ClickY
     /tmp/ccRrg1qB.s:10671  .text:00003bb0 LSM303AGR_ACC_R_ClickZ
     /tmp/ccRrg1qB.s:10721  .text:00003bf0 LSM303AGR_ACC_R_ClickSign
     /tmp/ccRrg1qB.s:10771  .text:00003c30 LSM303AGR_ACC_R_SingleCLICK
     /tmp/ccRrg1qB.s:10821  .text:00003c70 LSM303AGR_ACC_R_DoubleCLICK
     /tmp/ccRrg1qB.s:10871  .text:00003cb0 LSM303AGR_ACC_R_CLICK_IA
     /tmp/ccRrg1qB.s:10921  .text:00003cf0 LSM303AGR_ACC_W_ClickThreshold
     /tmp/ccRrg1qB.s:10995  .text:00003d70 LSM303AGR_ACC_R_ClickThreshold
     /tmp/ccRrg1qB.s:11050  .text:00003db0 LSM303AGR_ACC_W_ClickTimeLimit
     /tmp/ccRrg1qB.s:11124  .text:00003e30 LSM303AGR_ACC_R_ClickTimeLimit
     /tmp/ccRrg1qB.s:11179  .text:00003e70 LSM303AGR_ACC_W_ClickTimeLatency
     /tmp/ccRrg1qB.s:11247  .text:00003ed0 LSM303AGR_ACC_R_ClickTimeLatency
     /tmp/ccRrg1qB.s:11300  .text:00003f10 LSM303AGR_ACC_W_ClickTimeWindow
     /tmp/ccRrg1qB.s:11368  .text:00003f70 LSM303AGR_ACC_R_ClickTimeWindow
     /tmp/ccRrg1qB.s:11421  .text:00003fb0 LSM303AGR_ACC_Get_Voltage_ADC
                     .debug_frame:00000010 $d

UNDEFINED SYMBOLS
Sensor_IO_SPI_Write
Sensor_IO_SPI_Read
__aeabi_ldivmod
