ARM GAS  /tmp/ccHDIHHf.s 			page 1


   1              		.syntax unified
   2              		.cpu cortex-m4
   3              		.fpu softvfp
   4              		.eabi_attribute 20, 1
   5              		.eabi_attribute 21, 1
   6              		.eabi_attribute 23, 3
   7              		.eabi_attribute 24, 1
   8              		.eabi_attribute 25, 1
   9              		.eabi_attribute 26, 1
  10              		.eabi_attribute 30, 6
  11              		.eabi_attribute 34, 1
  12              		.eabi_attribute 18, 4
  13              		.thumb
  14              		.file	"main.c"
  15              		.text
  16              	.Ltext0:
  17              		.cfi_sections	.debug_frame
  18              		.align	2
  19              		.p2align 4,,15
  20              		.thumb
  21              		.thumb_func
  22              		.type	chThdTerminatedX, %function
  23              	chThdTerminatedX:
  24              	.LFB180:
  25              		.file 1 "../ChibiOS/os/rt/include/chthreads.h"
  26              		.loc 1 218 0
  27              		.cfi_startproc
  28              		@ args = 0, pretend = 0, frame = 8
  29              		@ frame_needed = 0, uses_anonymous_args = 0
  30              		@ link register save eliminated.
  31 0000 82B0     		sub	sp, sp, #8
  32              		.cfi_def_cfa_offset 8
  33 0002 0190     		str	r0, [sp, #4]
  34              		.loc 1 220 0
  35 0004 019B     		ldr	r3, [sp, #4]
  36 0006 1B7F     		ldrb	r3, [r3, #28]	@ zero_extendqisi2
  37 0008 0F2B     		cmp	r3, #15
  38 000a 14BF     		ite	ne
  39 000c 0023     		movne	r3, #0
  40 000e 0123     		moveq	r3, #1
  41 0010 DBB2     		uxtb	r3, r3
  42              		.loc 1 221 0
  43 0012 1846     		mov	r0, r3
  44 0014 02B0     		add	sp, sp, #8
  45              		@ sp needed
  46 0016 7047     		bx	lr
  47              		.cfi_endproc
  48              	.LFE180:
  49              		.size	chThdTerminatedX, .-chThdTerminatedX
  50              		.align	2
  51 0018 AFF30080 		.p2align 4,,15
  51      AFF30080 
  52              		.thumb
  53              		.thumb_func
  54              		.type	chRegSetThreadName, %function
  55              	chRegSetThreadName:
  56              	.LFB187:
ARM GAS  /tmp/ccHDIHHf.s 			page 2


  57              		.file 2 "../ChibiOS/os/rt/include/chregistry.h"
  58              		.loc 2 132 0
  59              		.cfi_startproc
  60              		@ args = 0, pretend = 0, frame = 8
  61              		@ frame_needed = 0, uses_anonymous_args = 0
  62              		@ link register save eliminated.
  63 0020 82B0     		sub	sp, sp, #8
  64              		.cfi_def_cfa_offset 8
  65 0022 0190     		str	r0, [sp, #4]
  66              		.loc 2 135 0
  67 0024 024B     		ldr	r3, .L4
  68 0026 9B69     		ldr	r3, [r3, #24]
  69 0028 019A     		ldr	r2, [sp, #4]
  70 002a 9A61     		str	r2, [r3, #24]
  71              		.loc 2 139 0
  72 002c 02B0     		add	sp, sp, #8
  73              		@ sp needed
  74 002e 7047     		bx	lr
  75              	.L5:
  76              		.align	2
  77              	.L4:
  78 0030 00000000 		.word	ch
  79              		.cfi_endproc
  80              	.LFE187:
  81              		.size	chRegSetThreadName, .-chRegSetThreadName
  82              		.comm	trigger_count,4,4
  83              		.bss
  84              		.align	2
  85              	a_data:
  86 0000 00000000 		.space	12
  86      00000000 
  86      00000000 
  87              		.align	2
  88              	starting_time:
  89 000c 00000000 		.space	8
  89      00000000 
  90              		.align	2
  91              	remember_time:
  92 0014 00000000 		.space	8
  92      00000000 
  93              		.global	time_stamp
  94              		.section	.rodata,"aw",%progbits
  95              		.align	2
  96              		.type	time_stamp, %object
  97              		.size	time_stamp, 2880
  98              	time_stamp:
  99 0000 FFFF     		.short	-1
 100 0002 FFFF     		.short	-1
 101 0004 FFFF     		.short	-1
 102 0006 FFFF     		.short	-1
 103 0008 FFFF     		.short	-1
 104 000a FFFF     		.short	-1
 105 000c FFFF     		.short	-1
 106 000e FFFF     		.short	-1
 107 0010 FFFF     		.short	-1
 108 0012 FFFF     		.short	-1
 109 0014 FFFF     		.short	-1
ARM GAS  /tmp/ccHDIHHf.s 			page 3


 110 0016 FFFF     		.short	-1
 111 0018 FFFF     		.short	-1
 112 001a FFFF     		.short	-1
 113 001c FFFF     		.short	-1
 114 001e FFFF     		.short	-1
 115 0020 FFFF     		.short	-1
 116 0022 FFFF     		.short	-1
 117 0024 FFFF     		.short	-1
 118 0026 FFFF     		.short	-1
 119 0028 FFFF     		.short	-1
 120 002a FFFF     		.short	-1
 121 002c FFFF     		.short	-1
 122 002e FFFF     		.short	-1
 123 0030 FFFF     		.short	-1
 124 0032 FFFF     		.short	-1
 125 0034 FFFF     		.short	-1
 126 0036 FFFF     		.short	-1
 127 0038 FFFF     		.short	-1
 128 003a FFFF     		.short	-1
 129 003c FFFF     		.short	-1
 130 003e FFFF     		.short	-1
 131 0040 FFFF     		.short	-1
 132 0042 FFFF     		.short	-1
 133 0044 FFFF     		.short	-1
 134 0046 FFFF     		.short	-1
 135 0048 FFFF     		.short	-1
 136 004a FFFF     		.short	-1
 137 004c FFFF     		.short	-1
 138 004e FFFF     		.short	-1
 139 0050 FFFF     		.short	-1
 140 0052 FFFF     		.short	-1
 141 0054 FFFF     		.short	-1
 142 0056 FFFF     		.short	-1
 143 0058 FFFF     		.short	-1
 144 005a FFFF     		.short	-1
 145 005c FFFF     		.short	-1
 146 005e FFFF     		.short	-1
 147 0060 FFFF     		.short	-1
 148 0062 FFFF     		.short	-1
 149 0064 FFFF     		.short	-1
 150 0066 FFFF     		.short	-1
 151 0068 FFFF     		.short	-1
 152 006a FFFF     		.short	-1
 153 006c FFFF     		.short	-1
 154 006e FFFF     		.short	-1
 155 0070 FFFF     		.short	-1
 156 0072 FFFF     		.short	-1
 157 0074 FFFF     		.short	-1
 158 0076 FFFF     		.short	-1
 159 0078 FFFF     		.short	-1
 160 007a FFFF     		.short	-1
 161 007c FFFF     		.short	-1
 162 007e FFFF     		.short	-1
 163 0080 FFFF     		.short	-1
 164 0082 FFFF     		.short	-1
 165 0084 FFFF     		.short	-1
 166 0086 FFFF     		.short	-1
ARM GAS  /tmp/ccHDIHHf.s 			page 4


 167 0088 FFFF     		.short	-1
 168 008a FFFF     		.short	-1
 169 008c FFFF     		.short	-1
 170 008e FFFF     		.short	-1
 171 0090 FFFF     		.short	-1
 172 0092 FFFF     		.short	-1
 173 0094 FFFF     		.short	-1
 174 0096 FFFF     		.short	-1
 175 0098 FFFF     		.short	-1
 176 009a FFFF     		.short	-1
 177 009c FFFF     		.short	-1
 178 009e FFFF     		.short	-1
 179 00a0 FFFF     		.short	-1
 180 00a2 FFFF     		.short	-1
 181 00a4 FFFF     		.short	-1
 182 00a6 FFFF     		.short	-1
 183 00a8 FFFF     		.short	-1
 184 00aa FFFF     		.short	-1
 185 00ac FFFF     		.short	-1
 186 00ae FFFF     		.short	-1
 187 00b0 FFFF     		.short	-1
 188 00b2 FFFF     		.short	-1
 189 00b4 FFFF     		.short	-1
 190 00b6 FFFF     		.short	-1
 191 00b8 FFFF     		.short	-1
 192 00ba FFFF     		.short	-1
 193 00bc FFFF     		.short	-1
 194 00be FFFF     		.short	-1
 195 00c0 FFFF     		.short	-1
 196 00c2 FFFF     		.short	-1
 197 00c4 FFFF     		.short	-1
 198 00c6 FFFF     		.short	-1
 199 00c8 FFFF     		.short	-1
 200 00ca FFFF     		.short	-1
 201 00cc FFFF     		.short	-1
 202 00ce FFFF     		.short	-1
 203 00d0 FFFF     		.short	-1
 204 00d2 FFFF     		.short	-1
 205 00d4 FFFF     		.short	-1
 206 00d6 FFFF     		.short	-1
 207 00d8 FFFF     		.short	-1
 208 00da FFFF     		.short	-1
 209 00dc FFFF     		.short	-1
 210 00de FFFF     		.short	-1
 211 00e0 FFFF     		.short	-1
 212 00e2 FFFF     		.short	-1
 213 00e4 FFFF     		.short	-1
 214 00e6 FFFF     		.short	-1
 215 00e8 FFFF     		.short	-1
 216 00ea FFFF     		.short	-1
 217 00ec FFFF     		.short	-1
 218 00ee FFFF     		.short	-1
 219 00f0 FFFF     		.short	-1
 220 00f2 FFFF     		.short	-1
 221 00f4 FFFF     		.short	-1
 222 00f6 FFFF     		.short	-1
 223 00f8 FFFF     		.short	-1
ARM GAS  /tmp/ccHDIHHf.s 			page 5


 224 00fa FFFF     		.short	-1
 225 00fc FFFF     		.short	-1
 226 00fe FFFF     		.short	-1
 227 0100 FFFF     		.short	-1
 228 0102 FFFF     		.short	-1
 229 0104 FFFF     		.short	-1
 230 0106 FFFF     		.short	-1
 231 0108 FFFF     		.short	-1
 232 010a FFFF     		.short	-1
 233 010c FFFF     		.short	-1
 234 010e FFFF     		.short	-1
 235 0110 FFFF     		.short	-1
 236 0112 FFFF     		.short	-1
 237 0114 FFFF     		.short	-1
 238 0116 FFFF     		.short	-1
 239 0118 FFFF     		.short	-1
 240 011a FFFF     		.short	-1
 241 011c FFFF     		.short	-1
 242 011e FFFF     		.short	-1
 243 0120 FFFF     		.short	-1
 244 0122 FFFF     		.short	-1
 245 0124 FFFF     		.short	-1
 246 0126 FFFF     		.short	-1
 247 0128 FFFF     		.short	-1
 248 012a FFFF     		.short	-1
 249 012c FFFF     		.short	-1
 250 012e FFFF     		.short	-1
 251 0130 FFFF     		.short	-1
 252 0132 FFFF     		.short	-1
 253 0134 FFFF     		.short	-1
 254 0136 FFFF     		.short	-1
 255 0138 FFFF     		.short	-1
 256 013a FFFF     		.short	-1
 257 013c FFFF     		.short	-1
 258 013e FFFF     		.short	-1
 259 0140 FFFF     		.short	-1
 260 0142 FFFF     		.short	-1
 261 0144 FFFF     		.short	-1
 262 0146 FFFF     		.short	-1
 263 0148 FFFF     		.short	-1
 264 014a FFFF     		.short	-1
 265 014c FFFF     		.short	-1
 266 014e FFFF     		.short	-1
 267 0150 FFFF     		.short	-1
 268 0152 FFFF     		.short	-1
 269 0154 FFFF     		.short	-1
 270 0156 FFFF     		.short	-1
 271 0158 FFFF     		.short	-1
 272 015a FFFF     		.short	-1
 273 015c FFFF     		.short	-1
 274 015e FFFF     		.short	-1
 275 0160 FFFF     		.short	-1
 276 0162 FFFF     		.short	-1
 277 0164 FFFF     		.short	-1
 278 0166 FFFF     		.short	-1
 279 0168 FFFF     		.short	-1
 280 016a FFFF     		.short	-1
ARM GAS  /tmp/ccHDIHHf.s 			page 6


 281 016c FFFF     		.short	-1
 282 016e FFFF     		.short	-1
 283 0170 FFFF     		.short	-1
 284 0172 FFFF     		.short	-1
 285 0174 FFFF     		.short	-1
 286 0176 FFFF     		.short	-1
 287 0178 FFFF     		.short	-1
 288 017a FFFF     		.short	-1
 289 017c FFFF     		.short	-1
 290 017e FFFF     		.short	-1
 291 0180 FFFF     		.short	-1
 292 0182 FFFF     		.short	-1
 293 0184 FFFF     		.short	-1
 294 0186 FFFF     		.short	-1
 295 0188 FFFF     		.short	-1
 296 018a FFFF     		.short	-1
 297 018c FFFF     		.short	-1
 298 018e FFFF     		.short	-1
 299 0190 FFFF     		.short	-1
 300 0192 FFFF     		.short	-1
 301 0194 FFFF     		.short	-1
 302 0196 FFFF     		.short	-1
 303 0198 FFFF     		.short	-1
 304 019a FFFF     		.short	-1
 305 019c FFFF     		.short	-1
 306 019e FFFF     		.short	-1
 307 01a0 FFFF     		.short	-1
 308 01a2 FFFF     		.short	-1
 309 01a4 FFFF     		.short	-1
 310 01a6 FFFF     		.short	-1
 311 01a8 FFFF     		.short	-1
 312 01aa FFFF     		.short	-1
 313 01ac FFFF     		.short	-1
 314 01ae FFFF     		.short	-1
 315 01b0 FFFF     		.short	-1
 316 01b2 FFFF     		.short	-1
 317 01b4 FFFF     		.short	-1
 318 01b6 FFFF     		.short	-1
 319 01b8 FFFF     		.short	-1
 320 01ba FFFF     		.short	-1
 321 01bc FFFF     		.short	-1
 322 01be FFFF     		.short	-1
 323 01c0 FFFF     		.short	-1
 324 01c2 FFFF     		.short	-1
 325 01c4 FFFF     		.short	-1
 326 01c6 FFFF     		.short	-1
 327 01c8 FFFF     		.short	-1
 328 01ca FFFF     		.short	-1
 329 01cc FFFF     		.short	-1
 330 01ce FFFF     		.short	-1
 331 01d0 FFFF     		.short	-1
 332 01d2 FFFF     		.short	-1
 333 01d4 FFFF     		.short	-1
 334 01d6 FFFF     		.short	-1
 335 01d8 FFFF     		.short	-1
 336 01da FFFF     		.short	-1
 337 01dc FFFF     		.short	-1
ARM GAS  /tmp/ccHDIHHf.s 			page 7


 338 01de FFFF     		.short	-1
 339 01e0 FFFF     		.short	-1
 340 01e2 FFFF     		.short	-1
 341 01e4 FFFF     		.short	-1
 342 01e6 FFFF     		.short	-1
 343 01e8 FFFF     		.short	-1
 344 01ea FFFF     		.short	-1
 345 01ec FFFF     		.short	-1
 346 01ee FFFF     		.short	-1
 347 01f0 FFFF     		.short	-1
 348 01f2 FFFF     		.short	-1
 349 01f4 FFFF     		.short	-1
 350 01f6 FFFF     		.short	-1
 351 01f8 FFFF     		.short	-1
 352 01fa FFFF     		.short	-1
 353 01fc FFFF     		.short	-1
 354 01fe FFFF     		.short	-1
 355 0200 FFFF     		.short	-1
 356 0202 FFFF     		.short	-1
 357 0204 FFFF     		.short	-1
 358 0206 FFFF     		.short	-1
 359 0208 FFFF     		.short	-1
 360 020a FFFF     		.short	-1
 361 020c FFFF     		.short	-1
 362 020e FFFF     		.short	-1
 363 0210 FFFF     		.short	-1
 364 0212 FFFF     		.short	-1
 365 0214 FFFF     		.short	-1
 366 0216 FFFF     		.short	-1
 367 0218 FFFF     		.short	-1
 368 021a FFFF     		.short	-1
 369 021c FFFF     		.short	-1
 370 021e FFFF     		.short	-1
 371 0220 FFFF     		.short	-1
 372 0222 FFFF     		.short	-1
 373 0224 FFFF     		.short	-1
 374 0226 FFFF     		.short	-1
 375 0228 FFFF     		.short	-1
 376 022a FFFF     		.short	-1
 377 022c FFFF     		.short	-1
 378 022e FFFF     		.short	-1
 379 0230 FFFF     		.short	-1
 380 0232 FFFF     		.short	-1
 381 0234 FFFF     		.short	-1
 382 0236 FFFF     		.short	-1
 383 0238 FFFF     		.short	-1
 384 023a FFFF     		.short	-1
 385 023c FFFF     		.short	-1
 386 023e FFFF     		.short	-1
 387 0240 FFFF     		.short	-1
 388 0242 FFFF     		.short	-1
 389 0244 FFFF     		.short	-1
 390 0246 FFFF     		.short	-1
 391 0248 FFFF     		.short	-1
 392 024a FFFF     		.short	-1
 393 024c FFFF     		.short	-1
 394 024e FFFF     		.short	-1
ARM GAS  /tmp/ccHDIHHf.s 			page 8


 395 0250 FFFF     		.short	-1
 396 0252 FFFF     		.short	-1
 397 0254 FFFF     		.short	-1
 398 0256 FFFF     		.short	-1
 399 0258 FFFF     		.short	-1
 400 025a FFFF     		.short	-1
 401 025c FFFF     		.short	-1
 402 025e FFFF     		.short	-1
 403 0260 FFFF     		.short	-1
 404 0262 FFFF     		.short	-1
 405 0264 FFFF     		.short	-1
 406 0266 FFFF     		.short	-1
 407 0268 FFFF     		.short	-1
 408 026a FFFF     		.short	-1
 409 026c FFFF     		.short	-1
 410 026e FFFF     		.short	-1
 411 0270 FFFF     		.short	-1
 412 0272 FFFF     		.short	-1
 413 0274 FFFF     		.short	-1
 414 0276 FFFF     		.short	-1
 415 0278 FFFF     		.short	-1
 416 027a FFFF     		.short	-1
 417 027c FFFF     		.short	-1
 418 027e FFFF     		.short	-1
 419 0280 FFFF     		.short	-1
 420 0282 FFFF     		.short	-1
 421 0284 FFFF     		.short	-1
 422 0286 FFFF     		.short	-1
 423 0288 FFFF     		.short	-1
 424 028a FFFF     		.short	-1
 425 028c FFFF     		.short	-1
 426 028e FFFF     		.short	-1
 427 0290 FFFF     		.short	-1
 428 0292 FFFF     		.short	-1
 429 0294 FFFF     		.short	-1
 430 0296 FFFF     		.short	-1
 431 0298 FFFF     		.short	-1
 432 029a FFFF     		.short	-1
 433 029c FFFF     		.short	-1
 434 029e FFFF     		.short	-1
 435 02a0 FFFF     		.short	-1
 436 02a2 FFFF     		.short	-1
 437 02a4 FFFF     		.short	-1
 438 02a6 FFFF     		.short	-1
 439 02a8 FFFF     		.short	-1
 440 02aa FFFF     		.short	-1
 441 02ac FFFF     		.short	-1
 442 02ae FFFF     		.short	-1
 443 02b0 FFFF     		.short	-1
 444 02b2 FFFF     		.short	-1
 445 02b4 FFFF     		.short	-1
 446 02b6 FFFF     		.short	-1
 447 02b8 FFFF     		.short	-1
 448 02ba FFFF     		.short	-1
 449 02bc FFFF     		.short	-1
 450 02be FFFF     		.short	-1
 451 02c0 FFFF     		.short	-1
ARM GAS  /tmp/ccHDIHHf.s 			page 9


 452 02c2 FFFF     		.short	-1
 453 02c4 FFFF     		.short	-1
 454 02c6 FFFF     		.short	-1
 455 02c8 FFFF     		.short	-1
 456 02ca FFFF     		.short	-1
 457 02cc FFFF     		.short	-1
 458 02ce FFFF     		.short	-1
 459 02d0 FFFF     		.short	-1
 460 02d2 FFFF     		.short	-1
 461 02d4 FFFF     		.short	-1
 462 02d6 FFFF     		.short	-1
 463 02d8 FFFF     		.short	-1
 464 02da FFFF     		.short	-1
 465 02dc FFFF     		.short	-1
 466 02de FFFF     		.short	-1
 467 02e0 FFFF     		.short	-1
 468 02e2 FFFF     		.short	-1
 469 02e4 FFFF     		.short	-1
 470 02e6 FFFF     		.short	-1
 471 02e8 FFFF     		.short	-1
 472 02ea FFFF     		.short	-1
 473 02ec FFFF     		.short	-1
 474 02ee FFFF     		.short	-1
 475 02f0 FFFF     		.short	-1
 476 02f2 FFFF     		.short	-1
 477 02f4 FFFF     		.short	-1
 478 02f6 FFFF     		.short	-1
 479 02f8 FFFF     		.short	-1
 480 02fa FFFF     		.short	-1
 481 02fc FFFF     		.short	-1
 482 02fe FFFF     		.short	-1
 483 0300 FFFF     		.short	-1
 484 0302 FFFF     		.short	-1
 485 0304 FFFF     		.short	-1
 486 0306 FFFF     		.short	-1
 487 0308 FFFF     		.short	-1
 488 030a FFFF     		.short	-1
 489 030c FFFF     		.short	-1
 490 030e FFFF     		.short	-1
 491 0310 FFFF     		.short	-1
 492 0312 FFFF     		.short	-1
 493 0314 FFFF     		.short	-1
 494 0316 FFFF     		.short	-1
 495 0318 FFFF     		.short	-1
 496 031a FFFF     		.short	-1
 497 031c FFFF     		.short	-1
 498 031e FFFF     		.short	-1
 499 0320 FFFF     		.short	-1
 500 0322 FFFF     		.short	-1
 501 0324 FFFF     		.short	-1
 502 0326 FFFF     		.short	-1
 503 0328 FFFF     		.short	-1
 504 032a FFFF     		.short	-1
 505 032c FFFF     		.short	-1
 506 032e FFFF     		.short	-1
 507 0330 FFFF     		.short	-1
 508 0332 FFFF     		.short	-1
ARM GAS  /tmp/ccHDIHHf.s 			page 10


 509 0334 FFFF     		.short	-1
 510 0336 FFFF     		.short	-1
 511 0338 FFFF     		.short	-1
 512 033a FFFF     		.short	-1
 513 033c FFFF     		.short	-1
 514 033e FFFF     		.short	-1
 515 0340 FFFF     		.short	-1
 516 0342 FFFF     		.short	-1
 517 0344 FFFF     		.short	-1
 518 0346 FFFF     		.short	-1
 519 0348 FFFF     		.short	-1
 520 034a FFFF     		.short	-1
 521 034c FFFF     		.short	-1
 522 034e FFFF     		.short	-1
 523 0350 FFFF     		.short	-1
 524 0352 FFFF     		.short	-1
 525 0354 FFFF     		.short	-1
 526 0356 FFFF     		.short	-1
 527 0358 FFFF     		.short	-1
 528 035a FFFF     		.short	-1
 529 035c FFFF     		.short	-1
 530 035e FFFF     		.short	-1
 531 0360 FFFF     		.short	-1
 532 0362 FFFF     		.short	-1
 533 0364 FFFF     		.short	-1
 534 0366 FFFF     		.short	-1
 535 0368 FFFF     		.short	-1
 536 036a FFFF     		.short	-1
 537 036c FFFF     		.short	-1
 538 036e FFFF     		.short	-1
 539 0370 FFFF     		.short	-1
 540 0372 FFFF     		.short	-1
 541 0374 FFFF     		.short	-1
 542 0376 FFFF     		.short	-1
 543 0378 FFFF     		.short	-1
 544 037a FFFF     		.short	-1
 545 037c FFFF     		.short	-1
 546 037e FFFF     		.short	-1
 547 0380 FFFF     		.short	-1
 548 0382 FFFF     		.short	-1
 549 0384 FFFF     		.short	-1
 550 0386 FFFF     		.short	-1
 551 0388 FFFF     		.short	-1
 552 038a FFFF     		.short	-1
 553 038c FFFF     		.short	-1
 554 038e FFFF     		.short	-1
 555 0390 FFFF     		.short	-1
 556 0392 FFFF     		.short	-1
 557 0394 FFFF     		.short	-1
 558 0396 FFFF     		.short	-1
 559 0398 FFFF     		.short	-1
 560 039a FFFF     		.short	-1
 561 039c FFFF     		.short	-1
 562 039e FFFF     		.short	-1
 563 03a0 FFFF     		.short	-1
 564 03a2 FFFF     		.short	-1
 565 03a4 FFFF     		.short	-1
ARM GAS  /tmp/ccHDIHHf.s 			page 11


 566 03a6 FFFF     		.short	-1
 567 03a8 FFFF     		.short	-1
 568 03aa FFFF     		.short	-1
 569 03ac FFFF     		.short	-1
 570 03ae FFFF     		.short	-1
 571 03b0 FFFF     		.short	-1
 572 03b2 FFFF     		.short	-1
 573 03b4 FFFF     		.short	-1
 574 03b6 FFFF     		.short	-1
 575 03b8 FFFF     		.short	-1
 576 03ba FFFF     		.short	-1
 577 03bc FFFF     		.short	-1
 578 03be FFFF     		.short	-1
 579 03c0 FFFF     		.short	-1
 580 03c2 FFFF     		.short	-1
 581 03c4 FFFF     		.short	-1
 582 03c6 FFFF     		.short	-1
 583 03c8 FFFF     		.short	-1
 584 03ca FFFF     		.short	-1
 585 03cc FFFF     		.short	-1
 586 03ce FFFF     		.short	-1
 587 03d0 FFFF     		.short	-1
 588 03d2 FFFF     		.short	-1
 589 03d4 FFFF     		.short	-1
 590 03d6 FFFF     		.short	-1
 591 03d8 FFFF     		.short	-1
 592 03da FFFF     		.short	-1
 593 03dc FFFF     		.short	-1
 594 03de FFFF     		.short	-1
 595 03e0 FFFF     		.short	-1
 596 03e2 FFFF     		.short	-1
 597 03e4 FFFF     		.short	-1
 598 03e6 FFFF     		.short	-1
 599 03e8 FFFF     		.short	-1
 600 03ea FFFF     		.short	-1
 601 03ec FFFF     		.short	-1
 602 03ee FFFF     		.short	-1
 603 03f0 FFFF     		.short	-1
 604 03f2 FFFF     		.short	-1
 605 03f4 FFFF     		.short	-1
 606 03f6 FFFF     		.short	-1
 607 03f8 FFFF     		.short	-1
 608 03fa FFFF     		.short	-1
 609 03fc FFFF     		.short	-1
 610 03fe FFFF     		.short	-1
 611 0400 FFFF     		.short	-1
 612 0402 FFFF     		.short	-1
 613 0404 FFFF     		.short	-1
 614 0406 FFFF     		.short	-1
 615 0408 FFFF     		.short	-1
 616 040a FFFF     		.short	-1
 617 040c FFFF     		.short	-1
 618 040e FFFF     		.short	-1
 619 0410 FFFF     		.short	-1
 620 0412 FFFF     		.short	-1
 621 0414 FFFF     		.short	-1
 622 0416 FFFF     		.short	-1
ARM GAS  /tmp/ccHDIHHf.s 			page 12


 623 0418 FFFF     		.short	-1
 624 041a FFFF     		.short	-1
 625 041c FFFF     		.short	-1
 626 041e FFFF     		.short	-1
 627 0420 FFFF     		.short	-1
 628 0422 FFFF     		.short	-1
 629 0424 FFFF     		.short	-1
 630 0426 FFFF     		.short	-1
 631 0428 FFFF     		.short	-1
 632 042a FFFF     		.short	-1
 633 042c FFFF     		.short	-1
 634 042e FFFF     		.short	-1
 635 0430 FFFF     		.short	-1
 636 0432 FFFF     		.short	-1
 637 0434 FFFF     		.short	-1
 638 0436 FFFF     		.short	-1
 639 0438 FFFF     		.short	-1
 640 043a FFFF     		.short	-1
 641 043c FFFF     		.short	-1
 642 043e FFFF     		.short	-1
 643 0440 FFFF     		.short	-1
 644 0442 FFFF     		.short	-1
 645 0444 FFFF     		.short	-1
 646 0446 FFFF     		.short	-1
 647 0448 FFFF     		.short	-1
 648 044a FFFF     		.short	-1
 649 044c FFFF     		.short	-1
 650 044e FFFF     		.short	-1
 651 0450 FFFF     		.short	-1
 652 0452 FFFF     		.short	-1
 653 0454 FFFF     		.short	-1
 654 0456 FFFF     		.short	-1
 655 0458 FFFF     		.short	-1
 656 045a FFFF     		.short	-1
 657 045c FFFF     		.short	-1
 658 045e FFFF     		.short	-1
 659 0460 FFFF     		.short	-1
 660 0462 FFFF     		.short	-1
 661 0464 FFFF     		.short	-1
 662 0466 FFFF     		.short	-1
 663 0468 FFFF     		.short	-1
 664 046a FFFF     		.short	-1
 665 046c FFFF     		.short	-1
 666 046e FFFF     		.short	-1
 667 0470 FFFF     		.short	-1
 668 0472 FFFF     		.short	-1
 669 0474 FFFF     		.short	-1
 670 0476 FFFF     		.short	-1
 671 0478 FFFF     		.short	-1
 672 047a FFFF     		.short	-1
 673 047c FFFF     		.short	-1
 674 047e FFFF     		.short	-1
 675 0480 FFFF     		.short	-1
 676 0482 FFFF     		.short	-1
 677 0484 FFFF     		.short	-1
 678 0486 FFFF     		.short	-1
 679 0488 FFFF     		.short	-1
ARM GAS  /tmp/ccHDIHHf.s 			page 13


 680 048a FFFF     		.short	-1
 681 048c FFFF     		.short	-1
 682 048e FFFF     		.short	-1
 683 0490 FFFF     		.short	-1
 684 0492 FFFF     		.short	-1
 685 0494 FFFF     		.short	-1
 686 0496 FFFF     		.short	-1
 687 0498 FFFF     		.short	-1
 688 049a FFFF     		.short	-1
 689 049c FFFF     		.short	-1
 690 049e FFFF     		.short	-1
 691 04a0 FFFF     		.short	-1
 692 04a2 FFFF     		.short	-1
 693 04a4 FFFF     		.short	-1
 694 04a6 FFFF     		.short	-1
 695 04a8 FFFF     		.short	-1
 696 04aa FFFF     		.short	-1
 697 04ac FFFF     		.short	-1
 698 04ae FFFF     		.short	-1
 699 04b0 FFFF     		.short	-1
 700 04b2 FFFF     		.short	-1
 701 04b4 FFFF     		.short	-1
 702 04b6 FFFF     		.short	-1
 703 04b8 FFFF     		.short	-1
 704 04ba FFFF     		.short	-1
 705 04bc FFFF     		.short	-1
 706 04be FFFF     		.short	-1
 707 04c0 FFFF     		.short	-1
 708 04c2 FFFF     		.short	-1
 709 04c4 FFFF     		.short	-1
 710 04c6 FFFF     		.short	-1
 711 04c8 FFFF     		.short	-1
 712 04ca FFFF     		.short	-1
 713 04cc FFFF     		.short	-1
 714 04ce FFFF     		.short	-1
 715 04d0 FFFF     		.short	-1
 716 04d2 FFFF     		.short	-1
 717 04d4 FFFF     		.short	-1
 718 04d6 FFFF     		.short	-1
 719 04d8 FFFF     		.short	-1
 720 04da FFFF     		.short	-1
 721 04dc FFFF     		.short	-1
 722 04de FFFF     		.short	-1
 723 04e0 FFFF     		.short	-1
 724 04e2 FFFF     		.short	-1
 725 04e4 FFFF     		.short	-1
 726 04e6 FFFF     		.short	-1
 727 04e8 FFFF     		.short	-1
 728 04ea FFFF     		.short	-1
 729 04ec FFFF     		.short	-1
 730 04ee FFFF     		.short	-1
 731 04f0 FFFF     		.short	-1
 732 04f2 FFFF     		.short	-1
 733 04f4 FFFF     		.short	-1
 734 04f6 FFFF     		.short	-1
 735 04f8 FFFF     		.short	-1
 736 04fa FFFF     		.short	-1
ARM GAS  /tmp/ccHDIHHf.s 			page 14


 737 04fc FFFF     		.short	-1
 738 04fe FFFF     		.short	-1
 739 0500 FFFF     		.short	-1
 740 0502 FFFF     		.short	-1
 741 0504 FFFF     		.short	-1
 742 0506 FFFF     		.short	-1
 743 0508 FFFF     		.short	-1
 744 050a FFFF     		.short	-1
 745 050c FFFF     		.short	-1
 746 050e FFFF     		.short	-1
 747 0510 FFFF     		.short	-1
 748 0512 FFFF     		.short	-1
 749 0514 FFFF     		.short	-1
 750 0516 FFFF     		.short	-1
 751 0518 FFFF     		.short	-1
 752 051a FFFF     		.short	-1
 753 051c FFFF     		.short	-1
 754 051e FFFF     		.short	-1
 755 0520 FFFF     		.short	-1
 756 0522 FFFF     		.short	-1
 757 0524 FFFF     		.short	-1
 758 0526 FFFF     		.short	-1
 759 0528 FFFF     		.short	-1
 760 052a FFFF     		.short	-1
 761 052c FFFF     		.short	-1
 762 052e FFFF     		.short	-1
 763 0530 FFFF     		.short	-1
 764 0532 FFFF     		.short	-1
 765 0534 FFFF     		.short	-1
 766 0536 FFFF     		.short	-1
 767 0538 FFFF     		.short	-1
 768 053a FFFF     		.short	-1
 769 053c FFFF     		.short	-1
 770 053e FFFF     		.short	-1
 771 0540 FFFF     		.short	-1
 772 0542 FFFF     		.short	-1
 773 0544 FFFF     		.short	-1
 774 0546 FFFF     		.short	-1
 775 0548 FFFF     		.short	-1
 776 054a FFFF     		.short	-1
 777 054c FFFF     		.short	-1
 778 054e FFFF     		.short	-1
 779 0550 FFFF     		.short	-1
 780 0552 FFFF     		.short	-1
 781 0554 FFFF     		.short	-1
 782 0556 FFFF     		.short	-1
 783 0558 FFFF     		.short	-1
 784 055a FFFF     		.short	-1
 785 055c FFFF     		.short	-1
 786 055e FFFF     		.short	-1
 787 0560 FFFF     		.short	-1
 788 0562 FFFF     		.short	-1
 789 0564 FFFF     		.short	-1
 790 0566 FFFF     		.short	-1
 791 0568 FFFF     		.short	-1
 792 056a FFFF     		.short	-1
 793 056c FFFF     		.short	-1
ARM GAS  /tmp/ccHDIHHf.s 			page 15


 794 056e FFFF     		.short	-1
 795 0570 FFFF     		.short	-1
 796 0572 FFFF     		.short	-1
 797 0574 FFFF     		.short	-1
 798 0576 FFFF     		.short	-1
 799 0578 FFFF     		.short	-1
 800 057a FFFF     		.short	-1
 801 057c FFFF     		.short	-1
 802 057e FFFF     		.short	-1
 803 0580 FFFF     		.short	-1
 804 0582 FFFF     		.short	-1
 805 0584 FFFF     		.short	-1
 806 0586 FFFF     		.short	-1
 807 0588 FFFF     		.short	-1
 808 058a FFFF     		.short	-1
 809 058c FFFF     		.short	-1
 810 058e FFFF     		.short	-1
 811 0590 FFFF     		.short	-1
 812 0592 FFFF     		.short	-1
 813 0594 FFFF     		.short	-1
 814 0596 FFFF     		.short	-1
 815 0598 FFFF     		.short	-1
 816 059a FFFF     		.short	-1
 817 059c FFFF     		.short	-1
 818 059e FFFF     		.short	-1
 819 05a0 FFFF     		.short	-1
 820 05a2 FFFF     		.short	-1
 821 05a4 FFFF     		.short	-1
 822 05a6 FFFF     		.short	-1
 823 05a8 FFFF     		.short	-1
 824 05aa FFFF     		.short	-1
 825 05ac FFFF     		.short	-1
 826 05ae FFFF     		.short	-1
 827 05b0 FFFF     		.short	-1
 828 05b2 FFFF     		.short	-1
 829 05b4 FFFF     		.short	-1
 830 05b6 FFFF     		.short	-1
 831 05b8 FFFF     		.short	-1
 832 05ba FFFF     		.short	-1
 833 05bc FFFF     		.short	-1
 834 05be FFFF     		.short	-1
 835 05c0 FFFF     		.short	-1
 836 05c2 FFFF     		.short	-1
 837 05c4 FFFF     		.short	-1
 838 05c6 FFFF     		.short	-1
 839 05c8 FFFF     		.short	-1
 840 05ca FFFF     		.short	-1
 841 05cc FFFF     		.short	-1
 842 05ce FFFF     		.short	-1
 843 05d0 FFFF     		.short	-1
 844 05d2 FFFF     		.short	-1
 845 05d4 FFFF     		.short	-1
 846 05d6 FFFF     		.short	-1
 847 05d8 FFFF     		.short	-1
 848 05da FFFF     		.short	-1
 849 05dc FFFF     		.short	-1
 850 05de FFFF     		.short	-1
ARM GAS  /tmp/ccHDIHHf.s 			page 16


 851 05e0 FFFF     		.short	-1
 852 05e2 FFFF     		.short	-1
 853 05e4 FFFF     		.short	-1
 854 05e6 FFFF     		.short	-1
 855 05e8 FFFF     		.short	-1
 856 05ea FFFF     		.short	-1
 857 05ec FFFF     		.short	-1
 858 05ee FFFF     		.short	-1
 859 05f0 FFFF     		.short	-1
 860 05f2 FFFF     		.short	-1
 861 05f4 FFFF     		.short	-1
 862 05f6 FFFF     		.short	-1
 863 05f8 FFFF     		.short	-1
 864 05fa FFFF     		.short	-1
 865 05fc FFFF     		.short	-1
 866 05fe FFFF     		.short	-1
 867 0600 FFFF     		.short	-1
 868 0602 FFFF     		.short	-1
 869 0604 FFFF     		.short	-1
 870 0606 FFFF     		.short	-1
 871 0608 FFFF     		.short	-1
 872 060a FFFF     		.short	-1
 873 060c FFFF     		.short	-1
 874 060e FFFF     		.short	-1
 875 0610 FFFF     		.short	-1
 876 0612 FFFF     		.short	-1
 877 0614 FFFF     		.short	-1
 878 0616 FFFF     		.short	-1
 879 0618 FFFF     		.short	-1
 880 061a FFFF     		.short	-1
 881 061c FFFF     		.short	-1
 882 061e FFFF     		.short	-1
 883 0620 FFFF     		.short	-1
 884 0622 FFFF     		.short	-1
 885 0624 FFFF     		.short	-1
 886 0626 FFFF     		.short	-1
 887 0628 FFFF     		.short	-1
 888 062a FFFF     		.short	-1
 889 062c FFFF     		.short	-1
 890 062e FFFF     		.short	-1
 891 0630 FFFF     		.short	-1
 892 0632 FFFF     		.short	-1
 893 0634 FFFF     		.short	-1
 894 0636 FFFF     		.short	-1
 895 0638 FFFF     		.short	-1
 896 063a FFFF     		.short	-1
 897 063c FFFF     		.short	-1
 898 063e FFFF     		.short	-1
 899 0640 FFFF     		.short	-1
 900 0642 FFFF     		.short	-1
 901 0644 FFFF     		.short	-1
 902 0646 FFFF     		.short	-1
 903 0648 FFFF     		.short	-1
 904 064a FFFF     		.short	-1
 905 064c FFFF     		.short	-1
 906 064e FFFF     		.short	-1
 907 0650 FFFF     		.short	-1
ARM GAS  /tmp/ccHDIHHf.s 			page 17


 908 0652 FFFF     		.short	-1
 909 0654 FFFF     		.short	-1
 910 0656 FFFF     		.short	-1
 911 0658 FFFF     		.short	-1
 912 065a FFFF     		.short	-1
 913 065c FFFF     		.short	-1
 914 065e FFFF     		.short	-1
 915 0660 FFFF     		.short	-1
 916 0662 FFFF     		.short	-1
 917 0664 FFFF     		.short	-1
 918 0666 FFFF     		.short	-1
 919 0668 FFFF     		.short	-1
 920 066a FFFF     		.short	-1
 921 066c FFFF     		.short	-1
 922 066e FFFF     		.short	-1
 923 0670 FFFF     		.short	-1
 924 0672 FFFF     		.short	-1
 925 0674 FFFF     		.short	-1
 926 0676 FFFF     		.short	-1
 927 0678 FFFF     		.short	-1
 928 067a FFFF     		.short	-1
 929 067c FFFF     		.short	-1
 930 067e FFFF     		.short	-1
 931 0680 FFFF     		.short	-1
 932 0682 FFFF     		.short	-1
 933 0684 FFFF     		.short	-1
 934 0686 FFFF     		.short	-1
 935 0688 FFFF     		.short	-1
 936 068a FFFF     		.short	-1
 937 068c FFFF     		.short	-1
 938 068e FFFF     		.short	-1
 939 0690 FFFF     		.short	-1
 940 0692 FFFF     		.short	-1
 941 0694 FFFF     		.short	-1
 942 0696 FFFF     		.short	-1
 943 0698 FFFF     		.short	-1
 944 069a FFFF     		.short	-1
 945 069c FFFF     		.short	-1
 946 069e FFFF     		.short	-1
 947 06a0 FFFF     		.short	-1
 948 06a2 FFFF     		.short	-1
 949 06a4 FFFF     		.short	-1
 950 06a6 FFFF     		.short	-1
 951 06a8 FFFF     		.short	-1
 952 06aa FFFF     		.short	-1
 953 06ac FFFF     		.short	-1
 954 06ae FFFF     		.short	-1
 955 06b0 FFFF     		.short	-1
 956 06b2 FFFF     		.short	-1
 957 06b4 FFFF     		.short	-1
 958 06b6 FFFF     		.short	-1
 959 06b8 FFFF     		.short	-1
 960 06ba FFFF     		.short	-1
 961 06bc FFFF     		.short	-1
 962 06be FFFF     		.short	-1
 963 06c0 FFFF     		.short	-1
 964 06c2 FFFF     		.short	-1
ARM GAS  /tmp/ccHDIHHf.s 			page 18


 965 06c4 FFFF     		.short	-1
 966 06c6 FFFF     		.short	-1
 967 06c8 FFFF     		.short	-1
 968 06ca FFFF     		.short	-1
 969 06cc FFFF     		.short	-1
 970 06ce FFFF     		.short	-1
 971 06d0 FFFF     		.short	-1
 972 06d2 FFFF     		.short	-1
 973 06d4 FFFF     		.short	-1
 974 06d6 FFFF     		.short	-1
 975 06d8 FFFF     		.short	-1
 976 06da FFFF     		.short	-1
 977 06dc FFFF     		.short	-1
 978 06de FFFF     		.short	-1
 979 06e0 FFFF     		.short	-1
 980 06e2 FFFF     		.short	-1
 981 06e4 FFFF     		.short	-1
 982 06e6 FFFF     		.short	-1
 983 06e8 FFFF     		.short	-1
 984 06ea FFFF     		.short	-1
 985 06ec FFFF     		.short	-1
 986 06ee FFFF     		.short	-1
 987 06f0 FFFF     		.short	-1
 988 06f2 FFFF     		.short	-1
 989 06f4 FFFF     		.short	-1
 990 06f6 FFFF     		.short	-1
 991 06f8 FFFF     		.short	-1
 992 06fa FFFF     		.short	-1
 993 06fc FFFF     		.short	-1
 994 06fe FFFF     		.short	-1
 995 0700 FFFF     		.short	-1
 996 0702 FFFF     		.short	-1
 997 0704 FFFF     		.short	-1
 998 0706 FFFF     		.short	-1
 999 0708 FFFF     		.short	-1
 1000 070a FFFF     		.short	-1
 1001 070c FFFF     		.short	-1
 1002 070e FFFF     		.short	-1
 1003 0710 FFFF     		.short	-1
 1004 0712 FFFF     		.short	-1
 1005 0714 FFFF     		.short	-1
 1006 0716 FFFF     		.short	-1
 1007 0718 FFFF     		.short	-1
 1008 071a FFFF     		.short	-1
 1009 071c FFFF     		.short	-1
 1010 071e FFFF     		.short	-1
 1011 0720 FFFF     		.short	-1
 1012 0722 FFFF     		.short	-1
 1013 0724 FFFF     		.short	-1
 1014 0726 FFFF     		.short	-1
 1015 0728 FFFF     		.short	-1
 1016 072a FFFF     		.short	-1
 1017 072c FFFF     		.short	-1
 1018 072e FFFF     		.short	-1
 1019 0730 FFFF     		.short	-1
 1020 0732 FFFF     		.short	-1
 1021 0734 FFFF     		.short	-1
ARM GAS  /tmp/ccHDIHHf.s 			page 19


 1022 0736 FFFF     		.short	-1
 1023 0738 FFFF     		.short	-1
 1024 073a FFFF     		.short	-1
 1025 073c FFFF     		.short	-1
 1026 073e FFFF     		.short	-1
 1027 0740 FFFF     		.short	-1
 1028 0742 FFFF     		.short	-1
 1029 0744 FFFF     		.short	-1
 1030 0746 FFFF     		.short	-1
 1031 0748 FFFF     		.short	-1
 1032 074a FFFF     		.short	-1
 1033 074c FFFF     		.short	-1
 1034 074e FFFF     		.short	-1
 1035 0750 FFFF     		.short	-1
 1036 0752 FFFF     		.short	-1
 1037 0754 FFFF     		.short	-1
 1038 0756 FFFF     		.short	-1
 1039 0758 FFFF     		.short	-1
 1040 075a FFFF     		.short	-1
 1041 075c FFFF     		.short	-1
 1042 075e FFFF     		.short	-1
 1043 0760 FFFF     		.short	-1
 1044 0762 FFFF     		.short	-1
 1045 0764 FFFF     		.short	-1
 1046 0766 FFFF     		.short	-1
 1047 0768 FFFF     		.short	-1
 1048 076a FFFF     		.short	-1
 1049 076c FFFF     		.short	-1
 1050 076e FFFF     		.short	-1
 1051 0770 FFFF     		.short	-1
 1052 0772 FFFF     		.short	-1
 1053 0774 FFFF     		.short	-1
 1054 0776 FFFF     		.short	-1
 1055 0778 FFFF     		.short	-1
 1056 077a FFFF     		.short	-1
 1057 077c FFFF     		.short	-1
 1058 077e FFFF     		.short	-1
 1059 0780 FFFF     		.short	-1
 1060 0782 FFFF     		.short	-1
 1061 0784 FFFF     		.short	-1
 1062 0786 FFFF     		.short	-1
 1063 0788 FFFF     		.short	-1
 1064 078a FFFF     		.short	-1
 1065 078c FFFF     		.short	-1
 1066 078e FFFF     		.short	-1
 1067 0790 FFFF     		.short	-1
 1068 0792 FFFF     		.short	-1
 1069 0794 FFFF     		.short	-1
 1070 0796 FFFF     		.short	-1
 1071 0798 FFFF     		.short	-1
 1072 079a FFFF     		.short	-1
 1073 079c FFFF     		.short	-1
 1074 079e FFFF     		.short	-1
 1075 07a0 FFFF     		.short	-1
 1076 07a2 FFFF     		.short	-1
 1077 07a4 FFFF     		.short	-1
 1078 07a6 FFFF     		.short	-1
ARM GAS  /tmp/ccHDIHHf.s 			page 20


 1079 07a8 FFFF     		.short	-1
 1080 07aa FFFF     		.short	-1
 1081 07ac FFFF     		.short	-1
 1082 07ae FFFF     		.short	-1
 1083 07b0 FFFF     		.short	-1
 1084 07b2 FFFF     		.short	-1
 1085 07b4 FFFF     		.short	-1
 1086 07b6 FFFF     		.short	-1
 1087 07b8 FFFF     		.short	-1
 1088 07ba FFFF     		.short	-1
 1089 07bc FFFF     		.short	-1
 1090 07be FFFF     		.short	-1
 1091 07c0 FFFF     		.short	-1
 1092 07c2 FFFF     		.short	-1
 1093 07c4 FFFF     		.short	-1
 1094 07c6 FFFF     		.short	-1
 1095 07c8 FFFF     		.short	-1
 1096 07ca FFFF     		.short	-1
 1097 07cc FFFF     		.short	-1
 1098 07ce FFFF     		.short	-1
 1099 07d0 FFFF     		.short	-1
 1100 07d2 FFFF     		.short	-1
 1101 07d4 FFFF     		.short	-1
 1102 07d6 FFFF     		.short	-1
 1103 07d8 FFFF     		.short	-1
 1104 07da FFFF     		.short	-1
 1105 07dc FFFF     		.short	-1
 1106 07de FFFF     		.short	-1
 1107 07e0 FFFF     		.short	-1
 1108 07e2 FFFF     		.short	-1
 1109 07e4 FFFF     		.short	-1
 1110 07e6 FFFF     		.short	-1
 1111 07e8 FFFF     		.short	-1
 1112 07ea FFFF     		.short	-1
 1113 07ec FFFF     		.short	-1
 1114 07ee FFFF     		.short	-1
 1115 07f0 FFFF     		.short	-1
 1116 07f2 FFFF     		.short	-1
 1117 07f4 FFFF     		.short	-1
 1118 07f6 FFFF     		.short	-1
 1119 07f8 FFFF     		.short	-1
 1120 07fa FFFF     		.short	-1
 1121 07fc FFFF     		.short	-1
 1122 07fe FFFF     		.short	-1
 1123 0800 FFFF     		.short	-1
 1124 0802 FFFF     		.short	-1
 1125 0804 FFFF     		.short	-1
 1126 0806 FFFF     		.short	-1
 1127 0808 FFFF     		.short	-1
 1128 080a FFFF     		.short	-1
 1129 080c FFFF     		.short	-1
 1130 080e FFFF     		.short	-1
 1131 0810 FFFF     		.short	-1
 1132 0812 FFFF     		.short	-1
 1133 0814 FFFF     		.short	-1
 1134 0816 FFFF     		.short	-1
 1135 0818 FFFF     		.short	-1
ARM GAS  /tmp/ccHDIHHf.s 			page 21


 1136 081a FFFF     		.short	-1
 1137 081c FFFF     		.short	-1
 1138 081e FFFF     		.short	-1
 1139 0820 FFFF     		.short	-1
 1140 0822 FFFF     		.short	-1
 1141 0824 FFFF     		.short	-1
 1142 0826 FFFF     		.short	-1
 1143 0828 FFFF     		.short	-1
 1144 082a FFFF     		.short	-1
 1145 082c FFFF     		.short	-1
 1146 082e FFFF     		.short	-1
 1147 0830 FFFF     		.short	-1
 1148 0832 FFFF     		.short	-1
 1149 0834 FFFF     		.short	-1
 1150 0836 FFFF     		.short	-1
 1151 0838 FFFF     		.short	-1
 1152 083a FFFF     		.short	-1
 1153 083c FFFF     		.short	-1
 1154 083e FFFF     		.short	-1
 1155 0840 FFFF     		.short	-1
 1156 0842 FFFF     		.short	-1
 1157 0844 FFFF     		.short	-1
 1158 0846 FFFF     		.short	-1
 1159 0848 FFFF     		.short	-1
 1160 084a FFFF     		.short	-1
 1161 084c FFFF     		.short	-1
 1162 084e FFFF     		.short	-1
 1163 0850 FFFF     		.short	-1
 1164 0852 FFFF     		.short	-1
 1165 0854 FFFF     		.short	-1
 1166 0856 FFFF     		.short	-1
 1167 0858 FFFF     		.short	-1
 1168 085a FFFF     		.short	-1
 1169 085c FFFF     		.short	-1
 1170 085e FFFF     		.short	-1
 1171 0860 FFFF     		.short	-1
 1172 0862 FFFF     		.short	-1
 1173 0864 FFFF     		.short	-1
 1174 0866 FFFF     		.short	-1
 1175 0868 FFFF     		.short	-1
 1176 086a FFFF     		.short	-1
 1177 086c FFFF     		.short	-1
 1178 086e FFFF     		.short	-1
 1179 0870 FFFF     		.short	-1
 1180 0872 FFFF     		.short	-1
 1181 0874 FFFF     		.short	-1
 1182 0876 FFFF     		.short	-1
 1183 0878 FFFF     		.short	-1
 1184 087a FFFF     		.short	-1
 1185 087c FFFF     		.short	-1
 1186 087e FFFF     		.short	-1
 1187 0880 FFFF     		.short	-1
 1188 0882 FFFF     		.short	-1
 1189 0884 FFFF     		.short	-1
 1190 0886 FFFF     		.short	-1
 1191 0888 FFFF     		.short	-1
 1192 088a FFFF     		.short	-1
ARM GAS  /tmp/ccHDIHHf.s 			page 22


 1193 088c FFFF     		.short	-1
 1194 088e FFFF     		.short	-1
 1195 0890 FFFF     		.short	-1
 1196 0892 FFFF     		.short	-1
 1197 0894 FFFF     		.short	-1
 1198 0896 FFFF     		.short	-1
 1199 0898 FFFF     		.short	-1
 1200 089a FFFF     		.short	-1
 1201 089c FFFF     		.short	-1
 1202 089e FFFF     		.short	-1
 1203 08a0 FFFF     		.short	-1
 1204 08a2 FFFF     		.short	-1
 1205 08a4 FFFF     		.short	-1
 1206 08a6 FFFF     		.short	-1
 1207 08a8 FFFF     		.short	-1
 1208 08aa FFFF     		.short	-1
 1209 08ac FFFF     		.short	-1
 1210 08ae FFFF     		.short	-1
 1211 08b0 FFFF     		.short	-1
 1212 08b2 FFFF     		.short	-1
 1213 08b4 FFFF     		.short	-1
 1214 08b6 FFFF     		.short	-1
 1215 08b8 FFFF     		.short	-1
 1216 08ba FFFF     		.short	-1
 1217 08bc FFFF     		.short	-1
 1218 08be FFFF     		.short	-1
 1219 08c0 FFFF     		.short	-1
 1220 08c2 FFFF     		.short	-1
 1221 08c4 FFFF     		.short	-1
 1222 08c6 FFFF     		.short	-1
 1223 08c8 FFFF     		.short	-1
 1224 08ca FFFF     		.short	-1
 1225 08cc FFFF     		.short	-1
 1226 08ce FFFF     		.short	-1
 1227 08d0 FFFF     		.short	-1
 1228 08d2 FFFF     		.short	-1
 1229 08d4 FFFF     		.short	-1
 1230 08d6 FFFF     		.short	-1
 1231 08d8 FFFF     		.short	-1
 1232 08da FFFF     		.short	-1
 1233 08dc FFFF     		.short	-1
 1234 08de FFFF     		.short	-1
 1235 08e0 FFFF     		.short	-1
 1236 08e2 FFFF     		.short	-1
 1237 08e4 FFFF     		.short	-1
 1238 08e6 FFFF     		.short	-1
 1239 08e8 FFFF     		.short	-1
 1240 08ea FFFF     		.short	-1
 1241 08ec FFFF     		.short	-1
 1242 08ee FFFF     		.short	-1
 1243 08f0 FFFF     		.short	-1
 1244 08f2 FFFF     		.short	-1
 1245 08f4 FFFF     		.short	-1
 1246 08f6 FFFF     		.short	-1
 1247 08f8 FFFF     		.short	-1
 1248 08fa FFFF     		.short	-1
 1249 08fc FFFF     		.short	-1
ARM GAS  /tmp/ccHDIHHf.s 			page 23


 1250 08fe FFFF     		.short	-1
 1251 0900 FFFF     		.short	-1
 1252 0902 FFFF     		.short	-1
 1253 0904 FFFF     		.short	-1
 1254 0906 FFFF     		.short	-1
 1255 0908 FFFF     		.short	-1
 1256 090a FFFF     		.short	-1
 1257 090c FFFF     		.short	-1
 1258 090e FFFF     		.short	-1
 1259 0910 FFFF     		.short	-1
 1260 0912 FFFF     		.short	-1
 1261 0914 FFFF     		.short	-1
 1262 0916 FFFF     		.short	-1
 1263 0918 FFFF     		.short	-1
 1264 091a FFFF     		.short	-1
 1265 091c FFFF     		.short	-1
 1266 091e FFFF     		.short	-1
 1267 0920 FFFF     		.short	-1
 1268 0922 FFFF     		.short	-1
 1269 0924 FFFF     		.short	-1
 1270 0926 FFFF     		.short	-1
 1271 0928 FFFF     		.short	-1
 1272 092a FFFF     		.short	-1
 1273 092c FFFF     		.short	-1
 1274 092e FFFF     		.short	-1
 1275 0930 FFFF     		.short	-1
 1276 0932 FFFF     		.short	-1
 1277 0934 FFFF     		.short	-1
 1278 0936 FFFF     		.short	-1
 1279 0938 FFFF     		.short	-1
 1280 093a FFFF     		.short	-1
 1281 093c FFFF     		.short	-1
 1282 093e FFFF     		.short	-1
 1283 0940 FFFF     		.short	-1
 1284 0942 FFFF     		.short	-1
 1285 0944 FFFF     		.short	-1
 1286 0946 FFFF     		.short	-1
 1287 0948 FFFF     		.short	-1
 1288 094a FFFF     		.short	-1
 1289 094c FFFF     		.short	-1
 1290 094e FFFF     		.short	-1
 1291 0950 FFFF     		.short	-1
 1292 0952 FFFF     		.short	-1
 1293 0954 FFFF     		.short	-1
 1294 0956 FFFF     		.short	-1
 1295 0958 FFFF     		.short	-1
 1296 095a FFFF     		.short	-1
 1297 095c FFFF     		.short	-1
 1298 095e FFFF     		.short	-1
 1299 0960 FFFF     		.short	-1
 1300 0962 FFFF     		.short	-1
 1301 0964 FFFF     		.short	-1
 1302 0966 FFFF     		.short	-1
 1303 0968 FFFF     		.short	-1
 1304 096a FFFF     		.short	-1
 1305 096c FFFF     		.short	-1
 1306 096e FFFF     		.short	-1
ARM GAS  /tmp/ccHDIHHf.s 			page 24


 1307 0970 FFFF     		.short	-1
 1308 0972 FFFF     		.short	-1
 1309 0974 FFFF     		.short	-1
 1310 0976 FFFF     		.short	-1
 1311 0978 FFFF     		.short	-1
 1312 097a FFFF     		.short	-1
 1313 097c FFFF     		.short	-1
 1314 097e FFFF     		.short	-1
 1315 0980 FFFF     		.short	-1
 1316 0982 FFFF     		.short	-1
 1317 0984 FFFF     		.short	-1
 1318 0986 FFFF     		.short	-1
 1319 0988 FFFF     		.short	-1
 1320 098a FFFF     		.short	-1
 1321 098c FFFF     		.short	-1
 1322 098e FFFF     		.short	-1
 1323 0990 FFFF     		.short	-1
 1324 0992 FFFF     		.short	-1
 1325 0994 FFFF     		.short	-1
 1326 0996 FFFF     		.short	-1
 1327 0998 FFFF     		.short	-1
 1328 099a FFFF     		.short	-1
 1329 099c FFFF     		.short	-1
 1330 099e FFFF     		.short	-1
 1331 09a0 FFFF     		.short	-1
 1332 09a2 FFFF     		.short	-1
 1333 09a4 FFFF     		.short	-1
 1334 09a6 FFFF     		.short	-1
 1335 09a8 FFFF     		.short	-1
 1336 09aa FFFF     		.short	-1
 1337 09ac FFFF     		.short	-1
 1338 09ae FFFF     		.short	-1
 1339 09b0 FFFF     		.short	-1
 1340 09b2 FFFF     		.short	-1
 1341 09b4 FFFF     		.short	-1
 1342 09b6 FFFF     		.short	-1
 1343 09b8 FFFF     		.short	-1
 1344 09ba FFFF     		.short	-1
 1345 09bc FFFF     		.short	-1
 1346 09be FFFF     		.short	-1
 1347 09c0 FFFF     		.short	-1
 1348 09c2 FFFF     		.short	-1
 1349 09c4 FFFF     		.short	-1
 1350 09c6 FFFF     		.short	-1
 1351 09c8 FFFF     		.short	-1
 1352 09ca FFFF     		.short	-1
 1353 09cc FFFF     		.short	-1
 1354 09ce FFFF     		.short	-1
 1355 09d0 FFFF     		.short	-1
 1356 09d2 FFFF     		.short	-1
 1357 09d4 FFFF     		.short	-1
 1358 09d6 FFFF     		.short	-1
 1359 09d8 FFFF     		.short	-1
 1360 09da FFFF     		.short	-1
 1361 09dc FFFF     		.short	-1
 1362 09de FFFF     		.short	-1
 1363 09e0 FFFF     		.short	-1
ARM GAS  /tmp/ccHDIHHf.s 			page 25


 1364 09e2 FFFF     		.short	-1
 1365 09e4 FFFF     		.short	-1
 1366 09e6 FFFF     		.short	-1
 1367 09e8 FFFF     		.short	-1
 1368 09ea FFFF     		.short	-1
 1369 09ec FFFF     		.short	-1
 1370 09ee FFFF     		.short	-1
 1371 09f0 FFFF     		.short	-1
 1372 09f2 FFFF     		.short	-1
 1373 09f4 FFFF     		.short	-1
 1374 09f6 FFFF     		.short	-1
 1375 09f8 FFFF     		.short	-1
 1376 09fa FFFF     		.short	-1
 1377 09fc FFFF     		.short	-1
 1378 09fe FFFF     		.short	-1
 1379 0a00 FFFF     		.short	-1
 1380 0a02 FFFF     		.short	-1
 1381 0a04 FFFF     		.short	-1
 1382 0a06 FFFF     		.short	-1
 1383 0a08 FFFF     		.short	-1
 1384 0a0a FFFF     		.short	-1
 1385 0a0c FFFF     		.short	-1
 1386 0a0e FFFF     		.short	-1
 1387 0a10 FFFF     		.short	-1
 1388 0a12 FFFF     		.short	-1
 1389 0a14 FFFF     		.short	-1
 1390 0a16 FFFF     		.short	-1
 1391 0a18 FFFF     		.short	-1
 1392 0a1a FFFF     		.short	-1
 1393 0a1c FFFF     		.short	-1
 1394 0a1e FFFF     		.short	-1
 1395 0a20 FFFF     		.short	-1
 1396 0a22 FFFF     		.short	-1
 1397 0a24 FFFF     		.short	-1
 1398 0a26 FFFF     		.short	-1
 1399 0a28 FFFF     		.short	-1
 1400 0a2a FFFF     		.short	-1
 1401 0a2c FFFF     		.short	-1
 1402 0a2e FFFF     		.short	-1
 1403 0a30 FFFF     		.short	-1
 1404 0a32 FFFF     		.short	-1
 1405 0a34 FFFF     		.short	-1
 1406 0a36 FFFF     		.short	-1
 1407 0a38 FFFF     		.short	-1
 1408 0a3a FFFF     		.short	-1
 1409 0a3c FFFF     		.short	-1
 1410 0a3e FFFF     		.short	-1
 1411 0a40 FFFF     		.short	-1
 1412 0a42 FFFF     		.short	-1
 1413 0a44 FFFF     		.short	-1
 1414 0a46 FFFF     		.short	-1
 1415 0a48 FFFF     		.short	-1
 1416 0a4a FFFF     		.short	-1
 1417 0a4c FFFF     		.short	-1
 1418 0a4e FFFF     		.short	-1
 1419 0a50 FFFF     		.short	-1
 1420 0a52 FFFF     		.short	-1
ARM GAS  /tmp/ccHDIHHf.s 			page 26


 1421 0a54 FFFF     		.short	-1
 1422 0a56 FFFF     		.short	-1
 1423 0a58 FFFF     		.short	-1
 1424 0a5a FFFF     		.short	-1
 1425 0a5c FFFF     		.short	-1
 1426 0a5e FFFF     		.short	-1
 1427 0a60 FFFF     		.short	-1
 1428 0a62 FFFF     		.short	-1
 1429 0a64 FFFF     		.short	-1
 1430 0a66 FFFF     		.short	-1
 1431 0a68 FFFF     		.short	-1
 1432 0a6a FFFF     		.short	-1
 1433 0a6c FFFF     		.short	-1
 1434 0a6e FFFF     		.short	-1
 1435 0a70 FFFF     		.short	-1
 1436 0a72 FFFF     		.short	-1
 1437 0a74 FFFF     		.short	-1
 1438 0a76 FFFF     		.short	-1
 1439 0a78 FFFF     		.short	-1
 1440 0a7a FFFF     		.short	-1
 1441 0a7c FFFF     		.short	-1
 1442 0a7e FFFF     		.short	-1
 1443 0a80 FFFF     		.short	-1
 1444 0a82 FFFF     		.short	-1
 1445 0a84 FFFF     		.short	-1
 1446 0a86 FFFF     		.short	-1
 1447 0a88 FFFF     		.short	-1
 1448 0a8a FFFF     		.short	-1
 1449 0a8c FFFF     		.short	-1
 1450 0a8e FFFF     		.short	-1
 1451 0a90 FFFF     		.short	-1
 1452 0a92 FFFF     		.short	-1
 1453 0a94 FFFF     		.short	-1
 1454 0a96 FFFF     		.short	-1
 1455 0a98 FFFF     		.short	-1
 1456 0a9a FFFF     		.short	-1
 1457 0a9c FFFF     		.short	-1
 1458 0a9e FFFF     		.short	-1
 1459 0aa0 FFFF     		.short	-1
 1460 0aa2 FFFF     		.short	-1
 1461 0aa4 FFFF     		.short	-1
 1462 0aa6 FFFF     		.short	-1
 1463 0aa8 FFFF     		.short	-1
 1464 0aaa FFFF     		.short	-1
 1465 0aac FFFF     		.short	-1
 1466 0aae FFFF     		.short	-1
 1467 0ab0 FFFF     		.short	-1
 1468 0ab2 FFFF     		.short	-1
 1469 0ab4 FFFF     		.short	-1
 1470 0ab6 FFFF     		.short	-1
 1471 0ab8 FFFF     		.short	-1
 1472 0aba FFFF     		.short	-1
 1473 0abc FFFF     		.short	-1
 1474 0abe FFFF     		.short	-1
 1475 0ac0 FFFF     		.short	-1
 1476 0ac2 FFFF     		.short	-1
 1477 0ac4 FFFF     		.short	-1
ARM GAS  /tmp/ccHDIHHf.s 			page 27


 1478 0ac6 FFFF     		.short	-1
 1479 0ac8 FFFF     		.short	-1
 1480 0aca FFFF     		.short	-1
 1481 0acc FFFF     		.short	-1
 1482 0ace FFFF     		.short	-1
 1483 0ad0 FFFF     		.short	-1
 1484 0ad2 FFFF     		.short	-1
 1485 0ad4 FFFF     		.short	-1
 1486 0ad6 FFFF     		.short	-1
 1487 0ad8 FFFF     		.short	-1
 1488 0ada FFFF     		.short	-1
 1489 0adc FFFF     		.short	-1
 1490 0ade FFFF     		.short	-1
 1491 0ae0 FFFF     		.short	-1
 1492 0ae2 FFFF     		.short	-1
 1493 0ae4 FFFF     		.short	-1
 1494 0ae6 FFFF     		.short	-1
 1495 0ae8 FFFF     		.short	-1
 1496 0aea FFFF     		.short	-1
 1497 0aec FFFF     		.short	-1
 1498 0aee FFFF     		.short	-1
 1499 0af0 FFFF     		.short	-1
 1500 0af2 FFFF     		.short	-1
 1501 0af4 FFFF     		.short	-1
 1502 0af6 FFFF     		.short	-1
 1503 0af8 FFFF     		.short	-1
 1504 0afa FFFF     		.short	-1
 1505 0afc FFFF     		.short	-1
 1506 0afe FFFF     		.short	-1
 1507 0b00 FFFF     		.short	-1
 1508 0b02 FFFF     		.short	-1
 1509 0b04 FFFF     		.short	-1
 1510 0b06 FFFF     		.short	-1
 1511 0b08 FFFF     		.short	-1
 1512 0b0a FFFF     		.short	-1
 1513 0b0c FFFF     		.short	-1
 1514 0b0e FFFF     		.short	-1
 1515 0b10 FFFF     		.short	-1
 1516 0b12 FFFF     		.short	-1
 1517 0b14 FFFF     		.short	-1
 1518 0b16 FFFF     		.short	-1
 1519 0b18 FFFF     		.short	-1
 1520 0b1a FFFF     		.short	-1
 1521 0b1c FFFF     		.short	-1
 1522 0b1e FFFF     		.short	-1
 1523 0b20 FFFF     		.short	-1
 1524 0b22 FFFF     		.short	-1
 1525 0b24 FFFF     		.short	-1
 1526 0b26 FFFF     		.short	-1
 1527 0b28 FFFF     		.short	-1
 1528 0b2a FFFF     		.short	-1
 1529 0b2c FFFF     		.short	-1
 1530 0b2e FFFF     		.short	-1
 1531 0b30 FFFF     		.short	-1
 1532 0b32 FFFF     		.short	-1
 1533 0b34 FFFF     		.short	-1
 1534 0b36 FFFF     		.short	-1
ARM GAS  /tmp/ccHDIHHf.s 			page 28


 1535 0b38 FFFF     		.short	-1
 1536 0b3a FFFF     		.short	-1
 1537 0b3c FFFF     		.short	-1
 1538 0b3e FFFF     		.short	-1
 1539              		.global	timer_index
 1540              		.bss
 1541              		.align	2
 1542              		.type	timer_index, %object
 1543              		.size	timer_index, 4
 1544              	timer_index:
 1545 001c 00000000 		.space	4
 1546              		.comm	read_state,4,4
 1547              		.comm	people,4,4
 1548              		.global	check_count
 1549              		.align	2
 1550              		.type	check_count, %object
 1551              		.size	check_count, 4
 1552              	check_count:
 1553 0020 00000000 		.space	4
 1554 0024 00000000 		.align	3
 1555              	waCounterThread:
 1556 0028 00000000 		.space	328
 1556      00000000 
 1556      00000000 
 1556      00000000 
 1556      00000000 
 1557              		.section	.rodata
 1558              		.align	2
 1559              	.LC0:
 1560 0b40 626C696E 		.ascii	"blinker\000"
 1560      6B657200 
 1561              		.align	2
 1562              	.LC1:
 1563 0b48 583A2025 		.ascii	"X: %d\012\015\000"
 1563      640A0D00 
 1564              		.align	2
 1565              	.LC2:
 1566 0b50 593A2025 		.ascii	"Y: %d\012\015\000"
 1566      640A0D00 
 1567              		.align	2
 1568              	.LC3:
 1569 0b58 5A3A2025 		.ascii	"Z: %d\012\015\000"
 1569      640A0D00 
 1570              		.text
 1571              		.align	2
 1572 0034 AFF30080 		.p2align 4,,15
 1572      AFF30080 
 1572      AFF30080 
 1573              		.thumb
 1574              		.thumb_func
 1575              		.type	counterThread, %function
 1576              	counterThread:
 1577              	.LFB267:
 1578              		.file 3 "main.c"
 1579              		.loc 3 69 0
 1580              		.cfi_startproc
 1581              		@ args = 0, pretend = 0, frame = 16
ARM GAS  /tmp/ccHDIHHf.s 			page 29


 1582              		@ frame_needed = 0, uses_anonymous_args = 0
 1583 0040 00B5     		push	{lr}
 1584              		.cfi_def_cfa_offset 4
 1585              		.cfi_offset 14, -4
 1586 0042 85B0     		sub	sp, sp, #20
 1587              		.cfi_def_cfa_offset 24
 1588 0044 0190     		str	r0, [sp, #4]
 1589              		.loc 3 72 0
 1590 0046 1448     		ldr	r0, .L9
 1591 0048 FFF7EAFF 		bl	chRegSetThreadName
 1592              	.L8:
 1593              		.loc 3 76 0
 1594 004c 0020     		movs	r0, #0
 1595 004e 1349     		ldr	r1, .L9+4
 1596 0050 FFF7FEFF 		bl	LSM303AGR_ACC_Get_Acceleration
 1597 0054 0346     		mov	r3, r0
 1598 0056 0393     		str	r3, [sp, #12]
 1599              		.loc 3 78 0
 1600 0058 00F06AF9 		bl	convert_axes
 1601              		.loc 3 82 0
 1602 005c 104B     		ldr	r3, .L9+8
 1603 005e 1B68     		ldr	r3, [r3]
 1604 0060 002B     		cmp	r3, #0
 1605 0062 14D0     		beq	.L7
 1606              		.loc 3 83 0
 1607 0064 0D4B     		ldr	r3, .L9+4
 1608 0066 1B68     		ldr	r3, [r3]
 1609 0068 0E48     		ldr	r0, .L9+12
 1610 006a 0F49     		ldr	r1, .L9+16
 1611 006c 1A46     		mov	r2, r3
 1612 006e FFF7FEFF 		bl	chprintf
 1613              		.loc 3 84 0
 1614 0072 0A4B     		ldr	r3, .L9+4
 1615 0074 5B68     		ldr	r3, [r3, #4]
 1616 0076 0B48     		ldr	r0, .L9+12
 1617 0078 0C49     		ldr	r1, .L9+20
 1618 007a 1A46     		mov	r2, r3
 1619 007c FFF7FEFF 		bl	chprintf
 1620              		.loc 3 85 0
 1621 0080 064B     		ldr	r3, .L9+4
 1622 0082 9B68     		ldr	r3, [r3, #8]
 1623 0084 0748     		ldr	r0, .L9+12
 1624 0086 0A49     		ldr	r1, .L9+24
 1625 0088 1A46     		mov	r2, r3
 1626 008a FFF7FEFF 		bl	chprintf
 1627              	.L7:
 1628              		.loc 3 88 0
 1629 008e 6420     		movs	r0, #100
 1630 0090 FFF7FEFF 		bl	chThdSleep
 1631              		.loc 3 90 0
 1632 0094 DAE7     		b	.L8
 1633              	.L10:
 1634 0096 00BF     		.align	2
 1635              	.L9:
 1636 0098 400B0000 		.word	.LC0
 1637 009c 00000000 		.word	a_data
 1638 00a0 00000000 		.word	read_state
ARM GAS  /tmp/ccHDIHHf.s 			page 30


 1639 00a4 00000000 		.word	SD5
 1640 00a8 480B0000 		.word	.LC1
 1641 00ac 500B0000 		.word	.LC2
 1642 00b0 580B0000 		.word	.LC3
 1643              		.cfi_endproc
 1644              	.LFE267:
 1645              		.size	counterThread, .-counterThread
 1646              		.bss
 1647              		.align	3
 1648              	timeStampThread:
 1649 0170 00000000 		.space	328
 1649      00000000 
 1649      00000000 
 1649      00000000 
 1649      00000000 
 1650              		.section	.rodata
 1651              		.align	2
 1652              	.LC4:
 1653 0b60 74696D65 		.ascii	"timer\000"
 1653      7200
 1654              		.text
 1655              		.align	2
 1656 00b4 AFF30080 		.p2align 4,,15
 1656      AFF30080 
 1656      AFF30080 
 1657              		.thumb
 1658              		.thumb_func
 1659              		.type	timeStamp, %function
 1660              	timeStamp:
 1661              	.LFB268:
 1662              		.loc 3 106 0
 1663              		.cfi_startproc
 1664              		@ args = 0, pretend = 0, frame = 8
 1665              		@ frame_needed = 0, uses_anonymous_args = 0
 1666 00c0 00B5     		push	{lr}
 1667              		.cfi_def_cfa_offset 4
 1668              		.cfi_offset 14, -4
 1669 00c2 83B0     		sub	sp, sp, #12
 1670              		.cfi_def_cfa_offset 16
 1671 00c4 0190     		str	r0, [sp, #4]
 1672              		.loc 3 109 0
 1673 00c6 0748     		ldr	r0, .L13
 1674 00c8 FFF7AAFF 		bl	chRegSetThreadName
 1675              	.L12:
 1676              		.loc 3 116 0 discriminator 1
 1677 00cc 064B     		ldr	r3, .L13+4
 1678 00ce 0022     		movs	r2, #0
 1679 00d0 1A60     		str	r2, [r3]
 1680              		.loc 3 117 0 discriminator 1
 1681 00d2 064B     		ldr	r3, .L13+8
 1682 00d4 0022     		movs	r2, #0
 1683 00d6 1A60     		str	r2, [r3]
 1684              		.loc 3 119 0 discriminator 1
 1685 00d8 4EF66020 		movw	r0, #60000
 1686 00dc FFF7FEFF 		bl	chThdSleep
 1687              		.loc 3 121 0 discriminator 1
 1688 00e0 F4E7     		b	.L12
ARM GAS  /tmp/ccHDIHHf.s 			page 31


 1689              	.L14:
 1690 00e2 00BF     		.align	2
 1691              	.L13:
 1692 00e4 600B0000 		.word	.LC4
 1693 00e8 00000000 		.word	trigger_count
 1694 00ec 00000000 		.word	people
 1695              		.cfi_endproc
 1696              	.LFE268:
 1697              		.size	timeStamp, .-timeStamp
 1698              		.bss
 1699              		.align	3
 1700              	throttleThread:
 1701 02b8 00000000 		.space	456
 1701      00000000 
 1701      00000000 
 1701      00000000 
 1701      00000000 
 1702              		.section	.rodata
 1703 0b66 0000     		.align	2
 1704              	.LC5:
 1705 0b68 7468726F 		.ascii	"throttle\000"
 1705      74746C65 
 1705      00
 1706              		.text
 1707              		.align	2
 1708              		.p2align 4,,15
 1709              		.thumb
 1710              		.thumb_func
 1711              		.type	throttleCount, %function
 1712              	throttleCount:
 1713              	.LFB269:
 1714              		.loc 3 135 0
 1715              		.cfi_startproc
 1716              		@ args = 0, pretend = 0, frame = 8
 1717              		@ frame_needed = 0, uses_anonymous_args = 0
 1718 00f0 00B5     		push	{lr}
 1719              		.cfi_def_cfa_offset 4
 1720              		.cfi_offset 14, -4
 1721 00f2 83B0     		sub	sp, sp, #12
 1722              		.cfi_def_cfa_offset 16
 1723 00f4 0190     		str	r0, [sp, #4]
 1724              		.loc 3 138 0
 1725 00f6 1448     		ldr	r0, .L19
 1726 00f8 FFF792FF 		bl	chRegSetThreadName
 1727              	.L18:
 1728              		.loc 3 142 0
 1729 00fc 134B     		ldr	r3, .L19+4
 1730 00fe 1A68     		ldr	r2, [r3]
 1731 0100 134B     		ldr	r3, .L19+8
 1732 0102 1B68     		ldr	r3, [r3]
 1733 0104 D31A     		subs	r3, r2, r3
 1734 0106 032B     		cmp	r3, #3
 1735 0108 13DD     		ble	.L16
 1736              		.loc 3 143 0
 1737 010a 104B     		ldr	r3, .L19+4
 1738 010c 1B68     		ldr	r3, [r3]
 1739 010e 114A     		ldr	r2, .L19+12
ARM GAS  /tmp/ccHDIHHf.s 			page 32


 1740 0110 82FB0312 		smull	r1, r2, r2, r3
 1741 0114 DB17     		asrs	r3, r3, #31
 1742 0116 D21A     		subs	r2, r2, r3
 1743 0118 0F4B     		ldr	r3, .L19+16
 1744 011a 1B68     		ldr	r3, [r3]
 1745 011c 1A44     		add	r2, r2, r3
 1746 011e 0E4B     		ldr	r3, .L19+16
 1747 0120 1A60     		str	r2, [r3]
 1748              		.loc 3 144 0
 1749 0122 0B4B     		ldr	r3, .L19+8
 1750 0124 0022     		movs	r2, #0
 1751 0126 1A60     		str	r2, [r3]
 1752 0128 094B     		ldr	r3, .L19+8
 1753 012a 1A68     		ldr	r2, [r3]
 1754 012c 074B     		ldr	r3, .L19+4
 1755 012e 1A60     		str	r2, [r3]
 1756 0130 04E0     		b	.L17
 1757              	.L16:
 1758              		.loc 3 146 0
 1759 0132 094B     		ldr	r3, .L19+16
 1760 0134 1B68     		ldr	r3, [r3]
 1761 0136 5A1C     		adds	r2, r3, #1
 1762 0138 074B     		ldr	r3, .L19+16
 1763 013a 1A60     		str	r2, [r3]
 1764              	.L17:
 1765              		.loc 3 148 0
 1766 013c 40F6B830 		movw	r0, #3000
 1767 0140 FFF7FEFF 		bl	chThdSleep
 1768              		.loc 3 150 0
 1769 0144 DAE7     		b	.L18
 1770              	.L20:
 1771 0146 00BF     		.align	2
 1772              	.L19:
 1773 0148 680B0000 		.word	.LC5
 1774 014c 00000000 		.word	trigger_count
 1775 0150 00000000 		.word	check_count
 1776 0154 56555555 		.word	1431655766
 1777 0158 00000000 		.word	people
 1778              		.cfi_endproc
 1779              	.LFE269:
 1780              		.size	throttleCount, .-throttleCount
 1781              		.bss
 1782              		.align	3
 1783              	accelCounterThread:
 1784 0480 00000000 		.space	456
 1784      00000000 
 1784      00000000 
 1784      00000000 
 1784      00000000 
 1785              		.section	.rodata
 1786 0b71 000000   		.align	2
 1787              	.LC6:
 1788 0b74 636F756E 		.ascii	"counter\000"
 1788      74657200 
 1789              		.align	2
 1790              	.LC7:
 1791 0b7c 496E2068 		.ascii	"In here\012\015\000"
ARM GAS  /tmp/ccHDIHHf.s 			page 33


 1791      6572650A 
 1791      0D00
 1792 0b86 0000     		.align	2
 1793              	.LC8:
 1794 0b88 496E6372 		.ascii	"Incremented: %d\012\015\000"
 1794      656D656E 
 1794      7465643A 
 1794      2025640A 
 1794      0D00
 1795              		.text
 1796              		.align	2
 1797 015c AFF30080 		.p2align 4,,15
 1798              		.thumb
 1799              		.thumb_func
 1800              		.type	theCounterThread, %function
 1801              	theCounterThread:
 1802              	.LFB270:
 1803              		.loc 3 156 0
 1804              		.cfi_startproc
 1805              		@ args = 0, pretend = 0, frame = 32
 1806              		@ frame_needed = 0, uses_anonymous_args = 0
 1807 0160 00B5     		push	{lr}
 1808              		.cfi_def_cfa_offset 4
 1809              		.cfi_offset 14, -4
 1810 0162 89B0     		sub	sp, sp, #36
 1811              		.cfi_def_cfa_offset 40
 1812 0164 0190     		str	r0, [sp, #4]
 1813              		.loc 3 159 0
 1814 0166 6948     		ldr	r0, .L38
 1815 0168 FFF75AFF 		bl	chRegSetThreadName
 1816              		.loc 3 162 0
 1817 016c 0023     		movs	r3, #0
 1818 016e 0793     		str	r3, [sp, #28]
 1819              		.loc 3 163 0
 1820 0170 0023     		movs	r3, #0
 1821 0172 0693     		str	r3, [sp, #24]
 1822              		.loc 3 164 0
 1823 0174 0023     		movs	r3, #0
 1824 0176 0593     		str	r3, [sp, #20]
 1825              		.loc 3 165 0
 1826 0178 0023     		movs	r3, #0
 1827 017a 0493     		str	r3, [sp, #16]
 1828              	.L37:
 1829              		.loc 3 179 0
 1830 017c 644B     		ldr	r3, .L38+4
 1831 017e 9A68     		ldr	r2, [r3, #8]
 1832 0180 059B     		ldr	r3, [sp, #20]
 1833 0182 D31A     		subs	r3, r2, r3
 1834 0184 002B     		cmp	r3, #0
 1835 0186 06DA     		bge	.L22
 1836              		.loc 3 179 0 is_stmt 0 discriminator 1
 1837 0188 614B     		ldr	r3, .L38+4
 1838 018a 9A68     		ldr	r2, [r3, #8]
 1839 018c 059B     		ldr	r3, [sp, #20]
 1840 018e D31A     		subs	r3, r2, r3
 1841 0190 059A     		ldr	r2, [sp, #20]
 1842 0192 1344     		add	r3, r3, r2
ARM GAS  /tmp/ccHDIHHf.s 			page 34


 1843 0194 0593     		str	r3, [sp, #20]
 1844              	.L22:
 1845              		.loc 3 180 0 is_stmt 1
 1846 0196 5E4B     		ldr	r3, .L38+4
 1847 0198 5A68     		ldr	r2, [r3, #4]
 1848 019a 069B     		ldr	r3, [sp, #24]
 1849 019c D31A     		subs	r3, r2, r3
 1850 019e 002B     		cmp	r3, #0
 1851 01a0 06DA     		bge	.L23
 1852              		.loc 3 180 0 is_stmt 0 discriminator 1
 1853 01a2 5B4B     		ldr	r3, .L38+4
 1854 01a4 5A68     		ldr	r2, [r3, #4]
 1855 01a6 069B     		ldr	r3, [sp, #24]
 1856 01a8 D31A     		subs	r3, r2, r3
 1857 01aa 069A     		ldr	r2, [sp, #24]
 1858 01ac 1344     		add	r3, r3, r2
 1859 01ae 0693     		str	r3, [sp, #24]
 1860              	.L23:
 1861              		.loc 3 181 0 is_stmt 1
 1862 01b0 574B     		ldr	r3, .L38+4
 1863 01b2 1A68     		ldr	r2, [r3]
 1864 01b4 079B     		ldr	r3, [sp, #28]
 1865 01b6 D31A     		subs	r3, r2, r3
 1866 01b8 002B     		cmp	r3, #0
 1867 01ba 06DA     		bge	.L24
 1868              		.loc 3 181 0 is_stmt 0 discriminator 1
 1869 01bc 544B     		ldr	r3, .L38+4
 1870 01be 1A68     		ldr	r2, [r3]
 1871 01c0 079B     		ldr	r3, [sp, #28]
 1872 01c2 D31A     		subs	r3, r2, r3
 1873 01c4 079A     		ldr	r2, [sp, #28]
 1874 01c6 1344     		add	r3, r3, r2
 1875 01c8 0793     		str	r3, [sp, #28]
 1876              	.L24:
 1877              		.loc 3 184 0 is_stmt 1
 1878 01ca 514B     		ldr	r3, .L38+4
 1879 01cc 9A68     		ldr	r2, [r3, #8]
 1880 01ce 059B     		ldr	r3, [sp, #20]
 1881 01d0 D31A     		subs	r3, r2, r3
 1882 01d2 002B     		cmp	r3, #0
 1883 01d4 B8BF     		it	lt
 1884 01d6 5B42     		rsblt	r3, r3, #0
 1885 01d8 B3F5967F 		cmp	r3, #300
 1886 01dc 05DD     		ble	.L25
 1887              		.loc 3 184 0 is_stmt 0 discriminator 1
 1888 01de 9DF80F30 		ldrb	r3, [sp, #15]
 1889 01e2 43F00403 		orr	r3, r3, #4
 1890 01e6 8DF80F30 		strb	r3, [sp, #15]
 1891              	.L25:
 1892              		.loc 3 185 0 is_stmt 1
 1893 01ea 494B     		ldr	r3, .L38+4
 1894 01ec 1A68     		ldr	r2, [r3]
 1895 01ee 079B     		ldr	r3, [sp, #28]
 1896 01f0 D31A     		subs	r3, r2, r3
 1897 01f2 002B     		cmp	r3, #0
 1898 01f4 B8BF     		it	lt
 1899 01f6 5B42     		rsblt	r3, r3, #0
ARM GAS  /tmp/ccHDIHHf.s 			page 35


 1900 01f8 B3F5967F 		cmp	r3, #300
 1901 01fc 05DD     		ble	.L26
 1902              		.loc 3 185 0 is_stmt 0 discriminator 1
 1903 01fe 9DF80F30 		ldrb	r3, [sp, #15]
 1904 0202 43F00103 		orr	r3, r3, #1
 1905 0206 8DF80F30 		strb	r3, [sp, #15]
 1906              	.L26:
 1907              		.loc 3 186 0 is_stmt 1
 1908 020a 414B     		ldr	r3, .L38+4
 1909 020c 5A68     		ldr	r2, [r3, #4]
 1910 020e 069B     		ldr	r3, [sp, #24]
 1911 0210 D31A     		subs	r3, r2, r3
 1912 0212 002B     		cmp	r3, #0
 1913 0214 B8BF     		it	lt
 1914 0216 5B42     		rsblt	r3, r3, #0
 1915 0218 B3F5967F 		cmp	r3, #300
 1916 021c 05DD     		ble	.L27
 1917              		.loc 3 186 0 is_stmt 0 discriminator 1
 1918 021e 9DF80F30 		ldrb	r3, [sp, #15]
 1919 0222 43F00203 		orr	r3, r3, #2
 1920 0226 8DF80F30 		strb	r3, [sp, #15]
 1921              	.L27:
 1922              		.loc 3 194 0 is_stmt 1
 1923 022a 9DF80F30 		ldrb	r3, [sp, #15]
 1924 022e 8DF80E30 		strb	r3, [sp, #14]
 1925              		.loc 3 198 0
 1926 0232 9DF80F30 		ldrb	r3, [sp, #15]	@ zero_extendqisi2
 1927 0236 002B     		cmp	r3, #0
 1928 0238 63D0     		beq	.L28
 1929              		.loc 3 202 0
 1930 023a 0023     		movs	r3, #0
 1931 023c 0493     		str	r3, [sp, #16]
 1932              	.L36:
 1933              		.loc 3 205 0
 1934 023e 3548     		ldr	r0, .L38+8
 1935 0240 3549     		ldr	r1, .L38+12
 1936 0242 FFF7FEFF 		bl	chprintf
 1937              		.loc 3 207 0
 1938 0246 0023     		movs	r3, #0
 1939 0248 8DF80F30 		strb	r3, [sp, #15]
 1940              		.loc 3 208 0
 1941 024c 0020     		movs	r0, #0
 1942 024e 3049     		ldr	r1, .L38+4
 1943 0250 FFF7FEFF 		bl	LSM303AGR_ACC_Get_Acceleration
 1944 0254 0346     		mov	r3, r0
 1945 0256 0293     		str	r3, [sp, #8]
 1946              		.loc 3 210 0
 1947 0258 00F06AF8 		bl	convert_axes
 1948              		.loc 3 214 0
 1949 025c 2C4B     		ldr	r3, .L38+4
 1950 025e 9A68     		ldr	r2, [r3, #8]
 1951 0260 059B     		ldr	r3, [sp, #20]
 1952 0262 D31A     		subs	r3, r2, r3
 1953 0264 B3F5967F 		cmp	r3, #300
 1954 0268 05DD     		ble	.L29
 1955              		.loc 3 214 0 is_stmt 0 discriminator 1
 1956 026a 9DF80F30 		ldrb	r3, [sp, #15]
ARM GAS  /tmp/ccHDIHHf.s 			page 36


 1957 026e 43F00403 		orr	r3, r3, #4
 1958 0272 8DF80F30 		strb	r3, [sp, #15]
 1959              	.L29:
 1960              		.loc 3 215 0 is_stmt 1
 1961 0276 264B     		ldr	r3, .L38+4
 1962 0278 5A68     		ldr	r2, [r3, #4]
 1963 027a 069B     		ldr	r3, [sp, #24]
 1964 027c D31A     		subs	r3, r2, r3
 1965 027e B3F5967F 		cmp	r3, #300
 1966 0282 05DD     		ble	.L30
 1967              		.loc 3 215 0 is_stmt 0 discriminator 1
 1968 0284 9DF80F30 		ldrb	r3, [sp, #15]
 1969 0288 43F00203 		orr	r3, r3, #2
 1970 028c 8DF80F30 		strb	r3, [sp, #15]
 1971              	.L30:
 1972              		.loc 3 216 0 is_stmt 1
 1973 0290 1F4B     		ldr	r3, .L38+4
 1974 0292 1A68     		ldr	r2, [r3]
 1975 0294 079B     		ldr	r3, [sp, #28]
 1976 0296 D31A     		subs	r3, r2, r3
 1977 0298 B3F5967F 		cmp	r3, #300
 1978 029c 05DD     		ble	.L31
 1979              		.loc 3 216 0 is_stmt 0 discriminator 1
 1980 029e 9DF80F30 		ldrb	r3, [sp, #15]
 1981 02a2 43F00103 		orr	r3, r3, #1
 1982 02a6 8DF80F30 		strb	r3, [sp, #15]
 1983              	.L31:
 1984              		.loc 3 219 0 is_stmt 1
 1985 02aa 9DF80F30 		ldrb	r3, [sp, #15]
 1986 02ae 8DF80E30 		strb	r3, [sp, #14]
 1987              		.loc 3 221 0
 1988 02b2 9DF80E30 		ldrb	r3, [sp, #14]	@ zero_extendqisi2
 1989 02b6 002B     		cmp	r3, #0
 1990 02b8 0ED0     		beq	.L32
 1991              		.loc 3 222 0
 1992 02ba 049B     		ldr	r3, [sp, #16]
 1993 02bc 642B     		cmp	r3, #100
 1994 02be 19D1     		bne	.L34
 1995              		.loc 3 227 0
 1996 02c0 134B     		ldr	r3, .L38+4
 1997 02c2 9B68     		ldr	r3, [r3, #8]
 1998 02c4 0593     		str	r3, [sp, #20]
 1999              		.loc 3 228 0
 2000 02c6 124B     		ldr	r3, .L38+4
 2001 02c8 5B68     		ldr	r3, [r3, #4]
 2002 02ca 0693     		str	r3, [sp, #24]
 2003              		.loc 3 229 0
 2004 02cc 104B     		ldr	r3, .L38+4
 2005 02ce 1B68     		ldr	r3, [r3]
 2006 02d0 0793     		str	r3, [sp, #28]
 2007              		.loc 3 230 0
 2008 02d2 0023     		movs	r3, #0
 2009 02d4 0493     		str	r3, [sp, #16]
 2010 02d6 0DE0     		b	.L34
 2011              	.L32:
 2012              		.loc 3 233 0
 2013 02d8 104B     		ldr	r3, .L38+16
ARM GAS  /tmp/ccHDIHHf.s 			page 37


 2014 02da 1B68     		ldr	r3, [r3]
 2015 02dc 5A1C     		adds	r2, r3, #1
 2016 02de 0F4B     		ldr	r3, .L38+16
 2017 02e0 1A60     		str	r2, [r3]
 2018              		.loc 3 234 0
 2019 02e2 00BF     		nop
 2020              		.loc 3 239 0
 2021 02e4 0D4B     		ldr	r3, .L38+16
 2022 02e6 1B68     		ldr	r3, [r3]
 2023 02e8 0A48     		ldr	r0, .L38+8
 2024 02ea 0D49     		ldr	r1, .L38+20
 2025 02ec 1A46     		mov	r2, r3
 2026 02ee FFF7FEFF 		bl	chprintf
 2027 02f2 06E0     		b	.L28
 2028              	.L34:
 2029              		.loc 3 236 0
 2030 02f4 049B     		ldr	r3, [sp, #16]
 2031 02f6 0133     		adds	r3, r3, #1
 2032 02f8 0493     		str	r3, [sp, #16]
 2033              		.loc 3 237 0
 2034 02fa 0120     		movs	r0, #1
 2035 02fc FFF7FEFF 		bl	chThdSleep
 2036              		.loc 3 238 0
 2037 0300 9DE7     		b	.L36
 2038              	.L28:
 2039              		.loc 3 241 0
 2040 0302 6420     		movs	r0, #100
 2041 0304 FFF7FEFF 		bl	chThdSleep
 2042              		.loc 3 243 0
 2043 0308 38E7     		b	.L37
 2044              	.L39:
 2045 030a 00BF     		.align	2
 2046              	.L38:
 2047 030c 740B0000 		.word	.LC6
 2048 0310 00000000 		.word	a_data
 2049 0314 00000000 		.word	SD5
 2050 0318 7C0B0000 		.word	.LC7
 2051 031c 00000000 		.word	trigger_count
 2052 0320 880B0000 		.word	.LC8
 2053              		.cfi_endproc
 2054              	.LFE270:
 2055              		.size	theCounterThread, .-theCounterThread
 2056              		.align	2
 2057 0324 AFF30080 		.p2align 4,,15
 2057      AFF30080 
 2057      AFF30080 
 2058              		.thumb
 2059              		.thumb_func
 2060              		.type	convert_axes, %function
 2061              	convert_axes:
 2062              	.LFB271:
 2063              		.loc 3 248 0
 2064              		.cfi_startproc
 2065              		@ args = 0, pretend = 0, frame = 0
 2066              		@ frame_needed = 0, uses_anonymous_args = 0
 2067              		@ link register save eliminated.
 2068              		.loc 3 250 0
ARM GAS  /tmp/ccHDIHHf.s 			page 38


 2069 0330 074B     		ldr	r3, .L41
 2070 0332 9B68     		ldr	r3, [r3, #8]
 2071 0334 A3F57A72 		sub	r2, r3, #1000
 2072 0338 054B     		ldr	r3, .L41
 2073 033a 9A60     		str	r2, [r3, #8]
 2074              		.loc 3 251 0
 2075 033c 044B     		ldr	r3, .L41
 2076 033e 9B68     		ldr	r3, [r3, #8]
 2077 0340 83EAE372 		eor	r2, r3, r3, asr #31
 2078 0344 A2EBE372 		sub	r2, r2, r3, asr #31
 2079 0348 014B     		ldr	r3, .L41
 2080 034a 9A60     		str	r2, [r3, #8]
 2081              		.loc 3 253 0
 2082 034c 7047     		bx	lr
 2083              	.L42:
 2084 034e 00BF     		.align	2
 2085              	.L41:
 2086 0350 00000000 		.word	a_data
 2087              		.cfi_endproc
 2088              	.LFE271:
 2089              		.size	convert_axes, .-convert_axes
 2090              		.section	.rodata
 2091 0b9a 0000     		.align	2
 2092              	.LC9:
 2093 0b9c 25730A0D 		.ascii	"%s\012\015\000"
 2093      00
 2094              		.text
 2095              		.align	2
 2096 0354 AFF30080 		.p2align 4,,15
 2096      AFF30080 
 2096      AFF30080 
 2097              		.thumb
 2098              		.thumb_func
 2099              		.type	cmd_myecho, %function
 2100              	cmd_myecho:
 2101              	.LFB272:
 2102              		.loc 3 255 0
 2103              		.cfi_startproc
 2104              		@ args = 0, pretend = 0, frame = 24
 2105              		@ frame_needed = 0, uses_anonymous_args = 0
 2106 0360 00B5     		push	{lr}
 2107              		.cfi_def_cfa_offset 4
 2108              		.cfi_offset 14, -4
 2109 0362 87B0     		sub	sp, sp, #28
 2110              		.cfi_def_cfa_offset 32
 2111 0364 0390     		str	r0, [sp, #12]
 2112 0366 0291     		str	r1, [sp, #8]
 2113 0368 0192     		str	r2, [sp, #4]
 2114              		.loc 3 261 0
 2115 036a 0023     		movs	r3, #0
 2116 036c 0593     		str	r3, [sp, #20]
 2117 036e 0CE0     		b	.L44
 2118              	.L45:
 2119              		.loc 3 262 0 discriminator 2
 2120 0370 059B     		ldr	r3, [sp, #20]
 2121 0372 9B00     		lsls	r3, r3, #2
 2122 0374 019A     		ldr	r2, [sp, #4]
ARM GAS  /tmp/ccHDIHHf.s 			page 39


 2123 0376 1344     		add	r3, r3, r2
 2124 0378 1B68     		ldr	r3, [r3]
 2125 037a 0398     		ldr	r0, [sp, #12]
 2126 037c 0649     		ldr	r1, .L46
 2127 037e 1A46     		mov	r2, r3
 2128 0380 FFF7FEFF 		bl	chprintf
 2129              		.loc 3 261 0 discriminator 2
 2130 0384 059B     		ldr	r3, [sp, #20]
 2131 0386 0133     		adds	r3, r3, #1
 2132 0388 0593     		str	r3, [sp, #20]
 2133              	.L44:
 2134              		.loc 3 261 0 is_stmt 0 discriminator 1
 2135 038a 059A     		ldr	r2, [sp, #20]
 2136 038c 029B     		ldr	r3, [sp, #8]
 2137 038e 9A42     		cmp	r2, r3
 2138 0390 EEDB     		blt	.L45
 2139              		.loc 3 264 0 is_stmt 1
 2140 0392 07B0     		add	sp, sp, #28
 2141              		@ sp needed
 2142 0394 5DF804FB 		ldr	pc, [sp], #4
 2143              	.L47:
 2144              		.align	2
 2145              	.L46:
 2146 0398 9C0B0000 		.word	.LC9
 2147              		.cfi_endproc
 2148              	.LFE272:
 2149              		.size	cmd_myecho, .-cmd_myecho
 2150              		.align	2
 2151 039c AFF30080 		.p2align 4,,15
 2152              		.thumb
 2153              		.thumb_func
 2154              		.type	cmd_accel_test, %function
 2155              	cmd_accel_test:
 2156              	.LFB273:
 2157              		.loc 3 268 0
 2158              		.cfi_startproc
 2159              		@ args = 0, pretend = 0, frame = 16
 2160              		@ frame_needed = 0, uses_anonymous_args = 0
 2161              		@ link register save eliminated.
 2162 03a0 84B0     		sub	sp, sp, #16
 2163              		.cfi_def_cfa_offset 16
 2164 03a2 0390     		str	r0, [sp, #12]
 2165 03a4 0291     		str	r1, [sp, #8]
 2166 03a6 0192     		str	r2, [sp, #4]
 2167              		.loc 3 273 0
 2168 03a8 054B     		ldr	r3, .L49
 2169 03aa 1B68     		ldr	r3, [r3]
 2170 03ac 002B     		cmp	r3, #0
 2171 03ae 14BF     		ite	ne
 2172 03b0 0023     		movne	r3, #0
 2173 03b2 0123     		moveq	r3, #1
 2174 03b4 DBB2     		uxtb	r3, r3
 2175 03b6 1A46     		mov	r2, r3
 2176 03b8 014B     		ldr	r3, .L49
 2177 03ba 1A60     		str	r2, [r3]
 2178              		.loc 3 275 0
 2179 03bc 04B0     		add	sp, sp, #16
ARM GAS  /tmp/ccHDIHHf.s 			page 40


 2180              		@ sp needed
 2181 03be 7047     		bx	lr
 2182              	.L50:
 2183              		.align	2
 2184              	.L49:
 2185 03c0 00000000 		.word	read_state
 2186              		.cfi_endproc
 2187              	.LFE273:
 2188              		.size	cmd_accel_test, .-cmd_accel_test
 2189              		.section	.rodata
 2190 0ba1 000000   		.align	2
 2191              	.LC10:
 2192 0ba4 31206D69 		.ascii	"1 minute has yet to pass.\012\015\000"
 2192      6E757465 
 2192      20686173 
 2192      20796574 
 2192      20746F20 
 2193              		.align	2
 2194              	.LC11:
 2195 0bc0 4D696E75 		.ascii	"Minute: %d | Count: %d\012\015\000"
 2195      74653A20 
 2195      2564207C 
 2195      20436F75 
 2195      6E743A20 
 2196              		.text
 2197              		.align	2
 2198 03c4 AFF30080 		.p2align 4,,15
 2198      AFF30080 
 2198      AFF30080 
 2199              		.thumb
 2200              		.thumb_func
 2201              		.type	cmd_display_counts, %function
 2202              	cmd_display_counts:
 2203              	.LFB274:
 2204              		.loc 3 279 0
 2205              		.cfi_startproc
 2206              		@ args = 0, pretend = 0, frame = 24
 2207              		@ frame_needed = 0, uses_anonymous_args = 0
 2208 03d0 00B5     		push	{lr}
 2209              		.cfi_def_cfa_offset 4
 2210              		.cfi_offset 14, -4
 2211 03d2 87B0     		sub	sp, sp, #28
 2212              		.cfi_def_cfa_offset 32
 2213 03d4 0390     		str	r0, [sp, #12]
 2214 03d6 0291     		str	r1, [sp, #8]
 2215 03d8 0192     		str	r2, [sp, #4]
 2216              		.loc 3 287 0
 2217 03da 114B     		ldr	r3, .L56
 2218 03dc 1B68     		ldr	r3, [r3]
 2219 03de 002B     		cmp	r3, #0
 2220 03e0 04D1     		bne	.L52
 2221              		.loc 3 287 0 is_stmt 0 discriminator 1
 2222 03e2 0398     		ldr	r0, [sp, #12]
 2223 03e4 0F49     		ldr	r1, .L56+4
 2224 03e6 FFF7FEFF 		bl	chprintf
 2225 03ea 15E0     		b	.L51
 2226              	.L52:
ARM GAS  /tmp/ccHDIHHf.s 			page 41


 2227              		.loc 3 289 0 is_stmt 1
 2228 03ec 0023     		movs	r3, #0
 2229 03ee 0593     		str	r3, [sp, #20]
 2230 03f0 0DE0     		b	.L54
 2231              	.L55:
 2232              		.loc 3 290 0 discriminator 2
 2233 03f2 059B     		ldr	r3, [sp, #20]
 2234 03f4 5A1C     		adds	r2, r3, #1
 2235 03f6 0C4B     		ldr	r3, .L56+8
 2236 03f8 0599     		ldr	r1, [sp, #20]
 2237 03fa 33F81130 		ldrh	r3, [r3, r1, lsl #1]	@ movhi
 2238 03fe 9BB2     		uxth	r3, r3
 2239 0400 0398     		ldr	r0, [sp, #12]
 2240 0402 0A49     		ldr	r1, .L56+12
 2241 0404 FFF7FEFF 		bl	chprintf
 2242              		.loc 3 289 0 discriminator 2
 2243 0408 059B     		ldr	r3, [sp, #20]
 2244 040a 0133     		adds	r3, r3, #1
 2245 040c 0593     		str	r3, [sp, #20]
 2246              	.L54:
 2247              		.loc 3 289 0 is_stmt 0 discriminator 1
 2248 040e 044B     		ldr	r3, .L56
 2249 0410 1B68     		ldr	r3, [r3]
 2250 0412 059A     		ldr	r2, [sp, #20]
 2251 0414 9A42     		cmp	r2, r3
 2252 0416 ECDB     		blt	.L55
 2253              	.L51:
 2254              		.loc 3 295 0 is_stmt 1
 2255 0418 07B0     		add	sp, sp, #28
 2256              		@ sp needed
 2257 041a 5DF804FB 		ldr	pc, [sp], #4
 2258              	.L57:
 2259 041e 00BF     		.align	2
 2260              	.L56:
 2261 0420 00000000 		.word	timer_index
 2262 0424 A40B0000 		.word	.LC10
 2263 0428 00000000 		.word	time_stamp
 2264 042c C00B0000 		.word	.LC11
 2265              		.cfi_endproc
 2266              	.LFE274:
 2267              		.size	cmd_display_counts, .-cmd_display_counts
 2268              		.align	2
 2269              		.p2align 4,,15
 2270              		.thumb
 2271              		.thumb_func
 2272              		.type	parse_args, %function
 2273              	parse_args:
 2274              	.LFB275:
 2275              		.loc 3 299 0
 2276              		.cfi_startproc
 2277              		@ args = 0, pretend = 0, frame = 24
 2278              		@ frame_needed = 0, uses_anonymous_args = 0
 2279 0430 00B5     		push	{lr}
 2280              		.cfi_def_cfa_offset 4
 2281              		.cfi_offset 14, -4
 2282 0432 87B0     		sub	sp, sp, #28
 2283              		.cfi_def_cfa_offset 32
ARM GAS  /tmp/ccHDIHHf.s 			page 42


 2284 0434 0390     		str	r0, [sp, #12]
 2285 0436 0291     		str	r1, [sp, #8]
 2286 0438 0192     		str	r2, [sp, #4]
 2287              		.loc 3 306 0
 2288 043a 0023     		movs	r3, #0
 2289 043c 0493     		str	r3, [sp, #16]
 2290 043e 23E0     		b	.L59
 2291              	.L62:
 2292              		.loc 3 307 0
 2293 0440 0023     		movs	r3, #0
 2294 0442 0593     		str	r3, [sp, #20]
 2295 0444 10E0     		b	.L60
 2296              	.L61:
 2297              		.loc 3 309 0 discriminator 2
 2298 0446 049A     		ldr	r2, [sp, #16]
 2299 0448 059B     		ldr	r3, [sp, #20]
 2300 044a 1344     		add	r3, r3, r2
 2301 044c 019A     		ldr	r2, [sp, #4]
 2302 044e 1344     		add	r3, r3, r2
 2303 0450 049A     		ldr	r2, [sp, #16]
 2304 0452 9200     		lsls	r2, r2, #2
 2305 0454 0299     		ldr	r1, [sp, #8]
 2306 0456 0A44     		add	r2, r2, r1
 2307 0458 1168     		ldr	r1, [r2]
 2308 045a 059A     		ldr	r2, [sp, #20]
 2309 045c 0A44     		add	r2, r2, r1
 2310 045e 1278     		ldrb	r2, [r2]	@ zero_extendqisi2
 2311 0460 1A70     		strb	r2, [r3]
 2312              		.loc 3 307 0 discriminator 2
 2313 0462 059B     		ldr	r3, [sp, #20]
 2314 0464 0133     		adds	r3, r3, #1
 2315 0466 0593     		str	r3, [sp, #20]
 2316              	.L60:
 2317              		.loc 3 307 0 is_stmt 0 discriminator 1
 2318 0468 049B     		ldr	r3, [sp, #16]
 2319 046a 9B00     		lsls	r3, r3, #2
 2320 046c 029A     		ldr	r2, [sp, #8]
 2321 046e 1344     		add	r3, r3, r2
 2322 0470 1B68     		ldr	r3, [r3]
 2323 0472 1846     		mov	r0, r3
 2324 0474 FFF7FEFF 		bl	strlen
 2325 0478 0346     		mov	r3, r0
 2326 047a 1A46     		mov	r2, r3
 2327 047c 059B     		ldr	r3, [sp, #20]
 2328 047e 9A42     		cmp	r2, r3
 2329 0480 E1DC     		bgt	.L61
 2330              		.loc 3 306 0 is_stmt 1
 2331 0482 049B     		ldr	r3, [sp, #16]
 2332 0484 0133     		adds	r3, r3, #1
 2333 0486 0493     		str	r3, [sp, #16]
 2334              	.L59:
 2335              		.loc 3 306 0 is_stmt 0 discriminator 1
 2336 0488 049A     		ldr	r2, [sp, #16]
 2337 048a 039B     		ldr	r3, [sp, #12]
 2338 048c 9A42     		cmp	r2, r3
 2339 048e D7DB     		blt	.L62
 2340              		.loc 3 312 0 is_stmt 1
ARM GAS  /tmp/ccHDIHHf.s 			page 43


 2341 0490 07B0     		add	sp, sp, #28
 2342              		@ sp needed
 2343 0492 5DF804FB 		ldr	pc, [sp], #4
 2344              		.cfi_endproc
 2345              	.LFE275:
 2346              		.size	parse_args, .-parse_args
 2347              		.section	.rodata
 2348 0bd9 000000   		.align	2
 2349              	.LC12:
 2350 0bdc 256300   		.ascii	"%c\000"
 2351 0bdf 00       		.align	2
 2352              	.LC13:
 2353 0be0 0A0D00   		.ascii	"\012\015\000"
 2354 0be3 00       		.align	2
 2355              	.LC14:
 2356 0be4 79656172 		.ascii	"year: %u \000"
 2356      3A202575 
 2356      2000
 2357 0bee 0000     		.align	2
 2358              	.LC15:
 2359 0bf0 6D6F6E3A 		.ascii	"mon: %u \000"
 2359      20257520 
 2359      00
 2360 0bf9 000000   		.align	2
 2361              	.LC16:
 2362 0bfc 6461793A 		.ascii	"day: %u \000"
 2362      20257520 
 2362      00
 2363 0c05 000000   		.align	2
 2364              	.LC17:
 2365 0c08 646F773A 		.ascii	"dow: %u \000"
 2365      20257520 
 2365      00
 2366 0c11 000000   		.align	2
 2367              	.LC18:
 2368 0c14 6D733A20 		.ascii	"ms: %u\012\015\000"
 2368      25750A0D 
 2368      00
 2369              		.text
 2370 0496 00BF     		.align	2
 2371 0498 AFF30080 		.p2align 4,,15
 2371      AFF30080 
 2372              		.thumb
 2373              		.thumb_func
 2374              		.type	cmd_set_time, %function
 2375              	cmd_set_time:
 2376              	.LFB276:
 2377              		.loc 3 316 0
 2378              		.cfi_startproc
 2379              		@ args = 0, pretend = 0, frame = 64
 2380              		@ frame_needed = 0, uses_anonymous_args = 0
 2381 04a0 00B5     		push	{lr}
 2382              		.cfi_def_cfa_offset 4
 2383              		.cfi_offset 14, -4
 2384 04a2 91B0     		sub	sp, sp, #68
 2385              		.cfi_def_cfa_offset 72
 2386 04a4 0390     		str	r0, [sp, #12]
ARM GAS  /tmp/ccHDIHHf.s 			page 44


 2387 04a6 0291     		str	r1, [sp, #8]
 2388 04a8 0192     		str	r2, [sp, #4]
 2389              		.loc 3 322 0
 2390 04aa 06AB     		add	r3, sp, #24
 2391 04ac 0298     		ldr	r0, [sp, #8]
 2392 04ae 0199     		ldr	r1, [sp, #4]
 2393 04b0 1A46     		mov	r2, r3
 2394 04b2 FFF7BDFF 		bl	parse_args
 2395              		.loc 3 325 0
 2396 04b6 0023     		movs	r3, #0
 2397 04b8 0F93     		str	r3, [sp, #60]
 2398 04ba 0BE0     		b	.L64
 2399              	.L65:
 2400              		.loc 3 326 0 discriminator 2
 2401 04bc 06AA     		add	r2, sp, #24
 2402 04be 0F9B     		ldr	r3, [sp, #60]
 2403 04c0 1344     		add	r3, r3, r2
 2404 04c2 1B78     		ldrb	r3, [r3]	@ zero_extendqisi2
 2405 04c4 0398     		ldr	r0, [sp, #12]
 2406 04c6 5349     		ldr	r1, .L66
 2407 04c8 1A46     		mov	r2, r3
 2408 04ca FFF7FEFF 		bl	chprintf
 2409              		.loc 3 325 0 discriminator 2
 2410 04ce 0F9B     		ldr	r3, [sp, #60]
 2411 04d0 0133     		adds	r3, r3, #1
 2412 04d2 0F93     		str	r3, [sp, #60]
 2413              	.L64:
 2414              		.loc 3 325 0 is_stmt 0 discriminator 1
 2415 04d4 0F9B     		ldr	r3, [sp, #60]
 2416 04d6 232B     		cmp	r3, #35
 2417 04d8 F0DD     		ble	.L65
 2418              		.loc 3 329 0 is_stmt 1
 2419 04da 0398     		ldr	r0, [sp, #12]
 2420 04dc 4E49     		ldr	r1, .L66+4
 2421 04de FFF7FEFF 		bl	chprintf
 2422              		.loc 3 332 0
 2423 04e2 2F23     		movs	r3, #47
 2424 04e4 ADF81430 		strh	r3, [sp, #20]	@ movhi
 2425              		.loc 3 337 0
 2426 04e8 06AA     		add	r2, sp, #24
 2427 04ea 05AB     		add	r3, sp, #20
 2428 04ec 1046     		mov	r0, r2
 2429 04ee 1946     		mov	r1, r3
 2430 04f0 FFF7FEFF 		bl	strtok
 2431 04f4 0346     		mov	r3, r0
 2432 04f6 1846     		mov	r0, r3
 2433 04f8 FFF7FEFF 		bl	atoi
 2434 04fc 0346     		mov	r3, r0
 2435 04fe D9B2     		uxtb	r1, r3
 2436 0500 464A     		ldr	r2, .L66+8
 2437 0502 1378     		ldrb	r3, [r2]
 2438 0504 61F30703 		bfi	r3, r1, #0, #8
 2439 0508 1370     		strb	r3, [r2]
 2440              		.loc 3 338 0
 2441 050a 444B     		ldr	r3, .L66+8
 2442 050c 1B78     		ldrb	r3, [r3]	@ zero_extendqisi2
 2443 050e 0398     		ldr	r0, [sp, #12]
ARM GAS  /tmp/ccHDIHHf.s 			page 45


 2444 0510 4349     		ldr	r1, .L66+12
 2445 0512 1A46     		mov	r2, r3
 2446 0514 FFF7FEFF 		bl	chprintf
 2447              		.loc 3 339 0
 2448 0518 05AB     		add	r3, sp, #20
 2449 051a 0020     		movs	r0, #0
 2450 051c 1946     		mov	r1, r3
 2451 051e FFF7FEFF 		bl	strtok
 2452 0522 0346     		mov	r3, r0
 2453 0524 1846     		mov	r0, r3
 2454 0526 FFF7FEFF 		bl	atoi
 2455 052a 0346     		mov	r3, r0
 2456 052c DBB2     		uxtb	r3, r3
 2457 052e 03F00F03 		and	r3, r3, #15
 2458 0532 D9B2     		uxtb	r1, r3
 2459 0534 394A     		ldr	r2, .L66+8
 2460 0536 5378     		ldrb	r3, [r2, #1]
 2461 0538 61F30303 		bfi	r3, r1, #0, #4
 2462 053c 5370     		strb	r3, [r2, #1]
 2463              		.loc 3 340 0
 2464 053e 374B     		ldr	r3, .L66+8
 2465 0540 5B78     		ldrb	r3, [r3, #1]
 2466 0542 C3F30303 		ubfx	r3, r3, #0, #4
 2467 0546 DBB2     		uxtb	r3, r3
 2468 0548 0398     		ldr	r0, [sp, #12]
 2469 054a 3649     		ldr	r1, .L66+16
 2470 054c 1A46     		mov	r2, r3
 2471 054e FFF7FEFF 		bl	chprintf
 2472              		.loc 3 341 0
 2473 0552 05AB     		add	r3, sp, #20
 2474 0554 0020     		movs	r0, #0
 2475 0556 1946     		mov	r1, r3
 2476 0558 FFF7FEFF 		bl	strtok
 2477 055c 0346     		mov	r3, r0
 2478 055e 1846     		mov	r0, r3
 2479 0560 FFF7FEFF 		bl	atoi
 2480 0564 0346     		mov	r3, r0
 2481 0566 DBB2     		uxtb	r3, r3
 2482 0568 03F01F03 		and	r3, r3, #31
 2483 056c D9B2     		uxtb	r1, r3
 2484 056e 2B4A     		ldr	r2, .L66+8
 2485 0570 9378     		ldrb	r3, [r2, #2]
 2486 0572 61F30403 		bfi	r3, r1, #0, #5
 2487 0576 9370     		strb	r3, [r2, #2]
 2488              		.loc 3 342 0
 2489 0578 284B     		ldr	r3, .L66+8
 2490 057a 9B78     		ldrb	r3, [r3, #2]
 2491 057c C3F30403 		ubfx	r3, r3, #0, #5
 2492 0580 DBB2     		uxtb	r3, r3
 2493 0582 0398     		ldr	r0, [sp, #12]
 2494 0584 2849     		ldr	r1, .L66+20
 2495 0586 1A46     		mov	r2, r3
 2496 0588 FFF7FEFF 		bl	chprintf
 2497              		.loc 3 343 0
 2498 058c 05AB     		add	r3, sp, #20
 2499 058e 0020     		movs	r0, #0
 2500 0590 1946     		mov	r1, r3
ARM GAS  /tmp/ccHDIHHf.s 			page 46


 2501 0592 FFF7FEFF 		bl	strtok
 2502 0596 0346     		mov	r3, r0
 2503 0598 1846     		mov	r0, r3
 2504 059a FFF7FEFF 		bl	atoi
 2505 059e 0346     		mov	r3, r0
 2506 05a0 DBB2     		uxtb	r3, r3
 2507 05a2 03F00703 		and	r3, r3, #7
 2508 05a6 D9B2     		uxtb	r1, r3
 2509 05a8 1C4A     		ldr	r2, .L66+8
 2510 05aa 5378     		ldrb	r3, [r2, #1]
 2511 05ac 61F34713 		bfi	r3, r1, #5, #3
 2512 05b0 5370     		strb	r3, [r2, #1]
 2513              		.loc 3 344 0
 2514 05b2 1A4B     		ldr	r3, .L66+8
 2515 05b4 5B78     		ldrb	r3, [r3, #1]
 2516 05b6 C3F34213 		ubfx	r3, r3, #5, #3
 2517 05ba DBB2     		uxtb	r3, r3
 2518 05bc 0398     		ldr	r0, [sp, #12]
 2519 05be 1B49     		ldr	r1, .L66+24
 2520 05c0 1A46     		mov	r2, r3
 2521 05c2 FFF7FEFF 		bl	chprintf
 2522              		.loc 3 345 0
 2523 05c6 05AB     		add	r3, sp, #20
 2524 05c8 0020     		movs	r0, #0
 2525 05ca 1946     		mov	r1, r3
 2526 05cc FFF7FEFF 		bl	strtok
 2527 05d0 0346     		mov	r3, r0
 2528 05d2 1846     		mov	r0, r3
 2529 05d4 FFF7FEFF 		bl	atoi
 2530 05d8 0346     		mov	r3, r0
 2531 05da 23F07841 		bic	r1, r3, #-134217728
 2532 05de 0F4A     		ldr	r2, .L66+8
 2533 05e0 5368     		ldr	r3, [r2, #4]
 2534 05e2 61F31A03 		bfi	r3, r1, #0, #27
 2535 05e6 5360     		str	r3, [r2, #4]
 2536              		.loc 3 346 0
 2537 05e8 0C4B     		ldr	r3, .L66+8
 2538 05ea 5B68     		ldr	r3, [r3, #4]
 2539 05ec C3F31A03 		ubfx	r3, r3, #0, #27
 2540 05f0 0398     		ldr	r0, [sp, #12]
 2541 05f2 0F49     		ldr	r1, .L66+28
 2542 05f4 1A46     		mov	r2, r3
 2543 05f6 FFF7FEFF 		bl	chprintf
 2544              		.loc 3 348 0
 2545 05fa 0E48     		ldr	r0, .L66+32
 2546 05fc 0749     		ldr	r1, .L66+8
 2547 05fe FFF7FEFF 		bl	rtcSetTime
 2548              		.loc 3 349 0
 2549 0602 0D4B     		ldr	r3, .L66+36
 2550 0604 054A     		ldr	r2, .L66+8
 2551 0606 92E80300 		ldmia	r2, {r0, r1}
 2552 060a 83E80300 		stmia	r3, {r0, r1}
 2553              		.loc 3 351 0
 2554 060e 11B0     		add	sp, sp, #68
 2555              		@ sp needed
 2556 0610 5DF804FB 		ldr	pc, [sp], #4
 2557              	.L67:
ARM GAS  /tmp/ccHDIHHf.s 			page 47


 2558              		.align	2
 2559              	.L66:
 2560 0614 DC0B0000 		.word	.LC12
 2561 0618 E00B0000 		.word	.LC13
 2562 061c 0C000000 		.word	starting_time
 2563 0620 E40B0000 		.word	.LC14
 2564 0624 F00B0000 		.word	.LC15
 2565 0628 FC0B0000 		.word	.LC16
 2566 062c 080C0000 		.word	.LC17
 2567 0630 140C0000 		.word	.LC18
 2568 0634 00000000 		.word	RTCD1
 2569 0638 14000000 		.word	remember_time
 2570              		.cfi_endproc
 2571              	.LFE276:
 2572              		.size	cmd_set_time, .-cmd_set_time
 2573              		.section	.rodata
 2574 0c1d 000000   		.align	2
 2575              	.LC19:
 2576 0c20 59656172 		.ascii	"Year: %d | Month: %d | Day: %d | Day of Week: %d | "
 2576      3A202564 
 2576      207C204D 
 2576      6F6E7468 
 2576      3A202564 
 2577 0c53 5365636F 		.ascii	"Seconds: %d\012\015\000"
 2577      6E64733A 
 2577      2025640A 
 2577      0D00
 2578              		.text
 2579              		.align	2
 2580 063c AFF30080 		.p2align 4,,15
 2581              		.thumb
 2582              		.thumb_func
 2583              		.type	cmd_get_time, %function
 2584              	cmd_get_time:
 2585              	.LFB277:
 2586              		.loc 3 355 0
 2587              		.cfi_startproc
 2588              		@ args = 0, pretend = 0, frame = 16
 2589              		@ frame_needed = 0, uses_anonymous_args = 0
 2590 0640 30B5     		push	{r4, r5, lr}
 2591              		.cfi_def_cfa_offset 12
 2592              		.cfi_offset 4, -12
 2593              		.cfi_offset 5, -8
 2594              		.cfi_offset 14, -4
 2595 0642 89B0     		sub	sp, sp, #36
 2596              		.cfi_def_cfa_offset 48
 2597 0644 0790     		str	r0, [sp, #28]
 2598 0646 0691     		str	r1, [sp, #24]
 2599 0648 0592     		str	r2, [sp, #20]
 2600              		.loc 3 361 0
 2601 064a 1648     		ldr	r0, .L69
 2602 064c 1649     		ldr	r1, .L69+4
 2603 064e FFF7FEFF 		bl	rtcGetTime
 2604              		.loc 3 363 0
 2605 0652 154B     		ldr	r3, .L69+4
 2606 0654 1B78     		ldrb	r3, [r3]	@ zero_extendqisi2
 2607              		.loc 3 362 0
ARM GAS  /tmp/ccHDIHHf.s 			page 48


 2608 0656 1A46     		mov	r2, r3
 2609              		.loc 3 363 0
 2610 0658 134B     		ldr	r3, .L69+4
 2611 065a 5B78     		ldrb	r3, [r3, #1]
 2612 065c C3F30303 		ubfx	r3, r3, #0, #4
 2613 0660 DBB2     		uxtb	r3, r3
 2614              		.loc 3 362 0
 2615 0662 1C46     		mov	r4, r3
 2616              		.loc 3 363 0
 2617 0664 104B     		ldr	r3, .L69+4
 2618 0666 9B78     		ldrb	r3, [r3, #2]
 2619 0668 C3F30403 		ubfx	r3, r3, #0, #5
 2620 066c DBB2     		uxtb	r3, r3
 2621              		.loc 3 362 0
 2622 066e 1846     		mov	r0, r3
 2623              		.loc 3 363 0
 2624 0670 0D4B     		ldr	r3, .L69+4
 2625 0672 5B78     		ldrb	r3, [r3, #1]
 2626 0674 C3F34213 		ubfx	r3, r3, #5, #3
 2627 0678 DBB2     		uxtb	r3, r3
 2628              		.loc 3 362 0
 2629 067a 1946     		mov	r1, r3
 2630              		.loc 3 364 0
 2631 067c 0A4B     		ldr	r3, .L69+4
 2632 067e 5B68     		ldr	r3, [r3, #4]
 2633 0680 C3F31A03 		ubfx	r3, r3, #0, #27
 2634              		.loc 3 362 0
 2635 0684 094D     		ldr	r5, .L69+8
 2636 0686 85FB03C5 		smull	ip, r5, r5, r3
 2637 068a AD11     		asrs	r5, r5, #6
 2638 068c DB17     		asrs	r3, r3, #31
 2639 068e EB1A     		subs	r3, r5, r3
 2640 0690 0090     		str	r0, [sp]
 2641 0692 0191     		str	r1, [sp, #4]
 2642 0694 0293     		str	r3, [sp, #8]
 2643 0696 0798     		ldr	r0, [sp, #28]
 2644 0698 0549     		ldr	r1, .L69+12
 2645 069a 2346     		mov	r3, r4
 2646 069c FFF7FEFF 		bl	chprintf
 2647              		.loc 3 366 0
 2648 06a0 09B0     		add	sp, sp, #36
 2649              		@ sp needed
 2650 06a2 30BD     		pop	{r4, r5, pc}
 2651              	.L70:
 2652              		.align	2
 2653              	.L69:
 2654 06a4 00000000 		.word	RTCD1
 2655 06a8 0C000000 		.word	starting_time
 2656 06ac D34D6210 		.word	274877907
 2657 06b0 200C0000 		.word	.LC19
 2658              		.cfi_endproc
 2659              	.LFE277:
 2660              		.size	cmd_get_time, .-cmd_get_time
 2661              		.section	.rodata
 2662 0c61 000000   		.align	2
 2663              	.LC20:
 2664 0c64 6D796563 		.ascii	"myecho\000"
ARM GAS  /tmp/ccHDIHHf.s 			page 49


 2664      686F00
 2665 0c6b 00       		.align	2
 2666              	.LC21:
 2667 0c6c 61636365 		.ascii	"accel\000"
 2667      6C00
 2668 0c72 0000     		.align	2
 2669              	.LC22:
 2670 0c74 64697370 		.ascii	"display_counts\000"
 2670      6C61795F 
 2670      636F756E 
 2670      747300
 2671 0c83 00       		.align	2
 2672              	.LC23:
 2673 0c84 6765745F 		.ascii	"get_time\000"
 2673      74696D65 
 2673      00
 2674 0c8d 000000   		.align	2
 2675              	.LC24:
 2676 0c90 7365745F 		.ascii	"set_time\000"
 2676      74696D65 
 2676      00
 2677 0c99 000000   		.align	2
 2678              		.type	commands, %object
 2679              		.size	commands, 48
 2680              	commands:
 2681 0c9c 640C0000 		.word	.LC20
 2682 0ca0 00000000 		.word	cmd_myecho
 2683 0ca4 6C0C0000 		.word	.LC21
 2684 0ca8 00000000 		.word	cmd_accel_test
 2685 0cac 740C0000 		.word	.LC22
 2686 0cb0 00000000 		.word	cmd_display_counts
 2687 0cb4 840C0000 		.word	.LC23
 2688 0cb8 00000000 		.word	cmd_get_time
 2689 0cbc 900C0000 		.word	.LC24
 2690 0cc0 00000000 		.word	cmd_set_time
 2691 0cc4 00000000 		.word	0
 2692 0cc8 00000000 		.word	0
 2693              		.align	2
 2694              		.type	shell_cfg1, %object
 2695              		.size	shell_cfg1, 8
 2696              	shell_cfg1:
 2697 0ccc 00000000 		.word	SD5
 2698 0cd0 9C0C0000 		.word	commands
 2699              		.align	2
 2700              	.LC25:
 2701 0cd4 0A0D5570 		.ascii	"\012\015Up and Running\012\015\000"
 2701      20616E64 
 2701      2052756E 
 2701      6E696E67 
 2701      0A0D00
 2702 0ce7 00       		.text
 2703              		.align	2
 2704 06b4 AFF30080 		.p2align 4,,15
 2704      AFF30080 
 2704      AFF30080 
 2705              		.global	main
 2706              		.thumb
ARM GAS  /tmp/ccHDIHHf.s 			page 50


 2707              		.thumb_func
 2708              		.type	main, %function
 2709              	main:
 2710              	.LFB278:
 2711              		.loc 3 388 0
 2712              		.cfi_startproc
 2713              		@ args = 0, pretend = 0, frame = 0
 2714              		@ frame_needed = 0, uses_anonymous_args = 0
 2715 06c0 00B5     		push	{lr}
 2716              		.cfi_def_cfa_offset 4
 2717              		.cfi_offset 14, -4
 2718 06c2 83B0     		sub	sp, sp, #12
 2719              		.cfi_def_cfa_offset 16
 2720              		.loc 3 398 0
 2721 06c4 FFF7FEFF 		bl	halInit
 2722              		.loc 3 399 0
 2723 06c8 FFF7FEFF 		bl	chSysInit
 2724              		.loc 3 401 0
 2725 06cc FFF7FEFF 		bl	LSM303AGR_ACC_Init
 2726              		.loc 3 402 0
 2727 06d0 0020     		movs	r0, #0
 2728 06d2 0821     		movs	r1, #8
 2729 06d4 FFF7FEFF 		bl	LSM303AGR_ACC_W_HiRes
 2730              		.loc 3 403 0
 2731 06d8 0020     		movs	r0, #0
 2732 06da 5021     		movs	r1, #80
 2733 06dc FFF7FEFF 		bl	LSM303AGR_ACC_W_ODR
 2734              		.loc 3 409 0
 2735 06e0 2848     		ldr	r0, .L75
 2736 06e2 0021     		movs	r1, #0
 2737 06e4 FFF7FEFF 		bl	sdStart
 2738              		.loc 3 410 0
 2739 06e8 2648     		ldr	r0, .L75
 2740 06ea 2749     		ldr	r1, .L75+4
 2741 06ec FFF7FEFF 		bl	chprintf
 2742              		.loc 3 413 0
 2743 06f0 FFF7FEFF 		bl	shellInit
 2744              		.loc 3 414 0
 2745 06f4 0023     		movs	r3, #0
 2746 06f6 0093     		str	r3, [sp]
 2747 06f8 2448     		ldr	r0, .L75+8
 2748 06fa 4FF4E471 		mov	r1, #456
 2749 06fe 4122     		movs	r2, #65
 2750 0700 234B     		ldr	r3, .L75+12
 2751 0702 FFF7FEFF 		bl	chThdCreateStatic
 2752              		.loc 3 415 0
 2753 0706 0023     		movs	r3, #0
 2754 0708 0093     		str	r3, [sp]
 2755 070a 2248     		ldr	r0, .L75+16
 2756 070c 4FF4A471 		mov	r1, #328
 2757 0710 4122     		movs	r2, #65
 2758 0712 214B     		ldr	r3, .L75+20
 2759 0714 FFF7FEFF 		bl	chThdCreateStatic
 2760              		.loc 3 416 0
 2761 0718 0023     		movs	r3, #0
 2762 071a 0093     		str	r3, [sp]
 2763 071c 1F48     		ldr	r0, .L75+24
ARM GAS  /tmp/ccHDIHHf.s 			page 51


 2764 071e 4FF4E471 		mov	r1, #456
 2765 0722 4122     		movs	r2, #65
 2766 0724 1E4B     		ldr	r3, .L75+28
 2767 0726 FFF7FEFF 		bl	chThdCreateStatic
 2768              		.loc 3 417 0
 2769 072a 0023     		movs	r3, #0
 2770 072c 0093     		str	r3, [sp]
 2771 072e 1D48     		ldr	r0, .L75+32
 2772 0730 4FF4A471 		mov	r1, #328
 2773 0734 4122     		movs	r2, #65
 2774 0736 1C4B     		ldr	r3, .L75+36
 2775 0738 FFF7FEFF 		bl	chThdCreateStatic
 2776              	.L74:
 2777              		.loc 3 420 0
 2778 073c 1B4B     		ldr	r3, .L75+40
 2779 073e 1B68     		ldr	r3, [r3]
 2780 0740 002B     		cmp	r3, #0
 2781 0742 09D1     		bne	.L72
 2782              		.loc 3 421 0
 2783 0744 1A48     		ldr	r0, .L75+44
 2784 0746 40F6C801 		movw	r1, #2248
 2785 074a 4022     		movs	r2, #64
 2786 074c FFF7FEFF 		bl	shellCreate
 2787 0750 0246     		mov	r2, r0
 2788 0752 164B     		ldr	r3, .L75+40
 2789 0754 1A60     		str	r2, [r3]
 2790 0756 0FE0     		b	.L73
 2791              	.L72:
 2792              		.loc 3 423 0
 2793 0758 144B     		ldr	r3, .L75+40
 2794 075a 1B68     		ldr	r3, [r3]
 2795 075c 1846     		mov	r0, r3
 2796 075e FFF74FFC 		bl	chThdTerminatedX
 2797 0762 0346     		mov	r3, r0
 2798 0764 002B     		cmp	r3, #0
 2799 0766 07D0     		beq	.L73
 2800              		.loc 3 424 0
 2801 0768 104B     		ldr	r3, .L75+40
 2802 076a 1B68     		ldr	r3, [r3]
 2803 076c 1846     		mov	r0, r3
 2804 076e FFF7FEFF 		bl	chThdRelease
 2805              		.loc 3 425 0
 2806 0772 0E4B     		ldr	r3, .L75+40
 2807 0774 0022     		movs	r2, #0
 2808 0776 1A60     		str	r2, [r3]
 2809              	.L73:
 2810              		.loc 3 427 0
 2811 0778 4FF47A70 		mov	r0, #1000
 2812 077c FFF7FEFF 		bl	chThdSleep
 2813              		.loc 3 428 0
 2814 0780 DCE7     		b	.L74
 2815              	.L76:
 2816 0782 00BF     		.align	2
 2817              	.L75:
 2818 0784 00000000 		.word	SD5
 2819 0788 D40C0000 		.word	.LC25
 2820 078c B8020000 		.word	throttleThread
ARM GAS  /tmp/ccHDIHHf.s 			page 52


 2821 0790 00000000 		.word	throttleCount
 2822 0794 28000000 		.word	waCounterThread
 2823 0798 00000000 		.word	counterThread
 2824 079c 80040000 		.word	accelCounterThread
 2825 07a0 00000000 		.word	theCounterThread
 2826 07a4 70010000 		.word	timeStampThread
 2827 07a8 00000000 		.word	timeStamp
 2828 07ac 48060000 		.word	shelltp.10727
 2829 07b0 CC0C0000 		.word	shell_cfg1
 2830              		.cfi_endproc
 2831              	.LFE278:
 2832              		.size	main, .-main
 2833              		.bss
 2834              		.align	2
 2835              	shelltp.10727:
 2836 0648 00000000 		.space	4
 2837 064c 00000000 		.text
 2838              	.Letext0:
 2839              		.file 4 "/nfs/nfs5/home/research/hardware/arm2/gcc-arm-embedded/gcc-arm-none-eabi-4_8-2014q2/lib/g
 2840              		.file 5 "/nfs/nfs5/home/research/hardware/arm2/gcc-arm-embedded/gcc-arm-none-eabi-4_8-2014q2/arm-n
 2841              		.file 6 "/nfs/nfs5/home/research/hardware/arm2/gcc-arm-embedded/gcc-arm-none-eabi-4_8-2014q2/arm-n
 2842              		.file 7 "../ChibiOS/os/rt/ports/ARMCMx/compilers/GCC/chtypes.h"
 2843              		.file 8 "../ChibiOS/os/rt/include/chsystypes.h"
 2844              		.file 9 "../ChibiOS/os/rt/include/chschd.h"
 2845              		.file 10 "../ChibiOS/os/ext/CMSIS/ST/STM32L4xx/stm32l476xx.h"
 2846              		.file 11 "../ChibiOS/os/rt/ports/ARMCMx/chcore.h"
 2847              		.file 12 "../ChibiOS/os/rt/ports/ARMCMx/chcore_v7m.h"
 2848              		.file 13 "../ChibiOS/os/rt/include/chtm.h"
 2849              		.file 14 "../ChibiOS/os/rt/include/chsem.h"
 2850              		.file 15 "../ChibiOS/os/rt/include/chmtx.h"
 2851              		.file 16 "../ChibiOS/os/rt/include/chevents.h"
 2852              		.file 17 "../ChibiOS/os/rt/include/chqueues.h"
 2853              		.file 18 "../ChibiOS/os/rt/include/chstreams.h"
 2854              		.file 19 "../ChibiOS/os/hal/include/rtc.h"
 2855              		.file 20 "../ChibiOS/os/hal/ports/STM32/LLD/RTCv2/rtc_lld.h"
 2856              		.file 21 "../ChibiOS/os/hal/include/serial.h"
 2857              		.file 22 "../ChibiOS/os/various/shell.h"
 2858              		.file 23 "./driver/LSM303AGR_ACC_driver.h"
 2859              		.file 24 "../ChibiOS/os/ext/CMSIS/include/core_cm4.h"
 2860              		.file 25 "../ChibiOS/os/hal/ports/STM32/LLD/USARTv2/serial_lld.h"