ARM GAS  /tmp/ccPTd56a.s 			page 1


   1              		.syntax unified
   2              		.cpu cortex-m4
   3              		.fpu softvfp
   4              		.eabi_attribute 20, 1
   5              		.eabi_attribute 21, 1
   6              		.eabi_attribute 23, 3
   7              		.eabi_attribute 24, 1
   8              		.eabi_attribute 25, 1
   9              		.eabi_attribute 26, 1
  10              		.eabi_attribute 30, 6
  11              		.eabi_attribute 34, 1
  12              		.eabi_attribute 18, 4
  13              		.thumb
  14              		.file	"rtc_lld.c"
  15              		.text
  16              	.Ltext0:
  17              		.cfi_sections	.debug_frame
  18              		.align	2
  19              		.p2align 4,,15
  20              		.thumb
  21              		.thumb_func
  22              		.type	osalSysGetStatusAndLockX, %function
  23              	osalSysGetStatusAndLockX:
  24              	.LFB238:
  25              		.file 1 "../ChibiOS/os/hal/osal/rt/osal.h"
  26              		.loc 1 542 0
  27              		.cfi_startproc
  28              		@ args = 0, pretend = 0, frame = 0
  29              		@ frame_needed = 0, uses_anonymous_args = 0
  30 0000 08B5     		push	{r3, lr}
  31              		.cfi_def_cfa_offset 8
  32              		.cfi_offset 3, -8
  33              		.cfi_offset 14, -4
  34              		.loc 1 544 0
  35 0002 FFF7FEFF 		bl	chSysGetStatusAndLockX
  36 0006 0346     		mov	r3, r0
  37              		.loc 1 545 0
  38 0008 1846     		mov	r0, r3
  39 000a 08BD     		pop	{r3, pc}
  40              		.cfi_endproc
  41              	.LFE238:
  42              		.size	osalSysGetStatusAndLockX, .-osalSysGetStatusAndLockX
  43              		.align	2
  44 000c AFF30080 		.p2align 4,,15
  45              		.thumb
  46              		.thumb_func
  47              		.type	osalSysRestoreStatusX, %function
  48              	osalSysRestoreStatusX:
  49              	.LFB239:
  50              		.loc 1 556 0
  51              		.cfi_startproc
  52              		@ args = 0, pretend = 0, frame = 8
  53              		@ frame_needed = 0, uses_anonymous_args = 0
  54 0010 00B5     		push	{lr}
  55              		.cfi_def_cfa_offset 4
  56              		.cfi_offset 14, -4
  57 0012 83B0     		sub	sp, sp, #12
ARM GAS  /tmp/ccPTd56a.s 			page 2


  58              		.cfi_def_cfa_offset 16
  59 0014 0190     		str	r0, [sp, #4]
  60              		.loc 1 558 0
  61 0016 0198     		ldr	r0, [sp, #4]
  62 0018 FFF7FEFF 		bl	chSysRestoreStatusX
  63              		.loc 1 559 0
  64 001c 03B0     		add	sp, sp, #12
  65              		@ sp needed
  66 001e 5DF804FB 		ldr	pc, [sp], #4
  67              		.cfi_endproc
  68              	.LFE239:
  69              		.size	osalSysRestoreStatusX, .-osalSysRestoreStatusX
  70              		.comm	RTCD1,4,4
  71 0022 00BF     		.align	2
  72 0024 AFF30080 		.p2align 4,,15
  72      AFF30080 
  72      AFF30080 
  73              		.thumb
  74              		.thumb_func
  75              		.type	rtc_enter_init, %function
  76              	rtc_enter_init:
  77              	.LFB267:
  78              		.file 2 "../ChibiOS/os/hal/ports/STM32/LLD/RTCv2/rtc_lld.c"
  79              		.loc 2 77 0
  80              		.cfi_startproc
  81              		@ args = 0, pretend = 0, frame = 0
  82              		@ frame_needed = 0, uses_anonymous_args = 0
  83              		@ link register save eliminated.
  84              		.loc 2 79 0
  85 0030 084B     		ldr	r3, .L6
  86 0032 1B68     		ldr	r3, [r3]
  87 0034 074A     		ldr	r2, .L6
  88 0036 1268     		ldr	r2, [r2]
  89 0038 D268     		ldr	r2, [r2, #12]
  90 003a 42F08002 		orr	r2, r2, #128
  91 003e DA60     		str	r2, [r3, #12]
  92              		.loc 2 80 0
  93 0040 00BF     		nop
  94              	.L5:
  95              		.loc 2 80 0 is_stmt 0 discriminator 1
  96 0042 044B     		ldr	r3, .L6
  97 0044 1B68     		ldr	r3, [r3]
  98 0046 DB68     		ldr	r3, [r3, #12]
  99 0048 03F04003 		and	r3, r3, #64
 100 004c 002B     		cmp	r3, #0
 101 004e F8D0     		beq	.L5
 102              		.loc 2 82 0 is_stmt 1
 103 0050 7047     		bx	lr
 104              	.L7:
 105 0052 00BF     		.align	2
 106              	.L6:
 107 0054 00000000 		.word	RTCD1
 108              		.cfi_endproc
 109              	.LFE267:
 110              		.size	rtc_enter_init, .-rtc_enter_init
 111              		.align	2
 112 0058 AFF30080 		.p2align 4,,15
ARM GAS  /tmp/ccPTd56a.s 			page 3


 112      AFF30080 
 113              		.thumb
 114              		.thumb_func
 115              		.type	rtc_exit_init, %function
 116              	rtc_exit_init:
 117              	.LFB268:
 118              		.loc 2 89 0
 119              		.cfi_startproc
 120              		@ args = 0, pretend = 0, frame = 0
 121              		@ frame_needed = 0, uses_anonymous_args = 0
 122              		@ link register save eliminated.
 123              		.loc 2 91 0
 124 0060 044B     		ldr	r3, .L9
 125 0062 1B68     		ldr	r3, [r3]
 126 0064 034A     		ldr	r2, .L9
 127 0066 1268     		ldr	r2, [r2]
 128 0068 D268     		ldr	r2, [r2, #12]
 129 006a 22F08002 		bic	r2, r2, #128
 130 006e DA60     		str	r2, [r3, #12]
 131              		.loc 2 92 0
 132 0070 7047     		bx	lr
 133              	.L10:
 134 0072 00BF     		.align	2
 135              	.L9:
 136 0074 00000000 		.word	RTCD1
 137              		.cfi_endproc
 138              	.LFE268:
 139              		.size	rtc_exit_init, .-rtc_exit_init
 140              		.align	2
 141 0078 AFF30080 		.p2align 4,,15
 141      AFF30080 
 142              		.thumb
 143              		.thumb_func
 144              		.type	rtc_decode_time, %function
 145              	rtc_decode_time:
 146              	.LFB269:
 147              		.loc 2 102 0
 148              		.cfi_startproc
 149              		@ args = 0, pretend = 0, frame = 16
 150              		@ frame_needed = 0, uses_anonymous_args = 0
 151              		@ link register save eliminated.
 152 0080 84B0     		sub	sp, sp, #16
 153              		.cfi_def_cfa_offset 16
 154 0082 0190     		str	r0, [sp, #4]
 155 0084 0091     		str	r1, [sp]
 156              		.loc 2 105 0
 157 0086 019B     		ldr	r3, [sp, #4]
 158 0088 1B0D     		lsrs	r3, r3, #20
 159 008a 03F00303 		and	r3, r3, #3
 160 008e 214A     		ldr	r2, .L12
 161 0090 02FB03F3 		mul	r3, r2, r3
 162 0094 0393     		str	r3, [sp, #12]
 163              		.loc 2 106 0
 164 0096 019B     		ldr	r3, [sp, #4]
 165 0098 1B0C     		lsrs	r3, r3, #16
 166 009a 03F00F03 		and	r3, r3, #15
 167 009e 1E4A     		ldr	r2, .L12+4
ARM GAS  /tmp/ccPTd56a.s 			page 4


 168 00a0 02FB03F3 		mul	r3, r2, r3
 169 00a4 039A     		ldr	r2, [sp, #12]
 170 00a6 1344     		add	r3, r3, r2
 171 00a8 0393     		str	r3, [sp, #12]
 172              		.loc 2 107 0
 173 00aa 019B     		ldr	r3, [sp, #4]
 174 00ac 1B0B     		lsrs	r3, r3, #12
 175 00ae 03F00703 		and	r3, r3, #7
 176 00b2 1A4A     		ldr	r2, .L12+8
 177 00b4 02FB03F3 		mul	r3, r2, r3
 178 00b8 039A     		ldr	r2, [sp, #12]
 179 00ba 1344     		add	r3, r3, r2
 180 00bc 0393     		str	r3, [sp, #12]
 181              		.loc 2 108 0
 182 00be 019B     		ldr	r3, [sp, #4]
 183 00c0 1B0A     		lsrs	r3, r3, #8
 184 00c2 03F00F03 		and	r3, r3, #15
 185 00c6 4EF66022 		movw	r2, #60000
 186 00ca 02FB03F3 		mul	r3, r2, r3
 187 00ce 039A     		ldr	r2, [sp, #12]
 188 00d0 1344     		add	r3, r3, r2
 189 00d2 0393     		str	r3, [sp, #12]
 190              		.loc 2 109 0
 191 00d4 019B     		ldr	r3, [sp, #4]
 192 00d6 1B09     		lsrs	r3, r3, #4
 193 00d8 03F00703 		and	r3, r3, #7
 194 00dc 42F21072 		movw	r2, #10000
 195 00e0 02FB03F3 		mul	r3, r2, r3
 196 00e4 039A     		ldr	r2, [sp, #12]
 197 00e6 1344     		add	r3, r3, r2
 198 00e8 0393     		str	r3, [sp, #12]
 199              		.loc 2 110 0
 200 00ea 019B     		ldr	r3, [sp, #4]
 201 00ec 03F00F03 		and	r3, r3, #15
 202 00f0 4FF47A72 		mov	r2, #1000
 203 00f4 02FB03F3 		mul	r3, r2, r3
 204 00f8 039A     		ldr	r2, [sp, #12]
 205 00fa 1344     		add	r3, r3, r2
 206 00fc 0393     		str	r3, [sp, #12]
 207              		.loc 2 111 0
 208 00fe 039B     		ldr	r3, [sp, #12]
 209 0100 23F07841 		bic	r1, r3, #-134217728
 210 0104 009A     		ldr	r2, [sp]
 211 0106 5368     		ldr	r3, [r2, #4]
 212 0108 61F31A03 		bfi	r3, r1, #0, #27
 213 010c 5360     		str	r3, [r2, #4]
 214              		.loc 2 112 0
 215 010e 04B0     		add	sp, sp, #16
 216              		@ sp needed
 217 0110 7047     		bx	lr
 218              	.L13:
 219 0112 00BF     		.align	2
 220              	.L12:
 221 0114 00512502 		.word	36000000
 222 0118 80EE3600 		.word	3600000
 223 011c C0270900 		.word	600000
 224              		.cfi_endproc
ARM GAS  /tmp/ccPTd56a.s 			page 5


 225              	.LFE269:
 226              		.size	rtc_decode_time, .-rtc_decode_time
 227              		.align	2
 228              		.p2align 4,,15
 229              		.thumb
 230              		.thumb_func
 231              		.type	rtc_decode_date, %function
 232              	rtc_decode_date:
 233              	.LFB270:
 234              		.loc 2 122 0
 235              		.cfi_startproc
 236              		@ args = 0, pretend = 0, frame = 8
 237              		@ frame_needed = 0, uses_anonymous_args = 0
 238              		@ link register save eliminated.
 239 0120 82B0     		sub	sp, sp, #8
 240              		.cfi_def_cfa_offset 8
 241 0122 0190     		str	r0, [sp, #4]
 242 0124 0091     		str	r1, [sp]
 243              		.loc 2 124 0
 244 0126 019B     		ldr	r3, [sp, #4]
 245 0128 1B0D     		lsrs	r3, r3, #20
 246 012a DBB2     		uxtb	r3, r3
 247 012c 03F00F03 		and	r3, r3, #15
 248 0130 DBB2     		uxtb	r3, r3
 249 0132 1A46     		mov	r2, r3
 250 0134 9200     		lsls	r2, r2, #2
 251 0136 1344     		add	r3, r3, r2
 252 0138 5B00     		lsls	r3, r3, #1
 253 013a DAB2     		uxtb	r2, r3
 254              		.loc 2 125 0
 255 013c 019B     		ldr	r3, [sp, #4]
 256 013e 1B0C     		lsrs	r3, r3, #16
 257              		.loc 2 124 0
 258 0140 DBB2     		uxtb	r3, r3
 259 0142 03F00F03 		and	r3, r3, #15
 260 0146 DBB2     		uxtb	r3, r3
 261 0148 1344     		add	r3, r3, r2
 262 014a D9B2     		uxtb	r1, r3
 263 014c 009A     		ldr	r2, [sp]
 264 014e 1378     		ldrb	r3, [r2]
 265 0150 61F30703 		bfi	r3, r1, #0, #8
 266 0154 1370     		strb	r3, [r2]
 267              		.loc 2 126 0
 268 0156 019B     		ldr	r3, [sp, #4]
 269 0158 1B0B     		lsrs	r3, r3, #12
 270 015a DBB2     		uxtb	r3, r3
 271 015c 03F00103 		and	r3, r3, #1
 272 0160 DBB2     		uxtb	r3, r3
 273 0162 1A46     		mov	r2, r3
 274 0164 9200     		lsls	r2, r2, #2
 275 0166 1344     		add	r3, r3, r2
 276 0168 5B00     		lsls	r3, r3, #1
 277 016a DAB2     		uxtb	r2, r3
 278              		.loc 2 127 0
 279 016c 019B     		ldr	r3, [sp, #4]
 280 016e 1B0A     		lsrs	r3, r3, #8
 281              		.loc 2 126 0
ARM GAS  /tmp/ccPTd56a.s 			page 6


 282 0170 DBB2     		uxtb	r3, r3
 283 0172 03F00F03 		and	r3, r3, #15
 284 0176 DBB2     		uxtb	r3, r3
 285 0178 1344     		add	r3, r3, r2
 286 017a DBB2     		uxtb	r3, r3
 287 017c 03F00F03 		and	r3, r3, #15
 288 0180 D9B2     		uxtb	r1, r3
 289 0182 009A     		ldr	r2, [sp]
 290 0184 5378     		ldrb	r3, [r2, #1]
 291 0186 61F30303 		bfi	r3, r1, #0, #4
 292 018a 5370     		strb	r3, [r2, #1]
 293              		.loc 2 128 0
 294 018c 019B     		ldr	r3, [sp, #4]
 295 018e 1B09     		lsrs	r3, r3, #4
 296 0190 DBB2     		uxtb	r3, r3
 297 0192 03F00303 		and	r3, r3, #3
 298 0196 DBB2     		uxtb	r3, r3
 299 0198 1A46     		mov	r2, r3
 300 019a 9200     		lsls	r2, r2, #2
 301 019c 1344     		add	r3, r3, r2
 302 019e 5B00     		lsls	r3, r3, #1
 303 01a0 DAB2     		uxtb	r2, r3
 304 01a2 019B     		ldr	r3, [sp, #4]
 305 01a4 DBB2     		uxtb	r3, r3
 306 01a6 03F00F03 		and	r3, r3, #15
 307 01aa DBB2     		uxtb	r3, r3
 308 01ac 1344     		add	r3, r3, r2
 309 01ae DBB2     		uxtb	r3, r3
 310 01b0 03F01F03 		and	r3, r3, #31
 311 01b4 D9B2     		uxtb	r1, r3
 312 01b6 009A     		ldr	r2, [sp]
 313 01b8 9378     		ldrb	r3, [r2, #2]
 314 01ba 61F30403 		bfi	r3, r1, #0, #5
 315 01be 9370     		strb	r3, [r2, #2]
 316              		.loc 2 130 0
 317 01c0 019B     		ldr	r3, [sp, #4]
 318 01c2 5B0B     		lsrs	r3, r3, #13
 319 01c4 DBB2     		uxtb	r3, r3
 320 01c6 03F00703 		and	r3, r3, #7
 321 01ca D9B2     		uxtb	r1, r3
 322 01cc 009A     		ldr	r2, [sp]
 323 01ce 5378     		ldrb	r3, [r2, #1]
 324 01d0 61F34713 		bfi	r3, r1, #5, #3
 325 01d4 5370     		strb	r3, [r2, #1]
 326              		.loc 2 131 0
 327 01d6 02B0     		add	sp, sp, #8
 328              		@ sp needed
 329 01d8 7047     		bx	lr
 330              		.cfi_endproc
 331              	.LFE270:
 332              		.size	rtc_decode_date, .-rtc_decode_date
 333 01da 00BF     		.align	2
 334 01dc AFF30080 		.p2align 4,,15
 335              		.thumb
 336              		.thumb_func
 337              		.type	rtc_encode_time, %function
 338              	rtc_encode_time:
ARM GAS  /tmp/ccPTd56a.s 			page 7


 339              	.LFB271:
 340              		.loc 2 141 0
 341              		.cfi_startproc
 342              		@ args = 0, pretend = 0, frame = 16
 343              		@ frame_needed = 0, uses_anonymous_args = 0
 344              		@ link register save eliminated.
 345 01e0 84B0     		sub	sp, sp, #16
 346              		.cfi_def_cfa_offset 16
 347 01e2 0190     		str	r0, [sp, #4]
 348              		.loc 2 142 0
 349 01e4 0023     		movs	r3, #0
 350 01e6 0393     		str	r3, [sp, #12]
 351              		.loc 2 145 0
 352 01e8 019B     		ldr	r3, [sp, #4]
 353 01ea 5B68     		ldr	r3, [r3, #4]
 354 01ec C3F31A03 		ubfx	r3, r3, #0, #27
 355 01f0 394A     		ldr	r2, .L17
 356 01f2 82FB0312 		smull	r1, r2, r2, r3
 357 01f6 9211     		asrs	r2, r2, #6
 358 01f8 DB17     		asrs	r3, r3, #31
 359 01fa D31A     		subs	r3, r2, r3
 360 01fc 0293     		str	r3, [sp, #8]
 361              		.loc 2 148 0
 362 01fe 0299     		ldr	r1, [sp, #8]
 363 0200 364B     		ldr	r3, .L17+4
 364 0202 A3FB0123 		umull	r2, r3, r3, r1
 365 0206 DA08     		lsrs	r2, r3, #3
 366 0208 1346     		mov	r3, r2
 367 020a 9B00     		lsls	r3, r3, #2
 368 020c 1344     		add	r3, r3, r2
 369 020e 5B00     		lsls	r3, r3, #1
 370 0210 CA1A     		subs	r2, r1, r3
 371 0212 039B     		ldr	r3, [sp, #12]
 372 0214 1343     		orrs	r3, r3, r2
 373 0216 0393     		str	r3, [sp, #12]
 374              		.loc 2 149 0
 375 0218 029A     		ldr	r2, [sp, #8]
 376 021a 304B     		ldr	r3, .L17+4
 377 021c A3FB0213 		umull	r1, r3, r3, r2
 378 0220 DB08     		lsrs	r3, r3, #3
 379 0222 0293     		str	r3, [sp, #8]
 380              		.loc 2 150 0
 381 0224 0299     		ldr	r1, [sp, #8]
 382 0226 2E4B     		ldr	r3, .L17+8
 383 0228 A3FB0123 		umull	r2, r3, r3, r1
 384 022c 9A08     		lsrs	r2, r3, #2
 385 022e 1346     		mov	r3, r2
 386 0230 5B00     		lsls	r3, r3, #1
 387 0232 1344     		add	r3, r3, r2
 388 0234 5B00     		lsls	r3, r3, #1
 389 0236 CA1A     		subs	r2, r1, r3
 390 0238 1301     		lsls	r3, r2, #4
 391 023a 039A     		ldr	r2, [sp, #12]
 392 023c 1343     		orrs	r3, r3, r2
 393 023e 0393     		str	r3, [sp, #12]
 394              		.loc 2 151 0
 395 0240 029A     		ldr	r2, [sp, #8]
ARM GAS  /tmp/ccPTd56a.s 			page 8


 396 0242 274B     		ldr	r3, .L17+8
 397 0244 A3FB0213 		umull	r1, r3, r3, r2
 398 0248 9B08     		lsrs	r3, r3, #2
 399 024a 0293     		str	r3, [sp, #8]
 400              		.loc 2 154 0
 401 024c 0299     		ldr	r1, [sp, #8]
 402 024e 234B     		ldr	r3, .L17+4
 403 0250 A3FB0123 		umull	r2, r3, r3, r1
 404 0254 DA08     		lsrs	r2, r3, #3
 405 0256 1346     		mov	r3, r2
 406 0258 9B00     		lsls	r3, r3, #2
 407 025a 1344     		add	r3, r3, r2
 408 025c 5B00     		lsls	r3, r3, #1
 409 025e CA1A     		subs	r2, r1, r3
 410 0260 1302     		lsls	r3, r2, #8
 411 0262 039A     		ldr	r2, [sp, #12]
 412 0264 1343     		orrs	r3, r3, r2
 413 0266 0393     		str	r3, [sp, #12]
 414              		.loc 2 155 0
 415 0268 029A     		ldr	r2, [sp, #8]
 416 026a 1C4B     		ldr	r3, .L17+4
 417 026c A3FB0213 		umull	r1, r3, r3, r2
 418 0270 DB08     		lsrs	r3, r3, #3
 419 0272 0293     		str	r3, [sp, #8]
 420              		.loc 2 156 0
 421 0274 0299     		ldr	r1, [sp, #8]
 422 0276 1A4B     		ldr	r3, .L17+8
 423 0278 A3FB0123 		umull	r2, r3, r3, r1
 424 027c 9A08     		lsrs	r2, r3, #2
 425 027e 1346     		mov	r3, r2
 426 0280 5B00     		lsls	r3, r3, #1
 427 0282 1344     		add	r3, r3, r2
 428 0284 5B00     		lsls	r3, r3, #1
 429 0286 CA1A     		subs	r2, r1, r3
 430 0288 1303     		lsls	r3, r2, #12
 431 028a 039A     		ldr	r2, [sp, #12]
 432 028c 1343     		orrs	r3, r3, r2
 433 028e 0393     		str	r3, [sp, #12]
 434              		.loc 2 157 0
 435 0290 029A     		ldr	r2, [sp, #8]
 436 0292 134B     		ldr	r3, .L17+8
 437 0294 A3FB0213 		umull	r1, r3, r3, r2
 438 0298 9B08     		lsrs	r3, r3, #2
 439 029a 0293     		str	r3, [sp, #8]
 440              		.loc 2 160 0
 441 029c 0299     		ldr	r1, [sp, #8]
 442 029e 0F4B     		ldr	r3, .L17+4
 443 02a0 A3FB0123 		umull	r2, r3, r3, r1
 444 02a4 DA08     		lsrs	r2, r3, #3
 445 02a6 1346     		mov	r3, r2
 446 02a8 9B00     		lsls	r3, r3, #2
 447 02aa 1344     		add	r3, r3, r2
 448 02ac 5B00     		lsls	r3, r3, #1
 449 02ae CA1A     		subs	r2, r1, r3
 450 02b0 1304     		lsls	r3, r2, #16
 451 02b2 039A     		ldr	r2, [sp, #12]
 452 02b4 1343     		orrs	r3, r3, r2
ARM GAS  /tmp/ccPTd56a.s 			page 9


 453 02b6 0393     		str	r3, [sp, #12]
 454              		.loc 2 161 0
 455 02b8 029A     		ldr	r2, [sp, #8]
 456 02ba 084B     		ldr	r3, .L17+4
 457 02bc A3FB0213 		umull	r1, r3, r3, r2
 458 02c0 DB08     		lsrs	r3, r3, #3
 459 02c2 0293     		str	r3, [sp, #8]
 460              		.loc 2 162 0
 461 02c4 029B     		ldr	r3, [sp, #8]
 462 02c6 1B05     		lsls	r3, r3, #20
 463 02c8 039A     		ldr	r2, [sp, #12]
 464 02ca 1343     		orrs	r3, r3, r2
 465 02cc 0393     		str	r3, [sp, #12]
 466              		.loc 2 164 0
 467 02ce 039B     		ldr	r3, [sp, #12]
 468              		.loc 2 165 0
 469 02d0 1846     		mov	r0, r3
 470 02d2 04B0     		add	sp, sp, #16
 471              		@ sp needed
 472 02d4 7047     		bx	lr
 473              	.L18:
 474 02d6 00BF     		.align	2
 475              	.L17:
 476 02d8 D34D6210 		.word	274877907
 477 02dc CDCCCCCC 		.word	-858993459
 478 02e0 ABAAAAAA 		.word	-1431655765
 479              		.cfi_endproc
 480              	.LFE271:
 481              		.size	rtc_encode_time, .-rtc_encode_time
 482              		.align	2
 483 02e4 AFF30080 		.p2align 4,,15
 483      AFF30080 
 483      AFF30080 
 484              		.thumb
 485              		.thumb_func
 486              		.type	rtc_encode_date, %function
 487              	rtc_encode_date:
 488              	.LFB272:
 489              		.loc 2 175 0
 490              		.cfi_startproc
 491              		@ args = 0, pretend = 0, frame = 16
 492              		@ frame_needed = 0, uses_anonymous_args = 0
 493              		@ link register save eliminated.
 494 02f0 84B0     		sub	sp, sp, #16
 495              		.cfi_def_cfa_offset 16
 496 02f2 0190     		str	r0, [sp, #4]
 497              		.loc 2 176 0
 498 02f4 0023     		movs	r3, #0
 499 02f6 0393     		str	r3, [sp, #12]
 500              		.loc 2 179 0
 501 02f8 019B     		ldr	r3, [sp, #4]
 502 02fa 1B78     		ldrb	r3, [r3]	@ zero_extendqisi2
 503 02fc 0293     		str	r3, [sp, #8]
 504              		.loc 2 180 0
 505 02fe 0299     		ldr	r1, [sp, #8]
 506 0300 3E4B     		ldr	r3, .L21
 507 0302 A3FB0123 		umull	r2, r3, r3, r1
ARM GAS  /tmp/ccPTd56a.s 			page 10


 508 0306 DA08     		lsrs	r2, r3, #3
 509 0308 1346     		mov	r3, r2
 510 030a 9B00     		lsls	r3, r3, #2
 511 030c 1344     		add	r3, r3, r2
 512 030e 5B00     		lsls	r3, r3, #1
 513 0310 CA1A     		subs	r2, r1, r3
 514 0312 1304     		lsls	r3, r2, #16
 515 0314 039A     		ldr	r2, [sp, #12]
 516 0316 1343     		orrs	r3, r3, r2
 517 0318 0393     		str	r3, [sp, #12]
 518              		.loc 2 181 0
 519 031a 029A     		ldr	r2, [sp, #8]
 520 031c 374B     		ldr	r3, .L21
 521 031e A3FB0213 		umull	r1, r3, r3, r2
 522 0322 DB08     		lsrs	r3, r3, #3
 523 0324 0293     		str	r3, [sp, #8]
 524              		.loc 2 182 0
 525 0326 0299     		ldr	r1, [sp, #8]
 526 0328 344B     		ldr	r3, .L21
 527 032a A3FB0123 		umull	r2, r3, r3, r1
 528 032e DA08     		lsrs	r2, r3, #3
 529 0330 1346     		mov	r3, r2
 530 0332 9B00     		lsls	r3, r3, #2
 531 0334 1344     		add	r3, r3, r2
 532 0336 5B00     		lsls	r3, r3, #1
 533 0338 CA1A     		subs	r2, r1, r3
 534 033a 1305     		lsls	r3, r2, #20
 535 033c 039A     		ldr	r2, [sp, #12]
 536 033e 1343     		orrs	r3, r3, r2
 537 0340 0393     		str	r3, [sp, #12]
 538              		.loc 2 185 0
 539 0342 019B     		ldr	r3, [sp, #4]
 540 0344 5B78     		ldrb	r3, [r3, #1]
 541 0346 C3F30303 		ubfx	r3, r3, #0, #4
 542 034a DBB2     		uxtb	r3, r3
 543 034c 0293     		str	r3, [sp, #8]
 544              		.loc 2 186 0
 545 034e 0299     		ldr	r1, [sp, #8]
 546 0350 2A4B     		ldr	r3, .L21
 547 0352 A3FB0123 		umull	r2, r3, r3, r1
 548 0356 DA08     		lsrs	r2, r3, #3
 549 0358 1346     		mov	r3, r2
 550 035a 9B00     		lsls	r3, r3, #2
 551 035c 1344     		add	r3, r3, r2
 552 035e 5B00     		lsls	r3, r3, #1
 553 0360 CA1A     		subs	r2, r1, r3
 554 0362 1302     		lsls	r3, r2, #8
 555 0364 039A     		ldr	r2, [sp, #12]
 556 0366 1343     		orrs	r3, r3, r2
 557 0368 0393     		str	r3, [sp, #12]
 558              		.loc 2 187 0
 559 036a 029A     		ldr	r2, [sp, #8]
 560 036c 234B     		ldr	r3, .L21
 561 036e A3FB0213 		umull	r1, r3, r3, r2
 562 0372 DB08     		lsrs	r3, r3, #3
 563 0374 0293     		str	r3, [sp, #8]
 564              		.loc 2 188 0
ARM GAS  /tmp/ccPTd56a.s 			page 11


 565 0376 0299     		ldr	r1, [sp, #8]
 566 0378 204B     		ldr	r3, .L21
 567 037a A3FB0123 		umull	r2, r3, r3, r1
 568 037e DA08     		lsrs	r2, r3, #3
 569 0380 1346     		mov	r3, r2
 570 0382 9B00     		lsls	r3, r3, #2
 571 0384 1344     		add	r3, r3, r2
 572 0386 5B00     		lsls	r3, r3, #1
 573 0388 CA1A     		subs	r2, r1, r3
 574 038a 1303     		lsls	r3, r2, #12
 575 038c 039A     		ldr	r2, [sp, #12]
 576 038e 1343     		orrs	r3, r3, r2
 577 0390 0393     		str	r3, [sp, #12]
 578              		.loc 2 191 0
 579 0392 019B     		ldr	r3, [sp, #4]
 580 0394 9B78     		ldrb	r3, [r3, #2]
 581 0396 C3F30403 		ubfx	r3, r3, #0, #5
 582 039a DBB2     		uxtb	r3, r3
 583 039c 0293     		str	r3, [sp, #8]
 584              		.loc 2 192 0
 585 039e 0299     		ldr	r1, [sp, #8]
 586 03a0 164B     		ldr	r3, .L21
 587 03a2 A3FB0123 		umull	r2, r3, r3, r1
 588 03a6 DA08     		lsrs	r2, r3, #3
 589 03a8 1346     		mov	r3, r2
 590 03aa 9B00     		lsls	r3, r3, #2
 591 03ac 1344     		add	r3, r3, r2
 592 03ae 5B00     		lsls	r3, r3, #1
 593 03b0 CA1A     		subs	r2, r1, r3
 594 03b2 039B     		ldr	r3, [sp, #12]
 595 03b4 1343     		orrs	r3, r3, r2
 596 03b6 0393     		str	r3, [sp, #12]
 597              		.loc 2 193 0
 598 03b8 029A     		ldr	r2, [sp, #8]
 599 03ba 104B     		ldr	r3, .L21
 600 03bc A3FB0213 		umull	r1, r3, r3, r2
 601 03c0 DB08     		lsrs	r3, r3, #3
 602 03c2 0293     		str	r3, [sp, #8]
 603              		.loc 2 194 0
 604 03c4 0299     		ldr	r1, [sp, #8]
 605 03c6 0D4B     		ldr	r3, .L21
 606 03c8 A3FB0123 		umull	r2, r3, r3, r1
 607 03cc DA08     		lsrs	r2, r3, #3
 608 03ce 1346     		mov	r3, r2
 609 03d0 9B00     		lsls	r3, r3, #2
 610 03d2 1344     		add	r3, r3, r2
 611 03d4 5B00     		lsls	r3, r3, #1
 612 03d6 CA1A     		subs	r2, r1, r3
 613 03d8 1301     		lsls	r3, r2, #4
 614 03da 039A     		ldr	r2, [sp, #12]
 615 03dc 1343     		orrs	r3, r3, r2
 616 03de 0393     		str	r3, [sp, #12]
 617              		.loc 2 197 0
 618 03e0 019B     		ldr	r3, [sp, #4]
 619 03e2 5B78     		ldrb	r3, [r3, #1]
 620 03e4 C3F34213 		ubfx	r3, r3, #5, #3
 621 03e8 DBB2     		uxtb	r3, r3
ARM GAS  /tmp/ccPTd56a.s 			page 12


 622 03ea 5B03     		lsls	r3, r3, #13
 623 03ec 039A     		ldr	r2, [sp, #12]
 624 03ee 1343     		orrs	r3, r3, r2
 625 03f0 0393     		str	r3, [sp, #12]
 626              		.loc 2 199 0
 627 03f2 039B     		ldr	r3, [sp, #12]
 628              		.loc 2 200 0
 629 03f4 1846     		mov	r0, r3
 630 03f6 04B0     		add	sp, sp, #16
 631              		@ sp needed
 632 03f8 7047     		bx	lr
 633              	.L22:
 634 03fa 00BF     		.align	2
 635              	.L21:
 636 03fc CDCCCCCC 		.word	-858993459
 637              		.cfi_endproc
 638              	.LFE272:
 639              		.size	rtc_encode_date, .-rtc_encode_date
 640              		.align	2
 641              		.p2align 4,,15
 642              		.global	rtc_lld_init
 643              		.thumb
 644              		.thumb_func
 645              		.type	rtc_lld_init, %function
 646              	rtc_lld_init:
 647              	.LFB273:
 648              		.loc 2 296 0
 649              		.cfi_startproc
 650              		@ args = 0, pretend = 0, frame = 0
 651              		@ frame_needed = 0, uses_anonymous_args = 0
 652 0400 08B5     		push	{r3, lr}
 653              		.cfi_def_cfa_offset 8
 654              		.cfi_offset 3, -8
 655              		.cfi_offset 14, -4
 656              		.loc 2 299 0
 657 0402 1948     		ldr	r0, .L26
 658 0404 FFF7FEFF 		bl	rtcObjectInit
 659              		.loc 2 302 0
 660 0408 174B     		ldr	r3, .L26
 661 040a 184A     		ldr	r2, .L26+4
 662 040c 1A60     		str	r2, [r3]
 663              		.loc 2 305 0
 664 040e 164B     		ldr	r3, .L26
 665 0410 1B68     		ldr	r3, [r3]
 666 0412 CA22     		movs	r2, #202
 667 0414 5A62     		str	r2, [r3, #36]
 668              		.loc 2 306 0
 669 0416 144B     		ldr	r3, .L26
 670 0418 1B68     		ldr	r3, [r3]
 671 041a 5322     		movs	r2, #83
 672 041c 5A62     		str	r2, [r3, #36]
 673              		.loc 2 310 0
 674 041e 124B     		ldr	r3, .L26
 675 0420 1B68     		ldr	r3, [r3]
 676 0422 DB68     		ldr	r3, [r3, #12]
 677 0424 03F01003 		and	r3, r3, #16
 678 0428 002B     		cmp	r3, #0
ARM GAS  /tmp/ccPTd56a.s 			page 13


 679 042a 14D1     		bne	.L24
 680              		.loc 2 312 0
 681 042c FFF700FE 		bl	rtc_enter_init
 682              		.loc 2 314 0
 683 0430 0D4B     		ldr	r3, .L26
 684 0432 1B68     		ldr	r3, [r3]
 685 0434 0022     		movs	r2, #0
 686 0436 9A60     		str	r2, [r3, #8]
 687              		.loc 2 315 0
 688 0438 0B4B     		ldr	r3, .L26
 689 043a 1B68     		ldr	r3, [r3]
 690 043c 8022     		movs	r2, #128
 691 043e DA60     		str	r2, [r3, #12]
 692              		.loc 2 316 0
 693 0440 094B     		ldr	r3, .L26
 694 0442 1B68     		ldr	r3, [r3]
 695 0444 0A4A     		ldr	r2, .L26+8
 696 0446 1A61     		str	r2, [r3, #16]
 697              		.loc 2 317 0
 698 0448 074B     		ldr	r3, .L26
 699 044a 1B68     		ldr	r3, [r3]
 700 044c 084A     		ldr	r2, .L26+8
 701 044e 1A61     		str	r2, [r3, #16]
 702              		.loc 2 319 0
 703 0450 FFF706FE 		bl	rtc_exit_init
 704 0454 07E0     		b	.L23
 705              	.L24:
 706              		.loc 2 322 0
 707 0456 044B     		ldr	r3, .L26
 708 0458 1B68     		ldr	r3, [r3]
 709 045a 034A     		ldr	r2, .L26
 710 045c 1268     		ldr	r2, [r2]
 711 045e D268     		ldr	r2, [r2, #12]
 712 0460 22F02002 		bic	r2, r2, #32
 713 0464 DA60     		str	r2, [r3, #12]
 714              	.L23:
 715              		.loc 2 323 0
 716 0466 08BD     		pop	{r3, pc}
 717              	.L27:
 718              		.align	2
 719              	.L26:
 720 0468 00000000 		.word	RTCD1
 721 046c 00280040 		.word	1073752064
 722 0470 FF031F00 		.word	2032639
 723              		.cfi_endproc
 724              	.LFE273:
 725              		.size	rtc_lld_init, .-rtc_lld_init
 726              		.align	2
 727 0474 AFF30080 		.p2align 4,,15
 727      AFF30080 
 727      AFF30080 
 728              		.global	rtc_lld_set_time
 729              		.thumb
 730              		.thumb_func
 731              		.type	rtc_lld_set_time, %function
 732              	rtc_lld_set_time:
 733              	.LFB274:
ARM GAS  /tmp/ccPTd56a.s 			page 14


 734              		.loc 2 336 0
 735              		.cfi_startproc
 736              		@ args = 0, pretend = 0, frame = 24
 737              		@ frame_needed = 0, uses_anonymous_args = 0
 738 0480 00B5     		push	{lr}
 739              		.cfi_def_cfa_offset 4
 740              		.cfi_offset 14, -4
 741 0482 87B0     		sub	sp, sp, #28
 742              		.cfi_def_cfa_offset 32
 743 0484 0190     		str	r0, [sp, #4]
 744 0486 0091     		str	r1, [sp]
 745              		.loc 2 340 0
 746 0488 0098     		ldr	r0, [sp]
 747 048a FFF7A9FE 		bl	rtc_encode_time
 748 048e 0590     		str	r0, [sp, #20]
 749              		.loc 2 341 0
 750 0490 0098     		ldr	r0, [sp]
 751 0492 FFF72DFF 		bl	rtc_encode_date
 752 0496 0490     		str	r0, [sp, #16]
 753              		.loc 2 344 0
 754 0498 FFF7B2FD 		bl	osalSysGetStatusAndLockX
 755 049c 0390     		str	r0, [sp, #12]
 756              		.loc 2 347 0
 757 049e FFF7C7FD 		bl	rtc_enter_init
 758              		.loc 2 348 0
 759 04a2 019B     		ldr	r3, [sp, #4]
 760 04a4 1B68     		ldr	r3, [r3]
 761 04a6 059A     		ldr	r2, [sp, #20]
 762 04a8 1A60     		str	r2, [r3]
 763              		.loc 2 349 0
 764 04aa 019B     		ldr	r3, [sp, #4]
 765 04ac 1B68     		ldr	r3, [r3]
 766 04ae 049A     		ldr	r2, [sp, #16]
 767 04b0 5A60     		str	r2, [r3, #4]
 768              		.loc 2 350 0
 769 04b2 019B     		ldr	r3, [sp, #4]
 770 04b4 1B68     		ldr	r3, [r3]
 771 04b6 019A     		ldr	r2, [sp, #4]
 772 04b8 1268     		ldr	r2, [r2]
 773 04ba 9168     		ldr	r1, [r2, #8]
 774 04bc 009A     		ldr	r2, [sp]
 775 04be 5278     		ldrb	r2, [r2, #1]
 776 04c0 C2F30012 		ubfx	r2, r2, #4, #1
 777 04c4 D2B2     		uxtb	r2, r2
 778 04c6 9204     		lsls	r2, r2, #18
 779 04c8 0A43     		orrs	r2, r2, r1
 780 04ca 9A60     		str	r2, [r3, #8]
 781              		.loc 2 351 0
 782 04cc FFF7C8FD 		bl	rtc_exit_init
 783              		.loc 2 354 0
 784 04d0 0398     		ldr	r0, [sp, #12]
 785 04d2 FFF79DFD 		bl	osalSysRestoreStatusX
 786              		.loc 2 355 0
 787 04d6 07B0     		add	sp, sp, #28
 788              		@ sp needed
 789 04d8 5DF804FB 		ldr	pc, [sp], #4
 790              		.cfi_endproc
ARM GAS  /tmp/ccPTd56a.s 			page 15


 791              	.LFE274:
 792              		.size	rtc_lld_set_time, .-rtc_lld_set_time
 793              		.align	2
 794 04dc AFF30080 		.p2align 4,,15
 795              		.global	rtc_lld_get_time
 796              		.thumb
 797              		.thumb_func
 798              		.type	rtc_lld_get_time, %function
 799              	rtc_lld_get_time:
 800              	.LFB275:
 801              		.loc 2 366 0
 802              		.cfi_startproc
 803              		@ args = 0, pretend = 0, frame = 32
 804              		@ frame_needed = 0, uses_anonymous_args = 0
 805 04e0 00B5     		push	{lr}
 806              		.cfi_def_cfa_offset 4
 807              		.cfi_offset 14, -4
 808 04e2 89B0     		sub	sp, sp, #36
 809              		.cfi_def_cfa_offset 40
 810 04e4 0190     		str	r0, [sp, #4]
 811 04e6 0091     		str	r1, [sp]
 812              		.loc 2 375 0
 813 04e8 FFF78AFD 		bl	osalSysGetStatusAndLockX
 814 04ec 0790     		str	r0, [sp, #28]
 815              		.loc 2 379 0
 816 04ee 00BF     		nop
 817              	.L30:
 818              		.loc 2 379 0 is_stmt 0 discriminator 1
 819 04f0 019B     		ldr	r3, [sp, #4]
 820 04f2 1B68     		ldr	r3, [r3]
 821 04f4 DB68     		ldr	r3, [r3, #12]
 822 04f6 03F02003 		and	r3, r3, #32
 823 04fa 002B     		cmp	r3, #0
 824 04fc F8D0     		beq	.L30
 825              		.loc 2 382 0 is_stmt 1
 826 04fe 019B     		ldr	r3, [sp, #4]
 827 0500 1B68     		ldr	r3, [r3]
 828 0502 9B6A     		ldr	r3, [r3, #40]
 829 0504 0693     		str	r3, [sp, #24]
 830              		.loc 2 384 0
 831 0506 019B     		ldr	r3, [sp, #4]
 832 0508 1B68     		ldr	r3, [r3]
 833 050a 1B68     		ldr	r3, [r3]
 834 050c 0593     		str	r3, [sp, #20]
 835              		.loc 2 385 0
 836 050e 019B     		ldr	r3, [sp, #4]
 837 0510 1B68     		ldr	r3, [r3]
 838 0512 5B68     		ldr	r3, [r3, #4]
 839 0514 0493     		str	r3, [sp, #16]
 840              		.loc 2 386 0
 841 0516 019B     		ldr	r3, [sp, #4]
 842 0518 1B68     		ldr	r3, [r3]
 843 051a 9B68     		ldr	r3, [r3, #8]
 844 051c 0393     		str	r3, [sp, #12]
 845              		.loc 2 387 0
 846 051e 019B     		ldr	r3, [sp, #4]
 847 0520 1B68     		ldr	r3, [r3]
ARM GAS  /tmp/ccPTd56a.s 			page 16


 848 0522 019A     		ldr	r2, [sp, #4]
 849 0524 1268     		ldr	r2, [r2]
 850 0526 D268     		ldr	r2, [r2, #12]
 851 0528 22F02002 		bic	r2, r2, #32
 852 052c DA60     		str	r2, [r3, #12]
 853              		.loc 2 390 0
 854 052e 0798     		ldr	r0, [sp, #28]
 855 0530 FFF76EFD 		bl	osalSysRestoreStatusX
 856              		.loc 2 394 0
 857 0534 0598     		ldr	r0, [sp, #20]
 858 0536 0099     		ldr	r1, [sp]
 859 0538 FFF7A2FD 		bl	rtc_decode_time
 860              		.loc 2 399 0
 861 053c 069B     		ldr	r3, [sp, #24]
 862 053e 144A     		ldr	r2, .L31
 863 0540 02FB03F3 		mul	r3, r2, r3
 864 0544 03F57923 		add	r3, r3, #1019904
 865 0548 03F61843 		addw	r3, r3, #3096
 866 054c 9B0A     		lsrs	r3, r3, #10
 867 054e 0293     		str	r3, [sp, #8]
 868              		.loc 2 403 0
 869 0550 009B     		ldr	r3, [sp]
 870 0552 5B68     		ldr	r3, [r3, #4]
 871 0554 C3F31A03 		ubfx	r3, r3, #0, #27
 872 0558 1A46     		mov	r2, r3
 873 055a 029B     		ldr	r3, [sp, #8]
 874 055c 1344     		add	r3, r3, r2
 875 055e 23F07841 		bic	r1, r3, #-134217728
 876 0562 009A     		ldr	r2, [sp]
 877 0564 5368     		ldr	r3, [r2, #4]
 878 0566 61F31A03 		bfi	r3, r1, #0, #27
 879 056a 5360     		str	r3, [r2, #4]
 880              		.loc 2 406 0
 881 056c 0498     		ldr	r0, [sp, #16]
 882 056e 0099     		ldr	r1, [sp]
 883 0570 FFF7D6FD 		bl	rtc_decode_date
 884              		.loc 2 409 0
 885 0574 039B     		ldr	r3, [sp, #12]
 886 0576 9B0C     		lsrs	r3, r3, #18
 887 0578 DBB2     		uxtb	r3, r3
 888 057a 03F00103 		and	r3, r3, #1
 889 057e D9B2     		uxtb	r1, r3
 890 0580 009A     		ldr	r2, [sp]
 891 0582 5378     		ldrb	r3, [r2, #1]
 892 0584 61F30413 		bfi	r3, r1, #4, #1
 893 0588 5370     		strb	r3, [r2, #1]
 894              		.loc 2 410 0
 895 058a 09B0     		add	sp, sp, #36
 896              		@ sp needed
 897 058c 5DF804FB 		ldr	pc, [sp], #4
 898              	.L32:
 899              		.align	2
 900              	.L31:
 901 0590 18FCFFFF 		.word	-1000
 902              		.cfi_endproc
 903              	.LFE275:
 904              		.size	rtc_lld_get_time, .-rtc_lld_get_time
ARM GAS  /tmp/ccPTd56a.s 			page 17


 905              		.align	2
 906 0594 AFF30080 		.p2align 4,,15
 906      AFF30080 
 906      AFF30080 
 907              		.global	rtc_lld_set_alarm
 908              		.thumb
 909              		.thumb_func
 910              		.type	rtc_lld_set_alarm, %function
 911              	rtc_lld_set_alarm:
 912              	.LFB276:
 913              		.loc 2 427 0
 914              		.cfi_startproc
 915              		@ args = 0, pretend = 0, frame = 24
 916              		@ frame_needed = 0, uses_anonymous_args = 0
 917 05a0 00B5     		push	{lr}
 918              		.cfi_def_cfa_offset 4
 919              		.cfi_offset 14, -4
 920 05a2 87B0     		sub	sp, sp, #28
 921              		.cfi_def_cfa_offset 32
 922 05a4 0390     		str	r0, [sp, #12]
 923 05a6 0291     		str	r1, [sp, #8]
 924 05a8 0192     		str	r2, [sp, #4]
 925              		.loc 2 431 0
 926 05aa FFF729FD 		bl	osalSysGetStatusAndLockX
 927 05ae 0590     		str	r0, [sp, #20]
 928              		.loc 2 433 0
 929 05b0 029B     		ldr	r3, [sp, #8]
 930 05b2 002B     		cmp	r3, #0
 931 05b4 39D1     		bne	.L34
 932              		.loc 2 434 0
 933 05b6 019B     		ldr	r3, [sp, #4]
 934 05b8 002B     		cmp	r3, #0
 935 05ba 25D0     		beq	.L35
 936              		.loc 2 435 0
 937 05bc 039B     		ldr	r3, [sp, #12]
 938 05be 1B68     		ldr	r3, [r3]
 939 05c0 039A     		ldr	r2, [sp, #12]
 940 05c2 1268     		ldr	r2, [r2]
 941 05c4 9268     		ldr	r2, [r2, #8]
 942 05c6 22F48072 		bic	r2, r2, #256
 943 05ca 9A60     		str	r2, [r3, #8]
 944              		.loc 2 436 0
 945 05cc 00BF     		nop
 946              	.L36:
 947              		.loc 2 436 0 is_stmt 0 discriminator 1
 948 05ce 039B     		ldr	r3, [sp, #12]
 949 05d0 1B68     		ldr	r3, [r3]
 950 05d2 DB68     		ldr	r3, [r3, #12]
 951 05d4 03F00103 		and	r3, r3, #1
 952 05d8 002B     		cmp	r3, #0
 953 05da F8D0     		beq	.L36
 954              		.loc 2 438 0 is_stmt 1
 955 05dc 039B     		ldr	r3, [sp, #12]
 956 05de 1B68     		ldr	r3, [r3]
 957 05e0 019A     		ldr	r2, [sp, #4]
 958 05e2 1268     		ldr	r2, [r2]
 959 05e4 DA61     		str	r2, [r3, #28]
ARM GAS  /tmp/ccPTd56a.s 			page 18


 960              		.loc 2 439 0
 961 05e6 039B     		ldr	r3, [sp, #12]
 962 05e8 1B68     		ldr	r3, [r3]
 963 05ea 039A     		ldr	r2, [sp, #12]
 964 05ec 1268     		ldr	r2, [r2]
 965 05ee 9268     		ldr	r2, [r2, #8]
 966 05f0 42F48072 		orr	r2, r2, #256
 967 05f4 9A60     		str	r2, [r3, #8]
 968              		.loc 2 440 0
 969 05f6 039B     		ldr	r3, [sp, #12]
 970 05f8 1B68     		ldr	r3, [r3]
 971 05fa 039A     		ldr	r2, [sp, #12]
 972 05fc 1268     		ldr	r2, [r2]
 973 05fe 9268     		ldr	r2, [r2, #8]
 974 0600 42F48052 		orr	r2, r2, #4096
 975 0604 9A60     		str	r2, [r3, #8]
 976 0606 49E0     		b	.L38
 977              	.L35:
 978              		.loc 2 443 0
 979 0608 039B     		ldr	r3, [sp, #12]
 980 060a 1B68     		ldr	r3, [r3]
 981 060c 039A     		ldr	r2, [sp, #12]
 982 060e 1268     		ldr	r2, [r2]
 983 0610 9268     		ldr	r2, [r2, #8]
 984 0612 22F48052 		bic	r2, r2, #4096
 985 0616 9A60     		str	r2, [r3, #8]
 986              		.loc 2 444 0
 987 0618 039B     		ldr	r3, [sp, #12]
 988 061a 1B68     		ldr	r3, [r3]
 989 061c 039A     		ldr	r2, [sp, #12]
 990 061e 1268     		ldr	r2, [r2]
 991 0620 9268     		ldr	r2, [r2, #8]
 992 0622 22F48072 		bic	r2, r2, #256
 993 0626 9A60     		str	r2, [r3, #8]
 994 0628 38E0     		b	.L38
 995              	.L34:
 996              		.loc 2 449 0
 997 062a 019B     		ldr	r3, [sp, #4]
 998 062c 002B     		cmp	r3, #0
 999 062e 25D0     		beq	.L39
 1000              		.loc 2 450 0
 1001 0630 039B     		ldr	r3, [sp, #12]
 1002 0632 1B68     		ldr	r3, [r3]
 1003 0634 039A     		ldr	r2, [sp, #12]
 1004 0636 1268     		ldr	r2, [r2]
 1005 0638 9268     		ldr	r2, [r2, #8]
 1006 063a 22F40072 		bic	r2, r2, #512
 1007 063e 9A60     		str	r2, [r3, #8]
 1008              		.loc 2 451 0
 1009 0640 00BF     		nop
 1010              	.L40:
 1011              		.loc 2 451 0 is_stmt 0 discriminator 1
 1012 0642 039B     		ldr	r3, [sp, #12]
 1013 0644 1B68     		ldr	r3, [r3]
 1014 0646 DB68     		ldr	r3, [r3, #12]
 1015 0648 03F00203 		and	r3, r3, #2
 1016 064c 002B     		cmp	r3, #0
ARM GAS  /tmp/ccPTd56a.s 			page 19


 1017 064e F8D0     		beq	.L40
 1018              		.loc 2 453 0 is_stmt 1
 1019 0650 039B     		ldr	r3, [sp, #12]
 1020 0652 1B68     		ldr	r3, [r3]
 1021 0654 019A     		ldr	r2, [sp, #4]
 1022 0656 1268     		ldr	r2, [r2]
 1023 0658 1A62     		str	r2, [r3, #32]
 1024              		.loc 2 454 0
 1025 065a 039B     		ldr	r3, [sp, #12]
 1026 065c 1B68     		ldr	r3, [r3]
 1027 065e 039A     		ldr	r2, [sp, #12]
 1028 0660 1268     		ldr	r2, [r2]
 1029 0662 9268     		ldr	r2, [r2, #8]
 1030 0664 42F40072 		orr	r2, r2, #512
 1031 0668 9A60     		str	r2, [r3, #8]
 1032              		.loc 2 455 0
 1033 066a 039B     		ldr	r3, [sp, #12]
 1034 066c 1B68     		ldr	r3, [r3]
 1035 066e 039A     		ldr	r2, [sp, #12]
 1036 0670 1268     		ldr	r2, [r2]
 1037 0672 9268     		ldr	r2, [r2, #8]
 1038 0674 42F40052 		orr	r2, r2, #8192
 1039 0678 9A60     		str	r2, [r3, #8]
 1040 067a 0FE0     		b	.L38
 1041              	.L39:
 1042              		.loc 2 458 0
 1043 067c 039B     		ldr	r3, [sp, #12]
 1044 067e 1B68     		ldr	r3, [r3]
 1045 0680 039A     		ldr	r2, [sp, #12]
 1046 0682 1268     		ldr	r2, [r2]
 1047 0684 9268     		ldr	r2, [r2, #8]
 1048 0686 22F40052 		bic	r2, r2, #8192
 1049 068a 9A60     		str	r2, [r3, #8]
 1050              		.loc 2 459 0
 1051 068c 039B     		ldr	r3, [sp, #12]
 1052 068e 1B68     		ldr	r3, [r3]
 1053 0690 039A     		ldr	r2, [sp, #12]
 1054 0692 1268     		ldr	r2, [r2]
 1055 0694 9268     		ldr	r2, [r2, #8]
 1056 0696 22F40072 		bic	r2, r2, #512
 1057 069a 9A60     		str	r2, [r3, #8]
 1058              	.L38:
 1059              		.loc 2 465 0
 1060 069c 0598     		ldr	r0, [sp, #20]
 1061 069e FFF7B7FC 		bl	osalSysRestoreStatusX
 1062              		.loc 2 466 0
 1063 06a2 07B0     		add	sp, sp, #28
 1064              		@ sp needed
 1065 06a4 5DF804FB 		ldr	pc, [sp], #4
 1066              		.cfi_endproc
 1067              	.LFE276:
 1068              		.size	rtc_lld_set_alarm, .-rtc_lld_set_alarm
 1069              		.align	2
 1070 06a8 AFF30080 		.p2align 4,,15
 1070      AFF30080 
 1071              		.global	rtc_lld_get_alarm
 1072              		.thumb
ARM GAS  /tmp/ccPTd56a.s 			page 20


 1073              		.thumb_func
 1074              		.type	rtc_lld_get_alarm, %function
 1075              	rtc_lld_get_alarm:
 1076              	.LFB277:
 1077              		.loc 2 480 0
 1078              		.cfi_startproc
 1079              		@ args = 0, pretend = 0, frame = 16
 1080              		@ frame_needed = 0, uses_anonymous_args = 0
 1081              		@ link register save eliminated.
 1082 06b0 84B0     		sub	sp, sp, #16
 1083              		.cfi_def_cfa_offset 16
 1084 06b2 0390     		str	r0, [sp, #12]
 1085 06b4 0291     		str	r1, [sp, #8]
 1086 06b6 0192     		str	r2, [sp, #4]
 1087              		.loc 2 482 0
 1088 06b8 029B     		ldr	r3, [sp, #8]
 1089 06ba 002B     		cmp	r3, #0
 1090 06bc 05D1     		bne	.L42
 1091              		.loc 2 483 0
 1092 06be 039B     		ldr	r3, [sp, #12]
 1093 06c0 1B68     		ldr	r3, [r3]
 1094 06c2 DA69     		ldr	r2, [r3, #28]
 1095 06c4 019B     		ldr	r3, [sp, #4]
 1096 06c6 1A60     		str	r2, [r3]
 1097 06c8 04E0     		b	.L41
 1098              	.L42:
 1099              		.loc 2 486 0
 1100 06ca 039B     		ldr	r3, [sp, #12]
 1101 06cc 1B68     		ldr	r3, [r3]
 1102 06ce 1A6A     		ldr	r2, [r3, #32]
 1103 06d0 019B     		ldr	r3, [sp, #4]
 1104 06d2 1A60     		str	r2, [r3]
 1105              	.L41:
 1106              		.loc 2 488 0
 1107 06d4 04B0     		add	sp, sp, #16
 1108              		@ sp needed
 1109 06d6 7047     		bx	lr
 1110              		.cfi_endproc
 1111              	.LFE277:
 1112              		.size	rtc_lld_get_alarm, .-rtc_lld_get_alarm
 1113              		.align	2
 1114 06d8 AFF30080 		.p2align 4,,15
 1114      AFF30080 
 1115              		.global	rtcSTM32SetPeriodicWakeup
 1116              		.thumb
 1117              		.thumb_func
 1118              		.type	rtcSTM32SetPeriodicWakeup, %function
 1119              	rtcSTM32SetPeriodicWakeup:
 1120              	.LFB278:
 1121              		.loc 2 502 0
 1122              		.cfi_startproc
 1123              		@ args = 0, pretend = 0, frame = 16
 1124              		@ frame_needed = 0, uses_anonymous_args = 0
 1125 06e0 00B5     		push	{lr}
 1126              		.cfi_def_cfa_offset 4
 1127              		.cfi_offset 14, -4
 1128 06e2 85B0     		sub	sp, sp, #20
ARM GAS  /tmp/ccPTd56a.s 			page 21


 1129              		.cfi_def_cfa_offset 24
 1130 06e4 0190     		str	r0, [sp, #4]
 1131 06e6 0091     		str	r1, [sp]
 1132              		.loc 2 506 0
 1133 06e8 FFF78AFC 		bl	osalSysGetStatusAndLockX
 1134 06ec 0390     		str	r0, [sp, #12]
 1135              		.loc 2 508 0
 1136 06ee 009B     		ldr	r3, [sp]
 1137 06f0 002B     		cmp	r3, #0
 1138 06f2 2ED0     		beq	.L45
 1139              		.loc 2 511 0
 1140 06f4 019B     		ldr	r3, [sp, #4]
 1141 06f6 1B68     		ldr	r3, [r3]
 1142 06f8 019A     		ldr	r2, [sp, #4]
 1143 06fa 1268     		ldr	r2, [r2]
 1144 06fc 9268     		ldr	r2, [r2, #8]
 1145 06fe 22F48062 		bic	r2, r2, #1024
 1146 0702 9A60     		str	r2, [r3, #8]
 1147              		.loc 2 512 0
 1148 0704 00BF     		nop
 1149              	.L46:
 1150              		.loc 2 512 0 is_stmt 0 discriminator 1
 1151 0706 019B     		ldr	r3, [sp, #4]
 1152 0708 1B68     		ldr	r3, [r3]
 1153 070a DB68     		ldr	r3, [r3, #12]
 1154 070c 03F00403 		and	r3, r3, #4
 1155 0710 002B     		cmp	r3, #0
 1156 0712 F8D0     		beq	.L46
 1157              		.loc 2 514 0 is_stmt 1
 1158 0714 019B     		ldr	r3, [sp, #4]
 1159 0716 1B68     		ldr	r3, [r3]
 1160 0718 009A     		ldr	r2, [sp]
 1161 071a 1268     		ldr	r2, [r2]
 1162 071c 92B2     		uxth	r2, r2
 1163 071e 5A61     		str	r2, [r3, #20]
 1164              		.loc 2 515 0
 1165 0720 019B     		ldr	r3, [sp, #4]
 1166 0722 1B68     		ldr	r3, [r3]
 1167 0724 009A     		ldr	r2, [sp]
 1168 0726 1268     		ldr	r2, [r2]
 1169 0728 120C     		lsrs	r2, r2, #16
 1170 072a 02F00702 		and	r2, r2, #7
 1171 072e 9A60     		str	r2, [r3, #8]
 1172              		.loc 2 516 0
 1173 0730 019B     		ldr	r3, [sp, #4]
 1174 0732 1B68     		ldr	r3, [r3]
 1175 0734 019A     		ldr	r2, [sp, #4]
 1176 0736 1268     		ldr	r2, [r2]
 1177 0738 9268     		ldr	r2, [r2, #8]
 1178 073a 42F48042 		orr	r2, r2, #16384
 1179 073e 9A60     		str	r2, [r3, #8]
 1180              		.loc 2 517 0
 1181 0740 019B     		ldr	r3, [sp, #4]
 1182 0742 1B68     		ldr	r3, [r3]
 1183 0744 019A     		ldr	r2, [sp, #4]
 1184 0746 1268     		ldr	r2, [r2]
 1185 0748 9268     		ldr	r2, [r2, #8]
ARM GAS  /tmp/ccPTd56a.s 			page 22


 1186 074a 42F48062 		orr	r2, r2, #1024
 1187 074e 9A60     		str	r2, [r3, #8]
 1188 0750 0FE0     		b	.L47
 1189              	.L45:
 1190              		.loc 2 520 0
 1191 0752 019B     		ldr	r3, [sp, #4]
 1192 0754 1B68     		ldr	r3, [r3]
 1193 0756 019A     		ldr	r2, [sp, #4]
 1194 0758 1268     		ldr	r2, [r2]
 1195 075a 9268     		ldr	r2, [r2, #8]
 1196 075c 22F48042 		bic	r2, r2, #16384
 1197 0760 9A60     		str	r2, [r3, #8]
 1198              		.loc 2 521 0
 1199 0762 019B     		ldr	r3, [sp, #4]
 1200 0764 1B68     		ldr	r3, [r3]
 1201 0766 019A     		ldr	r2, [sp, #4]
 1202 0768 1268     		ldr	r2, [r2]
 1203 076a 9268     		ldr	r2, [r2, #8]
 1204 076c 22F48062 		bic	r2, r2, #1024
 1205 0770 9A60     		str	r2, [r3, #8]
 1206              	.L47:
 1207              		.loc 2 525 0
 1208 0772 0398     		ldr	r0, [sp, #12]
 1209 0774 FFF74CFC 		bl	osalSysRestoreStatusX
 1210              		.loc 2 526 0
 1211 0778 05B0     		add	sp, sp, #20
 1212              		@ sp needed
 1213 077a 5DF804FB 		ldr	pc, [sp], #4
 1214              		.cfi_endproc
 1215              	.LFE278:
 1216              		.size	rtcSTM32SetPeriodicWakeup, .-rtcSTM32SetPeriodicWakeup
 1217 077e 00BF     		.align	2
 1218              		.p2align 4,,15
 1219              		.global	rtcSTM32GetPeriodicWakeup
 1220              		.thumb
 1221              		.thumb_func
 1222              		.type	rtcSTM32GetPeriodicWakeup, %function
 1223              	rtcSTM32GetPeriodicWakeup:
 1224              	.LFB279:
 1225              		.loc 2 538 0
 1226              		.cfi_startproc
 1227              		@ args = 0, pretend = 0, frame = 16
 1228              		@ frame_needed = 0, uses_anonymous_args = 0
 1229 0780 00B5     		push	{lr}
 1230              		.cfi_def_cfa_offset 4
 1231              		.cfi_offset 14, -4
 1232 0782 85B0     		sub	sp, sp, #20
 1233              		.cfi_def_cfa_offset 24
 1234 0784 0190     		str	r0, [sp, #4]
 1235 0786 0091     		str	r1, [sp]
 1236              		.loc 2 542 0
 1237 0788 FFF73AFC 		bl	osalSysGetStatusAndLockX
 1238 078c 0390     		str	r0, [sp, #12]
 1239              		.loc 2 544 0
 1240 078e 009B     		ldr	r3, [sp]
 1241 0790 0022     		movs	r2, #0
 1242 0792 1A60     		str	r2, [r3]
ARM GAS  /tmp/ccPTd56a.s 			page 23


 1243              		.loc 2 545 0
 1244 0794 009B     		ldr	r3, [sp]
 1245 0796 1A68     		ldr	r2, [r3]
 1246 0798 019B     		ldr	r3, [sp, #4]
 1247 079a 1B68     		ldr	r3, [r3]
 1248 079c 5B69     		ldr	r3, [r3, #20]
 1249 079e 1A43     		orrs	r2, r2, r3
 1250 07a0 009B     		ldr	r3, [sp]
 1251 07a2 1A60     		str	r2, [r3]
 1252              		.loc 2 546 0
 1253 07a4 009B     		ldr	r3, [sp]
 1254 07a6 1A68     		ldr	r2, [r3]
 1255 07a8 019B     		ldr	r3, [sp, #4]
 1256 07aa 1B68     		ldr	r3, [r3]
 1257 07ac 9B68     		ldr	r3, [r3, #8]
 1258 07ae 03F00703 		and	r3, r3, #7
 1259 07b2 1B04     		lsls	r3, r3, #16
 1260 07b4 1A43     		orrs	r2, r2, r3
 1261 07b6 009B     		ldr	r3, [sp]
 1262 07b8 1A60     		str	r2, [r3]
 1263              		.loc 2 549 0
 1264 07ba 0398     		ldr	r0, [sp, #12]
 1265 07bc FFF728FC 		bl	osalSysRestoreStatusX
 1266              		.loc 2 550 0
 1267 07c0 05B0     		add	sp, sp, #20
 1268              		@ sp needed
 1269 07c2 5DF804FB 		ldr	pc, [sp], #4
 1270              		.cfi_endproc
 1271              	.LFE279:
 1272              		.size	rtcSTM32GetPeriodicWakeup, .-rtcSTM32GetPeriodicWakeup
 1273              	.Letext0:
 1274              		.file 3 "/nfs/nfs5/home/research/hardware/arm2/gcc-arm-embedded/gcc-arm-none-eabi-4_8-2014q2/lib/g
 1275              		.file 4 "/nfs/nfs5/home/research/hardware/arm2/gcc-arm-embedded/gcc-arm-none-eabi-4_8-2014q2/arm-n
 1276              		.file 5 "/nfs/nfs5/home/research/hardware/arm2/gcc-arm-embedded/gcc-arm-none-eabi-4_8-2014q2/arm-n
 1277              		.file 6 "../ChibiOS/os/rt/ports/ARMCMx/compilers/GCC/chtypes.h"
 1278              		.file 7 "../ChibiOS/os/rt/include/chsystypes.h"
 1279              		.file 8 "../ChibiOS/os/rt/include/chschd.h"
 1280              		.file 9 "../ChibiOS/os/ext/CMSIS/ST/STM32L4xx/stm32l476xx.h"
 1281              		.file 10 "../ChibiOS/os/rt/ports/ARMCMx/chcore.h"
 1282              		.file 11 "../ChibiOS/os/rt/ports/ARMCMx/chcore_v7m.h"
 1283              		.file 12 "../ChibiOS/os/rt/include/chtm.h"
 1284              		.file 13 "../ChibiOS/os/rt/include/chsem.h"
 1285              		.file 14 "../ChibiOS/os/rt/include/chmtx.h"
 1286              		.file 15 "../ChibiOS/os/hal/include/rtc.h"
 1287              		.file 16 "../ChibiOS/os/hal/ports/STM32/LLD/RTCv2/rtc_lld.h"
 1288              		.file 17 "../ChibiOS/os/ext/CMSIS/include/core_cm4.h"