ARM GAS  /tmp/ccDnkyfG.s 			page 1


   1              		.syntax unified
   2              		.cpu cortex-m4
   3              		.fpu softvfp
   4              		.eabi_attribute 20, 1
   5              		.eabi_attribute 21, 1
   6              		.eabi_attribute 23, 3
   7              		.eabi_attribute 24, 1
   8              		.eabi_attribute 25, 1
   9              		.eabi_attribute 26, 1
  10              		.eabi_attribute 30, 6
  11              		.eabi_attribute 34, 1
  12              		.eabi_attribute 18, 4
  13              		.thumb
  14              		.file	"spi_lld.c"
  15              		.text
  16              	.Ltext0:
  17              		.cfi_sections	.debug_frame
  18              		.align	2
  19              		.p2align 4,,15
  20              		.thumb
  21              		.thumb_func
  22              		.type	port_lock, %function
  23              	port_lock:
  24              	.LFB127:
  25              		.file 1 "../ChibiOS/os/rt/ports/ARMCMx/chcore_v7m.h"
  26              		.loc 1 456 0
  27              		.cfi_startproc
  28              		@ args = 0, pretend = 0, frame = 8
  29              		@ frame_needed = 0, uses_anonymous_args = 0
  30              		@ link register save eliminated.
  31 0000 82B0     		sub	sp, sp, #8
  32              		.cfi_def_cfa_offset 8
  33 0002 2023     		movs	r3, #32
  34 0004 0193     		str	r3, [sp, #4]
  35              	.LBB6:
  36              	.LBB7:
  37              		.file 2 "../ChibiOS/os/ext/CMSIS/include/core_cmFunc.h"
  38              		.loc 2 548 0
  39 0006 019B     		ldr	r3, [sp, #4]
  40              	@ 548 "../ChibiOS/os/ext/CMSIS/include/core_cmFunc.h" 1
  41 0008 83F31188 		MSR basepri, r3
  42              	@ 0 "" 2
  43              		.thumb
  44              	.LBE7:
  45              	.LBE6:
  46              		.loc 1 473 0
  47 000c 02B0     		add	sp, sp, #8
  48              		@ sp needed
  49 000e 7047     		bx	lr
  50              		.cfi_endproc
  51              	.LFE127:
  52              		.size	port_lock, .-port_lock
  53              		.align	2
  54              		.p2align 4,,15
  55              		.thumb
  56              		.thumb_func
  57              		.type	port_unlock, %function
ARM GAS  /tmp/ccDnkyfG.s 			page 2


  58              	port_unlock:
  59              	.LFB128:
  60              		.loc 1 480 0
  61              		.cfi_startproc
  62              		@ args = 0, pretend = 0, frame = 8
  63              		@ frame_needed = 0, uses_anonymous_args = 0
  64              		@ link register save eliminated.
  65 0010 82B0     		sub	sp, sp, #8
  66              		.cfi_def_cfa_offset 8
  67 0012 0023     		movs	r3, #0
  68 0014 0193     		str	r3, [sp, #4]
  69              	.LBB8:
  70              	.LBB9:
  71              		.loc 2 548 0
  72 0016 019B     		ldr	r3, [sp, #4]
  73              	@ 548 "../ChibiOS/os/ext/CMSIS/include/core_cmFunc.h" 1
  74 0018 83F31188 		MSR basepri, r3
  75              	@ 0 "" 2
  76              		.thumb
  77              	.LBE9:
  78              	.LBE8:
  79              		.loc 1 487 0
  80 001c 02B0     		add	sp, sp, #8
  81              		@ sp needed
  82 001e 7047     		bx	lr
  83              		.cfi_endproc
  84              	.LFE128:
  85              		.size	port_unlock, .-port_unlock
  86              		.align	2
  87              		.p2align 4,,15
  88              		.thumb
  89              		.thumb_func
  90              		.type	port_lock_from_isr, %function
  91              	port_lock_from_isr:
  92              	.LFB129:
  93              		.loc 1 495 0
  94              		.cfi_startproc
  95              		@ args = 0, pretend = 0, frame = 0
  96              		@ frame_needed = 0, uses_anonymous_args = 0
  97 0020 08B5     		push	{r3, lr}
  98              		.cfi_def_cfa_offset 8
  99              		.cfi_offset 3, -8
 100              		.cfi_offset 14, -4
 101              		.loc 1 497 0
 102 0022 FFF7EDFF 		bl	port_lock
 103              		.loc 1 498 0
 104 0026 08BD     		pop	{r3, pc}
 105              		.cfi_endproc
 106              	.LFE129:
 107              		.size	port_lock_from_isr, .-port_lock_from_isr
 108              		.align	2
 109 0028 AFF30080 		.p2align 4,,15
 109      AFF30080 
 110              		.thumb
 111              		.thumb_func
 112              		.type	port_unlock_from_isr, %function
 113              	port_unlock_from_isr:
ARM GAS  /tmp/ccDnkyfG.s 			page 3


 114              	.LFB130:
 115              		.loc 1 506 0
 116              		.cfi_startproc
 117              		@ args = 0, pretend = 0, frame = 0
 118              		@ frame_needed = 0, uses_anonymous_args = 0
 119 0030 08B5     		push	{r3, lr}
 120              		.cfi_def_cfa_offset 8
 121              		.cfi_offset 3, -8
 122              		.cfi_offset 14, -4
 123              		.loc 1 508 0
 124 0032 FFF7EDFF 		bl	port_unlock
 125              		.loc 1 509 0
 126 0036 08BD     		pop	{r3, pc}
 127              		.cfi_endproc
 128              	.LFE130:
 129              		.size	port_unlock_from_isr, .-port_unlock_from_isr
 130              		.align	2
 131 0038 AFF30080 		.p2align 4,,15
 131      AFF30080 
 132              		.thumb
 133              		.thumb_func
 134              		.type	chSysLock, %function
 135              	chSysLock:
 136              	.LFB156:
 137              		.file 3 "../ChibiOS/os/rt/include/chsys.h"
 138              		.loc 3 346 0
 139              		.cfi_startproc
 140              		@ args = 0, pretend = 0, frame = 0
 141              		@ frame_needed = 0, uses_anonymous_args = 0
 142 0040 08B5     		push	{r3, lr}
 143              		.cfi_def_cfa_offset 8
 144              		.cfi_offset 3, -8
 145              		.cfi_offset 14, -4
 146              		.loc 3 348 0
 147 0042 FFF7DDFF 		bl	port_lock
 148              		.loc 3 351 0
 149 0046 08BD     		pop	{r3, pc}
 150              		.cfi_endproc
 151              	.LFE156:
 152              		.size	chSysLock, .-chSysLock
 153              		.align	2
 154 0048 AFF30080 		.p2align 4,,15
 154      AFF30080 
 155              		.thumb
 156              		.thumb_func
 157              		.type	chSysUnlock, %function
 158              	chSysUnlock:
 159              	.LFB157:
 160              		.loc 3 358 0
 161              		.cfi_startproc
 162              		@ args = 0, pretend = 0, frame = 0
 163              		@ frame_needed = 0, uses_anonymous_args = 0
 164 0050 08B5     		push	{r3, lr}
 165              		.cfi_def_cfa_offset 8
 166              		.cfi_offset 3, -8
 167              		.cfi_offset 14, -4
 168              		.loc 3 371 0
ARM GAS  /tmp/ccDnkyfG.s 			page 4


 169 0052 FFF7DDFF 		bl	port_unlock
 170              		.loc 3 372 0
 171 0056 08BD     		pop	{r3, pc}
 172              		.cfi_endproc
 173              	.LFE157:
 174              		.size	chSysUnlock, .-chSysUnlock
 175              		.align	2
 176 0058 AFF30080 		.p2align 4,,15
 176      AFF30080 
 177              		.thumb
 178              		.thumb_func
 179              		.type	chSysLockFromISR, %function
 180              	chSysLockFromISR:
 181              	.LFB158:
 182              		.loc 3 386 0
 183              		.cfi_startproc
 184              		@ args = 0, pretend = 0, frame = 0
 185              		@ frame_needed = 0, uses_anonymous_args = 0
 186 0060 08B5     		push	{r3, lr}
 187              		.cfi_def_cfa_offset 8
 188              		.cfi_offset 3, -8
 189              		.cfi_offset 14, -4
 190              		.loc 3 388 0
 191 0062 FFF7DDFF 		bl	port_lock_from_isr
 192              		.loc 3 391 0
 193 0066 08BD     		pop	{r3, pc}
 194              		.cfi_endproc
 195              	.LFE158:
 196              		.size	chSysLockFromISR, .-chSysLockFromISR
 197              		.align	2
 198 0068 AFF30080 		.p2align 4,,15
 198      AFF30080 
 199              		.thumb
 200              		.thumb_func
 201              		.type	chSysUnlockFromISR, %function
 202              	chSysUnlockFromISR:
 203              	.LFB159:
 204              		.loc 3 406 0
 205              		.cfi_startproc
 206              		@ args = 0, pretend = 0, frame = 0
 207              		@ frame_needed = 0, uses_anonymous_args = 0
 208 0070 08B5     		push	{r3, lr}
 209              		.cfi_def_cfa_offset 8
 210              		.cfi_offset 3, -8
 211              		.cfi_offset 14, -4
 212              		.loc 3 410 0
 213 0072 FFF7DDFF 		bl	port_unlock_from_isr
 214              		.loc 3 411 0
 215 0076 08BD     		pop	{r3, pc}
 216              		.cfi_endproc
 217              	.LFE159:
 218              		.size	chSysUnlockFromISR, .-chSysUnlockFromISR
 219              		.align	2
 220 0078 AFF30080 		.p2align 4,,15
 220      AFF30080 
 221              		.thumb
 222              		.thumb_func
ARM GAS  /tmp/ccDnkyfG.s 			page 5


 223              		.type	osalSysHalt, %function
 224              	osalSysHalt:
 225              	.LFB231:
 226              		.file 4 "../ChibiOS/os/hal/osal/rt/osal.h"
 227              		.loc 4 460 0
 228              		.cfi_startproc
 229              		@ args = 0, pretend = 0, frame = 8
 230              		@ frame_needed = 0, uses_anonymous_args = 0
 231 0080 00B5     		push	{lr}
 232              		.cfi_def_cfa_offset 4
 233              		.cfi_offset 14, -4
 234 0082 83B0     		sub	sp, sp, #12
 235              		.cfi_def_cfa_offset 16
 236 0084 0190     		str	r0, [sp, #4]
 237              		.loc 4 462 0
 238 0086 0198     		ldr	r0, [sp, #4]
 239 0088 FFF7FEFF 		bl	chSysHalt
 240              		.loc 4 463 0
 241 008c 03B0     		add	sp, sp, #12
 242              		@ sp needed
 243 008e 5DF804FB 		ldr	pc, [sp], #4
 244              		.cfi_endproc
 245              	.LFE231:
 246              		.size	osalSysHalt, .-osalSysHalt
 247 0092 00BF     		.align	2
 248 0094 AFF30080 		.p2align 4,,15
 248      AFF30080 
 248      AFF30080 
 249              		.thumb
 250              		.thumb_func
 251              		.type	osalSysLockFromISR, %function
 252              	osalSysLockFromISR:
 253              	.LFB236:
 254              		.loc 4 513 0
 255              		.cfi_startproc
 256              		@ args = 0, pretend = 0, frame = 0
 257              		@ frame_needed = 0, uses_anonymous_args = 0
 258 00a0 08B5     		push	{r3, lr}
 259              		.cfi_def_cfa_offset 8
 260              		.cfi_offset 3, -8
 261              		.cfi_offset 14, -4
 262              		.loc 4 515 0
 263 00a2 FFF7DDFF 		bl	chSysLockFromISR
 264              		.loc 4 516 0
 265 00a6 08BD     		pop	{r3, pc}
 266              		.cfi_endproc
 267              	.LFE236:
 268              		.size	osalSysLockFromISR, .-osalSysLockFromISR
 269              		.align	2
 270 00a8 AFF30080 		.p2align 4,,15
 270      AFF30080 
 271              		.thumb
 272              		.thumb_func
 273              		.type	osalSysUnlockFromISR, %function
 274              	osalSysUnlockFromISR:
 275              	.LFB237:
 276              		.loc 4 524 0
ARM GAS  /tmp/ccDnkyfG.s 			page 6


 277              		.cfi_startproc
 278              		@ args = 0, pretend = 0, frame = 0
 279              		@ frame_needed = 0, uses_anonymous_args = 0
 280 00b0 08B5     		push	{r3, lr}
 281              		.cfi_def_cfa_offset 8
 282              		.cfi_offset 3, -8
 283              		.cfi_offset 14, -4
 284              		.loc 4 526 0
 285 00b2 FFF7DDFF 		bl	chSysUnlockFromISR
 286              		.loc 4 527 0
 287 00b6 08BD     		pop	{r3, pc}
 288              		.cfi_endproc
 289              	.LFE237:
 290              		.size	osalSysUnlockFromISR, .-osalSysUnlockFromISR
 291              		.align	2
 292 00b8 AFF30080 		.p2align 4,,15
 292      AFF30080 
 293              		.thumb
 294              		.thumb_func
 295              		.type	osalThreadResumeI, %function
 296              	osalThreadResumeI:
 297              	.LFB249:
 298              		.loc 4 726 0
 299              		.cfi_startproc
 300              		@ args = 0, pretend = 0, frame = 8
 301              		@ frame_needed = 0, uses_anonymous_args = 0
 302 00c0 00B5     		push	{lr}
 303              		.cfi_def_cfa_offset 4
 304              		.cfi_offset 14, -4
 305 00c2 83B0     		sub	sp, sp, #12
 306              		.cfi_def_cfa_offset 16
 307 00c4 0190     		str	r0, [sp, #4]
 308 00c6 0091     		str	r1, [sp]
 309              		.loc 4 728 0
 310 00c8 0198     		ldr	r0, [sp, #4]
 311 00ca 0099     		ldr	r1, [sp]
 312 00cc FFF7FEFF 		bl	chThdResumeI
 313              		.loc 4 729 0
 314 00d0 03B0     		add	sp, sp, #12
 315              		@ sp needed
 316 00d2 5DF804FB 		ldr	pc, [sp], #4
 317              		.cfi_endproc
 318              	.LFE249:
 319              		.size	osalThreadResumeI, .-osalThreadResumeI
 320              		.comm	SPID1,48,4
 321              		.comm	SPID2,48,4
 322              		.section	.rodata
 323              		.align	1
 324              		.type	dummytx, %object
 325              		.size	dummytx, 2
 326              	dummytx:
 327 0000 FFFF     		.short	-1
 328              		.bss
 329              		.align	1
 330              	dummyrx:
 331 0000 0000     		.space	2
 332              		.section	.rodata
ARM GAS  /tmp/ccDnkyfG.s 			page 7


 333 0002 0000     		.align	2
 334              	.LC0:
 335 0004 444D4120 		.ascii	"DMA failure\000"
 335      6661696C 
 335      75726500 
 336              		.text
 337 00d6 00BF     		.align	2
 338 00d8 AFF30080 		.p2align 4,,15
 338      AFF30080 
 339              		.thumb
 340              		.thumb_func
 341              		.type	spi_lld_serve_rx_interrupt, %function
 342              	spi_lld_serve_rx_interrupt:
 343              	.LFB267:
 344              		.file 5 "../ChibiOS/os/hal/ports/STM32/LLD/SPIv2/spi_lld.c"
 345              		.loc 5 132 0
 346              		.cfi_startproc
 347              		@ args = 0, pretend = 0, frame = 8
 348              		@ frame_needed = 0, uses_anonymous_args = 0
 349 00e0 00B5     		push	{lr}
 350              		.cfi_def_cfa_offset 4
 351              		.cfi_offset 14, -4
 352 00e2 83B0     		sub	sp, sp, #12
 353              		.cfi_def_cfa_offset 16
 354 00e4 0190     		str	r0, [sp, #4]
 355 00e6 0091     		str	r1, [sp]
 356              		.loc 5 136 0
 357 00e8 009B     		ldr	r3, [sp]
 358 00ea 03F00803 		and	r3, r3, #8
 359 00ee 002B     		cmp	r3, #0
 360 00f0 02D0     		beq	.L14
 361              		.loc 5 137 0
 362 00f2 2848     		ldr	r0, .L18
 363 00f4 FFF7C4FF 		bl	osalSysHalt
 364              	.L14:
 365              		.loc 5 144 0
 366 00f8 019B     		ldr	r3, [sp, #4]
 367 00fa 5B6A     		ldr	r3, [r3, #36]
 368 00fc 5B68     		ldr	r3, [r3, #4]
 369 00fe 019A     		ldr	r2, [sp, #4]
 370 0100 526A     		ldr	r2, [r2, #36]
 371 0102 5268     		ldr	r2, [r2, #4]
 372 0104 1268     		ldr	r2, [r2]
 373 0106 22F00F02 		bic	r2, r2, #15
 374 010a 1A60     		str	r2, [r3]
 375 010c 019B     		ldr	r3, [sp, #4]
 376 010e 5B6A     		ldr	r3, [r3, #36]
 377 0110 1B68     		ldr	r3, [r3]
 378 0112 019A     		ldr	r2, [sp, #4]
 379 0114 526A     		ldr	r2, [r2, #36]
 380 0116 127C     		ldrb	r2, [r2, #16]	@ zero_extendqisi2
 381 0118 0F21     		movs	r1, #15
 382 011a 01FA02F2 		lsl	r2, r1, r2
 383 011e 5A60     		str	r2, [r3, #4]
 384              		.loc 5 145 0
 385 0120 019B     		ldr	r3, [sp, #4]
 386 0122 1B6A     		ldr	r3, [r3, #32]
ARM GAS  /tmp/ccDnkyfG.s 			page 8


 387 0124 5B68     		ldr	r3, [r3, #4]
 388 0126 019A     		ldr	r2, [sp, #4]
 389 0128 126A     		ldr	r2, [r2, #32]
 390 012a 5268     		ldr	r2, [r2, #4]
 391 012c 1268     		ldr	r2, [r2]
 392 012e 22F00F02 		bic	r2, r2, #15
 393 0132 1A60     		str	r2, [r3]
 394 0134 019B     		ldr	r3, [sp, #4]
 395 0136 1B6A     		ldr	r3, [r3, #32]
 396 0138 1B68     		ldr	r3, [r3]
 397 013a 019A     		ldr	r2, [sp, #4]
 398 013c 126A     		ldr	r2, [r2, #32]
 399 013e 127C     		ldrb	r2, [r2, #16]	@ zero_extendqisi2
 400 0140 0F21     		movs	r1, #15
 401 0142 01FA02F2 		lsl	r2, r1, r2
 402 0146 5A60     		str	r2, [r3, #4]
 403              		.loc 5 149 0
 404 0148 019B     		ldr	r3, [sp, #4]
 405 014a 5B68     		ldr	r3, [r3, #4]
 406 014c 1B68     		ldr	r3, [r3]
 407 014e 002B     		cmp	r3, #0
 408 0150 0FD0     		beq	.L15
 409              		.loc 5 149 0 is_stmt 0 discriminator 1
 410 0152 019B     		ldr	r3, [sp, #4]
 411 0154 0422     		movs	r2, #4
 412 0156 1A70     		strb	r2, [r3]
 413 0158 019B     		ldr	r3, [sp, #4]
 414 015a 5B68     		ldr	r3, [r3, #4]
 415 015c 1B68     		ldr	r3, [r3]
 416 015e 0198     		ldr	r0, [sp, #4]
 417 0160 9847     		blx	r3
 418 0162 019B     		ldr	r3, [sp, #4]
 419 0164 1B78     		ldrb	r3, [r3]	@ zero_extendqisi2
 420 0166 042B     		cmp	r3, #4
 421 0168 06D1     		bne	.L17
 422 016a 019B     		ldr	r3, [sp, #4]
 423 016c 0222     		movs	r2, #2
 424 016e 1A70     		strb	r2, [r3]
 425 0170 02E0     		b	.L17
 426              	.L15:
 427              		.loc 5 149 0 discriminator 2
 428 0172 019B     		ldr	r3, [sp, #4]
 429 0174 0222     		movs	r2, #2
 430 0176 1A70     		strb	r2, [r3]
 431              	.L17:
 432              		.loc 5 149 0 discriminator 1
 433 0178 FFF792FF 		bl	osalSysLockFromISR
 434 017c 019B     		ldr	r3, [sp, #4]
 435 017e 0833     		adds	r3, r3, #8
 436 0180 1846     		mov	r0, r3
 437 0182 0021     		movs	r1, #0
 438 0184 FFF79CFF 		bl	osalThreadResumeI
 439 0188 FFF792FF 		bl	osalSysUnlockFromISR
 440              		.loc 5 150 0 is_stmt 1 discriminator 1
 441 018c 03B0     		add	sp, sp, #12
 442              		@ sp needed
 443 018e 5DF804FB 		ldr	pc, [sp], #4
ARM GAS  /tmp/ccDnkyfG.s 			page 9


 444              	.L19:
 445 0192 00BF     		.align	2
 446              	.L18:
 447 0194 04000000 		.word	.LC0
 448              		.cfi_endproc
 449              	.LFE267:
 450              		.size	spi_lld_serve_rx_interrupt, .-spi_lld_serve_rx_interrupt
 451              		.align	2
 452 0198 AFF30080 		.p2align 4,,15
 452      AFF30080 
 453              		.thumb
 454              		.thumb_func
 455              		.type	spi_lld_serve_tx_interrupt, %function
 456              	spi_lld_serve_tx_interrupt:
 457              	.LFB268:
 458              		.loc 5 158 0
 459              		.cfi_startproc
 460              		@ args = 0, pretend = 0, frame = 8
 461              		@ frame_needed = 0, uses_anonymous_args = 0
 462 01a0 00B5     		push	{lr}
 463              		.cfi_def_cfa_offset 4
 464              		.cfi_offset 14, -4
 465 01a2 83B0     		sub	sp, sp, #12
 466              		.cfi_def_cfa_offset 16
 467 01a4 0190     		str	r0, [sp, #4]
 468 01a6 0091     		str	r1, [sp]
 469              		.loc 5 163 0
 470 01a8 009B     		ldr	r3, [sp]
 471 01aa 03F00803 		and	r3, r3, #8
 472 01ae 002B     		cmp	r3, #0
 473 01b0 02D0     		beq	.L20
 474              		.loc 5 164 0
 475 01b2 0348     		ldr	r0, .L22
 476 01b4 FFF764FF 		bl	osalSysHalt
 477              	.L20:
 478              		.loc 5 170 0
 479 01b8 03B0     		add	sp, sp, #12
 480              		@ sp needed
 481 01ba 5DF804FB 		ldr	pc, [sp], #4
 482              	.L23:
 483 01be 00BF     		.align	2
 484              	.L22:
 485 01c0 04000000 		.word	.LC0
 486              		.cfi_endproc
 487              	.LFE268:
 488              		.size	spi_lld_serve_tx_interrupt, .-spi_lld_serve_tx_interrupt
 489              		.align	2
 490 01c4 AFF30080 		.p2align 4,,15
 490      AFF30080 
 490      AFF30080 
 491              		.global	spi_lld_init
 492              		.thumb
 493              		.thumb_func
 494              		.type	spi_lld_init, %function
 495              	spi_lld_init:
 496              	.LFB269:
 497              		.loc 5 185 0
ARM GAS  /tmp/ccDnkyfG.s 			page 10


 498              		.cfi_startproc
 499              		@ args = 0, pretend = 0, frame = 0
 500              		@ frame_needed = 0, uses_anonymous_args = 0
 501 01d0 08B5     		push	{r3, lr}
 502              		.cfi_def_cfa_offset 8
 503              		.cfi_offset 3, -8
 504              		.cfi_offset 14, -4
 505              		.loc 5 188 0
 506 01d2 1248     		ldr	r0, .L25
 507 01d4 FFF7FEFF 		bl	spiObjectInit
 508              		.loc 5 189 0
 509 01d8 104B     		ldr	r3, .L25
 510 01da 114A     		ldr	r2, .L25+4
 511 01dc DA61     		str	r2, [r3, #28]
 512              		.loc 5 190 0
 513 01de 0F4B     		ldr	r3, .L25
 514 01e0 104A     		ldr	r2, .L25+8
 515 01e2 1A62     		str	r2, [r3, #32]
 516              		.loc 5 191 0
 517 01e4 0D4B     		ldr	r3, .L25
 518 01e6 104A     		ldr	r2, .L25+12
 519 01e8 5A62     		str	r2, [r3, #36]
 520              		.loc 5 192 0
 521 01ea 0C4B     		ldr	r3, .L25
 522 01ec 0F4A     		ldr	r2, .L25+16
 523 01ee 9A62     		str	r2, [r3, #40]
 524              		.loc 5 198 0
 525 01f0 0A4B     		ldr	r3, .L25
 526 01f2 0F4A     		ldr	r2, .L25+20
 527 01f4 DA62     		str	r2, [r3, #44]
 528              		.loc 5 206 0
 529 01f6 0F48     		ldr	r0, .L25+24
 530 01f8 FFF7FEFF 		bl	spiObjectInit
 531              		.loc 5 207 0
 532 01fc 0D4B     		ldr	r3, .L25+24
 533 01fe 0E4A     		ldr	r2, .L25+28
 534 0200 DA61     		str	r2, [r3, #28]
 535              		.loc 5 208 0
 536 0202 0C4B     		ldr	r3, .L25+24
 537 0204 0D4A     		ldr	r2, .L25+32
 538 0206 1A62     		str	r2, [r3, #32]
 539              		.loc 5 209 0
 540 0208 0A4B     		ldr	r3, .L25+24
 541 020a 0D4A     		ldr	r2, .L25+36
 542 020c 5A62     		str	r2, [r3, #36]
 543              		.loc 5 210 0
 544 020e 094B     		ldr	r3, .L25+24
 545 0210 0C4A     		ldr	r2, .L25+40
 546 0212 9A62     		str	r2, [r3, #40]
 547              		.loc 5 216 0
 548 0214 074B     		ldr	r3, .L25+24
 549 0216 0C4A     		ldr	r2, .L25+44
 550 0218 DA62     		str	r2, [r3, #44]
 551              		.loc 5 294 0
 552 021a 08BD     		pop	{r3, pc}
 553              	.L26:
 554              		.align	2
ARM GAS  /tmp/ccDnkyfG.s 			page 11


 555              	.L25:
 556 021c 00000000 		.word	SPID1
 557 0220 00300140 		.word	1073819648
 558 0224 B4000000 		.word	_stm32_dma_streams+180
 559 0228 C8000000 		.word	_stm32_dma_streams+200
 560 022c 0A100400 		.word	266250
 561 0230 18100400 		.word	266264
 562 0234 00000000 		.word	SPID2
 563 0238 00380040 		.word	1073756160
 564 023c 3C000000 		.word	_stm32_dma_streams+60
 565 0240 50000000 		.word	_stm32_dma_streams+80
 566 0244 0A100100 		.word	69642
 567 0248 18100100 		.word	69656
 568              		.cfi_endproc
 569              	.LFE269:
 570              		.size	spi_lld_init, .-spi_lld_init
 571              		.align	2
 572 024c AFF30080 		.p2align 4,,15
 573              		.global	spi_lld_start
 574              		.thumb
 575              		.thumb_func
 576              		.type	spi_lld_start, %function
 577              	spi_lld_start:
 578              	.LFB270:
 579              		.loc 5 303 0
 580              		.cfi_startproc
 581              		@ args = 0, pretend = 0, frame = 16
 582              		@ frame_needed = 0, uses_anonymous_args = 0
 583 0250 00B5     		push	{lr}
 584              		.cfi_def_cfa_offset 4
 585              		.cfi_offset 14, -4
 586 0252 85B0     		sub	sp, sp, #20
 587              		.cfi_def_cfa_offset 24
 588 0254 0190     		str	r0, [sp, #4]
 589              		.loc 5 307 0
 590 0256 019B     		ldr	r3, [sp, #4]
 591 0258 1B78     		ldrb	r3, [r3]	@ zero_extendqisi2
 592 025a 012B     		cmp	r3, #1
 593 025c 4DD1     		bne	.L28
 594              		.loc 5 309 0
 595 025e 019A     		ldr	r2, [sp, #4]
 596 0260 4C4B     		ldr	r3, .L34
 597 0262 9A42     		cmp	r2, r3
 598 0264 1BD1     		bne	.L29
 599              	.LBB10:
 600              		.loc 5 311 0
 601 0266 019B     		ldr	r3, [sp, #4]
 602 0268 1B6A     		ldr	r3, [r3, #32]
 603 026a 1846     		mov	r0, r3
 604 026c 0A21     		movs	r1, #10
 605 026e 4A4A     		ldr	r2, .L34+4
 606 0270 019B     		ldr	r3, [sp, #4]
 607 0272 FFF7FEFF 		bl	dmaStreamAllocate
 608 0276 0346     		mov	r3, r0
 609 0278 8DF80F30 		strb	r3, [sp, #15]
 610              		.loc 5 316 0
 611 027c 019B     		ldr	r3, [sp, #4]
ARM GAS  /tmp/ccDnkyfG.s 			page 12


 612 027e 5B6A     		ldr	r3, [r3, #36]
 613 0280 1846     		mov	r0, r3
 614 0282 0A21     		movs	r1, #10
 615 0284 454A     		ldr	r2, .L34+8
 616 0286 019B     		ldr	r3, [sp, #4]
 617 0288 FFF7FEFF 		bl	dmaStreamAllocate
 618 028c 0346     		mov	r3, r0
 619 028e 8DF80F30 		strb	r3, [sp, #15]
 620              		.loc 5 321 0
 621 0292 434B     		ldr	r3, .L34+12
 622 0294 424A     		ldr	r2, .L34+12
 623 0296 126E     		ldr	r2, [r2, #96]
 624 0298 42F48052 		orr	r2, r2, #4096
 625 029c 1A66     		str	r2, [r3, #96]
 626              	.L29:
 627              	.LBE10:
 628              		.loc 5 325 0
 629 029e 019A     		ldr	r2, [sp, #4]
 630 02a0 404B     		ldr	r3, .L34+16
 631 02a2 9A42     		cmp	r2, r3
 632 02a4 1BD1     		bne	.L30
 633              	.LBB11:
 634              		.loc 5 327 0
 635 02a6 019B     		ldr	r3, [sp, #4]
 636 02a8 1B6A     		ldr	r3, [r3, #32]
 637 02aa 1846     		mov	r0, r3
 638 02ac 0A21     		movs	r1, #10
 639 02ae 3A4A     		ldr	r2, .L34+4
 640 02b0 019B     		ldr	r3, [sp, #4]
 641 02b2 FFF7FEFF 		bl	dmaStreamAllocate
 642 02b6 0346     		mov	r3, r0
 643 02b8 8DF80E30 		strb	r3, [sp, #14]
 644              		.loc 5 332 0
 645 02bc 019B     		ldr	r3, [sp, #4]
 646 02be 5B6A     		ldr	r3, [r3, #36]
 647 02c0 1846     		mov	r0, r3
 648 02c2 0A21     		movs	r1, #10
 649 02c4 354A     		ldr	r2, .L34+8
 650 02c6 019B     		ldr	r3, [sp, #4]
 651 02c8 FFF7FEFF 		bl	dmaStreamAllocate
 652 02cc 0346     		mov	r3, r0
 653 02ce 8DF80E30 		strb	r3, [sp, #14]
 654              		.loc 5 337 0
 655 02d2 334B     		ldr	r3, .L34+12
 656 02d4 324A     		ldr	r2, .L34+12
 657 02d6 926D     		ldr	r2, [r2, #88]
 658 02d8 42F48042 		orr	r2, r2, #16384
 659 02dc 9A65     		str	r2, [r3, #88]
 660              	.L30:
 661              	.LBE11:
 662              		.loc 5 406 0
 663 02de 019B     		ldr	r3, [sp, #4]
 664 02e0 1B6A     		ldr	r3, [r3, #32]
 665 02e2 5B68     		ldr	r3, [r3, #4]
 666 02e4 019A     		ldr	r2, [sp, #4]
 667 02e6 D269     		ldr	r2, [r2, #28]
 668 02e8 0C32     		adds	r2, r2, #12
ARM GAS  /tmp/ccDnkyfG.s 			page 13


 669 02ea 9A60     		str	r2, [r3, #8]
 670              		.loc 5 407 0
 671 02ec 019B     		ldr	r3, [sp, #4]
 672 02ee 5B6A     		ldr	r3, [r3, #36]
 673 02f0 5B68     		ldr	r3, [r3, #4]
 674 02f2 019A     		ldr	r2, [sp, #4]
 675 02f4 D269     		ldr	r2, [r2, #28]
 676 02f6 0C32     		adds	r2, r2, #12
 677 02f8 9A60     		str	r2, [r3, #8]
 678              	.L28:
 679              		.loc 5 411 0
 680 02fa 019B     		ldr	r3, [sp, #4]
 681 02fc 5B68     		ldr	r3, [r3, #4]
 682 02fe 9B89     		ldrh	r3, [r3, #12]
 683 0300 03F47063 		and	r3, r3, #3840
 684 0304 0293     		str	r3, [sp, #8]
 685              		.loc 5 412 0
 686 0306 029B     		ldr	r3, [sp, #8]
 687 0308 002B     		cmp	r3, #0
 688 030a 03D0     		beq	.L31
 689              		.loc 5 412 0 is_stmt 0 discriminator 1
 690 030c 029B     		ldr	r3, [sp, #8]
 691 030e B3F5E06F 		cmp	r3, #1792
 692 0312 0CD8     		bhi	.L32
 693              	.L31:
 694              		.loc 5 414 0 is_stmt 1
 695 0314 019B     		ldr	r3, [sp, #4]
 696 0316 9B6A     		ldr	r3, [r3, #40]
 697              		.loc 5 415 0
 698 0318 23F47062 		bic	r2, r3, #3840
 699              		.loc 5 414 0
 700 031c 019B     		ldr	r3, [sp, #4]
 701 031e 9A62     		str	r2, [r3, #40]
 702              		.loc 5 416 0
 703 0320 019B     		ldr	r3, [sp, #4]
 704 0322 DB6A     		ldr	r3, [r3, #44]
 705              		.loc 5 417 0
 706 0324 23F47062 		bic	r2, r3, #3840
 707              		.loc 5 416 0
 708 0328 019B     		ldr	r3, [sp, #4]
 709 032a DA62     		str	r2, [r3, #44]
 710 032c 0FE0     		b	.L33
 711              	.L32:
 712              		.loc 5 421 0
 713 032e 019B     		ldr	r3, [sp, #4]
 714 0330 9B6A     		ldr	r3, [r3, #40]
 715 0332 23F47063 		bic	r3, r3, #3840
 716              		.loc 5 422 0
 717 0336 43F4A062 		orr	r2, r3, #1280
 718              		.loc 5 421 0
 719 033a 019B     		ldr	r3, [sp, #4]
 720 033c 9A62     		str	r2, [r3, #40]
 721              		.loc 5 423 0
 722 033e 019B     		ldr	r3, [sp, #4]
 723 0340 DB6A     		ldr	r3, [r3, #44]
 724 0342 23F47063 		bic	r3, r3, #3840
 725              		.loc 5 424 0
ARM GAS  /tmp/ccDnkyfG.s 			page 14


 726 0346 43F4A062 		orr	r2, r3, #1280
 727              		.loc 5 423 0
 728 034a 019B     		ldr	r3, [sp, #4]
 729 034c DA62     		str	r2, [r3, #44]
 730              	.L33:
 731              		.loc 5 428 0
 732 034e 019B     		ldr	r3, [sp, #4]
 733 0350 DB69     		ldr	r3, [r3, #28]
 734 0352 0022     		movs	r2, #0
 735 0354 1A60     		str	r2, [r3]
 736              		.loc 5 429 0
 737 0356 019B     		ldr	r3, [sp, #4]
 738 0358 DB69     		ldr	r3, [r3, #28]
 739 035a 019A     		ldr	r2, [sp, #4]
 740 035c 5268     		ldr	r2, [r2, #4]
 741 035e 5289     		ldrh	r2, [r2, #10]
 742 0360 42F00402 		orr	r2, r2, #4
 743 0364 92B2     		uxth	r2, r2
 744 0366 1A60     		str	r2, [r3]
 745              		.loc 5 430 0
 746 0368 019B     		ldr	r3, [sp, #4]
 747 036a DA69     		ldr	r2, [r3, #28]
 748 036c 019B     		ldr	r3, [sp, #4]
 749 036e 5B68     		ldr	r3, [r3, #4]
 750 0370 9B89     		ldrh	r3, [r3, #12]
 751 0372 43F48053 		orr	r3, r3, #4096
 752 0376 43F00703 		orr	r3, r3, #7
 753 037a 9BB2     		uxth	r3, r3
 754 037c 5360     		str	r3, [r2, #4]
 755              		.loc 5 432 0
 756 037e 019B     		ldr	r3, [sp, #4]
 757 0380 DB69     		ldr	r3, [r3, #28]
 758 0382 019A     		ldr	r2, [sp, #4]
 759 0384 D269     		ldr	r2, [r2, #28]
 760 0386 1268     		ldr	r2, [r2]
 761 0388 42F04002 		orr	r2, r2, #64
 762 038c 1A60     		str	r2, [r3]
 763              		.loc 5 433 0
 764 038e 05B0     		add	sp, sp, #20
 765              		@ sp needed
 766 0390 5DF804FB 		ldr	pc, [sp], #4
 767              	.L35:
 768              		.align	2
 769              	.L34:
 770 0394 00000000 		.word	SPID1
 771 0398 00000000 		.word	spi_lld_serve_rx_interrupt
 772 039c 00000000 		.word	spi_lld_serve_tx_interrupt
 773 03a0 00100240 		.word	1073876992
 774 03a4 00000000 		.word	SPID2
 775              		.cfi_endproc
 776              	.LFE270:
 777              		.size	spi_lld_start, .-spi_lld_start
 778              		.align	2
 779 03a8 AFF30080 		.p2align 4,,15
 779      AFF30080 
 780              		.global	spi_lld_stop
 781              		.thumb
ARM GAS  /tmp/ccDnkyfG.s 			page 15


 782              		.thumb_func
 783              		.type	spi_lld_stop, %function
 784              	spi_lld_stop:
 785              	.LFB271:
 786              		.loc 5 442 0
 787              		.cfi_startproc
 788              		@ args = 0, pretend = 0, frame = 8
 789              		@ frame_needed = 0, uses_anonymous_args = 0
 790 03b0 00B5     		push	{lr}
 791              		.cfi_def_cfa_offset 4
 792              		.cfi_offset 14, -4
 793 03b2 83B0     		sub	sp, sp, #12
 794              		.cfi_def_cfa_offset 16
 795 03b4 0190     		str	r0, [sp, #4]
 796              		.loc 5 445 0
 797 03b6 019B     		ldr	r3, [sp, #4]
 798 03b8 1B78     		ldrb	r3, [r3]	@ zero_extendqisi2
 799 03ba 022B     		cmp	r3, #2
 800 03bc 25D1     		bne	.L36
 801              		.loc 5 448 0
 802 03be 019B     		ldr	r3, [sp, #4]
 803 03c0 DB69     		ldr	r3, [r3, #28]
 804 03c2 0022     		movs	r2, #0
 805 03c4 1A60     		str	r2, [r3]
 806              		.loc 5 449 0
 807 03c6 019B     		ldr	r3, [sp, #4]
 808 03c8 DB69     		ldr	r3, [r3, #28]
 809 03ca 0022     		movs	r2, #0
 810 03cc 5A60     		str	r2, [r3, #4]
 811              		.loc 5 450 0
 812 03ce 019B     		ldr	r3, [sp, #4]
 813 03d0 1B6A     		ldr	r3, [r3, #32]
 814 03d2 1846     		mov	r0, r3
 815 03d4 FFF7FEFF 		bl	dmaStreamRelease
 816              		.loc 5 451 0
 817 03d8 019B     		ldr	r3, [sp, #4]
 818 03da 5B6A     		ldr	r3, [r3, #36]
 819 03dc 1846     		mov	r0, r3
 820 03de FFF7FEFF 		bl	dmaStreamRelease
 821              		.loc 5 454 0
 822 03e2 019A     		ldr	r2, [sp, #4]
 823 03e4 0A4B     		ldr	r3, .L39
 824 03e6 9A42     		cmp	r2, r3
 825 03e8 05D1     		bne	.L38
 826              		.loc 5 455 0
 827 03ea 0A4B     		ldr	r3, .L39+4
 828 03ec 094A     		ldr	r2, .L39+4
 829 03ee 126E     		ldr	r2, [r2, #96]
 830 03f0 22F48052 		bic	r2, r2, #4096
 831 03f4 1A66     		str	r2, [r3, #96]
 832              	.L38:
 833              		.loc 5 458 0
 834 03f6 019A     		ldr	r2, [sp, #4]
 835 03f8 074B     		ldr	r3, .L39+8
 836 03fa 9A42     		cmp	r2, r3
 837 03fc 05D1     		bne	.L36
 838              		.loc 5 459 0
ARM GAS  /tmp/ccDnkyfG.s 			page 16


 839 03fe 054B     		ldr	r3, .L39+4
 840 0400 044A     		ldr	r2, .L39+4
 841 0402 926D     		ldr	r2, [r2, #88]
 842 0404 22F48042 		bic	r2, r2, #16384
 843 0408 9A65     		str	r2, [r3, #88]
 844              	.L36:
 845              		.loc 5 478 0
 846 040a 03B0     		add	sp, sp, #12
 847              		@ sp needed
 848 040c 5DF804FB 		ldr	pc, [sp], #4
 849              	.L40:
 850              		.align	2
 851              	.L39:
 852 0410 00000000 		.word	SPID1
 853 0414 00100240 		.word	1073876992
 854 0418 00000000 		.word	SPID2
 855              		.cfi_endproc
 856              	.LFE271:
 857              		.size	spi_lld_stop, .-spi_lld_stop
 858              		.align	2
 859 041c AFF30080 		.p2align 4,,15
 860              		.global	spi_lld_select
 861              		.thumb
 862              		.thumb_func
 863              		.type	spi_lld_select, %function
 864              	spi_lld_select:
 865              	.LFB272:
 866              		.loc 5 487 0
 867              		.cfi_startproc
 868              		@ args = 0, pretend = 0, frame = 8
 869              		@ frame_needed = 0, uses_anonymous_args = 0
 870              		@ link register save eliminated.
 871 0420 82B0     		sub	sp, sp, #8
 872              		.cfi_def_cfa_offset 8
 873 0422 0190     		str	r0, [sp, #4]
 874              		.loc 5 489 0
 875 0424 019B     		ldr	r3, [sp, #4]
 876 0426 5B68     		ldr	r3, [r3, #4]
 877 0428 5B68     		ldr	r3, [r3, #4]
 878 042a 019A     		ldr	r2, [sp, #4]
 879 042c 5268     		ldr	r2, [r2, #4]
 880 042e 1289     		ldrh	r2, [r2, #8]
 881 0430 0121     		movs	r1, #1
 882 0432 01FA02F2 		lsl	r2, r1, r2
 883 0436 92B2     		uxth	r2, r2
 884 0438 5A83     		strh	r2, [r3, #26]	@ movhi
 885              		.loc 5 490 0
 886 043a 02B0     		add	sp, sp, #8
 887              		@ sp needed
 888 043c 7047     		bx	lr
 889              		.cfi_endproc
 890              	.LFE272:
 891              		.size	spi_lld_select, .-spi_lld_select
 892 043e 00BF     		.align	2
 893              		.p2align 4,,15
 894              		.global	spi_lld_unselect
 895              		.thumb
ARM GAS  /tmp/ccDnkyfG.s 			page 17


 896              		.thumb_func
 897              		.type	spi_lld_unselect, %function
 898              	spi_lld_unselect:
 899              	.LFB273:
 900              		.loc 5 500 0
 901              		.cfi_startproc
 902              		@ args = 0, pretend = 0, frame = 8
 903              		@ frame_needed = 0, uses_anonymous_args = 0
 904              		@ link register save eliminated.
 905 0440 82B0     		sub	sp, sp, #8
 906              		.cfi_def_cfa_offset 8
 907 0442 0190     		str	r0, [sp, #4]
 908              		.loc 5 502 0
 909 0444 019B     		ldr	r3, [sp, #4]
 910 0446 5B68     		ldr	r3, [r3, #4]
 911 0448 5B68     		ldr	r3, [r3, #4]
 912 044a 019A     		ldr	r2, [sp, #4]
 913 044c 5268     		ldr	r2, [r2, #4]
 914 044e 1289     		ldrh	r2, [r2, #8]
 915 0450 0121     		movs	r1, #1
 916 0452 01FA02F2 		lsl	r2, r1, r2
 917 0456 92B2     		uxth	r2, r2
 918 0458 1A83     		strh	r2, [r3, #24]	@ movhi
 919              		.loc 5 503 0
 920 045a 02B0     		add	sp, sp, #8
 921              		@ sp needed
 922 045c 7047     		bx	lr
 923              		.cfi_endproc
 924              	.LFE273:
 925              		.size	spi_lld_unselect, .-spi_lld_unselect
 926 045e 00BF     		.align	2
 927              		.p2align 4,,15
 928              		.global	spi_lld_ignore
 929              		.thumb
 930              		.thumb_func
 931              		.type	spi_lld_ignore, %function
 932              	spi_lld_ignore:
 933              	.LFB274:
 934              		.loc 5 516 0
 935              		.cfi_startproc
 936              		@ args = 0, pretend = 0, frame = 16
 937              		@ frame_needed = 0, uses_anonymous_args = 0
 938              		@ link register save eliminated.
 939 0460 84B0     		sub	sp, sp, #16
 940              		.cfi_def_cfa_offset 16
 941 0462 0190     		str	r0, [sp, #4]
 942 0464 0091     		str	r1, [sp]
 943              		.loc 5 518 0
 944 0466 019B     		ldr	r3, [sp, #4]
 945 0468 1B6A     		ldr	r3, [r3, #32]
 946 046a 5B68     		ldr	r3, [r3, #4]
 947 046c 384A     		ldr	r2, .L44
 948 046e DA60     		str	r2, [r3, #12]
 949              		.loc 5 519 0
 950 0470 019B     		ldr	r3, [sp, #4]
 951 0472 1B6A     		ldr	r3, [r3, #32]
 952 0474 5B68     		ldr	r3, [r3, #4]
ARM GAS  /tmp/ccDnkyfG.s 			page 18


 953 0476 009A     		ldr	r2, [sp]
 954 0478 5A60     		str	r2, [r3, #4]
 955              	.LBB12:
 956              		.loc 5 520 0
 957 047a 019B     		ldr	r3, [sp, #4]
 958 047c 1B6A     		ldr	r3, [r3, #32]
 959 047e DB68     		ldr	r3, [r3, #12]
 960 0480 1B68     		ldr	r3, [r3]
 961 0482 0393     		str	r3, [sp, #12]
 962 0484 019B     		ldr	r3, [sp, #4]
 963 0486 1B6A     		ldr	r3, [r3, #32]
 964 0488 1B7C     		ldrb	r3, [r3, #16]	@ zero_extendqisi2
 965 048a 0F22     		movs	r2, #15
 966 048c 02FA03F3 		lsl	r3, r2, r3
 967 0490 DB43     		mvns	r3, r3
 968 0492 039A     		ldr	r2, [sp, #12]
 969 0494 1340     		ands	r3, r3, r2
 970 0496 0393     		str	r3, [sp, #12]
 971 0498 019B     		ldr	r3, [sp, #4]
 972 049a 9B6A     		ldr	r3, [r3, #40]
 973 049c 1A0C     		lsrs	r2, r3, #16
 974 049e 019B     		ldr	r3, [sp, #4]
 975 04a0 1B6A     		ldr	r3, [r3, #32]
 976 04a2 1B7C     		ldrb	r3, [r3, #16]	@ zero_extendqisi2
 977 04a4 02FA03F3 		lsl	r3, r2, r3
 978 04a8 039A     		ldr	r2, [sp, #12]
 979 04aa 1343     		orrs	r3, r3, r2
 980 04ac 0393     		str	r3, [sp, #12]
 981 04ae 019B     		ldr	r3, [sp, #4]
 982 04b0 1B6A     		ldr	r3, [r3, #32]
 983 04b2 DB68     		ldr	r3, [r3, #12]
 984 04b4 039A     		ldr	r2, [sp, #12]
 985 04b6 1A60     		str	r2, [r3]
 986 04b8 019B     		ldr	r3, [sp, #4]
 987 04ba 1B6A     		ldr	r3, [r3, #32]
 988 04bc 5B68     		ldr	r3, [r3, #4]
 989 04be 019A     		ldr	r2, [sp, #4]
 990 04c0 926A     		ldr	r2, [r2, #40]
 991 04c2 1A60     		str	r2, [r3]
 992              	.LBE12:
 993              		.loc 5 522 0
 994 04c4 019B     		ldr	r3, [sp, #4]
 995 04c6 5B6A     		ldr	r3, [r3, #36]
 996 04c8 5B68     		ldr	r3, [r3, #4]
 997 04ca 224A     		ldr	r2, .L44+4
 998 04cc DA60     		str	r2, [r3, #12]
 999              		.loc 5 523 0
 1000 04ce 019B     		ldr	r3, [sp, #4]
 1001 04d0 5B6A     		ldr	r3, [r3, #36]
 1002 04d2 5B68     		ldr	r3, [r3, #4]
 1003 04d4 009A     		ldr	r2, [sp]
 1004 04d6 5A60     		str	r2, [r3, #4]
 1005              	.LBB13:
 1006              		.loc 5 524 0
 1007 04d8 019B     		ldr	r3, [sp, #4]
 1008 04da 5B6A     		ldr	r3, [r3, #36]
 1009 04dc DB68     		ldr	r3, [r3, #12]
ARM GAS  /tmp/ccDnkyfG.s 			page 19


 1010 04de 1B68     		ldr	r3, [r3]
 1011 04e0 0293     		str	r3, [sp, #8]
 1012 04e2 019B     		ldr	r3, [sp, #4]
 1013 04e4 5B6A     		ldr	r3, [r3, #36]
 1014 04e6 1B7C     		ldrb	r3, [r3, #16]	@ zero_extendqisi2
 1015 04e8 0F22     		movs	r2, #15
 1016 04ea 02FA03F3 		lsl	r3, r2, r3
 1017 04ee DB43     		mvns	r3, r3
 1018 04f0 029A     		ldr	r2, [sp, #8]
 1019 04f2 1340     		ands	r3, r3, r2
 1020 04f4 0293     		str	r3, [sp, #8]
 1021 04f6 019B     		ldr	r3, [sp, #4]
 1022 04f8 DB6A     		ldr	r3, [r3, #44]
 1023 04fa 1A0C     		lsrs	r2, r3, #16
 1024 04fc 019B     		ldr	r3, [sp, #4]
 1025 04fe 5B6A     		ldr	r3, [r3, #36]
 1026 0500 1B7C     		ldrb	r3, [r3, #16]	@ zero_extendqisi2
 1027 0502 02FA03F3 		lsl	r3, r2, r3
 1028 0506 029A     		ldr	r2, [sp, #8]
 1029 0508 1343     		orrs	r3, r3, r2
 1030 050a 0293     		str	r3, [sp, #8]
 1031 050c 019B     		ldr	r3, [sp, #4]
 1032 050e 5B6A     		ldr	r3, [r3, #36]
 1033 0510 DB68     		ldr	r3, [r3, #12]
 1034 0512 029A     		ldr	r2, [sp, #8]
 1035 0514 1A60     		str	r2, [r3]
 1036 0516 019B     		ldr	r3, [sp, #4]
 1037 0518 5B6A     		ldr	r3, [r3, #36]
 1038 051a 5B68     		ldr	r3, [r3, #4]
 1039 051c 019A     		ldr	r2, [sp, #4]
 1040 051e D26A     		ldr	r2, [r2, #44]
 1041 0520 1A60     		str	r2, [r3]
 1042              	.LBE13:
 1043              		.loc 5 526 0
 1044 0522 019B     		ldr	r3, [sp, #4]
 1045 0524 1B6A     		ldr	r3, [r3, #32]
 1046 0526 5B68     		ldr	r3, [r3, #4]
 1047 0528 019A     		ldr	r2, [sp, #4]
 1048 052a 126A     		ldr	r2, [r2, #32]
 1049 052c 5268     		ldr	r2, [r2, #4]
 1050 052e 1268     		ldr	r2, [r2]
 1051 0530 42F00102 		orr	r2, r2, #1
 1052 0534 1A60     		str	r2, [r3]
 1053              		.loc 5 527 0
 1054 0536 019B     		ldr	r3, [sp, #4]
 1055 0538 5B6A     		ldr	r3, [r3, #36]
 1056 053a 5B68     		ldr	r3, [r3, #4]
 1057 053c 019A     		ldr	r2, [sp, #4]
 1058 053e 526A     		ldr	r2, [r2, #36]
 1059 0540 5268     		ldr	r2, [r2, #4]
 1060 0542 1268     		ldr	r2, [r2]
 1061 0544 42F00102 		orr	r2, r2, #1
 1062 0548 1A60     		str	r2, [r3]
 1063              		.loc 5 528 0
 1064 054a 04B0     		add	sp, sp, #16
 1065              		@ sp needed
 1066 054c 7047     		bx	lr
ARM GAS  /tmp/ccDnkyfG.s 			page 20


 1067              	.L45:
 1068 054e 00BF     		.align	2
 1069              	.L44:
 1070 0550 00000000 		.word	dummyrx
 1071 0554 00000000 		.word	dummytx
 1072              		.cfi_endproc
 1073              	.LFE274:
 1074              		.size	spi_lld_ignore, .-spi_lld_ignore
 1075              		.align	2
 1076 0558 AFF30080 		.p2align 4,,15
 1076      AFF30080 
 1077              		.global	spi_lld_exchange
 1078              		.thumb
 1079              		.thumb_func
 1080              		.type	spi_lld_exchange, %function
 1081              	spi_lld_exchange:
 1082              	.LFB275:
 1083              		.loc 5 546 0
 1084              		.cfi_startproc
 1085              		@ args = 0, pretend = 0, frame = 24
 1086              		@ frame_needed = 0, uses_anonymous_args = 0
 1087              		@ link register save eliminated.
 1088 0560 86B0     		sub	sp, sp, #24
 1089              		.cfi_def_cfa_offset 24
 1090 0562 0390     		str	r0, [sp, #12]
 1091 0564 0291     		str	r1, [sp, #8]
 1092 0566 0192     		str	r2, [sp, #4]
 1093 0568 0093     		str	r3, [sp]
 1094              		.loc 5 548 0
 1095 056a 039B     		ldr	r3, [sp, #12]
 1096 056c 1B6A     		ldr	r3, [r3, #32]
 1097 056e 5B68     		ldr	r3, [r3, #4]
 1098 0570 009A     		ldr	r2, [sp]
 1099 0572 DA60     		str	r2, [r3, #12]
 1100              		.loc 5 549 0
 1101 0574 039B     		ldr	r3, [sp, #12]
 1102 0576 1B6A     		ldr	r3, [r3, #32]
 1103 0578 5B68     		ldr	r3, [r3, #4]
 1104 057a 029A     		ldr	r2, [sp, #8]
 1105 057c 5A60     		str	r2, [r3, #4]
 1106              	.LBB14:
 1107              		.loc 5 550 0
 1108 057e 039B     		ldr	r3, [sp, #12]
 1109 0580 1B6A     		ldr	r3, [r3, #32]
 1110 0582 DB68     		ldr	r3, [r3, #12]
 1111 0584 1B68     		ldr	r3, [r3]
 1112 0586 0593     		str	r3, [sp, #20]
 1113 0588 039B     		ldr	r3, [sp, #12]
 1114 058a 1B6A     		ldr	r3, [r3, #32]
 1115 058c 1B7C     		ldrb	r3, [r3, #16]	@ zero_extendqisi2
 1116 058e 0F22     		movs	r2, #15
 1117 0590 02FA03F3 		lsl	r3, r2, r3
 1118 0594 DB43     		mvns	r3, r3
 1119 0596 059A     		ldr	r2, [sp, #20]
 1120 0598 1340     		ands	r3, r3, r2
 1121 059a 0593     		str	r3, [sp, #20]
 1122 059c 039B     		ldr	r3, [sp, #12]
ARM GAS  /tmp/ccDnkyfG.s 			page 21


 1123 059e 9B6A     		ldr	r3, [r3, #40]
 1124 05a0 43F08003 		orr	r3, r3, #128
 1125 05a4 1A0C     		lsrs	r2, r3, #16
 1126 05a6 039B     		ldr	r3, [sp, #12]
 1127 05a8 1B6A     		ldr	r3, [r3, #32]
 1128 05aa 1B7C     		ldrb	r3, [r3, #16]	@ zero_extendqisi2
 1129 05ac 02FA03F3 		lsl	r3, r2, r3
 1130 05b0 059A     		ldr	r2, [sp, #20]
 1131 05b2 1343     		orrs	r3, r3, r2
 1132 05b4 0593     		str	r3, [sp, #20]
 1133 05b6 039B     		ldr	r3, [sp, #12]
 1134 05b8 1B6A     		ldr	r3, [r3, #32]
 1135 05ba DB68     		ldr	r3, [r3, #12]
 1136 05bc 059A     		ldr	r2, [sp, #20]
 1137 05be 1A60     		str	r2, [r3]
 1138 05c0 039B     		ldr	r3, [sp, #12]
 1139 05c2 1B6A     		ldr	r3, [r3, #32]
 1140 05c4 5B68     		ldr	r3, [r3, #4]
 1141 05c6 039A     		ldr	r2, [sp, #12]
 1142 05c8 926A     		ldr	r2, [r2, #40]
 1143 05ca 42F08002 		orr	r2, r2, #128
 1144 05ce 1A60     		str	r2, [r3]
 1145              	.LBE14:
 1146              		.loc 5 552 0
 1147 05d0 039B     		ldr	r3, [sp, #12]
 1148 05d2 5B6A     		ldr	r3, [r3, #36]
 1149 05d4 5B68     		ldr	r3, [r3, #4]
 1150 05d6 019A     		ldr	r2, [sp, #4]
 1151 05d8 DA60     		str	r2, [r3, #12]
 1152              		.loc 5 553 0
 1153 05da 039B     		ldr	r3, [sp, #12]
 1154 05dc 5B6A     		ldr	r3, [r3, #36]
 1155 05de 5B68     		ldr	r3, [r3, #4]
 1156 05e0 029A     		ldr	r2, [sp, #8]
 1157 05e2 5A60     		str	r2, [r3, #4]
 1158              	.LBB15:
 1159              		.loc 5 554 0
 1160 05e4 039B     		ldr	r3, [sp, #12]
 1161 05e6 5B6A     		ldr	r3, [r3, #36]
 1162 05e8 DB68     		ldr	r3, [r3, #12]
 1163 05ea 1B68     		ldr	r3, [r3]
 1164 05ec 0493     		str	r3, [sp, #16]
 1165 05ee 039B     		ldr	r3, [sp, #12]
 1166 05f0 5B6A     		ldr	r3, [r3, #36]
 1167 05f2 1B7C     		ldrb	r3, [r3, #16]	@ zero_extendqisi2
 1168 05f4 0F22     		movs	r2, #15
 1169 05f6 02FA03F3 		lsl	r3, r2, r3
 1170 05fa DB43     		mvns	r3, r3
 1171 05fc 049A     		ldr	r2, [sp, #16]
 1172 05fe 1340     		ands	r3, r3, r2
 1173 0600 0493     		str	r3, [sp, #16]
 1174 0602 039B     		ldr	r3, [sp, #12]
 1175 0604 DB6A     		ldr	r3, [r3, #44]
 1176 0606 43F08003 		orr	r3, r3, #128
 1177 060a 1A0C     		lsrs	r2, r3, #16
 1178 060c 039B     		ldr	r3, [sp, #12]
 1179 060e 5B6A     		ldr	r3, [r3, #36]
ARM GAS  /tmp/ccDnkyfG.s 			page 22


 1180 0610 1B7C     		ldrb	r3, [r3, #16]	@ zero_extendqisi2
 1181 0612 02FA03F3 		lsl	r3, r2, r3
 1182 0616 049A     		ldr	r2, [sp, #16]
 1183 0618 1343     		orrs	r3, r3, r2
 1184 061a 0493     		str	r3, [sp, #16]
 1185 061c 039B     		ldr	r3, [sp, #12]
 1186 061e 5B6A     		ldr	r3, [r3, #36]
 1187 0620 DB68     		ldr	r3, [r3, #12]
 1188 0622 049A     		ldr	r2, [sp, #16]
 1189 0624 1A60     		str	r2, [r3]
 1190 0626 039B     		ldr	r3, [sp, #12]
 1191 0628 5B6A     		ldr	r3, [r3, #36]
 1192 062a 5B68     		ldr	r3, [r3, #4]
 1193 062c 039A     		ldr	r2, [sp, #12]
 1194 062e D26A     		ldr	r2, [r2, #44]
 1195 0630 42F08002 		orr	r2, r2, #128
 1196 0634 1A60     		str	r2, [r3]
 1197              	.LBE15:
 1198              		.loc 5 556 0
 1199 0636 039B     		ldr	r3, [sp, #12]
 1200 0638 1B6A     		ldr	r3, [r3, #32]
 1201 063a 5B68     		ldr	r3, [r3, #4]
 1202 063c 039A     		ldr	r2, [sp, #12]
 1203 063e 126A     		ldr	r2, [r2, #32]
 1204 0640 5268     		ldr	r2, [r2, #4]
 1205 0642 1268     		ldr	r2, [r2]
 1206 0644 42F00102 		orr	r2, r2, #1
 1207 0648 1A60     		str	r2, [r3]
 1208              		.loc 5 557 0
 1209 064a 039B     		ldr	r3, [sp, #12]
 1210 064c 5B6A     		ldr	r3, [r3, #36]
 1211 064e 5B68     		ldr	r3, [r3, #4]
 1212 0650 039A     		ldr	r2, [sp, #12]
 1213 0652 526A     		ldr	r2, [r2, #36]
 1214 0654 5268     		ldr	r2, [r2, #4]
 1215 0656 1268     		ldr	r2, [r2]
 1216 0658 42F00102 		orr	r2, r2, #1
 1217 065c 1A60     		str	r2, [r3]
 1218              		.loc 5 558 0
 1219 065e 06B0     		add	sp, sp, #24
 1220              		@ sp needed
 1221 0660 7047     		bx	lr
 1222              		.cfi_endproc
 1223              	.LFE275:
 1224              		.size	spi_lld_exchange, .-spi_lld_exchange
 1225 0662 00BF     		.align	2
 1226 0664 AFF30080 		.p2align 4,,15
 1226      AFF30080 
 1226      AFF30080 
 1227              		.global	spi_lld_send
 1228              		.thumb
 1229              		.thumb_func
 1230              		.type	spi_lld_send, %function
 1231              	spi_lld_send:
 1232              	.LFB276:
 1233              		.loc 5 573 0
 1234              		.cfi_startproc
ARM GAS  /tmp/ccDnkyfG.s 			page 23


 1235              		@ args = 0, pretend = 0, frame = 24
 1236              		@ frame_needed = 0, uses_anonymous_args = 0
 1237              		@ link register save eliminated.
 1238 0670 86B0     		sub	sp, sp, #24
 1239              		.cfi_def_cfa_offset 24
 1240 0672 0390     		str	r0, [sp, #12]
 1241 0674 0291     		str	r1, [sp, #8]
 1242 0676 0192     		str	r2, [sp, #4]
 1243              		.loc 5 575 0
 1244 0678 039B     		ldr	r3, [sp, #12]
 1245 067a 1B6A     		ldr	r3, [r3, #32]
 1246 067c 5B68     		ldr	r3, [r3, #4]
 1247 067e 3A4A     		ldr	r2, .L48
 1248 0680 DA60     		str	r2, [r3, #12]
 1249              		.loc 5 576 0
 1250 0682 039B     		ldr	r3, [sp, #12]
 1251 0684 1B6A     		ldr	r3, [r3, #32]
 1252 0686 5B68     		ldr	r3, [r3, #4]
 1253 0688 029A     		ldr	r2, [sp, #8]
 1254 068a 5A60     		str	r2, [r3, #4]
 1255              	.LBB16:
 1256              		.loc 5 577 0
 1257 068c 039B     		ldr	r3, [sp, #12]
 1258 068e 1B6A     		ldr	r3, [r3, #32]
 1259 0690 DB68     		ldr	r3, [r3, #12]
 1260 0692 1B68     		ldr	r3, [r3]
 1261 0694 0593     		str	r3, [sp, #20]
 1262 0696 039B     		ldr	r3, [sp, #12]
 1263 0698 1B6A     		ldr	r3, [r3, #32]
 1264 069a 1B7C     		ldrb	r3, [r3, #16]	@ zero_extendqisi2
 1265 069c 0F22     		movs	r2, #15
 1266 069e 02FA03F3 		lsl	r3, r2, r3
 1267 06a2 DB43     		mvns	r3, r3
 1268 06a4 059A     		ldr	r2, [sp, #20]
 1269 06a6 1340     		ands	r3, r3, r2
 1270 06a8 0593     		str	r3, [sp, #20]
 1271 06aa 039B     		ldr	r3, [sp, #12]
 1272 06ac 9B6A     		ldr	r3, [r3, #40]
 1273 06ae 1A0C     		lsrs	r2, r3, #16
 1274 06b0 039B     		ldr	r3, [sp, #12]
 1275 06b2 1B6A     		ldr	r3, [r3, #32]
 1276 06b4 1B7C     		ldrb	r3, [r3, #16]	@ zero_extendqisi2
 1277 06b6 02FA03F3 		lsl	r3, r2, r3
 1278 06ba 059A     		ldr	r2, [sp, #20]
 1279 06bc 1343     		orrs	r3, r3, r2
 1280 06be 0593     		str	r3, [sp, #20]
 1281 06c0 039B     		ldr	r3, [sp, #12]
 1282 06c2 1B6A     		ldr	r3, [r3, #32]
 1283 06c4 DB68     		ldr	r3, [r3, #12]
 1284 06c6 059A     		ldr	r2, [sp, #20]
 1285 06c8 1A60     		str	r2, [r3]
 1286 06ca 039B     		ldr	r3, [sp, #12]
 1287 06cc 1B6A     		ldr	r3, [r3, #32]
 1288 06ce 5B68     		ldr	r3, [r3, #4]
 1289 06d0 039A     		ldr	r2, [sp, #12]
 1290 06d2 926A     		ldr	r2, [r2, #40]
 1291 06d4 1A60     		str	r2, [r3]
ARM GAS  /tmp/ccDnkyfG.s 			page 24


 1292              	.LBE16:
 1293              		.loc 5 579 0
 1294 06d6 039B     		ldr	r3, [sp, #12]
 1295 06d8 5B6A     		ldr	r3, [r3, #36]
 1296 06da 5B68     		ldr	r3, [r3, #4]
 1297 06dc 019A     		ldr	r2, [sp, #4]
 1298 06de DA60     		str	r2, [r3, #12]
 1299              		.loc 5 580 0
 1300 06e0 039B     		ldr	r3, [sp, #12]
 1301 06e2 5B6A     		ldr	r3, [r3, #36]
 1302 06e4 5B68     		ldr	r3, [r3, #4]
 1303 06e6 029A     		ldr	r2, [sp, #8]
 1304 06e8 5A60     		str	r2, [r3, #4]
 1305              	.LBB17:
 1306              		.loc 5 581 0
 1307 06ea 039B     		ldr	r3, [sp, #12]
 1308 06ec 5B6A     		ldr	r3, [r3, #36]
 1309 06ee DB68     		ldr	r3, [r3, #12]
 1310 06f0 1B68     		ldr	r3, [r3]
 1311 06f2 0493     		str	r3, [sp, #16]
 1312 06f4 039B     		ldr	r3, [sp, #12]
 1313 06f6 5B6A     		ldr	r3, [r3, #36]
 1314 06f8 1B7C     		ldrb	r3, [r3, #16]	@ zero_extendqisi2
 1315 06fa 0F22     		movs	r2, #15
 1316 06fc 02FA03F3 		lsl	r3, r2, r3
 1317 0700 DB43     		mvns	r3, r3
 1318 0702 049A     		ldr	r2, [sp, #16]
 1319 0704 1340     		ands	r3, r3, r2
 1320 0706 0493     		str	r3, [sp, #16]
 1321 0708 039B     		ldr	r3, [sp, #12]
 1322 070a DB6A     		ldr	r3, [r3, #44]
 1323 070c 43F08003 		orr	r3, r3, #128
 1324 0710 1A0C     		lsrs	r2, r3, #16
 1325 0712 039B     		ldr	r3, [sp, #12]
 1326 0714 5B6A     		ldr	r3, [r3, #36]
 1327 0716 1B7C     		ldrb	r3, [r3, #16]	@ zero_extendqisi2
 1328 0718 02FA03F3 		lsl	r3, r2, r3
 1329 071c 049A     		ldr	r2, [sp, #16]
 1330 071e 1343     		orrs	r3, r3, r2
 1331 0720 0493     		str	r3, [sp, #16]
 1332 0722 039B     		ldr	r3, [sp, #12]
 1333 0724 5B6A     		ldr	r3, [r3, #36]
 1334 0726 DB68     		ldr	r3, [r3, #12]
 1335 0728 049A     		ldr	r2, [sp, #16]
 1336 072a 1A60     		str	r2, [r3]
 1337 072c 039B     		ldr	r3, [sp, #12]
 1338 072e 5B6A     		ldr	r3, [r3, #36]
 1339 0730 5B68     		ldr	r3, [r3, #4]
 1340 0732 039A     		ldr	r2, [sp, #12]
 1341 0734 D26A     		ldr	r2, [r2, #44]
 1342 0736 42F08002 		orr	r2, r2, #128
 1343 073a 1A60     		str	r2, [r3]
 1344              	.LBE17:
 1345              		.loc 5 583 0
 1346 073c 039B     		ldr	r3, [sp, #12]
 1347 073e 1B6A     		ldr	r3, [r3, #32]
 1348 0740 5B68     		ldr	r3, [r3, #4]
ARM GAS  /tmp/ccDnkyfG.s 			page 25


 1349 0742 039A     		ldr	r2, [sp, #12]
 1350 0744 126A     		ldr	r2, [r2, #32]
 1351 0746 5268     		ldr	r2, [r2, #4]
 1352 0748 1268     		ldr	r2, [r2]
 1353 074a 42F00102 		orr	r2, r2, #1
 1354 074e 1A60     		str	r2, [r3]
 1355              		.loc 5 584 0
 1356 0750 039B     		ldr	r3, [sp, #12]
 1357 0752 5B6A     		ldr	r3, [r3, #36]
 1358 0754 5B68     		ldr	r3, [r3, #4]
 1359 0756 039A     		ldr	r2, [sp, #12]
 1360 0758 526A     		ldr	r2, [r2, #36]
 1361 075a 5268     		ldr	r2, [r2, #4]
 1362 075c 1268     		ldr	r2, [r2]
 1363 075e 42F00102 		orr	r2, r2, #1
 1364 0762 1A60     		str	r2, [r3]
 1365              		.loc 5 585 0
 1366 0764 06B0     		add	sp, sp, #24
 1367              		@ sp needed
 1368 0766 7047     		bx	lr
 1369              	.L49:
 1370              		.align	2
 1371              	.L48:
 1372 0768 00000000 		.word	dummyrx
 1373              		.cfi_endproc
 1374              	.LFE276:
 1375              		.size	spi_lld_send, .-spi_lld_send
 1376              		.align	2
 1377 076c AFF30080 		.p2align 4,,15
 1378              		.global	spi_lld_receive
 1379              		.thumb
 1380              		.thumb_func
 1381              		.type	spi_lld_receive, %function
 1382              	spi_lld_receive:
 1383              	.LFB277:
 1384              		.loc 5 600 0
 1385              		.cfi_startproc
 1386              		@ args = 0, pretend = 0, frame = 24
 1387              		@ frame_needed = 0, uses_anonymous_args = 0
 1388              		@ link register save eliminated.
 1389 0770 86B0     		sub	sp, sp, #24
 1390              		.cfi_def_cfa_offset 24
 1391 0772 0390     		str	r0, [sp, #12]
 1392 0774 0291     		str	r1, [sp, #8]
 1393 0776 0192     		str	r2, [sp, #4]
 1394              		.loc 5 602 0
 1395 0778 039B     		ldr	r3, [sp, #12]
 1396 077a 1B6A     		ldr	r3, [r3, #32]
 1397 077c 5B68     		ldr	r3, [r3, #4]
 1398 077e 019A     		ldr	r2, [sp, #4]
 1399 0780 DA60     		str	r2, [r3, #12]
 1400              		.loc 5 603 0
 1401 0782 039B     		ldr	r3, [sp, #12]
 1402 0784 1B6A     		ldr	r3, [r3, #32]
 1403 0786 5B68     		ldr	r3, [r3, #4]
 1404 0788 029A     		ldr	r2, [sp, #8]
 1405 078a 5A60     		str	r2, [r3, #4]
ARM GAS  /tmp/ccDnkyfG.s 			page 26


 1406              	.LBB18:
 1407              		.loc 5 604 0
 1408 078c 039B     		ldr	r3, [sp, #12]
 1409 078e 1B6A     		ldr	r3, [r3, #32]
 1410 0790 DB68     		ldr	r3, [r3, #12]
 1411 0792 1B68     		ldr	r3, [r3]
 1412 0794 0593     		str	r3, [sp, #20]
 1413 0796 039B     		ldr	r3, [sp, #12]
 1414 0798 1B6A     		ldr	r3, [r3, #32]
 1415 079a 1B7C     		ldrb	r3, [r3, #16]	@ zero_extendqisi2
 1416 079c 0F22     		movs	r2, #15
 1417 079e 02FA03F3 		lsl	r3, r2, r3
 1418 07a2 DB43     		mvns	r3, r3
 1419 07a4 059A     		ldr	r2, [sp, #20]
 1420 07a6 1340     		ands	r3, r3, r2
 1421 07a8 0593     		str	r3, [sp, #20]
 1422 07aa 039B     		ldr	r3, [sp, #12]
 1423 07ac 9B6A     		ldr	r3, [r3, #40]
 1424 07ae 43F08003 		orr	r3, r3, #128
 1425 07b2 1A0C     		lsrs	r2, r3, #16
 1426 07b4 039B     		ldr	r3, [sp, #12]
 1427 07b6 1B6A     		ldr	r3, [r3, #32]
 1428 07b8 1B7C     		ldrb	r3, [r3, #16]	@ zero_extendqisi2
 1429 07ba 02FA03F3 		lsl	r3, r2, r3
 1430 07be 059A     		ldr	r2, [sp, #20]
 1431 07c0 1343     		orrs	r3, r3, r2
 1432 07c2 0593     		str	r3, [sp, #20]
 1433 07c4 039B     		ldr	r3, [sp, #12]
 1434 07c6 1B6A     		ldr	r3, [r3, #32]
 1435 07c8 DB68     		ldr	r3, [r3, #12]
 1436 07ca 059A     		ldr	r2, [sp, #20]
 1437 07cc 1A60     		str	r2, [r3]
 1438 07ce 039B     		ldr	r3, [sp, #12]
 1439 07d0 1B6A     		ldr	r3, [r3, #32]
 1440 07d2 5B68     		ldr	r3, [r3, #4]
 1441 07d4 039A     		ldr	r2, [sp, #12]
 1442 07d6 926A     		ldr	r2, [r2, #40]
 1443 07d8 42F08002 		orr	r2, r2, #128
 1444 07dc 1A60     		str	r2, [r3]
 1445              	.LBE18:
 1446              		.loc 5 606 0
 1447 07de 039B     		ldr	r3, [sp, #12]
 1448 07e0 5B6A     		ldr	r3, [r3, #36]
 1449 07e2 5B68     		ldr	r3, [r3, #4]
 1450 07e4 204A     		ldr	r2, .L51
 1451 07e6 DA60     		str	r2, [r3, #12]
 1452              		.loc 5 607 0
 1453 07e8 039B     		ldr	r3, [sp, #12]
 1454 07ea 5B6A     		ldr	r3, [r3, #36]
 1455 07ec 5B68     		ldr	r3, [r3, #4]
 1456 07ee 029A     		ldr	r2, [sp, #8]
 1457 07f0 5A60     		str	r2, [r3, #4]
 1458              	.LBB19:
 1459              		.loc 5 608 0
 1460 07f2 039B     		ldr	r3, [sp, #12]
 1461 07f4 5B6A     		ldr	r3, [r3, #36]
 1462 07f6 DB68     		ldr	r3, [r3, #12]
ARM GAS  /tmp/ccDnkyfG.s 			page 27


 1463 07f8 1B68     		ldr	r3, [r3]
 1464 07fa 0493     		str	r3, [sp, #16]
 1465 07fc 039B     		ldr	r3, [sp, #12]
 1466 07fe 5B6A     		ldr	r3, [r3, #36]
 1467 0800 1B7C     		ldrb	r3, [r3, #16]	@ zero_extendqisi2
 1468 0802 0F22     		movs	r2, #15
 1469 0804 02FA03F3 		lsl	r3, r2, r3
 1470 0808 DB43     		mvns	r3, r3
 1471 080a 049A     		ldr	r2, [sp, #16]
 1472 080c 1340     		ands	r3, r3, r2
 1473 080e 0493     		str	r3, [sp, #16]
 1474 0810 039B     		ldr	r3, [sp, #12]
 1475 0812 DB6A     		ldr	r3, [r3, #44]
 1476 0814 1A0C     		lsrs	r2, r3, #16
 1477 0816 039B     		ldr	r3, [sp, #12]
 1478 0818 5B6A     		ldr	r3, [r3, #36]
 1479 081a 1B7C     		ldrb	r3, [r3, #16]	@ zero_extendqisi2
 1480 081c 02FA03F3 		lsl	r3, r2, r3
 1481 0820 049A     		ldr	r2, [sp, #16]
 1482 0822 1343     		orrs	r3, r3, r2
 1483 0824 0493     		str	r3, [sp, #16]
 1484 0826 039B     		ldr	r3, [sp, #12]
 1485 0828 5B6A     		ldr	r3, [r3, #36]
 1486 082a DB68     		ldr	r3, [r3, #12]
 1487 082c 049A     		ldr	r2, [sp, #16]
 1488 082e 1A60     		str	r2, [r3]
 1489 0830 039B     		ldr	r3, [sp, #12]
 1490 0832 5B6A     		ldr	r3, [r3, #36]
 1491 0834 5B68     		ldr	r3, [r3, #4]
 1492 0836 039A     		ldr	r2, [sp, #12]
 1493 0838 D26A     		ldr	r2, [r2, #44]
 1494 083a 1A60     		str	r2, [r3]
 1495              	.LBE19:
 1496              		.loc 5 610 0
 1497 083c 039B     		ldr	r3, [sp, #12]
 1498 083e 1B6A     		ldr	r3, [r3, #32]
 1499 0840 5B68     		ldr	r3, [r3, #4]
 1500 0842 039A     		ldr	r2, [sp, #12]
 1501 0844 126A     		ldr	r2, [r2, #32]
 1502 0846 5268     		ldr	r2, [r2, #4]
 1503 0848 1268     		ldr	r2, [r2]
 1504 084a 42F00102 		orr	r2, r2, #1
 1505 084e 1A60     		str	r2, [r3]
 1506              		.loc 5 611 0
 1507 0850 039B     		ldr	r3, [sp, #12]
 1508 0852 5B6A     		ldr	r3, [r3, #36]
 1509 0854 5B68     		ldr	r3, [r3, #4]
 1510 0856 039A     		ldr	r2, [sp, #12]
 1511 0858 526A     		ldr	r2, [r2, #36]
 1512 085a 5268     		ldr	r2, [r2, #4]
 1513 085c 1268     		ldr	r2, [r2]
 1514 085e 42F00102 		orr	r2, r2, #1
 1515 0862 1A60     		str	r2, [r3]
 1516              		.loc 5 612 0
 1517 0864 06B0     		add	sp, sp, #24
 1518              		@ sp needed
 1519 0866 7047     		bx	lr
ARM GAS  /tmp/ccDnkyfG.s 			page 28


 1520              	.L52:
 1521              		.align	2
 1522              	.L51:
 1523 0868 00000000 		.word	dummytx
 1524              		.cfi_endproc
 1525              	.LFE277:
 1526              		.size	spi_lld_receive, .-spi_lld_receive
 1527              		.align	2
 1528 086c AFF30080 		.p2align 4,,15
 1529              		.global	spi_lld_polled_exchange
 1530              		.thumb
 1531              		.thumb_func
 1532              		.type	spi_lld_polled_exchange, %function
 1533              	spi_lld_polled_exchange:
 1534              	.LFB278:
 1535              		.loc 5 626 0
 1536              		.cfi_startproc
 1537              		@ args = 0, pretend = 0, frame = 16
 1538              		@ frame_needed = 0, uses_anonymous_args = 0
 1539              		@ link register save eliminated.
 1540 0870 84B0     		sub	sp, sp, #16
 1541              		.cfi_def_cfa_offset 16
 1542 0872 0190     		str	r0, [sp, #4]
 1543 0874 0B46     		mov	r3, r1
 1544 0876 ADF80230 		strh	r3, [sp, #2]	@ movhi
 1545              		.loc 5 633 0
 1546 087a 019B     		ldr	r3, [sp, #4]
 1547 087c 5B68     		ldr	r3, [r3, #4]
 1548 087e 9B89     		ldrh	r3, [r3, #12]
 1549 0880 03F47063 		and	r3, r3, #3840
 1550 0884 B3F5E06F 		cmp	r3, #1792
 1551 0888 14D8     		bhi	.L54
 1552              	.LBB20:
 1553              		.loc 5 636 0
 1554 088a 019B     		ldr	r3, [sp, #4]
 1555 088c DB69     		ldr	r3, [r3, #28]
 1556 088e 0C33     		adds	r3, r3, #12
 1557 0890 0393     		str	r3, [sp, #12]
 1558              		.loc 5 637 0
 1559 0892 BDF80230 		ldrh	r3, [sp, #2]	@ movhi
 1560 0896 DAB2     		uxtb	r2, r3
 1561 0898 039B     		ldr	r3, [sp, #12]
 1562 089a 1A70     		strb	r2, [r3]
 1563              		.loc 5 638 0
 1564 089c 00BF     		nop
 1565              	.L55:
 1566              		.loc 5 638 0 is_stmt 0 discriminator 1
 1567 089e 019B     		ldr	r3, [sp, #4]
 1568 08a0 DB69     		ldr	r3, [r3, #28]
 1569 08a2 9B68     		ldr	r3, [r3, #8]
 1570 08a4 03F00103 		and	r3, r3, #1
 1571 08a8 002B     		cmp	r3, #0
 1572 08aa F8D0     		beq	.L55
 1573              		.loc 5 640 0 is_stmt 1
 1574 08ac 039B     		ldr	r3, [sp, #12]
 1575 08ae 1B78     		ldrb	r3, [r3]
 1576 08b0 DBB2     		uxtb	r3, r3
ARM GAS  /tmp/ccDnkyfG.s 			page 29


 1577 08b2 10E0     		b	.L56
 1578              	.L54:
 1579              	.LBE20:
 1580              		.loc 5 643 0
 1581 08b4 019B     		ldr	r3, [sp, #4]
 1582 08b6 DB69     		ldr	r3, [r3, #28]
 1583 08b8 BDF80220 		ldrh	r2, [sp, #2]
 1584 08bc DA60     		str	r2, [r3, #12]
 1585              		.loc 5 644 0
 1586 08be 00BF     		nop
 1587              	.L57:
 1588              		.loc 5 644 0 is_stmt 0 discriminator 1
 1589 08c0 019B     		ldr	r3, [sp, #4]
 1590 08c2 DB69     		ldr	r3, [r3, #28]
 1591 08c4 9B68     		ldr	r3, [r3, #8]
 1592 08c6 03F00103 		and	r3, r3, #1
 1593 08ca 002B     		cmp	r3, #0
 1594 08cc F8D0     		beq	.L57
 1595              		.loc 5 646 0 is_stmt 1
 1596 08ce 019B     		ldr	r3, [sp, #4]
 1597 08d0 DB69     		ldr	r3, [r3, #28]
 1598 08d2 DB68     		ldr	r3, [r3, #12]
 1599 08d4 9BB2     		uxth	r3, r3
 1600              	.L56:
 1601              		.loc 5 648 0
 1602 08d6 1846     		mov	r0, r3
 1603 08d8 04B0     		add	sp, sp, #16
 1604              		@ sp needed
 1605 08da 7047     		bx	lr
 1606              		.cfi_endproc
 1607              	.LFE278:
 1608              		.size	spi_lld_polled_exchange, .-spi_lld_polled_exchange
 1609              		.align	2
 1610 08dc AFF30080 		.p2align 4,,15
 1611              		.global	spi_lld_polled_tx
 1612              		.thumb
 1613              		.thumb_func
 1614              		.type	spi_lld_polled_tx, %function
 1615              	spi_lld_polled_tx:
 1616              	.LFB279:
 1617              		.loc 5 664 0
 1618              		.cfi_startproc
 1619              		@ args = 0, pretend = 0, frame = 16
 1620              		@ frame_needed = 0, uses_anonymous_args = 0
 1621              		@ link register save eliminated.
 1622 08e0 84B0     		sub	sp, sp, #16
 1623              		.cfi_def_cfa_offset 16
 1624 08e2 0190     		str	r0, [sp, #4]
 1625 08e4 0B46     		mov	r3, r1
 1626 08e6 8DF80330 		strb	r3, [sp, #3]
 1627              		.loc 5 667 0
 1628 08ea 00BF     		nop
 1629              	.L59:
 1630              		.loc 5 667 0 is_stmt 0 discriminator 1
 1631 08ec 019B     		ldr	r3, [sp, #4]
 1632 08ee DB69     		ldr	r3, [r3, #28]
 1633 08f0 9B68     		ldr	r3, [r3, #8]
ARM GAS  /tmp/ccDnkyfG.s 			page 30


 1634 08f2 03F00203 		and	r3, r3, #2
 1635 08f6 002B     		cmp	r3, #0
 1636 08f8 F8D0     		beq	.L59
 1637              		.loc 5 670 0 is_stmt 1
 1638 08fa 019B     		ldr	r3, [sp, #4]
 1639 08fc DB69     		ldr	r3, [r3, #28]
 1640 08fe 0C33     		adds	r3, r3, #12
 1641 0900 0393     		str	r3, [sp, #12]
 1642              		.loc 5 671 0
 1643 0902 039B     		ldr	r3, [sp, #12]
 1644 0904 9DF80320 		ldrb	r2, [sp, #3]
 1645 0908 1A70     		strb	r2, [r3]
 1646              		.loc 5 674 0
 1647 090a 00BF     		nop
 1648              	.L60:
 1649              		.loc 5 674 0 is_stmt 0 discriminator 1
 1650 090c 019B     		ldr	r3, [sp, #4]
 1651 090e DB69     		ldr	r3, [r3, #28]
 1652 0910 9B68     		ldr	r3, [r3, #8]
 1653 0912 03F4C053 		and	r3, r3, #6144
 1654 0916 002B     		cmp	r3, #0
 1655 0918 F8D1     		bne	.L60
 1656              		.loc 5 675 0 is_stmt 1
 1657 091a 00BF     		nop
 1658              	.L61:
 1659              		.loc 5 675 0 is_stmt 0 discriminator 1
 1660 091c 019B     		ldr	r3, [sp, #4]
 1661 091e DB69     		ldr	r3, [r3, #28]
 1662 0920 9B68     		ldr	r3, [r3, #8]
 1663 0922 03F08003 		and	r3, r3, #128
 1664 0926 002B     		cmp	r3, #0
 1665 0928 F8D1     		bne	.L61
 1666              		.loc 5 677 0 is_stmt 1
 1667 092a 0023     		movs	r3, #0
 1668              		.loc 5 678 0
 1669 092c 1846     		mov	r0, r3
 1670 092e 04B0     		add	sp, sp, #16
 1671              		@ sp needed
 1672 0930 7047     		bx	lr
 1673              		.cfi_endproc
 1674              	.LFE279:
 1675              		.size	spi_lld_polled_tx, .-spi_lld_polled_tx
 1676 0932 00BF     		.align	2
 1677 0934 AFF30080 		.p2align 4,,15
 1677      AFF30080 
 1677      AFF30080 
 1678              		.global	spi_lld_polled_rx
 1679              		.thumb
 1680              		.thumb_func
 1681              		.type	spi_lld_polled_rx, %function
 1682              	spi_lld_polled_rx:
 1683              	.LFB280:
 1684              		.loc 5 680 0
 1685              		.cfi_startproc
 1686              		@ args = 0, pretend = 0, frame = 16
 1687              		@ frame_needed = 0, uses_anonymous_args = 0
 1688 0940 00B5     		push	{lr}
ARM GAS  /tmp/ccDnkyfG.s 			page 31


 1689              		.cfi_def_cfa_offset 4
 1690              		.cfi_offset 14, -4
 1691 0942 85B0     		sub	sp, sp, #20
 1692              		.cfi_def_cfa_offset 24
 1693 0944 0190     		str	r0, [sp, #4]
 1694              		.loc 5 688 0
 1695 0946 FFF77BFB 		bl	chSysLock
 1696              		.loc 5 689 0
 1697 094a 019B     		ldr	r3, [sp, #4]
 1698 094c DB69     		ldr	r3, [r3, #28]
 1699 094e 019A     		ldr	r2, [sp, #4]
 1700 0950 D269     		ldr	r2, [r2, #28]
 1701 0952 1268     		ldr	r2, [r2]
 1702 0954 42F04002 		orr	r2, r2, #64
 1703 0958 1A60     		str	r2, [r3]
 1704              		.loc 5 690 0
 1705              	@ 690 "../ChibiOS/os/hal/ports/STM32/LLD/SPIv2/spi_lld.c" 1
 1706 095a BFF34F8F 		dsb
 1707              	
 1708              	@ 0 "" 2
 1709              		.loc 5 691 0
 1710              	@ 691 "../ChibiOS/os/hal/ports/STM32/LLD/SPIv2/spi_lld.c" 1
 1711 095e BFF34F8F 		dsb
 1712              	
 1713              	@ 0 "" 2
 1714              		.loc 5 692 0
 1715              		.thumb
 1716 0962 019B     		ldr	r3, [sp, #4]
 1717 0964 DB69     		ldr	r3, [r3, #28]
 1718 0966 019A     		ldr	r2, [sp, #4]
 1719 0968 D269     		ldr	r2, [r2, #28]
 1720 096a 1268     		ldr	r2, [r2]
 1721 096c 22F04002 		bic	r2, r2, #64
 1722 0970 1A60     		str	r2, [r3]
 1723              		.loc 5 693 0
 1724 0972 FFF76DFB 		bl	chSysUnlock
 1725              		.loc 5 695 0
 1726 0976 00BF     		nop
 1727              	.L64:
 1728              		.loc 5 695 0 is_stmt 0 discriminator 1
 1729 0978 019B     		ldr	r3, [sp, #4]
 1730 097a DB69     		ldr	r3, [r3, #28]
 1731 097c 9B68     		ldr	r3, [r3, #8]
 1732 097e 03F00103 		and	r3, r3, #1
 1733 0982 002B     		cmp	r3, #0
 1734 0984 F8D0     		beq	.L64
 1735              		.loc 5 697 0 is_stmt 1
 1736 0986 019B     		ldr	r3, [sp, #4]
 1737 0988 DB69     		ldr	r3, [r3, #28]
 1738 098a 0C33     		adds	r3, r3, #12
 1739 098c 0393     		str	r3, [sp, #12]
 1740              		.loc 5 698 0
 1741 098e 039B     		ldr	r3, [sp, #12]
 1742 0990 1B78     		ldrb	r3, [r3]
 1743 0992 8DF80B30 		strb	r3, [sp, #11]
 1744              		.loc 5 699 0
 1745 0996 00BF     		nop
ARM GAS  /tmp/ccDnkyfG.s 			page 32


 1746              	.L65:
 1747              		.loc 5 699 0 is_stmt 0 discriminator 1
 1748 0998 019B     		ldr	r3, [sp, #4]
 1749 099a DB69     		ldr	r3, [r3, #28]
 1750 099c 9B68     		ldr	r3, [r3, #8]
 1751 099e 03F08003 		and	r3, r3, #128
 1752 09a2 002B     		cmp	r3, #0
 1753 09a4 F8D1     		bne	.L65
 1754              		.loc 5 700 0 is_stmt 1
 1755 09a6 9DF80B30 		ldrb	r3, [sp, #11]	@ zero_extendqisi2
 1756              		.loc 5 701 0
 1757 09aa 1846     		mov	r0, r3
 1758 09ac 05B0     		add	sp, sp, #20
 1759              		@ sp needed
 1760 09ae 5DF804FB 		ldr	pc, [sp], #4
 1761              		.cfi_endproc
 1762              	.LFE280:
 1763              		.size	spi_lld_polled_rx, .-spi_lld_polled_rx
 1764              	.Letext0:
 1765              		.file 6 "/nfs/nfs5/home/research/hardware/arm2/gcc-arm-embedded/gcc-arm-none-eabi-4_8-2014q2/lib/g
 1766              		.file 7 "/nfs/nfs5/home/research/hardware/arm2/gcc-arm-embedded/gcc-arm-none-eabi-4_8-2014q2/arm-n
 1767              		.file 8 "/nfs/nfs5/home/research/hardware/arm2/gcc-arm-embedded/gcc-arm-none-eabi-4_8-2014q2/arm-n
 1768              		.file 9 "../ChibiOS/os/rt/ports/ARMCMx/compilers/GCC/chtypes.h"
 1769              		.file 10 "../ChibiOS/os/rt/include/chsystypes.h"
 1770              		.file 11 "../ChibiOS/os/rt/include/chschd.h"
 1771              		.file 12 "../ChibiOS/os/ext/CMSIS/ST/STM32L4xx/stm32l476xx.h"
 1772              		.file 13 "../ChibiOS/os/rt/ports/ARMCMx/chcore.h"
 1773              		.file 14 "../ChibiOS/os/rt/include/chtm.h"
 1774              		.file 15 "../ChibiOS/os/rt/include/chsem.h"
 1775              		.file 16 "../ChibiOS/os/rt/include/chmtx.h"
 1776              		.file 17 "../ChibiOS/os/hal/ports/STM32/LLD/DMAv1/stm32_dma.h"
 1777              		.file 18 "../ChibiOS/os/hal/ports/STM32/LLD/GPIOv3/pal_lld.h"
 1778              		.file 19 "../ChibiOS/os/hal/include/spi.h"
 1779              		.file 20 "../ChibiOS/os/hal/ports/STM32/LLD/SPIv2/spi_lld.h"
 1780              		.file 21 "../ChibiOS/os/ext/CMSIS/include/core_cm4.h"